
0-timing-check.elf:     file format elf32-littlearm


Disassembly of section .text:

00008000 <__code_start__>:
    8000:	e3a00013 	mov	r0, #19, 0
    8004:	e3800080 	orr	r0, r0, #128, 0	; 0x80
    8008:	e129f000 	msr	CPSR_fc, r0
    800c:	e3a01000 	mov	r1, #0, 0
    8010:	ee071f95 	mcr	15, 0, r1, cr7, cr5, {4}
    8014:	e3a0d302 	mov	sp, #134217728	; 0x8000000
    8018:	e3a0b000 	mov	fp, #0, 0
    801c:	eb000d2b 	bl	b4d0 <_cstart>
    8020:	eb000d4b 	bl	b554 <rpi_reboot>

00008024 <PUT32>:
    8024:	e5801000 	str	r1, [r0]
    8028:	e12fff1e 	bx	lr

0000802c <GET32>:
    802c:	e5900000 	ldr	r0, [r0]
    8030:	e12fff1e 	bx	lr

00008034 <BRANCHTO>:
    8034:	e12fff10 	bx	r0
	...

00008040 <t1h>:
    8040:	ee1f2f3c 	mrc	15, 0, r2, cr15, cr12, {1}
    8044:	e2422010 	sub	r2, r2, #16, 0
    8048:	e3a03001 	mov	r3, #1, 0
    804c:	e1a00013 	lsl	r0, r3, r0
    8050:	e59f3018 	ldr	r3, [pc, #24]	; 8070 <t1h+0x30>
    8054:	e583001c 	str	r0, [r3, #28]
    8058:	e59f1014 	ldr	r1, [pc, #20]	; 8074 <t1h+0x34>
    805c:	ee1f3f3c 	mrc	15, 0, r3, cr15, cr12, {1}
    8060:	e0433002 	sub	r3, r3, r2
    8064:	e1530001 	cmp	r3, r1
    8068:	9afffffb 	bls	805c <t1h+0x1c>
    806c:	e12fff1e 	bx	lr
    8070:	20200000 	.word	0x20200000
    8074:	00000265 	.word	0x00000265

00008078 <t0h>:
    8078:	ee1f2f3c 	mrc	15, 0, r2, cr15, cr12, {1}
    807c:	e2422010 	sub	r2, r2, #16, 0
    8080:	e3a03001 	mov	r3, #1, 0
    8084:	e1a00013 	lsl	r0, r3, r0
    8088:	e59f3014 	ldr	r3, [pc, #20]	; 80a4 <t0h+0x2c>
    808c:	e583001c 	str	r0, [r3, #28]
    8090:	ee1f3f3c 	mrc	15, 0, r3, cr15, cr12, {1}
    8094:	e0433002 	sub	r3, r3, r2
    8098:	e35300e4 	cmp	r3, #228, 0	; 0xe4
    809c:	9afffffb 	bls	8090 <t0h+0x18>
    80a0:	e12fff1e 	bx	lr
    80a4:	20200000 	.word	0x20200000

000080a8 <t1l>:
    80a8:	ee1f2f3c 	mrc	15, 0, r2, cr15, cr12, {1}
    80ac:	e2422010 	sub	r2, r2, #16, 0
    80b0:	e3a03001 	mov	r3, #1, 0
    80b4:	e1a00013 	lsl	r0, r3, r0
    80b8:	e59f3014 	ldr	r3, [pc, #20]	; 80d4 <t1l+0x2c>
    80bc:	e5830028 	str	r0, [r3, #40]	; 0x28
    80c0:	ee1f3f3c 	mrc	15, 0, r3, cr15, cr12, {1}
    80c4:	e0433002 	sub	r3, r3, r2
    80c8:	e35300e4 	cmp	r3, #228, 0	; 0xe4
    80cc:	9afffffb 	bls	80c0 <t1l+0x18>
    80d0:	e12fff1e 	bx	lr
    80d4:	20200000 	.word	0x20200000

000080d8 <t0l>:
    80d8:	ee1f2f3c 	mrc	15, 0, r2, cr15, cr12, {1}
    80dc:	e2422010 	sub	r2, r2, #16, 0
    80e0:	e3a03001 	mov	r3, #1, 0
    80e4:	e1a00013 	lsl	r0, r3, r0
    80e8:	e59f3018 	ldr	r3, [pc, #24]	; 8108 <t0l+0x30>
    80ec:	e5830028 	str	r0, [r3, #40]	; 0x28
    80f0:	e59f1014 	ldr	r1, [pc, #20]	; 810c <t0l+0x34>
    80f4:	ee1f3f3c 	mrc	15, 0, r3, cr15, cr12, {1}
    80f8:	e0433002 	sub	r3, r3, r2
    80fc:	e1530001 	cmp	r3, r1
    8100:	9afffffb 	bls	80f4 <t0l+0x1c>
    8104:	e12fff1e 	bx	lr
    8108:	20200000 	.word	0x20200000
    810c:	00000265 	.word	0x00000265

00008110 <treset>:
    8110:	ee1f2f3c 	mrc	15, 0, r2, cr15, cr12, {1}
    8114:	e2422010 	sub	r2, r2, #16, 0
    8118:	e3a03001 	mov	r3, #1, 0
    811c:	e1a00013 	lsl	r0, r3, r0
    8120:	e59f3018 	ldr	r3, [pc, #24]	; 8140 <treset+0x30>
    8124:	e5830028 	str	r0, [r3, #40]	; 0x28
    8128:	e59f1014 	ldr	r1, [pc, #20]	; 8144 <treset+0x34>
    812c:	ee1f3f3c 	mrc	15, 0, r3, cr15, cr12, {1}
    8130:	e0433002 	sub	r3, r3, r2
    8134:	e1530001 	cmp	r3, r1
    8138:	9afffffb 	bls	812c <treset+0x1c>
    813c:	e12fff1e 	bx	lr
    8140:	20200000 	.word	0x20200000
    8144:	0000a40f 	.word	0x0000a40f

00008148 <check_delay>:
    8148:	e92d4030 	push	{r4, r5, lr}
    814c:	e24dd014 	sub	sp, sp, #20, 0
    8150:	e1a04000 	mov	r4, r0
    8154:	e1a01000 	mov	r1, r0
    8158:	e59f007c 	ldr	r0, [pc, #124]	; 81dc <check_delay+0x94>
    815c:	eb000bb9 	bl	b048 <printk>
    8160:	ee1f5f3c 	mrc	15, 0, r5, cr15, cr12, {1}
    8164:	ee1f3f3c 	mrc	15, 0, r3, cr15, cr12, {1}
    8168:	e0435005 	sub	r5, r3, r5
    816c:	e1a01005 	mov	r1, r5
    8170:	e59f0068 	ldr	r0, [pc, #104]	; 81e0 <check_delay+0x98>
    8174:	eb000bb3 	bl	b048 <printk>
    8178:	ee1f2f3c 	mrc	15, 0, r2, cr15, cr12, {1}
    817c:	ee1f1f3c 	mrc	15, 0, r1, cr15, cr12, {1}
    8180:	e0411002 	sub	r1, r1, r2
    8184:	e1540001 	cmp	r4, r1
    8188:	8afffffb 	bhi	817c <check_delay+0x34>
    818c:	ee1f0f3c 	mrc	15, 0, r0, cr15, cr12, {1}
    8190:	e2843010 	add	r3, r4, #16, 0
    8194:	e0833005 	add	r3, r3, r5
    8198:	e0402002 	sub	r2, r0, r2
    819c:	e1530002 	cmp	r3, r2
    81a0:	3a000004 	bcc	81b8 <check_delay+0x70>
    81a4:	e1a01004 	mov	r1, r4
    81a8:	e59f0034 	ldr	r0, [pc, #52]	; 81e4 <check_delay+0x9c>
    81ac:	eb000ba5 	bl	b048 <printk>
    81b0:	e28dd014 	add	sp, sp, #20, 0
    81b4:	e8bd8030 	pop	{r4, r5, pc}
    81b8:	e58d3008 	str	r3, [sp, #8]
    81bc:	e58d2004 	str	r2, [sp, #4]
    81c0:	e58d4000 	str	r4, [sp]
    81c4:	e3a030b0 	mov	r3, #176, 0	; 0xb0
    81c8:	e59f2018 	ldr	r2, [pc, #24]	; 81e8 <check_delay+0xa0>
    81cc:	e59f1018 	ldr	r1, [pc, #24]	; 81ec <check_delay+0xa4>
    81d0:	e59f0018 	ldr	r0, [pc, #24]	; 81f0 <check_delay+0xa8>
    81d4:	eb000b9b 	bl	b048 <printk>
    81d8:	eb000cb4 	bl	b4b0 <clean_reboot>
    81dc:	0000bc90 	.word	0x0000bc90
    81e0:	0000bcac 	.word	0x0000bcac
    81e4:	0000bd14 	.word	0x0000bd14
    81e8:	0000bf30 	.word	0x0000bf30
    81ec:	0000bcbc 	.word	0x0000bcbc
    81f0:	0000bcd0 	.word	0x0000bcd0

000081f4 <check_timings>:
    81f4:	e92d47f0 	push	{r4, r5, r6, r7, r8, r9, sl, lr}
    81f8:	e24dd010 	sub	sp, sp, #16, 0
    81fc:	e1a06000 	mov	r6, r0
    8200:	e1a07001 	mov	r7, r1
    8204:	e320f000 	nop	{0}
    8208:	ee1f3f3c 	mrc	15, 0, r3, cr15, cr12, {1}
    820c:	ee1f4f3c 	mrc	15, 0, r4, cr15, cr12, {1}
    8210:	e0444003 	sub	r4, r4, r3
    8214:	e1a01004 	mov	r1, r4
    8218:	e59f0fe4 	ldr	r0, [pc, #4068]	; 9204 <check_timings+0x1010>
    821c:	eb000b89 	bl	b048 <printk>
    8220:	e3540008 	cmp	r4, #8, 0
    8224:	13570000 	cmpne	r7, #0, 0
    8228:	1a0009ba 	bne	a918 <check_timings+0x2724>
    822c:	e320f000 	nop	{0}
    8230:	e59fafd0 	ldr	sl, [pc, #4048]	; 9208 <check_timings+0x1014>
    8234:	e59a2004 	ldr	r2, [sl, #4]
    8238:	e3a04001 	mov	r4, #1, 0
    823c:	e1a04614 	lsl	r4, r4, r6
    8240:	e59f5fc4 	ldr	r5, [pc, #4036]	; 920c <check_timings+0x1018>
    8244:	e5854028 	str	r4, [r5, #40]	; 0x28
    8248:	e5854028 	str	r4, [r5, #40]	; 0x28
    824c:	e5854028 	str	r4, [r5, #40]	; 0x28
    8250:	e5854028 	str	r4, [r5, #40]	; 0x28
    8254:	e5854028 	str	r4, [r5, #40]	; 0x28
    8258:	e5854028 	str	r4, [r5, #40]	; 0x28
    825c:	e5854028 	str	r4, [r5, #40]	; 0x28
    8260:	e5854028 	str	r4, [r5, #40]	; 0x28
    8264:	e5854028 	str	r4, [r5, #40]	; 0x28
    8268:	e5854028 	str	r4, [r5, #40]	; 0x28
    826c:	e5854028 	str	r4, [r5, #40]	; 0x28
    8270:	e5854028 	str	r4, [r5, #40]	; 0x28
    8274:	e5854028 	str	r4, [r5, #40]	; 0x28
    8278:	e5854028 	str	r4, [r5, #40]	; 0x28
    827c:	e5854028 	str	r4, [r5, #40]	; 0x28
    8280:	e5854028 	str	r4, [r5, #40]	; 0x28
    8284:	e5854028 	str	r4, [r5, #40]	; 0x28
    8288:	e5854028 	str	r4, [r5, #40]	; 0x28
    828c:	e5854028 	str	r4, [r5, #40]	; 0x28
    8290:	e5854028 	str	r4, [r5, #40]	; 0x28
    8294:	e5854028 	str	r4, [r5, #40]	; 0x28
    8298:	e5854028 	str	r4, [r5, #40]	; 0x28
    829c:	e5854028 	str	r4, [r5, #40]	; 0x28
    82a0:	e5854028 	str	r4, [r5, #40]	; 0x28
    82a4:	e5854028 	str	r4, [r5, #40]	; 0x28
    82a8:	e5854028 	str	r4, [r5, #40]	; 0x28
    82ac:	e5854028 	str	r4, [r5, #40]	; 0x28
    82b0:	e5854028 	str	r4, [r5, #40]	; 0x28
    82b4:	e5854028 	str	r4, [r5, #40]	; 0x28
    82b8:	e5854028 	str	r4, [r5, #40]	; 0x28
    82bc:	e5854028 	str	r4, [r5, #40]	; 0x28
    82c0:	e5854028 	str	r4, [r5, #40]	; 0x28
    82c4:	e5854028 	str	r4, [r5, #40]	; 0x28
    82c8:	e5854028 	str	r4, [r5, #40]	; 0x28
    82cc:	e5854028 	str	r4, [r5, #40]	; 0x28
    82d0:	e5854028 	str	r4, [r5, #40]	; 0x28
    82d4:	e5854028 	str	r4, [r5, #40]	; 0x28
    82d8:	e5854028 	str	r4, [r5, #40]	; 0x28
    82dc:	e5854028 	str	r4, [r5, #40]	; 0x28
    82e0:	e5854028 	str	r4, [r5, #40]	; 0x28
    82e4:	e5854028 	str	r4, [r5, #40]	; 0x28
    82e8:	e5854028 	str	r4, [r5, #40]	; 0x28
    82ec:	e5854028 	str	r4, [r5, #40]	; 0x28
    82f0:	e5854028 	str	r4, [r5, #40]	; 0x28
    82f4:	e5854028 	str	r4, [r5, #40]	; 0x28
    82f8:	e5854028 	str	r4, [r5, #40]	; 0x28
    82fc:	e5854028 	str	r4, [r5, #40]	; 0x28
    8300:	e5854028 	str	r4, [r5, #40]	; 0x28
    8304:	e5854028 	str	r4, [r5, #40]	; 0x28
    8308:	e5854028 	str	r4, [r5, #40]	; 0x28
    830c:	e59a3004 	ldr	r3, [sl, #4]
    8310:	e0433002 	sub	r3, r3, r2
    8314:	e0632283 	rsb	r2, r3, r3, lsl #5
    8318:	e0833102 	add	r3, r3, r2, lsl #2
    831c:	e1a03183 	lsl	r3, r3, #3
    8320:	e59f9f1c 	ldr	r9, [pc, #3868]	; 9244 <check_timings+0x1050>
    8324:	e0832399 	umull	r2, r3, r9, r3
    8328:	e59f8f20 	ldr	r8, [pc, #3872]	; 9250 <check_timings+0x105c>
    832c:	e1a03223 	lsr	r3, r3, #4
    8330:	e3a02016 	mov	r2, #22, 0
    8334:	e59f1ed4 	ldr	r1, [pc, #3796]	; 9210 <check_timings+0x101c>
    8338:	e1a00008 	mov	r0, r8
    833c:	eb000b41 	bl	b048 <printk>
    8340:	e59a2004 	ldr	r2, [sl, #4]
    8344:	e585401c 	str	r4, [r5, #28]
    8348:	e585401c 	str	r4, [r5, #28]
    834c:	e585401c 	str	r4, [r5, #28]
    8350:	e585401c 	str	r4, [r5, #28]
    8354:	e585401c 	str	r4, [r5, #28]
    8358:	e585401c 	str	r4, [r5, #28]
    835c:	e585401c 	str	r4, [r5, #28]
    8360:	e585401c 	str	r4, [r5, #28]
    8364:	e585401c 	str	r4, [r5, #28]
    8368:	e585401c 	str	r4, [r5, #28]
    836c:	e585401c 	str	r4, [r5, #28]
    8370:	e585401c 	str	r4, [r5, #28]
    8374:	e585401c 	str	r4, [r5, #28]
    8378:	e585401c 	str	r4, [r5, #28]
    837c:	e585401c 	str	r4, [r5, #28]
    8380:	e585401c 	str	r4, [r5, #28]
    8384:	e585401c 	str	r4, [r5, #28]
    8388:	e585401c 	str	r4, [r5, #28]
    838c:	e585401c 	str	r4, [r5, #28]
    8390:	e585401c 	str	r4, [r5, #28]
    8394:	e585401c 	str	r4, [r5, #28]
    8398:	e585401c 	str	r4, [r5, #28]
    839c:	e585401c 	str	r4, [r5, #28]
    83a0:	e585401c 	str	r4, [r5, #28]
    83a4:	e585401c 	str	r4, [r5, #28]
    83a8:	e585401c 	str	r4, [r5, #28]
    83ac:	e585401c 	str	r4, [r5, #28]
    83b0:	e585401c 	str	r4, [r5, #28]
    83b4:	e585401c 	str	r4, [r5, #28]
    83b8:	e585401c 	str	r4, [r5, #28]
    83bc:	e585401c 	str	r4, [r5, #28]
    83c0:	e585401c 	str	r4, [r5, #28]
    83c4:	e585401c 	str	r4, [r5, #28]
    83c8:	e585401c 	str	r4, [r5, #28]
    83cc:	e585401c 	str	r4, [r5, #28]
    83d0:	e585401c 	str	r4, [r5, #28]
    83d4:	e585401c 	str	r4, [r5, #28]
    83d8:	e585401c 	str	r4, [r5, #28]
    83dc:	e585401c 	str	r4, [r5, #28]
    83e0:	e585401c 	str	r4, [r5, #28]
    83e4:	e585401c 	str	r4, [r5, #28]
    83e8:	e585401c 	str	r4, [r5, #28]
    83ec:	e585401c 	str	r4, [r5, #28]
    83f0:	e585401c 	str	r4, [r5, #28]
    83f4:	e585401c 	str	r4, [r5, #28]
    83f8:	e585401c 	str	r4, [r5, #28]
    83fc:	e585401c 	str	r4, [r5, #28]
    8400:	e585401c 	str	r4, [r5, #28]
    8404:	e585401c 	str	r4, [r5, #28]
    8408:	e585401c 	str	r4, [r5, #28]
    840c:	e59a3004 	ldr	r3, [sl, #4]
    8410:	e0433002 	sub	r3, r3, r2
    8414:	e0632283 	rsb	r2, r3, r3, lsl #5
    8418:	e0833102 	add	r3, r3, r2, lsl #2
    841c:	e1a03183 	lsl	r3, r3, #3
    8420:	e0832399 	umull	r2, r3, r9, r3
    8424:	e1a03223 	lsr	r3, r3, #4
    8428:	e3a02016 	mov	r2, #22, 0
    842c:	e59f1de0 	ldr	r1, [pc, #3552]	; 9214 <check_timings+0x1020>
    8430:	e1a00008 	mov	r0, r8
    8434:	eb000b03 	bl	b048 <printk>
    8438:	ee1f5f3c 	mrc	15, 0, r5, cr15, cr12, {1}
    843c:	e3a00ffa 	mov	r0, #1000	; 0x3e8
    8440:	eb000c6d 	bl	b5fc <delay_ms>
    8444:	ee1f1f3c 	mrc	15, 0, r1, cr15, cr12, {1}
    8448:	e0411005 	sub	r1, r1, r5
    844c:	e59f2dc4 	ldr	r2, [pc, #3524]	; 9218 <check_timings+0x1024>
    8450:	e0823192 	umull	r3, r2, r2, r1
    8454:	e1a05922 	lsr	r5, r2, #18
    8458:	e1a02005 	mov	r2, r5
    845c:	e59f0db8 	ldr	r0, [pc, #3512]	; 921c <check_timings+0x1028>
    8460:	eb000af8 	bl	b048 <printk>
    8464:	e3570000 	cmp	r7, #0, 0
    8468:	0a000003 	beq	847c <check_timings+0x288>
    846c:	e2452fae 	sub	r2, r5, #696	; 0x2b8
    8470:	e2422003 	sub	r2, r2, #3, 0
    8474:	e3520002 	cmp	r2, #2, 0
    8478:	8a00092e 	bhi	a938 <check_timings+0x2744>
    847c:	e320f000 	nop	{0}
    8480:	ee1f2f3c 	mrc	15, 0, r2, cr15, cr12, {1}
    8484:	ee1f3f3c 	mrc	15, 0, r3, cr15, cr12, {1}
    8488:	e0433002 	sub	r3, r3, r2
    848c:	e3530008 	cmp	r3, #8, 0
    8490:	1a000930 	bne	a958 <check_timings+0x2764>
    8494:	eb000c1d 	bl	b510 <dev_barrier>
    8498:	ee1f7f3c 	mrc	15, 0, r7, cr15, cr12, {1}
    849c:	e1a00006 	mov	r0, r6
    84a0:	ebfffee6 	bl	8040 <t1h>
    84a4:	ee1f5f3c 	mrc	15, 0, r5, cr15, cr12, {1}
    84a8:	eb000c18 	bl	b510 <dev_barrier>
    84ac:	e2453008 	sub	r3, r5, #8, 0
    84b0:	e0433007 	sub	r3, r3, r7
    84b4:	e59f2d64 	ldr	r2, [pc, #3428]	; 9220 <check_timings+0x102c>
    84b8:	e59f1d7c 	ldr	r1, [pc, #3452]	; 923c <check_timings+0x1048>
    84bc:	e59f0d60 	ldr	r0, [pc, #3424]	; 9224 <check_timings+0x1030>
    84c0:	eb000ae0 	bl	b048 <printk>
    84c4:	e320f000 	nop	{0}
    84c8:	ee1f2f3c 	mrc	15, 0, r2, cr15, cr12, {1}
    84cc:	ee1f3f3c 	mrc	15, 0, r3, cr15, cr12, {1}
    84d0:	e0433002 	sub	r3, r3, r2
    84d4:	e3530008 	cmp	r3, #8, 0
    84d8:	1a000929 	bne	a984 <check_timings+0x2790>
    84dc:	eb000c0b 	bl	b510 <dev_barrier>
    84e0:	ee1f7f3c 	mrc	15, 0, r7, cr15, cr12, {1}
    84e4:	e1a00006 	mov	r0, r6
    84e8:	ebfffee2 	bl	8078 <t0h>
    84ec:	ee1f5f3c 	mrc	15, 0, r5, cr15, cr12, {1}
    84f0:	eb000c06 	bl	b510 <dev_barrier>
    84f4:	e2453008 	sub	r3, r5, #8, 0
    84f8:	e0433007 	sub	r3, r3, r7
    84fc:	e3a020f5 	mov	r2, #245, 0	; 0xf5
    8500:	e59f1d20 	ldr	r1, [pc, #3360]	; 9228 <check_timings+0x1034>
    8504:	e59f0d18 	ldr	r0, [pc, #3352]	; 9224 <check_timings+0x1030>
    8508:	eb000ace 	bl	b048 <printk>
    850c:	e320f000 	nop	{0}
    8510:	ee1f2f3c 	mrc	15, 0, r2, cr15, cr12, {1}
    8514:	ee1f3f3c 	mrc	15, 0, r3, cr15, cr12, {1}
    8518:	e0433002 	sub	r3, r3, r2
    851c:	e3530008 	cmp	r3, #8, 0
    8520:	1a000922 	bne	a9b0 <check_timings+0x27bc>
    8524:	eb000bf9 	bl	b510 <dev_barrier>
    8528:	ee1f7f3c 	mrc	15, 0, r7, cr15, cr12, {1}
    852c:	e1a00006 	mov	r0, r6
    8530:	ebfffedc 	bl	80a8 <t1l>
    8534:	ee1f5f3c 	mrc	15, 0, r5, cr15, cr12, {1}
    8538:	eb000bf4 	bl	b510 <dev_barrier>
    853c:	e2453008 	sub	r3, r5, #8, 0
    8540:	e0433007 	sub	r3, r3, r7
    8544:	e3a020f5 	mov	r2, #245, 0	; 0xf5
    8548:	e59f1cfc 	ldr	r1, [pc, #3324]	; 924c <check_timings+0x1058>
    854c:	e59f0cd0 	ldr	r0, [pc, #3280]	; 9224 <check_timings+0x1030>
    8550:	eb000abc 	bl	b048 <printk>
    8554:	e320f000 	nop	{0}
    8558:	ee1f2f3c 	mrc	15, 0, r2, cr15, cr12, {1}
    855c:	ee1f3f3c 	mrc	15, 0, r3, cr15, cr12, {1}
    8560:	e0433002 	sub	r3, r3, r2
    8564:	e3530008 	cmp	r3, #8, 0
    8568:	1a00091b 	bne	a9dc <check_timings+0x27e8>
    856c:	eb000be7 	bl	b510 <dev_barrier>
    8570:	ee1f7f3c 	mrc	15, 0, r7, cr15, cr12, {1}
    8574:	e1a00006 	mov	r0, r6
    8578:	ebfffed6 	bl	80d8 <t0l>
    857c:	ee1f5f3c 	mrc	15, 0, r5, cr15, cr12, {1}
    8580:	eb000be2 	bl	b510 <dev_barrier>
    8584:	e2453008 	sub	r3, r5, #8, 0
    8588:	e0433007 	sub	r3, r3, r7
    858c:	e59f2c8c 	ldr	r2, [pc, #3212]	; 9220 <check_timings+0x102c>
    8590:	e59f1c9c 	ldr	r1, [pc, #3228]	; 9234 <check_timings+0x1040>
    8594:	e59f0c88 	ldr	r0, [pc, #3208]	; 9224 <check_timings+0x1030>
    8598:	eb000aaa 	bl	b048 <printk>
    859c:	e320f000 	nop	{0}
    85a0:	ee1f2f3c 	mrc	15, 0, r2, cr15, cr12, {1}
    85a4:	ee1f3f3c 	mrc	15, 0, r3, cr15, cr12, {1}
    85a8:	e0433002 	sub	r3, r3, r2
    85ac:	e3530008 	cmp	r3, #8, 0
    85b0:	1a000914 	bne	aa08 <check_timings+0x2814>
    85b4:	eb000bd5 	bl	b510 <dev_barrier>
    85b8:	ee1f7f3c 	mrc	15, 0, r7, cr15, cr12, {1}
    85bc:	e1a00006 	mov	r0, r6
    85c0:	ebfffed2 	bl	8110 <treset>
    85c4:	ee1f5f3c 	mrc	15, 0, r5, cr15, cr12, {1}
    85c8:	eb000bd0 	bl	b510 <dev_barrier>
    85cc:	e2453008 	sub	r3, r5, #8, 0
    85d0:	e0433007 	sub	r3, r3, r7
    85d4:	e59f2c50 	ldr	r2, [pc, #3152]	; 922c <check_timings+0x1038>
    85d8:	e59f1c50 	ldr	r1, [pc, #3152]	; 9230 <check_timings+0x103c>
    85dc:	e59f0c40 	ldr	r0, [pc, #3136]	; 9224 <check_timings+0x1030>
    85e0:	eb000a98 	bl	b048 <printk>
    85e4:	e320f000 	nop	{0}
    85e8:	e320f000 	nop	{0}
    85ec:	e320f000 	nop	{0}
    85f0:	e59f3c10 	ldr	r3, [pc, #3088]	; 9208 <check_timings+0x1014>
    85f4:	e5931004 	ldr	r1, [r3, #4]
    85f8:	ee1f2f3c 	mrc	15, 0, r2, cr15, cr12, {1}
    85fc:	e2422010 	sub	r2, r2, #16, 0
    8600:	e59f3c04 	ldr	r3, [pc, #3076]	; 920c <check_timings+0x1018>
    8604:	e583401c 	str	r4, [r3, #28]
    8608:	ee1f3f3c 	mrc	15, 0, r3, cr15, cr12, {1}
    860c:	e0433002 	sub	r3, r3, r2
    8610:	e35300e4 	cmp	r3, #228, 0	; 0xe4
    8614:	9afffffb 	bls	8608 <check_timings+0x414>
    8618:	ee1f2f3c 	mrc	15, 0, r2, cr15, cr12, {1}
    861c:	e2422010 	sub	r2, r2, #16, 0
    8620:	e59f3be4 	ldr	r3, [pc, #3044]	; 920c <check_timings+0x1018>
    8624:	e583401c 	str	r4, [r3, #28]
    8628:	ee1f3f3c 	mrc	15, 0, r3, cr15, cr12, {1}
    862c:	e0433002 	sub	r3, r3, r2
    8630:	e35300e4 	cmp	r3, #228, 0	; 0xe4
    8634:	9afffffb 	bls	8628 <check_timings+0x434>
    8638:	ee1f2f3c 	mrc	15, 0, r2, cr15, cr12, {1}
    863c:	e2422010 	sub	r2, r2, #16, 0
    8640:	e59f3bc4 	ldr	r3, [pc, #3012]	; 920c <check_timings+0x1018>
    8644:	e583401c 	str	r4, [r3, #28]
    8648:	ee1f3f3c 	mrc	15, 0, r3, cr15, cr12, {1}
    864c:	e0433002 	sub	r3, r3, r2
    8650:	e35300e4 	cmp	r3, #228, 0	; 0xe4
    8654:	9afffffb 	bls	8648 <check_timings+0x454>
    8658:	ee1f2f3c 	mrc	15, 0, r2, cr15, cr12, {1}
    865c:	e2422010 	sub	r2, r2, #16, 0
    8660:	e59f3ba4 	ldr	r3, [pc, #2980]	; 920c <check_timings+0x1018>
    8664:	e583401c 	str	r4, [r3, #28]
    8668:	ee1f3f3c 	mrc	15, 0, r3, cr15, cr12, {1}
    866c:	e0433002 	sub	r3, r3, r2
    8670:	e35300e4 	cmp	r3, #228, 0	; 0xe4
    8674:	9afffffb 	bls	8668 <check_timings+0x474>
    8678:	ee1f2f3c 	mrc	15, 0, r2, cr15, cr12, {1}
    867c:	e2422010 	sub	r2, r2, #16, 0
    8680:	e59f3b84 	ldr	r3, [pc, #2948]	; 920c <check_timings+0x1018>
    8684:	e583401c 	str	r4, [r3, #28]
    8688:	ee1f3f3c 	mrc	15, 0, r3, cr15, cr12, {1}
    868c:	e0433002 	sub	r3, r3, r2
    8690:	e35300e4 	cmp	r3, #228, 0	; 0xe4
    8694:	9afffffb 	bls	8688 <check_timings+0x494>
    8698:	ee1f2f3c 	mrc	15, 0, r2, cr15, cr12, {1}
    869c:	e2422010 	sub	r2, r2, #16, 0
    86a0:	e59f3b64 	ldr	r3, [pc, #2916]	; 920c <check_timings+0x1018>
    86a4:	e583401c 	str	r4, [r3, #28]
    86a8:	ee1f3f3c 	mrc	15, 0, r3, cr15, cr12, {1}
    86ac:	e0433002 	sub	r3, r3, r2
    86b0:	e35300e4 	cmp	r3, #228, 0	; 0xe4
    86b4:	9afffffb 	bls	86a8 <check_timings+0x4b4>
    86b8:	ee1f2f3c 	mrc	15, 0, r2, cr15, cr12, {1}
    86bc:	e2422010 	sub	r2, r2, #16, 0
    86c0:	e59f3b44 	ldr	r3, [pc, #2884]	; 920c <check_timings+0x1018>
    86c4:	e583401c 	str	r4, [r3, #28]
    86c8:	ee1f3f3c 	mrc	15, 0, r3, cr15, cr12, {1}
    86cc:	e0433002 	sub	r3, r3, r2
    86d0:	e35300e4 	cmp	r3, #228, 0	; 0xe4
    86d4:	9afffffb 	bls	86c8 <check_timings+0x4d4>
    86d8:	ee1f2f3c 	mrc	15, 0, r2, cr15, cr12, {1}
    86dc:	e2422010 	sub	r2, r2, #16, 0
    86e0:	e59f3b24 	ldr	r3, [pc, #2852]	; 920c <check_timings+0x1018>
    86e4:	e583401c 	str	r4, [r3, #28]
    86e8:	ee1f3f3c 	mrc	15, 0, r3, cr15, cr12, {1}
    86ec:	e0433002 	sub	r3, r3, r2
    86f0:	e35300e4 	cmp	r3, #228, 0	; 0xe4
    86f4:	9afffffb 	bls	86e8 <check_timings+0x4f4>
    86f8:	ee1f2f3c 	mrc	15, 0, r2, cr15, cr12, {1}
    86fc:	e2422010 	sub	r2, r2, #16, 0
    8700:	e59f3b04 	ldr	r3, [pc, #2820]	; 920c <check_timings+0x1018>
    8704:	e583401c 	str	r4, [r3, #28]
    8708:	ee1f3f3c 	mrc	15, 0, r3, cr15, cr12, {1}
    870c:	e0433002 	sub	r3, r3, r2
    8710:	e35300e4 	cmp	r3, #228, 0	; 0xe4
    8714:	9afffffb 	bls	8708 <check_timings+0x514>
    8718:	ee1f2f3c 	mrc	15, 0, r2, cr15, cr12, {1}
    871c:	e2422010 	sub	r2, r2, #16, 0
    8720:	e59f3ae4 	ldr	r3, [pc, #2788]	; 920c <check_timings+0x1018>
    8724:	e583401c 	str	r4, [r3, #28]
    8728:	ee1f3f3c 	mrc	15, 0, r3, cr15, cr12, {1}
    872c:	e0433002 	sub	r3, r3, r2
    8730:	e35300e4 	cmp	r3, #228, 0	; 0xe4
    8734:	9afffffb 	bls	8728 <check_timings+0x534>
    8738:	ee1f2f3c 	mrc	15, 0, r2, cr15, cr12, {1}
    873c:	e2422010 	sub	r2, r2, #16, 0
    8740:	e59f3ac4 	ldr	r3, [pc, #2756]	; 920c <check_timings+0x1018>
    8744:	e583401c 	str	r4, [r3, #28]
    8748:	ee1f3f3c 	mrc	15, 0, r3, cr15, cr12, {1}
    874c:	e0433002 	sub	r3, r3, r2
    8750:	e35300e4 	cmp	r3, #228, 0	; 0xe4
    8754:	9afffffb 	bls	8748 <check_timings+0x554>
    8758:	ee1f2f3c 	mrc	15, 0, r2, cr15, cr12, {1}
    875c:	e2422010 	sub	r2, r2, #16, 0
    8760:	e59f3aa4 	ldr	r3, [pc, #2724]	; 920c <check_timings+0x1018>
    8764:	e583401c 	str	r4, [r3, #28]
    8768:	ee1f3f3c 	mrc	15, 0, r3, cr15, cr12, {1}
    876c:	e0433002 	sub	r3, r3, r2
    8770:	e35300e4 	cmp	r3, #228, 0	; 0xe4
    8774:	9afffffb 	bls	8768 <check_timings+0x574>
    8778:	ee1f2f3c 	mrc	15, 0, r2, cr15, cr12, {1}
    877c:	e2422010 	sub	r2, r2, #16, 0
    8780:	e59f3a84 	ldr	r3, [pc, #2692]	; 920c <check_timings+0x1018>
    8784:	e583401c 	str	r4, [r3, #28]
    8788:	ee1f3f3c 	mrc	15, 0, r3, cr15, cr12, {1}
    878c:	e0433002 	sub	r3, r3, r2
    8790:	e35300e4 	cmp	r3, #228, 0	; 0xe4
    8794:	9afffffb 	bls	8788 <check_timings+0x594>
    8798:	ee1f2f3c 	mrc	15, 0, r2, cr15, cr12, {1}
    879c:	e2422010 	sub	r2, r2, #16, 0
    87a0:	e59f3a64 	ldr	r3, [pc, #2660]	; 920c <check_timings+0x1018>
    87a4:	e583401c 	str	r4, [r3, #28]
    87a8:	ee1f3f3c 	mrc	15, 0, r3, cr15, cr12, {1}
    87ac:	e0433002 	sub	r3, r3, r2
    87b0:	e35300e4 	cmp	r3, #228, 0	; 0xe4
    87b4:	9afffffb 	bls	87a8 <check_timings+0x5b4>
    87b8:	ee1f2f3c 	mrc	15, 0, r2, cr15, cr12, {1}
    87bc:	e2422010 	sub	r2, r2, #16, 0
    87c0:	e59f3a44 	ldr	r3, [pc, #2628]	; 920c <check_timings+0x1018>
    87c4:	e583401c 	str	r4, [r3, #28]
    87c8:	ee1f3f3c 	mrc	15, 0, r3, cr15, cr12, {1}
    87cc:	e0433002 	sub	r3, r3, r2
    87d0:	e35300e4 	cmp	r3, #228, 0	; 0xe4
    87d4:	9afffffb 	bls	87c8 <check_timings+0x5d4>
    87d8:	ee1f2f3c 	mrc	15, 0, r2, cr15, cr12, {1}
    87dc:	e2422010 	sub	r2, r2, #16, 0
    87e0:	e59f3a24 	ldr	r3, [pc, #2596]	; 920c <check_timings+0x1018>
    87e4:	e583401c 	str	r4, [r3, #28]
    87e8:	ee1f3f3c 	mrc	15, 0, r3, cr15, cr12, {1}
    87ec:	e0433002 	sub	r3, r3, r2
    87f0:	e35300e4 	cmp	r3, #228, 0	; 0xe4
    87f4:	9afffffb 	bls	87e8 <check_timings+0x5f4>
    87f8:	ee1f2f3c 	mrc	15, 0, r2, cr15, cr12, {1}
    87fc:	e2422010 	sub	r2, r2, #16, 0
    8800:	e59f3a04 	ldr	r3, [pc, #2564]	; 920c <check_timings+0x1018>
    8804:	e583401c 	str	r4, [r3, #28]
    8808:	ee1f3f3c 	mrc	15, 0, r3, cr15, cr12, {1}
    880c:	e0433002 	sub	r3, r3, r2
    8810:	e35300e4 	cmp	r3, #228, 0	; 0xe4
    8814:	9afffffb 	bls	8808 <check_timings+0x614>
    8818:	ee1f2f3c 	mrc	15, 0, r2, cr15, cr12, {1}
    881c:	e2422010 	sub	r2, r2, #16, 0
    8820:	e59f39e4 	ldr	r3, [pc, #2532]	; 920c <check_timings+0x1018>
    8824:	e583401c 	str	r4, [r3, #28]
    8828:	ee1f3f3c 	mrc	15, 0, r3, cr15, cr12, {1}
    882c:	e0433002 	sub	r3, r3, r2
    8830:	e35300e4 	cmp	r3, #228, 0	; 0xe4
    8834:	9afffffb 	bls	8828 <check_timings+0x634>
    8838:	ee1f2f3c 	mrc	15, 0, r2, cr15, cr12, {1}
    883c:	e2422010 	sub	r2, r2, #16, 0
    8840:	e59f39c4 	ldr	r3, [pc, #2500]	; 920c <check_timings+0x1018>
    8844:	e583401c 	str	r4, [r3, #28]
    8848:	ee1f3f3c 	mrc	15, 0, r3, cr15, cr12, {1}
    884c:	e0433002 	sub	r3, r3, r2
    8850:	e35300e4 	cmp	r3, #228, 0	; 0xe4
    8854:	9afffffb 	bls	8848 <check_timings+0x654>
    8858:	ee1f2f3c 	mrc	15, 0, r2, cr15, cr12, {1}
    885c:	e2422010 	sub	r2, r2, #16, 0
    8860:	e59f39a4 	ldr	r3, [pc, #2468]	; 920c <check_timings+0x1018>
    8864:	e583401c 	str	r4, [r3, #28]
    8868:	ee1f3f3c 	mrc	15, 0, r3, cr15, cr12, {1}
    886c:	e0433002 	sub	r3, r3, r2
    8870:	e35300e4 	cmp	r3, #228, 0	; 0xe4
    8874:	9afffffb 	bls	8868 <check_timings+0x674>
    8878:	ee1f2f3c 	mrc	15, 0, r2, cr15, cr12, {1}
    887c:	e2422010 	sub	r2, r2, #16, 0
    8880:	e59f3984 	ldr	r3, [pc, #2436]	; 920c <check_timings+0x1018>
    8884:	e583401c 	str	r4, [r3, #28]
    8888:	ee1f3f3c 	mrc	15, 0, r3, cr15, cr12, {1}
    888c:	e0433002 	sub	r3, r3, r2
    8890:	e35300e4 	cmp	r3, #228, 0	; 0xe4
    8894:	9afffffb 	bls	8888 <check_timings+0x694>
    8898:	ee1f2f3c 	mrc	15, 0, r2, cr15, cr12, {1}
    889c:	e2422010 	sub	r2, r2, #16, 0
    88a0:	e59f3964 	ldr	r3, [pc, #2404]	; 920c <check_timings+0x1018>
    88a4:	e583401c 	str	r4, [r3, #28]
    88a8:	ee1f3f3c 	mrc	15, 0, r3, cr15, cr12, {1}
    88ac:	e0433002 	sub	r3, r3, r2
    88b0:	e35300e4 	cmp	r3, #228, 0	; 0xe4
    88b4:	9afffffb 	bls	88a8 <check_timings+0x6b4>
    88b8:	ee1f2f3c 	mrc	15, 0, r2, cr15, cr12, {1}
    88bc:	e2422010 	sub	r2, r2, #16, 0
    88c0:	e59f3944 	ldr	r3, [pc, #2372]	; 920c <check_timings+0x1018>
    88c4:	e583401c 	str	r4, [r3, #28]
    88c8:	ee1f3f3c 	mrc	15, 0, r3, cr15, cr12, {1}
    88cc:	e0433002 	sub	r3, r3, r2
    88d0:	e35300e4 	cmp	r3, #228, 0	; 0xe4
    88d4:	9afffffb 	bls	88c8 <check_timings+0x6d4>
    88d8:	ee1f2f3c 	mrc	15, 0, r2, cr15, cr12, {1}
    88dc:	e2422010 	sub	r2, r2, #16, 0
    88e0:	e59f3924 	ldr	r3, [pc, #2340]	; 920c <check_timings+0x1018>
    88e4:	e583401c 	str	r4, [r3, #28]
    88e8:	ee1f3f3c 	mrc	15, 0, r3, cr15, cr12, {1}
    88ec:	e0433002 	sub	r3, r3, r2
    88f0:	e35300e4 	cmp	r3, #228, 0	; 0xe4
    88f4:	9afffffb 	bls	88e8 <check_timings+0x6f4>
    88f8:	ee1f2f3c 	mrc	15, 0, r2, cr15, cr12, {1}
    88fc:	e2422010 	sub	r2, r2, #16, 0
    8900:	e59f3904 	ldr	r3, [pc, #2308]	; 920c <check_timings+0x1018>
    8904:	e583401c 	str	r4, [r3, #28]
    8908:	ee1f3f3c 	mrc	15, 0, r3, cr15, cr12, {1}
    890c:	e0433002 	sub	r3, r3, r2
    8910:	e35300e4 	cmp	r3, #228, 0	; 0xe4
    8914:	9afffffb 	bls	8908 <check_timings+0x714>
    8918:	ee1f2f3c 	mrc	15, 0, r2, cr15, cr12, {1}
    891c:	e2422010 	sub	r2, r2, #16, 0
    8920:	e59f38e4 	ldr	r3, [pc, #2276]	; 920c <check_timings+0x1018>
    8924:	e583401c 	str	r4, [r3, #28]
    8928:	ee1f3f3c 	mrc	15, 0, r3, cr15, cr12, {1}
    892c:	e0433002 	sub	r3, r3, r2
    8930:	e35300e4 	cmp	r3, #228, 0	; 0xe4
    8934:	9afffffb 	bls	8928 <check_timings+0x734>
    8938:	ee1f2f3c 	mrc	15, 0, r2, cr15, cr12, {1}
    893c:	e2422010 	sub	r2, r2, #16, 0
    8940:	e59f38c4 	ldr	r3, [pc, #2244]	; 920c <check_timings+0x1018>
    8944:	e583401c 	str	r4, [r3, #28]
    8948:	ee1f3f3c 	mrc	15, 0, r3, cr15, cr12, {1}
    894c:	e0433002 	sub	r3, r3, r2
    8950:	e35300e4 	cmp	r3, #228, 0	; 0xe4
    8954:	9afffffb 	bls	8948 <check_timings+0x754>
    8958:	ee1f2f3c 	mrc	15, 0, r2, cr15, cr12, {1}
    895c:	e2422010 	sub	r2, r2, #16, 0
    8960:	e59f38a4 	ldr	r3, [pc, #2212]	; 920c <check_timings+0x1018>
    8964:	e583401c 	str	r4, [r3, #28]
    8968:	ee1f3f3c 	mrc	15, 0, r3, cr15, cr12, {1}
    896c:	e0433002 	sub	r3, r3, r2
    8970:	e35300e4 	cmp	r3, #228, 0	; 0xe4
    8974:	9afffffb 	bls	8968 <check_timings+0x774>
    8978:	ee1f2f3c 	mrc	15, 0, r2, cr15, cr12, {1}
    897c:	e2422010 	sub	r2, r2, #16, 0
    8980:	e59f3884 	ldr	r3, [pc, #2180]	; 920c <check_timings+0x1018>
    8984:	e583401c 	str	r4, [r3, #28]
    8988:	ee1f3f3c 	mrc	15, 0, r3, cr15, cr12, {1}
    898c:	e0433002 	sub	r3, r3, r2
    8990:	e35300e4 	cmp	r3, #228, 0	; 0xe4
    8994:	9afffffb 	bls	8988 <check_timings+0x794>
    8998:	ee1f2f3c 	mrc	15, 0, r2, cr15, cr12, {1}
    899c:	e2422010 	sub	r2, r2, #16, 0
    89a0:	e59f3864 	ldr	r3, [pc, #2148]	; 920c <check_timings+0x1018>
    89a4:	e583401c 	str	r4, [r3, #28]
    89a8:	ee1f3f3c 	mrc	15, 0, r3, cr15, cr12, {1}
    89ac:	e0433002 	sub	r3, r3, r2
    89b0:	e35300e4 	cmp	r3, #228, 0	; 0xe4
    89b4:	9afffffb 	bls	89a8 <check_timings+0x7b4>
    89b8:	ee1f2f3c 	mrc	15, 0, r2, cr15, cr12, {1}
    89bc:	e2422010 	sub	r2, r2, #16, 0
    89c0:	e59f3844 	ldr	r3, [pc, #2116]	; 920c <check_timings+0x1018>
    89c4:	e583401c 	str	r4, [r3, #28]
    89c8:	ee1f3f3c 	mrc	15, 0, r3, cr15, cr12, {1}
    89cc:	e0433002 	sub	r3, r3, r2
    89d0:	e35300e4 	cmp	r3, #228, 0	; 0xe4
    89d4:	9afffffb 	bls	89c8 <check_timings+0x7d4>
    89d8:	ee1f2f3c 	mrc	15, 0, r2, cr15, cr12, {1}
    89dc:	e2422010 	sub	r2, r2, #16, 0
    89e0:	e59f3824 	ldr	r3, [pc, #2084]	; 920c <check_timings+0x1018>
    89e4:	e583401c 	str	r4, [r3, #28]
    89e8:	ee1f3f3c 	mrc	15, 0, r3, cr15, cr12, {1}
    89ec:	e0433002 	sub	r3, r3, r2
    89f0:	e35300e4 	cmp	r3, #228, 0	; 0xe4
    89f4:	9afffffb 	bls	89e8 <check_timings+0x7f4>
    89f8:	ee1f2f3c 	mrc	15, 0, r2, cr15, cr12, {1}
    89fc:	e2422010 	sub	r2, r2, #16, 0
    8a00:	e59f3804 	ldr	r3, [pc, #2052]	; 920c <check_timings+0x1018>
    8a04:	e583401c 	str	r4, [r3, #28]
    8a08:	ee1f3f3c 	mrc	15, 0, r3, cr15, cr12, {1}
    8a0c:	e0433002 	sub	r3, r3, r2
    8a10:	e35300e4 	cmp	r3, #228, 0	; 0xe4
    8a14:	9afffffb 	bls	8a08 <check_timings+0x814>
    8a18:	ee1f2f3c 	mrc	15, 0, r2, cr15, cr12, {1}
    8a1c:	e2422010 	sub	r2, r2, #16, 0
    8a20:	e59f37e4 	ldr	r3, [pc, #2020]	; 920c <check_timings+0x1018>
    8a24:	e583401c 	str	r4, [r3, #28]
    8a28:	ee1f3f3c 	mrc	15, 0, r3, cr15, cr12, {1}
    8a2c:	e0433002 	sub	r3, r3, r2
    8a30:	e35300e4 	cmp	r3, #228, 0	; 0xe4
    8a34:	9afffffb 	bls	8a28 <check_timings+0x834>
    8a38:	ee1f2f3c 	mrc	15, 0, r2, cr15, cr12, {1}
    8a3c:	e2422010 	sub	r2, r2, #16, 0
    8a40:	e59f37c4 	ldr	r3, [pc, #1988]	; 920c <check_timings+0x1018>
    8a44:	e583401c 	str	r4, [r3, #28]
    8a48:	ee1f3f3c 	mrc	15, 0, r3, cr15, cr12, {1}
    8a4c:	e0433002 	sub	r3, r3, r2
    8a50:	e35300e4 	cmp	r3, #228, 0	; 0xe4
    8a54:	9afffffb 	bls	8a48 <check_timings+0x854>
    8a58:	ee1f2f3c 	mrc	15, 0, r2, cr15, cr12, {1}
    8a5c:	e2422010 	sub	r2, r2, #16, 0
    8a60:	e59f37a4 	ldr	r3, [pc, #1956]	; 920c <check_timings+0x1018>
    8a64:	e583401c 	str	r4, [r3, #28]
    8a68:	ee1f3f3c 	mrc	15, 0, r3, cr15, cr12, {1}
    8a6c:	e0433002 	sub	r3, r3, r2
    8a70:	e35300e4 	cmp	r3, #228, 0	; 0xe4
    8a74:	9afffffb 	bls	8a68 <check_timings+0x874>
    8a78:	ee1f2f3c 	mrc	15, 0, r2, cr15, cr12, {1}
    8a7c:	e2422010 	sub	r2, r2, #16, 0
    8a80:	e59f3784 	ldr	r3, [pc, #1924]	; 920c <check_timings+0x1018>
    8a84:	e583401c 	str	r4, [r3, #28]
    8a88:	ee1f3f3c 	mrc	15, 0, r3, cr15, cr12, {1}
    8a8c:	e0433002 	sub	r3, r3, r2
    8a90:	e35300e4 	cmp	r3, #228, 0	; 0xe4
    8a94:	9afffffb 	bls	8a88 <check_timings+0x894>
    8a98:	ee1f2f3c 	mrc	15, 0, r2, cr15, cr12, {1}
    8a9c:	e2422010 	sub	r2, r2, #16, 0
    8aa0:	e59f3764 	ldr	r3, [pc, #1892]	; 920c <check_timings+0x1018>
    8aa4:	e583401c 	str	r4, [r3, #28]
    8aa8:	ee1f3f3c 	mrc	15, 0, r3, cr15, cr12, {1}
    8aac:	e0433002 	sub	r3, r3, r2
    8ab0:	e35300e4 	cmp	r3, #228, 0	; 0xe4
    8ab4:	9afffffb 	bls	8aa8 <check_timings+0x8b4>
    8ab8:	ee1f2f3c 	mrc	15, 0, r2, cr15, cr12, {1}
    8abc:	e2422010 	sub	r2, r2, #16, 0
    8ac0:	e59f3744 	ldr	r3, [pc, #1860]	; 920c <check_timings+0x1018>
    8ac4:	e583401c 	str	r4, [r3, #28]
    8ac8:	ee1f3f3c 	mrc	15, 0, r3, cr15, cr12, {1}
    8acc:	e0433002 	sub	r3, r3, r2
    8ad0:	e35300e4 	cmp	r3, #228, 0	; 0xe4
    8ad4:	9afffffb 	bls	8ac8 <check_timings+0x8d4>
    8ad8:	ee1f2f3c 	mrc	15, 0, r2, cr15, cr12, {1}
    8adc:	e2422010 	sub	r2, r2, #16, 0
    8ae0:	e59f3724 	ldr	r3, [pc, #1828]	; 920c <check_timings+0x1018>
    8ae4:	e583401c 	str	r4, [r3, #28]
    8ae8:	ee1f3f3c 	mrc	15, 0, r3, cr15, cr12, {1}
    8aec:	e0433002 	sub	r3, r3, r2
    8af0:	e35300e4 	cmp	r3, #228, 0	; 0xe4
    8af4:	9afffffb 	bls	8ae8 <check_timings+0x8f4>
    8af8:	ee1f2f3c 	mrc	15, 0, r2, cr15, cr12, {1}
    8afc:	e2422010 	sub	r2, r2, #16, 0
    8b00:	e59f3704 	ldr	r3, [pc, #1796]	; 920c <check_timings+0x1018>
    8b04:	e583401c 	str	r4, [r3, #28]
    8b08:	ee1f3f3c 	mrc	15, 0, r3, cr15, cr12, {1}
    8b0c:	e0433002 	sub	r3, r3, r2
    8b10:	e35300e4 	cmp	r3, #228, 0	; 0xe4
    8b14:	9afffffb 	bls	8b08 <check_timings+0x914>
    8b18:	ee1f2f3c 	mrc	15, 0, r2, cr15, cr12, {1}
    8b1c:	e2422010 	sub	r2, r2, #16, 0
    8b20:	e59f36e4 	ldr	r3, [pc, #1764]	; 920c <check_timings+0x1018>
    8b24:	e583401c 	str	r4, [r3, #28]
    8b28:	ee1f3f3c 	mrc	15, 0, r3, cr15, cr12, {1}
    8b2c:	e0433002 	sub	r3, r3, r2
    8b30:	e35300e4 	cmp	r3, #228, 0	; 0xe4
    8b34:	9afffffb 	bls	8b28 <check_timings+0x934>
    8b38:	ee1f2f3c 	mrc	15, 0, r2, cr15, cr12, {1}
    8b3c:	e2422010 	sub	r2, r2, #16, 0
    8b40:	e59f36c4 	ldr	r3, [pc, #1732]	; 920c <check_timings+0x1018>
    8b44:	e583401c 	str	r4, [r3, #28]
    8b48:	ee1f3f3c 	mrc	15, 0, r3, cr15, cr12, {1}
    8b4c:	e0433002 	sub	r3, r3, r2
    8b50:	e35300e4 	cmp	r3, #228, 0	; 0xe4
    8b54:	9afffffb 	bls	8b48 <check_timings+0x954>
    8b58:	ee1f2f3c 	mrc	15, 0, r2, cr15, cr12, {1}
    8b5c:	e2422010 	sub	r2, r2, #16, 0
    8b60:	e59f36a4 	ldr	r3, [pc, #1700]	; 920c <check_timings+0x1018>
    8b64:	e583401c 	str	r4, [r3, #28]
    8b68:	ee1f3f3c 	mrc	15, 0, r3, cr15, cr12, {1}
    8b6c:	e0433002 	sub	r3, r3, r2
    8b70:	e35300e4 	cmp	r3, #228, 0	; 0xe4
    8b74:	9afffffb 	bls	8b68 <check_timings+0x974>
    8b78:	ee1f3f3c 	mrc	15, 0, r3, cr15, cr12, {1}
    8b7c:	e2433010 	sub	r3, r3, #16, 0
    8b80:	e59f2684 	ldr	r2, [pc, #1668]	; 920c <check_timings+0x1018>
    8b84:	e582401c 	str	r4, [r2, #28]
    8b88:	ee1f2f3c 	mrc	15, 0, r2, cr15, cr12, {1}
    8b8c:	e0422003 	sub	r2, r2, r3
    8b90:	e35200e4 	cmp	r2, #228, 0	; 0xe4
    8b94:	9afffffb 	bls	8b88 <check_timings+0x994>
    8b98:	ee1f3f3c 	mrc	15, 0, r3, cr15, cr12, {1}
    8b9c:	e2433010 	sub	r3, r3, #16, 0
    8ba0:	e59f2664 	ldr	r2, [pc, #1636]	; 920c <check_timings+0x1018>
    8ba4:	e582401c 	str	r4, [r2, #28]
    8ba8:	ee1f2f3c 	mrc	15, 0, r2, cr15, cr12, {1}
    8bac:	e0422003 	sub	r2, r2, r3
    8bb0:	e35200e4 	cmp	r2, #228, 0	; 0xe4
    8bb4:	9afffffb 	bls	8ba8 <check_timings+0x9b4>
    8bb8:	ee1f3f3c 	mrc	15, 0, r3, cr15, cr12, {1}
    8bbc:	e2433010 	sub	r3, r3, #16, 0
    8bc0:	e59f2644 	ldr	r2, [pc, #1604]	; 920c <check_timings+0x1018>
    8bc4:	e582401c 	str	r4, [r2, #28]
    8bc8:	ee1f2f3c 	mrc	15, 0, r2, cr15, cr12, {1}
    8bcc:	e0422003 	sub	r2, r2, r3
    8bd0:	e35200e4 	cmp	r2, #228, 0	; 0xe4
    8bd4:	9afffffb 	bls	8bc8 <check_timings+0x9d4>
    8bd8:	ee1f3f3c 	mrc	15, 0, r3, cr15, cr12, {1}
    8bdc:	e2433010 	sub	r3, r3, #16, 0
    8be0:	e59f2624 	ldr	r2, [pc, #1572]	; 920c <check_timings+0x1018>
    8be4:	e582401c 	str	r4, [r2, #28]
    8be8:	ee1f2f3c 	mrc	15, 0, r2, cr15, cr12, {1}
    8bec:	e0422003 	sub	r2, r2, r3
    8bf0:	e35200e4 	cmp	r2, #228, 0	; 0xe4
    8bf4:	9afffffb 	bls	8be8 <check_timings+0x9f4>
    8bf8:	ee1f3f3c 	mrc	15, 0, r3, cr15, cr12, {1}
    8bfc:	e2433010 	sub	r3, r3, #16, 0
    8c00:	e59f2604 	ldr	r2, [pc, #1540]	; 920c <check_timings+0x1018>
    8c04:	e582401c 	str	r4, [r2, #28]
    8c08:	ee1f2f3c 	mrc	15, 0, r2, cr15, cr12, {1}
    8c0c:	e0422003 	sub	r2, r2, r3
    8c10:	e35200e4 	cmp	r2, #228, 0	; 0xe4
    8c14:	9afffffb 	bls	8c08 <check_timings+0xa14>
    8c18:	ee1f3f3c 	mrc	15, 0, r3, cr15, cr12, {1}
    8c1c:	e2433010 	sub	r3, r3, #16, 0
    8c20:	e59f25e4 	ldr	r2, [pc, #1508]	; 920c <check_timings+0x1018>
    8c24:	e582401c 	str	r4, [r2, #28]
    8c28:	ee1f2f3c 	mrc	15, 0, r2, cr15, cr12, {1}
    8c2c:	e0422003 	sub	r2, r2, r3
    8c30:	e35200e4 	cmp	r2, #228, 0	; 0xe4
    8c34:	9afffffb 	bls	8c28 <check_timings+0xa34>
    8c38:	e59f55c8 	ldr	r5, [pc, #1480]	; 9208 <check_timings+0x1014>
    8c3c:	e5953004 	ldr	r3, [r5, #4]
    8c40:	e0433001 	sub	r3, r3, r1
    8c44:	e0632283 	rsb	r2, r3, r3, lsl #5
    8c48:	e0833102 	add	r3, r3, r2, lsl #2
    8c4c:	e1a03183 	lsl	r3, r3, #3
    8c50:	e59f25ec 	ldr	r2, [pc, #1516]	; 9244 <check_timings+0x1050>
    8c54:	e0832392 	umull	r2, r3, r2, r3
    8c58:	e1a03223 	lsr	r3, r3, #4
    8c5c:	e59f25e4 	ldr	r2, [pc, #1508]	; 9248 <check_timings+0x1054>
    8c60:	e59f15c0 	ldr	r1, [pc, #1472]	; 9228 <check_timings+0x1034>
    8c64:	e59f05e4 	ldr	r0, [pc, #1508]	; 9250 <check_timings+0x105c>
    8c68:	eb0008f6 	bl	b048 <printk>
    8c6c:	e320f000 	nop	{0}
    8c70:	e5951004 	ldr	r1, [r5, #4]
    8c74:	ee1f2f3c 	mrc	15, 0, r2, cr15, cr12, {1}
    8c78:	e2422010 	sub	r2, r2, #16, 0
    8c7c:	e59f3588 	ldr	r3, [pc, #1416]	; 920c <check_timings+0x1018>
    8c80:	e5834028 	str	r4, [r3, #40]	; 0x28
    8c84:	e59f05ac 	ldr	r0, [pc, #1452]	; 9238 <check_timings+0x1044>
    8c88:	ee1f3f3c 	mrc	15, 0, r3, cr15, cr12, {1}
    8c8c:	e0433002 	sub	r3, r3, r2
    8c90:	e1530000 	cmp	r3, r0
    8c94:	9afffffb 	bls	8c88 <check_timings+0xa94>
    8c98:	ee1f2f3c 	mrc	15, 0, r2, cr15, cr12, {1}
    8c9c:	e2422010 	sub	r2, r2, #16, 0
    8ca0:	e59f3564 	ldr	r3, [pc, #1380]	; 920c <check_timings+0x1018>
    8ca4:	e5834028 	str	r4, [r3, #40]	; 0x28
    8ca8:	e59f0588 	ldr	r0, [pc, #1416]	; 9238 <check_timings+0x1044>
    8cac:	ee1f3f3c 	mrc	15, 0, r3, cr15, cr12, {1}
    8cb0:	e0433002 	sub	r3, r3, r2
    8cb4:	e1530000 	cmp	r3, r0
    8cb8:	9afffffb 	bls	8cac <check_timings+0xab8>
    8cbc:	ee1f2f3c 	mrc	15, 0, r2, cr15, cr12, {1}
    8cc0:	e2422010 	sub	r2, r2, #16, 0
    8cc4:	e59f3540 	ldr	r3, [pc, #1344]	; 920c <check_timings+0x1018>
    8cc8:	e5834028 	str	r4, [r3, #40]	; 0x28
    8ccc:	e59f0564 	ldr	r0, [pc, #1380]	; 9238 <check_timings+0x1044>
    8cd0:	ee1f3f3c 	mrc	15, 0, r3, cr15, cr12, {1}
    8cd4:	e0433002 	sub	r3, r3, r2
    8cd8:	e1530000 	cmp	r3, r0
    8cdc:	9afffffb 	bls	8cd0 <check_timings+0xadc>
    8ce0:	ee1f2f3c 	mrc	15, 0, r2, cr15, cr12, {1}
    8ce4:	e2422010 	sub	r2, r2, #16, 0
    8ce8:	e59f351c 	ldr	r3, [pc, #1308]	; 920c <check_timings+0x1018>
    8cec:	e5834028 	str	r4, [r3, #40]	; 0x28
    8cf0:	e59f0540 	ldr	r0, [pc, #1344]	; 9238 <check_timings+0x1044>
    8cf4:	ee1f3f3c 	mrc	15, 0, r3, cr15, cr12, {1}
    8cf8:	e0433002 	sub	r3, r3, r2
    8cfc:	e1530000 	cmp	r3, r0
    8d00:	9afffffb 	bls	8cf4 <check_timings+0xb00>
    8d04:	ee1f2f3c 	mrc	15, 0, r2, cr15, cr12, {1}
    8d08:	e2422010 	sub	r2, r2, #16, 0
    8d0c:	e59f34f8 	ldr	r3, [pc, #1272]	; 920c <check_timings+0x1018>
    8d10:	e5834028 	str	r4, [r3, #40]	; 0x28
    8d14:	e59f051c 	ldr	r0, [pc, #1308]	; 9238 <check_timings+0x1044>
    8d18:	ee1f3f3c 	mrc	15, 0, r3, cr15, cr12, {1}
    8d1c:	e0433002 	sub	r3, r3, r2
    8d20:	e1530000 	cmp	r3, r0
    8d24:	9afffffb 	bls	8d18 <check_timings+0xb24>
    8d28:	ee1f2f3c 	mrc	15, 0, r2, cr15, cr12, {1}
    8d2c:	e2422010 	sub	r2, r2, #16, 0
    8d30:	e59f34d4 	ldr	r3, [pc, #1236]	; 920c <check_timings+0x1018>
    8d34:	e5834028 	str	r4, [r3, #40]	; 0x28
    8d38:	e59f04f8 	ldr	r0, [pc, #1272]	; 9238 <check_timings+0x1044>
    8d3c:	ee1f3f3c 	mrc	15, 0, r3, cr15, cr12, {1}
    8d40:	e0433002 	sub	r3, r3, r2
    8d44:	e1530000 	cmp	r3, r0
    8d48:	9afffffb 	bls	8d3c <check_timings+0xb48>
    8d4c:	ee1f2f3c 	mrc	15, 0, r2, cr15, cr12, {1}
    8d50:	e2422010 	sub	r2, r2, #16, 0
    8d54:	e59f34b0 	ldr	r3, [pc, #1200]	; 920c <check_timings+0x1018>
    8d58:	e5834028 	str	r4, [r3, #40]	; 0x28
    8d5c:	e59f04d4 	ldr	r0, [pc, #1236]	; 9238 <check_timings+0x1044>
    8d60:	ee1f3f3c 	mrc	15, 0, r3, cr15, cr12, {1}
    8d64:	e0433002 	sub	r3, r3, r2
    8d68:	e1530000 	cmp	r3, r0
    8d6c:	9afffffb 	bls	8d60 <check_timings+0xb6c>
    8d70:	ee1f2f3c 	mrc	15, 0, r2, cr15, cr12, {1}
    8d74:	e2422010 	sub	r2, r2, #16, 0
    8d78:	e59f348c 	ldr	r3, [pc, #1164]	; 920c <check_timings+0x1018>
    8d7c:	e5834028 	str	r4, [r3, #40]	; 0x28
    8d80:	e59f04b0 	ldr	r0, [pc, #1200]	; 9238 <check_timings+0x1044>
    8d84:	ee1f3f3c 	mrc	15, 0, r3, cr15, cr12, {1}
    8d88:	e0433002 	sub	r3, r3, r2
    8d8c:	e1530000 	cmp	r3, r0
    8d90:	9afffffb 	bls	8d84 <check_timings+0xb90>
    8d94:	ee1f2f3c 	mrc	15, 0, r2, cr15, cr12, {1}
    8d98:	e2422010 	sub	r2, r2, #16, 0
    8d9c:	e59f3468 	ldr	r3, [pc, #1128]	; 920c <check_timings+0x1018>
    8da0:	e5834028 	str	r4, [r3, #40]	; 0x28
    8da4:	e59f048c 	ldr	r0, [pc, #1164]	; 9238 <check_timings+0x1044>
    8da8:	ee1f3f3c 	mrc	15, 0, r3, cr15, cr12, {1}
    8dac:	e0433002 	sub	r3, r3, r2
    8db0:	e1530000 	cmp	r3, r0
    8db4:	9afffffb 	bls	8da8 <check_timings+0xbb4>
    8db8:	ee1f2f3c 	mrc	15, 0, r2, cr15, cr12, {1}
    8dbc:	e2422010 	sub	r2, r2, #16, 0
    8dc0:	e59f3444 	ldr	r3, [pc, #1092]	; 920c <check_timings+0x1018>
    8dc4:	e5834028 	str	r4, [r3, #40]	; 0x28
    8dc8:	e59f0468 	ldr	r0, [pc, #1128]	; 9238 <check_timings+0x1044>
    8dcc:	ee1f3f3c 	mrc	15, 0, r3, cr15, cr12, {1}
    8dd0:	e0433002 	sub	r3, r3, r2
    8dd4:	e1530000 	cmp	r3, r0
    8dd8:	9afffffb 	bls	8dcc <check_timings+0xbd8>
    8ddc:	ee1f2f3c 	mrc	15, 0, r2, cr15, cr12, {1}
    8de0:	e2422010 	sub	r2, r2, #16, 0
    8de4:	e59f3420 	ldr	r3, [pc, #1056]	; 920c <check_timings+0x1018>
    8de8:	e5834028 	str	r4, [r3, #40]	; 0x28
    8dec:	e59f0444 	ldr	r0, [pc, #1092]	; 9238 <check_timings+0x1044>
    8df0:	ee1f3f3c 	mrc	15, 0, r3, cr15, cr12, {1}
    8df4:	e0433002 	sub	r3, r3, r2
    8df8:	e1530000 	cmp	r3, r0
    8dfc:	9afffffb 	bls	8df0 <check_timings+0xbfc>
    8e00:	ee1f2f3c 	mrc	15, 0, r2, cr15, cr12, {1}
    8e04:	e2422010 	sub	r2, r2, #16, 0
    8e08:	e59f33fc 	ldr	r3, [pc, #1020]	; 920c <check_timings+0x1018>
    8e0c:	e5834028 	str	r4, [r3, #40]	; 0x28
    8e10:	e59f0420 	ldr	r0, [pc, #1056]	; 9238 <check_timings+0x1044>
    8e14:	ee1f3f3c 	mrc	15, 0, r3, cr15, cr12, {1}
    8e18:	e0433002 	sub	r3, r3, r2
    8e1c:	e1530000 	cmp	r3, r0
    8e20:	9afffffb 	bls	8e14 <check_timings+0xc20>
    8e24:	ee1f2f3c 	mrc	15, 0, r2, cr15, cr12, {1}
    8e28:	e2422010 	sub	r2, r2, #16, 0
    8e2c:	e59f33d8 	ldr	r3, [pc, #984]	; 920c <check_timings+0x1018>
    8e30:	e5834028 	str	r4, [r3, #40]	; 0x28
    8e34:	e59f03fc 	ldr	r0, [pc, #1020]	; 9238 <check_timings+0x1044>
    8e38:	ee1f3f3c 	mrc	15, 0, r3, cr15, cr12, {1}
    8e3c:	e0433002 	sub	r3, r3, r2
    8e40:	e1530000 	cmp	r3, r0
    8e44:	9afffffb 	bls	8e38 <check_timings+0xc44>
    8e48:	ee1f2f3c 	mrc	15, 0, r2, cr15, cr12, {1}
    8e4c:	e2422010 	sub	r2, r2, #16, 0
    8e50:	e59f33b4 	ldr	r3, [pc, #948]	; 920c <check_timings+0x1018>
    8e54:	e5834028 	str	r4, [r3, #40]	; 0x28
    8e58:	e59f03d8 	ldr	r0, [pc, #984]	; 9238 <check_timings+0x1044>
    8e5c:	ee1f3f3c 	mrc	15, 0, r3, cr15, cr12, {1}
    8e60:	e0433002 	sub	r3, r3, r2
    8e64:	e1530000 	cmp	r3, r0
    8e68:	9afffffb 	bls	8e5c <check_timings+0xc68>
    8e6c:	ee1f2f3c 	mrc	15, 0, r2, cr15, cr12, {1}
    8e70:	e2422010 	sub	r2, r2, #16, 0
    8e74:	e59f3390 	ldr	r3, [pc, #912]	; 920c <check_timings+0x1018>
    8e78:	e5834028 	str	r4, [r3, #40]	; 0x28
    8e7c:	e59f03b4 	ldr	r0, [pc, #948]	; 9238 <check_timings+0x1044>
    8e80:	ee1f3f3c 	mrc	15, 0, r3, cr15, cr12, {1}
    8e84:	e0433002 	sub	r3, r3, r2
    8e88:	e1530000 	cmp	r3, r0
    8e8c:	9afffffb 	bls	8e80 <check_timings+0xc8c>
    8e90:	ee1f2f3c 	mrc	15, 0, r2, cr15, cr12, {1}
    8e94:	e2422010 	sub	r2, r2, #16, 0
    8e98:	e59f336c 	ldr	r3, [pc, #876]	; 920c <check_timings+0x1018>
    8e9c:	e5834028 	str	r4, [r3, #40]	; 0x28
    8ea0:	e59f0390 	ldr	r0, [pc, #912]	; 9238 <check_timings+0x1044>
    8ea4:	ee1f3f3c 	mrc	15, 0, r3, cr15, cr12, {1}
    8ea8:	e0433002 	sub	r3, r3, r2
    8eac:	e1530000 	cmp	r3, r0
    8eb0:	9afffffb 	bls	8ea4 <check_timings+0xcb0>
    8eb4:	ee1f2f3c 	mrc	15, 0, r2, cr15, cr12, {1}
    8eb8:	e2422010 	sub	r2, r2, #16, 0
    8ebc:	e59f3348 	ldr	r3, [pc, #840]	; 920c <check_timings+0x1018>
    8ec0:	e5834028 	str	r4, [r3, #40]	; 0x28
    8ec4:	e59f036c 	ldr	r0, [pc, #876]	; 9238 <check_timings+0x1044>
    8ec8:	ee1f3f3c 	mrc	15, 0, r3, cr15, cr12, {1}
    8ecc:	e0433002 	sub	r3, r3, r2
    8ed0:	e1530000 	cmp	r3, r0
    8ed4:	9afffffb 	bls	8ec8 <check_timings+0xcd4>
    8ed8:	ee1f2f3c 	mrc	15, 0, r2, cr15, cr12, {1}
    8edc:	e2422010 	sub	r2, r2, #16, 0
    8ee0:	e59f3324 	ldr	r3, [pc, #804]	; 920c <check_timings+0x1018>
    8ee4:	e5834028 	str	r4, [r3, #40]	; 0x28
    8ee8:	e59f0348 	ldr	r0, [pc, #840]	; 9238 <check_timings+0x1044>
    8eec:	ee1f3f3c 	mrc	15, 0, r3, cr15, cr12, {1}
    8ef0:	e0433002 	sub	r3, r3, r2
    8ef4:	e1530000 	cmp	r3, r0
    8ef8:	9afffffb 	bls	8eec <check_timings+0xcf8>
    8efc:	ee1f2f3c 	mrc	15, 0, r2, cr15, cr12, {1}
    8f00:	e2422010 	sub	r2, r2, #16, 0
    8f04:	e59f3300 	ldr	r3, [pc, #768]	; 920c <check_timings+0x1018>
    8f08:	e5834028 	str	r4, [r3, #40]	; 0x28
    8f0c:	e59f0324 	ldr	r0, [pc, #804]	; 9238 <check_timings+0x1044>
    8f10:	ee1f3f3c 	mrc	15, 0, r3, cr15, cr12, {1}
    8f14:	e0433002 	sub	r3, r3, r2
    8f18:	e1530000 	cmp	r3, r0
    8f1c:	9afffffb 	bls	8f10 <check_timings+0xd1c>
    8f20:	ee1f2f3c 	mrc	15, 0, r2, cr15, cr12, {1}
    8f24:	e2422010 	sub	r2, r2, #16, 0
    8f28:	e59f32dc 	ldr	r3, [pc, #732]	; 920c <check_timings+0x1018>
    8f2c:	e5834028 	str	r4, [r3, #40]	; 0x28
    8f30:	e59f0300 	ldr	r0, [pc, #768]	; 9238 <check_timings+0x1044>
    8f34:	ee1f3f3c 	mrc	15, 0, r3, cr15, cr12, {1}
    8f38:	e0433002 	sub	r3, r3, r2
    8f3c:	e1530000 	cmp	r3, r0
    8f40:	9afffffb 	bls	8f34 <check_timings+0xd40>
    8f44:	ee1f2f3c 	mrc	15, 0, r2, cr15, cr12, {1}
    8f48:	e2422010 	sub	r2, r2, #16, 0
    8f4c:	e59f32b8 	ldr	r3, [pc, #696]	; 920c <check_timings+0x1018>
    8f50:	e5834028 	str	r4, [r3, #40]	; 0x28
    8f54:	e59f02dc 	ldr	r0, [pc, #732]	; 9238 <check_timings+0x1044>
    8f58:	ee1f3f3c 	mrc	15, 0, r3, cr15, cr12, {1}
    8f5c:	e0433002 	sub	r3, r3, r2
    8f60:	e1530000 	cmp	r3, r0
    8f64:	9afffffb 	bls	8f58 <check_timings+0xd64>
    8f68:	ee1f2f3c 	mrc	15, 0, r2, cr15, cr12, {1}
    8f6c:	e2422010 	sub	r2, r2, #16, 0
    8f70:	e59f3294 	ldr	r3, [pc, #660]	; 920c <check_timings+0x1018>
    8f74:	e5834028 	str	r4, [r3, #40]	; 0x28
    8f78:	e59f02b8 	ldr	r0, [pc, #696]	; 9238 <check_timings+0x1044>
    8f7c:	ee1f3f3c 	mrc	15, 0, r3, cr15, cr12, {1}
    8f80:	e0433002 	sub	r3, r3, r2
    8f84:	e1530000 	cmp	r3, r0
    8f88:	9afffffb 	bls	8f7c <check_timings+0xd88>
    8f8c:	ee1f2f3c 	mrc	15, 0, r2, cr15, cr12, {1}
    8f90:	e2422010 	sub	r2, r2, #16, 0
    8f94:	e59f3270 	ldr	r3, [pc, #624]	; 920c <check_timings+0x1018>
    8f98:	e5834028 	str	r4, [r3, #40]	; 0x28
    8f9c:	e59f0294 	ldr	r0, [pc, #660]	; 9238 <check_timings+0x1044>
    8fa0:	ee1f3f3c 	mrc	15, 0, r3, cr15, cr12, {1}
    8fa4:	e0433002 	sub	r3, r3, r2
    8fa8:	e1530000 	cmp	r3, r0
    8fac:	9afffffb 	bls	8fa0 <check_timings+0xdac>
    8fb0:	ee1f2f3c 	mrc	15, 0, r2, cr15, cr12, {1}
    8fb4:	e2422010 	sub	r2, r2, #16, 0
    8fb8:	e59f324c 	ldr	r3, [pc, #588]	; 920c <check_timings+0x1018>
    8fbc:	e5834028 	str	r4, [r3, #40]	; 0x28
    8fc0:	e59f0270 	ldr	r0, [pc, #624]	; 9238 <check_timings+0x1044>
    8fc4:	ee1f3f3c 	mrc	15, 0, r3, cr15, cr12, {1}
    8fc8:	e0433002 	sub	r3, r3, r2
    8fcc:	e1530000 	cmp	r3, r0
    8fd0:	9afffffb 	bls	8fc4 <check_timings+0xdd0>
    8fd4:	ee1f2f3c 	mrc	15, 0, r2, cr15, cr12, {1}
    8fd8:	e2422010 	sub	r2, r2, #16, 0
    8fdc:	e59f3228 	ldr	r3, [pc, #552]	; 920c <check_timings+0x1018>
    8fe0:	e5834028 	str	r4, [r3, #40]	; 0x28
    8fe4:	e59f024c 	ldr	r0, [pc, #588]	; 9238 <check_timings+0x1044>
    8fe8:	ee1f3f3c 	mrc	15, 0, r3, cr15, cr12, {1}
    8fec:	e0433002 	sub	r3, r3, r2
    8ff0:	e1530000 	cmp	r3, r0
    8ff4:	9afffffb 	bls	8fe8 <check_timings+0xdf4>
    8ff8:	ee1f2f3c 	mrc	15, 0, r2, cr15, cr12, {1}
    8ffc:	e2422010 	sub	r2, r2, #16, 0
    9000:	e59f3204 	ldr	r3, [pc, #516]	; 920c <check_timings+0x1018>
    9004:	e5834028 	str	r4, [r3, #40]	; 0x28
    9008:	e59f0228 	ldr	r0, [pc, #552]	; 9238 <check_timings+0x1044>
    900c:	ee1f3f3c 	mrc	15, 0, r3, cr15, cr12, {1}
    9010:	e0433002 	sub	r3, r3, r2
    9014:	e1530000 	cmp	r3, r0
    9018:	9afffffb 	bls	900c <check_timings+0xe18>
    901c:	ee1f2f3c 	mrc	15, 0, r2, cr15, cr12, {1}
    9020:	e2422010 	sub	r2, r2, #16, 0
    9024:	e59f31e0 	ldr	r3, [pc, #480]	; 920c <check_timings+0x1018>
    9028:	e5834028 	str	r4, [r3, #40]	; 0x28
    902c:	e59f0204 	ldr	r0, [pc, #516]	; 9238 <check_timings+0x1044>
    9030:	ee1f3f3c 	mrc	15, 0, r3, cr15, cr12, {1}
    9034:	e0433002 	sub	r3, r3, r2
    9038:	e1530000 	cmp	r3, r0
    903c:	9afffffb 	bls	9030 <check_timings+0xe3c>
    9040:	ee1f2f3c 	mrc	15, 0, r2, cr15, cr12, {1}
    9044:	e2422010 	sub	r2, r2, #16, 0
    9048:	e59f31bc 	ldr	r3, [pc, #444]	; 920c <check_timings+0x1018>
    904c:	e5834028 	str	r4, [r3, #40]	; 0x28
    9050:	e59f01e0 	ldr	r0, [pc, #480]	; 9238 <check_timings+0x1044>
    9054:	ee1f3f3c 	mrc	15, 0, r3, cr15, cr12, {1}
    9058:	e0433002 	sub	r3, r3, r2
    905c:	e1530000 	cmp	r3, r0
    9060:	9afffffb 	bls	9054 <check_timings+0xe60>
    9064:	ee1f2f3c 	mrc	15, 0, r2, cr15, cr12, {1}
    9068:	e2422010 	sub	r2, r2, #16, 0
    906c:	e59f3198 	ldr	r3, [pc, #408]	; 920c <check_timings+0x1018>
    9070:	e5834028 	str	r4, [r3, #40]	; 0x28
    9074:	e59f01bc 	ldr	r0, [pc, #444]	; 9238 <check_timings+0x1044>
    9078:	ee1f3f3c 	mrc	15, 0, r3, cr15, cr12, {1}
    907c:	e0433002 	sub	r3, r3, r2
    9080:	e1530000 	cmp	r3, r0
    9084:	9afffffb 	bls	9078 <check_timings+0xe84>
    9088:	ee1f2f3c 	mrc	15, 0, r2, cr15, cr12, {1}
    908c:	e2422010 	sub	r2, r2, #16, 0
    9090:	e59f3174 	ldr	r3, [pc, #372]	; 920c <check_timings+0x1018>
    9094:	e5834028 	str	r4, [r3, #40]	; 0x28
    9098:	e59f0198 	ldr	r0, [pc, #408]	; 9238 <check_timings+0x1044>
    909c:	ee1f3f3c 	mrc	15, 0, r3, cr15, cr12, {1}
    90a0:	e0433002 	sub	r3, r3, r2
    90a4:	e1530000 	cmp	r3, r0
    90a8:	9afffffb 	bls	909c <check_timings+0xea8>
    90ac:	ee1f2f3c 	mrc	15, 0, r2, cr15, cr12, {1}
    90b0:	e2422010 	sub	r2, r2, #16, 0
    90b4:	e59f3150 	ldr	r3, [pc, #336]	; 920c <check_timings+0x1018>
    90b8:	e5834028 	str	r4, [r3, #40]	; 0x28
    90bc:	e59f0174 	ldr	r0, [pc, #372]	; 9238 <check_timings+0x1044>
    90c0:	ee1f3f3c 	mrc	15, 0, r3, cr15, cr12, {1}
    90c4:	e0433002 	sub	r3, r3, r2
    90c8:	e1530000 	cmp	r3, r0
    90cc:	9afffffb 	bls	90c0 <check_timings+0xecc>
    90d0:	ee1f2f3c 	mrc	15, 0, r2, cr15, cr12, {1}
    90d4:	e2422010 	sub	r2, r2, #16, 0
    90d8:	e59f312c 	ldr	r3, [pc, #300]	; 920c <check_timings+0x1018>
    90dc:	e5834028 	str	r4, [r3, #40]	; 0x28
    90e0:	e59f0150 	ldr	r0, [pc, #336]	; 9238 <check_timings+0x1044>
    90e4:	ee1f3f3c 	mrc	15, 0, r3, cr15, cr12, {1}
    90e8:	e0433002 	sub	r3, r3, r2
    90ec:	e1530000 	cmp	r3, r0
    90f0:	9afffffb 	bls	90e4 <check_timings+0xef0>
    90f4:	ee1f2f3c 	mrc	15, 0, r2, cr15, cr12, {1}
    90f8:	e2422010 	sub	r2, r2, #16, 0
    90fc:	e59f3108 	ldr	r3, [pc, #264]	; 920c <check_timings+0x1018>
    9100:	e5834028 	str	r4, [r3, #40]	; 0x28
    9104:	e59f012c 	ldr	r0, [pc, #300]	; 9238 <check_timings+0x1044>
    9108:	ee1f3f3c 	mrc	15, 0, r3, cr15, cr12, {1}
    910c:	e0433002 	sub	r3, r3, r2
    9110:	e1530000 	cmp	r3, r0
    9114:	9afffffb 	bls	9108 <check_timings+0xf14>
    9118:	ee1f2f3c 	mrc	15, 0, r2, cr15, cr12, {1}
    911c:	e2422010 	sub	r2, r2, #16, 0
    9120:	e59f30e4 	ldr	r3, [pc, #228]	; 920c <check_timings+0x1018>
    9124:	e5834028 	str	r4, [r3, #40]	; 0x28
    9128:	e59f0108 	ldr	r0, [pc, #264]	; 9238 <check_timings+0x1044>
    912c:	ee1f3f3c 	mrc	15, 0, r3, cr15, cr12, {1}
    9130:	e0433002 	sub	r3, r3, r2
    9134:	e1530000 	cmp	r3, r0
    9138:	9afffffb 	bls	912c <check_timings+0xf38>
    913c:	ee1f2f3c 	mrc	15, 0, r2, cr15, cr12, {1}
    9140:	e2422010 	sub	r2, r2, #16, 0
    9144:	e59f30c0 	ldr	r3, [pc, #192]	; 920c <check_timings+0x1018>
    9148:	e5834028 	str	r4, [r3, #40]	; 0x28
    914c:	e59f00e4 	ldr	r0, [pc, #228]	; 9238 <check_timings+0x1044>
    9150:	ee1f3f3c 	mrc	15, 0, r3, cr15, cr12, {1}
    9154:	e0433002 	sub	r3, r3, r2
    9158:	e1530000 	cmp	r3, r0
    915c:	9afffffb 	bls	9150 <check_timings+0xf5c>
    9160:	ee1f2f3c 	mrc	15, 0, r2, cr15, cr12, {1}
    9164:	e2422010 	sub	r2, r2, #16, 0
    9168:	e59f309c 	ldr	r3, [pc, #156]	; 920c <check_timings+0x1018>
    916c:	e5834028 	str	r4, [r3, #40]	; 0x28
    9170:	e59f00c0 	ldr	r0, [pc, #192]	; 9238 <check_timings+0x1044>
    9174:	ee1f3f3c 	mrc	15, 0, r3, cr15, cr12, {1}
    9178:	e0433002 	sub	r3, r3, r2
    917c:	e1530000 	cmp	r3, r0
    9180:	9afffffb 	bls	9174 <check_timings+0xf80>
    9184:	ee1f2f3c 	mrc	15, 0, r2, cr15, cr12, {1}
    9188:	e2422010 	sub	r2, r2, #16, 0
    918c:	e59f3078 	ldr	r3, [pc, #120]	; 920c <check_timings+0x1018>
    9190:	e5834028 	str	r4, [r3, #40]	; 0x28
    9194:	e59f009c 	ldr	r0, [pc, #156]	; 9238 <check_timings+0x1044>
    9198:	ee1f3f3c 	mrc	15, 0, r3, cr15, cr12, {1}
    919c:	e0433002 	sub	r3, r3, r2
    91a0:	e1530000 	cmp	r3, r0
    91a4:	9afffffb 	bls	9198 <check_timings+0xfa4>
    91a8:	ee1f2f3c 	mrc	15, 0, r2, cr15, cr12, {1}
    91ac:	e2422010 	sub	r2, r2, #16, 0
    91b0:	e59f3054 	ldr	r3, [pc, #84]	; 920c <check_timings+0x1018>
    91b4:	e5834028 	str	r4, [r3, #40]	; 0x28
    91b8:	e59f0078 	ldr	r0, [pc, #120]	; 9238 <check_timings+0x1044>
    91bc:	ee1f3f3c 	mrc	15, 0, r3, cr15, cr12, {1}
    91c0:	e0433002 	sub	r3, r3, r2
    91c4:	e1530000 	cmp	r3, r0
    91c8:	9afffffb 	bls	91bc <check_timings+0xfc8>
    91cc:	ee1f2f3c 	mrc	15, 0, r2, cr15, cr12, {1}
    91d0:	e2422010 	sub	r2, r2, #16, 0
    91d4:	e59f3030 	ldr	r3, [pc, #48]	; 920c <check_timings+0x1018>
    91d8:	e5834028 	str	r4, [r3, #40]	; 0x28
    91dc:	e59f0054 	ldr	r0, [pc, #84]	; 9238 <check_timings+0x1044>
    91e0:	ee1f3f3c 	mrc	15, 0, r3, cr15, cr12, {1}
    91e4:	e0433002 	sub	r3, r3, r2
    91e8:	e1530000 	cmp	r3, r0
    91ec:	9afffffb 	bls	91e0 <check_timings+0xfec>
    91f0:	ee1f2f3c 	mrc	15, 0, r2, cr15, cr12, {1}
    91f4:	e2422010 	sub	r2, r2, #16, 0
    91f8:	e59f300c 	ldr	r3, [pc, #12]	; 920c <check_timings+0x1018>
    91fc:	e5834028 	str	r4, [r3, #40]	; 0x28
    9200:	ea000015 	b	925c <check_timings+0x1068>
    9204:	0000bd4c 	.word	0x0000bd4c
    9208:	20003000 	.word	0x20003000
    920c:	20200000 	.word	0x20200000
    9210:	0000bdb0 	.word	0x0000bdb0
    9214:	0000bdec 	.word	0x0000bdec
    9218:	431bde83 	.word	0x431bde83
    921c:	0000bdf8 	.word	0x0000bdf8
    9220:	00000276 	.word	0x00000276
    9224:	0000be98 	.word	0x0000be98
    9228:	0000bec0 	.word	0x0000bec0
    922c:	0000a410 	.word	0x0000a410
    9230:	0000becc 	.word	0x0000becc
    9234:	0000bec8 	.word	0x0000bec8
    9238:	00000265 	.word	0x00000265
    923c:	0000be94 	.word	0x0000be94
    9240:	20003000 	.word	0x20003000
    9244:	51eb851f 	.word	0x51eb851f
    9248:	0000015e 	.word	0x0000015e
    924c:	0000bec4 	.word	0x0000bec4
    9250:	0000bdc0 	.word	0x0000bdc0
    9254:	0000a40f 	.word	0x0000a40f
    9258:	20200000 	.word	0x20200000
    925c:	e51f002c 	ldr	r0, [pc, #-44]	; 9238 <check_timings+0x1044>
    9260:	ee1f3f3c 	mrc	15, 0, r3, cr15, cr12, {1}
    9264:	e0433002 	sub	r3, r3, r2
    9268:	e1530000 	cmp	r3, r0
    926c:	9afffffb 	bls	9260 <check_timings+0x106c>
    9270:	ee1f2f3c 	mrc	15, 0, r2, cr15, cr12, {1}
    9274:	e2422010 	sub	r2, r2, #16, 0
    9278:	e51f3028 	ldr	r3, [pc, #-40]	; 9258 <check_timings+0x1064>
    927c:	e5834028 	str	r4, [r3, #40]	; 0x28
    9280:	e51f0050 	ldr	r0, [pc, #-80]	; 9238 <check_timings+0x1044>
    9284:	ee1f3f3c 	mrc	15, 0, r3, cr15, cr12, {1}
    9288:	e0433002 	sub	r3, r3, r2
    928c:	e1530000 	cmp	r3, r0
    9290:	9afffffb 	bls	9284 <check_timings+0x1090>
    9294:	ee1f2f3c 	mrc	15, 0, r2, cr15, cr12, {1}
    9298:	e2422010 	sub	r2, r2, #16, 0
    929c:	e51f304c 	ldr	r3, [pc, #-76]	; 9258 <check_timings+0x1064>
    92a0:	e5834028 	str	r4, [r3, #40]	; 0x28
    92a4:	e51f0074 	ldr	r0, [pc, #-116]	; 9238 <check_timings+0x1044>
    92a8:	ee1f3f3c 	mrc	15, 0, r3, cr15, cr12, {1}
    92ac:	e0433002 	sub	r3, r3, r2
    92b0:	e1530000 	cmp	r3, r0
    92b4:	9afffffb 	bls	92a8 <check_timings+0x10b4>
    92b8:	ee1f2f3c 	mrc	15, 0, r2, cr15, cr12, {1}
    92bc:	e2422010 	sub	r2, r2, #16, 0
    92c0:	e51f3070 	ldr	r3, [pc, #-112]	; 9258 <check_timings+0x1064>
    92c4:	e5834028 	str	r4, [r3, #40]	; 0x28
    92c8:	e51f0098 	ldr	r0, [pc, #-152]	; 9238 <check_timings+0x1044>
    92cc:	ee1f3f3c 	mrc	15, 0, r3, cr15, cr12, {1}
    92d0:	e0433002 	sub	r3, r3, r2
    92d4:	e1530000 	cmp	r3, r0
    92d8:	9afffffb 	bls	92cc <check_timings+0x10d8>
    92dc:	ee1f2f3c 	mrc	15, 0, r2, cr15, cr12, {1}
    92e0:	e2422010 	sub	r2, r2, #16, 0
    92e4:	e51f3094 	ldr	r3, [pc, #-148]	; 9258 <check_timings+0x1064>
    92e8:	e5834028 	str	r4, [r3, #40]	; 0x28
    92ec:	e51f00bc 	ldr	r0, [pc, #-188]	; 9238 <check_timings+0x1044>
    92f0:	ee1f3f3c 	mrc	15, 0, r3, cr15, cr12, {1}
    92f4:	e0433002 	sub	r3, r3, r2
    92f8:	e1530000 	cmp	r3, r0
    92fc:	9afffffb 	bls	92f0 <check_timings+0x10fc>
    9300:	ee1f3f3c 	mrc	15, 0, r3, cr15, cr12, {1}
    9304:	e2433010 	sub	r3, r3, #16, 0
    9308:	e51f20b8 	ldr	r2, [pc, #-184]	; 9258 <check_timings+0x1064>
    930c:	e5824028 	str	r4, [r2, #40]	; 0x28
    9310:	e51f00e0 	ldr	r0, [pc, #-224]	; 9238 <check_timings+0x1044>
    9314:	ee1f2f3c 	mrc	15, 0, r2, cr15, cr12, {1}
    9318:	e0422003 	sub	r2, r2, r3
    931c:	e1520000 	cmp	r2, r0
    9320:	9afffffb 	bls	9314 <check_timings+0x1120>
    9324:	ee1f3f3c 	mrc	15, 0, r3, cr15, cr12, {1}
    9328:	e2433010 	sub	r3, r3, #16, 0
    932c:	e51f20dc 	ldr	r2, [pc, #-220]	; 9258 <check_timings+0x1064>
    9330:	e5824028 	str	r4, [r2, #40]	; 0x28
    9334:	e51f0104 	ldr	r0, [pc, #-260]	; 9238 <check_timings+0x1044>
    9338:	ee1f2f3c 	mrc	15, 0, r2, cr15, cr12, {1}
    933c:	e0422003 	sub	r2, r2, r3
    9340:	e1520000 	cmp	r2, r0
    9344:	9afffffb 	bls	9338 <check_timings+0x1144>
    9348:	ee1f3f3c 	mrc	15, 0, r3, cr15, cr12, {1}
    934c:	e2433010 	sub	r3, r3, #16, 0
    9350:	e51f2100 	ldr	r2, [pc, #-256]	; 9258 <check_timings+0x1064>
    9354:	e5824028 	str	r4, [r2, #40]	; 0x28
    9358:	e51f0128 	ldr	r0, [pc, #-296]	; 9238 <check_timings+0x1044>
    935c:	ee1f2f3c 	mrc	15, 0, r2, cr15, cr12, {1}
    9360:	e0422003 	sub	r2, r2, r3
    9364:	e1520000 	cmp	r2, r0
    9368:	9afffffb 	bls	935c <check_timings+0x1168>
    936c:	ee1f3f3c 	mrc	15, 0, r3, cr15, cr12, {1}
    9370:	e2433010 	sub	r3, r3, #16, 0
    9374:	e51f2124 	ldr	r2, [pc, #-292]	; 9258 <check_timings+0x1064>
    9378:	e5824028 	str	r4, [r2, #40]	; 0x28
    937c:	e51f014c 	ldr	r0, [pc, #-332]	; 9238 <check_timings+0x1044>
    9380:	ee1f2f3c 	mrc	15, 0, r2, cr15, cr12, {1}
    9384:	e0422003 	sub	r2, r2, r3
    9388:	e1520000 	cmp	r2, r0
    938c:	9afffffb 	bls	9380 <check_timings+0x118c>
    9390:	ee1f3f3c 	mrc	15, 0, r3, cr15, cr12, {1}
    9394:	e2433010 	sub	r3, r3, #16, 0
    9398:	e51f2148 	ldr	r2, [pc, #-328]	; 9258 <check_timings+0x1064>
    939c:	e5824028 	str	r4, [r2, #40]	; 0x28
    93a0:	e51f0170 	ldr	r0, [pc, #-368]	; 9238 <check_timings+0x1044>
    93a4:	ee1f2f3c 	mrc	15, 0, r2, cr15, cr12, {1}
    93a8:	e0422003 	sub	r2, r2, r3
    93ac:	e1520000 	cmp	r2, r0
    93b0:	9afffffb 	bls	93a4 <check_timings+0x11b0>
    93b4:	ee1f3f3c 	mrc	15, 0, r3, cr15, cr12, {1}
    93b8:	e2433010 	sub	r3, r3, #16, 0
    93bc:	e51f216c 	ldr	r2, [pc, #-364]	; 9258 <check_timings+0x1064>
    93c0:	e5824028 	str	r4, [r2, #40]	; 0x28
    93c4:	e51f0194 	ldr	r0, [pc, #-404]	; 9238 <check_timings+0x1044>
    93c8:	ee1f2f3c 	mrc	15, 0, r2, cr15, cr12, {1}
    93cc:	e0422003 	sub	r2, r2, r3
    93d0:	e1520000 	cmp	r2, r0
    93d4:	9afffffb 	bls	93c8 <check_timings+0x11d4>
    93d8:	e51f51a0 	ldr	r5, [pc, #-416]	; 9240 <check_timings+0x104c>
    93dc:	e5953004 	ldr	r3, [r5, #4]
    93e0:	e0433001 	sub	r3, r3, r1
    93e4:	e0632283 	rsb	r2, r3, r3, lsl #5
    93e8:	e0833102 	add	r3, r3, r2, lsl #2
    93ec:	e1a03183 	lsl	r3, r3, #3
    93f0:	e51f21b4 	ldr	r2, [pc, #-436]	; 9244 <check_timings+0x1050>
    93f4:	e0832392 	umull	r2, r3, r2, r3
    93f8:	e1a03223 	lsr	r3, r3, #4
    93fc:	e3a02fe1 	mov	r2, #900	; 0x384
    9400:	e51f11d4 	ldr	r1, [pc, #-468]	; 9234 <check_timings+0x1040>
    9404:	e51f01bc 	ldr	r0, [pc, #-444]	; 9250 <check_timings+0x105c>
    9408:	eb00070e 	bl	b048 <printk>
    940c:	e320f000 	nop	{0}
    9410:	e5951004 	ldr	r1, [r5, #4]
    9414:	ee1f2f3c 	mrc	15, 0, r2, cr15, cr12, {1}
    9418:	e2422010 	sub	r2, r2, #16, 0
    941c:	e51f31cc 	ldr	r3, [pc, #-460]	; 9258 <check_timings+0x1064>
    9420:	e583401c 	str	r4, [r3, #28]
    9424:	e51f01f4 	ldr	r0, [pc, #-500]	; 9238 <check_timings+0x1044>
    9428:	ee1f3f3c 	mrc	15, 0, r3, cr15, cr12, {1}
    942c:	e0433002 	sub	r3, r3, r2
    9430:	e1530000 	cmp	r3, r0
    9434:	9afffffb 	bls	9428 <check_timings+0x1234>
    9438:	ee1f2f3c 	mrc	15, 0, r2, cr15, cr12, {1}
    943c:	e2422010 	sub	r2, r2, #16, 0
    9440:	e51f31f0 	ldr	r3, [pc, #-496]	; 9258 <check_timings+0x1064>
    9444:	e583401c 	str	r4, [r3, #28]
    9448:	e51f0218 	ldr	r0, [pc, #-536]	; 9238 <check_timings+0x1044>
    944c:	ee1f3f3c 	mrc	15, 0, r3, cr15, cr12, {1}
    9450:	e0433002 	sub	r3, r3, r2
    9454:	e1530000 	cmp	r3, r0
    9458:	9afffffb 	bls	944c <check_timings+0x1258>
    945c:	ee1f2f3c 	mrc	15, 0, r2, cr15, cr12, {1}
    9460:	e2422010 	sub	r2, r2, #16, 0
    9464:	e51f3214 	ldr	r3, [pc, #-532]	; 9258 <check_timings+0x1064>
    9468:	e583401c 	str	r4, [r3, #28]
    946c:	e51f023c 	ldr	r0, [pc, #-572]	; 9238 <check_timings+0x1044>
    9470:	ee1f3f3c 	mrc	15, 0, r3, cr15, cr12, {1}
    9474:	e0433002 	sub	r3, r3, r2
    9478:	e1530000 	cmp	r3, r0
    947c:	9afffffb 	bls	9470 <check_timings+0x127c>
    9480:	ee1f2f3c 	mrc	15, 0, r2, cr15, cr12, {1}
    9484:	e2422010 	sub	r2, r2, #16, 0
    9488:	e51f3238 	ldr	r3, [pc, #-568]	; 9258 <check_timings+0x1064>
    948c:	e583401c 	str	r4, [r3, #28]
    9490:	e51f0260 	ldr	r0, [pc, #-608]	; 9238 <check_timings+0x1044>
    9494:	ee1f3f3c 	mrc	15, 0, r3, cr15, cr12, {1}
    9498:	e0433002 	sub	r3, r3, r2
    949c:	e1530000 	cmp	r3, r0
    94a0:	9afffffb 	bls	9494 <check_timings+0x12a0>
    94a4:	ee1f2f3c 	mrc	15, 0, r2, cr15, cr12, {1}
    94a8:	e2422010 	sub	r2, r2, #16, 0
    94ac:	e51f325c 	ldr	r3, [pc, #-604]	; 9258 <check_timings+0x1064>
    94b0:	e583401c 	str	r4, [r3, #28]
    94b4:	e51f0284 	ldr	r0, [pc, #-644]	; 9238 <check_timings+0x1044>
    94b8:	ee1f3f3c 	mrc	15, 0, r3, cr15, cr12, {1}
    94bc:	e0433002 	sub	r3, r3, r2
    94c0:	e1530000 	cmp	r3, r0
    94c4:	9afffffb 	bls	94b8 <check_timings+0x12c4>
    94c8:	ee1f2f3c 	mrc	15, 0, r2, cr15, cr12, {1}
    94cc:	e2422010 	sub	r2, r2, #16, 0
    94d0:	e51f3280 	ldr	r3, [pc, #-640]	; 9258 <check_timings+0x1064>
    94d4:	e583401c 	str	r4, [r3, #28]
    94d8:	e51f02a8 	ldr	r0, [pc, #-680]	; 9238 <check_timings+0x1044>
    94dc:	ee1f3f3c 	mrc	15, 0, r3, cr15, cr12, {1}
    94e0:	e0433002 	sub	r3, r3, r2
    94e4:	e1530000 	cmp	r3, r0
    94e8:	9afffffb 	bls	94dc <check_timings+0x12e8>
    94ec:	ee1f2f3c 	mrc	15, 0, r2, cr15, cr12, {1}
    94f0:	e2422010 	sub	r2, r2, #16, 0
    94f4:	e51f32a4 	ldr	r3, [pc, #-676]	; 9258 <check_timings+0x1064>
    94f8:	e583401c 	str	r4, [r3, #28]
    94fc:	e51f02cc 	ldr	r0, [pc, #-716]	; 9238 <check_timings+0x1044>
    9500:	ee1f3f3c 	mrc	15, 0, r3, cr15, cr12, {1}
    9504:	e0433002 	sub	r3, r3, r2
    9508:	e1530000 	cmp	r3, r0
    950c:	9afffffb 	bls	9500 <check_timings+0x130c>
    9510:	ee1f2f3c 	mrc	15, 0, r2, cr15, cr12, {1}
    9514:	e2422010 	sub	r2, r2, #16, 0
    9518:	e51f32c8 	ldr	r3, [pc, #-712]	; 9258 <check_timings+0x1064>
    951c:	e583401c 	str	r4, [r3, #28]
    9520:	e51f02f0 	ldr	r0, [pc, #-752]	; 9238 <check_timings+0x1044>
    9524:	ee1f3f3c 	mrc	15, 0, r3, cr15, cr12, {1}
    9528:	e0433002 	sub	r3, r3, r2
    952c:	e1530000 	cmp	r3, r0
    9530:	9afffffb 	bls	9524 <check_timings+0x1330>
    9534:	ee1f2f3c 	mrc	15, 0, r2, cr15, cr12, {1}
    9538:	e2422010 	sub	r2, r2, #16, 0
    953c:	e51f32ec 	ldr	r3, [pc, #-748]	; 9258 <check_timings+0x1064>
    9540:	e583401c 	str	r4, [r3, #28]
    9544:	e51f0314 	ldr	r0, [pc, #-788]	; 9238 <check_timings+0x1044>
    9548:	ee1f3f3c 	mrc	15, 0, r3, cr15, cr12, {1}
    954c:	e0433002 	sub	r3, r3, r2
    9550:	e1530000 	cmp	r3, r0
    9554:	9afffffb 	bls	9548 <check_timings+0x1354>
    9558:	ee1f2f3c 	mrc	15, 0, r2, cr15, cr12, {1}
    955c:	e2422010 	sub	r2, r2, #16, 0
    9560:	e51f3310 	ldr	r3, [pc, #-784]	; 9258 <check_timings+0x1064>
    9564:	e583401c 	str	r4, [r3, #28]
    9568:	e51f0338 	ldr	r0, [pc, #-824]	; 9238 <check_timings+0x1044>
    956c:	ee1f3f3c 	mrc	15, 0, r3, cr15, cr12, {1}
    9570:	e0433002 	sub	r3, r3, r2
    9574:	e1530000 	cmp	r3, r0
    9578:	9afffffb 	bls	956c <check_timings+0x1378>
    957c:	ee1f2f3c 	mrc	15, 0, r2, cr15, cr12, {1}
    9580:	e2422010 	sub	r2, r2, #16, 0
    9584:	e51f3334 	ldr	r3, [pc, #-820]	; 9258 <check_timings+0x1064>
    9588:	e583401c 	str	r4, [r3, #28]
    958c:	e51f035c 	ldr	r0, [pc, #-860]	; 9238 <check_timings+0x1044>
    9590:	ee1f3f3c 	mrc	15, 0, r3, cr15, cr12, {1}
    9594:	e0433002 	sub	r3, r3, r2
    9598:	e1530000 	cmp	r3, r0
    959c:	9afffffb 	bls	9590 <check_timings+0x139c>
    95a0:	ee1f2f3c 	mrc	15, 0, r2, cr15, cr12, {1}
    95a4:	e2422010 	sub	r2, r2, #16, 0
    95a8:	e51f3358 	ldr	r3, [pc, #-856]	; 9258 <check_timings+0x1064>
    95ac:	e583401c 	str	r4, [r3, #28]
    95b0:	e51f0380 	ldr	r0, [pc, #-896]	; 9238 <check_timings+0x1044>
    95b4:	ee1f3f3c 	mrc	15, 0, r3, cr15, cr12, {1}
    95b8:	e0433002 	sub	r3, r3, r2
    95bc:	e1530000 	cmp	r3, r0
    95c0:	9afffffb 	bls	95b4 <check_timings+0x13c0>
    95c4:	ee1f2f3c 	mrc	15, 0, r2, cr15, cr12, {1}
    95c8:	e2422010 	sub	r2, r2, #16, 0
    95cc:	e51f337c 	ldr	r3, [pc, #-892]	; 9258 <check_timings+0x1064>
    95d0:	e583401c 	str	r4, [r3, #28]
    95d4:	e51f03a4 	ldr	r0, [pc, #-932]	; 9238 <check_timings+0x1044>
    95d8:	ee1f3f3c 	mrc	15, 0, r3, cr15, cr12, {1}
    95dc:	e0433002 	sub	r3, r3, r2
    95e0:	e1530000 	cmp	r3, r0
    95e4:	9afffffb 	bls	95d8 <check_timings+0x13e4>
    95e8:	ee1f2f3c 	mrc	15, 0, r2, cr15, cr12, {1}
    95ec:	e2422010 	sub	r2, r2, #16, 0
    95f0:	e51f33a0 	ldr	r3, [pc, #-928]	; 9258 <check_timings+0x1064>
    95f4:	e583401c 	str	r4, [r3, #28]
    95f8:	e51f03c8 	ldr	r0, [pc, #-968]	; 9238 <check_timings+0x1044>
    95fc:	ee1f3f3c 	mrc	15, 0, r3, cr15, cr12, {1}
    9600:	e0433002 	sub	r3, r3, r2
    9604:	e1530000 	cmp	r3, r0
    9608:	9afffffb 	bls	95fc <check_timings+0x1408>
    960c:	ee1f2f3c 	mrc	15, 0, r2, cr15, cr12, {1}
    9610:	e2422010 	sub	r2, r2, #16, 0
    9614:	e51f33c4 	ldr	r3, [pc, #-964]	; 9258 <check_timings+0x1064>
    9618:	e583401c 	str	r4, [r3, #28]
    961c:	e51f03ec 	ldr	r0, [pc, #-1004]	; 9238 <check_timings+0x1044>
    9620:	ee1f3f3c 	mrc	15, 0, r3, cr15, cr12, {1}
    9624:	e0433002 	sub	r3, r3, r2
    9628:	e1530000 	cmp	r3, r0
    962c:	9afffffb 	bls	9620 <check_timings+0x142c>
    9630:	ee1f2f3c 	mrc	15, 0, r2, cr15, cr12, {1}
    9634:	e2422010 	sub	r2, r2, #16, 0
    9638:	e51f33e8 	ldr	r3, [pc, #-1000]	; 9258 <check_timings+0x1064>
    963c:	e583401c 	str	r4, [r3, #28]
    9640:	e51f0410 	ldr	r0, [pc, #-1040]	; 9238 <check_timings+0x1044>
    9644:	ee1f3f3c 	mrc	15, 0, r3, cr15, cr12, {1}
    9648:	e0433002 	sub	r3, r3, r2
    964c:	e1530000 	cmp	r3, r0
    9650:	9afffffb 	bls	9644 <check_timings+0x1450>
    9654:	ee1f2f3c 	mrc	15, 0, r2, cr15, cr12, {1}
    9658:	e2422010 	sub	r2, r2, #16, 0
    965c:	e51f340c 	ldr	r3, [pc, #-1036]	; 9258 <check_timings+0x1064>
    9660:	e583401c 	str	r4, [r3, #28]
    9664:	e51f0434 	ldr	r0, [pc, #-1076]	; 9238 <check_timings+0x1044>
    9668:	ee1f3f3c 	mrc	15, 0, r3, cr15, cr12, {1}
    966c:	e0433002 	sub	r3, r3, r2
    9670:	e1530000 	cmp	r3, r0
    9674:	9afffffb 	bls	9668 <check_timings+0x1474>
    9678:	ee1f2f3c 	mrc	15, 0, r2, cr15, cr12, {1}
    967c:	e2422010 	sub	r2, r2, #16, 0
    9680:	e51f3430 	ldr	r3, [pc, #-1072]	; 9258 <check_timings+0x1064>
    9684:	e583401c 	str	r4, [r3, #28]
    9688:	e51f0458 	ldr	r0, [pc, #-1112]	; 9238 <check_timings+0x1044>
    968c:	ee1f3f3c 	mrc	15, 0, r3, cr15, cr12, {1}
    9690:	e0433002 	sub	r3, r3, r2
    9694:	e1530000 	cmp	r3, r0
    9698:	9afffffb 	bls	968c <check_timings+0x1498>
    969c:	ee1f2f3c 	mrc	15, 0, r2, cr15, cr12, {1}
    96a0:	e2422010 	sub	r2, r2, #16, 0
    96a4:	e51f3454 	ldr	r3, [pc, #-1108]	; 9258 <check_timings+0x1064>
    96a8:	e583401c 	str	r4, [r3, #28]
    96ac:	e51f047c 	ldr	r0, [pc, #-1148]	; 9238 <check_timings+0x1044>
    96b0:	ee1f3f3c 	mrc	15, 0, r3, cr15, cr12, {1}
    96b4:	e0433002 	sub	r3, r3, r2
    96b8:	e1530000 	cmp	r3, r0
    96bc:	9afffffb 	bls	96b0 <check_timings+0x14bc>
    96c0:	ee1f2f3c 	mrc	15, 0, r2, cr15, cr12, {1}
    96c4:	e2422010 	sub	r2, r2, #16, 0
    96c8:	e51f3478 	ldr	r3, [pc, #-1144]	; 9258 <check_timings+0x1064>
    96cc:	e583401c 	str	r4, [r3, #28]
    96d0:	e51f04a0 	ldr	r0, [pc, #-1184]	; 9238 <check_timings+0x1044>
    96d4:	ee1f3f3c 	mrc	15, 0, r3, cr15, cr12, {1}
    96d8:	e0433002 	sub	r3, r3, r2
    96dc:	e1530000 	cmp	r3, r0
    96e0:	9afffffb 	bls	96d4 <check_timings+0x14e0>
    96e4:	ee1f2f3c 	mrc	15, 0, r2, cr15, cr12, {1}
    96e8:	e2422010 	sub	r2, r2, #16, 0
    96ec:	e51f349c 	ldr	r3, [pc, #-1180]	; 9258 <check_timings+0x1064>
    96f0:	e583401c 	str	r4, [r3, #28]
    96f4:	e51f04c4 	ldr	r0, [pc, #-1220]	; 9238 <check_timings+0x1044>
    96f8:	ee1f3f3c 	mrc	15, 0, r3, cr15, cr12, {1}
    96fc:	e0433002 	sub	r3, r3, r2
    9700:	e1530000 	cmp	r3, r0
    9704:	9afffffb 	bls	96f8 <check_timings+0x1504>
    9708:	ee1f2f3c 	mrc	15, 0, r2, cr15, cr12, {1}
    970c:	e2422010 	sub	r2, r2, #16, 0
    9710:	e51f34c0 	ldr	r3, [pc, #-1216]	; 9258 <check_timings+0x1064>
    9714:	e583401c 	str	r4, [r3, #28]
    9718:	e51f04e8 	ldr	r0, [pc, #-1256]	; 9238 <check_timings+0x1044>
    971c:	ee1f3f3c 	mrc	15, 0, r3, cr15, cr12, {1}
    9720:	e0433002 	sub	r3, r3, r2
    9724:	e1530000 	cmp	r3, r0
    9728:	9afffffb 	bls	971c <check_timings+0x1528>
    972c:	ee1f2f3c 	mrc	15, 0, r2, cr15, cr12, {1}
    9730:	e2422010 	sub	r2, r2, #16, 0
    9734:	e51f34e4 	ldr	r3, [pc, #-1252]	; 9258 <check_timings+0x1064>
    9738:	e583401c 	str	r4, [r3, #28]
    973c:	e51f050c 	ldr	r0, [pc, #-1292]	; 9238 <check_timings+0x1044>
    9740:	ee1f3f3c 	mrc	15, 0, r3, cr15, cr12, {1}
    9744:	e0433002 	sub	r3, r3, r2
    9748:	e1530000 	cmp	r3, r0
    974c:	9afffffb 	bls	9740 <check_timings+0x154c>
    9750:	ee1f2f3c 	mrc	15, 0, r2, cr15, cr12, {1}
    9754:	e2422010 	sub	r2, r2, #16, 0
    9758:	e51f3508 	ldr	r3, [pc, #-1288]	; 9258 <check_timings+0x1064>
    975c:	e583401c 	str	r4, [r3, #28]
    9760:	e51f0530 	ldr	r0, [pc, #-1328]	; 9238 <check_timings+0x1044>
    9764:	ee1f3f3c 	mrc	15, 0, r3, cr15, cr12, {1}
    9768:	e0433002 	sub	r3, r3, r2
    976c:	e1530000 	cmp	r3, r0
    9770:	9afffffb 	bls	9764 <check_timings+0x1570>
    9774:	ee1f2f3c 	mrc	15, 0, r2, cr15, cr12, {1}
    9778:	e2422010 	sub	r2, r2, #16, 0
    977c:	e51f352c 	ldr	r3, [pc, #-1324]	; 9258 <check_timings+0x1064>
    9780:	e583401c 	str	r4, [r3, #28]
    9784:	e51f0554 	ldr	r0, [pc, #-1364]	; 9238 <check_timings+0x1044>
    9788:	ee1f3f3c 	mrc	15, 0, r3, cr15, cr12, {1}
    978c:	e0433002 	sub	r3, r3, r2
    9790:	e1530000 	cmp	r3, r0
    9794:	9afffffb 	bls	9788 <check_timings+0x1594>
    9798:	ee1f2f3c 	mrc	15, 0, r2, cr15, cr12, {1}
    979c:	e2422010 	sub	r2, r2, #16, 0
    97a0:	e51f3550 	ldr	r3, [pc, #-1360]	; 9258 <check_timings+0x1064>
    97a4:	e583401c 	str	r4, [r3, #28]
    97a8:	e51f0578 	ldr	r0, [pc, #-1400]	; 9238 <check_timings+0x1044>
    97ac:	ee1f3f3c 	mrc	15, 0, r3, cr15, cr12, {1}
    97b0:	e0433002 	sub	r3, r3, r2
    97b4:	e1530000 	cmp	r3, r0
    97b8:	9afffffb 	bls	97ac <check_timings+0x15b8>
    97bc:	ee1f2f3c 	mrc	15, 0, r2, cr15, cr12, {1}
    97c0:	e2422010 	sub	r2, r2, #16, 0
    97c4:	e51f3574 	ldr	r3, [pc, #-1396]	; 9258 <check_timings+0x1064>
    97c8:	e583401c 	str	r4, [r3, #28]
    97cc:	e51f059c 	ldr	r0, [pc, #-1436]	; 9238 <check_timings+0x1044>
    97d0:	ee1f3f3c 	mrc	15, 0, r3, cr15, cr12, {1}
    97d4:	e0433002 	sub	r3, r3, r2
    97d8:	e1530000 	cmp	r3, r0
    97dc:	9afffffb 	bls	97d0 <check_timings+0x15dc>
    97e0:	ee1f2f3c 	mrc	15, 0, r2, cr15, cr12, {1}
    97e4:	e2422010 	sub	r2, r2, #16, 0
    97e8:	e51f3598 	ldr	r3, [pc, #-1432]	; 9258 <check_timings+0x1064>
    97ec:	e583401c 	str	r4, [r3, #28]
    97f0:	e51f05c0 	ldr	r0, [pc, #-1472]	; 9238 <check_timings+0x1044>
    97f4:	ee1f3f3c 	mrc	15, 0, r3, cr15, cr12, {1}
    97f8:	e0433002 	sub	r3, r3, r2
    97fc:	e1530000 	cmp	r3, r0
    9800:	9afffffb 	bls	97f4 <check_timings+0x1600>
    9804:	ee1f2f3c 	mrc	15, 0, r2, cr15, cr12, {1}
    9808:	e2422010 	sub	r2, r2, #16, 0
    980c:	e51f35bc 	ldr	r3, [pc, #-1468]	; 9258 <check_timings+0x1064>
    9810:	e583401c 	str	r4, [r3, #28]
    9814:	e51f05e4 	ldr	r0, [pc, #-1508]	; 9238 <check_timings+0x1044>
    9818:	ee1f3f3c 	mrc	15, 0, r3, cr15, cr12, {1}
    981c:	e0433002 	sub	r3, r3, r2
    9820:	e1530000 	cmp	r3, r0
    9824:	9afffffb 	bls	9818 <check_timings+0x1624>
    9828:	ee1f2f3c 	mrc	15, 0, r2, cr15, cr12, {1}
    982c:	e2422010 	sub	r2, r2, #16, 0
    9830:	e51f35e0 	ldr	r3, [pc, #-1504]	; 9258 <check_timings+0x1064>
    9834:	e583401c 	str	r4, [r3, #28]
    9838:	e51f0608 	ldr	r0, [pc, #-1544]	; 9238 <check_timings+0x1044>
    983c:	ee1f3f3c 	mrc	15, 0, r3, cr15, cr12, {1}
    9840:	e0433002 	sub	r3, r3, r2
    9844:	e1530000 	cmp	r3, r0
    9848:	9afffffb 	bls	983c <check_timings+0x1648>
    984c:	ee1f2f3c 	mrc	15, 0, r2, cr15, cr12, {1}
    9850:	e2422010 	sub	r2, r2, #16, 0
    9854:	e51f3604 	ldr	r3, [pc, #-1540]	; 9258 <check_timings+0x1064>
    9858:	e583401c 	str	r4, [r3, #28]
    985c:	e51f062c 	ldr	r0, [pc, #-1580]	; 9238 <check_timings+0x1044>
    9860:	ee1f3f3c 	mrc	15, 0, r3, cr15, cr12, {1}
    9864:	e0433002 	sub	r3, r3, r2
    9868:	e1530000 	cmp	r3, r0
    986c:	9afffffb 	bls	9860 <check_timings+0x166c>
    9870:	ee1f2f3c 	mrc	15, 0, r2, cr15, cr12, {1}
    9874:	e2422010 	sub	r2, r2, #16, 0
    9878:	e51f3628 	ldr	r3, [pc, #-1576]	; 9258 <check_timings+0x1064>
    987c:	e583401c 	str	r4, [r3, #28]
    9880:	e51f0650 	ldr	r0, [pc, #-1616]	; 9238 <check_timings+0x1044>
    9884:	ee1f3f3c 	mrc	15, 0, r3, cr15, cr12, {1}
    9888:	e0433002 	sub	r3, r3, r2
    988c:	e1530000 	cmp	r3, r0
    9890:	9afffffb 	bls	9884 <check_timings+0x1690>
    9894:	ee1f2f3c 	mrc	15, 0, r2, cr15, cr12, {1}
    9898:	e2422010 	sub	r2, r2, #16, 0
    989c:	e51f364c 	ldr	r3, [pc, #-1612]	; 9258 <check_timings+0x1064>
    98a0:	e583401c 	str	r4, [r3, #28]
    98a4:	e51f0674 	ldr	r0, [pc, #-1652]	; 9238 <check_timings+0x1044>
    98a8:	ee1f3f3c 	mrc	15, 0, r3, cr15, cr12, {1}
    98ac:	e0433002 	sub	r3, r3, r2
    98b0:	e1530000 	cmp	r3, r0
    98b4:	9afffffb 	bls	98a8 <check_timings+0x16b4>
    98b8:	ee1f2f3c 	mrc	15, 0, r2, cr15, cr12, {1}
    98bc:	e2422010 	sub	r2, r2, #16, 0
    98c0:	e51f3670 	ldr	r3, [pc, #-1648]	; 9258 <check_timings+0x1064>
    98c4:	e583401c 	str	r4, [r3, #28]
    98c8:	e51f0698 	ldr	r0, [pc, #-1688]	; 9238 <check_timings+0x1044>
    98cc:	ee1f3f3c 	mrc	15, 0, r3, cr15, cr12, {1}
    98d0:	e0433002 	sub	r3, r3, r2
    98d4:	e1530000 	cmp	r3, r0
    98d8:	9afffffb 	bls	98cc <check_timings+0x16d8>
    98dc:	ee1f2f3c 	mrc	15, 0, r2, cr15, cr12, {1}
    98e0:	e2422010 	sub	r2, r2, #16, 0
    98e4:	e51f3694 	ldr	r3, [pc, #-1684]	; 9258 <check_timings+0x1064>
    98e8:	e583401c 	str	r4, [r3, #28]
    98ec:	e51f06bc 	ldr	r0, [pc, #-1724]	; 9238 <check_timings+0x1044>
    98f0:	ee1f3f3c 	mrc	15, 0, r3, cr15, cr12, {1}
    98f4:	e0433002 	sub	r3, r3, r2
    98f8:	e1530000 	cmp	r3, r0
    98fc:	9afffffb 	bls	98f0 <check_timings+0x16fc>
    9900:	ee1f2f3c 	mrc	15, 0, r2, cr15, cr12, {1}
    9904:	e2422010 	sub	r2, r2, #16, 0
    9908:	e51f36b8 	ldr	r3, [pc, #-1720]	; 9258 <check_timings+0x1064>
    990c:	e583401c 	str	r4, [r3, #28]
    9910:	e51f06e0 	ldr	r0, [pc, #-1760]	; 9238 <check_timings+0x1044>
    9914:	ee1f3f3c 	mrc	15, 0, r3, cr15, cr12, {1}
    9918:	e0433002 	sub	r3, r3, r2
    991c:	e1530000 	cmp	r3, r0
    9920:	9afffffb 	bls	9914 <check_timings+0x1720>
    9924:	ee1f2f3c 	mrc	15, 0, r2, cr15, cr12, {1}
    9928:	e2422010 	sub	r2, r2, #16, 0
    992c:	e51f36dc 	ldr	r3, [pc, #-1756]	; 9258 <check_timings+0x1064>
    9930:	e583401c 	str	r4, [r3, #28]
    9934:	e51f0704 	ldr	r0, [pc, #-1796]	; 9238 <check_timings+0x1044>
    9938:	ee1f3f3c 	mrc	15, 0, r3, cr15, cr12, {1}
    993c:	e0433002 	sub	r3, r3, r2
    9940:	e1530000 	cmp	r3, r0
    9944:	9afffffb 	bls	9938 <check_timings+0x1744>
    9948:	ee1f2f3c 	mrc	15, 0, r2, cr15, cr12, {1}
    994c:	e2422010 	sub	r2, r2, #16, 0
    9950:	e51f3700 	ldr	r3, [pc, #-1792]	; 9258 <check_timings+0x1064>
    9954:	e583401c 	str	r4, [r3, #28]
    9958:	e51f0728 	ldr	r0, [pc, #-1832]	; 9238 <check_timings+0x1044>
    995c:	ee1f3f3c 	mrc	15, 0, r3, cr15, cr12, {1}
    9960:	e0433002 	sub	r3, r3, r2
    9964:	e1530000 	cmp	r3, r0
    9968:	9afffffb 	bls	995c <check_timings+0x1768>
    996c:	ee1f2f3c 	mrc	15, 0, r2, cr15, cr12, {1}
    9970:	e2422010 	sub	r2, r2, #16, 0
    9974:	e51f3724 	ldr	r3, [pc, #-1828]	; 9258 <check_timings+0x1064>
    9978:	e583401c 	str	r4, [r3, #28]
    997c:	e51f074c 	ldr	r0, [pc, #-1868]	; 9238 <check_timings+0x1044>
    9980:	ee1f3f3c 	mrc	15, 0, r3, cr15, cr12, {1}
    9984:	e0433002 	sub	r3, r3, r2
    9988:	e1530000 	cmp	r3, r0
    998c:	9afffffb 	bls	9980 <check_timings+0x178c>
    9990:	ee1f2f3c 	mrc	15, 0, r2, cr15, cr12, {1}
    9994:	e2422010 	sub	r2, r2, #16, 0
    9998:	e51f3748 	ldr	r3, [pc, #-1864]	; 9258 <check_timings+0x1064>
    999c:	e583401c 	str	r4, [r3, #28]
    99a0:	e51f0770 	ldr	r0, [pc, #-1904]	; 9238 <check_timings+0x1044>
    99a4:	ee1f3f3c 	mrc	15, 0, r3, cr15, cr12, {1}
    99a8:	e0433002 	sub	r3, r3, r2
    99ac:	e1530000 	cmp	r3, r0
    99b0:	9afffffb 	bls	99a4 <check_timings+0x17b0>
    99b4:	ee1f2f3c 	mrc	15, 0, r2, cr15, cr12, {1}
    99b8:	e2422010 	sub	r2, r2, #16, 0
    99bc:	e51f376c 	ldr	r3, [pc, #-1900]	; 9258 <check_timings+0x1064>
    99c0:	e583401c 	str	r4, [r3, #28]
    99c4:	e51f0794 	ldr	r0, [pc, #-1940]	; 9238 <check_timings+0x1044>
    99c8:	ee1f3f3c 	mrc	15, 0, r3, cr15, cr12, {1}
    99cc:	e0433002 	sub	r3, r3, r2
    99d0:	e1530000 	cmp	r3, r0
    99d4:	9afffffb 	bls	99c8 <check_timings+0x17d4>
    99d8:	ee1f2f3c 	mrc	15, 0, r2, cr15, cr12, {1}
    99dc:	e2422010 	sub	r2, r2, #16, 0
    99e0:	e51f3790 	ldr	r3, [pc, #-1936]	; 9258 <check_timings+0x1064>
    99e4:	e583401c 	str	r4, [r3, #28]
    99e8:	e51f07b8 	ldr	r0, [pc, #-1976]	; 9238 <check_timings+0x1044>
    99ec:	ee1f3f3c 	mrc	15, 0, r3, cr15, cr12, {1}
    99f0:	e0433002 	sub	r3, r3, r2
    99f4:	e1530000 	cmp	r3, r0
    99f8:	9afffffb 	bls	99ec <check_timings+0x17f8>
    99fc:	ee1f2f3c 	mrc	15, 0, r2, cr15, cr12, {1}
    9a00:	e2422010 	sub	r2, r2, #16, 0
    9a04:	e51f37b4 	ldr	r3, [pc, #-1972]	; 9258 <check_timings+0x1064>
    9a08:	e583401c 	str	r4, [r3, #28]
    9a0c:	e51f07dc 	ldr	r0, [pc, #-2012]	; 9238 <check_timings+0x1044>
    9a10:	ee1f3f3c 	mrc	15, 0, r3, cr15, cr12, {1}
    9a14:	e0433002 	sub	r3, r3, r2
    9a18:	e1530000 	cmp	r3, r0
    9a1c:	9afffffb 	bls	9a10 <check_timings+0x181c>
    9a20:	ee1f2f3c 	mrc	15, 0, r2, cr15, cr12, {1}
    9a24:	e2422010 	sub	r2, r2, #16, 0
    9a28:	e51f37d8 	ldr	r3, [pc, #-2008]	; 9258 <check_timings+0x1064>
    9a2c:	e583401c 	str	r4, [r3, #28]
    9a30:	e51f0800 	ldr	r0, [pc, #-2048]	; 9238 <check_timings+0x1044>
    9a34:	ee1f3f3c 	mrc	15, 0, r3, cr15, cr12, {1}
    9a38:	e0433002 	sub	r3, r3, r2
    9a3c:	e1530000 	cmp	r3, r0
    9a40:	9afffffb 	bls	9a34 <check_timings+0x1840>
    9a44:	ee1f3f3c 	mrc	15, 0, r3, cr15, cr12, {1}
    9a48:	e2433010 	sub	r3, r3, #16, 0
    9a4c:	e51f27fc 	ldr	r2, [pc, #-2044]	; 9258 <check_timings+0x1064>
    9a50:	e582401c 	str	r4, [r2, #28]
    9a54:	e51f0824 	ldr	r0, [pc, #-2084]	; 9238 <check_timings+0x1044>
    9a58:	ee1f2f3c 	mrc	15, 0, r2, cr15, cr12, {1}
    9a5c:	e0422003 	sub	r2, r2, r3
    9a60:	e1520000 	cmp	r2, r0
    9a64:	9afffffb 	bls	9a58 <check_timings+0x1864>
    9a68:	ee1f3f3c 	mrc	15, 0, r3, cr15, cr12, {1}
    9a6c:	e2433010 	sub	r3, r3, #16, 0
    9a70:	e51f2820 	ldr	r2, [pc, #-2080]	; 9258 <check_timings+0x1064>
    9a74:	e582401c 	str	r4, [r2, #28]
    9a78:	e51f0848 	ldr	r0, [pc, #-2120]	; 9238 <check_timings+0x1044>
    9a7c:	ee1f2f3c 	mrc	15, 0, r2, cr15, cr12, {1}
    9a80:	e0422003 	sub	r2, r2, r3
    9a84:	e1520000 	cmp	r2, r0
    9a88:	9afffffb 	bls	9a7c <check_timings+0x1888>
    9a8c:	ee1f3f3c 	mrc	15, 0, r3, cr15, cr12, {1}
    9a90:	e2433010 	sub	r3, r3, #16, 0
    9a94:	e51f2844 	ldr	r2, [pc, #-2116]	; 9258 <check_timings+0x1064>
    9a98:	e582401c 	str	r4, [r2, #28]
    9a9c:	e51f086c 	ldr	r0, [pc, #-2156]	; 9238 <check_timings+0x1044>
    9aa0:	ee1f2f3c 	mrc	15, 0, r2, cr15, cr12, {1}
    9aa4:	e0422003 	sub	r2, r2, r3
    9aa8:	e1520000 	cmp	r2, r0
    9aac:	9afffffb 	bls	9aa0 <check_timings+0x18ac>
    9ab0:	ee1f3f3c 	mrc	15, 0, r3, cr15, cr12, {1}
    9ab4:	e2433010 	sub	r3, r3, #16, 0
    9ab8:	e51f2868 	ldr	r2, [pc, #-2152]	; 9258 <check_timings+0x1064>
    9abc:	e582401c 	str	r4, [r2, #28]
    9ac0:	e51f0890 	ldr	r0, [pc, #-2192]	; 9238 <check_timings+0x1044>
    9ac4:	ee1f2f3c 	mrc	15, 0, r2, cr15, cr12, {1}
    9ac8:	e0422003 	sub	r2, r2, r3
    9acc:	e1520000 	cmp	r2, r0
    9ad0:	9afffffb 	bls	9ac4 <check_timings+0x18d0>
    9ad4:	ee1f3f3c 	mrc	15, 0, r3, cr15, cr12, {1}
    9ad8:	e2433010 	sub	r3, r3, #16, 0
    9adc:	e51f288c 	ldr	r2, [pc, #-2188]	; 9258 <check_timings+0x1064>
    9ae0:	e582401c 	str	r4, [r2, #28]
    9ae4:	e51f08b4 	ldr	r0, [pc, #-2228]	; 9238 <check_timings+0x1044>
    9ae8:	ee1f2f3c 	mrc	15, 0, r2, cr15, cr12, {1}
    9aec:	e0422003 	sub	r2, r2, r3
    9af0:	e1520000 	cmp	r2, r0
    9af4:	9afffffb 	bls	9ae8 <check_timings+0x18f4>
    9af8:	ee1f3f3c 	mrc	15, 0, r3, cr15, cr12, {1}
    9afc:	e2433010 	sub	r3, r3, #16, 0
    9b00:	e51f28b0 	ldr	r2, [pc, #-2224]	; 9258 <check_timings+0x1064>
    9b04:	e582401c 	str	r4, [r2, #28]
    9b08:	e51f08d8 	ldr	r0, [pc, #-2264]	; 9238 <check_timings+0x1044>
    9b0c:	ee1f2f3c 	mrc	15, 0, r2, cr15, cr12, {1}
    9b10:	e0422003 	sub	r2, r2, r3
    9b14:	e1520000 	cmp	r2, r0
    9b18:	9afffffb 	bls	9b0c <check_timings+0x1918>
    9b1c:	e51f58e4 	ldr	r5, [pc, #-2276]	; 9240 <check_timings+0x104c>
    9b20:	e5953004 	ldr	r3, [r5, #4]
    9b24:	e0433001 	sub	r3, r3, r1
    9b28:	e0632283 	rsb	r2, r3, r3, lsl #5
    9b2c:	e0833102 	add	r3, r3, r2, lsl #2
    9b30:	e1a03183 	lsl	r3, r3, #3
    9b34:	e51f28f8 	ldr	r2, [pc, #-2296]	; 9244 <check_timings+0x1050>
    9b38:	e0832392 	umull	r2, r3, r2, r3
    9b3c:	e1a03223 	lsr	r3, r3, #4
    9b40:	e3a02fe1 	mov	r2, #900	; 0x384
    9b44:	e51f1910 	ldr	r1, [pc, #-2320]	; 923c <check_timings+0x1048>
    9b48:	e51f0900 	ldr	r0, [pc, #-2304]	; 9250 <check_timings+0x105c>
    9b4c:	eb00053d 	bl	b048 <printk>
    9b50:	e5951004 	ldr	r1, [r5, #4]
    9b54:	ee1f2f3c 	mrc	15, 0, r2, cr15, cr12, {1}
    9b58:	e2422010 	sub	r2, r2, #16, 0
    9b5c:	e51f390c 	ldr	r3, [pc, #-2316]	; 9258 <check_timings+0x1064>
    9b60:	e5834028 	str	r4, [r3, #40]	; 0x28
    9b64:	ee1f3f3c 	mrc	15, 0, r3, cr15, cr12, {1}
    9b68:	e0433002 	sub	r3, r3, r2
    9b6c:	e35300e4 	cmp	r3, #228, 0	; 0xe4
    9b70:	9afffffb 	bls	9b64 <check_timings+0x1970>
    9b74:	ee1f2f3c 	mrc	15, 0, r2, cr15, cr12, {1}
    9b78:	e2422010 	sub	r2, r2, #16, 0
    9b7c:	e51f392c 	ldr	r3, [pc, #-2348]	; 9258 <check_timings+0x1064>
    9b80:	e5834028 	str	r4, [r3, #40]	; 0x28
    9b84:	ee1f3f3c 	mrc	15, 0, r3, cr15, cr12, {1}
    9b88:	e0433002 	sub	r3, r3, r2
    9b8c:	e35300e4 	cmp	r3, #228, 0	; 0xe4
    9b90:	9afffffb 	bls	9b84 <check_timings+0x1990>
    9b94:	ee1f2f3c 	mrc	15, 0, r2, cr15, cr12, {1}
    9b98:	e2422010 	sub	r2, r2, #16, 0
    9b9c:	e51f394c 	ldr	r3, [pc, #-2380]	; 9258 <check_timings+0x1064>
    9ba0:	e5834028 	str	r4, [r3, #40]	; 0x28
    9ba4:	ee1f3f3c 	mrc	15, 0, r3, cr15, cr12, {1}
    9ba8:	e0433002 	sub	r3, r3, r2
    9bac:	e35300e4 	cmp	r3, #228, 0	; 0xe4
    9bb0:	9afffffb 	bls	9ba4 <check_timings+0x19b0>
    9bb4:	ee1f2f3c 	mrc	15, 0, r2, cr15, cr12, {1}
    9bb8:	e2422010 	sub	r2, r2, #16, 0
    9bbc:	e51f396c 	ldr	r3, [pc, #-2412]	; 9258 <check_timings+0x1064>
    9bc0:	e5834028 	str	r4, [r3, #40]	; 0x28
    9bc4:	ee1f3f3c 	mrc	15, 0, r3, cr15, cr12, {1}
    9bc8:	e0433002 	sub	r3, r3, r2
    9bcc:	e35300e4 	cmp	r3, #228, 0	; 0xe4
    9bd0:	9afffffb 	bls	9bc4 <check_timings+0x19d0>
    9bd4:	ee1f2f3c 	mrc	15, 0, r2, cr15, cr12, {1}
    9bd8:	e2422010 	sub	r2, r2, #16, 0
    9bdc:	e51f398c 	ldr	r3, [pc, #-2444]	; 9258 <check_timings+0x1064>
    9be0:	e5834028 	str	r4, [r3, #40]	; 0x28
    9be4:	ee1f3f3c 	mrc	15, 0, r3, cr15, cr12, {1}
    9be8:	e0433002 	sub	r3, r3, r2
    9bec:	e35300e4 	cmp	r3, #228, 0	; 0xe4
    9bf0:	9afffffb 	bls	9be4 <check_timings+0x19f0>
    9bf4:	ee1f2f3c 	mrc	15, 0, r2, cr15, cr12, {1}
    9bf8:	e2422010 	sub	r2, r2, #16, 0
    9bfc:	e51f39ac 	ldr	r3, [pc, #-2476]	; 9258 <check_timings+0x1064>
    9c00:	e5834028 	str	r4, [r3, #40]	; 0x28
    9c04:	ee1f3f3c 	mrc	15, 0, r3, cr15, cr12, {1}
    9c08:	e0433002 	sub	r3, r3, r2
    9c0c:	e35300e4 	cmp	r3, #228, 0	; 0xe4
    9c10:	9afffffb 	bls	9c04 <check_timings+0x1a10>
    9c14:	ee1f2f3c 	mrc	15, 0, r2, cr15, cr12, {1}
    9c18:	e2422010 	sub	r2, r2, #16, 0
    9c1c:	e51f39cc 	ldr	r3, [pc, #-2508]	; 9258 <check_timings+0x1064>
    9c20:	e5834028 	str	r4, [r3, #40]	; 0x28
    9c24:	ee1f3f3c 	mrc	15, 0, r3, cr15, cr12, {1}
    9c28:	e0433002 	sub	r3, r3, r2
    9c2c:	e35300e4 	cmp	r3, #228, 0	; 0xe4
    9c30:	9afffffb 	bls	9c24 <check_timings+0x1a30>
    9c34:	ee1f2f3c 	mrc	15, 0, r2, cr15, cr12, {1}
    9c38:	e2422010 	sub	r2, r2, #16, 0
    9c3c:	e51f39ec 	ldr	r3, [pc, #-2540]	; 9258 <check_timings+0x1064>
    9c40:	e5834028 	str	r4, [r3, #40]	; 0x28
    9c44:	ee1f3f3c 	mrc	15, 0, r3, cr15, cr12, {1}
    9c48:	e0433002 	sub	r3, r3, r2
    9c4c:	e35300e4 	cmp	r3, #228, 0	; 0xe4
    9c50:	9afffffb 	bls	9c44 <check_timings+0x1a50>
    9c54:	ee1f2f3c 	mrc	15, 0, r2, cr15, cr12, {1}
    9c58:	e2422010 	sub	r2, r2, #16, 0
    9c5c:	e51f3a0c 	ldr	r3, [pc, #-2572]	; 9258 <check_timings+0x1064>
    9c60:	e5834028 	str	r4, [r3, #40]	; 0x28
    9c64:	ee1f3f3c 	mrc	15, 0, r3, cr15, cr12, {1}
    9c68:	e0433002 	sub	r3, r3, r2
    9c6c:	e35300e4 	cmp	r3, #228, 0	; 0xe4
    9c70:	9afffffb 	bls	9c64 <check_timings+0x1a70>
    9c74:	ee1f2f3c 	mrc	15, 0, r2, cr15, cr12, {1}
    9c78:	e2422010 	sub	r2, r2, #16, 0
    9c7c:	e51f3a2c 	ldr	r3, [pc, #-2604]	; 9258 <check_timings+0x1064>
    9c80:	e5834028 	str	r4, [r3, #40]	; 0x28
    9c84:	ee1f3f3c 	mrc	15, 0, r3, cr15, cr12, {1}
    9c88:	e0433002 	sub	r3, r3, r2
    9c8c:	e35300e4 	cmp	r3, #228, 0	; 0xe4
    9c90:	9afffffb 	bls	9c84 <check_timings+0x1a90>
    9c94:	ee1f2f3c 	mrc	15, 0, r2, cr15, cr12, {1}
    9c98:	e2422010 	sub	r2, r2, #16, 0
    9c9c:	e51f3a4c 	ldr	r3, [pc, #-2636]	; 9258 <check_timings+0x1064>
    9ca0:	e5834028 	str	r4, [r3, #40]	; 0x28
    9ca4:	ee1f3f3c 	mrc	15, 0, r3, cr15, cr12, {1}
    9ca8:	e0433002 	sub	r3, r3, r2
    9cac:	e35300e4 	cmp	r3, #228, 0	; 0xe4
    9cb0:	9afffffb 	bls	9ca4 <check_timings+0x1ab0>
    9cb4:	ee1f2f3c 	mrc	15, 0, r2, cr15, cr12, {1}
    9cb8:	e2422010 	sub	r2, r2, #16, 0
    9cbc:	e51f3a6c 	ldr	r3, [pc, #-2668]	; 9258 <check_timings+0x1064>
    9cc0:	e5834028 	str	r4, [r3, #40]	; 0x28
    9cc4:	ee1f3f3c 	mrc	15, 0, r3, cr15, cr12, {1}
    9cc8:	e0433002 	sub	r3, r3, r2
    9ccc:	e35300e4 	cmp	r3, #228, 0	; 0xe4
    9cd0:	9afffffb 	bls	9cc4 <check_timings+0x1ad0>
    9cd4:	ee1f2f3c 	mrc	15, 0, r2, cr15, cr12, {1}
    9cd8:	e2422010 	sub	r2, r2, #16, 0
    9cdc:	e51f3a8c 	ldr	r3, [pc, #-2700]	; 9258 <check_timings+0x1064>
    9ce0:	e5834028 	str	r4, [r3, #40]	; 0x28
    9ce4:	ee1f3f3c 	mrc	15, 0, r3, cr15, cr12, {1}
    9ce8:	e0433002 	sub	r3, r3, r2
    9cec:	e35300e4 	cmp	r3, #228, 0	; 0xe4
    9cf0:	9afffffb 	bls	9ce4 <check_timings+0x1af0>
    9cf4:	ee1f2f3c 	mrc	15, 0, r2, cr15, cr12, {1}
    9cf8:	e2422010 	sub	r2, r2, #16, 0
    9cfc:	e51f3aac 	ldr	r3, [pc, #-2732]	; 9258 <check_timings+0x1064>
    9d00:	e5834028 	str	r4, [r3, #40]	; 0x28
    9d04:	ee1f3f3c 	mrc	15, 0, r3, cr15, cr12, {1}
    9d08:	e0433002 	sub	r3, r3, r2
    9d0c:	e35300e4 	cmp	r3, #228, 0	; 0xe4
    9d10:	9afffffb 	bls	9d04 <check_timings+0x1b10>
    9d14:	ee1f2f3c 	mrc	15, 0, r2, cr15, cr12, {1}
    9d18:	e2422010 	sub	r2, r2, #16, 0
    9d1c:	e51f3acc 	ldr	r3, [pc, #-2764]	; 9258 <check_timings+0x1064>
    9d20:	e5834028 	str	r4, [r3, #40]	; 0x28
    9d24:	ee1f3f3c 	mrc	15, 0, r3, cr15, cr12, {1}
    9d28:	e0433002 	sub	r3, r3, r2
    9d2c:	e35300e4 	cmp	r3, #228, 0	; 0xe4
    9d30:	9afffffb 	bls	9d24 <check_timings+0x1b30>
    9d34:	ee1f2f3c 	mrc	15, 0, r2, cr15, cr12, {1}
    9d38:	e2422010 	sub	r2, r2, #16, 0
    9d3c:	e51f3aec 	ldr	r3, [pc, #-2796]	; 9258 <check_timings+0x1064>
    9d40:	e5834028 	str	r4, [r3, #40]	; 0x28
    9d44:	ee1f3f3c 	mrc	15, 0, r3, cr15, cr12, {1}
    9d48:	e0433002 	sub	r3, r3, r2
    9d4c:	e35300e4 	cmp	r3, #228, 0	; 0xe4
    9d50:	9afffffb 	bls	9d44 <check_timings+0x1b50>
    9d54:	ee1f2f3c 	mrc	15, 0, r2, cr15, cr12, {1}
    9d58:	e2422010 	sub	r2, r2, #16, 0
    9d5c:	e51f3b0c 	ldr	r3, [pc, #-2828]	; 9258 <check_timings+0x1064>
    9d60:	e5834028 	str	r4, [r3, #40]	; 0x28
    9d64:	ee1f3f3c 	mrc	15, 0, r3, cr15, cr12, {1}
    9d68:	e0433002 	sub	r3, r3, r2
    9d6c:	e35300e4 	cmp	r3, #228, 0	; 0xe4
    9d70:	9afffffb 	bls	9d64 <check_timings+0x1b70>
    9d74:	ee1f2f3c 	mrc	15, 0, r2, cr15, cr12, {1}
    9d78:	e2422010 	sub	r2, r2, #16, 0
    9d7c:	e51f3b2c 	ldr	r3, [pc, #-2860]	; 9258 <check_timings+0x1064>
    9d80:	e5834028 	str	r4, [r3, #40]	; 0x28
    9d84:	ee1f3f3c 	mrc	15, 0, r3, cr15, cr12, {1}
    9d88:	e0433002 	sub	r3, r3, r2
    9d8c:	e35300e4 	cmp	r3, #228, 0	; 0xe4
    9d90:	9afffffb 	bls	9d84 <check_timings+0x1b90>
    9d94:	ee1f2f3c 	mrc	15, 0, r2, cr15, cr12, {1}
    9d98:	e2422010 	sub	r2, r2, #16, 0
    9d9c:	e51f3b4c 	ldr	r3, [pc, #-2892]	; 9258 <check_timings+0x1064>
    9da0:	e5834028 	str	r4, [r3, #40]	; 0x28
    9da4:	ee1f3f3c 	mrc	15, 0, r3, cr15, cr12, {1}
    9da8:	e0433002 	sub	r3, r3, r2
    9dac:	e35300e4 	cmp	r3, #228, 0	; 0xe4
    9db0:	9afffffb 	bls	9da4 <check_timings+0x1bb0>
    9db4:	ee1f2f3c 	mrc	15, 0, r2, cr15, cr12, {1}
    9db8:	e2422010 	sub	r2, r2, #16, 0
    9dbc:	e51f3b6c 	ldr	r3, [pc, #-2924]	; 9258 <check_timings+0x1064>
    9dc0:	e5834028 	str	r4, [r3, #40]	; 0x28
    9dc4:	ee1f3f3c 	mrc	15, 0, r3, cr15, cr12, {1}
    9dc8:	e0433002 	sub	r3, r3, r2
    9dcc:	e35300e4 	cmp	r3, #228, 0	; 0xe4
    9dd0:	9afffffb 	bls	9dc4 <check_timings+0x1bd0>
    9dd4:	ee1f2f3c 	mrc	15, 0, r2, cr15, cr12, {1}
    9dd8:	e2422010 	sub	r2, r2, #16, 0
    9ddc:	e51f3b8c 	ldr	r3, [pc, #-2956]	; 9258 <check_timings+0x1064>
    9de0:	e5834028 	str	r4, [r3, #40]	; 0x28
    9de4:	ee1f3f3c 	mrc	15, 0, r3, cr15, cr12, {1}
    9de8:	e0433002 	sub	r3, r3, r2
    9dec:	e35300e4 	cmp	r3, #228, 0	; 0xe4
    9df0:	9afffffb 	bls	9de4 <check_timings+0x1bf0>
    9df4:	ee1f2f3c 	mrc	15, 0, r2, cr15, cr12, {1}
    9df8:	e2422010 	sub	r2, r2, #16, 0
    9dfc:	e51f3bac 	ldr	r3, [pc, #-2988]	; 9258 <check_timings+0x1064>
    9e00:	e5834028 	str	r4, [r3, #40]	; 0x28
    9e04:	ee1f3f3c 	mrc	15, 0, r3, cr15, cr12, {1}
    9e08:	e0433002 	sub	r3, r3, r2
    9e0c:	e35300e4 	cmp	r3, #228, 0	; 0xe4
    9e10:	9afffffb 	bls	9e04 <check_timings+0x1c10>
    9e14:	ee1f2f3c 	mrc	15, 0, r2, cr15, cr12, {1}
    9e18:	e2422010 	sub	r2, r2, #16, 0
    9e1c:	e51f3bcc 	ldr	r3, [pc, #-3020]	; 9258 <check_timings+0x1064>
    9e20:	e5834028 	str	r4, [r3, #40]	; 0x28
    9e24:	ee1f3f3c 	mrc	15, 0, r3, cr15, cr12, {1}
    9e28:	e0433002 	sub	r3, r3, r2
    9e2c:	e35300e4 	cmp	r3, #228, 0	; 0xe4
    9e30:	9afffffb 	bls	9e24 <check_timings+0x1c30>
    9e34:	ee1f2f3c 	mrc	15, 0, r2, cr15, cr12, {1}
    9e38:	e2422010 	sub	r2, r2, #16, 0
    9e3c:	e51f3bec 	ldr	r3, [pc, #-3052]	; 9258 <check_timings+0x1064>
    9e40:	e5834028 	str	r4, [r3, #40]	; 0x28
    9e44:	ee1f3f3c 	mrc	15, 0, r3, cr15, cr12, {1}
    9e48:	e0433002 	sub	r3, r3, r2
    9e4c:	e35300e4 	cmp	r3, #228, 0	; 0xe4
    9e50:	9afffffb 	bls	9e44 <check_timings+0x1c50>
    9e54:	ee1f2f3c 	mrc	15, 0, r2, cr15, cr12, {1}
    9e58:	e2422010 	sub	r2, r2, #16, 0
    9e5c:	e51f3c0c 	ldr	r3, [pc, #-3084]	; 9258 <check_timings+0x1064>
    9e60:	e5834028 	str	r4, [r3, #40]	; 0x28
    9e64:	ee1f3f3c 	mrc	15, 0, r3, cr15, cr12, {1}
    9e68:	e0433002 	sub	r3, r3, r2
    9e6c:	e35300e4 	cmp	r3, #228, 0	; 0xe4
    9e70:	9afffffb 	bls	9e64 <check_timings+0x1c70>
    9e74:	ee1f2f3c 	mrc	15, 0, r2, cr15, cr12, {1}
    9e78:	e2422010 	sub	r2, r2, #16, 0
    9e7c:	e51f3c2c 	ldr	r3, [pc, #-3116]	; 9258 <check_timings+0x1064>
    9e80:	e5834028 	str	r4, [r3, #40]	; 0x28
    9e84:	ee1f3f3c 	mrc	15, 0, r3, cr15, cr12, {1}
    9e88:	e0433002 	sub	r3, r3, r2
    9e8c:	e35300e4 	cmp	r3, #228, 0	; 0xe4
    9e90:	9afffffb 	bls	9e84 <check_timings+0x1c90>
    9e94:	ee1f2f3c 	mrc	15, 0, r2, cr15, cr12, {1}
    9e98:	e2422010 	sub	r2, r2, #16, 0
    9e9c:	e51f3c4c 	ldr	r3, [pc, #-3148]	; 9258 <check_timings+0x1064>
    9ea0:	e5834028 	str	r4, [r3, #40]	; 0x28
    9ea4:	ee1f3f3c 	mrc	15, 0, r3, cr15, cr12, {1}
    9ea8:	e0433002 	sub	r3, r3, r2
    9eac:	e35300e4 	cmp	r3, #228, 0	; 0xe4
    9eb0:	9afffffb 	bls	9ea4 <check_timings+0x1cb0>
    9eb4:	ee1f2f3c 	mrc	15, 0, r2, cr15, cr12, {1}
    9eb8:	e2422010 	sub	r2, r2, #16, 0
    9ebc:	e51f3c6c 	ldr	r3, [pc, #-3180]	; 9258 <check_timings+0x1064>
    9ec0:	e5834028 	str	r4, [r3, #40]	; 0x28
    9ec4:	ee1f3f3c 	mrc	15, 0, r3, cr15, cr12, {1}
    9ec8:	e0433002 	sub	r3, r3, r2
    9ecc:	e35300e4 	cmp	r3, #228, 0	; 0xe4
    9ed0:	9afffffb 	bls	9ec4 <check_timings+0x1cd0>
    9ed4:	ee1f2f3c 	mrc	15, 0, r2, cr15, cr12, {1}
    9ed8:	e2422010 	sub	r2, r2, #16, 0
    9edc:	e51f3c8c 	ldr	r3, [pc, #-3212]	; 9258 <check_timings+0x1064>
    9ee0:	e5834028 	str	r4, [r3, #40]	; 0x28
    9ee4:	ee1f3f3c 	mrc	15, 0, r3, cr15, cr12, {1}
    9ee8:	e0433002 	sub	r3, r3, r2
    9eec:	e35300e4 	cmp	r3, #228, 0	; 0xe4
    9ef0:	9afffffb 	bls	9ee4 <check_timings+0x1cf0>
    9ef4:	ee1f2f3c 	mrc	15, 0, r2, cr15, cr12, {1}
    9ef8:	e2422010 	sub	r2, r2, #16, 0
    9efc:	e51f3cac 	ldr	r3, [pc, #-3244]	; 9258 <check_timings+0x1064>
    9f00:	e5834028 	str	r4, [r3, #40]	; 0x28
    9f04:	ee1f3f3c 	mrc	15, 0, r3, cr15, cr12, {1}
    9f08:	e0433002 	sub	r3, r3, r2
    9f0c:	e35300e4 	cmp	r3, #228, 0	; 0xe4
    9f10:	9afffffb 	bls	9f04 <check_timings+0x1d10>
    9f14:	ee1f2f3c 	mrc	15, 0, r2, cr15, cr12, {1}
    9f18:	e2422010 	sub	r2, r2, #16, 0
    9f1c:	e51f3ccc 	ldr	r3, [pc, #-3276]	; 9258 <check_timings+0x1064>
    9f20:	e5834028 	str	r4, [r3, #40]	; 0x28
    9f24:	ee1f3f3c 	mrc	15, 0, r3, cr15, cr12, {1}
    9f28:	e0433002 	sub	r3, r3, r2
    9f2c:	e35300e4 	cmp	r3, #228, 0	; 0xe4
    9f30:	9afffffb 	bls	9f24 <check_timings+0x1d30>
    9f34:	ee1f2f3c 	mrc	15, 0, r2, cr15, cr12, {1}
    9f38:	e2422010 	sub	r2, r2, #16, 0
    9f3c:	e51f3cec 	ldr	r3, [pc, #-3308]	; 9258 <check_timings+0x1064>
    9f40:	e5834028 	str	r4, [r3, #40]	; 0x28
    9f44:	ee1f3f3c 	mrc	15, 0, r3, cr15, cr12, {1}
    9f48:	e0433002 	sub	r3, r3, r2
    9f4c:	e35300e4 	cmp	r3, #228, 0	; 0xe4
    9f50:	9afffffb 	bls	9f44 <check_timings+0x1d50>
    9f54:	ee1f2f3c 	mrc	15, 0, r2, cr15, cr12, {1}
    9f58:	e2422010 	sub	r2, r2, #16, 0
    9f5c:	e51f3d0c 	ldr	r3, [pc, #-3340]	; 9258 <check_timings+0x1064>
    9f60:	e5834028 	str	r4, [r3, #40]	; 0x28
    9f64:	ee1f3f3c 	mrc	15, 0, r3, cr15, cr12, {1}
    9f68:	e0433002 	sub	r3, r3, r2
    9f6c:	e35300e4 	cmp	r3, #228, 0	; 0xe4
    9f70:	9afffffb 	bls	9f64 <check_timings+0x1d70>
    9f74:	ee1f2f3c 	mrc	15, 0, r2, cr15, cr12, {1}
    9f78:	e2422010 	sub	r2, r2, #16, 0
    9f7c:	e51f3d2c 	ldr	r3, [pc, #-3372]	; 9258 <check_timings+0x1064>
    9f80:	e5834028 	str	r4, [r3, #40]	; 0x28
    9f84:	ee1f3f3c 	mrc	15, 0, r3, cr15, cr12, {1}
    9f88:	e0433002 	sub	r3, r3, r2
    9f8c:	e35300e4 	cmp	r3, #228, 0	; 0xe4
    9f90:	9afffffb 	bls	9f84 <check_timings+0x1d90>
    9f94:	ee1f2f3c 	mrc	15, 0, r2, cr15, cr12, {1}
    9f98:	e2422010 	sub	r2, r2, #16, 0
    9f9c:	e51f3d4c 	ldr	r3, [pc, #-3404]	; 9258 <check_timings+0x1064>
    9fa0:	e5834028 	str	r4, [r3, #40]	; 0x28
    9fa4:	ee1f3f3c 	mrc	15, 0, r3, cr15, cr12, {1}
    9fa8:	e0433002 	sub	r3, r3, r2
    9fac:	e35300e4 	cmp	r3, #228, 0	; 0xe4
    9fb0:	9afffffb 	bls	9fa4 <check_timings+0x1db0>
    9fb4:	ee1f2f3c 	mrc	15, 0, r2, cr15, cr12, {1}
    9fb8:	e2422010 	sub	r2, r2, #16, 0
    9fbc:	e51f3d6c 	ldr	r3, [pc, #-3436]	; 9258 <check_timings+0x1064>
    9fc0:	e5834028 	str	r4, [r3, #40]	; 0x28
    9fc4:	ee1f3f3c 	mrc	15, 0, r3, cr15, cr12, {1}
    9fc8:	e0433002 	sub	r3, r3, r2
    9fcc:	e35300e4 	cmp	r3, #228, 0	; 0xe4
    9fd0:	9afffffb 	bls	9fc4 <check_timings+0x1dd0>
    9fd4:	ee1f2f3c 	mrc	15, 0, r2, cr15, cr12, {1}
    9fd8:	e2422010 	sub	r2, r2, #16, 0
    9fdc:	e51f3d8c 	ldr	r3, [pc, #-3468]	; 9258 <check_timings+0x1064>
    9fe0:	e5834028 	str	r4, [r3, #40]	; 0x28
    9fe4:	ee1f3f3c 	mrc	15, 0, r3, cr15, cr12, {1}
    9fe8:	e0433002 	sub	r3, r3, r2
    9fec:	e35300e4 	cmp	r3, #228, 0	; 0xe4
    9ff0:	9afffffb 	bls	9fe4 <check_timings+0x1df0>
    9ff4:	ee1f2f3c 	mrc	15, 0, r2, cr15, cr12, {1}
    9ff8:	e2422010 	sub	r2, r2, #16, 0
    9ffc:	e51f3dac 	ldr	r3, [pc, #-3500]	; 9258 <check_timings+0x1064>
    a000:	e5834028 	str	r4, [r3, #40]	; 0x28
    a004:	ee1f3f3c 	mrc	15, 0, r3, cr15, cr12, {1}
    a008:	e0433002 	sub	r3, r3, r2
    a00c:	e35300e4 	cmp	r3, #228, 0	; 0xe4
    a010:	9afffffb 	bls	a004 <check_timings+0x1e10>
    a014:	ee1f2f3c 	mrc	15, 0, r2, cr15, cr12, {1}
    a018:	e2422010 	sub	r2, r2, #16, 0
    a01c:	e51f3dcc 	ldr	r3, [pc, #-3532]	; 9258 <check_timings+0x1064>
    a020:	e5834028 	str	r4, [r3, #40]	; 0x28
    a024:	ee1f3f3c 	mrc	15, 0, r3, cr15, cr12, {1}
    a028:	e0433002 	sub	r3, r3, r2
    a02c:	e35300e4 	cmp	r3, #228, 0	; 0xe4
    a030:	9afffffb 	bls	a024 <check_timings+0x1e30>
    a034:	ee1f2f3c 	mrc	15, 0, r2, cr15, cr12, {1}
    a038:	e2422010 	sub	r2, r2, #16, 0
    a03c:	e51f3dec 	ldr	r3, [pc, #-3564]	; 9258 <check_timings+0x1064>
    a040:	e5834028 	str	r4, [r3, #40]	; 0x28
    a044:	ee1f3f3c 	mrc	15, 0, r3, cr15, cr12, {1}
    a048:	e0433002 	sub	r3, r3, r2
    a04c:	e35300e4 	cmp	r3, #228, 0	; 0xe4
    a050:	9afffffb 	bls	a044 <check_timings+0x1e50>
    a054:	ee1f2f3c 	mrc	15, 0, r2, cr15, cr12, {1}
    a058:	e2422010 	sub	r2, r2, #16, 0
    a05c:	e51f3e0c 	ldr	r3, [pc, #-3596]	; 9258 <check_timings+0x1064>
    a060:	e5834028 	str	r4, [r3, #40]	; 0x28
    a064:	ee1f3f3c 	mrc	15, 0, r3, cr15, cr12, {1}
    a068:	e0433002 	sub	r3, r3, r2
    a06c:	e35300e4 	cmp	r3, #228, 0	; 0xe4
    a070:	9afffffb 	bls	a064 <check_timings+0x1e70>
    a074:	ee1f2f3c 	mrc	15, 0, r2, cr15, cr12, {1}
    a078:	e2422010 	sub	r2, r2, #16, 0
    a07c:	e51f3e2c 	ldr	r3, [pc, #-3628]	; 9258 <check_timings+0x1064>
    a080:	e5834028 	str	r4, [r3, #40]	; 0x28
    a084:	ee1f3f3c 	mrc	15, 0, r3, cr15, cr12, {1}
    a088:	e0433002 	sub	r3, r3, r2
    a08c:	e35300e4 	cmp	r3, #228, 0	; 0xe4
    a090:	9afffffb 	bls	a084 <check_timings+0x1e90>
    a094:	ee1f2f3c 	mrc	15, 0, r2, cr15, cr12, {1}
    a098:	e2422010 	sub	r2, r2, #16, 0
    a09c:	e51f3e4c 	ldr	r3, [pc, #-3660]	; 9258 <check_timings+0x1064>
    a0a0:	e5834028 	str	r4, [r3, #40]	; 0x28
    a0a4:	ee1f3f3c 	mrc	15, 0, r3, cr15, cr12, {1}
    a0a8:	e0433002 	sub	r3, r3, r2
    a0ac:	e35300e4 	cmp	r3, #228, 0	; 0xe4
    a0b0:	9afffffb 	bls	a0a4 <check_timings+0x1eb0>
    a0b4:	ee1f2f3c 	mrc	15, 0, r2, cr15, cr12, {1}
    a0b8:	e2422010 	sub	r2, r2, #16, 0
    a0bc:	e51f3e6c 	ldr	r3, [pc, #-3692]	; 9258 <check_timings+0x1064>
    a0c0:	e5834028 	str	r4, [r3, #40]	; 0x28
    a0c4:	ee1f3f3c 	mrc	15, 0, r3, cr15, cr12, {1}
    a0c8:	e0433002 	sub	r3, r3, r2
    a0cc:	e35300e4 	cmp	r3, #228, 0	; 0xe4
    a0d0:	9afffffb 	bls	a0c4 <check_timings+0x1ed0>
    a0d4:	ee1f3f3c 	mrc	15, 0, r3, cr15, cr12, {1}
    a0d8:	e2433010 	sub	r3, r3, #16, 0
    a0dc:	e51f2e8c 	ldr	r2, [pc, #-3724]	; 9258 <check_timings+0x1064>
    a0e0:	e5824028 	str	r4, [r2, #40]	; 0x28
    a0e4:	ee1f2f3c 	mrc	15, 0, r2, cr15, cr12, {1}
    a0e8:	e0422003 	sub	r2, r2, r3
    a0ec:	e35200e4 	cmp	r2, #228, 0	; 0xe4
    a0f0:	9afffffb 	bls	a0e4 <check_timings+0x1ef0>
    a0f4:	ee1f3f3c 	mrc	15, 0, r3, cr15, cr12, {1}
    a0f8:	e2433010 	sub	r3, r3, #16, 0
    a0fc:	e51f2eac 	ldr	r2, [pc, #-3756]	; 9258 <check_timings+0x1064>
    a100:	e5824028 	str	r4, [r2, #40]	; 0x28
    a104:	ee1f2f3c 	mrc	15, 0, r2, cr15, cr12, {1}
    a108:	e0422003 	sub	r2, r2, r3
    a10c:	e35200e4 	cmp	r2, #228, 0	; 0xe4
    a110:	9afffffb 	bls	a104 <check_timings+0x1f10>
    a114:	ee1f3f3c 	mrc	15, 0, r3, cr15, cr12, {1}
    a118:	e2433010 	sub	r3, r3, #16, 0
    a11c:	e51f2ecc 	ldr	r2, [pc, #-3788]	; 9258 <check_timings+0x1064>
    a120:	e5824028 	str	r4, [r2, #40]	; 0x28
    a124:	ee1f2f3c 	mrc	15, 0, r2, cr15, cr12, {1}
    a128:	e0422003 	sub	r2, r2, r3
    a12c:	e35200e4 	cmp	r2, #228, 0	; 0xe4
    a130:	9afffffb 	bls	a124 <check_timings+0x1f30>
    a134:	ee1f3f3c 	mrc	15, 0, r3, cr15, cr12, {1}
    a138:	e2433010 	sub	r3, r3, #16, 0
    a13c:	e51f2eec 	ldr	r2, [pc, #-3820]	; 9258 <check_timings+0x1064>
    a140:	e5824028 	str	r4, [r2, #40]	; 0x28
    a144:	ee1f2f3c 	mrc	15, 0, r2, cr15, cr12, {1}
    a148:	e0422003 	sub	r2, r2, r3
    a14c:	e35200e4 	cmp	r2, #228, 0	; 0xe4
    a150:	9afffffb 	bls	a144 <check_timings+0x1f50>
    a154:	ee1f3f3c 	mrc	15, 0, r3, cr15, cr12, {1}
    a158:	e2433010 	sub	r3, r3, #16, 0
    a15c:	e51f2f0c 	ldr	r2, [pc, #-3852]	; 9258 <check_timings+0x1064>
    a160:	e5824028 	str	r4, [r2, #40]	; 0x28
    a164:	ee1f2f3c 	mrc	15, 0, r2, cr15, cr12, {1}
    a168:	e0422003 	sub	r2, r2, r3
    a16c:	e35200e4 	cmp	r2, #228, 0	; 0xe4
    a170:	9afffffb 	bls	a164 <check_timings+0x1f70>
    a174:	ee1f3f3c 	mrc	15, 0, r3, cr15, cr12, {1}
    a178:	e2433010 	sub	r3, r3, #16, 0
    a17c:	e51f2f2c 	ldr	r2, [pc, #-3884]	; 9258 <check_timings+0x1064>
    a180:	e5824028 	str	r4, [r2, #40]	; 0x28
    a184:	ee1f2f3c 	mrc	15, 0, r2, cr15, cr12, {1}
    a188:	e0422003 	sub	r2, r2, r3
    a18c:	e35200e4 	cmp	r2, #228, 0	; 0xe4
    a190:	9afffffb 	bls	a184 <check_timings+0x1f90>
    a194:	e51f5f5c 	ldr	r5, [pc, #-3932]	; 9240 <check_timings+0x104c>
    a198:	e5953004 	ldr	r3, [r5, #4]
    a19c:	e0433001 	sub	r3, r3, r1
    a1a0:	e0632283 	rsb	r2, r3, r3, lsl #5
    a1a4:	e0833102 	add	r3, r3, r2, lsl #2
    a1a8:	e1a03183 	lsl	r3, r3, #3
    a1ac:	e51f2f70 	ldr	r2, [pc, #-3952]	; 9244 <check_timings+0x1050>
    a1b0:	e0832392 	umull	r2, r3, r2, r3
    a1b4:	e1a03223 	lsr	r3, r3, #4
    a1b8:	e51f2f78 	ldr	r2, [pc, #-3960]	; 9248 <check_timings+0x1054>
    a1bc:	e51f1f78 	ldr	r1, [pc, #-3960]	; 924c <check_timings+0x1058>
    a1c0:	e51f0f78 	ldr	r0, [pc, #-3960]	; 9250 <check_timings+0x105c>
    a1c4:	eb00039f 	bl	b048 <printk>
    a1c8:	e320f000 	nop	{0}
    a1cc:	e320f000 	nop	{0}
    a1d0:	e5951004 	ldr	r1, [r5, #4]
    a1d4:	ee1f2f3c 	mrc	15, 0, r2, cr15, cr12, {1}
    a1d8:	e2422010 	sub	r2, r2, #16, 0
    a1dc:	e51f3f8c 	ldr	r3, [pc, #-3980]	; 9258 <check_timings+0x1064>
    a1e0:	e5834028 	str	r4, [r3, #40]	; 0x28
    a1e4:	e51f0f98 	ldr	r0, [pc, #-3992]	; 9254 <check_timings+0x1060>
    a1e8:	ee1f3f3c 	mrc	15, 0, r3, cr15, cr12, {1}
    a1ec:	e0433002 	sub	r3, r3, r2
    a1f0:	e1530000 	cmp	r3, r0
    a1f4:	9afffffb 	bls	a1e8 <check_timings+0x1ff4>
    a1f8:	ee1f2f3c 	mrc	15, 0, r2, cr15, cr12, {1}
    a1fc:	e2422010 	sub	r2, r2, #16, 0
    a200:	e51f3fb0 	ldr	r3, [pc, #-4016]	; 9258 <check_timings+0x1064>
    a204:	e5834028 	str	r4, [r3, #40]	; 0x28
    a208:	e51f0fbc 	ldr	r0, [pc, #-4028]	; 9254 <check_timings+0x1060>
    a20c:	ee1f3f3c 	mrc	15, 0, r3, cr15, cr12, {1}
    a210:	e0433002 	sub	r3, r3, r2
    a214:	e1530000 	cmp	r3, r0
    a218:	9afffffb 	bls	a20c <check_timings+0x2018>
    a21c:	ee1f2f3c 	mrc	15, 0, r2, cr15, cr12, {1}
    a220:	e2422010 	sub	r2, r2, #16, 0
    a224:	e51f3fd4 	ldr	r3, [pc, #-4052]	; 9258 <check_timings+0x1064>
    a228:	e5834028 	str	r4, [r3, #40]	; 0x28
    a22c:	e51f0fe0 	ldr	r0, [pc, #-4064]	; 9254 <check_timings+0x1060>
    a230:	ee1f3f3c 	mrc	15, 0, r3, cr15, cr12, {1}
    a234:	e0433002 	sub	r3, r3, r2
    a238:	e1530000 	cmp	r3, r0
    a23c:	9afffffb 	bls	a230 <check_timings+0x203c>
    a240:	ee1f2f3c 	mrc	15, 0, r2, cr15, cr12, {1}
    a244:	e2422010 	sub	r2, r2, #16, 0
    a248:	e51f3ff8 	ldr	r3, [pc, #-4088]	; 9258 <check_timings+0x1064>
    a24c:	e5834028 	str	r4, [r3, #40]	; 0x28
    a250:	e59f07dc 	ldr	r0, [pc, #2012]	; aa34 <check_timings+0x2840>
    a254:	ee1f3f3c 	mrc	15, 0, r3, cr15, cr12, {1}
    a258:	e0433002 	sub	r3, r3, r2
    a25c:	e1530000 	cmp	r3, r0
    a260:	9afffffb 	bls	a254 <check_timings+0x2060>
    a264:	ee1f2f3c 	mrc	15, 0, r2, cr15, cr12, {1}
    a268:	e2422010 	sub	r2, r2, #16, 0
    a26c:	e59f37c4 	ldr	r3, [pc, #1988]	; aa38 <check_timings+0x2844>
    a270:	e5834028 	str	r4, [r3, #40]	; 0x28
    a274:	e59f07b8 	ldr	r0, [pc, #1976]	; aa34 <check_timings+0x2840>
    a278:	ee1f3f3c 	mrc	15, 0, r3, cr15, cr12, {1}
    a27c:	e0433002 	sub	r3, r3, r2
    a280:	e1530000 	cmp	r3, r0
    a284:	9afffffb 	bls	a278 <check_timings+0x2084>
    a288:	ee1f2f3c 	mrc	15, 0, r2, cr15, cr12, {1}
    a28c:	e2422010 	sub	r2, r2, #16, 0
    a290:	e59f37a0 	ldr	r3, [pc, #1952]	; aa38 <check_timings+0x2844>
    a294:	e5834028 	str	r4, [r3, #40]	; 0x28
    a298:	e59f0794 	ldr	r0, [pc, #1940]	; aa34 <check_timings+0x2840>
    a29c:	ee1f3f3c 	mrc	15, 0, r3, cr15, cr12, {1}
    a2a0:	e0433002 	sub	r3, r3, r2
    a2a4:	e1530000 	cmp	r3, r0
    a2a8:	9afffffb 	bls	a29c <check_timings+0x20a8>
    a2ac:	ee1f2f3c 	mrc	15, 0, r2, cr15, cr12, {1}
    a2b0:	e2422010 	sub	r2, r2, #16, 0
    a2b4:	e59f377c 	ldr	r3, [pc, #1916]	; aa38 <check_timings+0x2844>
    a2b8:	e5834028 	str	r4, [r3, #40]	; 0x28
    a2bc:	e59f0770 	ldr	r0, [pc, #1904]	; aa34 <check_timings+0x2840>
    a2c0:	ee1f3f3c 	mrc	15, 0, r3, cr15, cr12, {1}
    a2c4:	e0433002 	sub	r3, r3, r2
    a2c8:	e1530000 	cmp	r3, r0
    a2cc:	9afffffb 	bls	a2c0 <check_timings+0x20cc>
    a2d0:	ee1f2f3c 	mrc	15, 0, r2, cr15, cr12, {1}
    a2d4:	e2422010 	sub	r2, r2, #16, 0
    a2d8:	e59f3758 	ldr	r3, [pc, #1880]	; aa38 <check_timings+0x2844>
    a2dc:	e5834028 	str	r4, [r3, #40]	; 0x28
    a2e0:	e59f074c 	ldr	r0, [pc, #1868]	; aa34 <check_timings+0x2840>
    a2e4:	ee1f3f3c 	mrc	15, 0, r3, cr15, cr12, {1}
    a2e8:	e0433002 	sub	r3, r3, r2
    a2ec:	e1530000 	cmp	r3, r0
    a2f0:	9afffffb 	bls	a2e4 <check_timings+0x20f0>
    a2f4:	ee1f2f3c 	mrc	15, 0, r2, cr15, cr12, {1}
    a2f8:	e2422010 	sub	r2, r2, #16, 0
    a2fc:	e59f3734 	ldr	r3, [pc, #1844]	; aa38 <check_timings+0x2844>
    a300:	e5834028 	str	r4, [r3, #40]	; 0x28
    a304:	e59f0728 	ldr	r0, [pc, #1832]	; aa34 <check_timings+0x2840>
    a308:	ee1f3f3c 	mrc	15, 0, r3, cr15, cr12, {1}
    a30c:	e0433002 	sub	r3, r3, r2
    a310:	e1530000 	cmp	r3, r0
    a314:	9afffffb 	bls	a308 <check_timings+0x2114>
    a318:	ee1f2f3c 	mrc	15, 0, r2, cr15, cr12, {1}
    a31c:	e2422010 	sub	r2, r2, #16, 0
    a320:	e59f3710 	ldr	r3, [pc, #1808]	; aa38 <check_timings+0x2844>
    a324:	e5834028 	str	r4, [r3, #40]	; 0x28
    a328:	e59f0704 	ldr	r0, [pc, #1796]	; aa34 <check_timings+0x2840>
    a32c:	ee1f3f3c 	mrc	15, 0, r3, cr15, cr12, {1}
    a330:	e0433002 	sub	r3, r3, r2
    a334:	e1530000 	cmp	r3, r0
    a338:	9afffffb 	bls	a32c <check_timings+0x2138>
    a33c:	ee1f2f3c 	mrc	15, 0, r2, cr15, cr12, {1}
    a340:	e2422010 	sub	r2, r2, #16, 0
    a344:	e59f36ec 	ldr	r3, [pc, #1772]	; aa38 <check_timings+0x2844>
    a348:	e5834028 	str	r4, [r3, #40]	; 0x28
    a34c:	e59f06e0 	ldr	r0, [pc, #1760]	; aa34 <check_timings+0x2840>
    a350:	ee1f3f3c 	mrc	15, 0, r3, cr15, cr12, {1}
    a354:	e0433002 	sub	r3, r3, r2
    a358:	e1530000 	cmp	r3, r0
    a35c:	9afffffb 	bls	a350 <check_timings+0x215c>
    a360:	ee1f2f3c 	mrc	15, 0, r2, cr15, cr12, {1}
    a364:	e2422010 	sub	r2, r2, #16, 0
    a368:	e59f36c8 	ldr	r3, [pc, #1736]	; aa38 <check_timings+0x2844>
    a36c:	e5834028 	str	r4, [r3, #40]	; 0x28
    a370:	e59f06bc 	ldr	r0, [pc, #1724]	; aa34 <check_timings+0x2840>
    a374:	ee1f3f3c 	mrc	15, 0, r3, cr15, cr12, {1}
    a378:	e0433002 	sub	r3, r3, r2
    a37c:	e1530000 	cmp	r3, r0
    a380:	9afffffb 	bls	a374 <check_timings+0x2180>
    a384:	ee1f2f3c 	mrc	15, 0, r2, cr15, cr12, {1}
    a388:	e2422010 	sub	r2, r2, #16, 0
    a38c:	e59f36a4 	ldr	r3, [pc, #1700]	; aa38 <check_timings+0x2844>
    a390:	e5834028 	str	r4, [r3, #40]	; 0x28
    a394:	e59f0698 	ldr	r0, [pc, #1688]	; aa34 <check_timings+0x2840>
    a398:	ee1f3f3c 	mrc	15, 0, r3, cr15, cr12, {1}
    a39c:	e0433002 	sub	r3, r3, r2
    a3a0:	e1530000 	cmp	r3, r0
    a3a4:	9afffffb 	bls	a398 <check_timings+0x21a4>
    a3a8:	ee1f2f3c 	mrc	15, 0, r2, cr15, cr12, {1}
    a3ac:	e2422010 	sub	r2, r2, #16, 0
    a3b0:	e59f3680 	ldr	r3, [pc, #1664]	; aa38 <check_timings+0x2844>
    a3b4:	e5834028 	str	r4, [r3, #40]	; 0x28
    a3b8:	e59f0674 	ldr	r0, [pc, #1652]	; aa34 <check_timings+0x2840>
    a3bc:	ee1f3f3c 	mrc	15, 0, r3, cr15, cr12, {1}
    a3c0:	e0433002 	sub	r3, r3, r2
    a3c4:	e1530000 	cmp	r3, r0
    a3c8:	9afffffb 	bls	a3bc <check_timings+0x21c8>
    a3cc:	ee1f2f3c 	mrc	15, 0, r2, cr15, cr12, {1}
    a3d0:	e2422010 	sub	r2, r2, #16, 0
    a3d4:	e59f365c 	ldr	r3, [pc, #1628]	; aa38 <check_timings+0x2844>
    a3d8:	e5834028 	str	r4, [r3, #40]	; 0x28
    a3dc:	e59f0650 	ldr	r0, [pc, #1616]	; aa34 <check_timings+0x2840>
    a3e0:	ee1f3f3c 	mrc	15, 0, r3, cr15, cr12, {1}
    a3e4:	e0433002 	sub	r3, r3, r2
    a3e8:	e1530000 	cmp	r3, r0
    a3ec:	9afffffb 	bls	a3e0 <check_timings+0x21ec>
    a3f0:	ee1f2f3c 	mrc	15, 0, r2, cr15, cr12, {1}
    a3f4:	e2422010 	sub	r2, r2, #16, 0
    a3f8:	e59f3638 	ldr	r3, [pc, #1592]	; aa38 <check_timings+0x2844>
    a3fc:	e5834028 	str	r4, [r3, #40]	; 0x28
    a400:	e59f062c 	ldr	r0, [pc, #1580]	; aa34 <check_timings+0x2840>
    a404:	ee1f3f3c 	mrc	15, 0, r3, cr15, cr12, {1}
    a408:	e0433002 	sub	r3, r3, r2
    a40c:	e1530000 	cmp	r3, r0
    a410:	9afffffb 	bls	a404 <check_timings+0x2210>
    a414:	ee1f2f3c 	mrc	15, 0, r2, cr15, cr12, {1}
    a418:	e2422010 	sub	r2, r2, #16, 0
    a41c:	e59f3614 	ldr	r3, [pc, #1556]	; aa38 <check_timings+0x2844>
    a420:	e5834028 	str	r4, [r3, #40]	; 0x28
    a424:	e59f0608 	ldr	r0, [pc, #1544]	; aa34 <check_timings+0x2840>
    a428:	ee1f3f3c 	mrc	15, 0, r3, cr15, cr12, {1}
    a42c:	e0433002 	sub	r3, r3, r2
    a430:	e1530000 	cmp	r3, r0
    a434:	9afffffb 	bls	a428 <check_timings+0x2234>
    a438:	ee1f2f3c 	mrc	15, 0, r2, cr15, cr12, {1}
    a43c:	e2422010 	sub	r2, r2, #16, 0
    a440:	e59f35f0 	ldr	r3, [pc, #1520]	; aa38 <check_timings+0x2844>
    a444:	e5834028 	str	r4, [r3, #40]	; 0x28
    a448:	e59f05e4 	ldr	r0, [pc, #1508]	; aa34 <check_timings+0x2840>
    a44c:	ee1f3f3c 	mrc	15, 0, r3, cr15, cr12, {1}
    a450:	e0433002 	sub	r3, r3, r2
    a454:	e1530000 	cmp	r3, r0
    a458:	9afffffb 	bls	a44c <check_timings+0x2258>
    a45c:	ee1f2f3c 	mrc	15, 0, r2, cr15, cr12, {1}
    a460:	e2422010 	sub	r2, r2, #16, 0
    a464:	e59f35cc 	ldr	r3, [pc, #1484]	; aa38 <check_timings+0x2844>
    a468:	e5834028 	str	r4, [r3, #40]	; 0x28
    a46c:	e59f05c0 	ldr	r0, [pc, #1472]	; aa34 <check_timings+0x2840>
    a470:	ee1f3f3c 	mrc	15, 0, r3, cr15, cr12, {1}
    a474:	e0433002 	sub	r3, r3, r2
    a478:	e1530000 	cmp	r3, r0
    a47c:	9afffffb 	bls	a470 <check_timings+0x227c>
    a480:	ee1f2f3c 	mrc	15, 0, r2, cr15, cr12, {1}
    a484:	e2422010 	sub	r2, r2, #16, 0
    a488:	e59f35a8 	ldr	r3, [pc, #1448]	; aa38 <check_timings+0x2844>
    a48c:	e5834028 	str	r4, [r3, #40]	; 0x28
    a490:	e59f059c 	ldr	r0, [pc, #1436]	; aa34 <check_timings+0x2840>
    a494:	ee1f3f3c 	mrc	15, 0, r3, cr15, cr12, {1}
    a498:	e0433002 	sub	r3, r3, r2
    a49c:	e1530000 	cmp	r3, r0
    a4a0:	9afffffb 	bls	a494 <check_timings+0x22a0>
    a4a4:	ee1f2f3c 	mrc	15, 0, r2, cr15, cr12, {1}
    a4a8:	e2422010 	sub	r2, r2, #16, 0
    a4ac:	e59f3584 	ldr	r3, [pc, #1412]	; aa38 <check_timings+0x2844>
    a4b0:	e5834028 	str	r4, [r3, #40]	; 0x28
    a4b4:	e59f0578 	ldr	r0, [pc, #1400]	; aa34 <check_timings+0x2840>
    a4b8:	ee1f3f3c 	mrc	15, 0, r3, cr15, cr12, {1}
    a4bc:	e0433002 	sub	r3, r3, r2
    a4c0:	e1530000 	cmp	r3, r0
    a4c4:	9afffffb 	bls	a4b8 <check_timings+0x22c4>
    a4c8:	ee1f2f3c 	mrc	15, 0, r2, cr15, cr12, {1}
    a4cc:	e2422010 	sub	r2, r2, #16, 0
    a4d0:	e59f3560 	ldr	r3, [pc, #1376]	; aa38 <check_timings+0x2844>
    a4d4:	e5834028 	str	r4, [r3, #40]	; 0x28
    a4d8:	e59f0554 	ldr	r0, [pc, #1364]	; aa34 <check_timings+0x2840>
    a4dc:	ee1f3f3c 	mrc	15, 0, r3, cr15, cr12, {1}
    a4e0:	e0433002 	sub	r3, r3, r2
    a4e4:	e1530000 	cmp	r3, r0
    a4e8:	9afffffb 	bls	a4dc <check_timings+0x22e8>
    a4ec:	ee1f2f3c 	mrc	15, 0, r2, cr15, cr12, {1}
    a4f0:	e2422010 	sub	r2, r2, #16, 0
    a4f4:	e59f353c 	ldr	r3, [pc, #1340]	; aa38 <check_timings+0x2844>
    a4f8:	e5834028 	str	r4, [r3, #40]	; 0x28
    a4fc:	e59f0530 	ldr	r0, [pc, #1328]	; aa34 <check_timings+0x2840>
    a500:	ee1f3f3c 	mrc	15, 0, r3, cr15, cr12, {1}
    a504:	e0433002 	sub	r3, r3, r2
    a508:	e1530000 	cmp	r3, r0
    a50c:	9afffffb 	bls	a500 <check_timings+0x230c>
    a510:	ee1f2f3c 	mrc	15, 0, r2, cr15, cr12, {1}
    a514:	e2422010 	sub	r2, r2, #16, 0
    a518:	e59f3518 	ldr	r3, [pc, #1304]	; aa38 <check_timings+0x2844>
    a51c:	e5834028 	str	r4, [r3, #40]	; 0x28
    a520:	e59f050c 	ldr	r0, [pc, #1292]	; aa34 <check_timings+0x2840>
    a524:	ee1f3f3c 	mrc	15, 0, r3, cr15, cr12, {1}
    a528:	e0433002 	sub	r3, r3, r2
    a52c:	e1530000 	cmp	r3, r0
    a530:	9afffffb 	bls	a524 <check_timings+0x2330>
    a534:	ee1f2f3c 	mrc	15, 0, r2, cr15, cr12, {1}
    a538:	e2422010 	sub	r2, r2, #16, 0
    a53c:	e59f34f4 	ldr	r3, [pc, #1268]	; aa38 <check_timings+0x2844>
    a540:	e5834028 	str	r4, [r3, #40]	; 0x28
    a544:	e59f04e8 	ldr	r0, [pc, #1256]	; aa34 <check_timings+0x2840>
    a548:	ee1f3f3c 	mrc	15, 0, r3, cr15, cr12, {1}
    a54c:	e0433002 	sub	r3, r3, r2
    a550:	e1530000 	cmp	r3, r0
    a554:	9afffffb 	bls	a548 <check_timings+0x2354>
    a558:	ee1f2f3c 	mrc	15, 0, r2, cr15, cr12, {1}
    a55c:	e2422010 	sub	r2, r2, #16, 0
    a560:	e59f34d0 	ldr	r3, [pc, #1232]	; aa38 <check_timings+0x2844>
    a564:	e5834028 	str	r4, [r3, #40]	; 0x28
    a568:	e59f04c4 	ldr	r0, [pc, #1220]	; aa34 <check_timings+0x2840>
    a56c:	ee1f3f3c 	mrc	15, 0, r3, cr15, cr12, {1}
    a570:	e0433002 	sub	r3, r3, r2
    a574:	e1530000 	cmp	r3, r0
    a578:	9afffffb 	bls	a56c <check_timings+0x2378>
    a57c:	ee1f2f3c 	mrc	15, 0, r2, cr15, cr12, {1}
    a580:	e2422010 	sub	r2, r2, #16, 0
    a584:	e59f34ac 	ldr	r3, [pc, #1196]	; aa38 <check_timings+0x2844>
    a588:	e5834028 	str	r4, [r3, #40]	; 0x28
    a58c:	e59f04a0 	ldr	r0, [pc, #1184]	; aa34 <check_timings+0x2840>
    a590:	ee1f3f3c 	mrc	15, 0, r3, cr15, cr12, {1}
    a594:	e0433002 	sub	r3, r3, r2
    a598:	e1530000 	cmp	r3, r0
    a59c:	9afffffb 	bls	a590 <check_timings+0x239c>
    a5a0:	ee1f2f3c 	mrc	15, 0, r2, cr15, cr12, {1}
    a5a4:	e2422010 	sub	r2, r2, #16, 0
    a5a8:	e59f3488 	ldr	r3, [pc, #1160]	; aa38 <check_timings+0x2844>
    a5ac:	e5834028 	str	r4, [r3, #40]	; 0x28
    a5b0:	e59f047c 	ldr	r0, [pc, #1148]	; aa34 <check_timings+0x2840>
    a5b4:	ee1f3f3c 	mrc	15, 0, r3, cr15, cr12, {1}
    a5b8:	e0433002 	sub	r3, r3, r2
    a5bc:	e1530000 	cmp	r3, r0
    a5c0:	9afffffb 	bls	a5b4 <check_timings+0x23c0>
    a5c4:	ee1f2f3c 	mrc	15, 0, r2, cr15, cr12, {1}
    a5c8:	e2422010 	sub	r2, r2, #16, 0
    a5cc:	e59f3464 	ldr	r3, [pc, #1124]	; aa38 <check_timings+0x2844>
    a5d0:	e5834028 	str	r4, [r3, #40]	; 0x28
    a5d4:	e59f0458 	ldr	r0, [pc, #1112]	; aa34 <check_timings+0x2840>
    a5d8:	ee1f3f3c 	mrc	15, 0, r3, cr15, cr12, {1}
    a5dc:	e0433002 	sub	r3, r3, r2
    a5e0:	e1530000 	cmp	r3, r0
    a5e4:	9afffffb 	bls	a5d8 <check_timings+0x23e4>
    a5e8:	ee1f2f3c 	mrc	15, 0, r2, cr15, cr12, {1}
    a5ec:	e2422010 	sub	r2, r2, #16, 0
    a5f0:	e59f3440 	ldr	r3, [pc, #1088]	; aa38 <check_timings+0x2844>
    a5f4:	e5834028 	str	r4, [r3, #40]	; 0x28
    a5f8:	e59f0434 	ldr	r0, [pc, #1076]	; aa34 <check_timings+0x2840>
    a5fc:	ee1f3f3c 	mrc	15, 0, r3, cr15, cr12, {1}
    a600:	e0433002 	sub	r3, r3, r2
    a604:	e1530000 	cmp	r3, r0
    a608:	9afffffb 	bls	a5fc <check_timings+0x2408>
    a60c:	ee1f2f3c 	mrc	15, 0, r2, cr15, cr12, {1}
    a610:	e2422010 	sub	r2, r2, #16, 0
    a614:	e59f341c 	ldr	r3, [pc, #1052]	; aa38 <check_timings+0x2844>
    a618:	e5834028 	str	r4, [r3, #40]	; 0x28
    a61c:	e59f0410 	ldr	r0, [pc, #1040]	; aa34 <check_timings+0x2840>
    a620:	ee1f3f3c 	mrc	15, 0, r3, cr15, cr12, {1}
    a624:	e0433002 	sub	r3, r3, r2
    a628:	e1530000 	cmp	r3, r0
    a62c:	9afffffb 	bls	a620 <check_timings+0x242c>
    a630:	ee1f2f3c 	mrc	15, 0, r2, cr15, cr12, {1}
    a634:	e2422010 	sub	r2, r2, #16, 0
    a638:	e59f33f8 	ldr	r3, [pc, #1016]	; aa38 <check_timings+0x2844>
    a63c:	e5834028 	str	r4, [r3, #40]	; 0x28
    a640:	e59f03ec 	ldr	r0, [pc, #1004]	; aa34 <check_timings+0x2840>
    a644:	ee1f3f3c 	mrc	15, 0, r3, cr15, cr12, {1}
    a648:	e0433002 	sub	r3, r3, r2
    a64c:	e1530000 	cmp	r3, r0
    a650:	9afffffb 	bls	a644 <check_timings+0x2450>
    a654:	ee1f2f3c 	mrc	15, 0, r2, cr15, cr12, {1}
    a658:	e2422010 	sub	r2, r2, #16, 0
    a65c:	e59f33d4 	ldr	r3, [pc, #980]	; aa38 <check_timings+0x2844>
    a660:	e5834028 	str	r4, [r3, #40]	; 0x28
    a664:	e59f03c8 	ldr	r0, [pc, #968]	; aa34 <check_timings+0x2840>
    a668:	ee1f3f3c 	mrc	15, 0, r3, cr15, cr12, {1}
    a66c:	e0433002 	sub	r3, r3, r2
    a670:	e1530000 	cmp	r3, r0
    a674:	9afffffb 	bls	a668 <check_timings+0x2474>
    a678:	ee1f2f3c 	mrc	15, 0, r2, cr15, cr12, {1}
    a67c:	e2422010 	sub	r2, r2, #16, 0
    a680:	e59f33b0 	ldr	r3, [pc, #944]	; aa38 <check_timings+0x2844>
    a684:	e5834028 	str	r4, [r3, #40]	; 0x28
    a688:	e59f03a4 	ldr	r0, [pc, #932]	; aa34 <check_timings+0x2840>
    a68c:	ee1f3f3c 	mrc	15, 0, r3, cr15, cr12, {1}
    a690:	e0433002 	sub	r3, r3, r2
    a694:	e1530000 	cmp	r3, r0
    a698:	9afffffb 	bls	a68c <check_timings+0x2498>
    a69c:	ee1f2f3c 	mrc	15, 0, r2, cr15, cr12, {1}
    a6a0:	e2422010 	sub	r2, r2, #16, 0
    a6a4:	e59f338c 	ldr	r3, [pc, #908]	; aa38 <check_timings+0x2844>
    a6a8:	e5834028 	str	r4, [r3, #40]	; 0x28
    a6ac:	e59f0380 	ldr	r0, [pc, #896]	; aa34 <check_timings+0x2840>
    a6b0:	ee1f3f3c 	mrc	15, 0, r3, cr15, cr12, {1}
    a6b4:	e0433002 	sub	r3, r3, r2
    a6b8:	e1530000 	cmp	r3, r0
    a6bc:	9afffffb 	bls	a6b0 <check_timings+0x24bc>
    a6c0:	ee1f2f3c 	mrc	15, 0, r2, cr15, cr12, {1}
    a6c4:	e2422010 	sub	r2, r2, #16, 0
    a6c8:	e59f3368 	ldr	r3, [pc, #872]	; aa38 <check_timings+0x2844>
    a6cc:	e5834028 	str	r4, [r3, #40]	; 0x28
    a6d0:	e59f035c 	ldr	r0, [pc, #860]	; aa34 <check_timings+0x2840>
    a6d4:	ee1f3f3c 	mrc	15, 0, r3, cr15, cr12, {1}
    a6d8:	e0433002 	sub	r3, r3, r2
    a6dc:	e1530000 	cmp	r3, r0
    a6e0:	9afffffb 	bls	a6d4 <check_timings+0x24e0>
    a6e4:	ee1f2f3c 	mrc	15, 0, r2, cr15, cr12, {1}
    a6e8:	e2422010 	sub	r2, r2, #16, 0
    a6ec:	e59f3344 	ldr	r3, [pc, #836]	; aa38 <check_timings+0x2844>
    a6f0:	e5834028 	str	r4, [r3, #40]	; 0x28
    a6f4:	e59f0338 	ldr	r0, [pc, #824]	; aa34 <check_timings+0x2840>
    a6f8:	ee1f3f3c 	mrc	15, 0, r3, cr15, cr12, {1}
    a6fc:	e0433002 	sub	r3, r3, r2
    a700:	e1530000 	cmp	r3, r0
    a704:	9afffffb 	bls	a6f8 <check_timings+0x2504>
    a708:	ee1f2f3c 	mrc	15, 0, r2, cr15, cr12, {1}
    a70c:	e2422010 	sub	r2, r2, #16, 0
    a710:	e59f3320 	ldr	r3, [pc, #800]	; aa38 <check_timings+0x2844>
    a714:	e5834028 	str	r4, [r3, #40]	; 0x28
    a718:	e59f0314 	ldr	r0, [pc, #788]	; aa34 <check_timings+0x2840>
    a71c:	ee1f3f3c 	mrc	15, 0, r3, cr15, cr12, {1}
    a720:	e0433002 	sub	r3, r3, r2
    a724:	e1530000 	cmp	r3, r0
    a728:	9afffffb 	bls	a71c <check_timings+0x2528>
    a72c:	ee1f2f3c 	mrc	15, 0, r2, cr15, cr12, {1}
    a730:	e2422010 	sub	r2, r2, #16, 0
    a734:	e59f32fc 	ldr	r3, [pc, #764]	; aa38 <check_timings+0x2844>
    a738:	e5834028 	str	r4, [r3, #40]	; 0x28
    a73c:	e59f02f0 	ldr	r0, [pc, #752]	; aa34 <check_timings+0x2840>
    a740:	ee1f3f3c 	mrc	15, 0, r3, cr15, cr12, {1}
    a744:	e0433002 	sub	r3, r3, r2
    a748:	e1530000 	cmp	r3, r0
    a74c:	9afffffb 	bls	a740 <check_timings+0x254c>
    a750:	ee1f2f3c 	mrc	15, 0, r2, cr15, cr12, {1}
    a754:	e2422010 	sub	r2, r2, #16, 0
    a758:	e59f32d8 	ldr	r3, [pc, #728]	; aa38 <check_timings+0x2844>
    a75c:	e5834028 	str	r4, [r3, #40]	; 0x28
    a760:	e59f02cc 	ldr	r0, [pc, #716]	; aa34 <check_timings+0x2840>
    a764:	ee1f3f3c 	mrc	15, 0, r3, cr15, cr12, {1}
    a768:	e0433002 	sub	r3, r3, r2
    a76c:	e1530000 	cmp	r3, r0
    a770:	9afffffb 	bls	a764 <check_timings+0x2570>
    a774:	ee1f2f3c 	mrc	15, 0, r2, cr15, cr12, {1}
    a778:	e2422010 	sub	r2, r2, #16, 0
    a77c:	e59f32b4 	ldr	r3, [pc, #692]	; aa38 <check_timings+0x2844>
    a780:	e5834028 	str	r4, [r3, #40]	; 0x28
    a784:	e59f02a8 	ldr	r0, [pc, #680]	; aa34 <check_timings+0x2840>
    a788:	ee1f3f3c 	mrc	15, 0, r3, cr15, cr12, {1}
    a78c:	e0433002 	sub	r3, r3, r2
    a790:	e1530000 	cmp	r3, r0
    a794:	9afffffb 	bls	a788 <check_timings+0x2594>
    a798:	ee1f2f3c 	mrc	15, 0, r2, cr15, cr12, {1}
    a79c:	e2422010 	sub	r2, r2, #16, 0
    a7a0:	e59f3290 	ldr	r3, [pc, #656]	; aa38 <check_timings+0x2844>
    a7a4:	e5834028 	str	r4, [r3, #40]	; 0x28
    a7a8:	e59f0284 	ldr	r0, [pc, #644]	; aa34 <check_timings+0x2840>
    a7ac:	ee1f3f3c 	mrc	15, 0, r3, cr15, cr12, {1}
    a7b0:	e0433002 	sub	r3, r3, r2
    a7b4:	e1530000 	cmp	r3, r0
    a7b8:	9afffffb 	bls	a7ac <check_timings+0x25b8>
    a7bc:	ee1f2f3c 	mrc	15, 0, r2, cr15, cr12, {1}
    a7c0:	e2422010 	sub	r2, r2, #16, 0
    a7c4:	e59f326c 	ldr	r3, [pc, #620]	; aa38 <check_timings+0x2844>
    a7c8:	e5834028 	str	r4, [r3, #40]	; 0x28
    a7cc:	e59f0260 	ldr	r0, [pc, #608]	; aa34 <check_timings+0x2840>
    a7d0:	ee1f3f3c 	mrc	15, 0, r3, cr15, cr12, {1}
    a7d4:	e0433002 	sub	r3, r3, r2
    a7d8:	e1530000 	cmp	r3, r0
    a7dc:	9afffffb 	bls	a7d0 <check_timings+0x25dc>
    a7e0:	ee1f2f3c 	mrc	15, 0, r2, cr15, cr12, {1}
    a7e4:	e2422010 	sub	r2, r2, #16, 0
    a7e8:	e59f3248 	ldr	r3, [pc, #584]	; aa38 <check_timings+0x2844>
    a7ec:	e5834028 	str	r4, [r3, #40]	; 0x28
    a7f0:	e59f023c 	ldr	r0, [pc, #572]	; aa34 <check_timings+0x2840>
    a7f4:	ee1f3f3c 	mrc	15, 0, r3, cr15, cr12, {1}
    a7f8:	e0433002 	sub	r3, r3, r2
    a7fc:	e1530000 	cmp	r3, r0
    a800:	9afffffb 	bls	a7f4 <check_timings+0x2600>
    a804:	ee1f3f3c 	mrc	15, 0, r3, cr15, cr12, {1}
    a808:	e2433010 	sub	r3, r3, #16, 0
    a80c:	e59f2224 	ldr	r2, [pc, #548]	; aa38 <check_timings+0x2844>
    a810:	e5824028 	str	r4, [r2, #40]	; 0x28
    a814:	e59f0218 	ldr	r0, [pc, #536]	; aa34 <check_timings+0x2840>
    a818:	ee1f2f3c 	mrc	15, 0, r2, cr15, cr12, {1}
    a81c:	e0422003 	sub	r2, r2, r3
    a820:	e1520000 	cmp	r2, r0
    a824:	9afffffb 	bls	a818 <check_timings+0x2624>
    a828:	ee1f3f3c 	mrc	15, 0, r3, cr15, cr12, {1}
    a82c:	e2433010 	sub	r3, r3, #16, 0
    a830:	e59f2200 	ldr	r2, [pc, #512]	; aa38 <check_timings+0x2844>
    a834:	e5824028 	str	r4, [r2, #40]	; 0x28
    a838:	e59f01f4 	ldr	r0, [pc, #500]	; aa34 <check_timings+0x2840>
    a83c:	ee1f2f3c 	mrc	15, 0, r2, cr15, cr12, {1}
    a840:	e0422003 	sub	r2, r2, r3
    a844:	e1520000 	cmp	r2, r0
    a848:	9afffffb 	bls	a83c <check_timings+0x2648>
    a84c:	ee1f3f3c 	mrc	15, 0, r3, cr15, cr12, {1}
    a850:	e2433010 	sub	r3, r3, #16, 0
    a854:	e59f21dc 	ldr	r2, [pc, #476]	; aa38 <check_timings+0x2844>
    a858:	e5824028 	str	r4, [r2, #40]	; 0x28
    a85c:	e59f01d0 	ldr	r0, [pc, #464]	; aa34 <check_timings+0x2840>
    a860:	ee1f2f3c 	mrc	15, 0, r2, cr15, cr12, {1}
    a864:	e0422003 	sub	r2, r2, r3
    a868:	e1520000 	cmp	r2, r0
    a86c:	9afffffb 	bls	a860 <check_timings+0x266c>
    a870:	ee1f3f3c 	mrc	15, 0, r3, cr15, cr12, {1}
    a874:	e2433010 	sub	r3, r3, #16, 0
    a878:	e59f21b8 	ldr	r2, [pc, #440]	; aa38 <check_timings+0x2844>
    a87c:	e5824028 	str	r4, [r2, #40]	; 0x28
    a880:	e59f01ac 	ldr	r0, [pc, #428]	; aa34 <check_timings+0x2840>
    a884:	ee1f2f3c 	mrc	15, 0, r2, cr15, cr12, {1}
    a888:	e0422003 	sub	r2, r2, r3
    a88c:	e1520000 	cmp	r2, r0
    a890:	9afffffb 	bls	a884 <check_timings+0x2690>
    a894:	ee1f3f3c 	mrc	15, 0, r3, cr15, cr12, {1}
    a898:	e2433010 	sub	r3, r3, #16, 0
    a89c:	e59f2194 	ldr	r2, [pc, #404]	; aa38 <check_timings+0x2844>
    a8a0:	e5824028 	str	r4, [r2, #40]	; 0x28
    a8a4:	e59f0188 	ldr	r0, [pc, #392]	; aa34 <check_timings+0x2840>
    a8a8:	ee1f2f3c 	mrc	15, 0, r2, cr15, cr12, {1}
    a8ac:	e0422003 	sub	r2, r2, r3
    a8b0:	e1520000 	cmp	r2, r0
    a8b4:	9afffffb 	bls	a8a8 <check_timings+0x26b4>
    a8b8:	ee1f3f3c 	mrc	15, 0, r3, cr15, cr12, {1}
    a8bc:	e2433010 	sub	r3, r3, #16, 0
    a8c0:	e59f2170 	ldr	r2, [pc, #368]	; aa38 <check_timings+0x2844>
    a8c4:	e5824028 	str	r4, [r2, #40]	; 0x28
    a8c8:	e59f0164 	ldr	r0, [pc, #356]	; aa34 <check_timings+0x2840>
    a8cc:	ee1f2f3c 	mrc	15, 0, r2, cr15, cr12, {1}
    a8d0:	e0422003 	sub	r2, r2, r3
    a8d4:	e1520000 	cmp	r2, r0
    a8d8:	9afffffb 	bls	a8cc <check_timings+0x26d8>
    a8dc:	e59f3158 	ldr	r3, [pc, #344]	; aa3c <check_timings+0x2848>
    a8e0:	e5933004 	ldr	r3, [r3, #4]
    a8e4:	e0433001 	sub	r3, r3, r1
    a8e8:	e0632283 	rsb	r2, r3, r3, lsl #5
    a8ec:	e0833102 	add	r3, r3, r2, lsl #2
    a8f0:	e1a03183 	lsl	r3, r3, #3
    a8f4:	e59f2144 	ldr	r2, [pc, #324]	; aa40 <check_timings+0x284c>
    a8f8:	e0832392 	umull	r2, r3, r2, r3
    a8fc:	e1a03223 	lsr	r3, r3, #4
    a900:	e59f213c 	ldr	r2, [pc, #316]	; aa44 <check_timings+0x2850>
    a904:	e59f113c 	ldr	r1, [pc, #316]	; aa48 <check_timings+0x2854>
    a908:	e59f013c 	ldr	r0, [pc, #316]	; aa4c <check_timings+0x2858>
    a90c:	eb0001cd 	bl	b048 <printk>
    a910:	e28dd010 	add	sp, sp, #16, 0
    a914:	e8bd87f0 	pop	{r4, r5, r6, r7, r8, r9, sl, pc}
    a918:	e59f3130 	ldr	r3, [pc, #304]	; aa50 <check_timings+0x285c>
    a91c:	e58d3000 	str	r3, [sp]
    a920:	e3a03087 	mov	r3, #135, 0	; 0x87
    a924:	e59f2128 	ldr	r2, [pc, #296]	; aa54 <check_timings+0x2860>
    a928:	e59f1128 	ldr	r1, [pc, #296]	; aa58 <check_timings+0x2864>
    a92c:	e59f0128 	ldr	r0, [pc, #296]	; aa5c <check_timings+0x2868>
    a930:	eb0001c4 	bl	b048 <printk>
    a934:	eb0002dd 	bl	b4b0 <clean_reboot>
    a938:	e59f3120 	ldr	r3, [pc, #288]	; aa60 <check_timings+0x286c>
    a93c:	e58d3000 	str	r3, [sp]
    a940:	e3a03093 	mov	r3, #147, 0	; 0x93
    a944:	e59f2108 	ldr	r2, [pc, #264]	; aa54 <check_timings+0x2860>
    a948:	e59f1108 	ldr	r1, [pc, #264]	; aa58 <check_timings+0x2864>
    a94c:	e59f0108 	ldr	r0, [pc, #264]	; aa5c <check_timings+0x2868>
    a950:	eb0001bc 	bl	b048 <printk>
    a954:	eb0002d5 	bl	b4b0 <clean_reboot>
    a958:	e58d3008 	str	r3, [sp, #8]
    a95c:	e59f3100 	ldr	r3, [pc, #256]	; aa64 <check_timings+0x2870>
    a960:	e58d3004 	str	r3, [sp, #4]
    a964:	e59f30fc 	ldr	r3, [pc, #252]	; aa68 <check_timings+0x2874>
    a968:	e58d3000 	str	r3, [sp]
    a96c:	e3a0302c 	mov	r3, #44, 0	; 0x2c
    a970:	e59f20f4 	ldr	r2, [pc, #244]	; aa6c <check_timings+0x2878>
    a974:	e59f10dc 	ldr	r1, [pc, #220]	; aa58 <check_timings+0x2864>
    a978:	e59f00f0 	ldr	r0, [pc, #240]	; aa70 <check_timings+0x287c>
    a97c:	eb0001b1 	bl	b048 <printk>
    a980:	eb0002ca 	bl	b4b0 <clean_reboot>
    a984:	e58d3008 	str	r3, [sp, #8]
    a988:	e59f30d4 	ldr	r3, [pc, #212]	; aa64 <check_timings+0x2870>
    a98c:	e58d3004 	str	r3, [sp, #4]
    a990:	e59f30d0 	ldr	r3, [pc, #208]	; aa68 <check_timings+0x2874>
    a994:	e58d3000 	str	r3, [sp]
    a998:	e3a0302c 	mov	r3, #44, 0	; 0x2c
    a99c:	e59f20c8 	ldr	r2, [pc, #200]	; aa6c <check_timings+0x2878>
    a9a0:	e59f10b0 	ldr	r1, [pc, #176]	; aa58 <check_timings+0x2864>
    a9a4:	e59f00c4 	ldr	r0, [pc, #196]	; aa70 <check_timings+0x287c>
    a9a8:	eb0001a6 	bl	b048 <printk>
    a9ac:	eb0002bf 	bl	b4b0 <clean_reboot>
    a9b0:	e58d3008 	str	r3, [sp, #8]
    a9b4:	e59f30a8 	ldr	r3, [pc, #168]	; aa64 <check_timings+0x2870>
    a9b8:	e58d3004 	str	r3, [sp, #4]
    a9bc:	e59f30a4 	ldr	r3, [pc, #164]	; aa68 <check_timings+0x2874>
    a9c0:	e58d3000 	str	r3, [sp]
    a9c4:	e3a0302c 	mov	r3, #44, 0	; 0x2c
    a9c8:	e59f209c 	ldr	r2, [pc, #156]	; aa6c <check_timings+0x2878>
    a9cc:	e59f1084 	ldr	r1, [pc, #132]	; aa58 <check_timings+0x2864>
    a9d0:	e59f0098 	ldr	r0, [pc, #152]	; aa70 <check_timings+0x287c>
    a9d4:	eb00019b 	bl	b048 <printk>
    a9d8:	eb0002b4 	bl	b4b0 <clean_reboot>
    a9dc:	e58d3008 	str	r3, [sp, #8]
    a9e0:	e59f307c 	ldr	r3, [pc, #124]	; aa64 <check_timings+0x2870>
    a9e4:	e58d3004 	str	r3, [sp, #4]
    a9e8:	e59f3078 	ldr	r3, [pc, #120]	; aa68 <check_timings+0x2874>
    a9ec:	e58d3000 	str	r3, [sp]
    a9f0:	e3a0302c 	mov	r3, #44, 0	; 0x2c
    a9f4:	e59f2070 	ldr	r2, [pc, #112]	; aa6c <check_timings+0x2878>
    a9f8:	e59f1058 	ldr	r1, [pc, #88]	; aa58 <check_timings+0x2864>
    a9fc:	e59f006c 	ldr	r0, [pc, #108]	; aa70 <check_timings+0x287c>
    aa00:	eb000190 	bl	b048 <printk>
    aa04:	eb0002a9 	bl	b4b0 <clean_reboot>
    aa08:	e58d3008 	str	r3, [sp, #8]
    aa0c:	e59f3050 	ldr	r3, [pc, #80]	; aa64 <check_timings+0x2870>
    aa10:	e58d3004 	str	r3, [sp, #4]
    aa14:	e59f304c 	ldr	r3, [pc, #76]	; aa68 <check_timings+0x2874>
    aa18:	e58d3000 	str	r3, [sp]
    aa1c:	e3a0302c 	mov	r3, #44, 0	; 0x2c
    aa20:	e59f2044 	ldr	r2, [pc, #68]	; aa6c <check_timings+0x2878>
    aa24:	e59f102c 	ldr	r1, [pc, #44]	; aa58 <check_timings+0x2864>
    aa28:	e59f0040 	ldr	r0, [pc, #64]	; aa70 <check_timings+0x287c>
    aa2c:	eb000185 	bl	b048 <printk>
    aa30:	eb00029e 	bl	b4b0 <clean_reboot>
    aa34:	0000a40f 	.word	0x0000a40f
    aa38:	20200000 	.word	0x20200000
    aa3c:	20003000 	.word	0x20003000
    aa40:	51eb851f 	.word	0x51eb851f
    aa44:	0000c350 	.word	0x0000c350
    aa48:	0000becc 	.word	0x0000becc
    aa4c:	0000bdc0 	.word	0x0000bdc0
    aa50:	0000bd8c 	.word	0x0000bd8c
    aa54:	0000bf3c 	.word	0x0000bf3c
    aa58:	0000bcbc 	.word	0x0000bcbc
    aa5c:	0000bd5c 	.word	0x0000bd5c
    aa60:	0000be24 	.word	0x0000be24
    aa64:	0000be70 	.word	0x0000be70
    aa68:	0000be88 	.word	0x0000be88
    aa6c:	0000bf4c 	.word	0x0000bf4c
    aa70:	0000be40 	.word	0x0000be40

0000aa74 <notmain>:
    aa74:	e92d4010 	push	{r4, lr}
    aa78:	eb000279 	bl	b464 <caches_enable>
    aa7c:	e3a0000b 	mov	r0, #11, 0
    aa80:	eb00010e 	bl	aec0 <gpio_set_output>
    aa84:	e3a00ffa 	mov	r0, #1000	; 0x3e8
    aa88:	ebfff5ae 	bl	8148 <check_delay>
    aa8c:	e3a00064 	mov	r0, #100, 0	; 0x64
    aa90:	ebfff5ac 	bl	8148 <check_delay>
    aa94:	e3a0000a 	mov	r0, #10, 0
    aa98:	ebfff5aa 	bl	8148 <check_delay>
    aa9c:	e3a00001 	mov	r0, #1, 0
    aaa0:	ebfff5a8 	bl	8148 <check_delay>
    aaa4:	e59f0038 	ldr	r0, [pc, #56]	; aae4 <notmain+0x70>
    aaa8:	eb000166 	bl	b048 <printk>
    aaac:	e3a01000 	mov	r1, #0, 0
    aab0:	e3a0000b 	mov	r0, #11, 0
    aab4:	ebfff5ce 	bl	81f4 <check_timings>
    aab8:	e59f0028 	ldr	r0, [pc, #40]	; aae8 <notmain+0x74>
    aabc:	eb000161 	bl	b048 <printk>
    aac0:	e3a01001 	mov	r1, #1, 0
    aac4:	e3a0000b 	mov	r0, #11, 0
    aac8:	ebfff5c9 	bl	81f4 <check_timings>
    aacc:	e59f1018 	ldr	r1, [pc, #24]	; aaec <notmain+0x78>
    aad0:	e59f0018 	ldr	r0, [pc, #24]	; aaf0 <notmain+0x7c>
    aad4:	eb00015b 	bl	b048 <printk>
    aad8:	e59f0014 	ldr	r0, [pc, #20]	; aaf4 <notmain+0x80>
    aadc:	eb000159 	bl	b048 <printk>
    aae0:	e8bd8010 	pop	{r4, pc}
    aae4:	0000bed4 	.word	0x0000bed4
    aae8:	0000bef4 	.word	0x0000bef4
    aaec:	0000bf58 	.word	0x0000bf58
    aaf0:	0000bf18 	.word	0x0000bf18
    aaf4:	0000bf24 	.word	0x0000bf24

0000aaf8 <pix_sendbyte>:
    aaf8:	e92d4010 	push	{r4, lr}
    aafc:	e3a03001 	mov	r3, #1, 0
    ab00:	e1a00013 	lsl	r0, r3, r0
    ab04:	e3a02007 	mov	r2, #7, 0
    ab08:	e59f4094 	ldr	r4, [pc, #148]	; aba4 <pix_sendbyte+0xac>
    ab0c:	e59fe094 	ldr	lr, [pc, #148]	; aba8 <pix_sendbyte+0xb0>
    ab10:	ea00000d 	b	ab4c <pix_sendbyte+0x54>
    ab14:	ee1f3f3c 	mrc	15, 0, r3, cr15, cr12, {1}
    ab18:	e043300c 	sub	r3, r3, ip
    ab1c:	e35300e4 	cmp	r3, #228, 0	; 0xe4
    ab20:	9afffffb 	bls	ab14 <pix_sendbyte+0x1c>
    ab24:	ee1fcf3c 	mrc	15, 0, ip, cr15, cr12, {1}
    ab28:	e24cc010 	sub	ip, ip, #16, 0
    ab2c:	e5840028 	str	r0, [r4, #40]	; 0x28
    ab30:	ee1f3f3c 	mrc	15, 0, r3, cr15, cr12, {1}
    ab34:	e043300c 	sub	r3, r3, ip
    ab38:	e153000e 	cmp	r3, lr
    ab3c:	9afffffb 	bls	ab30 <pix_sendbyte+0x38>
    ab40:	e2422001 	sub	r2, r2, #1, 0
    ab44:	e3720001 	cmn	r2, #1, 0
    ab48:	08bd8010 	popeq	{r4, pc}
    ab4c:	e1a03251 	asr	r3, r1, r2
    ab50:	e3130001 	tst	r3, #1, 0
    ab54:	1a000003 	bne	ab68 <pix_sendbyte+0x70>
    ab58:	ee1fcf3c 	mrc	15, 0, ip, cr15, cr12, {1}
    ab5c:	e24cc010 	sub	ip, ip, #16, 0
    ab60:	e584001c 	str	r0, [r4, #28]
    ab64:	eaffffea 	b	ab14 <pix_sendbyte+0x1c>
    ab68:	ee1fcf3c 	mrc	15, 0, ip, cr15, cr12, {1}
    ab6c:	e24cc010 	sub	ip, ip, #16, 0
    ab70:	e584001c 	str	r0, [r4, #28]
    ab74:	ee1f3f3c 	mrc	15, 0, r3, cr15, cr12, {1}
    ab78:	e043300c 	sub	r3, r3, ip
    ab7c:	e153000e 	cmp	r3, lr
    ab80:	9afffffb 	bls	ab74 <pix_sendbyte+0x7c>
    ab84:	ee1fcf3c 	mrc	15, 0, ip, cr15, cr12, {1}
    ab88:	e24cc010 	sub	ip, ip, #16, 0
    ab8c:	e5840028 	str	r0, [r4, #40]	; 0x28
    ab90:	ee1f3f3c 	mrc	15, 0, r3, cr15, cr12, {1}
    ab94:	e043300c 	sub	r3, r3, ip
    ab98:	e35300e4 	cmp	r3, #228, 0	; 0xe4
    ab9c:	9afffffb 	bls	ab90 <pix_sendbyte+0x98>
    aba0:	eaffffe6 	b	ab40 <pix_sendbyte+0x48>
    aba4:	20200000 	.word	0x20200000
    aba8:	00000265 	.word	0x00000265

0000abac <neopix_flush>:
    abac:	e92d47f0 	push	{r4, r5, r6, r7, r8, r9, sl, lr}
    abb0:	e1a05000 	mov	r5, r0
    abb4:	e5903004 	ldr	r3, [r0, #4]
    abb8:	e3530000 	cmp	r3, #0, 0
    abbc:	0a000012 	beq	ac0c <neopix_flush+0x60>
    abc0:	e1a04000 	mov	r4, r0
    abc4:	e3a07000 	mov	r7, #0, 0
    abc8:	e5d56000 	ldrb	r6, [r5]
    abcc:	e5d49008 	ldrb	r9, [r4, #8]
    abd0:	e5d4800a 	ldrb	r8, [r4, #10]
    abd4:	e5d41009 	ldrb	r1, [r4, #9]
    abd8:	e1a00006 	mov	r0, r6
    abdc:	ebffffc5 	bl	aaf8 <pix_sendbyte>
    abe0:	e1a01009 	mov	r1, r9
    abe4:	e1a00006 	mov	r0, r6
    abe8:	ebffffc2 	bl	aaf8 <pix_sendbyte>
    abec:	e1a01008 	mov	r1, r8
    abf0:	e1a00006 	mov	r0, r6
    abf4:	ebffffbf 	bl	aaf8 <pix_sendbyte>
    abf8:	e2877001 	add	r7, r7, #1, 0
    abfc:	e2844003 	add	r4, r4, #3, 0
    ac00:	e5953004 	ldr	r3, [r5, #4]
    ac04:	e1530007 	cmp	r3, r7
    ac08:	8affffee 	bhi	abc8 <neopix_flush+0x1c>
    ac0c:	ee1f2f3c 	mrc	15, 0, r2, cr15, cr12, {1}
    ac10:	e2422010 	sub	r2, r2, #16, 0
    ac14:	e5d51000 	ldrb	r1, [r5]
    ac18:	e3a03001 	mov	r3, #1, 0
    ac1c:	e1a03113 	lsl	r3, r3, r1
    ac20:	e59f104c 	ldr	r1, [pc, #76]	; ac74 <neopix_flush+0xc8>
    ac24:	e5813028 	str	r3, [r1, #40]	; 0x28
    ac28:	e59f1048 	ldr	r1, [pc, #72]	; ac78 <neopix_flush+0xcc>
    ac2c:	ee1f3f3c 	mrc	15, 0, r3, cr15, cr12, {1}
    ac30:	e0433002 	sub	r3, r3, r2
    ac34:	e1530001 	cmp	r3, r1
    ac38:	9afffffb 	bls	ac2c <neopix_flush+0x80>
    ac3c:	e5952004 	ldr	r2, [r5, #4]
    ac40:	e3520000 	cmp	r2, #0, 0
    ac44:	08bd87f0 	popeq	{r4, r5, r6, r7, r8, r9, sl, pc}
    ac48:	e1a03005 	mov	r3, r5
    ac4c:	e0822082 	add	r2, r2, r2, lsl #1
    ac50:	e0855002 	add	r5, r5, r2
    ac54:	e3a02000 	mov	r2, #0, 0
    ac58:	e5c32008 	strb	r2, [r3, #8]
    ac5c:	e5c32009 	strb	r2, [r3, #9]
    ac60:	e5c3200a 	strb	r2, [r3, #10]
    ac64:	e2833003 	add	r3, r3, #3, 0
    ac68:	e1550003 	cmp	r5, r3
    ac6c:	1afffff9 	bne	ac58 <neopix_flush+0xac>
    ac70:	e8bd87f0 	pop	{r4, r5, r6, r7, r8, r9, sl, pc}
    ac74:	20200000 	.word	0x20200000
    ac78:	0000a40f 	.word	0x0000a40f

0000ac7c <neopix_flush_up_to_keep>:
    ac7c:	e92d47f0 	push	{r4, r5, r6, r7, r8, r9, sl, lr}
    ac80:	e1a06000 	mov	r6, r0
    ac84:	e1a04001 	mov	r4, r1
    ac88:	e5903004 	ldr	r3, [r0, #4]
    ac8c:	e3530000 	cmp	r3, #0, 0
    ac90:	0a000012 	beq	ace0 <neopix_flush_up_to_keep+0x64>
    ac94:	e1a05000 	mov	r5, r0
    ac98:	e3a08000 	mov	r8, #0, 0
    ac9c:	e5d67000 	ldrb	r7, [r6]
    aca0:	e5d5a008 	ldrb	sl, [r5, #8]
    aca4:	e5d5900a 	ldrb	r9, [r5, #10]
    aca8:	e5d51009 	ldrb	r1, [r5, #9]
    acac:	e1a00007 	mov	r0, r7
    acb0:	ebffff90 	bl	aaf8 <pix_sendbyte>
    acb4:	e1a0100a 	mov	r1, sl
    acb8:	e1a00007 	mov	r0, r7
    acbc:	ebffff8d 	bl	aaf8 <pix_sendbyte>
    acc0:	e1a01009 	mov	r1, r9
    acc4:	e1a00007 	mov	r0, r7
    acc8:	ebffff8a 	bl	aaf8 <pix_sendbyte>
    accc:	e2888001 	add	r8, r8, #1, 0
    acd0:	e2855003 	add	r5, r5, #3, 0
    acd4:	e5963004 	ldr	r3, [r6, #4]
    acd8:	e1530008 	cmp	r3, r8
    acdc:	8affffee 	bhi	ac9c <neopix_flush_up_to_keep+0x20>
    ace0:	ee1f2f3c 	mrc	15, 0, r2, cr15, cr12, {1}
    ace4:	e2422010 	sub	r2, r2, #16, 0
    ace8:	e5d61000 	ldrb	r1, [r6]
    acec:	e3a03001 	mov	r3, #1, 0
    acf0:	e1a03113 	lsl	r3, r3, r1
    acf4:	e59f1050 	ldr	r1, [pc, #80]	; ad4c <neopix_flush_up_to_keep+0xd0>
    acf8:	e5813028 	str	r3, [r1, #40]	; 0x28
    acfc:	e59f104c 	ldr	r1, [pc, #76]	; ad50 <neopix_flush_up_to_keep+0xd4>
    ad00:	ee1f3f3c 	mrc	15, 0, r3, cr15, cr12, {1}
    ad04:	e0433002 	sub	r3, r3, r2
    ad08:	e1530001 	cmp	r3, r1
    ad0c:	9afffffb 	bls	ad00 <neopix_flush_up_to_keep+0x84>
    ad10:	e5962004 	ldr	r2, [r6, #4]
    ad14:	e1540002 	cmp	r4, r2
    ad18:	28bd87f0 	popcs	{r4, r5, r6, r7, r8, r9, sl, pc}
    ad1c:	e0844084 	add	r4, r4, r4, lsl #1
    ad20:	e0863004 	add	r3, r6, r4
    ad24:	e0822082 	add	r2, r2, r2, lsl #1
    ad28:	e0866002 	add	r6, r6, r2
    ad2c:	e3a02000 	mov	r2, #0, 0
    ad30:	e5c32008 	strb	r2, [r3, #8]
    ad34:	e5c32009 	strb	r2, [r3, #9]
    ad38:	e5c3200a 	strb	r2, [r3, #10]
    ad3c:	e2833003 	add	r3, r3, #3, 0
    ad40:	e1530006 	cmp	r3, r6
    ad44:	1afffff9 	bne	ad30 <neopix_flush_up_to_keep+0xb4>
    ad48:	e8bd87f0 	pop	{r4, r5, r6, r7, r8, r9, sl, pc}
    ad4c:	20200000 	.word	0x20200000
    ad50:	0000a40f 	.word	0x0000a40f

0000ad54 <neopix_init>:
    ad54:	e92d41f0 	push	{r4, r5, r6, r7, r8, lr}
    ad58:	e1a06000 	mov	r6, r0
    ad5c:	e1a05001 	mov	r5, r1
    ad60:	e0817081 	add	r7, r1, r1, lsl #1
    ad64:	e2877008 	add	r7, r7, #8, 0
    ad68:	e1a00007 	mov	r0, r7
    ad6c:	eb0002ac 	bl	b824 <kmalloc>
    ad70:	e1a04000 	mov	r4, r0
    ad74:	e1a02007 	mov	r2, r7
    ad78:	e3a01000 	mov	r1, #0, 0
    ad7c:	eb00007e 	bl	af7c <memset>
    ad80:	e5845004 	str	r5, [r4, #4]
    ad84:	e5c46000 	strb	r6, [r4]
    ad88:	e1a00006 	mov	r0, r6
    ad8c:	eb00004b 	bl	aec0 <gpio_set_output>
    ad90:	e1a00004 	mov	r0, r4
    ad94:	e8bd81f0 	pop	{r4, r5, r6, r7, r8, pc}

0000ad98 <neopix_sendpixel>:
    ad98:	e92d4070 	push	{r4, r5, r6, lr}
    ad9c:	e1a06001 	mov	r6, r1
    ada0:	e1a05003 	mov	r5, r3
    ada4:	e5d04000 	ldrb	r4, [r0]
    ada8:	e1a01002 	mov	r1, r2
    adac:	e1a00004 	mov	r0, r4
    adb0:	ebffff50 	bl	aaf8 <pix_sendbyte>
    adb4:	e1a01006 	mov	r1, r6
    adb8:	e1a00004 	mov	r0, r4
    adbc:	ebffff4d 	bl	aaf8 <pix_sendbyte>
    adc0:	e1a01005 	mov	r1, r5
    adc4:	e1a00004 	mov	r0, r4
    adc8:	ebffff4a 	bl	aaf8 <pix_sendbyte>
    adcc:	e8bd8070 	pop	{r4, r5, r6, pc}

0000add0 <neopix_fast_clear>:
    add0:	e92d41f0 	push	{r4, r5, r6, r7, r8, lr}
    add4:	e1a08000 	mov	r8, r0
    add8:	e2517000 	subs	r7, r1, #0, 0
    addc:	0a00000e 	beq	ae1c <neopix_fast_clear+0x4c>
    ade0:	e3a06000 	mov	r6, #0, 0
    ade4:	e1a05006 	mov	r5, r6
    ade8:	e5d84000 	ldrb	r4, [r8]
    adec:	e1a01005 	mov	r1, r5
    adf0:	e1a00004 	mov	r0, r4
    adf4:	ebffff3f 	bl	aaf8 <pix_sendbyte>
    adf8:	e1a01005 	mov	r1, r5
    adfc:	e1a00004 	mov	r0, r4
    ae00:	ebffff3c 	bl	aaf8 <pix_sendbyte>
    ae04:	e1a01005 	mov	r1, r5
    ae08:	e1a00004 	mov	r0, r4
    ae0c:	ebffff39 	bl	aaf8 <pix_sendbyte>
    ae10:	e2866001 	add	r6, r6, #1, 0
    ae14:	e1570006 	cmp	r7, r6
    ae18:	1afffff2 	bne	ade8 <neopix_fast_clear+0x18>
    ae1c:	e1a00008 	mov	r0, r8
    ae20:	ebffff61 	bl	abac <neopix_flush>
    ae24:	e8bd81f0 	pop	{r4, r5, r6, r7, r8, pc}

0000ae28 <neopix_clear>:
    ae28:	e92d4010 	push	{r4, lr}
    ae2c:	e5901004 	ldr	r1, [r0, #4]
    ae30:	ebffffe6 	bl	add0 <neopix_fast_clear>
    ae34:	e8bd8010 	pop	{r4, pc}

0000ae38 <neopix_write>:
    ae38:	e590c004 	ldr	ip, [r0, #4]
    ae3c:	e15c0001 	cmp	ip, r1
    ae40:	312fff1e 	bxcc	lr
    ae44:	e0811081 	add	r1, r1, r1, lsl #1
    ae48:	e0800001 	add	r0, r0, r1
    ae4c:	e5c02008 	strb	r2, [r0, #8]
    ae50:	e5c03009 	strb	r3, [r0, #9]
    ae54:	e5dd3000 	ldrb	r3, [sp]
    ae58:	e5c0300a 	strb	r3, [r0, #10]
    ae5c:	e12fff1e 	bx	lr

0000ae60 <gpio_set_function>:
    ae60:	e350001f 	cmp	r0, #31, 0
    ae64:	812fff1e 	bxhi	lr
    ae68:	e92d4070 	push	{r4, r5, r6, lr}
    ae6c:	e1a06001 	mov	r6, r1
    ae70:	e3510007 	cmp	r1, #7, 0
    ae74:	88bd8070 	pophi	{r4, r5, r6, pc}
    ae78:	e59f303c 	ldr	r3, [pc, #60]	; aebc <gpio_set_function+0x5c>
    ae7c:	e0832093 	umull	r2, r3, r3, r0
    ae80:	e1a031a3 	lsr	r3, r3, #3
    ae84:	e0834103 	add	r4, r3, r3, lsl #2
    ae88:	e0404084 	sub	r4, r0, r4, lsl #1
    ae8c:	e0844084 	add	r4, r4, r4, lsl #1
    ae90:	e2830302 	add	r0, r3, #134217728	; 0x8000000
    ae94:	e2800702 	add	r0, r0, #524288	; 0x80000
    ae98:	e1a05100 	lsl	r5, r0, #2
    ae9c:	e1a00005 	mov	r0, r5
    aea0:	ebfff461 	bl	802c <GET32>
    aea4:	e3a01007 	mov	r1, #7, 0
    aea8:	e1c01411 	bic	r1, r0, r1, lsl r4
    aeac:	e1811416 	orr	r1, r1, r6, lsl r4
    aeb0:	e1a00005 	mov	r0, r5
    aeb4:	ebfff45a 	bl	8024 <PUT32>
    aeb8:	e8bd8070 	pop	{r4, r5, r6, pc}
    aebc:	cccccccd 	.word	0xcccccccd

0000aec0 <gpio_set_output>:
    aec0:	e92d4010 	push	{r4, lr}
    aec4:	e3a01001 	mov	r1, #1, 0
    aec8:	ebffffe4 	bl	ae60 <gpio_set_function>
    aecc:	e8bd8010 	pop	{r4, pc}

0000aed0 <gpio_set_on>:
    aed0:	e350001f 	cmp	r0, #31, 0
    aed4:	812fff1e 	bxhi	lr
    aed8:	e92d4010 	push	{r4, lr}
    aedc:	e3a01001 	mov	r1, #1, 0
    aee0:	e1a01011 	lsl	r1, r1, r0
    aee4:	e59f0004 	ldr	r0, [pc, #4]	; aef0 <gpio_set_on+0x20>
    aee8:	ebfff44d 	bl	8024 <PUT32>
    aeec:	e8bd8010 	pop	{r4, pc}
    aef0:	2020001c 	.word	0x2020001c

0000aef4 <gpio_set_off>:
    aef4:	e350001f 	cmp	r0, #31, 0
    aef8:	812fff1e 	bxhi	lr
    aefc:	e92d4010 	push	{r4, lr}
    af00:	e3a01001 	mov	r1, #1, 0
    af04:	e1a01011 	lsl	r1, r1, r0
    af08:	e59f0004 	ldr	r0, [pc, #4]	; af14 <gpio_set_off+0x20>
    af0c:	ebfff444 	bl	8024 <PUT32>
    af10:	e8bd8010 	pop	{r4, pc}
    af14:	20200028 	.word	0x20200028

0000af18 <gpio_write>:
    af18:	e350001f 	cmp	r0, #31, 0
    af1c:	812fff1e 	bxhi	lr
    af20:	e92d4010 	push	{r4, lr}
    af24:	e3510000 	cmp	r1, #0, 0
    af28:	0a000001 	beq	af34 <gpio_write+0x1c>
    af2c:	ebffffe7 	bl	aed0 <gpio_set_on>
    af30:	e8bd8010 	pop	{r4, pc}
    af34:	ebffffee 	bl	aef4 <gpio_set_off>
    af38:	e8bd8010 	pop	{r4, pc}

0000af3c <gpio_set_input>:
    af3c:	e92d4010 	push	{r4, lr}
    af40:	e3a01000 	mov	r1, #0, 0
    af44:	ebffffc5 	bl	ae60 <gpio_set_function>
    af48:	e8bd8010 	pop	{r4, pc}

0000af4c <gpio_read>:
    af4c:	e350001f 	cmp	r0, #31, 0
    af50:	8a000006 	bhi	af70 <gpio_read+0x24>
    af54:	e92d4010 	push	{r4, lr}
    af58:	e1a04000 	mov	r4, r0
    af5c:	e59f0014 	ldr	r0, [pc, #20]	; af78 <gpio_read+0x2c>
    af60:	ebfff431 	bl	802c <GET32>
    af64:	e1a00430 	lsr	r0, r0, r4
    af68:	e2000001 	and	r0, r0, #1, 0
    af6c:	e8bd8010 	pop	{r4, pc}
    af70:	e3e00000 	mvn	r0, #0, 0
    af74:	e12fff1e 	bx	lr
    af78:	20200034 	.word	0x20200034

0000af7c <memset>:
    af7c:	e92d4030 	push	{r4, r5, lr}
    af80:	e24dd00c 	sub	sp, sp, #12, 0
    af84:	e3520000 	cmp	r2, #0, 0
    af88:	0a00000b 	beq	afbc <memset+0x40>
    af8c:	e3510000 	cmp	r1, #0, 0
    af90:	1a000007 	bne	afb4 <memset+0x38>
    af94:	e3100007 	tst	r0, #7, 0
    af98:	1a000001 	bne	afa4 <memset+0x28>
    af9c:	e3120007 	tst	r2, #7, 0
    afa0:	0a00000d 	beq	afdc <memset+0x60>
    afa4:	e3100003 	tst	r0, #3, 0
    afa8:	1a000001 	bne	afb4 <memset+0x38>
    afac:	e3120003 	tst	r2, #3, 0
    afb0:	0a000013 	beq	b004 <memset+0x88>
    afb4:	e0802002 	add	r2, r0, r2
    afb8:	ea00001a 	b	b028 <memset+0xac>
    afbc:	e59f3074 	ldr	r3, [pc, #116]	; b038 <memset+0xbc>
    afc0:	e58d3000 	str	r3, [sp]
    afc4:	e3a03008 	mov	r3, #8, 0
    afc8:	e59f206c 	ldr	r2, [pc, #108]	; b03c <memset+0xc0>
    afcc:	e59f106c 	ldr	r1, [pc, #108]	; b040 <memset+0xc4>
    afd0:	e59f006c 	ldr	r0, [pc, #108]	; b044 <memset+0xc8>
    afd4:	eb00001b 	bl	b048 <printk>
    afd8:	eb000134 	bl	b4b0 <clean_reboot>
    afdc:	e1a021a2 	lsr	r2, r2, #3
    afe0:	ea000003 	b	aff4 <memset+0x78>
    afe4:	e1a04001 	mov	r4, r1
    afe8:	e1a05fc1 	asr	r5, r1, #31
    afec:	e0c040f8 	strd	r4, [r0], #8
    aff0:	e1a02003 	mov	r2, r3
    aff4:	e2423001 	sub	r3, r2, #1, 0
    aff8:	e3520000 	cmp	r2, #0, 0
    affc:	1afffff8 	bne	afe4 <memset+0x68>
    b000:	ea00000a 	b	b030 <memset+0xb4>
    b004:	e1a02122 	lsr	r2, r2, #2
    b008:	ea000001 	b	b014 <memset+0x98>
    b00c:	e4801004 	str	r1, [r0], #4
    b010:	e1a02003 	mov	r2, r3
    b014:	e2423001 	sub	r3, r2, #1, 0
    b018:	e3520000 	cmp	r2, #0, 0
    b01c:	1afffffa 	bne	b00c <memset+0x90>
    b020:	ea000002 	b	b030 <memset+0xb4>
    b024:	e4c01001 	strb	r1, [r0], #1
    b028:	e1500002 	cmp	r0, r2
    b02c:	3afffffc 	bcc	b024 <memset+0xa8>
    b030:	e28dd00c 	add	sp, sp, #12, 0
    b034:	e8bd8030 	pop	{r4, r5, pc}
    b038:	0000bf70 	.word	0x0000bf70
    b03c:	0000bf74 	.word	0x0000bf74
    b040:	0000bf60 	.word	0x0000bf60
    b044:	0000bd5c 	.word	0x0000bd5c

0000b048 <printk>:
    b048:	e92d000f 	push	{r0, r1, r2, r3}
    b04c:	e52de004 	push	{lr}		; (str lr, [sp, #-4]!)
    b050:	e24dd00c 	sub	sp, sp, #12, 0
    b054:	e28d1014 	add	r1, sp, #20, 0
    b058:	e58d1004 	str	r1, [sp, #4]
    b05c:	e59d0010 	ldr	r0, [sp, #16]
    b060:	eb000047 	bl	b184 <vprintk>
    b064:	e28dd00c 	add	sp, sp, #12, 0
    b068:	e49de004 	pop	{lr}		; (ldr lr, [sp], #4)
    b06c:	e28dd010 	add	sp, sp, #16, 0
    b070:	e12fff1e 	bx	lr

0000b074 <emit_val>:
    b074:	e92d4010 	push	{r4, lr}
    b078:	e24dd030 	sub	sp, sp, #48, 0	; 0x30
    b07c:	e350000a 	cmp	r0, #10, 0
    b080:	0a000014 	beq	b0d8 <emit_val+0x64>
    b084:	e3500010 	cmp	r0, #16, 0
    b088:	0a000022 	beq	b118 <emit_val+0xa4>
    b08c:	e3500002 	cmp	r0, #2, 0
    b090:	0a000006 	beq	b0b0 <emit_val+0x3c>
    b094:	e58d0000 	str	r0, [sp]
    b098:	e3a03019 	mov	r3, #25, 0
    b09c:	e59f20c0 	ldr	r2, [pc, #192]	; b164 <emit_val+0xf0>
    b0a0:	e59f10c0 	ldr	r1, [pc, #192]	; b168 <emit_val+0xf4>
    b0a4:	e59f00c0 	ldr	r0, [pc, #192]	; b16c <emit_val+0xf8>
    b0a8:	ebffffe6 	bl	b048 <printk>
    b0ac:	eb0000ff 	bl	b4b0 <clean_reboot>
    b0b0:	e28d400c 	add	r4, sp, #12, 0
    b0b4:	e2012001 	and	r2, r1, #1, 0
    b0b8:	e59f00b0 	ldr	r0, [pc, #176]	; b170 <emit_val+0xfc>
    b0bc:	e7d02002 	ldrb	r2, [r0, r2]
    b0c0:	e5c42000 	strb	r2, [r4]
    b0c4:	e2844001 	add	r4, r4, #1, 0
    b0c8:	e3510001 	cmp	r1, #1, 0
    b0cc:	e1a010a1 	lsr	r1, r1, #1
    b0d0:	8afffff7 	bhi	b0b4 <emit_val+0x40>
    b0d4:	ea00001d 	b	b150 <emit_val+0xdc>
    b0d8:	e28d400c 	add	r4, sp, #12, 0
    b0dc:	e59f3090 	ldr	r3, [pc, #144]	; b174 <emit_val+0x100>
    b0e0:	e0832193 	umull	r2, r3, r3, r1
    b0e4:	e1a031a3 	lsr	r3, r3, #3
    b0e8:	e1a00003 	mov	r0, r3
    b0ec:	e0833103 	add	r3, r3, r3, lsl #2
    b0f0:	e0413083 	sub	r3, r1, r3, lsl #1
    b0f4:	e59fc07c 	ldr	ip, [pc, #124]	; b178 <emit_val+0x104>
    b0f8:	e7dcc003 	ldrb	ip, [ip, r3]
    b0fc:	e5c4c000 	strb	ip, [r4]
    b100:	e2844001 	add	r4, r4, #1, 0
    b104:	e1a03001 	mov	r3, r1
    b108:	e1a01000 	mov	r1, r0
    b10c:	e3530009 	cmp	r3, #9, 0
    b110:	8afffff1 	bhi	b0dc <emit_val+0x68>
    b114:	ea00000d 	b	b150 <emit_val+0xdc>
    b118:	e28d400c 	add	r4, sp, #12, 0
    b11c:	e201200f 	and	r2, r1, #15, 0
    b120:	e59f0054 	ldr	r0, [pc, #84]	; b17c <emit_val+0x108>
    b124:	e7d02002 	ldrb	r2, [r0, r2]
    b128:	e5c42000 	strb	r2, [r4]
    b12c:	e2844001 	add	r4, r4, #1, 0
    b130:	e351000f 	cmp	r1, #15, 0
    b134:	e1a01221 	lsr	r1, r1, #4
    b138:	8afffff7 	bhi	b11c <emit_val+0xa8>
    b13c:	ea000003 	b	b150 <emit_val+0xdc>
    b140:	e59f3038 	ldr	r3, [pc, #56]	; b180 <emit_val+0x10c>
    b144:	e5933000 	ldr	r3, [r3]
    b148:	e5740001 	ldrb	r0, [r4, #-1]!
    b14c:	e12fff33 	blx	r3
    b150:	e28d300c 	add	r3, sp, #12, 0
    b154:	e1540003 	cmp	r4, r3
    b158:	8afffff8 	bhi	b140 <emit_val+0xcc>
    b15c:	e28dd030 	add	sp, sp, #48, 0	; 0x30
    b160:	e8bd8010 	pop	{r4, pc}
    b164:	0000c034 	.word	0x0000c034
    b168:	0000bf7c 	.word	0x0000bf7c
    b16c:	0000bf8c 	.word	0x0000bf8c
    b170:	0000bfb0 	.word	0x0000bfb0
    b174:	cccccccd 	.word	0xcccccccd
    b178:	0000bfb4 	.word	0x0000bfb4
    b17c:	0000bfc0 	.word	0x0000bfc0
    b180:	0000c250 	.word	0x0000c250

0000b184 <vprintk>:
    b184:	e92d4030 	push	{r4, r5, lr}
    b188:	e24dd014 	sub	sp, sp, #20, 0
    b18c:	e1a04000 	mov	r4, r0
    b190:	e58d100c 	str	r1, [sp, #12]
    b194:	ea000003 	b	b1a8 <vprintk+0x24>
    b198:	e59f3288 	ldr	r3, [pc, #648]	; b428 <vprintk+0x2a4>
    b19c:	e5933000 	ldr	r3, [r3]
    b1a0:	e12fff33 	blx	r3
    b1a4:	e2844001 	add	r4, r4, #1, 0
    b1a8:	e5d40000 	ldrb	r0, [r4]
    b1ac:	e3500000 	cmp	r0, #0, 0
    b1b0:	0a00009a 	beq	b420 <vprintk+0x29c>
    b1b4:	e3500025 	cmp	r0, #37, 0	; 0x25
    b1b8:	1afffff6 	bne	b198 <vprintk+0x14>
    b1bc:	e2845001 	add	r5, r4, #1, 0
    b1c0:	e5d42001 	ldrb	r2, [r4, #1]
    b1c4:	e2423062 	sub	r3, r2, #98, 0	; 0x62
    b1c8:	e3530016 	cmp	r3, #22, 0
    b1cc:	979ff103 	ldrls	pc, [pc, r3, lsl #2]
    b1d0:	ea00008b 	b	b404 <vprintk+0x280>
    b1d4:	0000b230 	.word	0x0000b230
    b1d8:	0000b270 	.word	0x0000b270
    b1dc:	0000b388 	.word	0x0000b388
    b1e0:	0000b404 	.word	0x0000b404
    b1e4:	0000b404 	.word	0x0000b404
    b1e8:	0000b404 	.word	0x0000b404
    b1ec:	0000b404 	.word	0x0000b404
    b1f0:	0000b404 	.word	0x0000b404
    b1f4:	0000b404 	.word	0x0000b404
    b1f8:	0000b404 	.word	0x0000b404
    b1fc:	0000b294 	.word	0x0000b294
    b200:	0000b404 	.word	0x0000b404
    b204:	0000b404 	.word	0x0000b404
    b208:	0000b404 	.word	0x0000b404
    b20c:	0000b34c 	.word	0x0000b34c
    b210:	0000b404 	.word	0x0000b404
    b214:	0000b404 	.word	0x0000b404
    b218:	0000b3cc 	.word	0x0000b3cc
    b21c:	0000b404 	.word	0x0000b404
    b220:	0000b250 	.word	0x0000b250
    b224:	0000b404 	.word	0x0000b404
    b228:	0000b404 	.word	0x0000b404
    b22c:	0000b34c 	.word	0x0000b34c
    b230:	e59d300c 	ldr	r3, [sp, #12]
    b234:	e2832004 	add	r2, r3, #4, 0
    b238:	e58d200c 	str	r2, [sp, #12]
    b23c:	e5931000 	ldr	r1, [r3]
    b240:	e3a00002 	mov	r0, #2, 0
    b244:	ebffff8a 	bl	b074 <emit_val>
    b248:	e1a04005 	mov	r4, r5
    b24c:	eaffffd4 	b	b1a4 <vprintk+0x20>
    b250:	e59d300c 	ldr	r3, [sp, #12]
    b254:	e2832004 	add	r2, r3, #4, 0
    b258:	e58d200c 	str	r2, [sp, #12]
    b25c:	e5931000 	ldr	r1, [r3]
    b260:	e3a0000a 	mov	r0, #10, 0
    b264:	ebffff82 	bl	b074 <emit_val>
    b268:	e1a04005 	mov	r4, r5
    b26c:	eaffffcc 	b	b1a4 <vprintk+0x20>
    b270:	e59f31b0 	ldr	r3, [pc, #432]	; b428 <vprintk+0x2a4>
    b274:	e5932000 	ldr	r2, [r3]
    b278:	e59d300c 	ldr	r3, [sp, #12]
    b27c:	e2831004 	add	r1, r3, #4, 0
    b280:	e58d100c 	str	r1, [sp, #12]
    b284:	e5930000 	ldr	r0, [r3]
    b288:	e12fff32 	blx	r2
    b28c:	e1a04005 	mov	r4, r5
    b290:	eaffffc3 	b	b1a4 <vprintk+0x20>
    b294:	e2842002 	add	r2, r4, #2, 0
    b298:	e5d43002 	ldrb	r3, [r4, #2]
    b29c:	e353006c 	cmp	r3, #108, 0	; 0x6c
    b2a0:	1a000018 	bne	b308 <vprintk+0x184>
    b2a4:	e2845003 	add	r5, r4, #3, 0
    b2a8:	e5d43003 	ldrb	r3, [r4, #3]
    b2ac:	e3530078 	cmp	r3, #120, 0	; 0x78
    b2b0:	1a00001b 	bne	b324 <vprintk+0x1a0>
    b2b4:	e59f416c 	ldr	r4, [pc, #364]	; b428 <vprintk+0x2a4>
    b2b8:	e5943000 	ldr	r3, [r4]
    b2bc:	e3a00030 	mov	r0, #48, 0	; 0x30
    b2c0:	e12fff33 	blx	r3
    b2c4:	e5943000 	ldr	r3, [r4]
    b2c8:	e3a00078 	mov	r0, #120, 0	; 0x78
    b2cc:	e12fff33 	blx	r3
    b2d0:	e59d300c 	ldr	r3, [sp, #12]
    b2d4:	e2833007 	add	r3, r3, #7, 0
    b2d8:	e3c33007 	bic	r3, r3, #7, 0
    b2dc:	e2832008 	add	r2, r3, #8, 0
    b2e0:	e58d200c 	str	r2, [sp, #12]
    b2e4:	e5934000 	ldr	r4, [r3]
    b2e8:	e5931004 	ldr	r1, [r3, #4]
    b2ec:	e3510000 	cmp	r1, #0, 0
    b2f0:	1a000012 	bne	b340 <vprintk+0x1bc>
    b2f4:	e1a01004 	mov	r1, r4
    b2f8:	e3a00010 	mov	r0, #16, 0
    b2fc:	ebffff5c 	bl	b074 <emit_val>
    b300:	e1a04005 	mov	r4, r5
    b304:	eaffffa6 	b	b1a4 <vprintk+0x20>
    b308:	e58d2000 	str	r2, [sp]
    b30c:	e3a03039 	mov	r3, #57, 0	; 0x39
    b310:	e59f2114 	ldr	r2, [pc, #276]	; b42c <vprintk+0x2a8>
    b314:	e59f1114 	ldr	r1, [pc, #276]	; b430 <vprintk+0x2ac>
    b318:	e59f0114 	ldr	r0, [pc, #276]	; b434 <vprintk+0x2b0>
    b31c:	ebffff49 	bl	b048 <printk>
    b320:	eb000062 	bl	b4b0 <clean_reboot>
    b324:	e58d5000 	str	r5, [sp]
    b328:	e3a0303c 	mov	r3, #60, 0	; 0x3c
    b32c:	e59f20f8 	ldr	r2, [pc, #248]	; b42c <vprintk+0x2a8>
    b330:	e59f10f8 	ldr	r1, [pc, #248]	; b430 <vprintk+0x2ac>
    b334:	e59f00f8 	ldr	r0, [pc, #248]	; b434 <vprintk+0x2b0>
    b338:	ebffff42 	bl	b048 <printk>
    b33c:	eb00005b 	bl	b4b0 <clean_reboot>
    b340:	e3a00010 	mov	r0, #16, 0
    b344:	ebffff4a 	bl	b074 <emit_val>
    b348:	eaffffe9 	b	b2f4 <vprintk+0x170>
    b34c:	e59f40d4 	ldr	r4, [pc, #212]	; b428 <vprintk+0x2a4>
    b350:	e5943000 	ldr	r3, [r4]
    b354:	e3a00030 	mov	r0, #48, 0	; 0x30
    b358:	e12fff33 	blx	r3
    b35c:	e5943000 	ldr	r3, [r4]
    b360:	e3a00078 	mov	r0, #120, 0	; 0x78
    b364:	e12fff33 	blx	r3
    b368:	e59d300c 	ldr	r3, [sp, #12]
    b36c:	e2832004 	add	r2, r3, #4, 0
    b370:	e58d200c 	str	r2, [sp, #12]
    b374:	e5931000 	ldr	r1, [r3]
    b378:	e3a00010 	mov	r0, #16, 0
    b37c:	ebffff3c 	bl	b074 <emit_val>
    b380:	e1a04005 	mov	r4, r5
    b384:	eaffff86 	b	b1a4 <vprintk+0x20>
    b388:	e59d300c 	ldr	r3, [sp, #12]
    b38c:	e2832004 	add	r2, r3, #4, 0
    b390:	e58d200c 	str	r2, [sp, #12]
    b394:	e5934000 	ldr	r4, [r3]
    b398:	e3540000 	cmp	r4, #0, 0
    b39c:	ba000004 	blt	b3b4 <vprintk+0x230>
    b3a0:	e1a01004 	mov	r1, r4
    b3a4:	e3a0000a 	mov	r0, #10, 0
    b3a8:	ebffff31 	bl	b074 <emit_val>
    b3ac:	e1a04005 	mov	r4, r5
    b3b0:	eaffff7b 	b	b1a4 <vprintk+0x20>
    b3b4:	e59f306c 	ldr	r3, [pc, #108]	; b428 <vprintk+0x2a4>
    b3b8:	e5933000 	ldr	r3, [r3]
    b3bc:	e3a0002d 	mov	r0, #45, 0	; 0x2d
    b3c0:	e12fff33 	blx	r3
    b3c4:	e2644000 	rsb	r4, r4, #0, 0
    b3c8:	eafffff4 	b	b3a0 <vprintk+0x21c>
    b3cc:	e59d300c 	ldr	r3, [sp, #12]
    b3d0:	e2832004 	add	r2, r3, #4, 0
    b3d4:	e58d200c 	str	r2, [sp, #12]
    b3d8:	e5934000 	ldr	r4, [r3]
    b3dc:	e5d40000 	ldrb	r0, [r4]
    b3e0:	e3500000 	cmp	r0, #0, 0
    b3e4:	0a000004 	beq	b3fc <vprintk+0x278>
    b3e8:	e59f3038 	ldr	r3, [pc, #56]	; b428 <vprintk+0x2a4>
    b3ec:	e5933000 	ldr	r3, [r3]
    b3f0:	e12fff33 	blx	r3
    b3f4:	e2844001 	add	r4, r4, #1, 0
    b3f8:	eafffff7 	b	b3dc <vprintk+0x258>
    b3fc:	e1a04005 	mov	r4, r5
    b400:	eaffff67 	b	b1a4 <vprintk+0x20>
    b404:	e58d2000 	str	r2, [sp]
    b408:	e3a03060 	mov	r3, #96, 0	; 0x60
    b40c:	e59f2018 	ldr	r2, [pc, #24]	; b42c <vprintk+0x2a8>
    b410:	e59f1018 	ldr	r1, [pc, #24]	; b430 <vprintk+0x2ac>
    b414:	e59f001c 	ldr	r0, [pc, #28]	; b438 <vprintk+0x2b4>
    b418:	ebffff0a 	bl	b048 <printk>
    b41c:	eb000023 	bl	b4b0 <clean_reboot>
    b420:	e28dd014 	add	sp, sp, #20, 0
    b424:	e8bd8030 	pop	{r4, r5, pc}
    b428:	0000c250 	.word	0x0000c250
    b42c:	0000c040 	.word	0x0000c040
    b430:	0000bf7c 	.word	0x0000bf7c
    b434:	0000bfd4 	.word	0x0000bfd4
    b438:	0000c00c 	.word	0x0000c00c

0000b43c <default_putchar>:
    b43c:	e92d4010 	push	{r4, lr}
    b440:	e1a04000 	mov	r4, r0
    b444:	e6ef0070 	uxtb	r0, r0
    b448:	eb0001be 	bl	bb48 <uart_put8>
    b44c:	e1a00004 	mov	r0, r4
    b450:	e8bd8010 	pop	{r4, pc}

0000b454 <rpi_putchar_set>:
    b454:	e59f3004 	ldr	r3, [pc, #4]	; b460 <rpi_putchar_set+0xc>
    b458:	e5830000 	str	r0, [r3]
    b45c:	e12fff1e 	bx	lr
    b460:	0000c250 	.word	0x0000c250

0000b464 <caches_enable>:
    b464:	ee113f10 	mrc	15, 0, r3, cr1, cr0, {0}
    b468:	e3833b06 	orr	r3, r3, #6144	; 0x1800
    b46c:	ee013f10 	mcr	15, 0, r3, cr1, cr0, {0}
    b470:	e12fff1e 	bx	lr

0000b474 <caches_disable>:
    b474:	ee113f10 	mrc	15, 0, r3, cr1, cr0, {0}
    b478:	e3c33b06 	bic	r3, r3, #6144	; 0x1800
    b47c:	ee013f10 	mcr	15, 0, r3, cr1, cr0, {0}
    b480:	e12fff1e 	bx	lr

0000b484 <caches_is_enabled>:
    b484:	ee113f10 	mrc	15, 0, r3, cr1, cr0, {0}
    b488:	e3130a01 	tst	r3, #4096	; 0x1000
    b48c:	0a000003 	beq	b4a0 <caches_is_enabled+0x1c>
    b490:	e3130b02 	tst	r3, #2048	; 0x800
    b494:	0a000003 	beq	b4a8 <caches_is_enabled+0x24>
    b498:	e3a00001 	mov	r0, #1, 0
    b49c:	e12fff1e 	bx	lr
    b4a0:	e3a00000 	mov	r0, #0, 0
    b4a4:	e12fff1e 	bx	lr
    b4a8:	e3a00000 	mov	r0, #0, 0
    b4ac:	e12fff1e 	bx	lr

0000b4b0 <clean_reboot>:
    b4b0:	e92d4010 	push	{r4, lr}
    b4b4:	e59f0010 	ldr	r0, [pc, #16]	; b4cc <clean_reboot+0x1c>
    b4b8:	eb0001e5 	bl	bc54 <putk>
    b4bc:	eb0001ce 	bl	bbfc <uart_flush_tx>
    b4c0:	e3a0000a 	mov	r0, #10, 0
    b4c4:	eb00004c 	bl	b5fc <delay_ms>
    b4c8:	eb000021 	bl	b554 <rpi_reboot>
    b4cc:	0000c048 	.word	0x0000c048

0000b4d0 <_cstart>:
    b4d0:	e92d4010 	push	{r4, lr}
    b4d4:	eb00000c 	bl	b50c <custom_loader>
    b4d8:	e59f3024 	ldr	r3, [pc, #36]	; b504 <_cstart+0x34>
    b4dc:	e59f2024 	ldr	r2, [pc, #36]	; b508 <_cstart+0x38>
    b4e0:	e1530002 	cmp	r3, r2
    b4e4:	33a02000 	movcc	r2, #0, 0
    b4e8:	34832004 	strcc	r2, [r3], #4
    b4ec:	3afffffa 	bcc	b4dc <_cstart+0xc>
    b4f0:	eb00014a 	bl	ba20 <uart_init>
    b4f4:	e3a03001 	mov	r3, #1, 0
    b4f8:	ee0f3f1c 	mcr	15, 0, r3, cr15, cr12, {0}
    b4fc:	ebfffd5c 	bl	aa74 <notmain>
    b500:	ebffffea 	bl	b4b0 <clean_reboot>
    b504:	0000c260 	.word	0x0000c260
    b508:	0000c268 	.word	0x0000c268

0000b50c <custom_loader>:
    b50c:	e12fff1e 	bx	lr

0000b510 <dev_barrier>:
    b510:	ea000002 	b	b520 <dsb>

0000b514 <dmb>:
    b514:	e3a00000 	mov	r0, #0, 0
    b518:	ee070fba 	mcr	15, 0, r0, cr7, cr10, {5}
    b51c:	e12fff1e 	bx	lr

0000b520 <dsb>:
    b520:	ee070f9a 	mcr	15, 0, r0, cr7, cr10, {4}
    b524:	e12fff1e 	bx	lr

0000b528 <at_user_level>:
    b528:	e10f0000 	mrs	r0, CPSR
    b52c:	e200001f 	and	r0, r0, #31, 0
    b530:	e3500010 	cmp	r0, #16, 0
    b534:	13a00000 	movne	r0, #0, 0
    b538:	03a00001 	moveq	r0, #1, 0
    b53c:	e12fff1e 	bx	lr

0000b540 <set_user_level>:
    b540:	e10f3000 	mrs	r3, CPSR
    b544:	e3c3301f 	bic	r3, r3, #31, 0
    b548:	e3833010 	orr	r3, r3, #16, 0
    b54c:	e129f003 	msr	CPSR_fc, r3
    b550:	e12fff1e 	bx	lr

0000b554 <rpi_reboot>:
    b554:	e92d4010 	push	{r4, lr}
    b558:	ebfffff2 	bl	b528 <at_user_level>
    b55c:	e3500000 	cmp	r0, #0, 0
    b560:	1a00000a 	bne	b590 <rpi_reboot+0x3c>
    b564:	eb0001c7 	bl	bc88 <reboot_callout>
    b568:	eb0001a3 	bl	bbfc <uart_flush_tx>
    b56c:	e3a0000a 	mov	r0, #10, 0
    b570:	eb000021 	bl	b5fc <delay_ms>
    b574:	e59f101c 	ldr	r1, [pc, #28]	; b598 <rpi_reboot+0x44>
    b578:	e59f001c 	ldr	r0, [pc, #28]	; b59c <rpi_reboot+0x48>
    b57c:	ebfff2a8 	bl	8024 <PUT32>
    b580:	e59f1018 	ldr	r1, [pc, #24]	; b5a0 <rpi_reboot+0x4c>
    b584:	e59f0018 	ldr	r0, [pc, #24]	; b5a4 <rpi_reboot+0x50>
    b588:	ebfff2a5 	bl	8024 <PUT32>
    b58c:	eafffffe 	b	b58c <rpi_reboot+0x38>
    b590:	ebffffea 	bl	b540 <set_user_level>
    b594:	eafffff2 	b	b564 <rpi_reboot+0x10>
    b598:	5a000001 	.word	0x5a000001
    b59c:	20100024 	.word	0x20100024
    b5a0:	5a000020 	.word	0x5a000020
    b5a4:	2010001c 	.word	0x2010001c

0000b5a8 <timer_get_usec_raw>:
    b5a8:	e92d4010 	push	{r4, lr}
    b5ac:	e59f0004 	ldr	r0, [pc, #4]	; b5b8 <timer_get_usec_raw+0x10>
    b5b0:	ebfff29d 	bl	802c <GET32>
    b5b4:	e8bd8010 	pop	{r4, pc}
    b5b8:	20003004 	.word	0x20003004

0000b5bc <timer_get_usec>:
    b5bc:	e92d4010 	push	{r4, lr}
    b5c0:	ebffffd2 	bl	b510 <dev_barrier>
    b5c4:	ebfffff7 	bl	b5a8 <timer_get_usec_raw>
    b5c8:	e1a04000 	mov	r4, r0
    b5cc:	ebffffcf 	bl	b510 <dev_barrier>
    b5d0:	e1a00004 	mov	r0, r4
    b5d4:	e8bd8010 	pop	{r4, pc}

0000b5d8 <delay_us>:
    b5d8:	e92d4070 	push	{r4, r5, r6, lr}
    b5dc:	e1a05000 	mov	r5, r0
    b5e0:	ebfffff5 	bl	b5bc <timer_get_usec>
    b5e4:	e1a04000 	mov	r4, r0
    b5e8:	ebfffff3 	bl	b5bc <timer_get_usec>
    b5ec:	e0400004 	sub	r0, r0, r4
    b5f0:	e1500005 	cmp	r0, r5
    b5f4:	3afffffb 	bcc	b5e8 <delay_us+0x10>
    b5f8:	e8bd8070 	pop	{r4, r5, r6, pc}

0000b5fc <delay_ms>:
    b5fc:	e92d4010 	push	{r4, lr}
    b600:	e0603280 	rsb	r3, r0, r0, lsl #5
    b604:	e0800103 	add	r0, r0, r3, lsl #2
    b608:	e1a00180 	lsl	r0, r0, #3
    b60c:	ebfffff1 	bl	b5d8 <delay_us>
    b610:	e8bd8010 	pop	{r4, pc}

0000b614 <delay_sec>:
    b614:	e92d4010 	push	{r4, lr}
    b618:	e0603280 	rsb	r3, r0, r0, lsl #5
    b61c:	e0800103 	add	r0, r0, r3, lsl #2
    b620:	e1a00180 	lsl	r0, r0, #3
    b624:	ebfffff4 	bl	b5fc <delay_ms>
    b628:	e8bd8010 	pop	{r4, pc}

0000b62c <kmalloc_heap_end>:
    b62c:	e59f3004 	ldr	r3, [pc, #4]	; b638 <kmalloc_heap_end+0xc>
    b630:	e5930000 	ldr	r0, [r3]
    b634:	e12fff1e 	bx	lr
    b638:	0000c254 	.word	0x0000c254

0000b63c <kmalloc_heap_start>:
    b63c:	e59f3004 	ldr	r3, [pc, #4]	; b648 <kmalloc_heap_start+0xc>
    b640:	e5930004 	ldr	r0, [r3, #4]
    b644:	e12fff1e 	bx	lr
    b648:	0000c254 	.word	0x0000c254

0000b64c <kmalloc_heap_ptr>:
    b64c:	e59f3004 	ldr	r3, [pc, #4]	; b658 <kmalloc_heap_ptr+0xc>
    b650:	e5930008 	ldr	r0, [r3, #8]
    b654:	e12fff1e 	bx	lr
    b658:	0000c254 	.word	0x0000c254

0000b65c <kmalloc_init_set_start>:
    b65c:	e52de004 	push	{lr}		; (str lr, [sp, #-4]!)
    b660:	e24dd00c 	sub	sp, sp, #12, 0
    b664:	e59f30a8 	ldr	r3, [pc, #168]	; b714 <kmalloc_init_set_start+0xb8>
    b668:	e5933000 	ldr	r3, [r3]
    b66c:	e3530000 	cmp	r3, #0, 0
    b670:	1a00000f 	bne	b6b4 <kmalloc_init_set_start+0x58>
    b674:	e59f3098 	ldr	r3, [pc, #152]	; b714 <kmalloc_init_set_start+0xb8>
    b678:	e3a02001 	mov	r2, #1, 0
    b67c:	e5832000 	str	r2, [r3]
    b680:	e3510000 	cmp	r1, #0, 0
    b684:	0a000010 	beq	b6cc <kmalloc_init_set_start+0x70>
    b688:	e59f3088 	ldr	r3, [pc, #136]	; b718 <kmalloc_init_set_start+0xbc>
    b68c:	e5933008 	ldr	r3, [r3, #8]
    b690:	e1530000 	cmp	r3, r0
    b694:	8a000014 	bhi	b6ec <kmalloc_init_set_start+0x90>
    b698:	e59f3078 	ldr	r3, [pc, #120]	; b718 <kmalloc_init_set_start+0xbc>
    b69c:	e5830008 	str	r0, [r3, #8]
    b6a0:	e5830004 	str	r0, [r3, #4]
    b6a4:	e0800001 	add	r0, r0, r1
    b6a8:	e5830000 	str	r0, [r3]
    b6ac:	e28dd00c 	add	sp, sp, #12, 0
    b6b0:	e49df004 	pop	{pc}		; (ldr pc, [sp], #4)
    b6b4:	e3a03031 	mov	r3, #49, 0	; 0x31
    b6b8:	e59f205c 	ldr	r2, [pc, #92]	; b71c <kmalloc_init_set_start+0xc0>
    b6bc:	e59f105c 	ldr	r1, [pc, #92]	; b720 <kmalloc_init_set_start+0xc4>
    b6c0:	e59f005c 	ldr	r0, [pc, #92]	; b724 <kmalloc_init_set_start+0xc8>
    b6c4:	ebfffe5f 	bl	b048 <printk>
    b6c8:	ebffff78 	bl	b4b0 <clean_reboot>
    b6cc:	e59f3054 	ldr	r3, [pc, #84]	; b728 <kmalloc_init_set_start+0xcc>
    b6d0:	e58d3000 	str	r3, [sp]
    b6d4:	e3a03036 	mov	r3, #54, 0	; 0x36
    b6d8:	e59f203c 	ldr	r2, [pc, #60]	; b71c <kmalloc_init_set_start+0xc0>
    b6dc:	e59f103c 	ldr	r1, [pc, #60]	; b720 <kmalloc_init_set_start+0xc4>
    b6e0:	e59f0044 	ldr	r0, [pc, #68]	; b72c <kmalloc_init_set_start+0xd0>
    b6e4:	ebfffe57 	bl	b048 <printk>
    b6e8:	ebffff70 	bl	b4b0 <clean_reboot>
    b6ec:	e59f3024 	ldr	r3, [pc, #36]	; b718 <kmalloc_init_set_start+0xbc>
    b6f0:	e5933000 	ldr	r3, [r3]
    b6f4:	e58d3004 	str	r3, [sp, #4]
    b6f8:	e58d0000 	str	r0, [sp]
    b6fc:	e3a0303a 	mov	r3, #58, 0	; 0x3a
    b700:	e59f2014 	ldr	r2, [pc, #20]	; b71c <kmalloc_init_set_start+0xc0>
    b704:	e59f1014 	ldr	r1, [pc, #20]	; b720 <kmalloc_init_set_start+0xc4>
    b708:	e59f0020 	ldr	r0, [pc, #32]	; b730 <kmalloc_init_set_start+0xd4>
    b70c:	ebfffe4d 	bl	b048 <printk>
    b710:	ebffff66 	bl	b4b0 <clean_reboot>
    b714:	0000c260 	.word	0x0000c260
    b718:	0000c254 	.word	0x0000c254
    b71c:	0000c1ec 	.word	0x0000c1ec
    b720:	0000c054 	.word	0x0000c054
    b724:	0000c060 	.word	0x0000c060
    b728:	0000c094 	.word	0x0000c094
    b72c:	0000bd5c 	.word	0x0000bd5c
    b730:	0000c0a0 	.word	0x0000c0a0

0000b734 <kmalloc_init>:
    b734:	e92d4010 	push	{r4, lr}
    b738:	e59f303c 	ldr	r3, [pc, #60]	; b77c <kmalloc_init+0x48>
    b73c:	e5933004 	ldr	r3, [r3, #4]
    b740:	e3530000 	cmp	r3, #0, 0
    b744:	1a000006 	bne	b764 <kmalloc_init+0x30>
    b748:	e59f302c 	ldr	r3, [pc, #44]	; b77c <kmalloc_init+0x48>
    b74c:	e3a02001 	mov	r2, #1, 0
    b750:	e5832004 	str	r2, [r3, #4]
    b754:	e3a01302 	mov	r1, #134217728	; 0x8000000
    b758:	e3a00601 	mov	r0, #1048576	; 0x100000
    b75c:	ebffffbe 	bl	b65c <kmalloc_init_set_start>
    b760:	e8bd8010 	pop	{r4, pc}
    b764:	e3a03046 	mov	r3, #70, 0	; 0x46
    b768:	e59f2010 	ldr	r2, [pc, #16]	; b780 <kmalloc_init+0x4c>
    b76c:	e59f1010 	ldr	r1, [pc, #16]	; b784 <kmalloc_init+0x50>
    b770:	e59f0010 	ldr	r0, [pc, #16]	; b788 <kmalloc_init+0x54>
    b774:	ebfffe33 	bl	b048 <printk>
    b778:	ebffff4c 	bl	b4b0 <clean_reboot>
    b77c:	0000c260 	.word	0x0000c260
    b780:	0000c204 	.word	0x0000c204
    b784:	0000c054 	.word	0x0000c054
    b788:	0000c0e4 	.word	0x0000c0e4

0000b78c <kmalloc_notzero>:
    b78c:	e52de004 	push	{lr}		; (str lr, [sp, #-4]!)
    b790:	e24dd00c 	sub	sp, sp, #12, 0
    b794:	e3500000 	cmp	r0, #0, 0
    b798:	0a00000a 	beq	b7c8 <kmalloc_notzero+0x3c>
    b79c:	e2800007 	add	r0, r0, #7, 0
    b7a0:	e3c03007 	bic	r3, r0, #7, 0
    b7a4:	e59f2060 	ldr	r2, [pc, #96]	; b80c <kmalloc_notzero+0x80>
    b7a8:	e5920008 	ldr	r0, [r2, #8]
    b7ac:	e0801003 	add	r1, r0, r3
    b7b0:	e5821008 	str	r1, [r2, #8]
    b7b4:	e5922000 	ldr	r2, [r2]
    b7b8:	e1510002 	cmp	r1, r2
    b7bc:	8a000009 	bhi	b7e8 <kmalloc_notzero+0x5c>
    b7c0:	e28dd00c 	add	sp, sp, #12, 0
    b7c4:	e49df004 	pop	{pc}		; (ldr pc, [sp], #4)
    b7c8:	e59f3040 	ldr	r3, [pc, #64]	; b810 <kmalloc_notzero+0x84>
    b7cc:	e58d3000 	str	r3, [sp]
    b7d0:	e3a03051 	mov	r3, #81, 0	; 0x51
    b7d4:	e59f2038 	ldr	r2, [pc, #56]	; b814 <kmalloc_notzero+0x88>
    b7d8:	e59f1038 	ldr	r1, [pc, #56]	; b818 <kmalloc_notzero+0x8c>
    b7dc:	e59f0038 	ldr	r0, [pc, #56]	; b81c <kmalloc_notzero+0x90>
    b7e0:	ebfffe18 	bl	b048 <printk>
    b7e4:	ebffff31 	bl	b4b0 <clean_reboot>
    b7e8:	e0411002 	sub	r1, r1, r2
    b7ec:	e58d1004 	str	r1, [sp, #4]
    b7f0:	e58d3000 	str	r3, [sp]
    b7f4:	e3a03057 	mov	r3, #87, 0	; 0x57
    b7f8:	e59f2014 	ldr	r2, [pc, #20]	; b814 <kmalloc_notzero+0x88>
    b7fc:	e59f1014 	ldr	r1, [pc, #20]	; b818 <kmalloc_notzero+0x8c>
    b800:	e59f0018 	ldr	r0, [pc, #24]	; b820 <kmalloc_notzero+0x94>
    b804:	ebfffe0f 	bl	b048 <printk>
    b808:	ebffff28 	bl	b4b0 <clean_reboot>
    b80c:	0000c254 	.word	0x0000c254
    b810:	0000c098 	.word	0x0000c098
    b814:	0000c214 	.word	0x0000c214
    b818:	0000c054 	.word	0x0000c054
    b81c:	0000bd5c 	.word	0x0000bd5c
    b820:	0000c114 	.word	0x0000c114

0000b824 <kmalloc>:
    b824:	e92d4030 	push	{r4, r5, lr}
    b828:	e24dd00c 	sub	sp, sp, #12, 0
    b82c:	e2504000 	subs	r4, r0, #0, 0
    b830:	0a000008 	beq	b858 <kmalloc+0x34>
    b834:	e1a00004 	mov	r0, r4
    b838:	ebffffd3 	bl	b78c <kmalloc_notzero>
    b83c:	e1a05000 	mov	r5, r0
    b840:	e1a02004 	mov	r2, r4
    b844:	e3a01000 	mov	r1, #0, 0
    b848:	ebfffdcb 	bl	af7c <memset>
    b84c:	e1a00005 	mov	r0, r5
    b850:	e28dd00c 	add	sp, sp, #12, 0
    b854:	e8bd8030 	pop	{r4, r5, pc}
    b858:	e59f3018 	ldr	r3, [pc, #24]	; b878 <kmalloc+0x54>
    b85c:	e58d3000 	str	r3, [sp]
    b860:	e3a0305e 	mov	r3, #94, 0	; 0x5e
    b864:	e59f2010 	ldr	r2, [pc, #16]	; b87c <kmalloc+0x58>
    b868:	e59f1010 	ldr	r1, [pc, #16]	; b880 <kmalloc+0x5c>
    b86c:	e59f0010 	ldr	r0, [pc, #16]	; b884 <kmalloc+0x60>
    b870:	ebfffdf4 	bl	b048 <printk>
    b874:	ebffff0d 	bl	b4b0 <clean_reboot>
    b878:	0000c098 	.word	0x0000c098
    b87c:	0000c224 	.word	0x0000c224
    b880:	0000c054 	.word	0x0000c054
    b884:	0000bd5c 	.word	0x0000bd5c

0000b888 <kmalloc_aligned>:
    b888:	e52de004 	push	{lr}		; (str lr, [sp, #-4]!)
    b88c:	e24dd00c 	sub	sp, sp, #12, 0
    b890:	e3500000 	cmp	r0, #0, 0
    b894:	0a000014 	beq	b8ec <kmalloc_aligned+0x64>
    b898:	e2613000 	rsb	r3, r1, #0, 0
    b89c:	e1d13003 	bics	r3, r1, r3
    b8a0:	1a000019 	bne	b90c <kmalloc_aligned+0x84>
    b8a4:	e3510008 	cmp	r1, #8, 0
    b8a8:	33a01008 	movcc	r1, #8, 0
    b8ac:	e59f30c8 	ldr	r3, [pc, #200]	; b97c <kmalloc_aligned+0xf4>
    b8b0:	e5932008 	ldr	r2, [r3, #8]
    b8b4:	e2613000 	rsb	r3, r1, #0, 0
    b8b8:	e1d1c003 	bics	ip, r1, r3
    b8bc:	1a00001c 	bne	b934 <kmalloc_aligned+0xac>
    b8c0:	e0822001 	add	r2, r2, r1
    b8c4:	e2422001 	sub	r2, r2, #1, 0
    b8c8:	e0033002 	and	r3, r3, r2
    b8cc:	e2411001 	sub	r1, r1, #1, 0
    b8d0:	e1110003 	tst	r1, r3
    b8d4:	1a00001e 	bne	b954 <kmalloc_aligned+0xcc>
    b8d8:	e59f209c 	ldr	r2, [pc, #156]	; b97c <kmalloc_aligned+0xf4>
    b8dc:	e5823008 	str	r3, [r2, #8]
    b8e0:	ebffffcf 	bl	b824 <kmalloc>
    b8e4:	e28dd00c 	add	sp, sp, #12, 0
    b8e8:	e49df004 	pop	{pc}		; (ldr pc, [sp], #4)
    b8ec:	e59f308c 	ldr	r3, [pc, #140]	; b980 <kmalloc_aligned+0xf8>
    b8f0:	e58d3000 	str	r3, [sp]
    b8f4:	e3a03069 	mov	r3, #105, 0	; 0x69
    b8f8:	e59f2084 	ldr	r2, [pc, #132]	; b984 <kmalloc_aligned+0xfc>
    b8fc:	e59f1084 	ldr	r1, [pc, #132]	; b988 <kmalloc_aligned+0x100>
    b900:	e59f0084 	ldr	r0, [pc, #132]	; b98c <kmalloc_aligned+0x104>
    b904:	ebfffdcf 	bl	b048 <printk>
    b908:	ebfffee8 	bl	b4b0 <clean_reboot>
    b90c:	e59f307c 	ldr	r3, [pc, #124]	; b990 <kmalloc_aligned+0x108>
    b910:	e58d3004 	str	r3, [sp, #4]
    b914:	e59f3078 	ldr	r3, [pc, #120]	; b994 <kmalloc_aligned+0x10c>
    b918:	e58d3000 	str	r3, [sp]
    b91c:	e3a0306a 	mov	r3, #106, 0	; 0x6a
    b920:	e59f205c 	ldr	r2, [pc, #92]	; b984 <kmalloc_aligned+0xfc>
    b924:	e59f105c 	ldr	r1, [pc, #92]	; b988 <kmalloc_aligned+0x100>
    b928:	e59f0068 	ldr	r0, [pc, #104]	; b998 <kmalloc_aligned+0x110>
    b92c:	ebfffdc5 	bl	b048 <printk>
    b930:	ebfffede 	bl	b4b0 <clean_reboot>
    b934:	e59f3060 	ldr	r3, [pc, #96]	; b99c <kmalloc_aligned+0x114>
    b938:	e58d3000 	str	r3, [sp]
    b93c:	e3a03011 	mov	r3, #17, 0
    b940:	e59f2058 	ldr	r2, [pc, #88]	; b9a0 <kmalloc_aligned+0x118>
    b944:	e59f103c 	ldr	r1, [pc, #60]	; b988 <kmalloc_aligned+0x100>
    b948:	e59f003c 	ldr	r0, [pc, #60]	; b98c <kmalloc_aligned+0x104>
    b94c:	ebfffdbd 	bl	b048 <printk>
    b950:	ebfffed6 	bl	b4b0 <clean_reboot>
    b954:	e59f3048 	ldr	r3, [pc, #72]	; b9a4 <kmalloc_aligned+0x11c>
    b958:	e58d3004 	str	r3, [sp, #4]
    b95c:	e59f3044 	ldr	r3, [pc, #68]	; b9a8 <kmalloc_aligned+0x120>
    b960:	e58d3000 	str	r3, [sp]
    b964:	e3a03072 	mov	r3, #114, 0	; 0x72
    b968:	e59f2014 	ldr	r2, [pc, #20]	; b984 <kmalloc_aligned+0xfc>
    b96c:	e59f1014 	ldr	r1, [pc, #20]	; b988 <kmalloc_aligned+0x100>
    b970:	e59f0020 	ldr	r0, [pc, #32]	; b998 <kmalloc_aligned+0x110>
    b974:	ebfffdb3 	bl	b048 <printk>
    b978:	ebfffecc 	bl	b4b0 <clean_reboot>
    b97c:	0000c254 	.word	0x0000c254
    b980:	0000c098 	.word	0x0000c098
    b984:	0000c22c 	.word	0x0000c22c
    b988:	0000c054 	.word	0x0000c054
    b98c:	0000bd5c 	.word	0x0000bd5c
    b990:	0000c15c 	.word	0x0000c15c
    b994:	0000c174 	.word	0x0000c174
    b998:	0000be40 	.word	0x0000be40
    b99c:	0000c188 	.word	0x0000c188
    b9a0:	0000c23c 	.word	0x0000c23c
    b9a4:	0000c194 	.word	0x0000c194
    b9a8:	0000c1a0 	.word	0x0000c1a0

0000b9ac <kfree_all>:
    b9ac:	e59f3008 	ldr	r3, [pc, #8]	; b9bc <kfree_all+0x10>
    b9b0:	e5932004 	ldr	r2, [r3, #4]
    b9b4:	e5832008 	str	r2, [r3, #8]
    b9b8:	e12fff1e 	bx	lr
    b9bc:	0000c254 	.word	0x0000c254

0000b9c0 <kfree_pop>:
    b9c0:	e59f3048 	ldr	r3, [pc, #72]	; ba10 <kfree_pop+0x50>
    b9c4:	e5933004 	ldr	r3, [r3, #4]
    b9c8:	e1530000 	cmp	r3, r0
    b9cc:	8a000006 	bhi	b9ec <kfree_pop+0x2c>
    b9d0:	e59f3038 	ldr	r3, [pc, #56]	; ba10 <kfree_pop+0x50>
    b9d4:	e5933000 	ldr	r3, [r3]
    b9d8:	e1530000 	cmp	r3, r0
    b9dc:	3a000002 	bcc	b9ec <kfree_pop+0x2c>
    b9e0:	e59f3028 	ldr	r3, [pc, #40]	; ba10 <kfree_pop+0x50>
    b9e4:	e5830008 	str	r0, [r3, #8]
    b9e8:	e12fff1e 	bx	lr
    b9ec:	e52de004 	push	{lr}		; (str lr, [sp, #-4]!)
    b9f0:	e24dd00c 	sub	sp, sp, #12, 0
    b9f4:	e58d0000 	str	r0, [sp]
    b9f8:	e3a03081 	mov	r3, #129, 0	; 0x81
    b9fc:	e59f2010 	ldr	r2, [pc, #16]	; ba14 <kfree_pop+0x54>
    ba00:	e59f1010 	ldr	r1, [pc, #16]	; ba18 <kfree_pop+0x58>
    ba04:	e59f0010 	ldr	r0, [pc, #16]	; ba1c <kfree_pop+0x5c>
    ba08:	ebfffd8e 	bl	b048 <printk>
    ba0c:	ebfffea7 	bl	b4b0 <clean_reboot>
    ba10:	0000c254 	.word	0x0000c254
    ba14:	0000c244 	.word	0x0000c244
    ba18:	0000c054 	.word	0x0000c054
    ba1c:	0000c1bc 	.word	0x0000c1bc

0000ba20 <uart_init>:
    ba20:	e92d4070 	push	{r4, r5, r6, lr}
    ba24:	ebfffeb9 	bl	b510 <dev_barrier>
    ba28:	e3a01002 	mov	r1, #2, 0
    ba2c:	e3a0000f 	mov	r0, #15, 0
    ba30:	ebfffd0a 	bl	ae60 <gpio_set_function>
    ba34:	e3a0000f 	mov	r0, #15, 0
    ba38:	ebfffd24 	bl	aed0 <gpio_set_on>
    ba3c:	e3a01002 	mov	r1, #2, 0
    ba40:	e3a0000e 	mov	r0, #14, 0
    ba44:	ebfffd05 	bl	ae60 <gpio_set_function>
    ba48:	e3a0000e 	mov	r0, #14, 0
    ba4c:	ebfffd1f 	bl	aed0 <gpio_set_on>
    ba50:	ebfffeae 	bl	b510 <dev_barrier>
    ba54:	e59f40b0 	ldr	r4, [pc, #176]	; bb0c <uart_init+0xec>
    ba58:	e1a00004 	mov	r0, r4
    ba5c:	ebfff172 	bl	802c <GET32>
    ba60:	e3801001 	orr	r1, r0, #1, 0
    ba64:	e1a00004 	mov	r0, r4
    ba68:	ebfff16d 	bl	8024 <PUT32>
    ba6c:	ebfffea7 	bl	b510 <dev_barrier>
    ba70:	e3a01000 	mov	r1, #0, 0
    ba74:	e59f0094 	ldr	r0, [pc, #148]	; bb10 <uart_init+0xf0>
    ba78:	ebfff169 	bl	8024 <PUT32>
    ba7c:	e59f0090 	ldr	r0, [pc, #144]	; bb14 <uart_init+0xf4>
    ba80:	ebfff169 	bl	802c <GET32>
    ba84:	e3100004 	tst	r0, #4, 0
    ba88:	0afffffb 	beq	ba7c <uart_init+0x5c>
    ba8c:	ebfffe9f 	bl	b510 <dev_barrier>
    ba90:	e3a01006 	mov	r1, #6, 0
    ba94:	e59f007c 	ldr	r0, [pc, #124]	; bb18 <uart_init+0xf8>
    ba98:	ebfff161 	bl	8024 <PUT32>
    ba9c:	ebfffe9b 	bl	b510 <dev_barrier>
    baa0:	e59f4074 	ldr	r4, [pc, #116]	; bb1c <uart_init+0xfc>
    baa4:	e1a00004 	mov	r0, r4
    baa8:	ebfff15f 	bl	802c <GET32>
    baac:	e3c01080 	bic	r1, r0, #128, 0	; 0x80
    bab0:	e1a00004 	mov	r0, r4
    bab4:	ebfff15a 	bl	8024 <PUT32>
    bab8:	ebfffe94 	bl	b510 <dev_barrier>
    babc:	e59f505c 	ldr	r5, [pc, #92]	; bb20 <uart_init+0x100>
    bac0:	e1a00005 	mov	r0, r5
    bac4:	ebfff158 	bl	802c <GET32>
    bac8:	e3c01003 	bic	r1, r0, #3, 0
    bacc:	e1a00005 	mov	r0, r5
    bad0:	ebfff153 	bl	8024 <PUT32>
    bad4:	ebfffe8d 	bl	b510 <dev_barrier>
    bad8:	e59f1044 	ldr	r1, [pc, #68]	; bb24 <uart_init+0x104>
    badc:	e59f0044 	ldr	r0, [pc, #68]	; bb28 <uart_init+0x108>
    bae0:	ebfff14f 	bl	8024 <PUT32>
    bae4:	e1a00004 	mov	r0, r4
    bae8:	ebfff14f 	bl	802c <GET32>
    baec:	e3801003 	orr	r1, r0, #3, 0
    baf0:	e1a00004 	mov	r0, r4
    baf4:	ebfff14a 	bl	8024 <PUT32>
    baf8:	e3a01003 	mov	r1, #3, 0
    bafc:	e59f000c 	ldr	r0, [pc, #12]	; bb10 <uart_init+0xf0>
    bb00:	ebfff147 	bl	8024 <PUT32>
    bb04:	ebfffe81 	bl	b510 <dev_barrier>
    bb08:	e8bd8070 	pop	{r4, r5, r6, pc}
    bb0c:	20215004 	.word	0x20215004
    bb10:	20215060 	.word	0x20215060
    bb14:	20215064 	.word	0x20215064
    bb18:	20215048 	.word	0x20215048
    bb1c:	2021504c 	.word	0x2021504c
    bb20:	20215044 	.word	0x20215044
    bb24:	0000010e 	.word	0x0000010e
    bb28:	20215068 	.word	0x20215068

0000bb2c <uart_can_put8>:
    bb2c:	e92d4010 	push	{r4, lr}
    bb30:	e59f000c 	ldr	r0, [pc, #12]	; bb44 <uart_can_put8+0x18>
    bb34:	ebfff13c 	bl	802c <GET32>
    bb38:	e1a002a0 	lsr	r0, r0, #5
    bb3c:	e2000001 	and	r0, r0, #1, 0
    bb40:	e8bd8010 	pop	{r4, pc}
    bb44:	20215054 	.word	0x20215054

0000bb48 <uart_put8>:
    bb48:	e92d4010 	push	{r4, lr}
    bb4c:	e1a04000 	mov	r4, r0
    bb50:	ebfffff5 	bl	bb2c <uart_can_put8>
    bb54:	e3500001 	cmp	r0, #1, 0
    bb58:	1afffffc 	bne	bb50 <uart_put8+0x8>
    bb5c:	e1a01004 	mov	r1, r4
    bb60:	e59f0008 	ldr	r0, [pc, #8]	; bb70 <uart_put8+0x28>
    bb64:	ebfff12e 	bl	8024 <PUT32>
    bb68:	e3a00000 	mov	r0, #0, 0
    bb6c:	e8bd8010 	pop	{r4, pc}
    bb70:	20215040 	.word	0x20215040

0000bb74 <uart_has_data>:
    bb74:	e92d4010 	push	{r4, lr}
    bb78:	e59f0018 	ldr	r0, [pc, #24]	; bb98 <uart_has_data+0x24>
    bb7c:	ebfff12a 	bl	802c <GET32>
    bb80:	e1a000a0 	lsr	r0, r0, #1
    bb84:	e2000003 	and	r0, r0, #3, 0
    bb88:	e3500002 	cmp	r0, #2, 0
    bb8c:	13a00000 	movne	r0, #0, 0
    bb90:	03a00001 	moveq	r0, #1, 0
    bb94:	e8bd8010 	pop	{r4, pc}
    bb98:	20215048 	.word	0x20215048

0000bb9c <uart_get8>:
    bb9c:	e92d4010 	push	{r4, lr}
    bba0:	ebfffff3 	bl	bb74 <uart_has_data>
    bba4:	e3500001 	cmp	r0, #1, 0
    bba8:	1afffffc 	bne	bba0 <uart_get8+0x4>
    bbac:	e59f0008 	ldr	r0, [pc, #8]	; bbbc <uart_get8+0x20>
    bbb0:	ebfff11d 	bl	802c <GET32>
    bbb4:	e6ef0070 	uxtb	r0, r0
    bbb8:	e8bd8010 	pop	{r4, pc}
    bbbc:	20215040 	.word	0x20215040

0000bbc0 <uart_get8_async>:
    bbc0:	e92d4010 	push	{r4, lr}
    bbc4:	ebffffea 	bl	bb74 <uart_has_data>
    bbc8:	e3500000 	cmp	r0, #0, 0
    bbcc:	0a000001 	beq	bbd8 <uart_get8_async+0x18>
    bbd0:	ebfffff1 	bl	bb9c <uart_get8>
    bbd4:	e8bd8010 	pop	{r4, pc}
    bbd8:	e3e00000 	mvn	r0, #0, 0
    bbdc:	e8bd8010 	pop	{r4, pc}

0000bbe0 <uart_tx_is_empty>:
    bbe0:	e92d4010 	push	{r4, lr}
    bbe4:	e59f000c 	ldr	r0, [pc, #12]	; bbf8 <uart_tx_is_empty+0x18>
    bbe8:	ebfff10f 	bl	802c <GET32>
    bbec:	e1a004a0 	lsr	r0, r0, #9
    bbf0:	e2000001 	and	r0, r0, #1, 0
    bbf4:	e8bd8010 	pop	{r4, pc}
    bbf8:	20215064 	.word	0x20215064

0000bbfc <uart_flush_tx>:
    bbfc:	e92d4010 	push	{r4, lr}
    bc00:	ebfffff6 	bl	bbe0 <uart_tx_is_empty>
    bc04:	e3500000 	cmp	r0, #0, 0
    bc08:	0afffffc 	beq	bc00 <uart_flush_tx+0x4>
    bc0c:	e8bd8010 	pop	{r4, pc}

0000bc10 <uart_disable>:
    bc10:	e92d4010 	push	{r4, lr}
    bc14:	ebfffe3d 	bl	b510 <dev_barrier>
    bc18:	ebfffff7 	bl	bbfc <uart_flush_tx>
    bc1c:	e3a01000 	mov	r1, #0, 0
    bc20:	e59f0024 	ldr	r0, [pc, #36]	; bc4c <uart_disable+0x3c>
    bc24:	ebfff0fe 	bl	8024 <PUT32>
    bc28:	ebfffe38 	bl	b510 <dev_barrier>
    bc2c:	e59f401c 	ldr	r4, [pc, #28]	; bc50 <uart_disable+0x40>
    bc30:	e1a00004 	mov	r0, r4
    bc34:	ebfff0fc 	bl	802c <GET32>
    bc38:	e3c01001 	bic	r1, r0, #1, 0
    bc3c:	e1a00004 	mov	r0, r4
    bc40:	ebfff0f7 	bl	8024 <PUT32>
    bc44:	ebfffe31 	bl	b510 <dev_barrier>
    bc48:	e8bd8010 	pop	{r4, pc}
    bc4c:	20215060 	.word	0x20215060
    bc50:	20215004 	.word	0x20215004

0000bc54 <putk>:
    bc54:	e92d4010 	push	{r4, lr}
    bc58:	e1a04000 	mov	r4, r0
    bc5c:	e5d40000 	ldrb	r0, [r4]
    bc60:	e3500000 	cmp	r0, #0, 0
    bc64:	0a000004 	beq	bc7c <putk+0x28>
    bc68:	e59f3014 	ldr	r3, [pc, #20]	; bc84 <putk+0x30>
    bc6c:	e5933000 	ldr	r3, [r3]
    bc70:	e12fff33 	blx	r3
    bc74:	e2844001 	add	r4, r4, #1, 0
    bc78:	eafffff7 	b	bc5c <putk+0x8>
    bc7c:	e3a00001 	mov	r0, #1, 0
    bc80:	e8bd8010 	pop	{r4, pc}
    bc84:	0000c250 	.word	0x0000c250

0000bc88 <reboot_callout>:
    bc88:	e12fff1e 	bx	lr

0000bc8c <__code_end__>:
    bc8c:	00000000 	andeq	r0, r0, r0
