
0-timing-check.elf:     file format elf32-littlearm


Disassembly of section .text:

00008000 <__code_start__>:
    8000:	e3a00013 	mov	r0, #19, 0
    8004:	e3800080 	orr	r0, r0, #128, 0	; 0x80
    8008:	e129f000 	msr	CPSR_fc, r0
    800c:	e3a01000 	mov	r1, #0, 0
    8010:	ee071f95 	mcr	15, 0, r1, cr7, cr5, {4}
    8014:	e3a0d302 	mov	sp, #134217728	; 0x8000000
    8018:	e3a0b000 	mov	fp, #0, 0
    801c:	eb0003e7 	bl	8fc0 <_cstart>
    8020:	eb000407 	bl	9044 <rpi_reboot>

00008024 <PUT32>:
    8024:	e5801000 	str	r1, [r0]
    8028:	e12fff1e 	bx	lr

0000802c <GET32>:
    802c:	e5900000 	ldr	r0, [r0]
    8030:	e12fff1e 	bx	lr

00008034 <BRANCHTO>:
    8034:	e12fff10 	bx	r0
	...

00008040 <treset>:
    8040:	e3a030bf 	mov	r3, #191, 0	; 0xbf
    8044:	e92d4010 	push	{r4, lr}
    8048:	e59f200c 	ldr	r2, [pc, #12]	; 805c <treset+0x1c>
    804c:	e59f100c 	ldr	r1, [pc, #12]	; 8060 <treset+0x20>
    8050:	e59f000c 	ldr	r0, [pc, #12]	; 8064 <treset+0x24>
    8054:	eb0001c4 	bl	876c <printk>
    8058:	eb0003cd 	bl	8f94 <clean_reboot>
    805c:	00009b20 	andeq	r9, r0, r0, lsr #22
    8060:	00009888 	andeq	r9, r0, r8, lsl #17
    8064:	00009894 	muleq	r0, r4, r8

00008068 <t0l>:
    8068:	e3a030bb 	mov	r3, #187, 0	; 0xbb
    806c:	e92d4010 	push	{r4, lr}
    8070:	e59f200c 	ldr	r2, [pc, #12]	; 8084 <t0l+0x1c>
    8074:	e59f100c 	ldr	r1, [pc, #12]	; 8088 <t0l+0x20>
    8078:	e59f000c 	ldr	r0, [pc, #12]	; 808c <t0l+0x24>
    807c:	eb0001ba 	bl	876c <printk>
    8080:	eb0003c3 	bl	8f94 <clean_reboot>
    8084:	00009b28 	andeq	r9, r0, r8, lsr #22
    8088:	00009888 	andeq	r9, r0, r8, lsl #17
    808c:	00009894 	muleq	r0, r4, r8

00008090 <t1l>:
    8090:	e3a030b7 	mov	r3, #183, 0	; 0xb7
    8094:	e92d4010 	push	{r4, lr}
    8098:	e59f200c 	ldr	r2, [pc, #12]	; 80ac <t1l+0x1c>
    809c:	e59f100c 	ldr	r1, [pc, #12]	; 80b0 <t1l+0x20>
    80a0:	e59f000c 	ldr	r0, [pc, #12]	; 80b4 <t1l+0x24>
    80a4:	eb0001b0 	bl	876c <printk>
    80a8:	eb0003b9 	bl	8f94 <clean_reboot>
    80ac:	00009b2c 	andeq	r9, r0, ip, lsr #22
    80b0:	00009888 	andeq	r9, r0, r8, lsl #17
    80b4:	00009894 	muleq	r0, r4, r8

000080b8 <t0h>:
    80b8:	e3a030b3 	mov	r3, #179, 0	; 0xb3
    80bc:	e92d4010 	push	{r4, lr}
    80c0:	e59f200c 	ldr	r2, [pc, #12]	; 80d4 <t0h+0x1c>
    80c4:	e59f100c 	ldr	r1, [pc, #12]	; 80d8 <t0h+0x20>
    80c8:	e59f000c 	ldr	r0, [pc, #12]	; 80dc <t0h+0x24>
    80cc:	eb0001a6 	bl	876c <printk>
    80d0:	eb0003af 	bl	8f94 <clean_reboot>
    80d4:	00009b30 	andeq	r9, r0, r0, lsr fp
    80d8:	00009888 	andeq	r9, r0, r8, lsl #17
    80dc:	00009894 	muleq	r0, r4, r8

000080e0 <t1h>:
    80e0:	e3a030ae 	mov	r3, #174, 0	; 0xae
    80e4:	e92d4010 	push	{r4, lr}
    80e8:	e59f200c 	ldr	r2, [pc, #12]	; 80fc <t1h+0x1c>
    80ec:	e59f100c 	ldr	r1, [pc, #12]	; 8100 <t1h+0x20>
    80f0:	e59f000c 	ldr	r0, [pc, #12]	; 8104 <t1h+0x24>
    80f4:	eb00019c 	bl	876c <printk>
    80f8:	eb0003a5 	bl	8f94 <clean_reboot>
    80fc:	00009b34 	andeq	r9, r0, r4, lsr fp
    8100:	00009888 	andeq	r9, r0, r8, lsl #17
    8104:	00009894 	muleq	r0, r4, r8

00008108 <check_delay>:
    8108:	e92d4030 	push	{r4, r5, lr}
    810c:	e1a04000 	mov	r4, r0
    8110:	e24dd014 	sub	sp, sp, #20, 0
    8114:	e1a01004 	mov	r1, r4
    8118:	e59f0078 	ldr	r0, [pc, #120]	; 8198 <check_delay+0x90>
    811c:	eb000192 	bl	876c <printk>
    8120:	ee1f5f3c 	mrc	15, 0, r5, cr15, cr12, {1}
    8124:	ee1f3f3c 	mrc	15, 0, r3, cr15, cr12, {1}
    8128:	e0435005 	sub	r5, r3, r5
    812c:	e1a01005 	mov	r1, r5
    8130:	e59f0064 	ldr	r0, [pc, #100]	; 819c <check_delay+0x94>
    8134:	eb00018c 	bl	876c <printk>
    8138:	ee1f2f3c 	mrc	15, 0, r2, cr15, cr12, {1}
    813c:	ee1fcf3c 	mrc	15, 0, ip, cr15, cr12, {1}
    8140:	e04cc002 	sub	ip, ip, r2
    8144:	e154000c 	cmp	r4, ip
    8148:	8afffffb 	bhi	813c <check_delay+0x34>
    814c:	ee1f0f3c 	mrc	15, 0, r0, cr15, cr12, {1}
    8150:	e2843010 	add	r3, r4, #16, 0
    8154:	e0402002 	sub	r2, r0, r2
    8158:	e0833005 	add	r3, r3, r5
    815c:	e1530002 	cmp	r3, r2
    8160:	3a000004 	bcc	8178 <check_delay+0x70>
    8164:	e1a01004 	mov	r1, r4
    8168:	e59f0030 	ldr	r0, [pc, #48]	; 81a0 <check_delay+0x98>
    816c:	e28dd014 	add	sp, sp, #20, 0
    8170:	e8bd4030 	pop	{r4, r5, lr}
    8174:	ea00017c 	b	876c <printk>
    8178:	e1cd20f4 	strd	r2, [sp, #4]
    817c:	e59f1020 	ldr	r1, [pc, #32]	; 81a4 <check_delay+0x9c>
    8180:	e3a030b0 	mov	r3, #176, 0	; 0xb0
    8184:	e59f201c 	ldr	r2, [pc, #28]	; 81a8 <check_delay+0xa0>
    8188:	e59f001c 	ldr	r0, [pc, #28]	; 81ac <check_delay+0xa4>
    818c:	e58d4000 	str	r4, [sp]
    8190:	eb000175 	bl	876c <printk>
    8194:	eb00037e 	bl	8f94 <clean_reboot>
    8198:	000098c0 	andeq	r9, r0, r0, asr #17
    819c:	000098dc 	ldrdeq	r9, [r0], -ip
    81a0:	00009944 	andeq	r9, r0, r4, asr #18
    81a4:	000098ec 	andeq	r9, r0, ip, ror #17
    81a8:	00009b38 	andeq	r9, r0, r8, lsr fp
    81ac:	00009900 	andeq	r9, r0, r0, lsl #18

000081b0 <time_check>:
    81b0:	e92d43f0 	push	{r4, r5, r6, r7, r8, r9, lr}
    81b4:	e1a04003 	mov	r4, r3
    81b8:	e24dd00c 	sub	sp, sp, #12, 0
    81bc:	e320f000 	nop	{0}
    81c0:	ee1f3f3c 	mrc	15, 0, r3, cr15, cr12, {1}
    81c4:	ee1f5f3c 	mrc	15, 0, r5, cr15, cr12, {1}
    81c8:	e0455003 	sub	r5, r5, r3
    81cc:	e3550008 	cmp	r5, #8, 0
    81d0:	1a000020 	bne	8258 <time_check+0xa8>
    81d4:	e1a06000 	mov	r6, r0
    81d8:	e1a08001 	mov	r8, r1
    81dc:	e1a07002 	mov	r7, r2
    81e0:	eb000386 	bl	9000 <dev_barrier>
    81e4:	e320f000 	nop	{0}
    81e8:	ee1f9f3c 	mrc	15, 0, r9, cr15, cr12, {1}
    81ec:	e1a00008 	mov	r0, r8
    81f0:	e12fff37 	blx	r7
    81f4:	ee1f5f3c 	mrc	15, 0, r5, cr15, cr12, {1}
    81f8:	e2455008 	sub	r5, r5, #8, 0
    81fc:	e0455009 	sub	r5, r5, r9
    8200:	eb00037e 	bl	9000 <dev_barrier>
    8204:	e1a03005 	mov	r3, r5
    8208:	e1a01006 	mov	r1, r6
    820c:	e1a02004 	mov	r2, r4
    8210:	e59f0064 	ldr	r0, [pc, #100]	; 827c <time_check+0xcc>
    8214:	eb000154 	bl	876c <printk>
    8218:	e2843014 	add	r3, r4, #20, 0
    821c:	e1530005 	cmp	r3, r5
    8220:	3a000004 	bcc	8238 <time_check+0x88>
    8224:	e2444014 	sub	r4, r4, #20, 0
    8228:	e1540005 	cmp	r4, r5
    822c:	8a000001 	bhi	8238 <time_check+0x88>
    8230:	e28dd00c 	add	sp, sp, #12, 0
    8234:	e8bd83f0 	pop	{r4, r5, r6, r7, r8, r9, pc}
    8238:	e59f2040 	ldr	r2, [pc, #64]	; 8280 <time_check+0xd0>
    823c:	e3a0303b 	mov	r3, #59, 0	; 0x3b
    8240:	e59f103c 	ldr	r1, [pc, #60]	; 8284 <time_check+0xd4>
    8244:	e58d2000 	str	r2, [sp]
    8248:	e59f0038 	ldr	r0, [pc, #56]	; 8288 <time_check+0xd8>
    824c:	e59f2038 	ldr	r2, [pc, #56]	; 828c <time_check+0xdc>
    8250:	eb000145 	bl	876c <printk>
    8254:	eb00034e 	bl	8f94 <clean_reboot>
    8258:	eb00015e 	bl	87d8 <rpi_reset_putc>
    825c:	e59f302c 	ldr	r3, [pc, #44]	; 8290 <time_check+0xe0>
    8260:	e59f2024 	ldr	r2, [pc, #36]	; 828c <time_check+0xdc>
    8264:	e88d0028 	stm	sp, {r3, r5}
    8268:	e59f1014 	ldr	r1, [pc, #20]	; 8284 <time_check+0xd4>
    826c:	e3a0302c 	mov	r3, #44, 0	; 0x2c
    8270:	e59f001c 	ldr	r0, [pc, #28]	; 8294 <time_check+0xe4>
    8274:	eb00013c 	bl	876c <printk>
    8278:	eb000345 	bl	8f94 <clean_reboot>
    827c:	000099c0 	andeq	r9, r0, r0, asr #19
    8280:	000099fc 	strdeq	r9, [r0], -ip
    8284:	000098ec 	andeq	r9, r0, ip, ror #17
    8288:	000099e8 	andeq	r9, r0, r8, ror #19
    828c:	00009b44 	andeq	r9, r0, r4, asr #22
    8290:	000099b4 			; <UNDEFINED> instruction: 0x000099b4
    8294:	0000997c 	andeq	r9, r0, ip, ror r9

00008298 <check_timings>:
    8298:	e92d47f0 	push	{r4, r5, r6, r7, r8, r9, sl, lr}
    829c:	e1a06000 	mov	r6, r0
    82a0:	e1a07001 	mov	r7, r1
    82a4:	e24dd008 	sub	sp, sp, #8, 0
    82a8:	ee1f1f3c 	mrc	15, 0, r1, cr15, cr12, {1}
    82ac:	ee1f4f3c 	mrc	15, 0, r4, cr15, cr12, {1}
    82b0:	e0444001 	sub	r4, r4, r1
    82b4:	e1a01004 	mov	r1, r4
    82b8:	e59f02fc 	ldr	r0, [pc, #764]	; 85bc <check_timings+0x324>
    82bc:	eb00012a 	bl	876c <printk>
    82c0:	e3540008 	cmp	r4, #8, 0
    82c4:	13570000 	cmpne	r7, #0, 0
    82c8:	0a000007 	beq	82ec <check_timings+0x54>
    82cc:	e3a03087 	mov	r3, #135, 0	; 0x87
    82d0:	e59f22e8 	ldr	r2, [pc, #744]	; 85c0 <check_timings+0x328>
    82d4:	e59f12e8 	ldr	r1, [pc, #744]	; 85c4 <check_timings+0x32c>
    82d8:	e58d2000 	str	r2, [sp]
    82dc:	e59f02e4 	ldr	r0, [pc, #740]	; 85c8 <check_timings+0x330>
    82e0:	e59f22e4 	ldr	r2, [pc, #740]	; 85cc <check_timings+0x334>
    82e4:	eb000120 	bl	876c <printk>
    82e8:	eb000329 	bl	8f94 <clean_reboot>
    82ec:	e320f000 	nop	{0}
    82f0:	e3a04001 	mov	r4, #1, 0
    82f4:	e3a08ffa 	mov	r8, #1000	; 0x3e8
    82f8:	e59f52d0 	ldr	r5, [pc, #720]	; 85d0 <check_timings+0x338>
    82fc:	e59fa2d0 	ldr	sl, [pc, #720]	; 85d4 <check_timings+0x33c>
    8300:	e1a04614 	lsl	r4, r4, r6
    8304:	e59a3004 	ldr	r3, [sl, #4]
    8308:	e585401c 	str	r4, [r5, #28]
    830c:	e585401c 	str	r4, [r5, #28]
    8310:	e585401c 	str	r4, [r5, #28]
    8314:	e585401c 	str	r4, [r5, #28]
    8318:	e585401c 	str	r4, [r5, #28]
    831c:	e585401c 	str	r4, [r5, #28]
    8320:	e585401c 	str	r4, [r5, #28]
    8324:	e585401c 	str	r4, [r5, #28]
    8328:	e585401c 	str	r4, [r5, #28]
    832c:	e585401c 	str	r4, [r5, #28]
    8330:	e585401c 	str	r4, [r5, #28]
    8334:	e585401c 	str	r4, [r5, #28]
    8338:	e585401c 	str	r4, [r5, #28]
    833c:	e585401c 	str	r4, [r5, #28]
    8340:	e585401c 	str	r4, [r5, #28]
    8344:	e585401c 	str	r4, [r5, #28]
    8348:	e585401c 	str	r4, [r5, #28]
    834c:	e585401c 	str	r4, [r5, #28]
    8350:	e585401c 	str	r4, [r5, #28]
    8354:	e585401c 	str	r4, [r5, #28]
    8358:	e585401c 	str	r4, [r5, #28]
    835c:	e585401c 	str	r4, [r5, #28]
    8360:	e585401c 	str	r4, [r5, #28]
    8364:	e585401c 	str	r4, [r5, #28]
    8368:	e585401c 	str	r4, [r5, #28]
    836c:	e585401c 	str	r4, [r5, #28]
    8370:	e585401c 	str	r4, [r5, #28]
    8374:	e585401c 	str	r4, [r5, #28]
    8378:	e585401c 	str	r4, [r5, #28]
    837c:	e585401c 	str	r4, [r5, #28]
    8380:	e585401c 	str	r4, [r5, #28]
    8384:	e585401c 	str	r4, [r5, #28]
    8388:	e585401c 	str	r4, [r5, #28]
    838c:	e585401c 	str	r4, [r5, #28]
    8390:	e585401c 	str	r4, [r5, #28]
    8394:	e585401c 	str	r4, [r5, #28]
    8398:	e585401c 	str	r4, [r5, #28]
    839c:	e585401c 	str	r4, [r5, #28]
    83a0:	e585401c 	str	r4, [r5, #28]
    83a4:	e585401c 	str	r4, [r5, #28]
    83a8:	e585401c 	str	r4, [r5, #28]
    83ac:	e585401c 	str	r4, [r5, #28]
    83b0:	e585401c 	str	r4, [r5, #28]
    83b4:	e585401c 	str	r4, [r5, #28]
    83b8:	e585401c 	str	r4, [r5, #28]
    83bc:	e585401c 	str	r4, [r5, #28]
    83c0:	e585401c 	str	r4, [r5, #28]
    83c4:	e585401c 	str	r4, [r5, #28]
    83c8:	e585401c 	str	r4, [r5, #28]
    83cc:	e585401c 	str	r4, [r5, #28]
    83d0:	e59a0004 	ldr	r0, [sl, #4]
    83d4:	e59f91fc 	ldr	r9, [pc, #508]	; 85d8 <check_timings+0x340>
    83d8:	e0400003 	sub	r0, r0, r3
    83dc:	e0000098 	mul	r0, r8, r0
    83e0:	e0810990 	umull	r0, r1, r0, r9
    83e4:	e3a02016 	mov	r2, #22, 0
    83e8:	e1a03221 	lsr	r3, r1, #4
    83ec:	e59f01e8 	ldr	r0, [pc, #488]	; 85dc <check_timings+0x344>
    83f0:	e59f11e8 	ldr	r1, [pc, #488]	; 85e0 <check_timings+0x348>
    83f4:	eb0000dc 	bl	876c <printk>
    83f8:	e320f000 	nop	{0}
    83fc:	e320f000 	nop	{0}
    8400:	e59a3004 	ldr	r3, [sl, #4]
    8404:	e5854028 	str	r4, [r5, #40]	; 0x28
    8408:	e5854028 	str	r4, [r5, #40]	; 0x28
    840c:	e5854028 	str	r4, [r5, #40]	; 0x28
    8410:	e5854028 	str	r4, [r5, #40]	; 0x28
    8414:	e5854028 	str	r4, [r5, #40]	; 0x28
    8418:	e5854028 	str	r4, [r5, #40]	; 0x28
    841c:	e5854028 	str	r4, [r5, #40]	; 0x28
    8420:	e5854028 	str	r4, [r5, #40]	; 0x28
    8424:	e5854028 	str	r4, [r5, #40]	; 0x28
    8428:	e5854028 	str	r4, [r5, #40]	; 0x28
    842c:	e5854028 	str	r4, [r5, #40]	; 0x28
    8430:	e5854028 	str	r4, [r5, #40]	; 0x28
    8434:	e5854028 	str	r4, [r5, #40]	; 0x28
    8438:	e5854028 	str	r4, [r5, #40]	; 0x28
    843c:	e5854028 	str	r4, [r5, #40]	; 0x28
    8440:	e5854028 	str	r4, [r5, #40]	; 0x28
    8444:	e5854028 	str	r4, [r5, #40]	; 0x28
    8448:	e5854028 	str	r4, [r5, #40]	; 0x28
    844c:	e5854028 	str	r4, [r5, #40]	; 0x28
    8450:	e5854028 	str	r4, [r5, #40]	; 0x28
    8454:	e5854028 	str	r4, [r5, #40]	; 0x28
    8458:	e5854028 	str	r4, [r5, #40]	; 0x28
    845c:	e5854028 	str	r4, [r5, #40]	; 0x28
    8460:	e5854028 	str	r4, [r5, #40]	; 0x28
    8464:	e5854028 	str	r4, [r5, #40]	; 0x28
    8468:	e5854028 	str	r4, [r5, #40]	; 0x28
    846c:	e5854028 	str	r4, [r5, #40]	; 0x28
    8470:	e5854028 	str	r4, [r5, #40]	; 0x28
    8474:	e5854028 	str	r4, [r5, #40]	; 0x28
    8478:	e5854028 	str	r4, [r5, #40]	; 0x28
    847c:	e5854028 	str	r4, [r5, #40]	; 0x28
    8480:	e5854028 	str	r4, [r5, #40]	; 0x28
    8484:	e5854028 	str	r4, [r5, #40]	; 0x28
    8488:	e5854028 	str	r4, [r5, #40]	; 0x28
    848c:	e5854028 	str	r4, [r5, #40]	; 0x28
    8490:	e5854028 	str	r4, [r5, #40]	; 0x28
    8494:	e5854028 	str	r4, [r5, #40]	; 0x28
    8498:	e5854028 	str	r4, [r5, #40]	; 0x28
    849c:	e5854028 	str	r4, [r5, #40]	; 0x28
    84a0:	e5854028 	str	r4, [r5, #40]	; 0x28
    84a4:	e5854028 	str	r4, [r5, #40]	; 0x28
    84a8:	e5854028 	str	r4, [r5, #40]	; 0x28
    84ac:	e5854028 	str	r4, [r5, #40]	; 0x28
    84b0:	e5854028 	str	r4, [r5, #40]	; 0x28
    84b4:	e5854028 	str	r4, [r5, #40]	; 0x28
    84b8:	e5854028 	str	r4, [r5, #40]	; 0x28
    84bc:	e5854028 	str	r4, [r5, #40]	; 0x28
    84c0:	e5854028 	str	r4, [r5, #40]	; 0x28
    84c4:	e5854028 	str	r4, [r5, #40]	; 0x28
    84c8:	e5854028 	str	r4, [r5, #40]	; 0x28
    84cc:	e59a4004 	ldr	r4, [sl, #4]
    84d0:	e3a02016 	mov	r2, #22, 0
    84d4:	e0444003 	sub	r4, r4, r3
    84d8:	e0040498 	mul	r4, r8, r4
    84dc:	e0854994 	umull	r4, r5, r4, r9
    84e0:	e59f10fc 	ldr	r1, [pc, #252]	; 85e4 <check_timings+0x34c>
    84e4:	e1a03225 	lsr	r3, r5, #4
    84e8:	e59f00ec 	ldr	r0, [pc, #236]	; 85dc <check_timings+0x344>
    84ec:	eb00009e 	bl	876c <printk>
    84f0:	ee1f4f3c 	mrc	15, 0, r4, cr15, cr12, {1}
    84f4:	e1a00008 	mov	r0, r8
    84f8:	eb0002fb 	bl	90ec <delay_ms>
    84fc:	ee1f1f3c 	mrc	15, 0, r1, cr15, cr12, {1}
    8500:	e59f20e0 	ldr	r2, [pc, #224]	; 85e8 <check_timings+0x350>
    8504:	e0411004 	sub	r1, r1, r4
    8508:	e0832291 	umull	r2, r3, r1, r2
    850c:	e1a04923 	lsr	r4, r3, #18
    8510:	e1a02004 	mov	r2, r4
    8514:	e59f00d0 	ldr	r0, [pc, #208]	; 85ec <check_timings+0x354>
    8518:	eb000093 	bl	876c <printk>
    851c:	e3570000 	cmp	r7, #0, 0
    8520:	0a000003 	beq	8534 <check_timings+0x29c>
    8524:	e2442fae 	sub	r2, r4, #696	; 0x2b8
    8528:	e2422003 	sub	r2, r2, #3, 0
    852c:	e3520002 	cmp	r2, #2, 0
    8530:	8a00001e 	bhi	85b0 <check_timings+0x318>
    8534:	e1a01006 	mov	r1, r6
    8538:	e3a03000 	mov	r3, #0, 0
    853c:	e59f20ac 	ldr	r2, [pc, #172]	; 85f0 <check_timings+0x358>
    8540:	e59f00ac 	ldr	r0, [pc, #172]	; 85f4 <check_timings+0x35c>
    8544:	ebffff19 	bl	81b0 <time_check>
    8548:	e1a01006 	mov	r1, r6
    854c:	e3a03000 	mov	r3, #0, 0
    8550:	e59f20a0 	ldr	r2, [pc, #160]	; 85f8 <check_timings+0x360>
    8554:	e59f00a0 	ldr	r0, [pc, #160]	; 85fc <check_timings+0x364>
    8558:	ebffff14 	bl	81b0 <time_check>
    855c:	e1a01006 	mov	r1, r6
    8560:	e3a03000 	mov	r3, #0, 0
    8564:	e59f2094 	ldr	r2, [pc, #148]	; 8600 <check_timings+0x368>
    8568:	e59f0094 	ldr	r0, [pc, #148]	; 8604 <check_timings+0x36c>
    856c:	ebffff0f 	bl	81b0 <time_check>
    8570:	e1a01006 	mov	r1, r6
    8574:	e3a03000 	mov	r3, #0, 0
    8578:	e59f2088 	ldr	r2, [pc, #136]	; 8608 <check_timings+0x370>
    857c:	e59f0088 	ldr	r0, [pc, #136]	; 860c <check_timings+0x374>
    8580:	ebffff0a 	bl	81b0 <time_check>
    8584:	e1a01006 	mov	r1, r6
    8588:	e59f3080 	ldr	r3, [pc, #128]	; 8610 <check_timings+0x378>
    858c:	e59f2080 	ldr	r2, [pc, #128]	; 8614 <check_timings+0x37c>
    8590:	e59f0080 	ldr	r0, [pc, #128]	; 8618 <check_timings+0x380>
    8594:	ebffff05 	bl	81b0 <time_check>
    8598:	e320f000 	nop	{0}
    859c:	e320f000 	nop	{0}
    85a0:	e59f302c 	ldr	r3, [pc, #44]	; 85d4 <check_timings+0x33c>
    85a4:	e1a00006 	mov	r0, r6
    85a8:	e5933004 	ldr	r3, [r3, #4]
    85ac:	ebfffec1 	bl	80b8 <t0h>
    85b0:	e3a03093 	mov	r3, #147, 0	; 0x93
    85b4:	e59f2060 	ldr	r2, [pc, #96]	; 861c <check_timings+0x384>
    85b8:	eaffff45 	b	82d4 <check_timings+0x3c>
    85bc:	00009a24 	andeq	r9, r0, r4, lsr #20
    85c0:	00009a34 	andeq	r9, r0, r4, lsr sl
    85c4:	000098ec 	andeq	r9, r0, ip, ror #17
    85c8:	000099e8 	andeq	r9, r0, r8, ror #19
    85cc:	00009b50 	andeq	r9, r0, r0, asr fp
    85d0:	20200000 	eorcs	r0, r0, r0
    85d4:	20003000 	andcs	r3, r0, r0
    85d8:	51eb851f 	mvnpl	r8, pc, lsl r5
    85dc:	00009a68 	andeq	r9, r0, r8, ror #20
    85e0:	00009a58 	andeq	r9, r0, r8, asr sl
    85e4:	00009a94 	muleq	r0, r4, sl
    85e8:	431bde83 	tstmi	fp, #2096	; 0x830
    85ec:	00009aa0 	andeq	r9, r0, r0, lsr #21
    85f0:	000080e0 	andeq	r8, r0, r0, ror #1
    85f4:	00009ae8 	andeq	r9, r0, r8, ror #21
    85f8:	000080b8 	strheq	r8, [r0], -r8	; <UNPREDICTABLE>
    85fc:	00009aec 	andeq	r9, r0, ip, ror #21
    8600:	00008090 	muleq	r0, r0, r0
    8604:	00009af0 	strdeq	r9, [r0], -r0
    8608:	00008068 	andeq	r8, r0, r8, rrx
    860c:	00009af4 	strdeq	r9, [r0], -r4
    8610:	000088b8 			; <UNDEFINED> instruction: 0x000088b8
    8614:	00008040 	andeq	r8, r0, r0, asr #32
    8618:	00009af8 	strdeq	r9, [r0], -r8
    861c:	00009acc 	andeq	r9, r0, ip, asr #21

00008620 <notmain>:
    8620:	e92d4010 	push	{r4, lr}
    8624:	eb000252 	bl	8f74 <enable_cache>
    8628:	e3a00015 	mov	r0, #21, 0
    862c:	eb0002d3 	bl	9180 <gpio_set_output>
    8630:	e3a00ffa 	mov	r0, #1000	; 0x3e8
    8634:	ebfffeb3 	bl	8108 <check_delay>
    8638:	e3a00064 	mov	r0, #100, 0	; 0x64
    863c:	ebfffeb1 	bl	8108 <check_delay>
    8640:	e3a0000a 	mov	r0, #10, 0
    8644:	ebfffeaf 	bl	8108 <check_delay>
    8648:	e3a00001 	mov	r0, #1, 0
    864c:	ebfffead 	bl	8108 <check_delay>
    8650:	e59f000c 	ldr	r0, [pc, #12]	; 8664 <notmain+0x44>
    8654:	eb000044 	bl	876c <printk>
    8658:	e3a01000 	mov	r1, #0, 0
    865c:	e3a00015 	mov	r0, #21, 0
    8660:	ebffff0c 	bl	8298 <check_timings>
    8664:	00009b00 	andeq	r9, r0, r0, lsl #22

00008668 <treset.isra.0>:
    8668:	e3a030bf 	mov	r3, #191, 0	; 0xbf
    866c:	e92d4010 	push	{r4, lr}
    8670:	e59f200c 	ldr	r2, [pc, #12]	; 8684 <treset.isra.0+0x1c>
    8674:	e59f100c 	ldr	r1, [pc, #12]	; 8688 <treset.isra.0+0x20>
    8678:	e59f000c 	ldr	r0, [pc, #12]	; 868c <treset.isra.0+0x24>
    867c:	eb00003a 	bl	876c <printk>
    8680:	eb000243 	bl	8f94 <clean_reboot>
    8684:	00009b6c 	andeq	r9, r0, ip, ror #22
    8688:	00009888 	andeq	r9, r0, r8, lsl #17
    868c:	00009894 	muleq	r0, r4, r8

00008690 <pix_sendpixel.isra.0>:
    8690:	e3a030df 	mov	r3, #223, 0	; 0xdf
    8694:	e92d4010 	push	{r4, lr}
    8698:	e59f200c 	ldr	r2, [pc, #12]	; 86ac <pix_sendpixel.isra.0+0x1c>
    869c:	e59f100c 	ldr	r1, [pc, #12]	; 86b0 <pix_sendpixel.isra.0+0x20>
    86a0:	e59f000c 	ldr	r0, [pc, #12]	; 86b4 <pix_sendpixel.isra.0+0x24>
    86a4:	eb000030 	bl	876c <printk>
    86a8:	eb000239 	bl	8f94 <clean_reboot>
    86ac:	00009b74 	andeq	r9, r0, r4, ror fp
    86b0:	00009888 	andeq	r9, r0, r8, lsl #17
    86b4:	00009894 	muleq	r0, r4, r8

000086b8 <neopix_flush>:
    86b8:	e92d4010 	push	{r4, lr}
    86bc:	ebffffe9 	bl	8668 <treset.isra.0>

000086c0 <neopix_init>:
    86c0:	e92d41f0 	push	{r4, r5, r6, r7, r8, lr}
    86c4:	e0817081 	add	r7, r1, r1, lsl #1
    86c8:	e2877008 	add	r7, r7, #8, 0
    86cc:	e1a06000 	mov	r6, r0
    86d0:	e1a00007 	mov	r0, r7
    86d4:	e1a05001 	mov	r5, r1
    86d8:	eb0003c1 	bl	95e4 <kmalloc>
    86dc:	e1a04000 	mov	r4, r0
    86e0:	e1a02007 	mov	r2, r7
    86e4:	e3a01000 	mov	r1, #0, 0
    86e8:	eb000019 	bl	8754 <memset>
    86ec:	e1a00006 	mov	r0, r6
    86f0:	e5845004 	str	r5, [r4, #4]
    86f4:	e5c46000 	strb	r6, [r4]
    86f8:	eb0002a0 	bl	9180 <gpio_set_output>
    86fc:	e1a00004 	mov	r0, r4
    8700:	e8bd81f0 	pop	{r4, r5, r6, r7, r8, pc}

00008704 <neopix_sendpixel>:
    8704:	e92d4010 	push	{r4, lr}
    8708:	ebffffe0 	bl	8690 <pix_sendpixel.isra.0>

0000870c <neopix_fast_clear>:
    870c:	e3510000 	cmp	r1, #0, 0
    8710:	e92d4010 	push	{r4, lr}
    8714:	0a000000 	beq	871c <neopix_fast_clear+0x10>
    8718:	ebffffdc 	bl	8690 <pix_sendpixel.isra.0>
    871c:	ebffffd1 	bl	8668 <treset.isra.0>

00008720 <neopix_clear>:
    8720:	e92d4010 	push	{r4, lr}
    8724:	e5901004 	ldr	r1, [r0, #4]
    8728:	ebfffff7 	bl	870c <neopix_fast_clear>

0000872c <neopix_write>:
    872c:	e3a03041 	mov	r3, #65, 0	; 0x41
    8730:	e92d4010 	push	{r4, lr}
    8734:	e59f200c 	ldr	r2, [pc, #12]	; 8748 <neopix_write+0x1c>
    8738:	e59f100c 	ldr	r1, [pc, #12]	; 874c <neopix_write+0x20>
    873c:	e59f000c 	ldr	r0, [pc, #12]	; 8750 <neopix_write+0x24>
    8740:	eb000009 	bl	876c <printk>
    8744:	eb000212 	bl	8f94 <clean_reboot>
    8748:	00009b84 	andeq	r9, r0, r4, lsl #23
    874c:	00009b60 	andeq	r9, r0, r0, ror #22
    8750:	00009894 	muleq	r0, r4, r8

00008754 <memset>:
    8754:	e0802002 	add	r2, r0, r2
    8758:	e1a03000 	mov	r3, r0
    875c:	e1530002 	cmp	r3, r2
    8760:	212fff1e 	bxcs	lr
    8764:	e4c31001 	strb	r1, [r3], #1
    8768:	eafffffb 	b	875c <memset+0x8>

0000876c <printk>:
    876c:	e92d000f 	push	{r0, r1, r2, r3}
    8770:	e92d4030 	push	{r4, r5, lr}
    8774:	e24dd00c 	sub	sp, sp, #12, 0
    8778:	e28d301c 	add	r3, sp, #28, 0
    877c:	e58d3004 	str	r3, [sp, #4]
    8780:	e59f5034 	ldr	r5, [pc, #52]	; 87bc <printk+0x50>
    8784:	e59d2018 	ldr	r2, [sp, #24]
    8788:	e3a01b01 	mov	r1, #1024	; 0x400
    878c:	e1a00005 	mov	r0, r5
    8790:	eb0000c9 	bl	8abc <va_printk>
    8794:	e1a04000 	mov	r4, r0
    8798:	e59f3020 	ldr	r3, [pc, #32]	; 87c0 <printk+0x54>
    879c:	e5933000 	ldr	r3, [r3]
    87a0:	e1a00005 	mov	r0, r5
    87a4:	e12fff33 	blx	r3
    87a8:	e1a00004 	mov	r0, r4
    87ac:	e28dd00c 	add	sp, sp, #12, 0
    87b0:	e8bd4030 	pop	{r4, r5, lr}
    87b4:	e28dd010 	add	sp, sp, #16, 0
    87b8:	e12fff1e 	bx	lr
    87bc:	00009f18 	andeq	r9, r0, r8, lsl pc
    87c0:	00009f08 	andeq	r9, r0, r8, lsl #30

000087c4 <internal_putchar>:
    87c4:	e92d4010 	push	{r4, lr}
    87c8:	e1a04000 	mov	r4, r0
    87cc:	eb0002ef 	bl	9390 <uart_putc>
    87d0:	e1a00004 	mov	r0, r4
    87d4:	e8bd8010 	pop	{r4, pc}

000087d8 <rpi_reset_putc>:
    87d8:	e59f3008 	ldr	r3, [pc, #8]	; 87e8 <rpi_reset_putc+0x10>
    87dc:	e59f2008 	ldr	r2, [pc, #8]	; 87ec <rpi_reset_putc+0x14>
    87e0:	e5832000 	str	r2, [r3]
    87e4:	e12fff1e 	bx	lr
    87e8:	00009f04 	andeq	r9, r0, r4, lsl #30
    87ec:	000087c4 	andeq	r8, r0, r4, asr #15

000087f0 <rpi_set_putc>:
    87f0:	e59f3004 	ldr	r3, [pc, #4]	; 87fc <rpi_set_putc+0xc>
    87f4:	e5830000 	str	r0, [r3]
    87f8:	e12fff1e 	bx	lr
    87fc:	00009f04 	andeq	r9, r0, r4, lsl #30

00008800 <internal_putk>:
    8800:	e92d4010 	push	{r4, lr}
    8804:	e1a04000 	mov	r4, r0
    8808:	e5d40000 	ldrb	r0, [r4]
    880c:	e3500000 	cmp	r0, #0, 0
    8810:	0a000004 	beq	8828 <internal_putk+0x28>
    8814:	e59f3014 	ldr	r3, [pc, #20]	; 8830 <internal_putk+0x30>
    8818:	e5933000 	ldr	r3, [r3]
    881c:	e12fff33 	blx	r3
    8820:	e2844001 	add	r4, r4, #1, 0
    8824:	eafffff7 	b	8808 <internal_putk+0x8>
    8828:	e3a00001 	mov	r0, #1, 0
    882c:	e8bd8010 	pop	{r4, pc}
    8830:	00009f04 	andeq	r9, r0, r4, lsl #30

00008834 <isdigit>:
    8834:	e2400030 	sub	r0, r0, #48, 0	; 0x30
    8838:	e3500009 	cmp	r0, #9, 0
    883c:	83a00000 	movhi	r0, #0, 0
    8840:	93a00001 	movls	r0, #1, 0
    8844:	e12fff1e 	bx	lr

00008848 <pad>:
    8848:	e0401001 	sub	r1, r0, r1
    884c:	e1510002 	cmp	r1, r2
    8850:	b3a03020 	movlt	r3, #32, 0
    8854:	b4c03001 	strblt	r3, [r0], #1
    8858:	b2811001 	addlt	r1, r1, #1, 0
    885c:	bafffffa 	blt	884c <pad+0x4>
    8860:	e3a03000 	mov	r3, #0, 0
    8864:	e5c03000 	strb	r3, [r0]
    8868:	e12fff1e 	bx	lr

0000886c <reverse>:
    886c:	e042c003 	sub	ip, r2, r3
    8870:	e28cc001 	add	ip, ip, #1, 0
    8874:	e15c0001 	cmp	ip, r1
    8878:	c04cc001 	subgt	ip, ip, r1
    887c:	c083300c 	addgt	r3, r3, ip
    8880:	e2421001 	sub	r1, r2, #1, 0
    8884:	e1a02000 	mov	r2, r0
    8888:	e1510003 	cmp	r1, r3
    888c:	2451c001 	ldrbcs	ip, [r1], #-1
    8890:	24c2c001 	strbcs	ip, [r2], #1
    8894:	2afffffb 	bcs	8888 <reverse+0x1c>
    8898:	e3a03000 	mov	r3, #0, 0
    889c:	e5c23000 	strb	r3, [r2]
    88a0:	e12fff1e 	bx	lr

000088a4 <emit>:
    88a4:	e92d40f0 	push	{r4, r5, r6, r7, lr}
    88a8:	e24dd04c 	sub	sp, sp, #76, 0	; 0x4c
    88ac:	e1a05001 	mov	r5, r1
    88b0:	e1a04002 	mov	r4, r2
    88b4:	e59d2060 	ldr	r2, [sp, #96]	; 0x60
    88b8:	e1520004 	cmp	r2, r4
    88bc:	c2442001 	subgt	r2, r4, #1, 0
    88c0:	e1a0c003 	mov	ip, r3
    88c4:	e2400002 	sub	r0, r0, #2, 0
    88c8:	e350000e 	cmp	r0, #14, 0
    88cc:	979ff100 	ldrls	pc, [pc, r0, lsl #2]
    88d0:	ea000050 	b	8a18 <emit+0x174>
    88d4:	000089f0 	strdeq	r8, [r0], -r0
    88d8:	00008a18 	andeq	r8, r0, r8, lsl sl
    88dc:	00008a18 	andeq	r8, r0, r8, lsl sl
    88e0:	00008a18 	andeq	r8, r0, r8, lsl sl
    88e4:	00008a18 	andeq	r8, r0, r8, lsl sl
    88e8:	00008a18 	andeq	r8, r0, r8, lsl sl
    88ec:	000089e4 	andeq	r8, r0, r4, ror #19
    88f0:	00008a18 	andeq	r8, r0, r8, lsl sl
    88f4:	00008910 	andeq	r8, r0, r0, lsl r9
    88f8:	00008a18 	andeq	r8, r0, r8, lsl sl
    88fc:	00008a18 	andeq	r8, r0, r8, lsl sl
    8900:	00008a18 	andeq	r8, r0, r8, lsl sl
    8904:	00008a18 	andeq	r8, r0, r8, lsl sl
    8908:	00008a18 	andeq	r8, r0, r8, lsl sl
    890c:	00008988 	andeq	r8, r0, r8, lsl #19
    8910:	e59d1064 	ldr	r1, [sp, #100]	; 0x64
    8914:	e2511000 	subs	r1, r1, #0, 0
    8918:	13a01001 	movne	r1, #1, 0
    891c:	e0111fa3 	ands	r1, r1, r3, lsr #31
    8920:	0a000016 	beq	8980 <emit+0xdc>
    8924:	e263c000 	rsb	ip, r3, #0, 0
    8928:	e3a06001 	mov	r6, #1, 0
    892c:	e28d0008 	add	r0, sp, #8, 0
    8930:	e59f3100 	ldr	r3, [pc, #256]	; 8a38 <emit+0x194>
    8934:	e0831c93 	umull	r1, r3, r3, ip
    8938:	e1a031a3 	lsr	r3, r3, #3
    893c:	e1a0e003 	mov	lr, r3
    8940:	e0833103 	add	r3, r3, r3, lsl #2
    8944:	e04c3083 	sub	r3, ip, r3, lsl #1
    8948:	e1a01000 	mov	r1, r0
    894c:	e2800001 	add	r0, r0, #1, 0
    8950:	e59f70e4 	ldr	r7, [pc, #228]	; 8a3c <emit+0x198>
    8954:	e7d73003 	ldrb	r3, [r7, r3]
    8958:	e5c13000 	strb	r3, [r1]
    895c:	e1a0300c 	mov	r3, ip
    8960:	e1a0c00e 	mov	ip, lr
    8964:	e3530009 	cmp	r3, #9, 0
    8968:	8afffff0 	bhi	8930 <emit+0x8c>
    896c:	e3560000 	cmp	r6, #0, 0
    8970:	13a0302d 	movne	r3, #45, 0	; 0x2d
    8974:	15c03000 	strbne	r3, [r0]
    8978:	12810002 	addne	r0, r1, #2, 0
    897c:	ea00000f 	b	89c0 <emit+0x11c>
    8980:	e3a06000 	mov	r6, #0, 0
    8984:	eaffffe8 	b	892c <emit+0x88>
    8988:	e28d1008 	add	r1, sp, #8, 0
    898c:	e20c000f 	and	r0, ip, #15, 0
    8990:	e59fe0a8 	ldr	lr, [pc, #168]	; 8a40 <emit+0x19c>
    8994:	e7de0000 	ldrb	r0, [lr, r0]
    8998:	e5c10000 	strb	r0, [r1]
    899c:	e2811001 	add	r1, r1, #1, 0
    89a0:	e35c000f 	cmp	ip, #15, 0
    89a4:	e1a0c22c 	lsr	ip, ip, #4
    89a8:	8afffff7 	bhi	898c <emit+0xe8>
    89ac:	e1a00001 	mov	r0, r1
    89b0:	e3a03078 	mov	r3, #120, 0	; 0x78
    89b4:	e4c03002 	strb	r3, [r0], #2
    89b8:	e3a03030 	mov	r3, #48, 0	; 0x30
    89bc:	e5c13001 	strb	r3, [r1, #1]
    89c0:	e28d1008 	add	r1, sp, #8, 0
    89c4:	ebffff9f 	bl	8848 <pad>
    89c8:	e1a02000 	mov	r2, r0
    89cc:	e28d3008 	add	r3, sp, #8, 0
    89d0:	e1a01004 	mov	r1, r4
    89d4:	e1a00005 	mov	r0, r5
    89d8:	ebffffa3 	bl	886c <reverse>
    89dc:	e28dd04c 	add	sp, sp, #76, 0	; 0x4c
    89e0:	e8bd80f0 	pop	{r4, r5, r6, r7, pc}
    89e4:	e5cd3008 	strb	r3, [sp, #8]
    89e8:	e28d0009 	add	r0, sp, #9, 0
    89ec:	eafffff3 	b	89c0 <emit+0x11c>
    89f0:	e28d0008 	add	r0, sp, #8, 0
    89f4:	e20c1001 	and	r1, ip, #1, 0
    89f8:	e59fe044 	ldr	lr, [pc, #68]	; 8a44 <emit+0x1a0>
    89fc:	e7de1001 	ldrb	r1, [lr, r1]
    8a00:	e5c01000 	strb	r1, [r0]
    8a04:	e2800001 	add	r0, r0, #1, 0
    8a08:	e35c0001 	cmp	ip, #1, 0
    8a0c:	e1a0c0ac 	lsr	ip, ip, #1
    8a10:	8afffff7 	bhi	89f4 <emit+0x150>
    8a14:	eaffffe9 	b	89c0 <emit+0x11c>
    8a18:	e59f3028 	ldr	r3, [pc, #40]	; 8a48 <emit+0x1a4>
    8a1c:	e58d3000 	str	r3, [sp]
    8a20:	e3a03079 	mov	r3, #121, 0	; 0x79
    8a24:	e59f2020 	ldr	r2, [pc, #32]	; 8a4c <emit+0x1a8>
    8a28:	e59f1020 	ldr	r1, [pc, #32]	; 8a50 <emit+0x1ac>
    8a2c:	e59f0020 	ldr	r0, [pc, #32]	; 8a54 <emit+0x1b0>
    8a30:	ebffff4d 	bl	876c <printk>
    8a34:	eb000156 	bl	8f94 <clean_reboot>
    8a38:	cccccccd 	stclgt	12, cr12, [ip], {205}	; 0xcd
    8a3c:	00009bac 	andeq	r9, r0, ip, lsr #23
    8a40:	00009bb8 			; <UNDEFINED> instruction: 0x00009bb8
    8a44:	00009bcc 	andeq	r9, r0, ip, asr #23
    8a48:	00009ba8 	andeq	r9, r0, r8, lsr #23
    8a4c:	00009cd8 	ldrdeq	r9, [r0], -r8
    8a50:	00009b94 	muleq	r0, r4, fp
    8a54:	000099e8 	andeq	r9, r0, r8, ror #19

00008a58 <rpi_set_output>:
    8a58:	e3500000 	cmp	r0, #0, 0
    8a5c:	0a000006 	beq	8a7c <rpi_set_output+0x24>
    8a60:	e59f303c 	ldr	r3, [pc, #60]	; 8aa4 <rpi_set_output+0x4c>
    8a64:	e5830000 	str	r0, [r3]
    8a68:	e3510000 	cmp	r1, #0, 0
    8a6c:	012fff1e 	bxeq	lr
    8a70:	e59f3030 	ldr	r3, [pc, #48]	; 8aa8 <rpi_set_output+0x50>
    8a74:	e5831000 	str	r1, [r3]
    8a78:	e12fff1e 	bx	lr
    8a7c:	e52de004 	push	{lr}		; (str lr, [sp, #-4]!)
    8a80:	e24dd00c 	sub	sp, sp, #12, 0
    8a84:	e59f3020 	ldr	r3, [pc, #32]	; 8aac <rpi_set_output+0x54>
    8a88:	e58d3000 	str	r3, [sp]
    8a8c:	e3a03020 	mov	r3, #32, 0
    8a90:	e59f2018 	ldr	r2, [pc, #24]	; 8ab0 <rpi_set_output+0x58>
    8a94:	e59f1018 	ldr	r1, [pc, #24]	; 8ab4 <rpi_set_output+0x5c>
    8a98:	e59f0018 	ldr	r0, [pc, #24]	; 8ab8 <rpi_set_output+0x60>
    8a9c:	ebffff32 	bl	876c <printk>
    8aa0:	eb00013b 	bl	8f94 <clean_reboot>
    8aa4:	00009f04 	andeq	r9, r0, r4, lsl #30
    8aa8:	00009f08 	andeq	r9, r0, r8, lsl #30
    8aac:	00009bd0 	ldrdeq	r9, [r0], -r0
    8ab0:	00009ce0 	andeq	r9, r0, r0, ror #25
    8ab4:	00009b94 	muleq	r0, r4, fp
    8ab8:	000099e8 	andeq	r9, r0, r8, ror #19

00008abc <va_printk>:
    8abc:	e92d4ff0 	push	{r4, r5, r6, r7, r8, r9, sl, fp, lr}
    8ac0:	e24ddf45 	sub	sp, sp, #276	; 0x114
    8ac4:	e1a09000 	mov	r9, r0
    8ac8:	e58d2008 	str	r2, [sp, #8]
    8acc:	e58d300c 	str	r3, [sp, #12]
    8ad0:	e2411001 	sub	r1, r1, #1, 0
    8ad4:	e0808001 	add	r8, r0, r1
    8ad8:	e3a03000 	mov	r3, #0, 0
    8adc:	e5c03000 	strb	r3, [r0]
    8ae0:	e1a04000 	mov	r4, r0
    8ae4:	e1a06002 	mov	r6, r2
    8ae8:	ea000001 	b	8af4 <va_printk+0x38>
    8aec:	e2866001 	add	r6, r6, #1, 0
    8af0:	e4c43001 	strb	r3, [r4], #1
    8af4:	e5d63000 	ldrb	r3, [r6]
    8af8:	e3530000 	cmp	r3, #0, 0
    8afc:	0a000108 	beq	8f24 <va_printk+0x468>
    8b00:	e1540008 	cmp	r4, r8
    8b04:	2a000106 	bcs	8f24 <va_printk+0x468>
    8b08:	e3530025 	cmp	r3, #37, 0	; 0x25
    8b0c:	1afffff6 	bne	8aec <va_printk+0x30>
    8b10:	e5d62001 	ldrb	r2, [r6, #1]
    8b14:	e3520025 	cmp	r2, #37, 0	; 0x25
    8b18:	04c43001 	strbeq	r3, [r4], #1
    8b1c:	02866002 	addeq	r6, r6, #2, 0
    8b20:	0afffff3 	beq	8af4 <va_printk+0x38>
    8b24:	e2866001 	add	r6, r6, #1, 0
    8b28:	e3a05000 	mov	r5, #0, 0
    8b2c:	e5d67000 	ldrb	r7, [r6]
    8b30:	e1a0a007 	mov	sl, r7
    8b34:	e1a00007 	mov	r0, r7
    8b38:	ebffff3d 	bl	8834 <isdigit>
    8b3c:	e3500000 	cmp	r0, #0, 0
    8b40:	0a000004 	beq	8b58 <va_printk+0x9c>
    8b44:	e0855105 	add	r5, r5, r5, lsl #2
    8b48:	e0875085 	add	r5, r7, r5, lsl #1
    8b4c:	e2455030 	sub	r5, r5, #48, 0	; 0x30
    8b50:	e2866001 	add	r6, r6, #1, 0
    8b54:	eafffff4 	b	8b2c <va_printk+0x70>
    8b58:	e355001f 	cmp	r5, #31, 0
    8b5c:	8a00001a 	bhi	8bcc <va_printk+0x110>
    8b60:	e2477062 	sub	r7, r7, #98, 0	; 0x62
    8b64:	e3570016 	cmp	r7, #22, 0
    8b68:	979ff107 	ldrls	pc, [pc, r7, lsl #2]
    8b6c:	ea0000d4 	b	8ec4 <va_printk+0x408>
    8b70:	00008e48 	andeq	r8, r0, r8, asr #28
    8b74:	00008e90 	muleq	r0, r0, lr
    8b78:	00008da8 	andeq	r8, r0, r8, lsr #27
    8b7c:	00008ec4 	andeq	r8, r0, r4, asr #29
    8b80:	00008d90 	muleq	r0, r0, sp
    8b84:	00008ec4 	andeq	r8, r0, r4, asr #29
    8b88:	00008ec4 	andeq	r8, r0, r4, asr #29
    8b8c:	00008ec4 	andeq	r8, r0, r4, asr #29
    8b90:	00008ec4 	andeq	r8, r0, r4, asr #29
    8b94:	00008ec4 	andeq	r8, r0, r4, asr #29
    8b98:	00008bec 	andeq	r8, r0, ip, ror #23
    8b9c:	00008ec4 	andeq	r8, r0, r4, asr #29
    8ba0:	00008ec4 	andeq	r8, r0, r4, asr #29
    8ba4:	00008ec4 	andeq	r8, r0, r4, asr #29
    8ba8:	00008e14 	andeq	r8, r0, r4, lsl lr
    8bac:	00008ec4 	andeq	r8, r0, r4, asr #29
    8bb0:	00008ec4 	andeq	r8, r0, r4, asr #29
    8bb4:	00008e7c 	andeq	r8, r0, ip, ror lr
    8bb8:	00008ec4 	andeq	r8, r0, r4, asr #29
    8bbc:	00008de0 	andeq	r8, r0, r0, ror #27
    8bc0:	00008ec4 	andeq	r8, r0, r4, asr #29
    8bc4:	00008ec4 	andeq	r8, r0, r4, asr #29
    8bc8:	00008e14 	andeq	r8, r0, r4, lsl lr
    8bcc:	e59f3364 	ldr	r3, [pc, #868]	; 8f38 <va_printk+0x47c>
    8bd0:	e58d3000 	str	r3, [sp]
    8bd4:	e3a03098 	mov	r3, #152, 0	; 0x98
    8bd8:	e59f235c 	ldr	r2, [pc, #860]	; 8f3c <va_printk+0x480>
    8bdc:	e59f135c 	ldr	r1, [pc, #860]	; 8f40 <va_printk+0x484>
    8be0:	e59f035c 	ldr	r0, [pc, #860]	; 8f44 <va_printk+0x488>
    8be4:	ebfffee0 	bl	876c <printk>
    8be8:	eb0000e9 	bl	8f94 <clean_reboot>
    8bec:	e3a02003 	mov	r2, #3, 0
    8bf0:	e59f1350 	ldr	r1, [pc, #848]	; 8f48 <va_printk+0x48c>
    8bf4:	e1a00006 	mov	r0, r6
    8bf8:	eb000316 	bl	9858 <strncmp>
    8bfc:	e3500000 	cmp	r0, #0, 0
    8c00:	0a000005 	beq	8c1c <va_printk+0x160>
    8c04:	e3a02003 	mov	r2, #3, 0
    8c08:	e59f133c 	ldr	r1, [pc, #828]	; 8f4c <va_printk+0x490>
    8c0c:	e1a00006 	mov	r0, r6
    8c10:	eb000310 	bl	9858 <strncmp>
    8c14:	e3500000 	cmp	r0, #0, 0
    8c18:	1a000033 	bne	8cec <va_printk+0x230>
    8c1c:	e286b002 	add	fp, r6, #2, 0
    8c20:	e59d300c 	ldr	r3, [sp, #12]
    8c24:	e2833007 	add	r3, r3, #7, 0
    8c28:	e3c33007 	bic	r3, r3, #7, 0
    8c2c:	e2832008 	add	r2, r3, #8, 0
    8c30:	e58d200c 	str	r2, [sp, #12]
    8c34:	e593a000 	ldr	sl, [r3]
    8c38:	e5937004 	ldr	r7, [r3, #4]
    8c3c:	e1a01007 	mov	r1, r7
    8c40:	e59f0308 	ldr	r0, [pc, #776]	; 8f50 <va_printk+0x494>
    8c44:	ebfffec8 	bl	876c <printk>
    8c48:	e1a0100a 	mov	r1, sl
    8c4c:	e59f0300 	ldr	r0, [pc, #768]	; 8f54 <va_printk+0x498>
    8c50:	ebfffec5 	bl	876c <printk>
    8c54:	e3a02003 	mov	r2, #3, 0
    8c58:	e59f12e8 	ldr	r1, [pc, #744]	; 8f48 <va_printk+0x48c>
    8c5c:	e1a00006 	mov	r0, r6
    8c60:	eb0002fc 	bl	9858 <strncmp>
    8c64:	e3500000 	cmp	r0, #0, 0
    8c68:	0a000027 	beq	8d0c <va_printk+0x250>
    8c6c:	e3a02003 	mov	r2, #3, 0
    8c70:	e59f12d4 	ldr	r1, [pc, #724]	; 8f4c <va_printk+0x490>
    8c74:	e1a00006 	mov	r0, r6
    8c78:	eb0002f6 	bl	9858 <strncmp>
    8c7c:	e3500000 	cmp	r0, #0, 0
    8c80:	1a00003b 	bne	8d74 <va_printk+0x2b8>
    8c84:	e3a06000 	mov	r6, #0, 0
    8c88:	e58d6004 	str	r6, [sp, #4]
    8c8c:	e58d5000 	str	r5, [sp]
    8c90:	e1a03007 	mov	r3, r7
    8c94:	e3a02080 	mov	r2, #128, 0	; 0x80
    8c98:	e28d1010 	add	r1, sp, #16, 0
    8c9c:	e3a0000a 	mov	r0, #10, 0
    8ca0:	ebfffeff 	bl	88a4 <emit>
    8ca4:	e1a07000 	mov	r7, r0
    8ca8:	e58d6004 	str	r6, [sp, #4]
    8cac:	e58d5000 	str	r5, [sp]
    8cb0:	e1a0300a 	mov	r3, sl
    8cb4:	e3a02080 	mov	r2, #128, 0	; 0x80
    8cb8:	e28d1090 	add	r1, sp, #144, 0	; 0x90
    8cbc:	e3a0000a 	mov	r0, #10, 0
    8cc0:	ebfffef7 	bl	88a4 <emit>
    8cc4:	e59f128c 	ldr	r1, [pc, #652]	; 8f58 <va_printk+0x49c>
    8cc8:	e28d0010 	add	r0, sp, #16, 0
    8ccc:	eb0002ce 	bl	980c <strcmp>
    8cd0:	e1500006 	cmp	r0, r6
    8cd4:	1a000021 	bne	8d60 <va_printk+0x2a4>
    8cd8:	e28d1090 	add	r1, sp, #144, 0	; 0x90
    8cdc:	e28d0010 	add	r0, sp, #16, 0
    8ce0:	eb0002d4 	bl	9838 <strcpy>
    8ce4:	e1a0600b 	mov	r6, fp
    8ce8:	ea00003a 	b	8dd8 <va_printk+0x31c>
    8cec:	e59f3268 	ldr	r3, [pc, #616]	; 8f5c <va_printk+0x4a0>
    8cf0:	e58d3000 	str	r3, [sp]
    8cf4:	e3a0309f 	mov	r3, #159, 0	; 0x9f
    8cf8:	e59f223c 	ldr	r2, [pc, #572]	; 8f3c <va_printk+0x480>
    8cfc:	e59f123c 	ldr	r1, [pc, #572]	; 8f40 <va_printk+0x484>
    8d00:	e59f023c 	ldr	r0, [pc, #572]	; 8f44 <va_printk+0x488>
    8d04:	ebfffe98 	bl	876c <printk>
    8d08:	eb0000a1 	bl	8f94 <clean_reboot>
    8d0c:	e3a06000 	mov	r6, #0, 0
    8d10:	e58d6004 	str	r6, [sp, #4]
    8d14:	e58d5000 	str	r5, [sp]
    8d18:	e1a03007 	mov	r3, r7
    8d1c:	e3a02080 	mov	r2, #128, 0	; 0x80
    8d20:	e28d1010 	add	r1, sp, #16, 0
    8d24:	e3a00010 	mov	r0, #16, 0
    8d28:	ebfffedd 	bl	88a4 <emit>
    8d2c:	e1a07000 	mov	r7, r0
    8d30:	e58d6004 	str	r6, [sp, #4]
    8d34:	e58d5000 	str	r5, [sp]
    8d38:	e1a0300a 	mov	r3, sl
    8d3c:	e3a02080 	mov	r2, #128, 0	; 0x80
    8d40:	e28d1090 	add	r1, sp, #144, 0	; 0x90
    8d44:	e3a00010 	mov	r0, #16, 0
    8d48:	ebfffed5 	bl	88a4 <emit>
    8d4c:	e28d1092 	add	r1, sp, #146, 0	; 0x92
    8d50:	e28d0010 	add	r0, sp, #16, 0
    8d54:	eb00029f 	bl	97d8 <strcat>
    8d58:	e1a0600b 	mov	r6, fp
    8d5c:	ea00001d 	b	8dd8 <va_printk+0x31c>
    8d60:	e28d1090 	add	r1, sp, #144, 0	; 0x90
    8d64:	e28d0010 	add	r0, sp, #16, 0
    8d68:	eb00029a 	bl	97d8 <strcat>
    8d6c:	e1a0600b 	mov	r6, fp
    8d70:	ea000018 	b	8dd8 <va_printk+0x31c>
    8d74:	e58d6000 	str	r6, [sp]
    8d78:	e3a030b6 	mov	r3, #182, 0	; 0xb6
    8d7c:	e59f21b8 	ldr	r2, [pc, #440]	; 8f3c <va_printk+0x480>
    8d80:	e59f11b8 	ldr	r1, [pc, #440]	; 8f40 <va_printk+0x484>
    8d84:	e59f01d4 	ldr	r0, [pc, #468]	; 8f60 <va_printk+0x4a4>
    8d88:	ebfffe77 	bl	876c <printk>
    8d8c:	eb000080 	bl	8f94 <clean_reboot>
    8d90:	e3a030be 	mov	r3, #190, 0	; 0xbe
    8d94:	e59f21a0 	ldr	r2, [pc, #416]	; 8f3c <va_printk+0x480>
    8d98:	e59f11a0 	ldr	r1, [pc, #416]	; 8f40 <va_printk+0x484>
    8d9c:	e59f01c0 	ldr	r0, [pc, #448]	; 8f64 <va_printk+0x4a8>
    8da0:	ebfffe71 	bl	876c <printk>
    8da4:	eb00007a 	bl	8f94 <clean_reboot>
    8da8:	e59d300c 	ldr	r3, [sp, #12]
    8dac:	e2832004 	add	r2, r3, #4, 0
    8db0:	e58d200c 	str	r2, [sp, #12]
    8db4:	e5933000 	ldr	r3, [r3]
    8db8:	e3a02001 	mov	r2, #1, 0
    8dbc:	e58d2004 	str	r2, [sp, #4]
    8dc0:	e58d5000 	str	r5, [sp]
    8dc4:	e3a02080 	mov	r2, #128, 0	; 0x80
    8dc8:	e28d1010 	add	r1, sp, #16, 0
    8dcc:	e3a0000a 	mov	r0, #10, 0
    8dd0:	ebfffeb3 	bl	88a4 <emit>
    8dd4:	e1a07000 	mov	r7, r0
    8dd8:	e2866001 	add	r6, r6, #1, 0
    8ddc:	ea00004a 	b	8f0c <va_printk+0x450>
    8de0:	e59d300c 	ldr	r3, [sp, #12]
    8de4:	e2832004 	add	r2, r3, #4, 0
    8de8:	e58d200c 	str	r2, [sp, #12]
    8dec:	e5933000 	ldr	r3, [r3]
    8df0:	e3a02000 	mov	r2, #0, 0
    8df4:	e58d2004 	str	r2, [sp, #4]
    8df8:	e58d5000 	str	r5, [sp]
    8dfc:	e3a02080 	mov	r2, #128, 0	; 0x80
    8e00:	e28d1010 	add	r1, sp, #16, 0
    8e04:	e3a0000a 	mov	r0, #10, 0
    8e08:	ebfffea5 	bl	88a4 <emit>
    8e0c:	e1a07000 	mov	r7, r0
    8e10:	eafffff0 	b	8dd8 <va_printk+0x31c>
    8e14:	e59d300c 	ldr	r3, [sp, #12]
    8e18:	e2832004 	add	r2, r3, #4, 0
    8e1c:	e58d200c 	str	r2, [sp, #12]
    8e20:	e5933000 	ldr	r3, [r3]
    8e24:	e3a02000 	mov	r2, #0, 0
    8e28:	e58d2004 	str	r2, [sp, #4]
    8e2c:	e58d5000 	str	r5, [sp]
    8e30:	e3a02080 	mov	r2, #128, 0	; 0x80
    8e34:	e28d1010 	add	r1, sp, #16, 0
    8e38:	e3a00010 	mov	r0, #16, 0
    8e3c:	ebfffe98 	bl	88a4 <emit>
    8e40:	e1a07000 	mov	r7, r0
    8e44:	eaffffe3 	b	8dd8 <va_printk+0x31c>
    8e48:	e59d300c 	ldr	r3, [sp, #12]
    8e4c:	e2832004 	add	r2, r3, #4, 0
    8e50:	e58d200c 	str	r2, [sp, #12]
    8e54:	e5933000 	ldr	r3, [r3]
    8e58:	e3a02000 	mov	r2, #0, 0
    8e5c:	e58d2004 	str	r2, [sp, #4]
    8e60:	e58d5000 	str	r5, [sp]
    8e64:	e3a02080 	mov	r2, #128, 0	; 0x80
    8e68:	e28d1010 	add	r1, sp, #16, 0
    8e6c:	e3a00002 	mov	r0, #2, 0
    8e70:	ebfffe8b 	bl	88a4 <emit>
    8e74:	e1a07000 	mov	r7, r0
    8e78:	eaffffd6 	b	8dd8 <va_printk+0x31c>
    8e7c:	e59d300c 	ldr	r3, [sp, #12]
    8e80:	e2832004 	add	r2, r3, #4, 0
    8e84:	e58d200c 	str	r2, [sp, #12]
    8e88:	e5937000 	ldr	r7, [r3]
    8e8c:	eaffffd1 	b	8dd8 <va_printk+0x31c>
    8e90:	e59d300c 	ldr	r3, [sp, #12]
    8e94:	e2832004 	add	r2, r3, #4, 0
    8e98:	e58d200c 	str	r2, [sp, #12]
    8e9c:	e5933000 	ldr	r3, [r3]
    8ea0:	e3a02000 	mov	r2, #0, 0
    8ea4:	e58d2004 	str	r2, [sp, #4]
    8ea8:	e58d5000 	str	r5, [sp]
    8eac:	e3a02080 	mov	r2, #128, 0	; 0x80
    8eb0:	e28d1010 	add	r1, sp, #16, 0
    8eb4:	e3a00008 	mov	r0, #8, 0
    8eb8:	ebfffe79 	bl	88a4 <emit>
    8ebc:	e1a07000 	mov	r7, r0
    8ec0:	eaffffc4 	b	8dd8 <va_printk+0x31c>
    8ec4:	e3a03000 	mov	r3, #0, 0
    8ec8:	e5c63001 	strb	r3, [r6, #1]
    8ecc:	e1a0200a 	mov	r2, sl
    8ed0:	e1a0100a 	mov	r1, sl
    8ed4:	e59f008c 	ldr	r0, [pc, #140]	; 8f68 <va_printk+0x4ac>
    8ed8:	ebfffe23 	bl	876c <printk>
    8edc:	e59f3088 	ldr	r3, [pc, #136]	; 8f6c <va_printk+0x4b0>
    8ee0:	e5933000 	ldr	r3, [r3]
    8ee4:	e59d0008 	ldr	r0, [sp, #8]
    8ee8:	e12fff33 	blx	r3
    8eec:	e3a030e2 	mov	r3, #226, 0	; 0xe2
    8ef0:	e59f2044 	ldr	r2, [pc, #68]	; 8f3c <va_printk+0x480>
    8ef4:	e59f1044 	ldr	r1, [pc, #68]	; 8f40 <va_printk+0x484>
    8ef8:	e59f0070 	ldr	r0, [pc, #112]	; 8f70 <va_printk+0x4b4>
    8efc:	ebfffe1a 	bl	876c <printk>
    8f00:	eb000023 	bl	8f94 <clean_reboot>
    8f04:	e2877001 	add	r7, r7, #1, 0
    8f08:	e4c43001 	strb	r3, [r4], #1
    8f0c:	e1540008 	cmp	r4, r8
    8f10:	2afffef7 	bcs	8af4 <va_printk+0x38>
    8f14:	e5d73000 	ldrb	r3, [r7]
    8f18:	e3530000 	cmp	r3, #0, 0
    8f1c:	1afffff8 	bne	8f04 <va_printk+0x448>
    8f20:	eafffef3 	b	8af4 <va_printk+0x38>
    8f24:	e3a03000 	mov	r3, #0, 0
    8f28:	e4c43001 	strb	r3, [r4], #1
    8f2c:	e0440009 	sub	r0, r4, r9
    8f30:	e28ddf45 	add	sp, sp, #276	; 0x114
    8f34:	e8bd8ff0 	pop	{r4, r5, r6, r7, r8, r9, sl, fp, pc}
    8f38:	00009bd8 	ldrdeq	r9, [r0], -r8
    8f3c:	00009cf0 	strdeq	r9, [r0], -r0
    8f40:	00009b94 	muleq	r0, r4, fp
    8f44:	000099e8 	andeq	r9, r0, r8, ror #19
    8f48:	00009be4 	andeq	r9, r0, r4, ror #23
    8f4c:	00009be8 	andeq	r9, r0, r8, ror #23
    8f50:	00009bec 	andeq	r9, r0, ip, ror #23
    8f54:	00009bf4 	strdeq	r9, [r0], -r4
    8f58:	00009ba8 	andeq	r9, r0, r8, lsr #23
    8f5c:	00009bfc 	strdeq	r9, [r0], -ip
    8f60:	00009c38 	andeq	r9, r0, r8, lsr ip
    8f64:	00009c60 	andeq	r9, r0, r0, ror #24
    8f68:	00009c88 	andeq	r9, r0, r8, lsl #25
    8f6c:	00009f08 	andeq	r9, r0, r8, lsl #30
    8f70:	00009cb8 			; <UNDEFINED> instruction: 0x00009cb8

00008f74 <enable_cache>:
    8f74:	ee113f10 	mrc	15, 0, r3, cr1, cr0, {0}
    8f78:	e3833b06 	orr	r3, r3, #6144	; 0x1800
    8f7c:	ee013f10 	mcr	15, 0, r3, cr1, cr0, {0}
    8f80:	e12fff1e 	bx	lr

00008f84 <disable_cache>:
    8f84:	ee113f10 	mrc	15, 0, r3, cr1, cr0, {0}
    8f88:	e3c33b06 	bic	r3, r3, #6144	; 0x1800
    8f8c:	ee013f10 	mcr	15, 0, r3, cr1, cr0, {0}
    8f90:	e12fff1e 	bx	lr

00008f94 <clean_reboot>:
    8f94:	e92d4010 	push	{r4, lr}
    8f98:	e59f3018 	ldr	r3, [pc, #24]	; 8fb8 <clean_reboot+0x24>
    8f9c:	e5933000 	ldr	r3, [r3]
    8fa0:	e59f0014 	ldr	r0, [pc, #20]	; 8fbc <clean_reboot+0x28>
    8fa4:	e12fff33 	blx	r3
    8fa8:	eb000110 	bl	93f0 <uart_flush_tx>
    8fac:	e3a0000a 	mov	r0, #10, 0
    8fb0:	eb00004d 	bl	90ec <delay_ms>
    8fb4:	eb000022 	bl	9044 <rpi_reboot>
    8fb8:	00009f08 	andeq	r9, r0, r8, lsl #30
    8fbc:	00009cfc 	strdeq	r9, [r0], -ip

00008fc0 <_cstart>:
    8fc0:	e92d4010 	push	{r4, lr}
    8fc4:	eb00000c 	bl	8ffc <custom_loader>
    8fc8:	e59f3024 	ldr	r3, [pc, #36]	; 8ff4 <_cstart+0x34>
    8fcc:	e59f2024 	ldr	r2, [pc, #36]	; 8ff8 <_cstart+0x38>
    8fd0:	e1530002 	cmp	r3, r2
    8fd4:	33a02000 	movcc	r2, #0, 0
    8fd8:	34832004 	strcc	r2, [r3], #4
    8fdc:	3afffffa 	bcc	8fcc <_cstart+0xc>
    8fe0:	eb0000a4 	bl	9278 <uart_init>
    8fe4:	e3a03001 	mov	r3, #1, 0
    8fe8:	ee0f3f1c 	mcr	15, 0, r3, cr15, cr12, {0}
    8fec:	ebfffd8b 	bl	8620 <notmain>
    8ff0:	ebffffe7 	bl	8f94 <clean_reboot>
    8ff4:	00009f18 	andeq	r9, r0, r8, lsl pc
    8ff8:	0000a320 	andeq	sl, r0, r0, lsr #6

00008ffc <custom_loader>:
    8ffc:	e12fff1e 	bx	lr

00009000 <dev_barrier>:
    9000:	ea000002 	b	9010 <dsb>

00009004 <dmb>:
    9004:	e3a00000 	mov	r0, #0, 0
    9008:	ee070fba 	mcr	15, 0, r0, cr7, cr10, {5}
    900c:	e12fff1e 	bx	lr

00009010 <dsb>:
    9010:	ee070f9a 	mcr	15, 0, r0, cr7, cr10, {4}
    9014:	e12fff1e 	bx	lr

00009018 <at_user_level>:
    9018:	e10f0000 	mrs	r0, CPSR
    901c:	e200001f 	and	r0, r0, #31, 0
    9020:	e3500010 	cmp	r0, #16, 0
    9024:	13a00000 	movne	r0, #0, 0
    9028:	03a00001 	moveq	r0, #1, 0
    902c:	e12fff1e 	bx	lr

00009030 <set_user_level>:
    9030:	e10f3000 	mrs	r3, CPSR
    9034:	e3c3301f 	bic	r3, r3, #31, 0
    9038:	e3833010 	orr	r3, r3, #16, 0
    903c:	e129f003 	msr	CPSR_fc, r3
    9040:	e12fff1e 	bx	lr

00009044 <rpi_reboot>:
    9044:	e92d4010 	push	{r4, lr}
    9048:	ebfffff2 	bl	9018 <at_user_level>
    904c:	e3500000 	cmp	r0, #0, 0
    9050:	1a00000a 	bne	9080 <rpi_reboot+0x3c>
    9054:	eb00020a 	bl	9884 <reboot_callout>
    9058:	eb0000e4 	bl	93f0 <uart_flush_tx>
    905c:	e3a0000a 	mov	r0, #10, 0
    9060:	eb000021 	bl	90ec <delay_ms>
    9064:	e59f101c 	ldr	r1, [pc, #28]	; 9088 <rpi_reboot+0x44>
    9068:	e59f001c 	ldr	r0, [pc, #28]	; 908c <rpi_reboot+0x48>
    906c:	ebfffbec 	bl	8024 <PUT32>
    9070:	e59f1018 	ldr	r1, [pc, #24]	; 9090 <rpi_reboot+0x4c>
    9074:	e59f0018 	ldr	r0, [pc, #24]	; 9094 <rpi_reboot+0x50>
    9078:	ebfffbe9 	bl	8024 <PUT32>
    907c:	eafffffe 	b	907c <rpi_reboot+0x38>
    9080:	ebffffea 	bl	9030 <set_user_level>
    9084:	eafffff2 	b	9054 <rpi_reboot+0x10>
    9088:	5a000001 	bpl	9094 <rpi_reboot+0x50>
    908c:	20100024 	andscs	r0, r0, r4, lsr #32
    9090:	5a000020 	bpl	9118 <delay_sec+0x14>
    9094:	2010001c 	andscs	r0, r0, ip, lsl r0

00009098 <timer_get_usec_raw>:
    9098:	e92d4010 	push	{r4, lr}
    909c:	e59f0004 	ldr	r0, [pc, #4]	; 90a8 <timer_get_usec_raw+0x10>
    90a0:	ebfffbe1 	bl	802c <GET32>
    90a4:	e8bd8010 	pop	{r4, pc}
    90a8:	20003004 	andcs	r3, r0, r4

000090ac <timer_get_usec>:
    90ac:	e92d4010 	push	{r4, lr}
    90b0:	ebffffd2 	bl	9000 <dev_barrier>
    90b4:	ebfffff7 	bl	9098 <timer_get_usec_raw>
    90b8:	e1a04000 	mov	r4, r0
    90bc:	ebffffcf 	bl	9000 <dev_barrier>
    90c0:	e1a00004 	mov	r0, r4
    90c4:	e8bd8010 	pop	{r4, pc}

000090c8 <delay_us>:
    90c8:	e92d4070 	push	{r4, r5, r6, lr}
    90cc:	e1a05000 	mov	r5, r0
    90d0:	ebfffff5 	bl	90ac <timer_get_usec>
    90d4:	e1a04000 	mov	r4, r0
    90d8:	ebfffff3 	bl	90ac <timer_get_usec>
    90dc:	e0400004 	sub	r0, r0, r4
    90e0:	e1500005 	cmp	r0, r5
    90e4:	3afffffb 	bcc	90d8 <delay_us+0x10>
    90e8:	e8bd8070 	pop	{r4, r5, r6, pc}

000090ec <delay_ms>:
    90ec:	e92d4010 	push	{r4, lr}
    90f0:	e0603280 	rsb	r3, r0, r0, lsl #5
    90f4:	e0800103 	add	r0, r0, r3, lsl #2
    90f8:	e1a00180 	lsl	r0, r0, #3
    90fc:	ebfffff1 	bl	90c8 <delay_us>
    9100:	e8bd8010 	pop	{r4, pc}

00009104 <delay_sec>:
    9104:	e92d4010 	push	{r4, lr}
    9108:	e0603280 	rsb	r3, r0, r0, lsl #5
    910c:	e0800103 	add	r0, r0, r3, lsl #2
    9110:	e1a00180 	lsl	r0, r0, #3
    9114:	ebfffff4 	bl	90ec <delay_ms>
    9118:	e8bd8010 	pop	{r4, pc}

0000911c <gpio_set_function>:
    911c:	e350001f 	cmp	r0, #31, 0
    9120:	812fff1e 	bxhi	lr
    9124:	e92d4070 	push	{r4, r5, r6, lr}
    9128:	e1a05001 	mov	r5, r1
    912c:	e3d13007 	bics	r3, r1, #7, 0
    9130:	18bd8070 	popne	{r4, r5, r6, pc}
    9134:	e59f3040 	ldr	r3, [pc, #64]	; 917c <gpio_set_function+0x60>
    9138:	e0832093 	umull	r2, r3, r3, r0
    913c:	e1a031a3 	lsr	r3, r3, #3
    9140:	e1a02003 	mov	r2, r3
    9144:	e0833103 	add	r3, r3, r3, lsl #2
    9148:	e0403083 	sub	r3, r0, r3, lsl #1
    914c:	e0834083 	add	r4, r3, r3, lsl #1
    9150:	e2820302 	add	r0, r2, #134217728	; 0x8000000
    9154:	e2800702 	add	r0, r0, #524288	; 0x80000
    9158:	e1a06100 	lsl	r6, r0, #2
    915c:	e1a00006 	mov	r0, r6
    9160:	ebfffbb1 	bl	802c <GET32>
    9164:	e3a01007 	mov	r1, #7, 0
    9168:	e1c01411 	bic	r1, r0, r1, lsl r4
    916c:	e1811415 	orr	r1, r1, r5, lsl r4
    9170:	e1a00006 	mov	r0, r6
    9174:	ebfffbaa 	bl	8024 <PUT32>
    9178:	e8bd8070 	pop	{r4, r5, r6, pc}
    917c:	cccccccd 	stclgt	12, cr12, [ip], {205}	; 0xcd

00009180 <gpio_set_output>:
    9180:	e92d4010 	push	{r4, lr}
    9184:	e3a01001 	mov	r1, #1, 0
    9188:	ebffffe3 	bl	911c <gpio_set_function>
    918c:	e8bd8010 	pop	{r4, pc}

00009190 <gpio_set_on>:
    9190:	e350001f 	cmp	r0, #31, 0
    9194:	812fff1e 	bxhi	lr
    9198:	e92d4010 	push	{r4, lr}
    919c:	e3a01001 	mov	r1, #1, 0
    91a0:	e1a01011 	lsl	r1, r1, r0
    91a4:	e59f0004 	ldr	r0, [pc, #4]	; 91b0 <gpio_set_on+0x20>
    91a8:	ebfffb9d 	bl	8024 <PUT32>
    91ac:	e8bd8010 	pop	{r4, pc}
    91b0:	2020001c 	eorcs	r0, r0, ip, lsl r0

000091b4 <gpio_set_off>:
    91b4:	e350001f 	cmp	r0, #31, 0
    91b8:	812fff1e 	bxhi	lr
    91bc:	e92d4010 	push	{r4, lr}
    91c0:	e3a01001 	mov	r1, #1, 0
    91c4:	e1a01011 	lsl	r1, r1, r0
    91c8:	e59f0004 	ldr	r0, [pc, #4]	; 91d4 <gpio_set_off+0x20>
    91cc:	ebfffb94 	bl	8024 <PUT32>
    91d0:	e8bd8010 	pop	{r4, pc}
    91d4:	20200028 	eorcs	r0, r0, r8, lsr #32

000091d8 <gpio_set_input>:
    91d8:	e92d4010 	push	{r4, lr}
    91dc:	e3a01000 	mov	r1, #0, 0
    91e0:	ebffffcd 	bl	911c <gpio_set_function>
    91e4:	e8bd8010 	pop	{r4, pc}

000091e8 <gpio_write>:
    91e8:	e92d4010 	push	{r4, lr}
    91ec:	e3510000 	cmp	r1, #0, 0
    91f0:	0a000001 	beq	91fc <gpio_write+0x14>
    91f4:	ebffffe5 	bl	9190 <gpio_set_on>
    91f8:	e8bd8010 	pop	{r4, pc}
    91fc:	ebffffec 	bl	91b4 <gpio_set_off>
    9200:	e8bd8010 	pop	{r4, pc}

00009204 <gpio_read>:
    9204:	e350001f 	cmp	r0, #31, 0
    9208:	8a000007 	bhi	922c <gpio_read+0x28>
    920c:	e92d4010 	push	{r4, lr}
    9210:	e200401f 	and	r4, r0, #31, 0
    9214:	e59f3018 	ldr	r3, [pc, #24]	; 9234 <gpio_read+0x30>
    9218:	e08302a0 	add	r0, r3, r0, lsr #5
    921c:	ebfffb82 	bl	802c <GET32>
    9220:	e1a00430 	lsr	r0, r0, r4
    9224:	e2000001 	and	r0, r0, #1, 0
    9228:	e8bd8010 	pop	{r4, pc}
    922c:	e3e00000 	mvn	r0, #0, 0
    9230:	e12fff1e 	bx	lr
    9234:	20200034 	eorcs	r0, r0, r4, lsr r0

00009238 <and_in32>:
    9238:	e92d4070 	push	{r4, r5, r6, lr}
    923c:	e1a04000 	mov	r4, r0
    9240:	e1a05001 	mov	r5, r1
    9244:	ebfffb78 	bl	802c <GET32>
    9248:	e0001005 	and	r1, r0, r5
    924c:	e1a00004 	mov	r0, r4
    9250:	ebfffb73 	bl	8024 <PUT32>
    9254:	e8bd8070 	pop	{r4, r5, r6, pc}

00009258 <or_in32>:
    9258:	e92d4070 	push	{r4, r5, r6, lr}
    925c:	e1a04000 	mov	r4, r0
    9260:	e1a05001 	mov	r5, r1
    9264:	ebfffb70 	bl	802c <GET32>
    9268:	e1801005 	orr	r1, r0, r5
    926c:	e1a00004 	mov	r0, r4
    9270:	ebfffb6b 	bl	8024 <PUT32>
    9274:	e8bd8070 	pop	{r4, r5, r6, pc}

00009278 <uart_init>:
    9278:	e92d4010 	push	{r4, lr}
    927c:	e3a01002 	mov	r1, #2, 0
    9280:	e3a0000e 	mov	r0, #14, 0
    9284:	ebffffa4 	bl	911c <gpio_set_function>
    9288:	e3a01002 	mov	r1, #2, 0
    928c:	e3a0000f 	mov	r0, #15, 0
    9290:	ebffffa1 	bl	911c <gpio_set_function>
    9294:	ebffff59 	bl	9000 <dev_barrier>
    9298:	e3a01001 	mov	r1, #1, 0
    929c:	e59f0064 	ldr	r0, [pc, #100]	; 9308 <uart_init+0x90>
    92a0:	ebffffec 	bl	9258 <or_in32>
    92a4:	ebffff55 	bl	9000 <dev_barrier>
    92a8:	e59f405c 	ldr	r4, [pc, #92]	; 930c <uart_init+0x94>
    92ac:	e3a01000 	mov	r1, #0, 0
    92b0:	e1a00004 	mov	r0, r4
    92b4:	ebfffb5a 	bl	8024 <PUT32>
    92b8:	e3a01000 	mov	r1, #0, 0
    92bc:	e59f004c 	ldr	r0, [pc, #76]	; 9310 <uart_init+0x98>
    92c0:	ebfffb57 	bl	8024 <PUT32>
    92c4:	e3a01003 	mov	r1, #3, 0
    92c8:	e59f0044 	ldr	r0, [pc, #68]	; 9314 <uart_init+0x9c>
    92cc:	ebfffb54 	bl	8024 <PUT32>
    92d0:	e3a01000 	mov	r1, #0, 0
    92d4:	e59f003c 	ldr	r0, [pc, #60]	; 9318 <uart_init+0xa0>
    92d8:	ebfffb51 	bl	8024 <PUT32>
    92dc:	e3a010c7 	mov	r1, #199, 0	; 0xc7
    92e0:	e59f0034 	ldr	r0, [pc, #52]	; 931c <uart_init+0xa4>
    92e4:	ebfffb4e 	bl	8024 <PUT32>
    92e8:	e59f1030 	ldr	r1, [pc, #48]	; 9320 <uart_init+0xa8>
    92ec:	e59f0030 	ldr	r0, [pc, #48]	; 9324 <uart_init+0xac>
    92f0:	ebfffb4b 	bl	8024 <PUT32>
    92f4:	e3a01003 	mov	r1, #3, 0
    92f8:	e1a00004 	mov	r0, r4
    92fc:	ebfffb48 	bl	8024 <PUT32>
    9300:	ebffff3e 	bl	9000 <dev_barrier>
    9304:	e8bd8010 	pop	{r4, pc}
    9308:	20215004 	eorcs	r5, r1, r4
    930c:	20215060 	eorcs	r5, r1, r0, rrx
    9310:	20215044 	eorcs	r5, r1, r4, asr #32
    9314:	2021504c 	eorcs	r5, r1, ip, asr #32
    9318:	20215050 	eorcs	r5, r1, r0, asr r0
    931c:	20215048 	eorcs	r5, r1, r8, asr #32
    9320:	0000010e 	andeq	r0, r0, lr, lsl #2
    9324:	20215068 	eorcs	r5, r1, r8, rrx

00009328 <uart_can_getc>:
    9328:	e92d4010 	push	{r4, lr}
    932c:	e59f0008 	ldr	r0, [pc, #8]	; 933c <uart_can_getc+0x14>
    9330:	ebfffb3d 	bl	802c <GET32>
    9334:	e2000001 	and	r0, r0, #1, 0
    9338:	e8bd8010 	pop	{r4, pc}
    933c:	20215064 	eorcs	r5, r1, r4, rrx

00009340 <uart_can_putc>:
    9340:	e92d4010 	push	{r4, lr}
    9344:	e59f0010 	ldr	r0, [pc, #16]	; 935c <uart_can_putc+0x1c>
    9348:	ebfffb37 	bl	802c <GET32>
    934c:	e3100002 	tst	r0, #2, 0
    9350:	13a00001 	movne	r0, #1, 0
    9354:	03a00000 	moveq	r0, #0, 0
    9358:	e8bd8010 	pop	{r4, pc}
    935c:	20215064 	eorcs	r5, r1, r4, rrx

00009360 <uart_getc>:
    9360:	e92d4010 	push	{r4, lr}
    9364:	ebffff25 	bl	9000 <dev_barrier>
    9368:	ebffffee 	bl	9328 <uart_can_getc>
    936c:	e3500000 	cmp	r0, #0, 0
    9370:	0afffffc 	beq	9368 <uart_getc+0x8>
    9374:	e59f0010 	ldr	r0, [pc, #16]	; 938c <uart_getc+0x2c>
    9378:	ebfffb2b 	bl	802c <GET32>
    937c:	e6ef4070 	uxtb	r4, r0
    9380:	ebffff1e 	bl	9000 <dev_barrier>
    9384:	e1a00004 	mov	r0, r4
    9388:	e8bd8010 	pop	{r4, pc}
    938c:	20215040 	eorcs	r5, r1, r0, asr #32

00009390 <uart_putc>:
    9390:	e92d4010 	push	{r4, lr}
    9394:	e1a04000 	mov	r4, r0
    9398:	ebffff18 	bl	9000 <dev_barrier>
    939c:	ebffffe7 	bl	9340 <uart_can_putc>
    93a0:	e3500000 	cmp	r0, #0, 0
    93a4:	0afffffc 	beq	939c <uart_putc+0xc>
    93a8:	e6ef1074 	uxtb	r1, r4
    93ac:	e59f0008 	ldr	r0, [pc, #8]	; 93bc <uart_putc+0x2c>
    93b0:	ebfffb1b 	bl	8024 <PUT32>
    93b4:	ebffff11 	bl	9000 <dev_barrier>
    93b8:	e8bd8010 	pop	{r4, pc}
    93bc:	20215040 	eorcs	r5, r1, r0, asr #32

000093c0 <uart_has_data>:
    93c0:	e92d4010 	push	{r4, lr}
    93c4:	ebffff0d 	bl	9000 <dev_barrier>
    93c8:	ebffffd6 	bl	9328 <uart_can_getc>
    93cc:	e8bd8010 	pop	{r4, pc}

000093d0 <uart_tx_is_empty>:
    93d0:	e92d4010 	push	{r4, lr}
    93d4:	ebffff09 	bl	9000 <dev_barrier>
    93d8:	e59f000c 	ldr	r0, [pc, #12]	; 93ec <uart_tx_is_empty+0x1c>
    93dc:	ebfffb12 	bl	802c <GET32>
    93e0:	e1a004a0 	lsr	r0, r0, #9
    93e4:	e2000001 	and	r0, r0, #1, 0
    93e8:	e8bd8010 	pop	{r4, pc}
    93ec:	20215064 	eorcs	r5, r1, r4, rrx

000093f0 <uart_flush_tx>:
    93f0:	e92d4010 	push	{r4, lr}
    93f4:	ebfffff5 	bl	93d0 <uart_tx_is_empty>
    93f8:	e3500000 	cmp	r0, #0, 0
    93fc:	0afffffc 	beq	93f4 <uart_flush_tx+0x4>
    9400:	e8bd8010 	pop	{r4, pc}

00009404 <uart_disable>:
    9404:	e92d4010 	push	{r4, lr}
    9408:	ebfffff8 	bl	93f0 <uart_flush_tx>
    940c:	ebfffefb 	bl	9000 <dev_barrier>
    9410:	e3e01001 	mvn	r1, #1, 0
    9414:	e59f0008 	ldr	r0, [pc, #8]	; 9424 <uart_disable+0x20>
    9418:	ebffff86 	bl	9238 <and_in32>
    941c:	ebfffef7 	bl	9000 <dev_barrier>
    9420:	e8bd8010 	pop	{r4, pc}
    9424:	20215004 	eorcs	r5, r1, r4

00009428 <kmalloc_heap_end>:
    9428:	e59f3004 	ldr	r3, [pc, #4]	; 9434 <kmalloc_heap_end+0xc>
    942c:	e5930000 	ldr	r0, [r3]
    9430:	e12fff1e 	bx	lr
    9434:	00009f0c 	andeq	r9, r0, ip, lsl #30

00009438 <kmalloc_heap_start>:
    9438:	e59f3004 	ldr	r3, [pc, #4]	; 9444 <kmalloc_heap_start+0xc>
    943c:	e5930004 	ldr	r0, [r3, #4]
    9440:	e12fff1e 	bx	lr
    9444:	00009f0c 	andeq	r9, r0, ip, lsl #30

00009448 <kmalloc_heap_ptr>:
    9448:	e59f3004 	ldr	r3, [pc, #4]	; 9454 <kmalloc_heap_ptr+0xc>
    944c:	e5930008 	ldr	r0, [r3, #8]
    9450:	e12fff1e 	bx	lr
    9454:	00009f0c 	andeq	r9, r0, ip, lsl #30

00009458 <kmalloc_init_set_start>:
    9458:	e52de004 	push	{lr}		; (str lr, [sp, #-4]!)
    945c:	e24dd00c 	sub	sp, sp, #12, 0
    9460:	e3510000 	cmp	r1, #0, 0
    9464:	0a00000a 	beq	9494 <kmalloc_init_set_start+0x3c>
    9468:	e59f306c 	ldr	r3, [pc, #108]	; 94dc <kmalloc_init_set_start+0x84>
    946c:	e5933008 	ldr	r3, [r3, #8]
    9470:	e1530000 	cmp	r3, r0
    9474:	8a00000e 	bhi	94b4 <kmalloc_init_set_start+0x5c>
    9478:	e59f305c 	ldr	r3, [pc, #92]	; 94dc <kmalloc_init_set_start+0x84>
    947c:	e5830008 	str	r0, [r3, #8]
    9480:	e5830004 	str	r0, [r3, #4]
    9484:	e0800001 	add	r0, r0, r1
    9488:	e5830000 	str	r0, [r3]
    948c:	e28dd00c 	add	sp, sp, #12, 0
    9490:	e49df004 	pop	{pc}		; (ldr pc, [sp], #4)
    9494:	e59f3044 	ldr	r3, [pc, #68]	; 94e0 <kmalloc_init_set_start+0x88>
    9498:	e58d3000 	str	r3, [sp]
    949c:	e3a03030 	mov	r3, #48, 0	; 0x30
    94a0:	e59f203c 	ldr	r2, [pc, #60]	; 94e4 <kmalloc_init_set_start+0x8c>
    94a4:	e59f103c 	ldr	r1, [pc, #60]	; 94e8 <kmalloc_init_set_start+0x90>
    94a8:	e59f003c 	ldr	r0, [pc, #60]	; 94ec <kmalloc_init_set_start+0x94>
    94ac:	ebfffcae 	bl	876c <printk>
    94b0:	ebfffeb7 	bl	8f94 <clean_reboot>
    94b4:	e59f3020 	ldr	r3, [pc, #32]	; 94dc <kmalloc_init_set_start+0x84>
    94b8:	e5933000 	ldr	r3, [r3]
    94bc:	e58d3004 	str	r3, [sp, #4]
    94c0:	e58d0000 	str	r0, [sp]
    94c4:	e3a03034 	mov	r3, #52, 0	; 0x34
    94c8:	e59f2014 	ldr	r2, [pc, #20]	; 94e4 <kmalloc_init_set_start+0x8c>
    94cc:	e59f1014 	ldr	r1, [pc, #20]	; 94e8 <kmalloc_init_set_start+0x90>
    94d0:	e59f0018 	ldr	r0, [pc, #24]	; 94f0 <kmalloc_init_set_start+0x98>
    94d4:	ebfffca4 	bl	876c <printk>
    94d8:	ebfffead 	bl	8f94 <clean_reboot>
    94dc:	00009f0c 	andeq	r9, r0, ip, lsl #30
    94e0:	00009d14 	andeq	r9, r0, r4, lsl sp
    94e4:	00009ea0 	andeq	r9, r0, r0, lsr #29
    94e8:	00009d08 	andeq	r9, r0, r8, lsl #26
    94ec:	000099e8 	andeq	r9, r0, r8, ror #19
    94f0:	00009d20 	andeq	r9, r0, r0, lsr #26

000094f4 <kmalloc_init>:
    94f4:	e92d4010 	push	{r4, lr}
    94f8:	e59f303c 	ldr	r3, [pc, #60]	; 953c <kmalloc_init+0x48>
    94fc:	e5933000 	ldr	r3, [r3]
    9500:	e3530000 	cmp	r3, #0, 0
    9504:	1a000006 	bne	9524 <kmalloc_init+0x30>
    9508:	e59f302c 	ldr	r3, [pc, #44]	; 953c <kmalloc_init+0x48>
    950c:	e3a02001 	mov	r2, #1, 0
    9510:	e5832000 	str	r2, [r3]
    9514:	e3a01201 	mov	r1, #268435456	; 0x10000000
    9518:	e3a00601 	mov	r0, #1048576	; 0x100000
    951c:	ebffffcd 	bl	9458 <kmalloc_init_set_start>
    9520:	e8bd8010 	pop	{r4, pc}
    9524:	e3a03040 	mov	r3, #64, 0	; 0x40
    9528:	e59f2010 	ldr	r2, [pc, #16]	; 9540 <kmalloc_init+0x4c>
    952c:	e59f1010 	ldr	r1, [pc, #16]	; 9544 <kmalloc_init+0x50>
    9530:	e59f0010 	ldr	r0, [pc, #16]	; 9548 <kmalloc_init+0x54>
    9534:	ebfffc8c 	bl	876c <printk>
    9538:	ebfffe95 	bl	8f94 <clean_reboot>
    953c:	0000a318 	andeq	sl, r0, r8, lsl r3
    9540:	00009eb8 			; <UNDEFINED> instruction: 0x00009eb8
    9544:	00009d08 	andeq	r9, r0, r8, lsl #26
    9548:	00009d64 	andeq	r9, r0, r4, ror #26

0000954c <kmalloc_notzero>:
    954c:	e52de004 	push	{lr}		; (str lr, [sp, #-4]!)
    9550:	e24dd00c 	sub	sp, sp, #12, 0
    9554:	e3500000 	cmp	r0, #0, 0
    9558:	0a00000a 	beq	9588 <kmalloc_notzero+0x3c>
    955c:	e2800007 	add	r0, r0, #7, 0
    9560:	e3c03007 	bic	r3, r0, #7, 0
    9564:	e59f2060 	ldr	r2, [pc, #96]	; 95cc <kmalloc_notzero+0x80>
    9568:	e5920008 	ldr	r0, [r2, #8]
    956c:	e0801003 	add	r1, r0, r3
    9570:	e5821008 	str	r1, [r2, #8]
    9574:	e5922000 	ldr	r2, [r2]
    9578:	e1510002 	cmp	r1, r2
    957c:	8a000009 	bhi	95a8 <kmalloc_notzero+0x5c>
    9580:	e28dd00c 	add	sp, sp, #12, 0
    9584:	e49df004 	pop	{pc}		; (ldr pc, [sp], #4)
    9588:	e59f3040 	ldr	r3, [pc, #64]	; 95d0 <kmalloc_notzero+0x84>
    958c:	e58d3000 	str	r3, [sp]
    9590:	e3a03048 	mov	r3, #72, 0	; 0x48
    9594:	e59f2038 	ldr	r2, [pc, #56]	; 95d4 <kmalloc_notzero+0x88>
    9598:	e59f1038 	ldr	r1, [pc, #56]	; 95d8 <kmalloc_notzero+0x8c>
    959c:	e59f0038 	ldr	r0, [pc, #56]	; 95dc <kmalloc_notzero+0x90>
    95a0:	ebfffc71 	bl	876c <printk>
    95a4:	ebfffe7a 	bl	8f94 <clean_reboot>
    95a8:	e0422000 	sub	r2, r2, r0
    95ac:	e58d2004 	str	r2, [sp, #4]
    95b0:	e58d3000 	str	r3, [sp]
    95b4:	e3a0304e 	mov	r3, #78, 0	; 0x4e
    95b8:	e59f2014 	ldr	r2, [pc, #20]	; 95d4 <kmalloc_notzero+0x88>
    95bc:	e59f1014 	ldr	r1, [pc, #20]	; 95d8 <kmalloc_notzero+0x8c>
    95c0:	e59f0018 	ldr	r0, [pc, #24]	; 95e0 <kmalloc_notzero+0x94>
    95c4:	ebfffc68 	bl	876c <printk>
    95c8:	ebfffe71 	bl	8f94 <clean_reboot>
    95cc:	00009f0c 	andeq	r9, r0, ip, lsl #30
    95d0:	00009d18 	andeq	r9, r0, r8, lsl sp
    95d4:	00009ec8 	andeq	r9, r0, r8, asr #29
    95d8:	00009d08 	andeq	r9, r0, r8, lsl #26
    95dc:	000099e8 	andeq	r9, r0, r8, ror #19
    95e0:	00009d94 	muleq	r0, r4, sp

000095e4 <kmalloc>:
    95e4:	e92d4030 	push	{r4, r5, lr}
    95e8:	e24dd00c 	sub	sp, sp, #12, 0
    95ec:	e2504000 	subs	r4, r0, #0, 0
    95f0:	0a000008 	beq	9618 <kmalloc+0x34>
    95f4:	e1a00004 	mov	r0, r4
    95f8:	ebffffd3 	bl	954c <kmalloc_notzero>
    95fc:	e1a05000 	mov	r5, r0
    9600:	e1a02004 	mov	r2, r4
    9604:	e3a01000 	mov	r1, #0, 0
    9608:	ebfffc51 	bl	8754 <memset>
    960c:	e1a00005 	mov	r0, r5
    9610:	e28dd00c 	add	sp, sp, #12, 0
    9614:	e8bd8030 	pop	{r4, r5, pc}
    9618:	e59f3018 	ldr	r3, [pc, #24]	; 9638 <kmalloc+0x54>
    961c:	e58d3000 	str	r3, [sp]
    9620:	e3a03054 	mov	r3, #84, 0	; 0x54
    9624:	e59f2010 	ldr	r2, [pc, #16]	; 963c <kmalloc+0x58>
    9628:	e59f1010 	ldr	r1, [pc, #16]	; 9640 <kmalloc+0x5c>
    962c:	e59f0010 	ldr	r0, [pc, #16]	; 9644 <kmalloc+0x60>
    9630:	ebfffc4d 	bl	876c <printk>
    9634:	ebfffe56 	bl	8f94 <clean_reboot>
    9638:	00009d18 	andeq	r9, r0, r8, lsl sp
    963c:	00009ed8 	ldrdeq	r9, [r0], -r8
    9640:	00009d08 	andeq	r9, r0, r8, lsl #26
    9644:	000099e8 	andeq	r9, r0, r8, ror #19

00009648 <kmalloc_aligned>:
    9648:	e52de004 	push	{lr}		; (str lr, [sp, #-4]!)
    964c:	e24dd00c 	sub	sp, sp, #12, 0
    9650:	e3500000 	cmp	r0, #0, 0
    9654:	0a000014 	beq	96ac <kmalloc_aligned+0x64>
    9658:	e2613000 	rsb	r3, r1, #0, 0
    965c:	e1d13003 	bics	r3, r1, r3
    9660:	1a000019 	bne	96cc <kmalloc_aligned+0x84>
    9664:	e3510008 	cmp	r1, #8, 0
    9668:	33a01008 	movcc	r1, #8, 0
    966c:	e59f30c0 	ldr	r3, [pc, #192]	; 9734 <kmalloc_aligned+0xec>
    9670:	e5932008 	ldr	r2, [r3, #8]
    9674:	e2613000 	rsb	r3, r1, #0, 0
    9678:	e1d1c003 	bics	ip, r1, r3
    967c:	1a00001b 	bne	96f0 <kmalloc_aligned+0xa8>
    9680:	e0822001 	add	r2, r2, r1
    9684:	e2422001 	sub	r2, r2, #1, 0
    9688:	e0033002 	and	r3, r3, r2
    968c:	e2411001 	sub	r1, r1, #1, 0
    9690:	e1110003 	tst	r1, r3
    9694:	1a00001d 	bne	9710 <kmalloc_aligned+0xc8>
    9698:	e59f2094 	ldr	r2, [pc, #148]	; 9734 <kmalloc_aligned+0xec>
    969c:	e5823008 	str	r3, [r2, #8]
    96a0:	ebffffcf 	bl	95e4 <kmalloc>
    96a4:	e28dd00c 	add	sp, sp, #12, 0
    96a8:	e49df004 	pop	{pc}		; (ldr pc, [sp], #4)
    96ac:	e59f3084 	ldr	r3, [pc, #132]	; 9738 <kmalloc_aligned+0xf0>
    96b0:	e58d3000 	str	r3, [sp]
    96b4:	e3a0305f 	mov	r3, #95, 0	; 0x5f
    96b8:	e59f207c 	ldr	r2, [pc, #124]	; 973c <kmalloc_aligned+0xf4>
    96bc:	e59f107c 	ldr	r1, [pc, #124]	; 9740 <kmalloc_aligned+0xf8>
    96c0:	e59f007c 	ldr	r0, [pc, #124]	; 9744 <kmalloc_aligned+0xfc>
    96c4:	ebfffc28 	bl	876c <printk>
    96c8:	ebfffe31 	bl	8f94 <clean_reboot>
    96cc:	ebfffc41 	bl	87d8 <rpi_reset_putc>
    96d0:	e59f3070 	ldr	r3, [pc, #112]	; 9748 <kmalloc_aligned+0x100>
    96d4:	e58d3000 	str	r3, [sp]
    96d8:	e3a03060 	mov	r3, #96, 0	; 0x60
    96dc:	e59f2058 	ldr	r2, [pc, #88]	; 973c <kmalloc_aligned+0xf4>
    96e0:	e59f1058 	ldr	r1, [pc, #88]	; 9740 <kmalloc_aligned+0xf8>
    96e4:	e59f0060 	ldr	r0, [pc, #96]	; 974c <kmalloc_aligned+0x104>
    96e8:	ebfffc1f 	bl	876c <printk>
    96ec:	ebfffe28 	bl	8f94 <clean_reboot>
    96f0:	e59f3058 	ldr	r3, [pc, #88]	; 9750 <kmalloc_aligned+0x108>
    96f4:	e58d3000 	str	r3, [sp]
    96f8:	e3a03011 	mov	r3, #17, 0
    96fc:	e59f2050 	ldr	r2, [pc, #80]	; 9754 <kmalloc_aligned+0x10c>
    9700:	e59f1038 	ldr	r1, [pc, #56]	; 9740 <kmalloc_aligned+0xf8>
    9704:	e59f0038 	ldr	r0, [pc, #56]	; 9744 <kmalloc_aligned+0xfc>
    9708:	ebfffc17 	bl	876c <printk>
    970c:	ebfffe20 	bl	8f94 <clean_reboot>
    9710:	ebfffc30 	bl	87d8 <rpi_reset_putc>
    9714:	e59f303c 	ldr	r3, [pc, #60]	; 9758 <kmalloc_aligned+0x110>
    9718:	e58d3000 	str	r3, [sp]
    971c:	e3a03068 	mov	r3, #104, 0	; 0x68
    9720:	e59f2014 	ldr	r2, [pc, #20]	; 973c <kmalloc_aligned+0xf4>
    9724:	e59f1014 	ldr	r1, [pc, #20]	; 9740 <kmalloc_aligned+0xf8>
    9728:	e59f002c 	ldr	r0, [pc, #44]	; 975c <kmalloc_aligned+0x114>
    972c:	ebfffc0e 	bl	876c <printk>
    9730:	ebfffe17 	bl	8f94 <clean_reboot>
    9734:	00009f0c 	andeq	r9, r0, ip, lsl #30
    9738:	00009d18 	andeq	r9, r0, r8, lsl sp
    973c:	00009ee0 	andeq	r9, r0, r0, ror #29
    9740:	00009d08 	andeq	r9, r0, r8, lsl #26
    9744:	000099e8 	andeq	r9, r0, r8, ror #19
    9748:	00009e08 	andeq	r9, r0, r8, lsl #28
    974c:	00009dd4 	ldrdeq	r9, [r0], -r4
    9750:	00009e1c 	andeq	r9, r0, ip, lsl lr
    9754:	00009ef0 	strdeq	r9, [r0], -r0
    9758:	00009e54 	andeq	r9, r0, r4, asr lr
    975c:	00009e28 	andeq	r9, r0, r8, lsr #28

00009760 <kfree>:
    9760:	e12fff1e 	bx	lr

00009764 <kfree_all>:
    9764:	e59f3008 	ldr	r3, [pc, #8]	; 9774 <kfree_all+0x10>
    9768:	e5932004 	ldr	r2, [r3, #4]
    976c:	e5832008 	str	r2, [r3, #8]
    9770:	e12fff1e 	bx	lr
    9774:	00009f0c 	andeq	r9, r0, ip, lsl #30

00009778 <kfree_pop>:
    9778:	e59f3048 	ldr	r3, [pc, #72]	; 97c8 <kfree_pop+0x50>
    977c:	e5933004 	ldr	r3, [r3, #4]
    9780:	e1530000 	cmp	r3, r0
    9784:	8a000006 	bhi	97a4 <kfree_pop+0x2c>
    9788:	e59f3038 	ldr	r3, [pc, #56]	; 97c8 <kfree_pop+0x50>
    978c:	e5933000 	ldr	r3, [r3]
    9790:	e1530000 	cmp	r3, r0
    9794:	3a000002 	bcc	97a4 <kfree_pop+0x2c>
    9798:	e59f3028 	ldr	r3, [pc, #40]	; 97c8 <kfree_pop+0x50>
    979c:	e5830008 	str	r0, [r3, #8]
    97a0:	e12fff1e 	bx	lr
    97a4:	e52de004 	push	{lr}		; (str lr, [sp, #-4]!)
    97a8:	e24dd00c 	sub	sp, sp, #12, 0
    97ac:	e58d0000 	str	r0, [sp]
    97b0:	e3a03077 	mov	r3, #119, 0	; 0x77
    97b4:	e59f2010 	ldr	r2, [pc, #16]	; 97cc <kfree_pop+0x54>
    97b8:	e59f1010 	ldr	r1, [pc, #16]	; 97d0 <kfree_pop+0x58>
    97bc:	e59f0010 	ldr	r0, [pc, #16]	; 97d4 <kfree_pop+0x5c>
    97c0:	ebfffbe9 	bl	876c <printk>
    97c4:	ebfffdf2 	bl	8f94 <clean_reboot>
    97c8:	00009f0c 	andeq	r9, r0, ip, lsl #30
    97cc:	00009ef8 	strdeq	r9, [r0], -r8
    97d0:	00009d08 	andeq	r9, r0, r8, lsl #26
    97d4:	00009e70 	andeq	r9, r0, r0, ror lr

000097d8 <strcat>:
    97d8:	e1a02000 	mov	r2, r0
    97dc:	e1a03002 	mov	r3, r2
    97e0:	e2822001 	add	r2, r2, #1, 0
    97e4:	e5d3c000 	ldrb	ip, [r3]
    97e8:	e35c0000 	cmp	ip, #0, 0
    97ec:	1afffffa 	bne	97dc <strcat+0x4>
    97f0:	e2433001 	sub	r3, r3, #1, 0
    97f4:	e5d12000 	ldrb	r2, [r1]
    97f8:	e2811001 	add	r1, r1, #1, 0
    97fc:	e5e32001 	strb	r2, [r3, #1]!
    9800:	e3520000 	cmp	r2, #0, 0
    9804:	1afffffa 	bne	97f4 <strcat+0x1c>
    9808:	e12fff1e 	bx	lr

0000980c <strcmp>:
    980c:	e5d03000 	ldrb	r3, [r0]
    9810:	e3530000 	cmp	r3, #0, 0
    9814:	0a000004 	beq	982c <strcmp+0x20>
    9818:	e5d12000 	ldrb	r2, [r1]
    981c:	e1530002 	cmp	r3, r2
    9820:	02800001 	addeq	r0, r0, #1, 0
    9824:	02811001 	addeq	r1, r1, #1, 0
    9828:	0afffff7 	beq	980c <strcmp>
    982c:	e5d10000 	ldrb	r0, [r1]
    9830:	e0430000 	sub	r0, r3, r0
    9834:	e12fff1e 	bx	lr

00009838 <strcpy>:
    9838:	e1a0c000 	mov	ip, r0
    983c:	e5d12000 	ldrb	r2, [r1]
    9840:	e2811001 	add	r1, r1, #1, 0
    9844:	e5cc2000 	strb	r2, [ip]
    9848:	e28cc001 	add	ip, ip, #1, 0
    984c:	e3520000 	cmp	r2, #0, 0
    9850:	1afffff9 	bne	983c <strcpy+0x4>
    9854:	e12fff1e 	bx	lr

00009858 <strncmp>:
    9858:	e3520000 	cmp	r2, #0, 0
    985c:	e2422001 	sub	r2, r2, #1, 0
    9860:	0a000005 	beq	987c <strncmp+0x24>
    9864:	e4d03001 	ldrb	r3, [r0], #1
    9868:	e4d1c001 	ldrb	ip, [r1], #1
    986c:	e153000c 	cmp	r3, ip
    9870:	0afffff8 	beq	9858 <strncmp>
    9874:	e043000c 	sub	r0, r3, ip
    9878:	e12fff1e 	bx	lr
    987c:	e3a00000 	mov	r0, #0, 0
    9880:	e12fff1e 	bx	lr

00009884 <reboot_callout>:
    9884:	e12fff1e 	bx	lr

Disassembly of section .rodata:

00009888 <__FUNCTION__.3995-0x298>:
    9888:	38325357 	ldmdacc	r2!, {r0, r1, r2, r4, r6, r8, r9, ip, lr}
    988c:	2e423231 	mcrcs	2, 2, r3, cr2, cr1, {1}
    9890:	00000068 	andeq	r0, r0, r8, rrx
    9894:	494e4150 	stmdbmi	lr, {r4, r6, r8, lr}^
    9898:	73253a43 			; <UNDEFINED> instruction: 0x73253a43
    989c:	3a73253a 	bcc	1cd2d8c <__bss_end__+0x1cc8a6c>
    98a0:	693a6425 	ldmdbvs	sl!, {r0, r2, r5, sl, sp, lr}
    98a4:	656c706d 	strbvs	r7, [ip, #-109]!	; 0xffffff93
    98a8:	746e656d 	strbtvc	r6, [lr], #-1389	; 0xfffffa93
    98ac:	69687420 	stmdbvs	r8!, {r5, sl, ip, sp, lr}^
    98b0:	75662073 	strbvc	r2, [r6, #-115]!	; 0xffffff8d
    98b4:	6974636e 	ldmdbvs	r4!, {r1, r2, r3, r5, r6, r8, r9, sp, lr}^
    98b8:	0a216e6f 	beq	86527c <__bss_end__+0x85af5c>
    98bc:	0000000a 	andeq	r0, r0, sl
    98c0:	63656863 	cmnvs	r5, #6488064	; 0x630000
    98c4:	676e696b 	strbvs	r6, [lr, -fp, ror #18]!
    98c8:	6c656420 	cfstrdvs	mvd6, [r5], #-128	; 0xffffff80
    98cc:	6e5f7961 	vnmlavs.f16	s15, s30, s3	; <UNPREDICTABLE>
    98d0:	6c637963 			; <UNDEFINED> instruction: 0x6c637963
    98d4:	25287365 	strcs	r7, [r8, #-869]!	; 0xfffffc9b
    98d8:	000a2964 	andeq	r2, sl, r4, ror #18
    98dc:	65766f09 	ldrbvs	r6, [r6, #-3849]!	; 0xfffff0f7
    98e0:	61656872 	smcvs	22146	; 0x5682
    98e4:	203d2064 	eorscs	r2, sp, r4, rrx
    98e8:	000a6425 	andeq	r6, sl, r5, lsr #8
    98ec:	69742d30 	ldmdbvs	r4!, {r4, r5, r8, sl, fp, sp}^
    98f0:	676e696d 	strbvs	r6, [lr, -sp, ror #18]!
    98f4:	6568632d 	strbvs	r6, [r8, #-813]!	; 0xfffffcd3
    98f8:	632e6b63 			; <UNDEFINED> instruction: 0x632e6b63
    98fc:	00000000 	andeq	r0, r0, r0
    9900:	494e4150 	stmdbmi	lr, {r4, r6, r8, lr}^
    9904:	73253a43 			; <UNDEFINED> instruction: 0x73253a43
    9908:	3a73253a 	bcc	1cd2df8 <__bss_end__+0x1cc8ad8>
    990c:	643a6425 	ldrtvs	r6, [sl], #-1061	; 0xfffffbdb
    9910:	79616c65 	stmdbvc	r1!, {r0, r2, r5, r6, sl, fp, sp, lr}^
    9914:	79636e5f 	stmdbvc	r3!, {r0, r1, r2, r3, r4, r6, r9, sl, fp, sp, lr}^
    9918:	73656c63 	cmnvc	r5, #25344	; 0x6300
    991c:	29642528 	stmdbcs	r4!, {r3, r5, r8, sl, sp}^
    9920:	6f6f7420 	svcvs	0x006f7420
    9924:	6425206b 	strtvs	r2, [r5], #-107	; 0xffffff95
    9928:	63796320 	cmnvs	r9, #32, 6	; 0x80000000
    992c:	7865202c 	stmdavc	r5!, {r2, r3, r5, sp}^
    9930:	74636570 	strbtvc	r6, [r3], #-1392	; 0xfffffa90
    9934:	61206465 			; <UNDEFINED> instruction: 0x61206465
    9938:	6f6d2074 	svcvs	0x006d2074
    993c:	25207473 	strcs	r7, [r0, #-1139]!	; 0xfffffb8d
    9940:	000a0a64 	andeq	r0, sl, r4, ror #20
    9944:	43555309 	cmpmi	r5, #603979776	; 0x24000000
    9948:	53534543 	cmppl	r3, #281018368	; 0x10c00000
    994c:	6564203a 	strbvs	r2, [r4, #-58]!	; 0xffffffc6
    9950:	5f79616c 	svcpl	0x0079616c
    9954:	6379636e 	cmnvs	r9, #-1207959551	; 0xb8000001
    9958:	2873656c 	ldmdacs	r3!, {r2, r3, r5, r6, r8, sl, sp, lr}^
    995c:	20296425 	eorcs	r6, r9, r5, lsr #8
    9960:	6b6f6f74 	blvs	1be5738 <__bss_end__+0x1bdb418>
    9964:	20642520 	rsbcs	r2, r4, r0, lsr #10
    9968:	6c637963 			; <UNDEFINED> instruction: 0x6c637963
    996c:	61202c65 			; <UNDEFINED> instruction: 0x61202c65
    9970:	776f6c6c 	strbvc	r6, [pc, -ip, ror #24]!
    9974:	25206465 	strcs	r6, [r0, #-1125]!	; 0xfffffb9b
    9978:	00000a64 	andeq	r0, r0, r4, ror #20
    997c:	4f525245 	svcmi	0x00525245
    9980:	73253a52 			; <UNDEFINED> instruction: 0x73253a52
    9984:	3a73253a 	bcc	1cd2e74 <__bss_end__+0x1cc8b54>
    9988:	203a6425 	eorscs	r6, sl, r5, lsr #8
    998c:	534c4146 	movtpl	r4, #49478	; 0xc146
    9990:	253c2845 	ldrcs	r2, [ip, #-2117]!	; 0xfffff7bb
    9994:	3a293e73 	bcc	a59368 <__bss_end__+0xa4f048>
    9998:	78652220 	stmdavc	r5!, {r5, r9, sp}^
    999c:	74636570 	strbtvc	r6, [r3], #-1392	; 0xfffffa90
    99a0:	38206465 	stmdacc	r0!, {r0, r2, r5, r6, sl, sp, lr}
    99a4:	76616820 	strbtvc	r6, [r1], -r0, lsr #16
    99a8:	25203a65 	strcs	r3, [r0, #-2661]!	; 0xfffff59b
    99ac:	226e5c64 	rsbcs	r5, lr, #100, 24	; 0x6400
    99b0:	0000000a 	andeq	r0, r0, sl
    99b4:	7265766f 	rsbvc	r7, r5, #116391936	; 0x6f00000
    99b8:	64616568 	strbtvs	r6, [r1], #-1384	; 0xfffffa98
    99bc:	00383d3d 	eorseq	r3, r8, sp, lsr sp
    99c0:	203a7325 	eorscs	r7, sl, r5, lsr #6
    99c4:	65707865 	ldrbvs	r7, [r0, #-2149]!	; 0xfffff79b
    99c8:	64657463 	strbtvs	r7, [r5], #-1123	; 0xfffffb9d
    99cc:	20752520 	rsbscs	r2, r5, r0, lsr #10
    99d0:	6c637963 			; <UNDEFINED> instruction: 0x6c637963
    99d4:	202c7365 	eorcs	r7, ip, r5, ror #6
    99d8:	20746f67 	rsbscs	r6, r4, r7, ror #30
    99dc:	63207525 			; <UNDEFINED> instruction: 0x63207525
    99e0:	656c6379 	strbvs	r6, [ip, #-889]!	; 0xfffffc87
    99e4:	00000a73 	andeq	r0, r0, r3, ror sl
    99e8:	494e4150 	stmdbmi	lr, {r4, r6, r8, lr}^
    99ec:	73253a43 			; <UNDEFINED> instruction: 0x73253a43
    99f0:	3a73253a 	bcc	1cd2ee0 <__bss_end__+0x1cc8bc0>
    99f4:	253a6425 	ldrcs	r6, [sl, #-1061]!	; 0xfffffbdb
    99f8:	00000a73 	andeq	r0, r0, r3, ror sl
    99fc:	3d3c2074 	ldccc	0, cr2, [ip, #-464]!	; 0xfffffe30
    9a00:	78652820 	stmdavc	r5!, {r5, fp, sp}^
    9a04:	202b2070 	eorcs	r2, fp, r0, ror r0
    9a08:	296c6f74 	stmdbcs	ip!, {r2, r4, r5, r6, r8, r9, sl, fp, sp, lr}^
    9a0c:	20262620 	eorcs	r2, r6, r0, lsr #12
    9a10:	3d3e2074 	ldccc	0, cr2, [lr, #-464]!	; 0xfffffe30
    9a14:	78652820 	stmdavc	r5!, {r5, fp, sp}^
    9a18:	202d2070 	eorcs	r2, sp, r0, ror r0
    9a1c:	296c6f74 	stmdbcs	ip!, {r2, r4, r5, r6, r8, r9, sl, fp, sp, lr}^
    9a20:	00000000 	andeq	r0, r0, r0
    9a24:	7265766f 	rsbvc	r7, r5, #116391936	; 0x6f00000
    9a28:	64616568 	strbtvs	r6, [r1], #-1384	; 0xfffffa98
    9a2c:	25203d20 	strcs	r3, [r0, #-3360]!	; 0xfffff2e0
    9a30:	00000a75 	andeq	r0, r0, r5, ror sl
    9a34:	65696421 	strbvs	r6, [r9, #-1057]!	; 0xfffffbdf
    9a38:	5f6e6f5f 	svcpl	0x006e6f5f
    9a3c:	6f727265 	svcvs	0x00727265
    9a40:	20705f72 	rsbscs	r5, r0, r2, ror pc
    9a44:	6f207c7c 	svcvs	0x00207c7c
    9a48:	68726576 	ldmdavs	r2!, {r1, r2, r4, r5, r6, r8, sl, sp, lr}^
    9a4c:	20646165 	rsbcs	r6, r4, r5, ror #2
    9a50:	38203d3d 	stmdacc	r0!, {r0, r2, r3, r4, r5, r8, sl, fp, ip, sp}
    9a54:	00000000 	andeq	r0, r0, r0
    9a58:	6f697067 	svcvs	0x00697067
    9a5c:	66666f5f 	uqsaxvs	r6, r6, pc	; <UNPREDICTABLE>
    9a60:	7761725f 			; <UNDEFINED> instruction: 0x7761725f
    9a64:	00000000 	andeq	r0, r0, r0
    9a68:	203a7325 	eorscs	r7, sl, r5, lsr #6
    9a6c:	20303031 	eorscs	r3, r0, r1, lsr r0
    9a70:	63656863 	cmnvs	r5, #6488064	; 0x630000
    9a74:	65203a6b 	strvs	r3, [r0, #-2667]!	; 0xfffff595
    9a78:	63657078 	cmnvs	r5, #120, 0	; 0x78
    9a7c:	20646574 	rsbcs	r6, r4, r4, ror r5
    9a80:	6e207525 	cfsh64vs	mvdx7, mvdx0, #21
    9a84:	67202c73 			; <UNDEFINED> instruction: 0x67202c73
    9a88:	2520746f 	strcs	r7, [r0, #-1135]!	; 0xfffffb91
    9a8c:	736e2075 	cmnvc	lr, #117, 0	; 0x75
    9a90:	0000000a 	andeq	r0, r0, sl
    9a94:	6f697067 	svcvs	0x00697067
    9a98:	5f6e6f5f 	svcpl	0x006e6f5f
    9a9c:	00776172 	rsbseq	r6, r7, r2, ror r1
    9aa0:	63657331 	cmnvs	r5, #-1006632960	; 0xc4000000
    9aa4:	6f687320 	svcvs	0x00687320
    9aa8:	20646c75 	rsbcs	r6, r4, r5, ror ip
    9aac:	656b6174 	strbvs	r6, [fp, #-372]!	; 0xfffffe8c
    9ab0:	6f626120 	svcvs	0x00626120
    9ab4:	37207475 			; <UNDEFINED> instruction: 0x37207475
    9ab8:	204d3030 	subcs	r3, sp, r0, lsr r0
    9abc:	6c637963 			; <UNDEFINED> instruction: 0x6c637963
    9ac0:	25203a65 	strcs	r3, [r0, #-2661]!	; 0xfffff59b
    9ac4:	25202c75 	strcs	r2, [r0, #-3189]!	; 0xfffff38b
    9ac8:	00000a75 	andeq	r0, r0, r5, ror sl
    9acc:	3d3e2074 	ldccc	0, cr2, [lr, #-464]!	; 0xfffffe30
    9ad0:	7a484d20 	bvc	121cf58 <__bss_end__+0x1212c38>
    9ad4:	2620312d 	strtcs	r3, [r0], -sp, lsr #2
    9ad8:	20742026 	rsbscs	r2, r4, r6, lsr #32
    9adc:	4d203d3c 	stcmi	13, cr3, [r0, #-240]!	; 0xffffff10
    9ae0:	2b207a48 	blcs	828408 <__bss_end__+0x81e0e8>
    9ae4:	00000031 	andeq	r0, r0, r1, lsr r0
    9ae8:	00683174 	rsbeq	r3, r8, r4, ror r1
    9aec:	00683074 	rsbeq	r3, r8, r4, ror r0
    9af0:	006c3174 	rsbeq	r3, ip, r4, ror r1
    9af4:	006c3074 	rsbeq	r3, ip, r4, ror r0
    9af8:	73657274 	cmnvc	r5, #116, 4	; 0x40000007
    9afc:	00007465 	andeq	r7, r0, r5, ror #8
    9b00:	756f6261 	strbvc	r6, [pc, #-609]!	; 98a7 <__code_end__+0x1f>
    9b04:	6f742074 	svcvs	0x00742074
    9b08:	65686320 	strbvs	r6, [r8, #-800]!	; 0xfffffce0
    9b0c:	66206b63 	strtvs	r6, [r0], -r3, ror #22
    9b10:	206c6c75 	rsbcs	r6, ip, r5, ror ip
    9b14:	696d6974 	stmdbvs	sp!, {r2, r4, r5, r6, r8, fp, sp, lr}^
    9b18:	0a73676e 	beq	1ce38d8 <__bss_end__+0x1cd95b8>
    9b1c:	00000000 	andeq	r0, r0, r0

00009b20 <__FUNCTION__.3995>:
    9b20:	73657274 	cmnvc	r5, #116, 4	; 0x40000007
    9b24:	00007465 	andeq	r7, r0, r5, ror #8

00009b28 <__FUNCTION__.3991>:
    9b28:	006c3074 	rsbeq	r3, ip, r4, ror r0

00009b2c <__FUNCTION__.3987>:
    9b2c:	006c3174 	rsbeq	r3, ip, r4, ror r1

00009b30 <__FUNCTION__.3983>:
    9b30:	00683074 	rsbeq	r3, r8, r4, ror r0

00009b34 <__FUNCTION__.3979>:
    9b34:	00683174 	rsbeq	r3, r8, r4, ror r1

00009b38 <__FUNCTION__.4133>:
    9b38:	63656863 	cmnvs	r5, #6488064	; 0x630000
    9b3c:	65645f6b 	strbvs	r5, [r4, #-3947]!	; 0xfffff095
    9b40:	0079616c 	rsbseq	r6, r9, ip, ror #2

00009b44 <__FUNCTION__.4050>:
    9b44:	656d6974 	strbvs	r6, [sp, #-2420]!	; 0xfffff68c
    9b48:	6568635f 	strbvs	r6, [r8, #-863]!	; 0xfffffca1
    9b4c:	00006b63 	andeq	r6, r0, r3, ror #22

00009b50 <__FUNCTION__.4106>:
    9b50:	63656863 	cmnvs	r5, #6488064	; 0x630000
    9b54:	69745f6b 	ldmdbvs	r4!, {r0, r1, r3, r5, r6, r8, r9, sl, fp, ip, lr}^
    9b58:	676e696d 	strbvs	r6, [lr, -sp, ror #18]!
    9b5c:	00000073 	andeq	r0, r0, r3, ror r0
    9b60:	706f656e 	rsbvc	r6, pc, lr, ror #10
    9b64:	6c657869 	stclvs	8, cr7, [r5], #-420	; 0xfffffe5c
    9b68:	0000632e 	andeq	r6, r0, lr, lsr #6

00009b6c <__FUNCTION__.4013>:
    9b6c:	73657274 	cmnvc	r5, #116, 4	; 0x40000007
    9b70:	00007465 	andeq	r7, r0, r5, ror #8

00009b74 <__FUNCTION__.4033>:
    9b74:	5f786970 	svcpl	0x00786970
    9b78:	646e6573 	strbtvs	r6, [lr], #-1395	; 0xfffffa8d
    9b7c:	65786970 	ldrbvs	r6, [r8, #-2416]!	; 0xfffff690
    9b80:	0000006c 	andeq	r0, r0, ip, rrx

00009b84 <__FUNCTION__.4074>:
    9b84:	706f656e 	rsbvc	r6, pc, lr, ror #10
    9b88:	775f7869 	ldrbvc	r7, [pc, -r9, ror #16]
    9b8c:	65746972 	ldrbvs	r6, [r4, #-2418]!	; 0xfffff68e
    9b90:	00000000 	andeq	r0, r0, r0
    9b94:	696c2f2e 	stmdbvs	ip!, {r1, r2, r3, r5, r8, r9, sl, fp, sp}^
    9b98:	762f6362 	strtvc	r6, [pc], -r2, ror #6
    9b9c:	72702d61 	rsbsvc	r2, r0, #6208	; 0x1840
    9ba0:	6b746e69 	blvs	1d2554c <__bss_end__+0x1d1b22c>
    9ba4:	0000632e 	andeq	r6, r0, lr, lsr #6
    9ba8:	00000030 	andeq	r0, r0, r0, lsr r0
    9bac:	33323130 	teqcc	r2, #12
    9bb0:	37363534 			; <UNDEFINED> instruction: 0x37363534
    9bb4:	00003938 	andeq	r3, r0, r8, lsr r9
    9bb8:	33323130 	teqcc	r2, #12
    9bbc:	37363534 			; <UNDEFINED> instruction: 0x37363534
    9bc0:	62613938 	rsbvs	r3, r1, #56, 18	; 0xe0000
    9bc4:	66656463 	strbtvs	r6, [r5], -r3, ror #8
    9bc8:	00000000 	andeq	r0, r0, r0
    9bcc:	00003130 	andeq	r3, r0, r0, lsr r1
    9bd0:	63747570 	cmnvs	r4, #112, 10	; 0x1c000000
    9bd4:	0070665f 	rsbseq	r6, r0, pc, asr r6
    9bd8:	74646977 	strbtvc	r6, [r4], #-2423	; 0xfffff689
    9bdc:	203c2068 	eorscs	r2, ip, r8, rrx
    9be0:	00003233 	andeq	r3, r0, r3, lsr r2
    9be4:	00786c6c 	rsbseq	r6, r8, ip, ror #24
    9be8:	00646c6c 	rsbeq	r6, r4, ip, ror #24
    9bec:	253d3078 	ldrcs	r3, [sp, #-120]!	; 0xffffff88
    9bf0:	00000a78 	andeq	r0, r0, r8, ror sl
    9bf4:	253d3178 	ldrcs	r3, [sp, #-376]!	; 0xfffffe88
    9bf8:	00000a78 	andeq	r0, r0, r8, ror sl
    9bfc:	6e727473 	mrcvs	4, 3, r7, cr2, cr3, {3}
    9c00:	28706d63 	ldmdacs	r0!, {r0, r1, r5, r6, r8, sl, fp, sp, lr}^
    9c04:	202c7974 	eorcs	r7, ip, r4, ror r9
    9c08:	786c6c22 	stmdavc	ip!, {r1, r5, sl, fp, sp, lr}^
    9c0c:	33202c22 			; <UNDEFINED> instruction: 0x33202c22
    9c10:	3d3d2029 	ldccc	0, cr2, [sp, #-164]!	; 0xffffff5c
    9c14:	7c203020 	stcvc	0, cr3, [r0], #-128	; 0xffffff80
    9c18:	7473207c 	ldrbtvc	r2, [r3], #-124	; 0xffffff84
    9c1c:	6d636e72 	stclvs	14, cr6, [r3, #-456]!	; 0xfffffe38
    9c20:	79742870 	ldmdbvc	r4!, {r4, r5, r6, fp, sp}^
    9c24:	6c22202c 	stcvs	0, cr2, [r2], #-176	; 0xffffff50
    9c28:	2c22646c 	cfstrscs	mvf6, [r2], #-432	; 0xfffffe50
    9c2c:	20293320 	eorcs	r3, r9, r0, lsr #6
    9c30:	30203d3d 	eorcc	r3, r0, sp, lsr sp
    9c34:	00000000 	andeq	r0, r0, r0
    9c38:	494e4150 	stmdbmi	lr, {r4, r6, r8, lr}^
    9c3c:	73253a43 			; <UNDEFINED> instruction: 0x73253a43
    9c40:	3a73253a 	bcc	1cd3130 <__bss_end__+0x1cc8e10>
    9c44:	693a6425 	ldmdbvs	sl!, {r0, r2, r5, sl, sp, lr}
    9c48:	736f706d 	cmnvc	pc, #109, 0	; 0x6d
    9c4c:	6c626973 			; <UNDEFINED> instruction: 0x6c626973
    9c50:	66203a65 	strtvs	r3, [r0], -r5, ror #20
    9c54:	3c3d746d 	cfldrscc	mvf7, [sp], #-436	; 0xfffffe4c
    9c58:	0a3e7325 	beq	fa68f4 <__bss_end__+0xf9c5d4>
    9c5c:	0000000a 	andeq	r0, r0, sl
    9c60:	494e4150 	stmdbmi	lr, {r4, r6, r8, lr}^
    9c64:	73253a43 			; <UNDEFINED> instruction: 0x73253a43
    9c68:	3a73253a 	bcc	1cd3158 <__bss_end__+0x1cc8e38>
    9c6c:	663a6425 	ldrtvs	r6, [sl], -r5, lsr #8
    9c70:	74616f6c 	strbtvc	r6, [r1], #-3948	; 0xfffff094
    9c74:	746f6e20 	strbtvc	r6, [pc], #-3616	; 9c7c <__FUNCTION__.4074+0xf8>
    9c78:	616e6520 	cmnvs	lr, r0, lsr #10
    9c7c:	64656c62 	strbtvs	r6, [r5], #-3170	; 0xfffff39e
    9c80:	0a212121 	beq	85210c <__bss_end__+0x847dec>
    9c84:	00000000 	andeq	r0, r0, r0
    9c88:	6e697270 	mcrvs	2, 3, r7, cr9, cr0, {3}
    9c8c:	203a6b74 	eorscs	r6, sl, r4, ror fp
    9c90:	20746f6e 	rsbscs	r6, r4, lr, ror #30
    9c94:	646e6168 	strbtvs	r6, [lr], #-360	; 0xfffffe98
    9c98:	676e696c 	strbvs	r6, [lr, -ip, ror #18]!
    9c9c:	65707320 	ldrbvs	r7, [r0, #-800]!	; 0xfffffce0
    9ca0:	69666963 	stmdbvs	r6!, {r0, r1, r5, r6, r8, fp, sp, lr}^
    9ca4:	27207265 	strcs	r7, [r0, -r5, ror #4]!
    9ca8:	20276325 	eorcs	r6, r7, r5, lsr #6
    9cac:	63736128 	cmnvs	r3, #10
    9cb0:	253d6969 	ldrcs	r6, [sp, #-2409]!	; 0xfffff697
    9cb4:	000a2964 	andeq	r2, sl, r4, ror #18
    9cb8:	494e4150 	stmdbmi	lr, {r4, r6, r8, lr}^
    9cbc:	73253a43 			; <UNDEFINED> instruction: 0x73253a43
    9cc0:	3a73253a 	bcc	1cd31b0 <__bss_end__+0x1cc8e90>
    9cc4:	703a6425 	eorsvc	r6, sl, r5, lsr #8
    9cc8:	746e6972 	strbtvc	r6, [lr], #-2418	; 0xfffff68e
    9ccc:	7265206b 	rsbvc	r2, r5, #107, 0	; 0x6b
    9cd0:	0a726f72 	beq	1ca5aa0 <__bss_end__+0x1c9b780>
    9cd4:	0000000a 	andeq	r0, r0, sl

00009cd8 <__FUNCTION__.4008>:
    9cd8:	74696d65 	strbtvc	r6, [r9], #-3429	; 0xfffff29b
    9cdc:	00000000 	andeq	r0, r0, r0

00009ce0 <__FUNCTION__.3956>:
    9ce0:	5f697072 	svcpl	0x00697072
    9ce4:	5f746573 	svcpl	0x00746573
    9ce8:	7074756f 	rsbsvc	r7, r4, pc, ror #10
    9cec:	00007475 	andeq	r7, r0, r5, ror r4

00009cf0 <__FUNCTION__.4034>:
    9cf0:	705f6176 	subsvc	r6, pc, r6, ror r1	; <UNPREDICTABLE>
    9cf4:	746e6972 	strbtvc	r6, [lr], #-2418	; 0xfffff68e
    9cf8:	0000006b 	andeq	r0, r0, fp, rrx
    9cfc:	454e4f44 	strbmi	r4, [lr, #-3908]	; 0xfffff0bc
    9d00:	0a212121 	beq	85218c <__bss_end__+0x847e6c>
    9d04:	00000000 	andeq	r0, r0, r0
    9d08:	6c616d6b 	stclvs	13, cr6, [r1], #-428	; 0xfffffe54
    9d0c:	2e636f6c 	cdpcs	15, 6, cr6, cr3, cr12, {3}
    9d10:	00000063 	andeq	r0, r0, r3, rrx
    9d14:	5f78616d 	svcpl	0x0078616d
    9d18:	7479626e 	ldrbtvc	r6, [r9], #-622	; 0xfffffd92
    9d1c:	00007365 	andeq	r7, r0, r5, ror #6
    9d20:	494e4150 	stmdbmi	lr, {r4, r6, r8, lr}^
    9d24:	73253a43 			; <UNDEFINED> instruction: 0x73253a43
    9d28:	3a73253a 	bcc	1cd3218 <__bss_end__+0x1cc8ef8>
    9d2c:	733a6425 	teqvc	sl, #620756992	; 0x25000000
    9d30:	69747465 	ldmdbvs	r4!, {r0, r2, r5, r6, sl, ip, sp, lr}^
    9d34:	6820676e 	stmdavs	r0!, {r1, r2, r3, r5, r6, r8, r9, sl, sp, lr}
    9d38:	20706165 	rsbscs	r6, r0, r5, ror #2
    9d3c:	25206f74 	strcs	r6, [r0, #-3956]!	; 0xfffff08c
    9d40:	77203a70 			; <UNDEFINED> instruction: 0x77203a70
    9d44:	206c6c69 	rsbcs	r6, ip, r9, ror #24
    9d48:	20746968 	rsbscs	r6, r4, r8, ror #18
    9d4c:	20656874 	rsbcs	r6, r5, r4, ror r8
    9d50:	20646c6f 	rsbcs	r6, r4, pc, ror #24
    9d54:	70616568 	rsbvc	r6, r1, r8, ror #10
    9d58:	20746120 	rsbscs	r6, r4, r0, lsr #2
    9d5c:	0a0a7025 	beq	2a5df8 <__bss_end__+0x29bad8>
    9d60:	00000000 	andeq	r0, r0, r0
    9d64:	494e4150 	stmdbmi	lr, {r4, r6, r8, lr}^
    9d68:	73253a43 			; <UNDEFINED> instruction: 0x73253a43
    9d6c:	3a73253a 	bcc	1cd325c <__bss_end__+0x1cc8f3c>
    9d70:	613a6425 	teqvs	sl, r5, lsr #8
    9d74:	6165726c 	cmnvs	r5, ip, ror #4
    9d78:	63207964 			; <UNDEFINED> instruction: 0x63207964
    9d7c:	656c6c61 	strbvs	r6, [ip, #-3169]!	; 0xfffff39f
    9d80:	6d6b2064 	stclvs	0, cr2, [fp, #-400]!	; 0xfffffe70
    9d84:	6f6c6c61 	svcvs	0x006c6c61
    9d88:	6e695f63 	cdpvs	15, 6, cr5, cr9, cr3, {3}
    9d8c:	0a0a7469 	beq	2a6f38 <__bss_end__+0x29cc18>
    9d90:	00000000 	andeq	r0, r0, r0
    9d94:	494e4150 	stmdbmi	lr, {r4, r6, r8, lr}^
    9d98:	73253a43 			; <UNDEFINED> instruction: 0x73253a43
    9d9c:	3a73253a 	bcc	1cd328c <__bss_end__+0x1cc8f6c>
    9da0:	253a6425 	ldrcs	r6, [sl, #-1061]!	; 0xfffffbdb
    9da4:	626e2064 	rsbvs	r2, lr, #100, 0	; 0x64
    9da8:	73657479 	cmnvc	r5, #2030043136	; 0x79000000
    9dac:	63786520 	cmnvs	r8, #32, 10	; 0x8000000
    9db0:	65646565 	strbvs	r6, [r4, #-1381]!	; 0xfffffa9b
    9db4:	69732064 	ldmdbvs	r3!, {r2, r5, r6, sp}^
    9db8:	6f20657a 	svcvs	0x0020657a
    9dbc:	65682066 	strbvs	r2, [r8, #-102]!	; 0xffffff9a
    9dc0:	62207061 	eorvs	r7, r0, #97, 0	; 0x61
    9dc4:	75252079 	strvc	r2, [r5, #-121]!	; 0xffffff87
    9dc8:	79626e20 	stmdbvc	r2!, {r5, r9, sl, fp, sp, lr}^
    9dcc:	0a736574 	beq	1ce33a4 <__bss_end__+0x1cd9084>
    9dd0:	0000000a 	andeq	r0, r0, sl
    9dd4:	4f525245 	svcmi	0x00525245
    9dd8:	73253a52 			; <UNDEFINED> instruction: 0x73253a52
    9ddc:	3a73253a 	bcc	1cd32cc <__bss_end__+0x1cc8fac>
    9de0:	203a6425 	eorscs	r6, sl, r5, lsr #8
    9de4:	534c4146 	movtpl	r4, #49478	; 0xc146
    9de8:	253c2845 	ldrcs	r2, [ip, #-2117]!	; 0xfffff7bb
    9dec:	3a293e73 	bcc	a597c0 <__bss_end__+0xa4f4a0>
    9df0:	73736120 	cmnvc	r3, #8
    9df4:	6e696d75 	mcrvs	13, 3, r6, cr9, cr5, {3}
    9df8:	6f702067 	svcvs	0x00702067
    9dfc:	20726577 	rsbscs	r6, r2, r7, ror r5
    9e00:	7420666f 	strtvc	r6, [r0], #-1647	; 0xfffff991
    9e04:	000a6f77 	andeq	r6, sl, r7, ror pc
    9e08:	705f7369 	subsvc	r7, pc, r9, ror #6
    9e0c:	2832776f 	ldmdacs	r2!, {r0, r1, r2, r3, r5, r6, r8, r9, sl, ip, sp, lr}
    9e10:	67696c61 	strbvs	r6, [r9, -r1, ror #24]!
    9e14:	6e656d6e 	cdpvs	13, 6, cr6, cr5, cr14, {3}
    9e18:	00002974 	andeq	r2, r0, r4, ror r9
    9e1c:	705f7369 	subsvc	r7, pc, r9, ror #6
    9e20:	2832776f 	ldmdacs	r2!, {r0, r1, r2, r3, r5, r6, r8, r9, sl, ip, sp, lr}
    9e24:	0000296e 	andeq	r2, r0, lr, ror #18
    9e28:	4f525245 	svcmi	0x00525245
    9e2c:	73253a52 			; <UNDEFINED> instruction: 0x73253a52
    9e30:	3a73253a 	bcc	1cd3320 <__bss_end__+0x1cc9000>
    9e34:	203a6425 	eorscs	r6, sl, r5, lsr #8
    9e38:	534c4146 	movtpl	r4, #49478	; 0xc146
    9e3c:	253c2845 	ldrcs	r2, [ip, #-2117]!	; 0xfffff7bb
    9e40:	3a293e73 	bcc	a59814 <__bss_end__+0xa4f4f4>
    9e44:	706d6920 	rsbvc	r6, sp, r0, lsr #18
    9e48:	6973736f 	ldmdbvs	r3!, {r0, r1, r2, r3, r5, r6, r8, r9, ip, sp, lr}^
    9e4c:	0a656c62 	beq	1964fdc <__bss_end__+0x195acbc>
    9e50:	00000000 	andeq	r0, r0, r0
    9e54:	615f7369 	cmpvs	pc, r9, ror #6
    9e58:	6e67696c 	vnmulvs.f16	s13, s14, s25	; <UNPREDICTABLE>
    9e5c:	68286465 	stmdavs	r8!, {r0, r2, r5, r6, sl, sp, lr}
    9e60:	6c61202c 	stclvs	0, cr2, [r1], #-176	; 0xffffff50
    9e64:	6d6e6769 	stclvs	7, cr6, [lr, #-420]!	; 0xfffffe5c
    9e68:	29746e65 	ldmdbcs	r4!, {r0, r2, r5, r6, r9, sl, fp, sp, lr}^
    9e6c:	00000000 	andeq	r0, r0, r0
    9e70:	494e4150 	stmdbmi	lr, {r4, r6, r8, lr}^
    9e74:	73253a43 			; <UNDEFINED> instruction: 0x73253a43
    9e78:	3a73253a 	bcc	1cd3368 <__bss_end__+0x1cc9048>
    9e7c:	703a6425 	eorsvc	r6, sl, r5, lsr #8
    9e80:	746e696f 	strbtvc	r6, [lr], #-2415	; 0xfffff691
    9e84:	25207265 	strcs	r7, [r0, #-613]!	; 0xfffffd9b
    9e88:	61772070 	cmnvs	r7, r0, ror r0
    9e8c:	656e2073 	strbvs	r2, [lr, #-115]!	; 0xffffff8d
    9e90:	20726576 	rsbscs	r6, r2, r6, ror r5
    9e94:	6f6c6c61 	svcvs	0x006c6c61
    9e98:	65746163 	ldrbvs	r6, [r4, #-355]!	; 0xfffffe9d
    9e9c:	000a0a64 	andeq	r0, sl, r4, ror #20

00009ea0 <__FUNCTION__.7>:
    9ea0:	6c616d6b 	stclvs	13, cr6, [r1], #-428	; 0xfffffe54
    9ea4:	5f636f6c 	svcpl	0x00636f6c
    9ea8:	74696e69 	strbtvc	r6, [r9], #-3689	; 0xfffff197
    9eac:	7465735f 	strbtvc	r7, [r5], #-863	; 0xfffffca1
    9eb0:	6174735f 	cmnvs	r4, pc, asr r3
    9eb4:	00007472 	andeq	r7, r0, r2, ror r4

00009eb8 <__FUNCTION__.5>:
    9eb8:	6c616d6b 	stclvs	13, cr6, [r1], #-428	; 0xfffffe54
    9ebc:	5f636f6c 	svcpl	0x00636f6c
    9ec0:	74696e69 	strbtvc	r6, [r9], #-3689	; 0xfffff197
    9ec4:	00000000 	andeq	r0, r0, r0

00009ec8 <__FUNCTION__.4>:
    9ec8:	6c616d6b 	stclvs	13, cr6, [r1], #-428	; 0xfffffe54
    9ecc:	5f636f6c 	svcpl	0x00636f6c
    9ed0:	7a746f6e 	bvc	1d25c90 <__bss_end__+0x1d1b970>
    9ed4:	006f7265 	rsbeq	r7, pc, r5, ror #4

00009ed8 <__FUNCTION__.2>:
    9ed8:	6c616d6b 	stclvs	13, cr6, [r1], #-428	; 0xfffffe54
    9edc:	00636f6c 	rsbeq	r6, r3, ip, ror #30

00009ee0 <__FUNCTION__.1>:
    9ee0:	6c616d6b 	stclvs	13, cr6, [r1], #-428	; 0xfffffe54
    9ee4:	5f636f6c 	svcpl	0x00636f6c
    9ee8:	67696c61 	strbvs	r6, [r9, -r1, ror #24]!
    9eec:	0064656e 	rsbeq	r6, r4, lr, ror #10

00009ef0 <__FUNCTION__.3>:
    9ef0:	6e756f72 	mrcvs	15, 3, r6, cr5, cr2, {3}
    9ef4:	00707564 	rsbseq	r7, r0, r4, ror #10

00009ef8 <__FUNCTION__.0>:
    9ef8:	6572666b 	ldrbvs	r6, [r2, #-1643]!	; 0xfffff995
    9efc:	6f705f65 	svcvs	0x00705f65
    9f00:	Address 0x0000000000009f00 is out of bounds.


Disassembly of section .data:

00009f04 <rpi_putchar>:
    9f04:	000087c4 	andeq	r8, r0, r4, asr #15

00009f08 <putk>:
    9f08:	00008800 	andeq	r8, r0, r0, lsl #16

00009f0c <heap_end>:
    9f0c:	0020a320 	eoreq	sl, r0, r0, lsr #6

00009f10 <heap_start>:
    9f10:	0000a320 	andeq	sl, r0, r0, lsr #6

00009f14 <heap>:
    9f14:	0000a320 	andeq	sl, r0, r0, lsr #6

Disassembly of section .bss:

00009f18 <__bss_start__>:
	...

0000a318 <init_p.6>:
	...

Disassembly of section .ARM.attributes:

00000000 <.ARM.attributes>:
   0:	00002a41 	andeq	r2, r0, r1, asr #20
   4:	61656100 	cmnvs	r5, r0, lsl #2
   8:	01006962 	tsteq	r0, r2, ror #18
   c:	00000020 	andeq	r0, r0, r0, lsr #32
  10:	4b5a3605 	blmi	168d82c <__bss_end__+0x168350c>
  14:	08070600 	stmdaeq	r7, {r9, sl}
  18:	12010901 	andne	r0, r1, #16384	; 0x4000
  1c:	15011404 	strne	r1, [r1, #-1028]	; 0xfffffbfc
  20:	18031701 	stmdane	r3, {r0, r8, r9, sl, ip}
  24:	22011a01 	andcs	r1, r1, #4096	; 0x1000
  28:	Address 0x0000000000000028 is out of bounds.


Disassembly of section .comment:

00000000 <.comment>:
   0:	3a434347 	bcc	10d0d24 <__bss_end__+0x10c6a04>
   4:	4e472820 	cdpmi	8, 4, cr2, cr7, cr0, {1}
   8:	6f542055 	svcvs	0x00542055
   c:	20736c6f 	rsbscs	r6, r3, pc, ror #24
  10:	20726f66 	rsbscs	r6, r2, r6, ror #30
  14:	206d7241 	rsbcs	r7, sp, r1, asr #4
  18:	65626d45 	strbvs	r6, [r2, #-3397]!	; 0xfffff2bb
  1c:	64656464 	strbtvs	r6, [r5], #-1124	; 0xfffffb9c
  20:	6f725020 	svcvs	0x00725020
  24:	73736563 	cmnvc	r3, #415236096	; 0x18c00000
  28:	2073726f 	rsbscs	r7, r3, pc, ror #4
  2c:	30322d39 	eorscc	r2, r2, r9, lsr sp
  30:	712d3931 			; <UNDEFINED> instruction: 0x712d3931
  34:	616d2d34 	cmnvs	sp, r4, lsr sp
  38:	29726f6a 	ldmdbcs	r2!, {r1, r3, r5, r6, r8, r9, sl, fp, sp, lr}^
  3c:	322e3920 	eorcc	r3, lr, #32, 18	; 0x80000
  40:	3220312e 	eorcc	r3, r0, #-2147483637	; 0x8000000b
  44:	31393130 	teqcc	r9, r0, lsr r1
  48:	20353230 	eorscs	r3, r5, r0, lsr r2
  4c:	6c657228 	sfmvs	f7, 2, [r5], #-160	; 0xffffff60
  50:	65736165 	ldrbvs	r6, [r3, #-357]!	; 0xfffffe9b
  54:	415b2029 	cmpmi	fp, r9, lsr #32
  58:	612f4d52 			; <UNDEFINED> instruction: 0x612f4d52
  5c:	392d6d72 	pushcc	{r1, r4, r5, r6, r8, sl, fp, sp, lr}
  60:	6172622d 	cmnvs	r2, sp, lsr #4
  64:	2068636e 	rsbcs	r6, r8, lr, ror #6
  68:	69766572 	ldmdbvs	r6!, {r1, r4, r5, r6, r8, sl, sp, lr}^
  6c:	6e6f6973 			; <UNDEFINED> instruction: 0x6e6f6973
  70:	37373220 	ldrcc	r3, [r7, -r0, lsr #4]!
  74:	5d393935 			; <UNDEFINED> instruction: 0x5d393935
  78:	43434700 	movtmi	r4, #14080	; 0x3700
  7c:	4728203a 			; <UNDEFINED> instruction: 0x4728203a
  80:	4120554e 			; <UNDEFINED> instruction: 0x4120554e
  84:	45206d72 	strmi	r6, [r0, #-3442]!	; 0xfffff28e
  88:	6465626d 	strbtvs	r6, [r5], #-621	; 0xfffffd93
  8c:	20646564 	rsbcs	r6, r4, r4, ror #10
  90:	6c6f6f54 	stclvs	15, cr6, [pc], #-336	; ffffff48 <__bss_end__+0xffff5c28>
  94:	69616863 	stmdbvs	r1!, {r0, r1, r5, r6, fp, sp, lr}^
  98:	3031206e 	eorscc	r2, r1, lr, rrx
  9c:	322d332e 	eorcc	r3, sp, #-1207959552	; 0xb8000000
  a0:	2e313230 	mrccs	2, 1, r3, cr1, cr0, {1}
  a4:	20293031 	eorcs	r3, r9, r1, lsr r0
  a8:	332e3031 			; <UNDEFINED> instruction: 0x332e3031
  ac:	3220312e 	eorcc	r3, r0, #-2147483637	; 0x8000000b
  b0:	30313230 	eorscc	r3, r1, r0, lsr r2
  b4:	20343238 	eorscs	r3, r4, r8, lsr r2
  b8:	6c657228 	sfmvs	f7, 2, [r5], #-160	; 0xffffff60
  bc:	65736165 	ldrbvs	r6, [r3, #-357]!	; 0xfffffe9b
  c0:	Address 0x00000000000000c0 is out of bounds.


Disassembly of section .debug_info:

00000000 <.debug_info>:
       0:	00001eae 	andeq	r1, r0, lr, lsr #29
       4:	00000004 	andeq	r0, r0, r4
       8:	01040000 	mrseq	r0, (UNDEF: 4)
       c:	000001d5 	ldrdeq	r0, [r0], -r5
      10:	0001c40c 	andeq	ip, r1, ip, lsl #8
      14:	00005900 	andeq	r5, r0, r0, lsl #18
      18:	00804000 	addeq	r4, r0, r0
      1c:	00062800 	andeq	r2, r6, r0, lsl #16
      20:	00000000 	andeq	r0, r0, r0
      24:	05040200 	streq	r0, [r4, #-512]	; 0xfffffe00
      28:	00746e69 	rsbseq	r6, r4, r9, ror #28
      2c:	4d070403 	cfstrsmi	mvf0, [r7, #-12]
      30:	04000001 	streq	r0, [r0], #-1
      34:	0000002c 	andeq	r0, r0, ip, lsr #32
      38:	23060103 	movwcs	r0, #24835	; 0x6103
      3c:	03000001 	movweq	r0, #1
      40:	00180502 	andseq	r0, r8, r2, lsl #10
      44:	04030000 	streq	r0, [r3], #-0
      48:	0000ce05 	andeq	ip, r0, r5, lsl #28
      4c:	05080300 	streq	r0, [r8, #-768]	; 0xfffffd00
      50:	000000c9 	andeq	r0, r0, r9, asr #1
      54:	21080103 	tstcs	r8, r3, lsl #2
      58:	03000001 	movweq	r0, #1
      5c:	01720702 	cmneq	r2, r2, lsl #14
      60:	04030000 	streq	r0, [r3], #-0
      64:	00014807 	andeq	r4, r1, r7, lsl #16
      68:	07080300 	streq	r0, [r8, -r0, lsl #6]
      6c:	00000143 	andeq	r0, r0, r3, asr #2
      70:	00002505 	andeq	r2, r0, r5, lsl #10
      74:	00007f00 	andeq	r7, r0, r0, lsl #30
      78:	00250600 	eoreq	r0, r5, r0, lsl #12
      7c:	07000000 	streq	r0, [r0, -r0]
      80:	00000027 	andeq	r0, r0, r7, lsr #32
      84:	8b0e1c03 	blhi	387098 <__bss_end__+0x37cd78>
      88:	08000000 	stmdaeq	r0, {}	; <UNPREDICTABLE>
      8c:	00007004 	andeq	r7, r0, r4
      90:	00250500 	eoreq	r0, r5, r0, lsl #10
      94:	00a00000 	adceq	r0, r0, r0
      98:	a0060000 	andge	r0, r6, r0
      9c:	00000000 	andeq	r0, r0, r0
      a0:	00ad0408 	adceq	r0, sp, r8, lsl #8
      a4:	01030000 	mrseq	r0, (UNDEF: 3)
      a8:	00012a08 	andeq	r2, r1, r8, lsl #20
      ac:	00a60400 	adceq	r0, r6, r0, lsl #8
      b0:	22070000 	andcs	r0, r7, #0, 0
      b4:	03000005 	movweq	r0, #5
      b8:	00be0e21 	adcseq	r0, lr, r1, lsr #28
      bc:	04080000 	streq	r0, [r8], #-0
      c0:	00000091 	muleq	r0, r1, r0
      c4:	5b020709 	blpl	81cf0 <__bss_end__+0x779d0>
      c8:	01000000 	mrseq	r0, (UNDEF: 0)
      cc:	00f20a4b 	rscseq	r0, r2, fp, asr #20
      d0:	540a0000 	strpl	r0, [sl], #-0
      d4:	00004831 	andeq	r4, r0, r1, lsr r8
      d8:	4830540a 	ldmdami	r0!, {r1, r3, sl, ip, lr}
      dc:	540a0000 	strpl	r0, [sl], #-0
      e0:	00004c31 	andeq	r4, r0, r1, lsr ip
      e4:	4c30540a 	cfldrsmi	mvf5, [r0], #-40	; 0xffffffd8
      e8:	b90b0000 	stmdblt	fp, {}	; <UNPREDICTABLE>
      ec:	b8000002 	stmdalt	r0, {r1}
      f0:	d70c0088 	strle	r0, [ip, -r8, lsl #1]
      f4:	01000000 	mrseq	r0, (UNDEF: 0)
      f8:	0033179a 	mlaseq	r3, sl, r7, r1
      fc:	09100000 	ldmdbeq	r0, {}	; <UNPREDICTABLE>
     100:	00540107 	subseq	r0, r4, r7, lsl #2
     104:	20020000 	andcs	r0, r2, r0
     108:	00011406 	andeq	r1, r1, r6, lsl #8
     10c:	01b30d00 			; <UNDEFINED> instruction: 0x01b30d00
     110:	00150000 	andseq	r0, r5, r0
     114:	00016a0e 	andeq	r6, r1, lr, lsl #20
     118:	06b80200 	ldrteq	r0, [r8], r0, lsl #4
     11c:	00008620 	andeq	r8, r0, r0, lsr #12
     120:	00000048 	andeq	r0, r0, r8, asr #32
     124:	01c19c01 	biceq	r9, r1, r1, lsl #24
     128:	280f0000 	stmdacs	pc, {}	; <UNPREDICTABLE>
     12c:	5d000086 	stcpl	0, cr0, [r0, #-536]	; 0xfffffde8
     130:	1000001e 	andne	r0, r0, lr, lsl r0
     134:	00008630 	andeq	r8, r0, r0, lsr r6
     138:	00001e69 	andeq	r1, r0, r9, ror #28
     13c:	00000146 	andeq	r0, r0, r6, asr #2
     140:	01500111 	cmpeq	r0, r1, lsl r1
     144:	38100045 	ldmdacc	r0, {r0, r2, r6}
     148:	c1000086 	smlabbgt	r0, r6, r0, r0
     14c:	5b000001 	blpl	158 <__code_start__-0x7ea8>
     150:	11000001 	tstne	r0, r1
     154:	0a035001 	beq	d4160 <__bss_end__+0xc9e40>
     158:	100003e8 	andne	r0, r0, r8, ror #7
     15c:	00008640 	andeq	r8, r0, r0, asr #12
     160:	000001c1 	andeq	r0, r0, r1, asr #3
     164:	0000016f 	andeq	r0, r0, pc, ror #2
     168:	02500111 	subseq	r0, r0, #1073741828	; 0x40000004
     16c:	10006408 	andne	r6, r0, r8, lsl #8
     170:	00008648 	andeq	r8, r0, r8, asr #12
     174:	000001c1 	andeq	r0, r0, r1, asr #3
     178:	00000182 	andeq	r0, r0, r2, lsl #3
     17c:	01500111 	cmpeq	r0, r1, lsl r1
     180:	5010003a 	andspl	r0, r0, sl, lsr r0
     184:	c1000086 	smlabbgt	r0, r6, r0, r0
     188:	95000001 	strls	r0, [r0, #-1]
     18c:	11000001 	tstne	r0, r1
     190:	31015001 	tstcc	r1, r1
     194:	86581000 	ldrbhi	r1, [r8], -r0
     198:	1e750000 	cdpne	0, 7, cr0, cr5, cr0, {0}
     19c:	01ac0000 			; <UNDEFINED> instruction: 0x01ac0000
     1a0:	01110000 	tsteq	r1, r0
     1a4:	00030550 	andeq	r0, r3, r0, asr r5
     1a8:	0000009b 	muleq	r0, fp, r0
     1ac:	00866412 	addeq	r6, r6, r2, lsl r4
     1b0:	00040500 	andeq	r0, r4, r0, lsl #10
     1b4:	50011100 	andpl	r1, r1, r0, lsl #2
     1b8:	01114501 	tsteq	r1, r1, lsl #10
     1bc:	00300151 	eorseq	r0, r0, r1, asr r1
     1c0:	00001300 	andeq	r1, r0, r0, lsl #6
     1c4:	9f020000 	svcls	0x00020000
     1c8:	0081080d 	addeq	r0, r1, sp, lsl #16
     1cc:	0000a800 	andeq	sl, r0, r0, lsl #16
     1d0:	f09c0100 			; <UNDEFINED> instruction: 0xf09c0100
     1d4:	14000003 	strne	r0, [r0], #-3
     1d8:	00000006 	andeq	r0, r0, r6
     1dc:	2c229f02 	stccs	15, cr9, [r2], #-8
     1e0:	0c000000 	stceq	0, cr0, [r0], {-0}
     1e4:	00000000 	andeq	r0, r0, r0
     1e8:	15000000 	strne	r0, [r0, #-0]
     1ec:	a3020073 	movwge	r0, #8307	; 0x2073
     1f0:	00002c0b 	andeq	r2, r0, fp, lsl #24
     1f4:	00005d00 	andeq	r5, r0, r0, lsl #26
     1f8:	00005900 	andeq	r5, r0, r0, lsl #18
     1fc:	00651500 	rsbeq	r1, r5, r0, lsl #10
     200:	2c0ba402 	cfstrscs	mvf10, [fp], {2}
     204:	81000000 	mrshi	r0, (UNDEF: 0)
     208:	7b000000 	blvc	210 <__code_start__-0x7df0>
     20c:	16000000 	strne	r0, [r0], -r0
     210:	00000050 	andeq	r0, r0, r0, asr r0
     214:	2c0ea502 	cfstr32cs	mvfx10, [lr], {2}
     218:	ae000000 	cdpge	0, 0, cr0, cr0, cr0, {0}
     21c:	aa000000 	bge	224 <__code_start__-0x7ddc>
     220:	0c000000 	stceq	0, cr0, [r0], {-0}
     224:	00000165 	andeq	r0, r0, r5, ror #2
     228:	2c0eac02 	stccs	12, cr10, [lr], {2}
     22c:	10000000 	andne	r0, r0, r0
     230:	0000f116 	andeq	pc, r0, r6, lsl r1	; <UNPREDICTABLE>
     234:	0ead0200 	cdpeq	2, 10, cr0, cr13, cr0, {0}
     238:	0000002c 	andeq	r0, r0, ip, lsr #32
     23c:	000000d4 	ldrdeq	r0, [r0], -r4
     240:	000000cc 	andeq	r0, r0, ip, asr #1
     244:	746f7415 	strbtvc	r7, [pc], #-1045	; 24c <__code_start__-0x7db4>
     248:	0eae0200 	cdpeq	2, 10, cr0, cr14, cr0, {0}
     24c:	0000002c 	andeq	r0, r0, ip, lsr #32
     250:	00000116 	andeq	r0, r0, r6, lsl r1
     254:	00000110 	andeq	r0, r0, r0, lsl r1
     258:	0000e417 	andeq	lr, r0, r7, lsl r4
     25c:	00040000 	andeq	r0, r4, r0
     260:	38030500 	stmdacc	r3, {r8, sl}
     264:	1800009b 	stmdane	r0, {r0, r1, r3, r4, r7}
     268:	00008120 	andeq	r8, r0, r0, lsr #2
     26c:	00000004 	andeq	r0, r0, r4
     270:	00000289 	andeq	r0, r0, r9, lsl #5
     274:	00002216 	andeq	r2, r0, r6, lsl r2
     278:	0fa30200 	svceq	0x00a30200
     27c:	0000002c 	andeq	r0, r0, ip, lsr #32
     280:	00000142 	andeq	r0, r0, r2, asr #2
     284:	00000140 	andeq	r0, r0, r0, asr #2
     288:	81241800 			; <UNDEFINED> instruction: 0x81241800
     28c:	00040000 	andeq	r0, r4, r0
     290:	02ab0000 	adceq	r0, fp, #0, 0
     294:	22160000 	andscs	r0, r6, #0, 0
     298:	02000000 	andeq	r0, r0, #0, 0
     29c:	002c0fa4 	eoreq	r0, ip, r4, lsr #31
     2a0:	01570000 	cmpeq	r7, r0
     2a4:	01550000 	cmpeq	r5, r0
     2a8:	18000000 	stmdane	r0, {}	; <UNPREDICTABLE>
     2ac:	00008138 	andeq	r8, r0, r8, lsr r1
     2b0:	00000004 	andeq	r0, r0, r4
     2b4:	000002cd 	andeq	r0, r0, sp, asr #5
     2b8:	00002216 	andeq	r2, r0, r6, lsl r2
     2bc:	06a80200 	strteq	r0, [r8], r0, lsl #4
     2c0:	0000002c 	andeq	r0, r0, ip, lsr #32
     2c4:	0000016c 	andeq	r0, r0, ip, ror #2
     2c8:	0000016a 	andeq	r0, r0, sl, ror #2
     2cc:	814c1800 	cmphi	ip, r0, lsl #16
     2d0:	00040000 	andeq	r0, r4, r0
     2d4:	02ef0000 	rsceq	r0, pc, #0, 0
     2d8:	22160000 	andscs	r0, r6, #0, 0
     2dc:	02000000 	andeq	r0, r0, #0, 0
     2e0:	002c06aa 	eoreq	r0, ip, sl, lsr #13
     2e4:	01830000 	orreq	r0, r3, r0
     2e8:	017f0000 	cmneq	pc, r0
     2ec:	19000000 	stmdbne	r0, {}	; <UNPREDICTABLE>
     2f0:	00001b9c 	muleq	r0, ip, fp
     2f4:	0000813c 	andeq	r8, r0, ip, lsr r1
     2f8:	813c0003 	teqhi	ip, r3
     2fc:	00100000 	andseq	r0, r0, r0
     300:	a9020000 	stmdbge	r2, {}	; <UNPREDICTABLE>
     304:	00034c09 	andeq	r4, r3, r9, lsl #24
     308:	1bb51a00 	blne	fed46b10 <__bss_end__+0xfed3c7f0>
     30c:	01a30000 			; <UNDEFINED> instruction: 0x01a30000
     310:	01a10000 			; <UNDEFINED> instruction: 0x01a10000
     314:	a91a0000 	ldmdbge	sl, {}	; <UNPREDICTABLE>
     318:	b800001b 	stmdalt	r0, {r0, r1, r3, r4}
     31c:	b6000001 	strlt	r0, [r0], -r1
     320:	1b000001 	blne	32c <__code_start__-0x7cd4>
     324:	00001bc1 	andeq	r1, r0, r1, asr #23
     328:	000001cd 	andeq	r0, r0, sp, asr #3
     32c:	000001cb 	andeq	r0, r0, fp, asr #3
     330:	001bcb1c 	andseq	ip, fp, ip, lsl fp
     334:	00813c00 	addeq	r3, r1, r0, lsl #24
     338:	00000400 	andeq	r0, r0, r0, lsl #8
     33c:	1bcc1b00 	blne	ff306f44 <__bss_end__+0xff2fcc24>
     340:	01e20000 	mvneq	r0, r0
     344:	01e00000 	mvneq	r0, r0
     348:	00000000 	andeq	r0, r0, r0
     34c:	00812010 	addeq	r2, r1, r0, lsl r0
     350:	001e7500 	andseq	r7, lr, r0, lsl #10
     354:	00036900 	andeq	r6, r3, r0, lsl #18
     358:	50011100 	andpl	r1, r1, r0, lsl #2
     35c:	98c00305 	stmials	r0, {r0, r2, r8, r9}^
     360:	01110000 	tsteq	r1, r0
     364:	00740251 	rsbseq	r0, r4, r1, asr r2
     368:	81381000 	teqhi	r8, r0
     36c:	1e750000 	cdpne	0, 7, cr0, cr5, cr0, {0}
     370:	03860000 	orreq	r0, r6, #0, 0
     374:	01110000 	tsteq	r1, r0
     378:	dc030550 	cfstr32le	mvfx0, [r3], {80}	; 0x50
     37c:	11000098 	swpne	r0, r8, [r0]	; <UNPREDICTABLE>
     380:	75025101 	strvc	r5, [r2, #-257]	; 0xfffffeff
     384:	781d0000 	ldmdavc	sp, {}	; <UNPREDICTABLE>
     388:	75000081 	strvc	r0, [r0, #-129]	; 0xffffff7f
     38c:	a400001e 	strge	r0, [r0], #-30	; 0xffffffe2
     390:	11000003 	tstne	r0, r3
     394:	03055001 	movweq	r5, #20481	; 0x5001
     398:	00009944 	andeq	r9, r0, r4, asr #18
     39c:	03510111 	cmpeq	r1, #1073741828	; 0x40000004
     3a0:	005001f3 	ldrsheq	r0, [r0], #-19	; 0xffffffed
     3a4:	00819410 	addeq	r9, r1, r0, lsl r4
     3a8:	001e7500 	andseq	r7, lr, r0, lsl #10
     3ac:	0003e600 	andeq	lr, r3, r0, lsl #12
     3b0:	50011100 	andpl	r1, r1, r0, lsl #2
     3b4:	99000305 	stmdbls	r0, {r0, r2, r8, r9}
     3b8:	01110000 	tsteq	r1, r0
     3bc:	ec030551 	cfstr32	mvfx0, [r3], {81}	; 0x51
     3c0:	11000098 	swpne	r0, r8, [r0]	; <UNPREDICTABLE>
     3c4:	03055201 	movweq	r5, #20993	; 0x5201
     3c8:	00009b38 	andeq	r9, r0, r8, lsr fp
     3cc:	02530111 	subseq	r0, r3, #1073741828	; 0x40000004
     3d0:	0211b008 	andseq	fp, r1, #8, 0
     3d4:	7402007d 	strvc	r0, [r2], #-125	; 0xffffff83
     3d8:	7d021100 	stfvcs	f1, [r2, #-0]
     3dc:	00740708 	rsbseq	r0, r4, r8, lsl #14
     3e0:	23220075 			; <UNDEFINED> instruction: 0x23220075
     3e4:	980f0010 	stmdals	pc, {r4}	; <UNPREDICTABLE>
     3e8:	81000081 	smlabbhi	r0, r1, r0, r0
     3ec:	0000001e 	andeq	r0, r0, lr, lsl r0
     3f0:	0000ad1e 	andeq	sl, r0, lr, lsl sp
     3f4:	00040000 	andeq	r0, r4, r0
     3f8:	002c1f00 	eoreq	r1, ip, r0, lsl #30
     3fc:	000b0000 	andeq	r0, fp, r0
     400:	0003f004 	andeq	pc, r3, r4
     404:	01130e00 	tsteq	r3, r0, lsl #28
     408:	81020000 	mrshi	r0, (UNDEF: 2)
     40c:	00829806 	addeq	r9, r2, r6, lsl #16
     410:	00038800 	andeq	r8, r3, r0, lsl #16
     414:	329c0100 	addscc	r0, ip, #0
     418:	20000017 	andcs	r0, r0, r7, lsl r0
     41c:	006e6970 	rsbeq	r6, lr, r0, ror r9
     420:	25188102 	ldrcs	r8, [r8, #-258]	; 0xfffffefe
     424:	f9000000 			; <UNDEFINED> instruction: 0xf9000000
     428:	f5000001 			; <UNDEFINED> instruction: 0xf5000001
     42c:	14000001 	strne	r0, [r0], #-1
     430:	0000029b 	muleq	r0, fp, r2
     434:	25218102 	strcs	r8, [r1, #-258]!	; 0xfffffefe
     438:	1b000000 	blne	440 <__code_start__-0x7bc0>
     43c:	17000002 	strne	r0, [r0, -r2]
     440:	15000002 	strne	r0, [r0, #-2]
     444:	83020073 	movwhi	r0, #8307	; 0x2073
     448:	00002c0b 	andeq	r2, r0, fp, lsl #24
     44c:	00023d00 	andeq	r3, r2, r0, lsl #26
     450:	00023900 	andeq	r3, r2, r0, lsl #18
     454:	00651500 	rsbeq	r1, r5, r0, lsl #10
     458:	2c0b8402 	cfstrscs	mvf8, [fp], {2}
     45c:	5f000000 	svcpl	0x00000000
     460:	5b000002 	blpl	470 <__code_start__-0x7b90>
     464:	16000002 	strne	r0, [r0], -r2
     468:	00000050 	andeq	r0, r0, r0, asr r0
     46c:	2c0b8502 	cfstr32cs	mvfx8, [fp], {2}
     470:	81000000 	mrshi	r0, (UNDEF: 0)
     474:	7d000002 	stcvc	0, cr0, [r0, #-8]
     478:	17000002 	strne	r0, [r0, -r2]
     47c:	000000e4 	andeq	r0, r0, r4, ror #1
     480:	00001742 	andeq	r1, r0, r2, asr #14
     484:	9b500305 	blls	14010a0 <__bss_end__+0x13f6d80>
     488:	74150000 	ldrvc	r0, [r5], #-0
     48c:	0b8f0200 	bleq	fe3c0c94 <__bss_end__+0xfe3b6974>
     490:	0000002c 	andeq	r0, r0, ip, lsr #32
     494:	000002a1 	andeq	r0, r0, r1, lsr #5
     498:	0000029f 	muleq	r0, pc, r2	; <UNPREDICTABLE>
     49c:	0082a818 	addeq	sl, r2, r8, lsl r8
     4a0:	00000400 	andeq	r0, r0, r0, lsl #8
     4a4:	0004be00 	andeq	fp, r4, r0, lsl #28
     4a8:	00221600 	eoreq	r1, r2, r0, lsl #12
     4ac:	83020000 	movwhi	r0, #8192	; 0x2000
     4b0:	00002c0f 	andeq	r2, r0, pc, lsl #24
     4b4:	0002b600 	andeq	fp, r2, r0, lsl #12
     4b8:	0002b400 	andeq	fp, r2, r0, lsl #8
     4bc:	ac180000 	ldcge	0, cr0, [r8], {-0}
     4c0:	04000082 	streq	r0, [r0], #-130	; 0xffffff7e
     4c4:	e0000000 	and	r0, r0, r0
     4c8:	16000004 	strne	r0, [r0], -r4
     4cc:	00000022 	andeq	r0, r0, r2, lsr #32
     4d0:	2c0f8402 	cfstrscs	mvf8, [pc], {2}
     4d4:	cb000000 	blgt	4dc <__code_start__-0x7b24>
     4d8:	c9000002 	stmdbgt	r0, {r1}
     4dc:	00000002 	andeq	r0, r0, r2
     4e0:	0082ec18 	addeq	lr, r2, r8, lsl ip
     4e4:	00010c00 	andeq	r0, r1, r0, lsl #24
     4e8:	000cff00 	andeq	pc, ip, r0, lsl #30
     4ec:	00621500 	rsbeq	r1, r2, r0, lsl #10
     4f0:	2c028902 			; <UNDEFINED> instruction: 0x2c028902
     4f4:	e0000000 	and	r0, r0, r0
     4f8:	de000002 	cdple	0, 0, cr0, cr0, cr2, {0}
     4fc:	15000002 	strne	r0, [r0, #-2]
     500:	89020065 	stmdbhi	r2, {r0, r2, r5, r6}
     504:	00002c02 	andeq	r2, r0, r2, lsl #24
     508:	0002f500 	andeq	pc, r2, r0, lsl #10
     50c:	0002f300 	andeq	pc, r2, r0, lsl #6
     510:	1bda2100 	blne	ff688918 <__bss_end__+0xff67e5f8>
     514:	83080000 	movwhi	r0, #32768	; 0x8000
     518:	00010000 	andeq	r0, r1, r0
     51c:	00000000 	andeq	r0, r0, r0
     520:	35028902 	strcc	r8, [r2, #-2306]	; 0xfffff6fe
     524:	1a000005 	bne	540 <__code_start__-0x7ac0>
     528:	00001be7 	andeq	r1, r0, r7, ror #23
     52c:	0000030a 	andeq	r0, r0, sl, lsl #6
     530:	00000308 	andeq	r0, r0, r8, lsl #6
     534:	1bda1900 	blne	ff68693c <__bss_end__+0xff67c61c>
     538:	830c0000 	movwhi	r0, #49152	; 0xc000
     53c:	00020000 	andeq	r0, r2, r0
     540:	0000830c 	andeq	r8, r0, ip, lsl #6
     544:	00000004 	andeq	r0, r0, r4
     548:	5d028902 	vstrpl.16	s16, [r2, #-4]	; <UNPREDICTABLE>
     54c:	1a000005 	bne	568 <__code_start__-0x7a98>
     550:	00001be7 	andeq	r1, r0, r7, ror #23
     554:	0000031f 	andeq	r0, r0, pc, lsl r3
     558:	0000031d 	andeq	r0, r0, sp, lsl r3
     55c:	1bda1900 	blne	ff686964 <__bss_end__+0xff67c644>
     560:	83100000 	tsthi	r0, #0, 0
     564:	00020000 	andeq	r0, r2, r0
     568:	00008310 	andeq	r8, r0, r0, lsl r3
     56c:	00000004 	andeq	r0, r0, r4
     570:	85028902 	strhi	r8, [r2, #-2306]	; 0xfffff6fe
     574:	1a000005 	bne	590 <__code_start__-0x7a70>
     578:	00001be7 	andeq	r1, r0, r7, ror #23
     57c:	00000334 	andeq	r0, r0, r4, lsr r3
     580:	00000332 	andeq	r0, r0, r2, lsr r3
     584:	1bda1900 	blne	ff68698c <__bss_end__+0xff67c66c>
     588:	83140000 	tsthi	r4, #0, 0
     58c:	00020000 	andeq	r0, r2, r0
     590:	00008314 	andeq	r8, r0, r4, lsl r3
     594:	00000004 	andeq	r0, r0, r4
     598:	ad028902 	vstrge.16	s16, [r2, #-4]	; <UNPREDICTABLE>
     59c:	1a000005 	bne	5b8 <__code_start__-0x7a48>
     5a0:	00001be7 	andeq	r1, r0, r7, ror #23
     5a4:	00000349 	andeq	r0, r0, r9, asr #6
     5a8:	00000347 	andeq	r0, r0, r7, asr #6
     5ac:	1bda1900 	blne	ff6869b4 <__bss_end__+0xff67c694>
     5b0:	83180000 	tsthi	r8, #0, 0
     5b4:	00020000 	andeq	r0, r2, r0
     5b8:	00008318 	andeq	r8, r0, r8, lsl r3
     5bc:	00000004 	andeq	r0, r0, r4
     5c0:	d5028902 	strle	r8, [r2, #-2306]	; 0xfffff6fe
     5c4:	1a000005 	bne	5e0 <__code_start__-0x7a20>
     5c8:	00001be7 	andeq	r1, r0, r7, ror #23
     5cc:	0000035e 	andeq	r0, r0, lr, asr r3
     5d0:	0000035c 	andeq	r0, r0, ip, asr r3
     5d4:	1bda1900 	blne	ff6869dc <__bss_end__+0xff67c6bc>
     5d8:	831c0000 	tsthi	ip, #0, 0
     5dc:	00020000 	andeq	r0, r2, r0
     5e0:	0000831c 	andeq	r8, r0, ip, lsl r3
     5e4:	00000004 	andeq	r0, r0, r4
     5e8:	fd028902 	stc2	9, cr8, [r2, #-4]	; <UNPREDICTABLE>
     5ec:	1a000005 	bne	608 <__code_start__-0x79f8>
     5f0:	00001be7 	andeq	r1, r0, r7, ror #23
     5f4:	00000373 	andeq	r0, r0, r3, ror r3
     5f8:	00000371 	andeq	r0, r0, r1, ror r3
     5fc:	1bda1900 	blne	ff686a04 <__bss_end__+0xff67c6e4>
     600:	83200000 	nophi	{0}	; <UNPREDICTABLE>
     604:	00020000 	andeq	r0, r2, r0
     608:	00008320 	andeq	r8, r0, r0, lsr #6
     60c:	00000004 	andeq	r0, r0, r4
     610:	25028902 	strcs	r8, [r2, #-2306]	; 0xfffff6fe
     614:	1a000006 	bne	634 <__code_start__-0x79cc>
     618:	00001be7 	andeq	r1, r0, r7, ror #23
     61c:	00000388 	andeq	r0, r0, r8, lsl #7
     620:	00000386 	andeq	r0, r0, r6, lsl #7
     624:	1bda1900 	blne	ff686a2c <__bss_end__+0xff67c70c>
     628:	83240000 			; <UNDEFINED> instruction: 0x83240000
     62c:	00020000 	andeq	r0, r2, r0
     630:	00008324 	andeq	r8, r0, r4, lsr #6
     634:	00000004 	andeq	r0, r0, r4
     638:	4d028902 	vstrmi.16	s16, [r2, #-4]	; <UNPREDICTABLE>
     63c:	1a000006 	bne	65c <__code_start__-0x79a4>
     640:	00001be7 	andeq	r1, r0, r7, ror #23
     644:	0000039d 	muleq	r0, sp, r3
     648:	0000039b 	muleq	r0, fp, r3
     64c:	1bda1900 	blne	ff686a54 <__bss_end__+0xff67c734>
     650:	83280000 			; <UNDEFINED> instruction: 0x83280000
     654:	00020000 	andeq	r0, r2, r0
     658:	00008328 	andeq	r8, r0, r8, lsr #6
     65c:	00000004 	andeq	r0, r0, r4
     660:	75028902 	strvc	r8, [r2, #-2306]	; 0xfffff6fe
     664:	1a000006 	bne	684 <__code_start__-0x797c>
     668:	00001be7 	andeq	r1, r0, r7, ror #23
     66c:	000003b2 			; <UNDEFINED> instruction: 0x000003b2
     670:	000003b0 			; <UNDEFINED> instruction: 0x000003b0
     674:	1bda1900 	blne	ff686a7c <__bss_end__+0xff67c75c>
     678:	832c0000 			; <UNDEFINED> instruction: 0x832c0000
     67c:	00020000 	andeq	r0, r2, r0
     680:	0000832c 	andeq	r8, r0, ip, lsr #6
     684:	00000004 	andeq	r0, r0, r4
     688:	9d028902 	vstrls.16	s16, [r2, #-4]	; <UNPREDICTABLE>
     68c:	1a000006 	bne	6ac <__code_start__-0x7954>
     690:	00001be7 	andeq	r1, r0, r7, ror #23
     694:	000003c7 	andeq	r0, r0, r7, asr #7
     698:	000003c5 	andeq	r0, r0, r5, asr #7
     69c:	1bda1900 	blne	ff686aa4 <__bss_end__+0xff67c784>
     6a0:	83300000 	teqhi	r0, #0, 0
     6a4:	00020000 	andeq	r0, r2, r0
     6a8:	00008330 	andeq	r8, r0, r0, lsr r3
     6ac:	00000004 	andeq	r0, r0, r4
     6b0:	c5028902 	strgt	r8, [r2, #-2306]	; 0xfffff6fe
     6b4:	1a000006 	bne	6d4 <__code_start__-0x792c>
     6b8:	00001be7 	andeq	r1, r0, r7, ror #23
     6bc:	000003dc 	ldrdeq	r0, [r0], -ip
     6c0:	000003da 	ldrdeq	r0, [r0], -sl
     6c4:	1bda1900 	blne	ff686acc <__bss_end__+0xff67c7ac>
     6c8:	83340000 	teqhi	r4, #0, 0
     6cc:	00020000 	andeq	r0, r2, r0
     6d0:	00008334 	andeq	r8, r0, r4, lsr r3
     6d4:	00000004 	andeq	r0, r0, r4
     6d8:	ed028902 	vstr.16	s16, [r2, #-4]
     6dc:	1a000006 	bne	6fc <__code_start__-0x7904>
     6e0:	00001be7 	andeq	r1, r0, r7, ror #23
     6e4:	000003f1 	strdeq	r0, [r0], -r1
     6e8:	000003ef 	andeq	r0, r0, pc, ror #7
     6ec:	1bda1900 	blne	ff686af4 <__bss_end__+0xff67c7d4>
     6f0:	83380000 	teqhi	r8, #0, 0
     6f4:	00020000 	andeq	r0, r2, r0
     6f8:	00008338 	andeq	r8, r0, r8, lsr r3
     6fc:	00000004 	andeq	r0, r0, r4
     700:	15028902 	strne	r8, [r2, #-2306]	; 0xfffff6fe
     704:	1a000007 	bne	728 <__code_start__-0x78d8>
     708:	00001be7 	andeq	r1, r0, r7, ror #23
     70c:	00000406 	andeq	r0, r0, r6, lsl #8
     710:	00000404 	andeq	r0, r0, r4, lsl #8
     714:	1bda1900 	blne	ff686b1c <__bss_end__+0xff67c7fc>
     718:	833c0000 	teqhi	ip, #0, 0
     71c:	00020000 	andeq	r0, r2, r0
     720:	0000833c 	andeq	r8, r0, ip, lsr r3
     724:	00000004 	andeq	r0, r0, r4
     728:	3d028902 	vstrcc.16	s16, [r2, #-4]	; <UNPREDICTABLE>
     72c:	1a000007 	bne	750 <__code_start__-0x78b0>
     730:	00001be7 	andeq	r1, r0, r7, ror #23
     734:	0000041b 	andeq	r0, r0, fp, lsl r4
     738:	00000419 	andeq	r0, r0, r9, lsl r4
     73c:	1bda1900 	blne	ff686b44 <__bss_end__+0xff67c824>
     740:	83400000 	movthi	r0, #0
     744:	00020000 	andeq	r0, r2, r0
     748:	00008340 	andeq	r8, r0, r0, asr #6
     74c:	00000004 	andeq	r0, r0, r4
     750:	65028902 	strvs	r8, [r2, #-2306]	; 0xfffff6fe
     754:	1a000007 	bne	778 <__code_start__-0x7888>
     758:	00001be7 	andeq	r1, r0, r7, ror #23
     75c:	00000430 	andeq	r0, r0, r0, lsr r4
     760:	0000042e 	andeq	r0, r0, lr, lsr #8
     764:	1bda1900 	blne	ff686b6c <__bss_end__+0xff67c84c>
     768:	83440000 	movthi	r0, #16384	; 0x4000
     76c:	00020000 	andeq	r0, r2, r0
     770:	00008344 	andeq	r8, r0, r4, asr #6
     774:	00000004 	andeq	r0, r0, r4
     778:	8d028902 	vstrhi.16	s16, [r2, #-4]	; <UNPREDICTABLE>
     77c:	1a000007 	bne	7a0 <__code_start__-0x7860>
     780:	00001be7 	andeq	r1, r0, r7, ror #23
     784:	00000445 	andeq	r0, r0, r5, asr #8
     788:	00000443 	andeq	r0, r0, r3, asr #8
     78c:	1bda1900 	blne	ff686b94 <__bss_end__+0xff67c874>
     790:	83480000 	movthi	r0, #32768	; 0x8000
     794:	00020000 	andeq	r0, r2, r0
     798:	00008348 	andeq	r8, r0, r8, asr #6
     79c:	00000004 	andeq	r0, r0, r4
     7a0:	b5028902 	strlt	r8, [r2, #-2306]	; 0xfffff6fe
     7a4:	1a000007 	bne	7c8 <__code_start__-0x7838>
     7a8:	00001be7 	andeq	r1, r0, r7, ror #23
     7ac:	0000045a 	andeq	r0, r0, sl, asr r4
     7b0:	00000458 	andeq	r0, r0, r8, asr r4
     7b4:	1bda1900 	blne	ff686bbc <__bss_end__+0xff67c89c>
     7b8:	834c0000 	movthi	r0, #49152	; 0xc000
     7bc:	00020000 	andeq	r0, r2, r0
     7c0:	0000834c 	andeq	r8, r0, ip, asr #6
     7c4:	00000004 	andeq	r0, r0, r4
     7c8:	dd028902 	vstrle.16	s16, [r2, #-4]	; <UNPREDICTABLE>
     7cc:	1a000007 	bne	7f0 <__code_start__-0x7810>
     7d0:	00001be7 	andeq	r1, r0, r7, ror #23
     7d4:	0000046f 	andeq	r0, r0, pc, ror #8
     7d8:	0000046d 	andeq	r0, r0, sp, ror #8
     7dc:	1bda1900 	blne	ff686be4 <__bss_end__+0xff67c8c4>
     7e0:	83500000 	cmphi	r0, #0, 0
     7e4:	00020000 	andeq	r0, r2, r0
     7e8:	00008350 	andeq	r8, r0, r0, asr r3
     7ec:	00000004 	andeq	r0, r0, r4
     7f0:	05028902 	streq	r8, [r2, #-2306]	; 0xfffff6fe
     7f4:	1a000008 	bne	81c <__code_start__-0x77e4>
     7f8:	00001be7 	andeq	r1, r0, r7, ror #23
     7fc:	00000484 	andeq	r0, r0, r4, lsl #9
     800:	00000482 	andeq	r0, r0, r2, lsl #9
     804:	1bda1900 	blne	ff686c0c <__bss_end__+0xff67c8ec>
     808:	83540000 	cmphi	r4, #0, 0
     80c:	00020000 	andeq	r0, r2, r0
     810:	00008354 	andeq	r8, r0, r4, asr r3
     814:	00000004 	andeq	r0, r0, r4
     818:	2d028902 	vstrcs.16	s16, [r2, #-4]	; <UNPREDICTABLE>
     81c:	1a000008 	bne	844 <__code_start__-0x77bc>
     820:	00001be7 	andeq	r1, r0, r7, ror #23
     824:	00000499 	muleq	r0, r9, r4
     828:	00000497 	muleq	r0, r7, r4
     82c:	1bda1900 	blne	ff686c34 <__bss_end__+0xff67c914>
     830:	83580000 	cmphi	r8, #0, 0
     834:	00020000 	andeq	r0, r2, r0
     838:	00008358 	andeq	r8, r0, r8, asr r3
     83c:	00000004 	andeq	r0, r0, r4
     840:	55028902 	strpl	r8, [r2, #-2306]	; 0xfffff6fe
     844:	1a000008 	bne	86c <__code_start__-0x7794>
     848:	00001be7 	andeq	r1, r0, r7, ror #23
     84c:	000004ae 	andeq	r0, r0, lr, lsr #9
     850:	000004ac 	andeq	r0, r0, ip, lsr #9
     854:	1bda1900 	blne	ff686c5c <__bss_end__+0xff67c93c>
     858:	835c0000 	cmphi	ip, #0, 0
     85c:	00020000 	andeq	r0, r2, r0
     860:	0000835c 	andeq	r8, r0, ip, asr r3
     864:	00000004 	andeq	r0, r0, r4
     868:	7d028902 	vstrvc.16	s16, [r2, #-4]	; <UNPREDICTABLE>
     86c:	1a000008 	bne	894 <__code_start__-0x776c>
     870:	00001be7 	andeq	r1, r0, r7, ror #23
     874:	000004c3 	andeq	r0, r0, r3, asr #9
     878:	000004c1 	andeq	r0, r0, r1, asr #9
     87c:	1bda1900 	blne	ff686c84 <__bss_end__+0xff67c964>
     880:	83600000 	cmnhi	r0, #0, 0
     884:	00020000 	andeq	r0, r2, r0
     888:	00008360 	andeq	r8, r0, r0, ror #6
     88c:	00000004 	andeq	r0, r0, r4
     890:	a5028902 	strge	r8, [r2, #-2306]	; 0xfffff6fe
     894:	1a000008 	bne	8bc <__code_start__-0x7744>
     898:	00001be7 	andeq	r1, r0, r7, ror #23
     89c:	000004d8 	ldrdeq	r0, [r0], -r8
     8a0:	000004d6 	ldrdeq	r0, [r0], -r6
     8a4:	1bda1900 	blne	ff686cac <__bss_end__+0xff67c98c>
     8a8:	83640000 	cmnhi	r4, #0, 0
     8ac:	00020000 	andeq	r0, r2, r0
     8b0:	00008364 	andeq	r8, r0, r4, ror #6
     8b4:	00000004 	andeq	r0, r0, r4
     8b8:	cd028902 	vstrgt.16	s16, [r2, #-4]	; <UNPREDICTABLE>
     8bc:	1a000008 	bne	8e4 <__code_start__-0x771c>
     8c0:	00001be7 	andeq	r1, r0, r7, ror #23
     8c4:	000004ed 	andeq	r0, r0, sp, ror #9
     8c8:	000004eb 	andeq	r0, r0, fp, ror #9
     8cc:	1bda1900 	blne	ff686cd4 <__bss_end__+0xff67c9b4>
     8d0:	83680000 	cmnhi	r8, #0, 0
     8d4:	00020000 	andeq	r0, r2, r0
     8d8:	00008368 	andeq	r8, r0, r8, ror #6
     8dc:	00000004 	andeq	r0, r0, r4
     8e0:	f5028902 			; <UNDEFINED> instruction: 0xf5028902
     8e4:	1a000008 	bne	90c <__code_start__-0x76f4>
     8e8:	00001be7 	andeq	r1, r0, r7, ror #23
     8ec:	00000502 	andeq	r0, r0, r2, lsl #10
     8f0:	00000500 	andeq	r0, r0, r0, lsl #10
     8f4:	1bda1900 	blne	ff686cfc <__bss_end__+0xff67c9dc>
     8f8:	836c0000 	cmnhi	ip, #0, 0
     8fc:	00020000 	andeq	r0, r2, r0
     900:	0000836c 	andeq	r8, r0, ip, ror #6
     904:	00000004 	andeq	r0, r0, r4
     908:	1d028902 	vstrne.16	s16, [r2, #-4]	; <UNPREDICTABLE>
     90c:	1a000009 	bne	938 <__code_start__-0x76c8>
     910:	00001be7 	andeq	r1, r0, r7, ror #23
     914:	00000517 	andeq	r0, r0, r7, lsl r5
     918:	00000515 	andeq	r0, r0, r5, lsl r5
     91c:	1bda1900 	blne	ff686d24 <__bss_end__+0xff67ca04>
     920:	83700000 	cmnhi	r0, #0, 0
     924:	00020000 	andeq	r0, r2, r0
     928:	00008370 	andeq	r8, r0, r0, ror r3
     92c:	00000004 	andeq	r0, r0, r4
     930:	45028902 	strmi	r8, [r2, #-2306]	; 0xfffff6fe
     934:	1a000009 	bne	960 <__code_start__-0x76a0>
     938:	00001be7 	andeq	r1, r0, r7, ror #23
     93c:	0000052c 	andeq	r0, r0, ip, lsr #10
     940:	0000052a 	andeq	r0, r0, sl, lsr #10
     944:	1bda1900 	blne	ff686d4c <__bss_end__+0xff67ca2c>
     948:	83740000 	cmnhi	r4, #0, 0
     94c:	00020000 	andeq	r0, r2, r0
     950:	00008374 	andeq	r8, r0, r4, ror r3
     954:	00000004 	andeq	r0, r0, r4
     958:	6d028902 	vstrvs.16	s16, [r2, #-4]	; <UNPREDICTABLE>
     95c:	1a000009 	bne	988 <__code_start__-0x7678>
     960:	00001be7 	andeq	r1, r0, r7, ror #23
     964:	00000541 	andeq	r0, r0, r1, asr #10
     968:	0000053f 	andeq	r0, r0, pc, lsr r5
     96c:	1bda1900 	blne	ff686d74 <__bss_end__+0xff67ca54>
     970:	83780000 	cmnhi	r8, #0, 0
     974:	00020000 	andeq	r0, r2, r0
     978:	00008378 	andeq	r8, r0, r8, ror r3
     97c:	00000004 	andeq	r0, r0, r4
     980:	95028902 	strls	r8, [r2, #-2306]	; 0xfffff6fe
     984:	1a000009 	bne	9b0 <__code_start__-0x7650>
     988:	00001be7 	andeq	r1, r0, r7, ror #23
     98c:	00000556 	andeq	r0, r0, r6, asr r5
     990:	00000554 	andeq	r0, r0, r4, asr r5
     994:	1bda1900 	blne	ff686d9c <__bss_end__+0xff67ca7c>
     998:	837c0000 	cmnhi	ip, #0, 0
     99c:	00020000 	andeq	r0, r2, r0
     9a0:	0000837c 	andeq	r8, r0, ip, ror r3
     9a4:	00000004 	andeq	r0, r0, r4
     9a8:	bd028902 	vstrlt.16	s16, [r2, #-4]	; <UNPREDICTABLE>
     9ac:	1a000009 	bne	9d8 <__code_start__-0x7628>
     9b0:	00001be7 	andeq	r1, r0, r7, ror #23
     9b4:	0000056b 	andeq	r0, r0, fp, ror #10
     9b8:	00000569 	andeq	r0, r0, r9, ror #10
     9bc:	1bda1900 	blne	ff686dc4 <__bss_end__+0xff67caa4>
     9c0:	83800000 	orrhi	r0, r0, #0, 0
     9c4:	00020000 	andeq	r0, r2, r0
     9c8:	00008380 	andeq	r8, r0, r0, lsl #7
     9cc:	00000004 	andeq	r0, r0, r4
     9d0:	e5028902 	str	r8, [r2, #-2306]	; 0xfffff6fe
     9d4:	1a000009 	bne	a00 <__code_start__-0x7600>
     9d8:	00001be7 	andeq	r1, r0, r7, ror #23
     9dc:	00000580 	andeq	r0, r0, r0, lsl #11
     9e0:	0000057e 	andeq	r0, r0, lr, ror r5
     9e4:	1bda1900 	blne	ff686dec <__bss_end__+0xff67cacc>
     9e8:	83840000 	orrhi	r0, r4, #0, 0
     9ec:	00020000 	andeq	r0, r2, r0
     9f0:	00008384 	andeq	r8, r0, r4, lsl #7
     9f4:	00000004 	andeq	r0, r0, r4
     9f8:	0d028902 	vstreq.16	s16, [r2, #-4]	; <UNPREDICTABLE>
     9fc:	1a00000a 	bne	a2c <__code_start__-0x75d4>
     a00:	00001be7 	andeq	r1, r0, r7, ror #23
     a04:	00000595 	muleq	r0, r5, r5
     a08:	00000593 	muleq	r0, r3, r5
     a0c:	1bda1900 	blne	ff686e14 <__bss_end__+0xff67caf4>
     a10:	83880000 	orrhi	r0, r8, #0, 0
     a14:	00020000 	andeq	r0, r2, r0
     a18:	00008388 	andeq	r8, r0, r8, lsl #7
     a1c:	00000004 	andeq	r0, r0, r4
     a20:	35028902 	strcc	r8, [r2, #-2306]	; 0xfffff6fe
     a24:	1a00000a 	bne	a54 <__code_start__-0x75ac>
     a28:	00001be7 	andeq	r1, r0, r7, ror #23
     a2c:	000005aa 	andeq	r0, r0, sl, lsr #11
     a30:	000005a8 	andeq	r0, r0, r8, lsr #11
     a34:	1bda1900 	blne	ff686e3c <__bss_end__+0xff67cb1c>
     a38:	838c0000 	orrhi	r0, ip, #0, 0
     a3c:	00020000 	andeq	r0, r2, r0
     a40:	0000838c 	andeq	r8, r0, ip, lsl #7
     a44:	00000004 	andeq	r0, r0, r4
     a48:	5d028902 	vstrpl.16	s16, [r2, #-4]	; <UNPREDICTABLE>
     a4c:	1a00000a 	bne	a7c <__code_start__-0x7584>
     a50:	00001be7 	andeq	r1, r0, r7, ror #23
     a54:	000005bf 			; <UNDEFINED> instruction: 0x000005bf
     a58:	000005bd 			; <UNDEFINED> instruction: 0x000005bd
     a5c:	1bda1900 	blne	ff686e64 <__bss_end__+0xff67cb44>
     a60:	83900000 	orrshi	r0, r0, #0, 0
     a64:	00020000 	andeq	r0, r2, r0
     a68:	00008390 	muleq	r0, r0, r3
     a6c:	00000004 	andeq	r0, r0, r4
     a70:	85028902 	strhi	r8, [r2, #-2306]	; 0xfffff6fe
     a74:	1a00000a 	bne	aa4 <__code_start__-0x755c>
     a78:	00001be7 	andeq	r1, r0, r7, ror #23
     a7c:	000005d4 	ldrdeq	r0, [r0], -r4
     a80:	000005d2 	ldrdeq	r0, [r0], -r2
     a84:	1bda1900 	blne	ff686e8c <__bss_end__+0xff67cb6c>
     a88:	83940000 	orrshi	r0, r4, #0, 0
     a8c:	00020000 	andeq	r0, r2, r0
     a90:	00008394 	muleq	r0, r4, r3
     a94:	00000004 	andeq	r0, r0, r4
     a98:	ad028902 	vstrge.16	s16, [r2, #-4]	; <UNPREDICTABLE>
     a9c:	1a00000a 	bne	acc <__code_start__-0x7534>
     aa0:	00001be7 	andeq	r1, r0, r7, ror #23
     aa4:	000005e9 	andeq	r0, r0, r9, ror #11
     aa8:	000005e7 	andeq	r0, r0, r7, ror #11
     aac:	1bda1900 	blne	ff686eb4 <__bss_end__+0xff67cb94>
     ab0:	83980000 	orrshi	r0, r8, #0, 0
     ab4:	00020000 	andeq	r0, r2, r0
     ab8:	00008398 	muleq	r0, r8, r3
     abc:	00000004 	andeq	r0, r0, r4
     ac0:	d5028902 	strle	r8, [r2, #-2306]	; 0xfffff6fe
     ac4:	1a00000a 	bne	af4 <__code_start__-0x750c>
     ac8:	00001be7 	andeq	r1, r0, r7, ror #23
     acc:	000005fe 	strdeq	r0, [r0], -lr
     ad0:	000005fc 	strdeq	r0, [r0], -ip
     ad4:	1bda1900 	blne	ff686edc <__bss_end__+0xff67cbbc>
     ad8:	839c0000 	orrshi	r0, ip, #0, 0
     adc:	00020000 	andeq	r0, r2, r0
     ae0:	0000839c 	muleq	r0, ip, r3
     ae4:	00000004 	andeq	r0, r0, r4
     ae8:	fd028902 	stc2	9, cr8, [r2, #-4]	; <UNPREDICTABLE>
     aec:	1a00000a 	bne	b1c <__code_start__-0x74e4>
     af0:	00001be7 	andeq	r1, r0, r7, ror #23
     af4:	00000613 	andeq	r0, r0, r3, lsl r6
     af8:	00000611 	andeq	r0, r0, r1, lsl r6
     afc:	1bda1900 	blne	ff686f04 <__bss_end__+0xff67cbe4>
     b00:	83a00000 	movhi	r0, #0, 0
     b04:	00020000 	andeq	r0, r2, r0
     b08:	000083a0 	andeq	r8, r0, r0, lsr #7
     b0c:	00000004 	andeq	r0, r0, r4
     b10:	25028902 	strcs	r8, [r2, #-2306]	; 0xfffff6fe
     b14:	1a00000b 	bne	b48 <__code_start__-0x74b8>
     b18:	00001be7 	andeq	r1, r0, r7, ror #23
     b1c:	00000628 	andeq	r0, r0, r8, lsr #12
     b20:	00000626 	andeq	r0, r0, r6, lsr #12
     b24:	1bda1900 	blne	ff686f2c <__bss_end__+0xff67cc0c>
     b28:	83a40000 			; <UNDEFINED> instruction: 0x83a40000
     b2c:	00020000 	andeq	r0, r2, r0
     b30:	000083a4 	andeq	r8, r0, r4, lsr #7
     b34:	00000004 	andeq	r0, r0, r4
     b38:	4d028902 	vstrmi.16	s16, [r2, #-4]	; <UNPREDICTABLE>
     b3c:	1a00000b 	bne	b70 <__code_start__-0x7490>
     b40:	00001be7 	andeq	r1, r0, r7, ror #23
     b44:	0000063d 	andeq	r0, r0, sp, lsr r6
     b48:	0000063b 	andeq	r0, r0, fp, lsr r6
     b4c:	1bda1900 	blne	ff686f54 <__bss_end__+0xff67cc34>
     b50:	83a80000 			; <UNDEFINED> instruction: 0x83a80000
     b54:	00020000 	andeq	r0, r2, r0
     b58:	000083a8 	andeq	r8, r0, r8, lsr #7
     b5c:	00000004 	andeq	r0, r0, r4
     b60:	75028902 	strvc	r8, [r2, #-2306]	; 0xfffff6fe
     b64:	1a00000b 	bne	b98 <__code_start__-0x7468>
     b68:	00001be7 	andeq	r1, r0, r7, ror #23
     b6c:	00000652 	andeq	r0, r0, r2, asr r6
     b70:	00000650 	andeq	r0, r0, r0, asr r6
     b74:	1bda1900 	blne	ff686f7c <__bss_end__+0xff67cc5c>
     b78:	83ac0000 			; <UNDEFINED> instruction: 0x83ac0000
     b7c:	00020000 	andeq	r0, r2, r0
     b80:	000083ac 	andeq	r8, r0, ip, lsr #7
     b84:	00000004 	andeq	r0, r0, r4
     b88:	9d028902 	vstrls.16	s16, [r2, #-4]	; <UNPREDICTABLE>
     b8c:	1a00000b 	bne	bc0 <__code_start__-0x7440>
     b90:	00001be7 	andeq	r1, r0, r7, ror #23
     b94:	00000667 	andeq	r0, r0, r7, ror #12
     b98:	00000665 	andeq	r0, r0, r5, ror #12
     b9c:	1bda1900 	blne	ff686fa4 <__bss_end__+0xff67cc84>
     ba0:	83b00000 	movshi	r0, #0, 0
     ba4:	00020000 	andeq	r0, r2, r0
     ba8:	000083b0 			; <UNDEFINED> instruction: 0x000083b0
     bac:	00000004 	andeq	r0, r0, r4
     bb0:	c5028902 	strgt	r8, [r2, #-2306]	; 0xfffff6fe
     bb4:	1a00000b 	bne	be8 <__code_start__-0x7418>
     bb8:	00001be7 	andeq	r1, r0, r7, ror #23
     bbc:	0000067c 	andeq	r0, r0, ip, ror r6
     bc0:	0000067a 	andeq	r0, r0, sl, ror r6
     bc4:	1bda1900 	blne	ff686fcc <__bss_end__+0xff67ccac>
     bc8:	83b40000 			; <UNDEFINED> instruction: 0x83b40000
     bcc:	00020000 	andeq	r0, r2, r0
     bd0:	000083b4 			; <UNDEFINED> instruction: 0x000083b4
     bd4:	00000004 	andeq	r0, r0, r4
     bd8:	ed028902 	vstr.16	s16, [r2, #-4]
     bdc:	1a00000b 	bne	c10 <__code_start__-0x73f0>
     be0:	00001be7 	andeq	r1, r0, r7, ror #23
     be4:	00000691 	muleq	r0, r1, r6
     be8:	0000068f 	andeq	r0, r0, pc, lsl #13
     bec:	1bda1900 	blne	ff686ff4 <__bss_end__+0xff67ccd4>
     bf0:	83b80000 			; <UNDEFINED> instruction: 0x83b80000
     bf4:	00020000 	andeq	r0, r2, r0
     bf8:	000083b8 			; <UNDEFINED> instruction: 0x000083b8
     bfc:	00000004 	andeq	r0, r0, r4
     c00:	15028902 	strne	r8, [r2, #-2306]	; 0xfffff6fe
     c04:	1a00000c 	bne	c3c <__code_start__-0x73c4>
     c08:	00001be7 	andeq	r1, r0, r7, ror #23
     c0c:	000006a6 	andeq	r0, r0, r6, lsr #13
     c10:	000006a4 	andeq	r0, r0, r4, lsr #13
     c14:	1bda1900 	blne	ff68701c <__bss_end__+0xff67ccfc>
     c18:	83bc0000 			; <UNDEFINED> instruction: 0x83bc0000
     c1c:	00020000 	andeq	r0, r2, r0
     c20:	000083bc 			; <UNDEFINED> instruction: 0x000083bc
     c24:	00000004 	andeq	r0, r0, r4
     c28:	3d028902 	vstrcc.16	s16, [r2, #-4]	; <UNPREDICTABLE>
     c2c:	1a00000c 	bne	c64 <__code_start__-0x739c>
     c30:	00001be7 	andeq	r1, r0, r7, ror #23
     c34:	000006bb 			; <UNDEFINED> instruction: 0x000006bb
     c38:	000006b9 			; <UNDEFINED> instruction: 0x000006b9
     c3c:	1bda1900 	blne	ff687044 <__bss_end__+0xff67cd24>
     c40:	83c00000 	bichi	r0, r0, #0, 0
     c44:	00020000 	andeq	r0, r2, r0
     c48:	000083c0 	andeq	r8, r0, r0, asr #7
     c4c:	00000004 	andeq	r0, r0, r4
     c50:	65028902 	strvs	r8, [r2, #-2306]	; 0xfffff6fe
     c54:	1a00000c 	bne	c8c <__code_start__-0x7374>
     c58:	00001be7 	andeq	r1, r0, r7, ror #23
     c5c:	000006d0 	ldrdeq	r0, [r0], -r0	; <UNPREDICTABLE>
     c60:	000006ce 	andeq	r0, r0, lr, asr #13
     c64:	1bda1900 	blne	ff68706c <__bss_end__+0xff67cd4c>
     c68:	83c40000 	bichi	r0, r4, #0, 0
     c6c:	00020000 	andeq	r0, r2, r0
     c70:	000083c4 	andeq	r8, r0, r4, asr #7
     c74:	00000004 	andeq	r0, r0, r4
     c78:	8d028902 	vstrhi.16	s16, [r2, #-4]	; <UNPREDICTABLE>
     c7c:	1a00000c 	bne	cb4 <__code_start__-0x734c>
     c80:	00001be7 	andeq	r1, r0, r7, ror #23
     c84:	000006e5 	andeq	r0, r0, r5, ror #13
     c88:	000006e3 	andeq	r0, r0, r3, ror #13
     c8c:	1bda1900 	blne	ff687094 <__bss_end__+0xff67cd74>
     c90:	83c80000 	bichi	r0, r8, #0, 0
     c94:	00020000 	andeq	r0, r2, r0
     c98:	000083c8 	andeq	r8, r0, r8, asr #7
     c9c:	00000004 	andeq	r0, r0, r4
     ca0:	b5028902 	strlt	r8, [r2, #-2306]	; 0xfffff6fe
     ca4:	1a00000c 	bne	cdc <__code_start__-0x7324>
     ca8:	00001be7 	andeq	r1, r0, r7, ror #23
     cac:	000006fa 	strdeq	r0, [r0], -sl
     cb0:	000006f8 	strdeq	r0, [r0], -r8
     cb4:	1bda1900 	blne	ff6870bc <__bss_end__+0xff67cd9c>
     cb8:	83cc0000 	bichi	r0, ip, #0, 0
     cbc:	00020000 	andeq	r0, r2, r0
     cc0:	000083cc 	andeq	r8, r0, ip, asr #7
     cc4:	00000004 	andeq	r0, r0, r4
     cc8:	dd028902 	vstrle.16	s16, [r2, #-4]	; <UNPREDICTABLE>
     ccc:	1a00000c 	bne	d04 <__code_start__-0x72fc>
     cd0:	00001be7 	andeq	r1, r0, r7, ror #23
     cd4:	0000070f 	andeq	r0, r0, pc, lsl #14
     cd8:	0000070d 	andeq	r0, r0, sp, lsl #14
     cdc:	83f81200 	mvnshi	r1, #0, 4
     ce0:	1e750000 	cdpne	0, 7, cr0, cr5, cr0, {0}
     ce4:	01110000 	tsteq	r1, r0
     ce8:	68030550 	stmdavs	r3, {r4, r6, r8, sl}
     cec:	1100009a 	swpne	r0, sl, [r0]	; <UNPREDICTABLE>
     cf0:	03055101 	movweq	r5, #20737	; 0x5101
     cf4:	00009a58 	andeq	r9, r0, r8, asr sl
     cf8:	01520111 	cmpeq	r2, r1, lsl r1
     cfc:	18000046 	stmdane	r0, {r1, r2, r6}
     d00:	000083f8 	strdeq	r8, [r0], -r8	; <UNPREDICTABLE>
     d04:	000000f8 	strdeq	r0, [r0], -r8
     d08:	0000152a 	andeq	r1, r0, sl, lsr #10
     d0c:	02006215 	andeq	r6, r0, #1342177281	; 0x50000001
     d10:	002c028a 	eoreq	r0, ip, sl, lsl #5
     d14:	07240000 	streq	r0, [r4, -r0]!
     d18:	07220000 	streq	r0, [r2, -r0]!
     d1c:	65150000 	ldrvs	r0, [r5, #-0]
     d20:	028a0200 	addeq	r0, sl, #0, 4
     d24:	0000002c 	andeq	r0, r0, ip, lsr #32
     d28:	00000739 	andeq	r0, r0, r9, lsr r7
     d2c:	00000737 	andeq	r0, r0, r7, lsr r7
     d30:	001bf419 	andseq	pc, fp, r9, lsl r4	; <UNPREDICTABLE>
     d34:	00840400 	addeq	r0, r4, r0, lsl #8
     d38:	04000100 	streq	r0, [r0], #-256	; 0xffffff00
     d3c:	04000084 	streq	r0, [r0], #-132	; 0xffffff7c
     d40:	02000000 	andeq	r0, r0, #0, 0
     d44:	0d58028a 	lfmeq	f0, 2, [r8, #-552]	; 0xfffffdd8
     d48:	011a0000 	tsteq	sl, r0
     d4c:	4e00001c 	mcrmi	0, 0, r0, cr0, cr12, {0}
     d50:	4c000007 	stcmi	0, cr0, [r0], {7}
     d54:	00000007 	andeq	r0, r0, r7
     d58:	001bf419 	andseq	pc, fp, r9, lsl r4	; <UNPREDICTABLE>
     d5c:	00840800 	addeq	r0, r4, r0, lsl #16
     d60:	08000200 	stmdaeq	r0, {r9}
     d64:	04000084 	streq	r0, [r0], #-132	; 0xffffff7c
     d68:	02000000 	andeq	r0, r0, #0, 0
     d6c:	0d80028a 	sfmeq	f0, 4, [r0, #552]	; 0x228
     d70:	011a0000 	tsteq	sl, r0
     d74:	6300001c 	movwvs	r0, #28
     d78:	61000007 	tstvs	r0, r7
     d7c:	00000007 	andeq	r0, r0, r7
     d80:	001bf419 	andseq	pc, fp, r9, lsl r4	; <UNPREDICTABLE>
     d84:	00840c00 	addeq	r0, r4, r0, lsl #24
     d88:	0c000200 	sfmeq	f0, 4, [r0], {-0}
     d8c:	04000084 	streq	r0, [r0], #-132	; 0xffffff7c
     d90:	02000000 	andeq	r0, r0, #0, 0
     d94:	0da8028a 	sfmeq	f0, 4, [r8, #552]!	; 0x228
     d98:	011a0000 	tsteq	sl, r0
     d9c:	7800001c 	stmdavc	r0, {r2, r3, r4}
     da0:	76000007 	strvc	r0, [r0], -r7
     da4:	00000007 	andeq	r0, r0, r7
     da8:	001bf419 	andseq	pc, fp, r9, lsl r4	; <UNPREDICTABLE>
     dac:	00841000 	addeq	r1, r4, r0
     db0:	10000200 	andne	r0, r0, r0, lsl #4
     db4:	04000084 	streq	r0, [r0], #-132	; 0xffffff7c
     db8:	02000000 	andeq	r0, r0, #0, 0
     dbc:	0dd0028a 	lfmeq	f0, 2, [r0, #552]	; 0x228
     dc0:	011a0000 	tsteq	sl, r0
     dc4:	8d00001c 	stchi	0, cr0, [r0, #-112]	; 0xffffff90
     dc8:	8b000007 	blhi	dec <__code_start__-0x7214>
     dcc:	00000007 	andeq	r0, r0, r7
     dd0:	001bf419 	andseq	pc, fp, r9, lsl r4	; <UNPREDICTABLE>
     dd4:	00841400 	addeq	r1, r4, r0, lsl #8
     dd8:	14000200 	strne	r0, [r0], #-512	; 0xfffffe00
     ddc:	04000084 	streq	r0, [r0], #-132	; 0xffffff7c
     de0:	02000000 	andeq	r0, r0, #0, 0
     de4:	0df8028a 	lfmeq	f0, 2, [r8, #552]!	; 0x228
     de8:	011a0000 	tsteq	sl, r0
     dec:	a200001c 	andge	r0, r0, #28, 0
     df0:	a0000007 	andge	r0, r0, r7
     df4:	00000007 	andeq	r0, r0, r7
     df8:	001bf419 	andseq	pc, fp, r9, lsl r4	; <UNPREDICTABLE>
     dfc:	00841800 	addeq	r1, r4, r0, lsl #16
     e00:	18000200 	stmdane	r0, {r9}
     e04:	04000084 	streq	r0, [r0], #-132	; 0xffffff7c
     e08:	02000000 	andeq	r0, r0, #0, 0
     e0c:	0e20028a 	cdpeq	2, 2, cr0, cr0, cr10, {4}
     e10:	011a0000 	tsteq	sl, r0
     e14:	b700001c 	smladlt	r0, ip, r0, r0
     e18:	b5000007 	strlt	r0, [r0, #-7]
     e1c:	00000007 	andeq	r0, r0, r7
     e20:	001bf419 	andseq	pc, fp, r9, lsl r4	; <UNPREDICTABLE>
     e24:	00841c00 	addeq	r1, r4, r0, lsl #24
     e28:	1c000200 	sfmne	f0, 4, [r0], {-0}
     e2c:	04000084 	streq	r0, [r0], #-132	; 0xffffff7c
     e30:	02000000 	andeq	r0, r0, #0, 0
     e34:	0e48028a 	cdpeq	2, 4, cr0, cr8, cr10, {4}
     e38:	011a0000 	tsteq	sl, r0
     e3c:	cc00001c 	stcgt	0, cr0, [r0], {28}
     e40:	ca000007 	bgt	e64 <__code_start__-0x719c>
     e44:	00000007 	andeq	r0, r0, r7
     e48:	001bf419 	andseq	pc, fp, r9, lsl r4	; <UNPREDICTABLE>
     e4c:	00842000 	addeq	r2, r4, r0
     e50:	20000200 	andcs	r0, r0, r0, lsl #4
     e54:	04000084 	streq	r0, [r0], #-132	; 0xffffff7c
     e58:	02000000 	andeq	r0, r0, #0, 0
     e5c:	0e70028a 	cdpeq	2, 7, cr0, cr0, cr10, {4}
     e60:	011a0000 	tsteq	sl, r0
     e64:	e100001c 	tst	r0, ip, lsl r0
     e68:	df000007 	svcle	0x00000007
     e6c:	00000007 	andeq	r0, r0, r7
     e70:	001bf419 	andseq	pc, fp, r9, lsl r4	; <UNPREDICTABLE>
     e74:	00842400 	addeq	r2, r4, r0, lsl #8
     e78:	24000200 	strcs	r0, [r0], #-512	; 0xfffffe00
     e7c:	04000084 	streq	r0, [r0], #-132	; 0xffffff7c
     e80:	02000000 	andeq	r0, r0, #0, 0
     e84:	0e98028a 	cdpeq	2, 9, cr0, cr8, cr10, {4}
     e88:	011a0000 	tsteq	sl, r0
     e8c:	f600001c 			; <UNDEFINED> instruction: 0xf600001c
     e90:	f4000007 	vst4.8	{d0-d3}, [r0], r7
     e94:	00000007 	andeq	r0, r0, r7
     e98:	001bf419 	andseq	pc, fp, r9, lsl r4	; <UNPREDICTABLE>
     e9c:	00842800 	addeq	r2, r4, r0, lsl #16
     ea0:	28000200 	stmdacs	r0, {r9}
     ea4:	04000084 	streq	r0, [r0], #-132	; 0xffffff7c
     ea8:	02000000 	andeq	r0, r0, #0, 0
     eac:	0ec0028a 	cdpeq	2, 12, cr0, cr0, cr10, {4}
     eb0:	011a0000 	tsteq	sl, r0
     eb4:	0b00001c 	bleq	f2c <__code_start__-0x70d4>
     eb8:	09000008 	stmdbeq	r0, {r3}
     ebc:	00000008 	andeq	r0, r0, r8
     ec0:	001bf419 	andseq	pc, fp, r9, lsl r4	; <UNPREDICTABLE>
     ec4:	00842c00 	addeq	r2, r4, r0, lsl #24
     ec8:	2c000200 	sfmcs	f0, 4, [r0], {-0}
     ecc:	04000084 	streq	r0, [r0], #-132	; 0xffffff7c
     ed0:	02000000 	andeq	r0, r0, #0, 0
     ed4:	0ee8028a 	cdpeq	2, 14, cr0, cr8, cr10, {4}
     ed8:	011a0000 	tsteq	sl, r0
     edc:	2000001c 	andcs	r0, r0, ip, lsl r0
     ee0:	1e000008 	cdpne	0, 0, cr0, cr0, cr8, {0}
     ee4:	00000008 	andeq	r0, r0, r8
     ee8:	001bf419 	andseq	pc, fp, r9, lsl r4	; <UNPREDICTABLE>
     eec:	00843000 	addeq	r3, r4, r0
     ef0:	30000200 	andcc	r0, r0, r0, lsl #4
     ef4:	04000084 	streq	r0, [r0], #-132	; 0xffffff7c
     ef8:	02000000 	andeq	r0, r0, #0, 0
     efc:	0f10028a 	svceq	0x0010028a
     f00:	011a0000 	tsteq	sl, r0
     f04:	3500001c 	strcc	r0, [r0, #-28]	; 0xffffffe4
     f08:	33000008 	movwcc	r0, #8
     f0c:	00000008 	andeq	r0, r0, r8
     f10:	001bf419 	andseq	pc, fp, r9, lsl r4	; <UNPREDICTABLE>
     f14:	00843400 	addeq	r3, r4, r0, lsl #8
     f18:	34000200 	strcc	r0, [r0], #-512	; 0xfffffe00
     f1c:	04000084 	streq	r0, [r0], #-132	; 0xffffff7c
     f20:	02000000 	andeq	r0, r0, #0, 0
     f24:	0f38028a 	svceq	0x0038028a
     f28:	011a0000 	tsteq	sl, r0
     f2c:	4a00001c 	bmi	fa4 <__code_start__-0x705c>
     f30:	48000008 	stmdami	r0, {r3}
     f34:	00000008 	andeq	r0, r0, r8
     f38:	001bf419 	andseq	pc, fp, r9, lsl r4	; <UNPREDICTABLE>
     f3c:	00843800 	addeq	r3, r4, r0, lsl #16
     f40:	38000200 	stmdacc	r0, {r9}
     f44:	04000084 	streq	r0, [r0], #-132	; 0xffffff7c
     f48:	02000000 	andeq	r0, r0, #0, 0
     f4c:	0f60028a 	svceq	0x0060028a
     f50:	011a0000 	tsteq	sl, r0
     f54:	5f00001c 	svcpl	0x0000001c
     f58:	5d000008 	stcpl	0, cr0, [r0, #-32]	; 0xffffffe0
     f5c:	00000008 	andeq	r0, r0, r8
     f60:	001bf419 	andseq	pc, fp, r9, lsl r4	; <UNPREDICTABLE>
     f64:	00843c00 	addeq	r3, r4, r0, lsl #24
     f68:	3c000200 	sfmcc	f0, 4, [r0], {-0}
     f6c:	04000084 	streq	r0, [r0], #-132	; 0xffffff7c
     f70:	02000000 	andeq	r0, r0, #0, 0
     f74:	0f88028a 	svceq	0x0088028a
     f78:	011a0000 	tsteq	sl, r0
     f7c:	7400001c 	strvc	r0, [r0], #-28	; 0xffffffe4
     f80:	72000008 	andvc	r0, r0, #8, 0
     f84:	00000008 	andeq	r0, r0, r8
     f88:	001bf419 	andseq	pc, fp, r9, lsl r4	; <UNPREDICTABLE>
     f8c:	00844000 	addeq	r4, r4, r0
     f90:	40000200 	andmi	r0, r0, r0, lsl #4
     f94:	04000084 	streq	r0, [r0], #-132	; 0xffffff7c
     f98:	02000000 	andeq	r0, r0, #0, 0
     f9c:	0fb0028a 	svceq	0x00b0028a
     fa0:	011a0000 	tsteq	sl, r0
     fa4:	8900001c 	stmdbhi	r0, {r2, r3, r4}
     fa8:	87000008 	strhi	r0, [r0, -r8]
     fac:	00000008 	andeq	r0, r0, r8
     fb0:	001bf419 	andseq	pc, fp, r9, lsl r4	; <UNPREDICTABLE>
     fb4:	00844400 	addeq	r4, r4, r0, lsl #8
     fb8:	44000200 	strmi	r0, [r0], #-512	; 0xfffffe00
     fbc:	04000084 	streq	r0, [r0], #-132	; 0xffffff7c
     fc0:	02000000 	andeq	r0, r0, #0, 0
     fc4:	0fd8028a 	svceq	0x00d8028a
     fc8:	011a0000 	tsteq	sl, r0
     fcc:	9e00001c 	mcrls	0, 0, r0, cr0, cr12, {0}
     fd0:	9c000008 	stcls	0, cr0, [r0], {8}
     fd4:	00000008 	andeq	r0, r0, r8
     fd8:	001bf419 	andseq	pc, fp, r9, lsl r4	; <UNPREDICTABLE>
     fdc:	00844800 	addeq	r4, r4, r0, lsl #16
     fe0:	48000200 	stmdami	r0, {r9}
     fe4:	04000084 	streq	r0, [r0], #-132	; 0xffffff7c
     fe8:	02000000 	andeq	r0, r0, #0, 0
     fec:	1000028a 	andne	r0, r0, sl, lsl #5
     ff0:	011a0000 	tsteq	sl, r0
     ff4:	b300001c 	movwlt	r0, #28
     ff8:	b1000008 	tstlt	r0, r8
     ffc:	00000008 	andeq	r0, r0, r8
    1000:	001bf419 	andseq	pc, fp, r9, lsl r4	; <UNPREDICTABLE>
    1004:	00844c00 	addeq	r4, r4, r0, lsl #24
    1008:	4c000200 	sfmmi	f0, 4, [r0], {-0}
    100c:	04000084 	streq	r0, [r0], #-132	; 0xffffff7c
    1010:	02000000 	andeq	r0, r0, #0, 0
    1014:	1028028a 	eorne	r0, r8, sl, lsl #5
    1018:	011a0000 	tsteq	sl, r0
    101c:	c800001c 	stmdagt	r0, {r2, r3, r4}
    1020:	c6000008 	strgt	r0, [r0], -r8
    1024:	00000008 	andeq	r0, r0, r8
    1028:	001bf419 	andseq	pc, fp, r9, lsl r4	; <UNPREDICTABLE>
    102c:	00845000 	addeq	r5, r4, r0
    1030:	50000200 	andpl	r0, r0, r0, lsl #4
    1034:	04000084 	streq	r0, [r0], #-132	; 0xffffff7c
    1038:	02000000 	andeq	r0, r0, #0, 0
    103c:	1050028a 	subsne	r0, r0, sl, lsl #5
    1040:	011a0000 	tsteq	sl, r0
    1044:	dd00001c 	stcle	0, cr0, [r0, #-112]	; 0xffffff90
    1048:	db000008 	blle	1070 <__code_start__-0x6f90>
    104c:	00000008 	andeq	r0, r0, r8
    1050:	001bf419 	andseq	pc, fp, r9, lsl r4	; <UNPREDICTABLE>
    1054:	00845400 	addeq	r5, r4, r0, lsl #8
    1058:	54000200 	strpl	r0, [r0], #-512	; 0xfffffe00
    105c:	04000084 	streq	r0, [r0], #-132	; 0xffffff7c
    1060:	02000000 	andeq	r0, r0, #0, 0
    1064:	1078028a 	rsbsne	r0, r8, sl, lsl #5
    1068:	011a0000 	tsteq	sl, r0
    106c:	f200001c 	vqadd.s8	d0, d0, d12
    1070:	f0000008 			; <UNDEFINED> instruction: 0xf0000008
    1074:	00000008 	andeq	r0, r0, r8
    1078:	001bf419 	andseq	pc, fp, r9, lsl r4	; <UNPREDICTABLE>
    107c:	00845800 	addeq	r5, r4, r0, lsl #16
    1080:	58000200 	stmdapl	r0, {r9}
    1084:	04000084 	streq	r0, [r0], #-132	; 0xffffff7c
    1088:	02000000 	andeq	r0, r0, #0, 0
    108c:	10a0028a 	adcne	r0, r0, sl, lsl #5
    1090:	011a0000 	tsteq	sl, r0
    1094:	0700001c 	smladeq	r0, ip, r0, r0
    1098:	05000009 	streq	r0, [r0, #-9]
    109c:	00000009 	andeq	r0, r0, r9
    10a0:	001bf419 	andseq	pc, fp, r9, lsl r4	; <UNPREDICTABLE>
    10a4:	00845c00 	addeq	r5, r4, r0, lsl #24
    10a8:	5c000200 	sfmpl	f0, 4, [r0], {-0}
    10ac:	04000084 	streq	r0, [r0], #-132	; 0xffffff7c
    10b0:	02000000 	andeq	r0, r0, #0, 0
    10b4:	10c8028a 	sbcne	r0, r8, sl, lsl #5
    10b8:	011a0000 	tsteq	sl, r0
    10bc:	1c00001c 	stcne	0, cr0, [r0], {28}
    10c0:	1a000009 	bne	10ec <__code_start__-0x6f14>
    10c4:	00000009 	andeq	r0, r0, r9
    10c8:	001bf419 	andseq	pc, fp, r9, lsl r4	; <UNPREDICTABLE>
    10cc:	00846000 	addeq	r6, r4, r0
    10d0:	60000200 	andvs	r0, r0, r0, lsl #4
    10d4:	04000084 	streq	r0, [r0], #-132	; 0xffffff7c
    10d8:	02000000 	andeq	r0, r0, #0, 0
    10dc:	10f0028a 	rscsne	r0, r0, sl, lsl #5
    10e0:	011a0000 	tsteq	sl, r0
    10e4:	3100001c 	tstcc	r0, ip, lsl r0
    10e8:	2f000009 	svccs	0x00000009
    10ec:	00000009 	andeq	r0, r0, r9
    10f0:	001bf419 	andseq	pc, fp, r9, lsl r4	; <UNPREDICTABLE>
    10f4:	00846400 	addeq	r6, r4, r0, lsl #8
    10f8:	64000200 	strvs	r0, [r0], #-512	; 0xfffffe00
    10fc:	04000084 	streq	r0, [r0], #-132	; 0xffffff7c
    1100:	02000000 	andeq	r0, r0, #0, 0
    1104:	1118028a 	tstne	r8, sl, lsl #5
    1108:	011a0000 	tsteq	sl, r0
    110c:	4600001c 			; <UNDEFINED> instruction: 0x4600001c
    1110:	44000009 	strmi	r0, [r0], #-9
    1114:	00000009 	andeq	r0, r0, r9
    1118:	001bf419 	andseq	pc, fp, r9, lsl r4	; <UNPREDICTABLE>
    111c:	00846800 	addeq	r6, r4, r0, lsl #16
    1120:	68000200 	stmdavs	r0, {r9}
    1124:	04000084 	streq	r0, [r0], #-132	; 0xffffff7c
    1128:	02000000 	andeq	r0, r0, #0, 0
    112c:	1140028a 	smlalbbne	r0, r0, sl, r2	; <UNPREDICTABLE>
    1130:	011a0000 	tsteq	sl, r0
    1134:	5b00001c 	blpl	11ac <__code_start__-0x6e54>
    1138:	59000009 	stmdbpl	r0, {r0, r3}
    113c:	00000009 	andeq	r0, r0, r9
    1140:	001bf419 	andseq	pc, fp, r9, lsl r4	; <UNPREDICTABLE>
    1144:	00846c00 	addeq	r6, r4, r0, lsl #24
    1148:	6c000200 	sfmvs	f0, 4, [r0], {-0}
    114c:	04000084 	streq	r0, [r0], #-132	; 0xffffff7c
    1150:	02000000 	andeq	r0, r0, #0, 0
    1154:	1168028a 	smulbbne	r8, sl, r2
    1158:	011a0000 	tsteq	sl, r0
    115c:	7000001c 	andvc	r0, r0, ip, lsl r0
    1160:	6e000009 	cdpvs	0, 0, cr0, cr0, cr9, {0}
    1164:	00000009 	andeq	r0, r0, r9
    1168:	001bf419 	andseq	pc, fp, r9, lsl r4	; <UNPREDICTABLE>
    116c:	00847000 	addeq	r7, r4, r0
    1170:	70000200 	andvc	r0, r0, r0, lsl #4
    1174:	04000084 	streq	r0, [r0], #-132	; 0xffffff7c
    1178:	02000000 	andeq	r0, r0, #0, 0
    117c:	1190028a 	orrsne	r0, r0, sl, lsl #5
    1180:	011a0000 	tsteq	sl, r0
    1184:	8500001c 	strhi	r0, [r0, #-28]	; 0xffffffe4
    1188:	83000009 	movwhi	r0, #9
    118c:	00000009 	andeq	r0, r0, r9
    1190:	001bf419 	andseq	pc, fp, r9, lsl r4	; <UNPREDICTABLE>
    1194:	00847400 	addeq	r7, r4, r0, lsl #8
    1198:	74000200 	strvc	r0, [r0], #-512	; 0xfffffe00
    119c:	04000084 	streq	r0, [r0], #-132	; 0xffffff7c
    11a0:	02000000 	andeq	r0, r0, #0, 0
    11a4:	11b8028a 			; <UNDEFINED> instruction: 0x11b8028a
    11a8:	011a0000 	tsteq	sl, r0
    11ac:	9a00001c 	bls	1224 <__code_start__-0x6ddc>
    11b0:	98000009 	stmdals	r0, {r0, r3}
    11b4:	00000009 	andeq	r0, r0, r9
    11b8:	001bf419 	andseq	pc, fp, r9, lsl r4	; <UNPREDICTABLE>
    11bc:	00847800 	addeq	r7, r4, r0, lsl #16
    11c0:	78000200 	stmdavc	r0, {r9}
    11c4:	04000084 	streq	r0, [r0], #-132	; 0xffffff7c
    11c8:	02000000 	andeq	r0, r0, #0, 0
    11cc:	11e0028a 	mvnne	r0, sl, lsl #5
    11d0:	011a0000 	tsteq	sl, r0
    11d4:	af00001c 	svcge	0x0000001c
    11d8:	ad000009 	stcge	0, cr0, [r0, #-36]	; 0xffffffdc
    11dc:	00000009 	andeq	r0, r0, r9
    11e0:	001bf419 	andseq	pc, fp, r9, lsl r4	; <UNPREDICTABLE>
    11e4:	00847c00 	addeq	r7, r4, r0, lsl #24
    11e8:	7c000200 	sfmvc	f0, 4, [r0], {-0}
    11ec:	04000084 	streq	r0, [r0], #-132	; 0xffffff7c
    11f0:	02000000 	andeq	r0, r0, #0, 0
    11f4:	1208028a 	andne	r0, r8, #-1610612728	; 0xa0000008
    11f8:	011a0000 	tsteq	sl, r0
    11fc:	c400001c 	strgt	r0, [r0], #-28	; 0xffffffe4
    1200:	c2000009 	andgt	r0, r0, #9, 0
    1204:	00000009 	andeq	r0, r0, r9
    1208:	001bf419 	andseq	pc, fp, r9, lsl r4	; <UNPREDICTABLE>
    120c:	00848000 	addeq	r8, r4, r0
    1210:	80000200 	andhi	r0, r0, r0, lsl #4
    1214:	04000084 	streq	r0, [r0], #-132	; 0xffffff7c
    1218:	02000000 	andeq	r0, r0, #0, 0
    121c:	1230028a 	eorsne	r0, r0, #-1610612728	; 0xa0000008
    1220:	011a0000 	tsteq	sl, r0
    1224:	d900001c 	stmdble	r0, {r2, r3, r4}
    1228:	d7000009 	strle	r0, [r0, -r9]
    122c:	00000009 	andeq	r0, r0, r9
    1230:	001bf419 	andseq	pc, fp, r9, lsl r4	; <UNPREDICTABLE>
    1234:	00848400 	addeq	r8, r4, r0, lsl #8
    1238:	84000200 	strhi	r0, [r0], #-512	; 0xfffffe00
    123c:	04000084 	streq	r0, [r0], #-132	; 0xffffff7c
    1240:	02000000 	andeq	r0, r0, #0, 0
    1244:	1258028a 	subsne	r0, r8, #-1610612728	; 0xa0000008
    1248:	011a0000 	tsteq	sl, r0
    124c:	ee00001c 	mcr	0, 0, r0, cr0, cr12, {0}
    1250:	ec000009 	stc	0, cr0, [r0], {9}
    1254:	00000009 	andeq	r0, r0, r9
    1258:	001bf419 	andseq	pc, fp, r9, lsl r4	; <UNPREDICTABLE>
    125c:	00848800 	addeq	r8, r4, r0, lsl #16
    1260:	88000200 	stmdahi	r0, {r9}
    1264:	04000084 	streq	r0, [r0], #-132	; 0xffffff7c
    1268:	02000000 	andeq	r0, r0, #0, 0
    126c:	1280028a 	addne	r0, r0, #-1610612728	; 0xa0000008
    1270:	011a0000 	tsteq	sl, r0
    1274:	0300001c 	movweq	r0, #28
    1278:	0100000a 	tsteq	r0, sl
    127c:	0000000a 	andeq	r0, r0, sl
    1280:	001bf419 	andseq	pc, fp, r9, lsl r4	; <UNPREDICTABLE>
    1284:	00848c00 	addeq	r8, r4, r0, lsl #24
    1288:	8c000200 	sfmhi	f0, 4, [r0], {-0}
    128c:	04000084 	streq	r0, [r0], #-132	; 0xffffff7c
    1290:	02000000 	andeq	r0, r0, #0, 0
    1294:	12a8028a 	adcne	r0, r8, #-1610612728	; 0xa0000008
    1298:	011a0000 	tsteq	sl, r0
    129c:	1800001c 	stmdane	r0, {r2, r3, r4}
    12a0:	1600000a 	strne	r0, [r0], -sl
    12a4:	0000000a 	andeq	r0, r0, sl
    12a8:	001bf419 	andseq	pc, fp, r9, lsl r4	; <UNPREDICTABLE>
    12ac:	00849000 	addeq	r9, r4, r0
    12b0:	90000200 	andls	r0, r0, r0, lsl #4
    12b4:	04000084 	streq	r0, [r0], #-132	; 0xffffff7c
    12b8:	02000000 	andeq	r0, r0, #0, 0
    12bc:	12d0028a 	sbcsne	r0, r0, #-1610612728	; 0xa0000008
    12c0:	011a0000 	tsteq	sl, r0
    12c4:	2d00001c 	stccs	0, cr0, [r0, #-112]	; 0xffffff90
    12c8:	2b00000a 	blcs	12f8 <__code_start__-0x6d08>
    12cc:	0000000a 	andeq	r0, r0, sl
    12d0:	001bf419 	andseq	pc, fp, r9, lsl r4	; <UNPREDICTABLE>
    12d4:	00849400 	addeq	r9, r4, r0, lsl #8
    12d8:	94000200 	strls	r0, [r0], #-512	; 0xfffffe00
    12dc:	04000084 	streq	r0, [r0], #-132	; 0xffffff7c
    12e0:	02000000 	andeq	r0, r0, #0, 0
    12e4:	12f8028a 	rscsne	r0, r8, #-1610612728	; 0xa0000008
    12e8:	011a0000 	tsteq	sl, r0
    12ec:	4200001c 	andmi	r0, r0, #28, 0
    12f0:	4000000a 	andmi	r0, r0, sl
    12f4:	0000000a 	andeq	r0, r0, sl
    12f8:	001bf419 	andseq	pc, fp, r9, lsl r4	; <UNPREDICTABLE>
    12fc:	00849800 	addeq	r9, r4, r0, lsl #16
    1300:	98000200 	stmdals	r0, {r9}
    1304:	04000084 	streq	r0, [r0], #-132	; 0xffffff7c
    1308:	02000000 	andeq	r0, r0, #0, 0
    130c:	1320028a 			; <UNDEFINED> instruction: 0x1320028a
    1310:	011a0000 	tsteq	sl, r0
    1314:	5700001c 	smladpl	r0, ip, r0, r0
    1318:	5500000a 	strpl	r0, [r0, #-10]
    131c:	0000000a 	andeq	r0, r0, sl
    1320:	001bf419 	andseq	pc, fp, r9, lsl r4	; <UNPREDICTABLE>
    1324:	00849c00 	addeq	r9, r4, r0, lsl #24
    1328:	9c000200 	sfmls	f0, 4, [r0], {-0}
    132c:	04000084 	streq	r0, [r0], #-132	; 0xffffff7c
    1330:	02000000 	andeq	r0, r0, #0, 0
    1334:	1348028a 	movtne	r0, #33418	; 0x828a
    1338:	011a0000 	tsteq	sl, r0
    133c:	6c00001c 	stcvs	0, cr0, [r0], {28}
    1340:	6a00000a 	bvs	1370 <__code_start__-0x6c90>
    1344:	0000000a 	andeq	r0, r0, sl
    1348:	001bf419 	andseq	pc, fp, r9, lsl r4	; <UNPREDICTABLE>
    134c:	0084a000 	addeq	sl, r4, r0
    1350:	a0000200 	andge	r0, r0, r0, lsl #4
    1354:	04000084 	streq	r0, [r0], #-132	; 0xffffff7c
    1358:	02000000 	andeq	r0, r0, #0, 0
    135c:	1370028a 	cmnne	r0, #-1610612728	; 0xa0000008
    1360:	011a0000 	tsteq	sl, r0
    1364:	8100001c 	tsthi	r0, ip, lsl r0
    1368:	7f00000a 	svcvc	0x0000000a
    136c:	0000000a 	andeq	r0, r0, sl
    1370:	001bf419 	andseq	pc, fp, r9, lsl r4	; <UNPREDICTABLE>
    1374:	0084a400 	addeq	sl, r4, r0, lsl #8
    1378:	a4000200 	strge	r0, [r0], #-512	; 0xfffffe00
    137c:	04000084 	streq	r0, [r0], #-132	; 0xffffff7c
    1380:	02000000 	andeq	r0, r0, #0, 0
    1384:	1398028a 	orrsne	r0, r8, #-1610612728	; 0xa0000008
    1388:	011a0000 	tsteq	sl, r0
    138c:	9600001c 			; <UNDEFINED> instruction: 0x9600001c
    1390:	9400000a 	strls	r0, [r0], #-10
    1394:	0000000a 	andeq	r0, r0, sl
    1398:	001bf419 	andseq	pc, fp, r9, lsl r4	; <UNPREDICTABLE>
    139c:	0084a800 	addeq	sl, r4, r0, lsl #16
    13a0:	a8000200 	stmdage	r0, {r9}
    13a4:	04000084 	streq	r0, [r0], #-132	; 0xffffff7c
    13a8:	02000000 	andeq	r0, r0, #0, 0
    13ac:	13c0028a 	bicne	r0, r0, #-1610612728	; 0xa0000008
    13b0:	011a0000 	tsteq	sl, r0
    13b4:	ab00001c 	blge	142c <__code_start__-0x6bd4>
    13b8:	a900000a 	stmdbge	r0, {r1, r3}
    13bc:	0000000a 	andeq	r0, r0, sl
    13c0:	001bf419 	andseq	pc, fp, r9, lsl r4	; <UNPREDICTABLE>
    13c4:	0084ac00 	addeq	sl, r4, r0, lsl #24
    13c8:	ac000200 	sfmge	f0, 4, [r0], {-0}
    13cc:	04000084 	streq	r0, [r0], #-132	; 0xffffff7c
    13d0:	02000000 	andeq	r0, r0, #0, 0
    13d4:	13e8028a 	mvnne	r0, #-1610612728	; 0xa0000008
    13d8:	011a0000 	tsteq	sl, r0
    13dc:	c000001c 	andgt	r0, r0, ip, lsl r0
    13e0:	be00000a 	cdplt	0, 0, cr0, cr0, cr10, {0}
    13e4:	0000000a 	andeq	r0, r0, sl
    13e8:	001bf419 	andseq	pc, fp, r9, lsl r4	; <UNPREDICTABLE>
    13ec:	0084b000 	addeq	fp, r4, r0
    13f0:	b0000200 	andlt	r0, r0, r0, lsl #4
    13f4:	04000084 	streq	r0, [r0], #-132	; 0xffffff7c
    13f8:	02000000 	andeq	r0, r0, #0, 0
    13fc:	1410028a 	ldrne	r0, [r0], #-650	; 0xfffffd76
    1400:	011a0000 	tsteq	sl, r0
    1404:	d500001c 	strle	r0, [r0, #-28]	; 0xffffffe4
    1408:	d300000a 	movwle	r0, #10
    140c:	0000000a 	andeq	r0, r0, sl
    1410:	001bf419 	andseq	pc, fp, r9, lsl r4	; <UNPREDICTABLE>
    1414:	0084b400 	addeq	fp, r4, r0, lsl #8
    1418:	b4000200 	strlt	r0, [r0], #-512	; 0xfffffe00
    141c:	04000084 	streq	r0, [r0], #-132	; 0xffffff7c
    1420:	02000000 	andeq	r0, r0, #0, 0
    1424:	1438028a 	ldrtne	r0, [r8], #-650	; 0xfffffd76
    1428:	011a0000 	tsteq	sl, r0
    142c:	ea00001c 	b	14a4 <__code_start__-0x6b5c>
    1430:	e800000a 	stmda	r0, {r1, r3}
    1434:	0000000a 	andeq	r0, r0, sl
    1438:	001bf419 	andseq	pc, fp, r9, lsl r4	; <UNPREDICTABLE>
    143c:	0084b800 	addeq	fp, r4, r0, lsl #16
    1440:	b8000200 	stmdalt	r0, {r9}
    1444:	04000084 	streq	r0, [r0], #-132	; 0xffffff7c
    1448:	02000000 	andeq	r0, r0, #0, 0
    144c:	1460028a 	strbtne	r0, [r0], #-650	; 0xfffffd76
    1450:	011a0000 	tsteq	sl, r0
    1454:	ff00001c 			; <UNDEFINED> instruction: 0xff00001c
    1458:	fd00000a 	stc2	0, cr0, [r0, #-40]	; 0xffffffd8
    145c:	0000000a 	andeq	r0, r0, sl
    1460:	001bf419 	andseq	pc, fp, r9, lsl r4	; <UNPREDICTABLE>
    1464:	0084bc00 	addeq	fp, r4, r0, lsl #24
    1468:	bc000200 	sfmlt	f0, 4, [r0], {-0}
    146c:	04000084 	streq	r0, [r0], #-132	; 0xffffff7c
    1470:	02000000 	andeq	r0, r0, #0, 0
    1474:	1488028a 	strne	r0, [r8], #650	; 0x28a
    1478:	011a0000 	tsteq	sl, r0
    147c:	1400001c 	strne	r0, [r0], #-28	; 0xffffffe4
    1480:	1200000b 	andne	r0, r0, #11, 0
    1484:	0000000b 	andeq	r0, r0, fp
    1488:	001bf419 	andseq	pc, fp, r9, lsl r4	; <UNPREDICTABLE>
    148c:	0084c000 	addeq	ip, r4, r0
    1490:	c0000200 	andgt	r0, r0, r0, lsl #4
    1494:	04000084 	streq	r0, [r0], #-132	; 0xffffff7c
    1498:	02000000 	andeq	r0, r0, #0, 0
    149c:	14b0028a 	ldrtne	r0, [r0], #650	; 0x28a
    14a0:	011a0000 	tsteq	sl, r0
    14a4:	2900001c 	stmdbcs	r0, {r2, r3, r4}
    14a8:	2700000b 	strcs	r0, [r0, -fp]
    14ac:	0000000b 	andeq	r0, r0, fp
    14b0:	001bf419 	andseq	pc, fp, r9, lsl r4	; <UNPREDICTABLE>
    14b4:	0084c400 	addeq	ip, r4, r0, lsl #8
    14b8:	c4000200 	strgt	r0, [r0], #-512	; 0xfffffe00
    14bc:	04000084 	streq	r0, [r0], #-132	; 0xffffff7c
    14c0:	02000000 	andeq	r0, r0, #0, 0
    14c4:	14d8028a 	ldrbne	r0, [r8], #650	; 0x28a
    14c8:	011a0000 	tsteq	sl, r0
    14cc:	3e00001c 	mcrcc	0, 0, r0, cr0, cr12, {0}
    14d0:	3c00000b 	stccc	0, cr0, [r0], {11}
    14d4:	0000000b 	andeq	r0, r0, fp
    14d8:	001bf419 	andseq	pc, fp, r9, lsl r4	; <UNPREDICTABLE>
    14dc:	0084c800 	addeq	ip, r4, r0, lsl #16
    14e0:	c8000200 	stmdagt	r0, {r9}
    14e4:	04000084 	streq	r0, [r0], #-132	; 0xffffff7c
    14e8:	02000000 	andeq	r0, r0, #0, 0
    14ec:	1500028a 	strne	r0, [r0, #-650]	; 0xfffffd76
    14f0:	011a0000 	tsteq	sl, r0
    14f4:	5300001c 	movwpl	r0, #28
    14f8:	5100000b 	tstpl	r0, fp
    14fc:	0000000b 	andeq	r0, r0, fp
    1500:	0084f012 	addeq	pc, r4, r2, lsl r0	; <UNPREDICTABLE>
    1504:	001e7500 	andseq	r7, lr, r0, lsl #10
    1508:	50011100 	andpl	r1, r1, r0, lsl #2
    150c:	9a680305 	bls	1a02128 <__bss_end__+0x19f7e08>
    1510:	01110000 	tsteq	r1, r0
    1514:	94030551 	strls	r0, [r3], #-1361	; 0xfffffaaf
    1518:	1100009a 	swpne	r0, sl, [r0]	; <UNPREDICTABLE>
    151c:	46015201 	strmi	r5, [r1], -r1, lsl #4
    1520:	04530111 	ldrbeq	r0, [r3], #-273	; 0xfffffeef
    1524:	25340075 	ldrcs	r0, [r4, #-117]!	; 0xffffff8b
    1528:	f0180000 			; <UNDEFINED> instruction: 0xf0180000
    152c:	04000084 	streq	r0, [r0], #-132	; 0xffffff7c
    1530:	4c000000 	stcmi	0, cr0, [r0], {-0}
    1534:	16000015 			; <UNDEFINED> instruction: 0x16000015
    1538:	00000022 	andeq	r0, r0, r2, lsr #32
    153c:	2c068c02 	stccs	12, cr8, [r6], {2}
    1540:	68000000 	stmdavs	r0, {}	; <UNPREDICTABLE>
    1544:	6600000b 	strvs	r0, [r0], -fp
    1548:	0000000b 	andeq	r0, r0, fp
    154c:	0084fc18 	addeq	pc, r4, r8, lsl ip	; <UNPREDICTABLE>
    1550:	00000400 	andeq	r0, r0, r0, lsl #8
    1554:	00156e00 	andseq	r6, r5, r0, lsl #28
    1558:	00221600 	eoreq	r1, r2, r0, lsl #12
    155c:	8e020000 	cdphi	0, 0, cr0, cr2, cr0, {0}
    1560:	00002c06 	andeq	r2, r0, r6, lsl #24
    1564:	000b7d00 	andeq	r7, fp, r0, lsl #26
    1568:	000b7b00 	andeq	r7, fp, r0, lsl #22
    156c:	33210000 			; <UNDEFINED> instruction: 0x33210000
    1570:	98000018 	stmdals	r0, {r3, r4}
    1574:	01000085 	smlabbeq	r0, r5, r0, r0
    1578:	00002800 	andeq	r2, r0, r0, lsl #16
    157c:	029b0200 	addseq	r0, fp, #0, 4
    1580:	000015dc 	ldrdeq	r1, [r0], -ip
    1584:	0018401a 	andseq	r4, r8, sl, lsl r0
    1588:	000b9200 	andeq	r9, fp, r0, lsl #4
    158c:	000b9000 	andeq	r9, fp, r0
    1590:	18032200 	stmdane	r3, {r9, sp}
    1594:	85980000 	ldrhi	r0, [r8]
    1598:	00030000 	andeq	r0, r3, r0
    159c:	00000030 	andeq	r0, r0, r0, lsr r0
    15a0:	1a026602 	bne	9adb0 <__bss_end__+0x90a90>
    15a4:	00001810 	andeq	r1, r0, r0, lsl r8
    15a8:	00000ba7 	andeq	r0, r0, r7, lsr #23
    15ac:	00000ba5 	andeq	r0, r0, r5, lsr #23
    15b0:	00181c1c 	andseq	r1, r8, ip, lsl ip
    15b4:	00859800 	addeq	r9, r5, r0, lsl #16
    15b8:	00001800 	andeq	r1, r0, r0, lsl #16
    15bc:	181d2300 	ldmdane	sp, {r8, r9, sp}
    15c0:	53010000 	movwpl	r0, #4096	; 0x1000
    15c4:	00182724 	andseq	r2, r8, r4, lsr #14
    15c8:	85b01200 	ldrhi	r1, [r0, #512]!	; 0x200
    15cc:	1ab80000 	bne	fee015d4 <__bss_end__+0xfedf72b4>
    15d0:	01110000 	tsteq	r1, r0
    15d4:	00760250 	rsbseq	r0, r6, r0, asr r2
    15d8:	00000000 	andeq	r0, r0, r0
    15dc:	0082c010 	addeq	ip, r2, r0, lsl r0
    15e0:	001e7500 	andseq	r7, lr, r0, lsl #10
    15e4:	0015f900 	andseq	pc, r5, r0, lsl #18
    15e8:	50011100 	andpl	r1, r1, r0, lsl #2
    15ec:	9a240305 	bls	902208 <__bss_end__+0x8f7ee8>
    15f0:	01110000 	tsteq	r1, r0
    15f4:	00740251 	rsbseq	r0, r4, r1, asr r2
    15f8:	82e81000 	rschi	r1, r8, #0, 0
    15fc:	1e750000 	cdpne	0, 7, cr0, cr5, cr0, {0}
    1600:	16220000 	strtne	r0, [r2], -r0
    1604:	01110000 	tsteq	r1, r0
    1608:	e8030550 	stmda	r3, {r4, r6, r8, sl}
    160c:	11000099 	swpne	r0, r9, [r0]	; <UNPREDICTABLE>
    1610:	03055101 	movweq	r5, #20737	; 0x5101
    1614:	000098ec 	andeq	r9, r0, ip, ror #17
    1618:	05520111 	ldrbeq	r0, [r2, #-273]	; 0xfffffeef
    161c:	009b5003 	addseq	r5, fp, r3
    1620:	ec0f0000 	stc	0, cr0, [pc], {-0}
    1624:	81000082 	smlabbhi	r0, r2, r0, r0
    1628:	1000001e 	andne	r0, r0, lr, lsl r0
    162c:	000084fc 	strdeq	r8, [r0], -ip
    1630:	00001e8d 	andeq	r1, r0, sp, lsl #29
    1634:	0000163f 	andeq	r1, r0, pc, lsr r6
    1638:	02500111 	subseq	r0, r0, #1073741828	; 0x40000004
    163c:	10000078 	andne	r0, r0, r8, ror r0
    1640:	0000851c 	andeq	r8, r0, ip, lsl r5
    1644:	00001e75 	andeq	r1, r0, r5, ror lr
    1648:	0000165c 	andeq	r1, r0, ip, asr r6
    164c:	05500111 	ldrbeq	r0, [r0, #-273]	; 0xfffffeef
    1650:	009aa003 	addseq	sl, sl, r3
    1654:	52011100 	andpl	r1, r1, #0
    1658:	00007402 	andeq	r7, r0, r2, lsl #8
    165c:	00854810 	addeq	r4, r5, r0, lsl r8
    1660:	00184d00 	andseq	r4, r8, r0, lsl #26
    1664:	00168700 	andseq	r8, r6, r0, lsl #14
    1668:	50011100 	andpl	r1, r1, r0, lsl #2
    166c:	9ae80305 	bls	ffa02288 <__bss_end__+0xff9f7f68>
    1670:	01110000 	tsteq	r1, r0
    1674:	00760251 	rsbseq	r0, r6, r1, asr r2
    1678:	05520111 	ldrbeq	r0, [r2, #-273]	; 0xfffffeef
    167c:	0080e003 	addeq	lr, r0, r3
    1680:	53011100 	movwpl	r1, #4352	; 0x1100
    1684:	10003001 	andne	r3, r0, r1
    1688:	0000855c 	andeq	r8, r0, ip, asr r5
    168c:	0000184d 	andeq	r1, r0, sp, asr #16
    1690:	000016b2 			; <UNDEFINED> instruction: 0x000016b2
    1694:	05500111 	ldrbeq	r0, [r0, #-273]	; 0xfffffeef
    1698:	009aec03 	addseq	lr, sl, r3, lsl #24
    169c:	51011100 	mrspl	r1, (UNDEF: 17)
    16a0:	11007602 	tstne	r0, r2, lsl #12
    16a4:	03055201 	movweq	r5, #20993	; 0x5201
    16a8:	000080b8 	strheq	r8, [r0], -r8	; <UNPREDICTABLE>
    16ac:	01530111 	cmpeq	r3, r1, lsl r1
    16b0:	70100030 	andsvc	r0, r0, r0, lsr r0
    16b4:	4d000085 	stcmi	0, cr0, [r0, #-532]	; 0xfffffdec
    16b8:	dd000018 	stcle	0, cr0, [r0, #-96]	; 0xffffffa0
    16bc:	11000016 	tstne	r0, r6, lsl r0
    16c0:	03055001 	movweq	r5, #20481	; 0x5001
    16c4:	00009af0 	strdeq	r9, [r0], -r0
    16c8:	02510111 	subseq	r0, r1, #1073741828	; 0x40000004
    16cc:	01110076 	tsteq	r1, r6, ror r0
    16d0:	90030552 	andls	r0, r3, r2, asr r5
    16d4:	11000080 	smlabbne	r0, r0, r0, r0
    16d8:	30015301 	andcc	r5, r1, r1, lsl #6
    16dc:	85841000 	strhi	r1, [r4]
    16e0:	184d0000 	stmdane	sp, {}^	; <UNPREDICTABLE>
    16e4:	17080000 	strne	r0, [r8, -r0]
    16e8:	01110000 	tsteq	r1, r0
    16ec:	f4030550 	vst3.16	{d0,d2,d4}, [r3 :64], r0
    16f0:	1100009a 	swpne	r0, sl, [r0]	; <UNPREDICTABLE>
    16f4:	76025101 	strvc	r5, [r2], -r1, lsl #2
    16f8:	52011100 	andpl	r1, r1, #0
    16fc:	80680305 	rsbhi	r0, r8, r5, lsl #6
    1700:	01110000 	tsteq	r1, r0
    1704:	00300153 	eorseq	r0, r0, r3, asr r1
    1708:	00859812 	addeq	r9, r5, r2, lsl r8
    170c:	00184d00 	andseq	r4, r8, r0, lsl #26
    1710:	50011100 	andpl	r1, r1, r0, lsl #2
    1714:	9af80305 	bls	ffe02330 <__bss_end__+0xffdf8010>
    1718:	01110000 	tsteq	r1, r0
    171c:	00760251 	rsbseq	r0, r6, r1, asr r2
    1720:	05520111 	ldrbeq	r0, [r2, #-273]	; 0xfffffeef
    1724:	00804003 	addeq	r4, r0, r3
    1728:	53011100 	movwpl	r1, #4352	; 0x1100
    172c:	88b80a03 	ldmhi	r8!, {r0, r1, r9, fp}
    1730:	ad1e0000 	ldcge	0, cr0, [lr, #-0]
    1734:	42000000 	andmi	r0, r0, #0, 0
    1738:	1f000017 	svcne	0x00000017
    173c:	0000002c 	andeq	r0, r0, ip, lsr #32
    1740:	3204000d 	andcc	r0, r4, #13, 0
    1744:	25000017 	strcs	r0, [r0, #-23]	; 0xffffffe9
    1748:	0000000c 	andeq	r0, r0, ip
    174c:	760d7d02 	strvc	r7, [sp], -r2, lsl #26
    1750:	26000017 			; <UNDEFINED> instruction: 0x26000017
    1754:	006e6970 	rsbeq	r6, lr, r0, ror r9
    1758:	2c227d02 	stccs	13, cr7, [r2], #-8
    175c:	27000000 	strcs	r0, [r0, -r0]
    1760:	02006228 	andeq	r6, r0, #40, 4	; 0x80000002
    1764:	002c027e 	eoreq	r0, ip, lr, ror r2
    1768:	65280000 	strvs	r0, [r8, #-0]!
    176c:	027e0200 	rsbseq	r0, lr, #0, 4
    1770:	0000002c 	andeq	r0, r0, ip, lsr #32
    1774:	c8250000 	stmdagt	r5!, {}	; <UNPREDICTABLE>
    1778:	02000002 	andeq	r0, r0, #2, 0
    177c:	17a50d7a 			; <UNDEFINED> instruction: 0x17a50d7a
    1780:	70260000 	eorvc	r0, r6, r0
    1784:	02006e69 	andeq	r6, r0, #1680	; 0x690
    1788:	002c1f7a 	eoreq	r1, ip, sl, ror pc
    178c:	28270000 	stmdacs	r7!, {}	; <UNPREDICTABLE>
    1790:	7b020062 	blvc	81920 <__bss_end__+0x77600>
    1794:	00002c02 	andeq	r2, r0, r2, lsl #24
    1798:	00652800 	rsbeq	r2, r5, r0, lsl #16
    179c:	2c027b02 			; <UNDEFINED> instruction: 0x2c027b02
    17a0:	00000000 	andeq	r0, r0, r0
    17a4:	02bf2500 	adcseq	r2, pc, #0, 10
    17a8:	76020000 	strvc	r0, [r2], -r0
    17ac:	0017d40d 	andseq	sp, r7, sp, lsl #8
    17b0:	69702600 	ldmdbvs	r0!, {r9, sl, sp}^
    17b4:	7602006e 	strvc	r0, [r2], -lr, rrx
    17b8:	00002c1f 	andeq	r2, r0, pc, lsl ip
    17bc:	62282700 	eorvs	r2, r8, #0, 14
    17c0:	02770200 	rsbseq	r0, r7, #0, 4
    17c4:	0000002c 	andeq	r0, r0, ip, lsr #32
    17c8:	02006528 	andeq	r6, r0, #40, 10	; 0xa000000
    17cc:	002c0277 	eoreq	r0, ip, r7, ror r2
    17d0:	00000000 	andeq	r0, r0, r0
    17d4:	00018e25 	andeq	r8, r1, r5, lsr #28
    17d8:	0d720200 	lfmeq	f0, 2, [r2, #-0]
    17dc:	00001803 	andeq	r1, r0, r3, lsl #16
    17e0:	6e697026 	cdpvs	0, 6, cr7, cr9, cr6, {1}
    17e4:	1f720200 	svcne	0x00720200
    17e8:	0000002c 	andeq	r0, r0, ip, lsr #32
    17ec:	00622827 	rsbeq	r2, r2, r7, lsr #16
    17f0:	2c027302 	stccs	3, cr7, [r2], {2}
    17f4:	28000000 	stmdacs	r0, {}	; <UNPREDICTABLE>
    17f8:	73020065 	movwvc	r0, #8293	; 0x2065
    17fc:	00002c02 	andeq	r2, r0, r2, lsl #24
    1800:	29000000 	stmdbcs	r0, {}	; <UNPREDICTABLE>
    1804:	00000185 	andeq	r0, r0, r5, lsl #3
    1808:	010d6e02 	tsteq	sp, r2, lsl #28
    180c:	00001833 	andeq	r1, r0, r3, lsr r8
    1810:	6e697026 	cdpvs	0, 6, cr7, cr9, cr6, {1}
    1814:	1f6e0200 	svcne	0x006e0200
    1818:	0000002c 	andeq	r0, r0, ip, lsr #32
    181c:	00622827 	rsbeq	r2, r2, r7, lsr #16
    1820:	2c026f02 	stccs	15, cr6, [r2], {2}
    1824:	28000000 	stmdacs	r0, {}	; <UNPREDICTABLE>
    1828:	6f020065 	svcvs	0x00020065
    182c:	00002c02 	andeq	r2, r0, r2, lsl #24
    1830:	29000000 	stmdbcs	r0, {}	; <UNPREDICTABLE>
    1834:	0000012f 	andeq	r0, r0, pc, lsr #2
    1838:	010d4602 	tsteq	sp, r2, lsl #12
    183c:	0000184d 	andeq	r1, r0, sp, asr #16
    1840:	6e697026 	cdpvs	0, 6, cr7, cr9, cr6, {1}
    1844:	1b460200 	blne	118204c <__bss_end__+0x1177d2c>
    1848:	00000025 	andeq	r0, r0, r5, lsr #32
    184c:	015a2900 	cmpeq	sl, r0, lsl #18
    1850:	26020000 	strcs	r0, [r2], -r0
    1854:	19120301 	ldmdbne	r2, {r0, r8, r9}
    1858:	66260000 	strtvs	r0, [r6], -r0
    185c:	2602006e 	strcs	r0, [r2], -lr, rrx
    1860:	0000a018 	andeq	sl, r0, r8, lsl r0
    1864:	69702600 	ldmdbvs	r0!, {r9, sl, sp}^
    1868:	2602006e 	strcs	r0, [r2], -lr, rrx
    186c:	00002520 	andeq	r2, r0, r0, lsr #10
    1870:	70662600 	rsbvc	r2, r6, r0, lsl #12
    1874:	2c260200 	sfmcs	f0, 4, [r6], #-0
    1878:	0000191d 	andeq	r1, r0, sp, lsl r9
    187c:	70786526 	rsbsvc	r6, r8, r6, lsr #10
    1880:	3f260200 	svccc	0x00260200
    1884:	00000025 	andeq	r0, r0, r5, lsr #32
    1888:	02007328 	andeq	r7, r0, #40, 6	; 0xa0000000
    188c:	002c0b29 	eoreq	r0, ip, r9, lsr #22
    1890:	65280000 	strvs	r0, [r8, #-0]!
    1894:	0b2a0200 	bleq	a8209c <__bss_end__+0xa77d7c>
    1898:	0000002c 	andeq	r0, r0, ip, lsr #32
    189c:	0000502a 	andeq	r5, r0, sl, lsr #32
    18a0:	0b2b0200 	bleq	ac20a8 <__bss_end__+0xab7d88>
    18a4:	0000002c 	andeq	r0, r0, ip, lsr #32
    18a8:	0000e417 	andeq	lr, r0, r7, lsl r4
    18ac:	00193300 	andseq	r3, r9, r0, lsl #6
    18b0:	44030500 	strmi	r0, [r3], #-1280	; 0xfffffb00
    18b4:	2800009b 	stmdacs	r0, {r0, r1, r3, r4, r7}
    18b8:	34020074 	strcc	r0, [r2], #-116	; 0xffffff8c
    18bc:	00002c0b 	andeq	r2, r0, fp, lsl #24
    18c0:	6f742800 	svcvs	0x00742800
    18c4:	3902006c 	stmdbcc	r2, {r2, r3, r5, r6}
    18c8:	00002509 	andeq	r2, r0, r9, lsl #10
    18cc:	18df2b00 	ldmne	pc, {r8, r9, fp, sp}^	; <UNPREDICTABLE>
    18d0:	222a0000 	eorcs	r0, sl, #0, 0
    18d4:	02000000 	andeq	r0, r0, #0, 0
    18d8:	002c0f29 	eoreq	r0, ip, r9, lsr #30
    18dc:	2b000000 	blcs	18e4 <__code_start__-0x671c>
    18e0:	000018f1 	strdeq	r1, [r0], -r1	; <UNPREDICTABLE>
    18e4:	0000222a 	andeq	r2, r0, sl, lsr #4
    18e8:	0f2a0200 	svceq	0x002a0200
    18ec:	0000002c 	andeq	r0, r0, ip, lsr #32
    18f0:	19032b00 	stmdbne	r3, {r8, r9, fp, sp}
    18f4:	222a0000 	eorcs	r0, sl, #0, 0
    18f8:	02000000 	andeq	r0, r0, #0, 0
    18fc:	002c0630 	eoreq	r0, ip, r0, lsr r6
    1900:	27000000 	strcs	r0, [r0, -r0]
    1904:	0000222a 	andeq	r2, r0, sl, lsr #4
    1908:	06320200 	ldrteq	r0, [r2], -r0, lsl #4
    190c:	0000002c 	andeq	r0, r0, ip, lsr #32
    1910:	1d2c0000 	stcne	0, cr0, [ip, #-0]
    1914:	06000019 			; <UNDEFINED> instruction: 0x06000019
    1918:	0000002c 	andeq	r0, r0, ip, lsr #32
    191c:	12040800 	andne	r0, r4, #0, 16
    1920:	1e000019 	mcrne	0, 0, r0, cr0, cr9, {0}
    1924:	000000ad 	andeq	r0, r0, sp, lsr #1
    1928:	00001933 	andeq	r1, r0, r3, lsr r9
    192c:	00002c1f 	andeq	r2, r0, pc, lsl ip
    1930:	04000a00 	streq	r0, [r0], #-2560	; 0xfffff600
    1934:	00001923 	andeq	r1, r0, r3, lsr #18
    1938:	00001113 	andeq	r1, r0, r3, lsl r1
    193c:	14be0100 	ldrtne	r0, [lr], #256	; 0x100
    1940:	00008040 	andeq	r8, r0, r0, asr #32
    1944:	00000028 	andeq	r0, r0, r8, lsr #32
    1948:	19aa9c01 	stmibne	sl!, {r0, sl, fp, ip, pc}
    194c:	70200000 	eorvc	r0, r0, r0
    1950:	01006e69 	tsteq	r0, r9, ror #28
    1954:	002c24be 	strhteq	r2, [ip], -lr
    1958:	0bbe0000 	bleq	fef81960 <__bss_end__+0xfef77640>
    195c:	0bba0000 	bleq	fee81964 <__bss_end__+0xfee77644>
    1960:	e4170000 	ldr	r0, [r7], #-0
    1964:	ba000000 	blt	196c <__code_start__-0x6694>
    1968:	05000019 	streq	r0, [r0, #-25]	; 0xffffffe7
    196c:	009b2003 	addseq	r2, fp, r3
    1970:	80581000 	subshi	r1, r8, r0
    1974:	1e750000 	cdpne	0, 7, cr0, cr5, cr0, {0}
    1978:	19a00000 	stmibne	r0!, {}	; <UNPREDICTABLE>
    197c:	01110000 	tsteq	r1, r0
    1980:	94030550 	strls	r0, [r3], #-1360	; 0xfffffab0
    1984:	11000098 	swpne	r0, r8, [r0]	; <UNPREDICTABLE>
    1988:	03055101 	movweq	r5, #20737	; 0x5101
    198c:	00009888 	andeq	r9, r0, r8, lsl #17
    1990:	05520111 	ldrbeq	r0, [r2, #-273]	; 0xfffffeef
    1994:	009b2003 	addseq	r2, fp, r3
    1998:	53011100 	movwpl	r1, #4352	; 0x1100
    199c:	00bf0802 	adcseq	r0, pc, r2, lsl #16
    19a0:	00805c0f 	addeq	r5, r0, pc, lsl #24
    19a4:	001e8100 	andseq	r8, lr, r0, lsl #2
    19a8:	ad1e0000 	ldcge	0, cr0, [lr, #-0]
    19ac:	ba000000 	blt	19b4 <__code_start__-0x664c>
    19b0:	1f000019 	svcne	0x00000019
    19b4:	0000002c 	andeq	r0, r0, ip, lsr #32
    19b8:	aa040006 	bge	1019d8 <__bss_end__+0xf76b8>
    19bc:	2d000019 	stccs	0, cr0, [r0, #-100]	; 0xffffff9c
    19c0:	006c3074 	rsbeq	r3, ip, r4, ror r0
    19c4:	6814ba01 	ldmdavs	r4, {r0, r9, fp, ip, sp, pc}
    19c8:	28000080 	stmdacs	r0, {r7}
    19cc:	01000000 	mrseq	r0, (UNDEF: 0)
    19d0:	001a319c 	mulseq	sl, ip, r1
    19d4:	69702000 	ldmdbvs	r0!, {sp}^
    19d8:	ba01006e 	blt	41b98 <__bss_end__+0x37878>
    19dc:	00002c21 	andeq	r2, r0, r1, lsr #24
    19e0:	000be300 	andeq	lr, fp, r0, lsl #6
    19e4:	000bdf00 	andeq	sp, fp, r0, lsl #30
    19e8:	00e41700 	rsceq	r1, r4, r0, lsl #14
    19ec:	1a410000 	bne	10419f4 <__bss_end__+0x10376d4>
    19f0:	03050000 	movweq	r0, #20480	; 0x5000
    19f4:	00009b28 	andeq	r9, r0, r8, lsr #22
    19f8:	00808010 	addeq	r8, r0, r0, lsl r0
    19fc:	001e7500 	andseq	r7, lr, r0, lsl #10
    1a00:	001a2700 	andseq	r2, sl, r0, lsl #14
    1a04:	50011100 	andpl	r1, r1, r0, lsl #2
    1a08:	98940305 	ldmls	r4, {r0, r2, r8, r9}
    1a0c:	01110000 	tsteq	r1, r0
    1a10:	88030551 	stmdahi	r3, {r0, r4, r6, r8, sl}
    1a14:	11000098 	swpne	r0, r8, [r0]	; <UNPREDICTABLE>
    1a18:	03055201 	movweq	r5, #20993	; 0x5201
    1a1c:	00009b28 	andeq	r9, r0, r8, lsr #22
    1a20:	02530111 	subseq	r0, r3, #1073741828	; 0x40000004
    1a24:	0f00bb08 	svceq	0x0000bb08
    1a28:	00008084 	andeq	r8, r0, r4, lsl #1
    1a2c:	00001e81 	andeq	r1, r0, r1, lsl #29
    1a30:	00ad1e00 	adceq	r1, sp, r0, lsl #28
    1a34:	1a410000 	bne	1041a3c <__bss_end__+0x103771c>
    1a38:	2c1f0000 	ldccs	0, cr0, [pc], {-0}
    1a3c:	03000000 	movweq	r0, #0
    1a40:	1a310400 	bne	c42a48 <__bss_end__+0xc38728>
    1a44:	742d0000 	strtvc	r0, [sp], #-0
    1a48:	01006c31 	tsteq	r0, r1, lsr ip
    1a4c:	809014b6 			; <UNDEFINED> instruction: 0x809014b6
    1a50:	00280000 	eoreq	r0, r8, r0
    1a54:	9c010000 	stcls	0, cr0, [r1], {-0}
    1a58:	00001ab8 			; <UNDEFINED> instruction: 0x00001ab8
    1a5c:	6e697020 	cdpvs	0, 6, cr7, cr9, cr0, {1}
    1a60:	21b60100 			; <UNDEFINED> instruction: 0x21b60100
    1a64:	0000002c 	andeq	r0, r0, ip, lsr #32
    1a68:	00000c08 	andeq	r0, r0, r8, lsl #24
    1a6c:	00000c04 	andeq	r0, r0, r4, lsl #24
    1a70:	0000e417 	andeq	lr, r0, r7, lsl r4
    1a74:	001a4100 	andseq	r4, sl, r0, lsl #2
    1a78:	2c030500 	cfstr32cs	mvfx0, [r3], {-0}
    1a7c:	1000009b 	mulne	r0, fp, r0
    1a80:	000080a8 	andeq	r8, r0, r8, lsr #1
    1a84:	00001e75 	andeq	r1, r0, r5, ror lr
    1a88:	00001aae 	andeq	r1, r0, lr, lsr #21
    1a8c:	05500111 	ldrbeq	r0, [r0, #-273]	; 0xfffffeef
    1a90:	00989403 	addseq	r9, r8, r3, lsl #8
    1a94:	51011100 	mrspl	r1, (UNDEF: 17)
    1a98:	98880305 	stmls	r8, {r0, r2, r8, r9}
    1a9c:	01110000 	tsteq	r1, r0
    1aa0:	2c030552 	cfstr32cs	mvfx0, [r3], {82}	; 0x52
    1aa4:	1100009b 	swpne	r0, fp, [r0]	; <UNPREDICTABLE>
    1aa8:	08025301 	stmdaeq	r2, {r0, r8, r9, ip, lr}
    1aac:	ac0f00b7 	stcge	0, cr0, [pc], {183}	; 0xb7
    1ab0:	81000080 	smlabbhi	r0, r0, r0, r0
    1ab4:	0000001e 	andeq	r0, r0, lr, lsl r0
    1ab8:	6830742d 	ldmdavs	r0!, {r0, r2, r3, r5, sl, ip, sp, lr}
    1abc:	14b20100 	ldrtne	r0, [r2], #256	; 0x100
    1ac0:	000080b8 	strheq	r8, [r0], -r8	; <UNPREDICTABLE>
    1ac4:	00000028 	andeq	r0, r0, r8, lsr #32
    1ac8:	1b2a9c01 	blne	aa8ad4 <__bss_end__+0xa9e7b4>
    1acc:	70200000 	eorvc	r0, r0, r0
    1ad0:	01006e69 	tsteq	r0, r9, ror #28
    1ad4:	002c21b2 	strhteq	r2, [ip], -r2
    1ad8:	0c2d0000 	stceq	0, cr0, [sp], #-0
    1adc:	0c290000 	stceq	0, cr0, [r9], #-0
    1ae0:	e4170000 	ldr	r0, [r7], #-0
    1ae4:	41000000 	mrsmi	r0, (UNDEF: 0)
    1ae8:	0500001a 	streq	r0, [r0, #-26]	; 0xffffffe6
    1aec:	009b3003 	addseq	r3, fp, r3
    1af0:	80d01000 	sbcshi	r1, r0, r0
    1af4:	1e750000 	cdpne	0, 7, cr0, cr5, cr0, {0}
    1af8:	1b200000 	blne	801b00 <__bss_end__+0x7f77e0>
    1afc:	01110000 	tsteq	r1, r0
    1b00:	94030550 	strls	r0, [r3], #-1360	; 0xfffffab0
    1b04:	11000098 	swpne	r0, r8, [r0]	; <UNPREDICTABLE>
    1b08:	03055101 	movweq	r5, #20737	; 0x5101
    1b0c:	00009888 	andeq	r9, r0, r8, lsl #17
    1b10:	05520111 	ldrbeq	r0, [r2, #-273]	; 0xfffffeef
    1b14:	009b3003 	addseq	r3, fp, r3
    1b18:	53011100 	movwpl	r1, #4352	; 0x1100
    1b1c:	00b30802 	adcseq	r0, r3, r2, lsl #16
    1b20:	0080d40f 	addeq	sp, r0, pc, lsl #8
    1b24:	001e8100 	andseq	r8, lr, r0, lsl #2
    1b28:	742d0000 	strtvc	r0, [sp], #-0
    1b2c:	01006831 	tsteq	r0, r1, lsr r8
    1b30:	80e014ad 	rschi	r1, r0, sp, lsr #9
    1b34:	00280000 	eoreq	r0, r8, r0
    1b38:	9c010000 	stcls	0, cr0, [r1], {-0}
    1b3c:	00001b9c 	muleq	r0, ip, fp
    1b40:	6e697020 	cdpvs	0, 6, cr7, cr9, cr0, {1}
    1b44:	21ad0100 			; <UNDEFINED> instruction: 0x21ad0100
    1b48:	0000002c 	andeq	r0, r0, ip, lsr #32
    1b4c:	00000c52 	andeq	r0, r0, r2, asr ip
    1b50:	00000c4e 	andeq	r0, r0, lr, asr #24
    1b54:	0000e417 	andeq	lr, r0, r7, lsl r4
    1b58:	001a4100 	andseq	r4, sl, r0, lsl #2
    1b5c:	34030500 	strcc	r0, [r3], #-1280	; 0xfffffb00
    1b60:	1000009b 	mulne	r0, fp, r0
    1b64:	000080f8 	strdeq	r8, [r0], -r8	; <UNPREDICTABLE>
    1b68:	00001e75 	andeq	r1, r0, r5, ror lr
    1b6c:	00001b92 	muleq	r0, r2, fp
    1b70:	05500111 	ldrbeq	r0, [r0, #-273]	; 0xfffffeef
    1b74:	00989403 	addseq	r9, r8, r3, lsl #8
    1b78:	51011100 	mrspl	r1, (UNDEF: 17)
    1b7c:	98880305 	stmls	r8, {r0, r2, r8, r9}
    1b80:	01110000 	tsteq	r1, r0
    1b84:	34030552 	strcc	r0, [r3], #-1362	; 0xfffffaae
    1b88:	1100009b 	swpne	r0, fp, [r0]	; <UNPREDICTABLE>
    1b8c:	08025301 	stmdaeq	r2, {r0, r8, r9, ip, lr}
    1b90:	fc0f00ae 	stc2	0, cr0, [pc], {174}	; 0xae
    1b94:	81000080 	smlabbhi	r0, r0, r0, r0
    1b98:	0000001e 	andeq	r0, r0, lr, lsl r0
    1b9c:	0000bb29 	andeq	fp, r0, r9, lsr #22
    1ba0:	14860100 	strne	r0, [r6], #256	; 0x100
    1ba4:	001bda03 	andseq	sp, fp, r3, lsl #20
    1ba8:	01392e00 	teqeq	r9, r0, lsl #28
    1bac:	86010000 	strhi	r0, [r1], -r0
    1bb0:	00002c2b 	andeq	r2, r0, fp, lsr #24
    1bb4:	010d2e00 	tsteq	sp, r0, lsl #28
    1bb8:	86010000 	strhi	r0, [r1], -r0
    1bbc:	00002c3f 	andeq	r2, r0, pc, lsr ip
    1bc0:	00632800 	rsbeq	r2, r3, r0, lsl #16
    1bc4:	2c0e8701 	stccs	7, cr8, [lr], {1}
    1bc8:	27000000 	strcs	r0, [r0, -r0]
    1bcc:	0000222a 	andeq	r2, r0, sl, lsr #4
    1bd0:	12880100 	addne	r0, r8, #0
    1bd4:	0000002c 	andeq	r0, r0, ip, lsr #32
    1bd8:	8a290000 	bhi	a41be0 <__bss_end__+0xa378c0>
    1bdc:	01000002 	tsteq	r0, r2
    1be0:	f403147f 	vst3.16	{d1-d3}, [r3 :256]
    1be4:	2600001b 			; <UNDEFINED> instruction: 0x2600001b
    1be8:	006e6970 	rsbeq	r6, lr, r0, ror r9
    1bec:	2c2e7f01 	stccs	15, cr7, [lr], #-4
    1bf0:	00000000 	andeq	r0, r0, r0
    1bf4:	00019729 	andeq	r9, r1, r9, lsr #14
    1bf8:	147a0100 	ldrbtne	r0, [sl], #-256	; 0xffffff00
    1bfc:	001c0e03 	andseq	r0, ip, r3, lsl #28
    1c00:	69702600 	ldmdbvs	r0!, {r9, sl, sp}^
    1c04:	7a01006e 	bvc	41dc4 <__bss_end__+0x37aa4>
    1c08:	00002c2d 	andeq	r2, r0, sp, lsr #24
    1c0c:	4d2f0000 	stcmi	0, cr0, [pc, #-0]	; 1c14 <__code_start__-0x63ec>
    1c10:	b0000018 	andlt	r0, r0, r8, lsl r0
    1c14:	e8000081 	stmda	r0, {r0, r7}
    1c18:	01000000 	mrseq	r0, (UNDEF: 0)
    1c1c:	001e5d9c 	mulseq	lr, ip, sp
    1c20:	185a1a00 	ldmdane	sl, {r9, fp, ip}^
    1c24:	0c7b0000 	ldcleq	0, cr0, [fp], #-0
    1c28:	0c730000 	ldcleq	0, cr0, [r3], #-0
    1c2c:	651a0000 	ldrvs	r0, [sl, #-0]
    1c30:	ba000018 	blt	1c98 <__code_start__-0x6368>
    1c34:	b200000c 	andlt	r0, r0, #12, 0
    1c38:	1a00000c 	bne	1c70 <__code_start__-0x6390>
    1c3c:	00001871 	andeq	r1, r0, r1, ror r8
    1c40:	00000cf9 	strdeq	r0, [r0], -r9
    1c44:	00000cf1 	strdeq	r0, [r0], -r1
    1c48:	00187c1a 	andseq	r7, r8, sl, lsl ip
    1c4c:	000d3c00 	andeq	r3, sp, r0, lsl #24
    1c50:	000d3000 	andeq	r3, sp, r0
    1c54:	18881b00 	stmne	r8, {r8, r9, fp, ip}
    1c58:	0d930000 	ldceq	0, cr0, [r3]
    1c5c:	0d8d0000 	stceq	0, cr0, [sp]
    1c60:	921b0000 	andsls	r0, fp, #0, 0
    1c64:	c2000018 	andgt	r0, r0, #24, 0
    1c68:	bc00000d 	stclt	0, cr0, [r0], {13}
    1c6c:	1b00000d 	blne	1ca8 <__code_start__-0x6358>
    1c70:	0000189c 	muleq	r0, ip, r8
    1c74:	00000df1 	strdeq	r0, [r0], -r1
    1c78:	00000ded 	andeq	r0, r0, sp, ror #27
    1c7c:	0018b71b 	andseq	fp, r8, fp, lsl r7
    1c80:	000e1100 	andeq	r1, lr, r0, lsl #2
    1c84:	000e0f00 	andeq	r0, lr, r0, lsl #30
    1c88:	18c11b00 	stmiane	r1, {r8, r9, fp, ip}^
    1c8c:	0e260000 	cdpeq	0, 2, cr0, cr6, cr0, {0}
    1c90:	0e240000 	cdpeq	0, 2, cr0, cr4, cr0, {0}
    1c94:	cd300000 	ldcgt	0, cr0, [r0, #-0]
    1c98:	c0000018 	andgt	r0, r0, r8, lsl r0
    1c9c:	04000081 	streq	r0, [r0], #-129	; 0xffffff7f
    1ca0:	b5000000 	strlt	r0, [r0, #-0]
    1ca4:	1b00001c 	blne	1d1c <__code_start__-0x62e4>
    1ca8:	000018d2 	ldrdeq	r1, [r0], -r2
    1cac:	00000e3e 	andeq	r0, r0, lr, lsr lr
    1cb0:	00000e3a 	andeq	r0, r0, sl, lsr lr
    1cb4:	18df3000 	ldmne	pc, {ip, sp}^	; <UNPREDICTABLE>
    1cb8:	81c40000 	bichi	r0, r4, r0
    1cbc:	00040000 	andeq	r0, r4, r0
    1cc0:	1cd40000 	ldclne	0, cr0, [r4], {0}
    1cc4:	e41b0000 	ldr	r0, [fp], #-0
    1cc8:	5e000018 	mcrpl	0, 0, r0, cr0, cr8, {0}
    1ccc:	5c00000e 	stcpl	0, cr0, [r0], {14}
    1cd0:	0000000e 	andeq	r0, r0, lr
    1cd4:	0018f130 	andseq	pc, r8, r0, lsr r1	; <UNPREDICTABLE>
    1cd8:	0081e800 	addeq	lr, r1, r0, lsl #16
    1cdc:	00000400 	andeq	r0, r0, r0, lsl #8
    1ce0:	001cf300 	andseq	pc, ip, r0, lsl #6
    1ce4:	18f61b00 	ldmne	r6!, {r8, r9, fp, ip}^
    1ce8:	0e730000 	cdpeq	0, 7, cr0, cr3, cr0, {0}
    1cec:	0e710000 	cdpeq	0, 7, cr0, cr1, cr0, {0}
    1cf0:	30000000 	andcc	r0, r0, r0
    1cf4:	00001903 	andeq	r1, r0, r3, lsl #18
    1cf8:	000081f4 	strdeq	r8, [r0], -r4
    1cfc:	00000004 	andeq	r0, r0, r4
    1d00:	00001d12 	andeq	r1, r0, r2, lsl sp
    1d04:	0019041b 	andseq	r0, r9, fp, lsl r4
    1d08:	000e8a00 	andeq	r8, lr, r0, lsl #20
    1d0c:	000e8600 	andeq	r8, lr, r0, lsl #12
    1d10:	4d190000 	ldcmi	0, cr0, [r9, #-0]
    1d14:	38000018 	stmdacc	r0, {r3, r4}
    1d18:	00000082 	andeq	r0, r0, r2, lsl #1
    1d1c:	00823800 	addeq	r3, r2, r0, lsl #16
    1d20:	00002000 	andeq	r2, r0, r0
    1d24:	01260200 			; <UNDEFINED> instruction: 0x01260200
    1d28:	00001dbc 			; <UNDEFINED> instruction: 0x00001dbc
    1d2c:	00185a1a 	andseq	r5, r8, sl, lsl sl
    1d30:	000eac00 	andeq	sl, lr, r0, lsl #24
    1d34:	000eaa00 	andeq	sl, lr, r0, lsl #20
    1d38:	18651a00 	stmdane	r5!, {r9, fp, ip}^
    1d3c:	0ec10000 	cdpeq	0, 12, cr0, cr1, cr0, {0}
    1d40:	0ebf0000 	cdpeq	0, 11, cr0, cr15, cr0, {0}
    1d44:	711a0000 	tstvc	sl, r0
    1d48:	d6000018 			; <UNDEFINED> instruction: 0xd6000018
    1d4c:	d400000e 	strle	r0, [r0], #-14
    1d50:	1a00000e 	bne	1d90 <__code_start__-0x6270>
    1d54:	0000187c 	andeq	r1, r0, ip, ror r8
    1d58:	00000eed 	andeq	r0, r0, sp, ror #29
    1d5c:	00000ee9 	andeq	r0, r0, r9, ror #29
    1d60:	00188824 	andseq	r8, r8, r4, lsr #16
    1d64:	18922400 	ldmne	r2, {sl, sp}
    1d68:	9c240000 	stcls	0, cr0, [r4], #-0
    1d6c:	24000018 	strcs	r0, [r0], #-24	; 0xffffffe8
    1d70:	000018b7 			; <UNDEFINED> instruction: 0x000018b7
    1d74:	0018c124 	andseq	ip, r8, r4, lsr #2
    1d78:	82541000 	subshi	r1, r4, #0, 0
    1d7c:	1e750000 	cdpne	0, 7, cr0, cr5, cr0, {0}
    1d80:	1db20000 	ldcne	0, cr0, [r2]
    1d84:	01110000 	tsteq	r1, r0
    1d88:	e8030550 	stmda	r3, {r4, r6, r8, sl}
    1d8c:	11000099 	swpne	r0, r9, [r0]	; <UNPREDICTABLE>
    1d90:	03055101 	movweq	r5, #20737	; 0x5101
    1d94:	000098ec 	andeq	r9, r0, ip, ror #17
    1d98:	05520111 	ldrbeq	r0, [r2, #-273]	; 0xfffffeef
    1d9c:	009b4403 	addseq	r4, fp, r3, lsl #8
    1da0:	53011100 	movwpl	r1, #4352	; 0x1100
    1da4:	113b0802 	teqne	fp, r2, lsl #16
    1da8:	05007d02 	streq	r7, [r0, #-3330]	; 0xfffff2fe
    1dac:	0099fc03 	addseq	pc, r9, r3, lsl #24
    1db0:	580f0000 	stmdapl	pc, {}	; <UNPREDICTABLE>
    1db4:	81000082 	smlabbhi	r0, r2, r0, r0
    1db8:	0000001e 	andeq	r0, r0, lr, lsl r0
    1dbc:	0081e40f 	addeq	lr, r1, pc, lsl #8
    1dc0:	001e9900 	andseq	r9, lr, r0, lsl #18
    1dc4:	81f43100 	mvnshi	r3, r0, lsl #2
    1dc8:	77020000 	strvc	r0, [r2, -r0]
    1dcc:	001dd800 	andseq	sp, sp, r0, lsl #16
    1dd0:	50011100 	andpl	r1, r1, r0, lsl #2
    1dd4:	00007802 	andeq	r7, r0, r2, lsl #16
    1dd8:	0082040f 	addeq	r0, r2, pc, lsl #8
    1ddc:	001e9900 	andseq	r9, lr, r0, lsl #18
    1de0:	82181000 	andshi	r1, r8, #0, 0
    1de4:	1e750000 	cdpne	0, 7, cr0, cr5, cr0, {0}
    1de8:	1e0a0000 	cdpne	0, 0, cr0, cr10, cr0, {0}
    1dec:	01110000 	tsteq	r1, r0
    1df0:	c0030550 	andgt	r0, r3, r0, asr r5
    1df4:	11000099 	swpne	r0, r9, [r0]	; <UNPREDICTABLE>
    1df8:	76025101 	strvc	r5, [r2], -r1, lsl #2
    1dfc:	52011100 	andpl	r1, r1, #0
    1e00:	11007402 	tstne	r0, r2, lsl #8
    1e04:	75025301 	strvc	r5, [r2, #-769]	; 0xfffffcff
    1e08:	5c0f0000 	stcpl	0, cr0, [pc], {-0}
    1e0c:	a5000082 	strge	r0, [r0, #-130]	; 0xffffff7e
    1e10:	1000001e 	andne	r0, r0, lr, lsl r0
    1e14:	00008278 	andeq	r8, r0, r8, ror r2
    1e18:	00001e75 	andeq	r1, r0, r5, ror lr
    1e1c:	00001e53 	andeq	r1, r0, r3, asr lr
    1e20:	05500111 	ldrbeq	r0, [r0, #-273]	; 0xfffffeef
    1e24:	00997c03 	addseq	r7, r9, r3, lsl #24
    1e28:	51011100 	mrspl	r1, (UNDEF: 17)
    1e2c:	98ec0305 	stmials	ip!, {r0, r2, r8, r9}^
    1e30:	01110000 	tsteq	r1, r0
    1e34:	44030552 	strmi	r0, [r3], #-1362	; 0xfffffaae
    1e38:	1100009b 	swpne	r0, fp, [r0]	; <UNPREDICTABLE>
    1e3c:	08025301 	stmdaeq	r2, {r0, r8, r9, ip, lr}
    1e40:	7d02112c 	stfvcs	f1, [r2, #-176]	; 0xffffff50
    1e44:	b4030500 	strlt	r0, [r3], #-1280	; 0xfffffb00
    1e48:	11000099 	swpne	r0, r9, [r0]	; <UNPREDICTABLE>
    1e4c:	02047d02 	andeq	r7, r4, #128	; 0x80
    1e50:	0f000075 	svceq	0x00000075
    1e54:	0000827c 	andeq	r8, r0, ip, ror r2
    1e58:	00001e81 	andeq	r1, r0, r1, lsl #29
    1e5c:	01003200 	mrseq	r3, R8_usr
    1e60:	01000000 	mrseq	r0, (UNDEF: 0)
    1e64:	a5030000 	strge	r0, [r3, #-0]
    1e68:	00333206 	eorseq	r3, r3, r6, lsl #4
    1e6c:	00330000 	eorseq	r0, r3, r0
    1e70:	1d040000 	stcne	0, cr0, [r4, #-0]
    1e74:	04ab3206 	strteq	r3, [fp], #518	; 0x206
    1e78:	04ab0000 	strteq	r0, [fp], #0
    1e7c:	28030000 	stmdacs	r3, {}	; <UNPREDICTABLE>
    1e80:	00433206 	subeq	r3, r3, r6, lsl #4
    1e84:	00430000 	subeq	r0, r3, r0
    1e88:	6e030000 	cdpvs	0, 0, cr0, cr3, cr0, {0}
    1e8c:	01bb3206 			; <UNDEFINED> instruction: 0x01bb3206
    1e90:	01bb0000 			; <UNDEFINED> instruction: 0x01bb0000
    1e94:	58030000 	stmdapl	r3, {}	; <UNPREDICTABLE>
    1e98:	01a73206 			; <UNDEFINED> instruction: 0x01a73206
    1e9c:	01a70000 			; <UNDEFINED> instruction: 0x01a70000
    1ea0:	a1030000 	mrsge	r0, (UNDEF: 3)
    1ea4:	02aa3206 	adceq	r3, sl, #1610612736	; 0x60000000
    1ea8:	02aa0000 	adceq	r0, sl, #0, 0
    1eac:	1d030000 	stcne	0, cr0, [r3, #-0]
    1eb0:	06830006 	streq	r0, [r3], r6
    1eb4:	00040000 	andeq	r0, r4, r0
    1eb8:	000002d1 	ldrdeq	r0, [r0], -r1
    1ebc:	01d50104 	bicseq	r0, r5, r4, lsl #2
    1ec0:	4c0c0000 	stcmi	0, cr0, [ip], {-0}
    1ec4:	59000003 	stmdbpl	r0, {r0, r1}
    1ec8:	68000000 	stmdavs	r0, {}	; <UNPREDICTABLE>
    1ecc:	ec000086 	stc	0, cr0, [r0], {134}	; 0x86
    1ed0:	fe000000 	cdp2	0, 0, cr0, cr0, cr0, {0}
    1ed4:	02000014 	andeq	r0, r0, #20, 0
    1ed8:	6e690504 	cdpvs	5, 6, cr0, cr9, cr4, {0}
    1edc:	04030074 	streq	r0, [r3], #-116	; 0xffffff8c
    1ee0:	00014d07 	andeq	r4, r1, r7, lsl #26
    1ee4:	002c0400 	eoreq	r0, ip, r0, lsl #8
    1ee8:	01030000 	mrseq	r0, (UNDEF: 3)
    1eec:	00012306 	andeq	r2, r1, r6, lsl #6
    1ef0:	05020300 	streq	r0, [r2, #-768]	; 0xfffffd00
    1ef4:	00000018 	andeq	r0, r0, r8, lsl r0
    1ef8:	ce050403 	cdpgt	4, 0, cr0, cr5, cr3, {0}
    1efc:	03000000 	movweq	r0, #0
    1f00:	00c90508 	sbceq	r0, r9, r8, lsl #10
    1f04:	57050000 	strpl	r0, [r5, -r0]
    1f08:	03000003 	movweq	r0, #3
    1f0c:	0060182e 	rsbeq	r1, r0, lr, lsr #16
    1f10:	01030000 	mrseq	r0, (UNDEF: 3)
    1f14:	00012108 	andeq	r2, r1, r8, lsl #2
    1f18:	07020300 	streq	r0, [r2, -r0, lsl #6]
    1f1c:	00000172 	andeq	r0, r0, r2, ror r1
    1f20:	00037205 	andeq	r7, r3, r5, lsl #4
    1f24:	19340300 	ldmdbne	r4!, {r8, r9}
    1f28:	0000007a 	andeq	r0, r0, sl, ror r0
    1f2c:	48070403 	stmdami	r7, {r0, r1, sl}
    1f30:	03000001 	movweq	r0, #1
    1f34:	01430708 	cmpeq	r3, r8, lsl #14
    1f38:	25060000 	strcs	r0, [r6, #-0]
    1f3c:	97000000 	strls	r0, [r0, -r0]
    1f40:	07000000 	streq	r0, [r0, -r0]
    1f44:	00000025 	andeq	r0, r0, r5, lsr #32
    1f48:	00270800 	eoreq	r0, r7, r0, lsl #16
    1f4c:	1c040000 	stcne	0, cr0, [r4], {-0}
    1f50:	0000a30e 	andeq	sl, r0, lr, lsl #6
    1f54:	88040900 	stmdahi	r4, {r8, fp}
    1f58:	06000000 	streq	r0, [r0], -r0
    1f5c:	00000025 	andeq	r0, r0, r5, lsr #32
    1f60:	000000b8 	strheq	r0, [r0], -r8
    1f64:	0000b807 	andeq	fp, r0, r7, lsl #16
    1f68:	04090000 	streq	r0, [r9], #-0
    1f6c:	000000c5 	andeq	r0, r0, r5, asr #1
    1f70:	2a080103 	bcs	202384 <__bss_end__+0x1f8064>
    1f74:	04000001 	streq	r0, [r0], #-1
    1f78:	000000be 	strheq	r0, [r0], -lr
    1f7c:	00052208 	andeq	r2, r5, r8, lsl #4
    1f80:	0e210400 	cdpeq	4, 2, cr0, cr1, cr0, {0}
    1f84:	000000d6 	ldrdeq	r0, [r0], -r6
    1f88:	00a90409 	adceq	r0, r9, r9, lsl #8
    1f8c:	5f050000 	svcpl	0x00050000
    1f90:	05000003 	streq	r0, [r0, #-3]
    1f94:	00e81c03 	rsceq	r1, r8, r3, lsl #24
    1f98:	04090000 	streq	r0, [r9], #-0
    1f9c:	000000ee 	andeq	r0, r0, lr, ror #1
    1fa0:	0002d10a 	andeq	sp, r2, sl, lsl #2
    1fa4:	16020800 	strne	r0, [r2], -r0, lsl #16
    1fa8:	00012308 	andeq	r2, r1, r8, lsl #6
    1fac:	69700b00 	ldmdbvs	r0!, {r8, r9, fp}^
    1fb0:	1702006e 	strne	r0, [r2, -lr, rrx]
    1fb4:	0000540d 	andeq	r5, r0, sp, lsl #8
    1fb8:	ed0c0000 	stc	0, cr0, [ip, #-0]
    1fbc:	02000002 	andeq	r0, r0, #2, 0
    1fc0:	006e0e18 	rsbeq	r0, lr, r8, lsl lr
    1fc4:	0c040000 	stceq	0, cr0, [r4], {-0}
    1fc8:	00000345 	andeq	r0, r0, r5, asr #6
    1fcc:	5f161b02 	svcpl	0x00161b02
    1fd0:	08000001 	stmdaeq	r0, {r0}
    1fd4:	00d70d00 	sbcseq	r0, r7, r0, lsl #26
    1fd8:	9a010000 	bls	41fe0 <__bss_end__+0x37cc0>
    1fdc:	00003317 	andeq	r3, r0, r7, lsl r3
    1fe0:	3b0a1000 	blcc	285fe8 <__bss_end__+0x27bcc8>
    1fe4:	03000003 	movweq	r0, #3
    1fe8:	5f081002 	svcpl	0x00081002
    1fec:	0b000001 	bleq	1ff8 <__code_start__-0x6008>
    1ff0:	11020072 	tstne	r2, r2, ror r0
    1ff4:	0000540d 	andeq	r5, r0, sp, lsl #8
    1ff8:	670b0000 	strvs	r0, [fp, -r0]
    1ffc:	0f110200 	svceq	0x00110200
    2000:	00000054 	andeq	r0, r0, r4, asr r0
    2004:	00620b01 	rsbeq	r0, r2, r1, lsl #22
    2008:	54111102 	ldrpl	r1, [r1], #-258	; 0xfffffefe
    200c:	02000000 	andeq	r0, r0, #0, 0
    2010:	01300e00 	teqeq	r0, r0, lsl #28
    2014:	016e0000 	cmneq	lr, r0
    2018:	2c0f0000 	stccs	0, cr0, [pc], {-0}
    201c:	00000000 	andeq	r0, r0, r0
    2020:	0002f410 	andeq	pc, r2, r0, lsl r4	; <UNPREDICTABLE>
    2024:	06400200 	strbeq	r0, [r0], -r0, lsl #4
    2028:	0000872c 	andeq	r8, r0, ip, lsr #14
    202c:	00000028 	andeq	r0, r0, r8, lsr #32
    2030:	02239c01 	eoreq	r9, r3, #256	; 0x100
    2034:	68110000 	ldmdavs	r1, {}	; <UNPREDICTABLE>
    2038:	19400200 	stmdbne	r0, {r9}^
    203c:	000000dc 	ldrdeq	r0, [r0], -ip
    2040:	00000f14 	andeq	r0, r0, r4, lsl pc
    2044:	00000f10 	andeq	r0, r0, r0, lsl pc
    2048:	736f7011 	cmnvc	pc, #17, 0
    204c:	25400200 	strbcs	r0, [r0, #-512]	; 0xfffffe00
    2050:	0000006e 	andeq	r0, r0, lr, rrx
    2054:	00000f39 	andeq	r0, r0, r9, lsr pc
    2058:	00000f35 	andeq	r0, r0, r5, lsr pc
    205c:	02007211 	andeq	r7, r0, #268435457	; 0x10000001
    2060:	00543240 	subseq	r3, r4, r0, asr #4
    2064:	0f5e0000 	svceq	0x005e0000
    2068:	0f5a0000 	svceq	0x005a0000
    206c:	67110000 	ldrvs	r0, [r1, -r0]
    2070:	3d400200 	sfmcc	f0, 2, [r0, #-0]
    2074:	00000054 	andeq	r0, r0, r4, asr r0
    2078:	00000f83 	andeq	r0, r0, r3, lsl #31
    207c:	00000f7f 	andeq	r0, r0, pc, ror pc
    2080:	02006212 	andeq	r6, r0, #536870913	; 0x20000001
    2084:	00544840 	subseq	r4, r4, r0, asr #16
    2088:	91020000 	mrsls	r0, (UNDEF: 2)
    208c:	00e41300 	rsceq	r1, r4, r0, lsl #6
    2090:	02330000 	eorseq	r0, r3, #0, 0
    2094:	03050000 	movweq	r0, #20480	; 0x5000
    2098:	00009b84 	andeq	r9, r0, r4, lsl #23
    209c:	00874414 	addeq	r4, r7, r4, lsl r4
    20a0:	00064a00 	andeq	r4, r6, r0, lsl #20
    20a4:	00021900 	andeq	r1, r2, r0, lsl #18
    20a8:	50011500 	andpl	r1, r1, r0, lsl #10
    20ac:	98940305 	ldmls	r4, {r0, r2, r8, r9}
    20b0:	01150000 	tsteq	r5, r0
    20b4:	60030551 	andvs	r0, r3, r1, asr r5
    20b8:	1500009b 	strne	r0, [r0, #-155]	; 0xffffff65
    20bc:	03055201 	movweq	r5, #20993	; 0x5201
    20c0:	00009b84 	andeq	r9, r0, r4, lsl #23
    20c4:	02530115 	subseq	r0, r3, #1073741829	; 0x40000005
    20c8:	16004108 	strne	r4, [r0], -r8, lsl #2
    20cc:	00008748 	andeq	r8, r0, r8, asr #14
    20d0:	00000656 	andeq	r0, r0, r6, asr r6
    20d4:	00c50e00 	sbceq	r0, r5, r0, lsl #28
    20d8:	02330000 	eorseq	r0, r3, #0, 0
    20dc:	2c170000 	ldccs	0, cr0, [r7], {-0}
    20e0:	0c000000 	stceq	0, cr0, [r0], {-0}
    20e4:	02230400 	eoreq	r0, r3, #0, 8
    20e8:	65100000 	ldrvs	r0, [r0, #-0]
    20ec:	02000003 	andeq	r0, r0, #3, 0
    20f0:	8720063b 			; <UNDEFINED> instruction: 0x8720063b
    20f4:	000c0000 	andeq	r0, ip, r0
    20f8:	9c010000 	stcls	0, cr0, [r1], {-0}
    20fc:	00000272 	andeq	r0, r0, r2, ror r2
    2100:	02006811 	andeq	r6, r0, #1114112	; 0x110000
    2104:	00dc193b 	sbcseq	r1, ip, fp, lsr r9
    2108:	0fa80000 	svceq	0x00a80000
    210c:	0fa40000 	svceq	0x00a40000
    2110:	2c180000 	ldccs	0, cr0, [r8], {-0}
    2114:	72000087 	andvc	r0, r0, #135, 0	; 0x87
    2118:	15000002 	strne	r0, [r0, #-2]
    211c:	f3035001 	vhadd.u8	d5, d3, d1
    2120:	00005001 	andeq	r5, r0, r1
    2124:	00032910 	andeq	r2, r3, r0, lsl r9
    2128:	06350200 	ldrteq	r0, [r5], -r0, lsl #4
    212c:	0000870c 	andeq	r8, r0, ip, lsl #14
    2130:	00000014 	andeq	r0, r0, r4, lsl r0
    2134:	032c9c01 			; <UNDEFINED> instruction: 0x032c9c01
    2138:	68110000 	ldmdavs	r1, {}	; <UNPREDICTABLE>
    213c:	1e350200 	cdpne	2, 3, cr0, cr5, cr0, {0}
    2140:	000000dc 	ldrdeq	r0, [r0], -ip
    2144:	00000fd1 	ldrdeq	r0, [r0], -r1
    2148:	00000fc9 	andeq	r0, r0, r9, asr #31
    214c:	02006e11 	andeq	r6, r0, #272	; 0x110
    2150:	002c2a35 	eoreq	r2, ip, r5, lsr sl
    2154:	10130000 	andsne	r0, r3, r0
    2158:	100b0000 	andne	r0, fp, r0
    215c:	60190000 	andsvs	r0, r9, r0
    2160:	e0000000 	and	r0, r0, r0
    2164:	1a000002 	bne	2174 <__code_start__-0x5e8c>
    2168:	36020069 	strcc	r0, [r2], -r9, rrx
    216c:	0000250d 	andeq	r2, r0, sp, lsl #10
    2170:	1c180000 	ldcne	0, cr0, [r8], {-0}
    2174:	81000087 	smlabbhi	r0, r7, r0, r0
    2178:	1b000005 	blne	2194 <__code_start__-0x5e6c>
    217c:	0000048d 	andeq	r0, r0, sp, lsl #9
    2180:	971b3001 	ldrls	r3, [fp, -r1]
    2184:	01000004 	tsteq	r0, r4
    2188:	04a11b30 	strteq	r1, [r1], #2864	; 0xb30
    218c:	30010000 	andcc	r0, r1, r0
    2190:	5c1c0000 	ldcpl	0, cr0, [ip], {-0}
    2194:	1c000004 	stcne	0, cr0, [r0], {4}
    2198:	02000087 	andeq	r0, r0, #135, 0	; 0x87
    219c:	00000078 	andeq	r0, r0, r8, ror r0
    21a0:	1d053802 	stcne	8, cr3, [r5, #-8]
    21a4:	00000469 	andeq	r0, r0, r9, ror #8
    21a8:	00001051 	andeq	r1, r0, r1, asr r0
    21ac:	0000104d 	andeq	r1, r0, sp, asr #32
    21b0:	0004d01e 	andeq	sp, r4, lr, lsl r0
    21b4:	00871c00 	addeq	r1, r7, r0, lsl #24
    21b8:	871c0400 	ldrhi	r0, [ip, -r0, lsl #8]
    21bc:	00040000 	andeq	r0, r4, r0
    21c0:	20020000 	andcs	r0, r2, r0
    21c4:	04dd1d05 	ldrbeq	r1, [sp], #3333	; 0xd05
    21c8:	10740000 	rsbsne	r0, r4, r0
    21cc:	10720000 	rsbsne	r0, r2, r0
    21d0:	20160000 	andscs	r0, r6, r0
    21d4:	28000087 	stmdacs	r0, {r0, r1, r2, r7}
    21d8:	00000005 	andeq	r0, r0, r5
    21dc:	dc100000 	ldcle	0, cr0, [r0], {-0}
    21e0:	02000002 	andeq	r0, r0, #2, 0
    21e4:	87040630 	smladxhi	r4, r0, r6, r0
    21e8:	00080000 	andeq	r0, r8, r0
    21ec:	9c010000 	stcls	0, cr0, [r1], {-0}
    21f0:	000003b0 			; <UNDEFINED> instruction: 0x000003b0
    21f4:	02006811 	andeq	r6, r0, #1114112	; 0x110000
    21f8:	00dc1d30 	sbcseq	r1, ip, r0, lsr sp
    21fc:	10920000 	addsne	r0, r2, r0
    2200:	108e0000 	addne	r0, lr, r0
    2204:	72110000 	andsvc	r0, r1, #0, 0
    2208:	28300200 	ldmdacs	r0!, {r9}
    220c:	00000054 	andeq	r0, r0, r4, asr r0
    2210:	000010b7 	strheq	r1, [r0], -r7
    2214:	000010b3 	strheq	r1, [r0], -r3
    2218:	02006711 	andeq	r6, r0, #4456448	; 0x440000
    221c:	00543330 	subseq	r3, r4, r0, lsr r3
    2220:	10dc0000 	sbcsne	r0, ip, r0
    2224:	10d80000 	sbcsne	r0, r8, r0
    2228:	62110000 	andsvs	r0, r1, #0, 0
    222c:	3e300200 	cdpcc	2, 3, cr0, cr0, cr0, {0}
    2230:	00000054 	andeq	r0, r0, r4, asr r0
    2234:	00001101 	andeq	r1, r0, r1, lsl #2
    2238:	000010fd 	strdeq	r1, [r0], -sp
    223c:	00870c18 	addeq	r0, r7, r8, lsl ip
    2240:	00058100 	andeq	r8, r5, r0, lsl #2
    2244:	048d1b00 	streq	r1, [sp], #2816	; 0xb00
    2248:	f3030000 	vhadd.u8	d0, d3, d0
    224c:	971b5101 	ldrls	r5, [fp, -r1, lsl #2]
    2250:	03000004 	movweq	r0, #4
    2254:	1b5201f3 	blne	1482a28 <__bss_end__+0x1478708>
    2258:	000004a1 	andeq	r0, r0, r1, lsr #9
    225c:	5301f303 	movwpl	pc, #4867	; 0x1303	; <UNPREDICTABLE>
    2260:	011f0000 	tsteq	pc, r0
    2264:	02000003 	andeq	r0, r0, #3, 0
    2268:	00dc0723 	sbcseq	r0, ip, r3, lsr #14
    226c:	86c00000 	strbhi	r0, [r0], r0
    2270:	00440000 	subeq	r0, r4, r0
    2274:	9c010000 	stcls	0, cr0, [r1], {-0}
    2278:	0000045c 	andeq	r0, r0, ip, asr r4
    227c:	6e697011 	mcrvs	0, 3, r7, cr9, cr1, {0}
    2280:	1b230200 	blne	8c2a88 <__bss_end__+0x8b8768>
    2284:	00000054 	andeq	r0, r0, r4, asr r0
    2288:	00001126 	andeq	r1, r0, r6, lsr #2
    228c:	00001122 	andeq	r1, r0, r2, lsr #2
    2290:	0002ed20 	andeq	lr, r2, r0, lsr #26
    2294:	29230200 	stmdbcs	r3!, {r9}
    2298:	0000002c 	andeq	r0, r0, ip, lsr #32
    229c:	0000114b 	andeq	r1, r0, fp, asr #2
    22a0:	00001147 	andeq	r1, r0, r7, asr #2
    22a4:	02006821 	andeq	r6, r0, #2162688	; 0x210000
    22a8:	00dc0b24 	sbcseq	r0, ip, r4, lsr #22
    22ac:	116d0000 	cmnne	sp, r0
    22b0:	11690000 	cmnne	r9, r0
    22b4:	59220000 	stmdbpl	r2!, {}	; <UNPREDICTABLE>
    22b8:	0200000a 	andeq	r0, r0, #10, 0
    22bc:	002c0e25 	eoreq	r0, ip, r5, lsr #28
    22c0:	118d0000 	orrne	r0, sp, r0
    22c4:	118b0000 	orrne	r0, fp, r0
    22c8:	dc140000 	ldcle	0, cr0, [r4], {-0}
    22cc:	62000086 	andvs	r0, r0, #134, 0	; 0x86
    22d0:	2c000006 	stccs	0, cr0, [r0], {6}
    22d4:	15000004 	strne	r0, [r0, #-4]
    22d8:	77025001 	strvc	r5, [r2, -r1]
    22dc:	ec140000 	ldc	0, cr0, [r4], {-0}
    22e0:	6e000086 	cdpvs	0, 0, cr0, cr0, cr6, {4}
    22e4:	4b000006 	blmi	2304 <__code_start__-0x5cfc>
    22e8:	15000004 	strne	r0, [r0, #-4]
    22ec:	74025001 	strvc	r5, [r2], #-1
    22f0:	51011500 	tstpl	r1, r0, lsl #10
    22f4:	01153001 	tsteq	r5, r1
    22f8:	00770252 	rsbseq	r0, r7, r2, asr r2
    22fc:	86fc1800 	ldrbthi	r1, [ip], r0, lsl #16
    2300:	067a0000 	ldrbteq	r0, [sl], -r0
    2304:	01150000 	tsteq	r5, r0
    2308:	00760250 	rsbseq	r0, r6, r0, asr r2
    230c:	15230000 	strne	r0, [r3, #-0]!
    2310:	02000003 	andeq	r0, r0, #3, 0
    2314:	7401061e 	strvc	r0, [r1], #-1566	; 0xfffff9e2
    2318:	24000004 	strcs	r0, [r0], #-4
    231c:	1e020068 	cdpne	0, 0, cr0, cr2, cr8, {3}
    2320:	0000dc19 	andeq	sp, r0, r9, lsl ip
    2324:	df250000 	svcle	0x00250000
    2328:	01000002 	tsteq	r0, r2
    232c:	bb0314da 	bllt	c769c <__bss_end__+0xbd37c>
    2330:	24000004 	strcs	r0, [r0], #-4
    2334:	006e6970 	rsbeq	r6, lr, r0, ror r9
    2338:	2c2bda01 			; <UNDEFINED> instruction: 0x2c2bda01
    233c:	24000000 	strcs	r0, [r0], #-0
    2340:	da010072 	ble	42510 <__bss_end__+0x381f0>
    2344:	00005438 	andeq	r5, r0, r8, lsr r4
    2348:	00672400 	rsbeq	r2, r7, r0, lsl #8
    234c:	5443da01 	strbpl	sp, [r3], #-2561	; 0xfffff5ff
    2350:	24000000 	strcs	r0, [r0], #-0
    2354:	da010062 	ble	424e4 <__bss_end__+0x381c4>
    2358:	0000544e 	andeq	r5, r0, lr, asr #8
    235c:	00e41300 	rsceq	r1, r4, r0, lsl #6
    2360:	04cb0000 	strbeq	r0, [fp], #0
    2364:	03050000 	movweq	r0, #20480	; 0x5000
    2368:	00009b74 	andeq	r9, r0, r4, ror fp
    236c:	00c50e00 	sbceq	r0, r5, r0, lsl #28
    2370:	04cb0000 	strbeq	r0, [fp], #0
    2374:	2c170000 	ldccs	0, cr0, [r7], {-0}
    2378:	0d000000 	stceq	0, cr0, [r0, #-0]
    237c:	04bb0400 	ldrteq	r0, [fp], #1024	; 0x400
    2380:	18250000 	stmdane	r5!, {}	; <UNPREDICTABLE>
    2384:	01000003 	tsteq	r0, r3
    2388:	ea0314c7 	b	c76ac <__bss_end__+0xbd38c>
    238c:	24000004 	strcs	r0, [r0], #-4
    2390:	006e6970 	rsbeq	r6, lr, r0, ror r9
    2394:	2c27c701 	stccs	7, cr12, [r7], #-4
    2398:	00000000 	andeq	r0, r0, r0
    239c:	00001125 	andeq	r1, r0, r5, lsr #2
    23a0:	14be0100 	ldrtne	r0, [lr], #256	; 0x100
    23a4:	00051303 	andeq	r1, r5, r3, lsl #6
    23a8:	69702400 	ldmdbvs	r0!, {sl, sp}^
    23ac:	be01006e 	cdplt	0, 0, cr0, cr1, cr14, {3}
    23b0:	00002c24 	andeq	r2, r0, r4, lsr #24
    23b4:	00e41300 	rsceq	r1, r4, r0, lsl #6
    23b8:	05230000 	streq	r0, [r3, #-0]!
    23bc:	03050000 	movweq	r0, #20480	; 0x5000
    23c0:	00009b6c 	andeq	r9, r0, ip, ror #22
    23c4:	00c50e00 	sbceq	r0, r5, r0, lsl #28
    23c8:	05230000 	streq	r0, [r3, #-0]!
    23cc:	2c170000 	ldccs	0, cr0, [r7], {-0}
    23d0:	06000000 	streq	r0, [r0], -r0
    23d4:	05130400 	ldreq	r0, [r3, #-1024]	; 0xfffffc00
    23d8:	ea260000 	b	9823e0 <__bss_end__+0x9780c0>
    23dc:	68000004 	stmdavs	r0, {r2}
    23e0:	28000086 	stmdacs	r0, {r1, r2, r7}
    23e4:	01000000 	mrseq	r0, (UNDEF: 0)
    23e8:	0005819c 	muleq	r5, ip, r1
    23ec:	04f71d00 	ldrbteq	r1, [r7], #3328	; 0xd00
    23f0:	11a20000 			; <UNDEFINED> instruction: 0x11a20000
    23f4:	11a00000 	movne	r0, r0
    23f8:	80140000 	andshi	r0, r4, r0
    23fc:	4a000086 	bmi	261c <__code_start__-0x59e4>
    2400:	77000006 	strvc	r0, [r0, -r6]
    2404:	15000005 	strne	r0, [r0, #-5]
    2408:	03055001 	movweq	r5, #20481	; 0x5001
    240c:	00009894 	muleq	r0, r4, r8
    2410:	05510115 	ldrbeq	r0, [r1, #-277]	; 0xfffffeeb
    2414:	00988803 	addseq	r8, r8, r3, lsl #16
    2418:	52011500 	andpl	r1, r1, #0, 10
    241c:	9b6c0305 	blls	1b03038 <__bss_end__+0x1af8d18>
    2420:	01150000 	tsteq	r5, r0
    2424:	bf080253 	svclt	0x00080253
    2428:	86841600 	strhi	r1, [r4], r0, lsl #12
    242c:	06560000 	ldrbeq	r0, [r6], -r0
    2430:	26000000 	strcs	r0, [r0], -r0
    2434:	00000474 	andeq	r0, r0, r4, ror r4
    2438:	00008690 	muleq	r0, r0, r6
    243c:	00000028 	andeq	r0, r0, r8, lsr #32
    2440:	06019c01 	streq	r9, [r1], -r1, lsl #24
    2444:	a11d0000 	tstge	sp, r0
    2448:	bc000004 	stclt	0, cr0, [r0], {4}
    244c:	ba000011 	blt	2498 <__code_start__-0x5b68>
    2450:	1d000011 	stcne	0, cr0, [r0, #-68]	; 0xffffffbc
    2454:	00000497 	muleq	r0, r7, r4
    2458:	000011d6 	ldrdeq	r1, [r0], -r6
    245c:	000011d4 	ldrdeq	r1, [r0], -r4
    2460:	00048d1d 	andeq	r8, r4, sp, lsl sp
    2464:	0011f000 	andseq	pc, r1, r0
    2468:	0011ee00 	andseq	lr, r1, r0, lsl #28
    246c:	04811d00 	streq	r1, [r1], #3328	; 0xd00
    2470:	120a0000 	andne	r0, sl, #0, 0
    2474:	12080000 	andne	r0, r8, #0, 0
    2478:	a8140000 	ldmdage	r4, {}	; <UNPREDICTABLE>
    247c:	4a000086 	bmi	269c <__code_start__-0x5964>
    2480:	f7000006 			; <UNDEFINED> instruction: 0xf7000006
    2484:	15000005 	strne	r0, [r0, #-5]
    2488:	03055001 	movweq	r5, #20481	; 0x5001
    248c:	00009894 	muleq	r0, r4, r8
    2490:	05510115 	ldrbeq	r0, [r1, #-277]	; 0xfffffeeb
    2494:	00988803 	addseq	r8, r8, r3, lsl #16
    2498:	52011500 	andpl	r1, r1, #0, 10
    249c:	9b740305 	blls	1d030b8 <__bss_end__+0x1cf8d98>
    24a0:	01150000 	tsteq	r5, r0
    24a4:	df080253 	svcle	0x00080253
    24a8:	86ac1600 	strthi	r1, [ip], r0, lsl #12
    24ac:	06560000 	ldrbeq	r0, [r6], -r0
    24b0:	26000000 	strcs	r0, [r0], -r0
    24b4:	0000045c 	andeq	r0, r0, ip, asr r4
    24b8:	000086b8 			; <UNDEFINED> instruction: 0x000086b8
    24bc:	00000008 	andeq	r0, r0, r8
    24c0:	064a9c01 	strbeq	r9, [sl], -r1, lsl #24
    24c4:	691d0000 	ldmdbvs	sp, {}	; <UNPREDICTABLE>
    24c8:	26000004 	strcs	r0, [r0], -r4
    24cc:	22000012 	andcs	r0, r0, #18, 0
    24d0:	1c000012 	stcne	0, cr0, [r0], {18}
    24d4:	000004d0 	ldrdeq	r0, [r0], -r0	; <UNPREDICTABLE>
    24d8:	000086b8 			; <UNDEFINED> instruction: 0x000086b8
    24dc:	00004802 	andeq	r4, r0, r2, lsl #16
    24e0:	05200200 	streq	r0, [r0, #-512]!	; 0xfffffe00
    24e4:	0004dd1d 	andeq	sp, r4, sp, lsl sp
    24e8:	00124900 	andseq	r4, r2, r0, lsl #18
    24ec:	00124700 	andseq	r4, r2, r0, lsl #14
    24f0:	86c01600 	strbhi	r1, [r0], r0, lsl #12
    24f4:	05280000 	streq	r0, [r8, #-0]!
    24f8:	00000000 	andeq	r0, r0, r0
    24fc:	0004ab27 	andeq	sl, r4, r7, lsr #22
    2500:	0004ab00 	andeq	sl, r4, r0, lsl #22
    2504:	06280400 	strteq	r0, [r8], -r0, lsl #8
    2508:	00004327 	andeq	r4, r0, r7, lsr #6
    250c:	00004300 	andeq	r4, r0, r0, lsl #6
    2510:	066e0400 	strbteq	r0, [lr], -r0, lsl #8
    2514:	00030d27 	andeq	r0, r3, r7, lsr #26
    2518:	00030d00 	andeq	r0, r3, r0, lsl #26
    251c:	077c0400 	ldrbeq	r0, [ip, -r0, lsl #8]!
    2520:	00032227 	andeq	r2, r3, r7, lsr #4
    2524:	00032200 	andeq	r2, r3, r0, lsl #4
    2528:	07f70400 	ldrbeq	r0, [r7, r0, lsl #8]!
    252c:	00003327 	andeq	r3, r0, r7, lsr #6
    2530:	00003300 	andeq	r3, r0, r0, lsl #6
    2534:	061d0600 	ldreq	r0, [sp], -r0, lsl #12
    2538:	00013a00 	andeq	r3, r1, r0, lsl #20
    253c:	2b000400 	blcs	3544 <__code_start__-0x4abc>
    2540:	04000005 	streq	r0, [r0], #-5
    2544:	00037b01 	andeq	r7, r3, r1, lsl #22
    2548:	04930c00 	ldreq	r0, [r3], #3072	; 0xc00
    254c:	044c0000 	strbeq	r0, [ip], #-0
    2550:	87540000 	ldrbhi	r0, [r4, -r0]
    2554:	00180000 	andseq	r0, r8, r0
    2558:	173d0000 	ldrne	r0, [sp, -r0]!
    255c:	04020000 	streq	r0, [r2], #-0
    2560:	746e6905 	strbtvc	r6, [lr], #-2309	; 0xfffff6fb
    2564:	04450300 	strbeq	r0, [r5], #-768	; 0xfffffd00
    2568:	d1030000 	mrsle	r0, (UNDEF: 3)
    256c:	00003817 	andeq	r3, r0, r7, lsl r8
    2570:	07040400 	streq	r0, [r4, -r0, lsl #8]
    2574:	0000014d 	andeq	r0, r0, sp, asr #2
    2578:	23060104 	movwcs	r0, #24836	; 0x6104
    257c:	04000001 	streq	r0, [r0], #-1
    2580:	00180502 	andseq	r0, r8, r2, lsl #10
    2584:	04040000 	streq	r0, [r4], #-0
    2588:	0000ce05 	andeq	ip, r0, r5, lsl #28
    258c:	05080400 	streq	r0, [r8, #-1024]	; 0xfffffc00
    2590:	000000c9 	andeq	r0, r0, r9, asr #1
    2594:	21080104 	tstcs	r8, r4, lsl #2
    2598:	04000001 	streq	r0, [r0], #-1
    259c:	01720702 	cmneq	r2, r2, lsl #14
    25a0:	04040000 	streq	r0, [r4], #-0
    25a4:	00014807 	andeq	r4, r1, r7, lsl #16
    25a8:	07080400 	streq	r0, [r8, -r0, lsl #8]
    25ac:	00000143 	andeq	r0, r0, r3, asr #2
    25b0:	00002505 	andeq	r2, r0, r5, lsl #10
    25b4:	00008600 	andeq	r8, r0, r0, lsl #12
    25b8:	00250600 	eoreq	r0, r5, r0, lsl #12
    25bc:	07000000 	streq	r0, [r0, -r0]
    25c0:	00000027 	andeq	r0, r0, r7, lsr #32
    25c4:	920e1c02 	andls	r1, lr, #512	; 0x200
    25c8:	08000000 	stmdaeq	r0, {}	; <UNPREDICTABLE>
    25cc:	00007704 	andeq	r7, r0, r4, lsl #14
    25d0:	00250500 	eoreq	r0, r5, r0, lsl #10
    25d4:	00a70000 	adceq	r0, r7, r0
    25d8:	a7060000 	strge	r0, [r6, -r0]
    25dc:	00000000 	andeq	r0, r0, r0
    25e0:	00b40408 	adcseq	r0, r4, r8, lsl #8
    25e4:	01040000 	mrseq	r0, (UNDEF: 4)
    25e8:	00012a08 	andeq	r2, r1, r8, lsl #20
    25ec:	00ad0900 	adceq	r0, sp, r0, lsl #18
    25f0:	22070000 	andcs	r0, r7, #0, 0
    25f4:	02000005 	andeq	r0, r0, #5, 0
    25f8:	00c50e21 	sbceq	r0, r5, r1, lsr #28
    25fc:	04080000 	streq	r0, [r8], #-0
    2600:	00000098 	muleq	r0, r8, r0
    2604:	0003220a 	andeq	r2, r3, sl, lsl #4
    2608:	07040100 	streq	r0, [r4, -r0, lsl #2]
    260c:	00000135 	andeq	r0, r0, r5, lsr r1
    2610:	00008754 	andeq	r8, r0, r4, asr r7
    2614:	00000018 	andeq	r0, r0, r8, lsl r0
    2618:	01359c01 	teqeq	r5, r1, lsl #24
    261c:	5f0b0000 	svcpl	0x000b0000
    2620:	04010070 	streq	r0, [r1], #-112	; 0xffffff90
    2624:	00013514 	andeq	r3, r1, r4, lsl r5
    2628:	0b500100 	bleq	1402a30 <__bss_end__+0x13f8710>
    262c:	04010063 	streq	r0, [r1], #-99	; 0xffffff9d
    2630:	0000251c 	andeq	r2, r0, ip, lsl r5
    2634:	0c510100 	ldfeqe	f0, [r1], {-0}
    2638:	0401006e 	streq	r0, [r1], #-110	; 0xffffff92
    263c:	00002c26 	andeq	r2, r0, r6, lsr #24
    2640:	00126700 	andseq	r6, r2, r0, lsl #14
    2644:	00126300 	andseq	r6, r2, r0, lsl #6
    2648:	00700d00 	rsbseq	r0, r0, r0, lsl #26
    264c:	370b0501 	strcc	r0, [fp, -r1, lsl #10]
    2650:	90000001 	andls	r0, r0, r1
    2654:	88000012 	stmdahi	r0, {r1, r4}
    2658:	0d000012 	stceq	0, cr0, [r0, #-72]	; 0xffffffb8
    265c:	05010065 	streq	r0, [r1, #-101]	; 0xffffff9b
    2660:	00013714 	andeq	r3, r1, r4, lsl r7
    2664:	0012c800 	andseq	ip, r2, r0, lsl #16
    2668:	0012c600 	andseq	ip, r2, r0, lsl #12
    266c:	040e0000 	streq	r0, [lr], #-0
    2670:	00ad0408 	adceq	r0, sp, r8, lsl #8
    2674:	9d000000 	stcls	0, cr0, [r0, #-0]
    2678:	04000001 	streq	r0, [r0], #-1
    267c:	0005f700 	andeq	pc, r5, r0, lsl #14
    2680:	7b010400 	blvc	43688 <__bss_end__+0x39368>
    2684:	0c000003 	stceq	0, cr0, [r0], {3}
    2688:	000004c6 	andeq	r0, r0, r6, asr #9
    268c:	0000044c 	andeq	r0, r0, ip, asr #8
    2690:	0000876c 	andeq	r8, r0, ip, ror #14
    2694:	00000058 	andeq	r0, r0, r8, asr r0
    2698:	00001854 	andeq	r1, r0, r4, asr r8
    269c:	0004b202 	andeq	fp, r4, r2, lsl #4
    26a0:	1b280200 	blne	a02ea8 <__bss_end__+0x9f8b88>
    26a4:	00000031 	andeq	r0, r0, r1, lsr r0
    26a8:	0004d603 	andeq	sp, r4, r3, lsl #12
    26ac:	00040400 	andeq	r0, r4, r0, lsl #8
    26b0:	00000048 	andeq	r0, r0, r8, asr #32
    26b4:	0004c104 	andeq	ip, r4, r4, lsl #2
    26b8:	00004800 	andeq	r4, r0, r0, lsl #16
    26bc:	05000000 	streq	r0, [r0, #-0]
    26c0:	04d80204 	ldrbeq	r0, [r8], #516	; 0x204
    26c4:	63020000 	movwvs	r0, #8192	; 0x2000
    26c8:	00002518 	andeq	r2, r0, r8, lsl r5
    26cc:	05040600 	streq	r0, [r4, #-1536]	; 0xfffffa00
    26d0:	00746e69 	rsbseq	r6, r4, r9, ror #28
    26d4:	4d070407 	cfstrsmi	mvf0, [r7, #-28]	; 0xffffffe4
    26d8:	07000001 	streq	r0, [r0, -r1]
    26dc:	01230601 			; <UNDEFINED> instruction: 0x01230601
    26e0:	02070000 	andeq	r0, r7, #0, 0
    26e4:	00001805 	andeq	r1, r0, r5, lsl #16
    26e8:	05040700 	streq	r0, [r4, #-1792]	; 0xfffff900
    26ec:	000000ce 	andeq	r0, r0, lr, asr #1
    26f0:	c9050807 	stmdbgt	r5, {r0, r1, r2, fp}
    26f4:	07000000 	streq	r0, [r0, -r0]
    26f8:	01210801 			; <UNDEFINED> instruction: 0x01210801
    26fc:	02070000 	andeq	r0, r7, #0, 0
    2700:	00017207 	andeq	r7, r1, r7, lsl #4
    2704:	07040700 	streq	r0, [r4, -r0, lsl #14]
    2708:	00000148 	andeq	r0, r0, r8, asr #2
    270c:	43070807 	movwmi	r0, #30727	; 0x7807
    2710:	08000001 	stmdaeq	r0, {r0}
    2714:	00000056 	andeq	r0, r0, r6, asr r0
    2718:	000000ab 	andeq	r0, r0, fp, lsr #1
    271c:	00005609 	andeq	r5, r0, r9, lsl #12
    2720:	270a0000 	strcs	r0, [sl, -r0]
    2724:	03000000 	movweq	r0, #0
    2728:	00b70e1c 	adcseq	r0, r7, ip, lsl lr
    272c:	040b0000 	streq	r0, [fp], #-0
    2730:	0000009c 	muleq	r0, ip, r0
    2734:	00005608 	andeq	r5, r0, r8, lsl #12
    2738:	0000cc00 	andeq	ip, r0, r0, lsl #24
    273c:	00cc0900 	sbceq	r0, ip, r0, lsl #18
    2740:	0b000000 	bleq	2748 <__code_start__-0x58b8>
    2744:	0000d904 	andeq	sp, r0, r4, lsl #18
    2748:	08010700 	stmdaeq	r1, {r8, r9, sl}
    274c:	0000012a 	andeq	r0, r0, sl, lsr #2
    2750:	0000d20c 	andeq	sp, r0, ip, lsl #4
    2754:	05220a00 	streq	r0, [r2, #-2560]!	; 0xfffff600
    2758:	21030000 	mrscs	r0, (UNDEF: 3)
    275c:	0000ea0e 	andeq	lr, r0, lr, lsl #20
    2760:	bd040b00 	vstrlt	d0, [r4, #-0]
    2764:	0d000000 	stceq	0, cr0, [r0, #-0]
    2768:	000004ab 	andeq	r0, r0, fp, lsr #9
    276c:	56050601 	strpl	r0, [r5], -r1, lsl #12
    2770:	6c000000 	stcvs	0, cr0, [r0], {-0}
    2774:	58000087 	stmdapl	r0, {r0, r1, r2, r7}
    2778:	01000000 	mrseq	r0, (UNDEF: 0)
    277c:	0001839c 	muleq	r1, ip, r3
    2780:	6d660e00 	stclvs	14, cr0, [r6, #-0]
    2784:	06010074 			; <UNDEFINED> instruction: 0x06010074
    2788:	0000cc18 	andeq	ip, r0, r8, lsl ip
    278c:	70910200 	addsvc	r0, r1, r0, lsl #4
    2790:	7562100f 	strbvc	r1, [r2, #-15]!
    2794:	08010066 	stmdaeq	r1, {r1, r2, r5, r6}
    2798:	00018311 	andeq	r8, r1, r1, lsl r3
    279c:	18030500 	stmdane	r3, {r8, sl}
    27a0:	1100009f 	swpne	r0, pc, [r0]	; <UNPREDICTABLE>
    27a4:	000004a3 	andeq	r0, r0, r3, lsr #9
    27a8:	4a0d0901 	bmi	344bb4 <__bss_end__+0x33a894>
    27ac:	02000000 	andeq	r0, r0, #0, 0
    27b0:	73125c91 	tstvc	r2, #37120	; 0x9100
    27b4:	0c01007a 	stceq	0, cr0, [r1], {122}	; 0x7a
    27b8:	0000560d 	andeq	r5, r0, sp, lsl #12
    27bc:	0012e100 	andseq	lr, r2, r0, lsl #2
    27c0:	0012db00 	andseq	sp, r2, r0, lsl #22
    27c4:	87941300 	ldrhi	r1, [r4, r0, lsl #6]
    27c8:	01940000 	orrseq	r0, r4, r0
    27cc:	01760000 	cmneq	r6, r0
    27d0:	01140000 	tsteq	r4, r0
    27d4:	00750250 	rsbseq	r0, r5, r0, asr r2
    27d8:	03510114 	cmpeq	r1, #5
    27dc:	1404000a 	strne	r0, [r4], #-10
    27e0:	91035201 	tstls	r3, r1, lsl #4
    27e4:	01140648 	tsteq	r4, r8, asr #12
    27e8:	4c910253 	lfmmi	f0, 4, [r1], {83}	; 0x53
    27ec:	87a81500 	strhi	r1, [r8, r0, lsl #10]!
    27f0:	01140000 	tsteq	r4, r0
    27f4:	00750250 	rsbseq	r0, r5, r0, asr r2
    27f8:	d2160000 	andsle	r0, r6, #0, 0
    27fc:	94000000 	strls	r0, [r0], #-0
    2800:	17000001 	strne	r0, [r0, -r1]
    2804:	0000005d 	andeq	r0, r0, sp, asr r0
    2808:	180003ff 	stmdane	r0, {r0, r1, r2, r3, r4, r5, r6, r7, r8, r9}
    280c:	000004a8 	andeq	r0, r0, r8, lsr #9
    2810:	000004a8 	andeq	r0, r0, r8, lsr #9
    2814:	00050205 	andeq	r0, r5, r5, lsl #4
    2818:	00000149 	andeq	r0, r0, r9, asr #2
    281c:	07390004 	ldreq	r0, [r9, -r4]!
    2820:	01040000 	mrseq	r0, (UNDEF: 4)
    2824:	0000037b 	andeq	r0, r0, fp, ror r3
    2828:	0004fe0c 	andeq	pc, r4, ip, lsl #28
    282c:	00044c00 	andeq	r4, r4, r0, lsl #24
    2830:	0087c400 	addeq	ip, r7, r0, lsl #8
    2834:	00003c00 	andeq	r3, r0, r0, lsl #24
    2838:	00198a00 	andseq	r8, r9, r0, lsl #20
    283c:	05040200 	streq	r0, [r4, #-512]	; 0xfffffe00
    2840:	00746e69 	rsbseq	r6, r4, r9, ror #28
    2844:	4d070403 	cfstrsmi	mvf0, [r7, #-12]
    2848:	03000001 	movweq	r0, #1
    284c:	01230601 			; <UNDEFINED> instruction: 0x01230601
    2850:	02030000 	andeq	r0, r3, #0, 0
    2854:	00001805 	andeq	r1, r0, r5, lsl #16
    2858:	05040300 	streq	r0, [r4, #-768]	; 0xfffffd00
    285c:	000000ce 	andeq	r0, r0, lr, asr #1
    2860:	c9050803 	stmdbgt	r5, {r0, r1, fp}
    2864:	03000000 	movweq	r0, #0
    2868:	01210801 			; <UNDEFINED> instruction: 0x01210801
    286c:	02030000 	andeq	r0, r3, #0, 0
    2870:	00017207 	andeq	r7, r1, r7, lsl #4
    2874:	07040300 	streq	r0, [r4, -r0, lsl #6]
    2878:	00000148 	andeq	r0, r0, r8, asr #2
    287c:	43070803 	movwmi	r0, #30723	; 0x7803
    2880:	04000001 	streq	r0, [r0], #-1
    2884:	00000025 	andeq	r0, r0, r5, lsr #32
    2888:	0000007a 	andeq	r0, r0, sl, ror r0
    288c:	00002505 	andeq	r2, r0, r5, lsl #10
    2890:	27060000 	strcs	r0, [r6, -r0]
    2894:	02000000 	andeq	r0, r0, #0, 0
    2898:	00860e1c 	addeq	r0, r6, ip, lsl lr
    289c:	04070000 	streq	r0, [r7], #-0
    28a0:	0000006b 	andeq	r0, r0, fp, rrx
    28a4:	00002504 	andeq	r2, r0, r4, lsl #10
    28a8:	00009b00 	andeq	r9, r0, r0, lsl #22
    28ac:	009b0500 	addseq	r0, fp, r0, lsl #10
    28b0:	07000000 	streq	r0, [r0, -r0]
    28b4:	0000a804 	andeq	sl, r0, r4, lsl #16
    28b8:	08010300 	stmdaeq	r1, {r8, r9}
    28bc:	0000012a 	andeq	r0, r0, sl, lsr #2
    28c0:	0000a108 	andeq	sl, r0, r8, lsl #2
    28c4:	05220600 	streq	r0, [r2, #-1536]!	; 0xfffffa00
    28c8:	21020000 	mrscs	r0, (UNDEF: 2)
    28cc:	0000b90e 	andeq	fp, r0, lr, lsl #18
    28d0:	8c040700 	stchi	7, cr0, [r4], {-0}
    28d4:	09000000 	stmdbeq	r0, {}	; <UNPREDICTABLE>
    28d8:	0000007a 	andeq	r0, r0, sl, ror r0
    28dc:	05070601 	streq	r0, [r7, #-1537]	; 0xfffff9ff
    28e0:	009f0403 	addseq	r0, pc, r3, lsl #8
    28e4:	04f10a00 	ldrbteq	r0, [r1], #2560	; 0xa00
    28e8:	0b010000 	bleq	428f0 <__bss_end__+0x385d0>
    28ec:	0087f006 	addeq	pc, r7, r6
    28f0:	00001000 	andeq	r1, r0, r0
    28f4:	f19c0100 			; <UNDEFINED> instruction: 0xf19c0100
    28f8:	0b000000 	bleq	2900 <__code_start__-0x5700>
    28fc:	01007066 	tsteq	r0, r6, rrx
    2900:	0086190b 	addeq	r1, r6, fp, lsl #18
    2904:	50010000 	andpl	r0, r1, r0
    2908:	02aa0c00 	adceq	r0, sl, #0, 24
    290c:	08010000 	stmdaeq	r1, {}	; <UNPREDICTABLE>
    2910:	0087d806 	addeq	sp, r7, r6, lsl #16
    2914:	00001800 	andeq	r1, r0, r0, lsl #16
    2918:	0d9c0100 	ldfeqs	f0, [ip]
    291c:	000004e0 	andeq	r0, r0, r0, ror #9
    2920:	250c0301 	strcs	r0, [ip, #-769]	; 0xfffffcff
    2924:	c4000000 	strgt	r0, [r0], #-0
    2928:	14000087 	strne	r0, [r0], #-135	; 0xffffff79
    292c:	01000000 	mrseq	r0, (UNDEF: 0)
    2930:	0001409c 	muleq	r1, ip, r0
    2934:	00630e00 	rsbeq	r0, r3, r0, lsl #28
    2938:	25210301 	strcs	r0, [r1, #-769]!	; 0xfffffcff
    293c:	0e000000 	cdpeq	0, 0, cr0, cr0, cr0, {0}
    2940:	0a000013 	beq	2994 <__code_start__-0x566c>
    2944:	0f000013 	svceq	0x00000013
    2948:	000087d0 	ldrdeq	r8, [r0], -r0
    294c:	00000140 	andeq	r0, r0, r0, asr #2
    2950:	02500110 	subseq	r0, r0, #4
    2954:	00000074 	andeq	r0, r0, r4, ror r0
    2958:	00050f11 	andeq	r0, r5, r1, lsl pc
    295c:	00050f00 	andeq	r0, r5, r0, lsl #30
    2960:	06420200 	strbeq	r0, [r2], -r0, lsl #4
    2964:	0000f300 	andeq	pc, r0, r0, lsl #6
    2968:	48000400 	stmdami	r0, {sl}
    296c:	04000008 	streq	r0, [r0], #-8
    2970:	00037b01 	andeq	r7, r3, r1, lsl #22
    2974:	05270c00 	streq	r0, [r7, #-3072]!	; 0xfffff400
    2978:	044c0000 	strbeq	r0, [ip], #-0
    297c:	88000000 	stmdahi	r0, {}	; <UNPREDICTABLE>
    2980:	00340000 	eorseq	r0, r4, r0
    2984:	1a4b0000 	bne	12c298c <__bss_end__+0x12b866c>
    2988:	04020000 	streq	r0, [r2], #-0
    298c:	746e6905 	strbtvc	r6, [lr], #-2309	; 0xfffff6fb
    2990:	07040300 	streq	r0, [r4, -r0, lsl #6]
    2994:	0000014d 	andeq	r0, r0, sp, asr #2
    2998:	23060103 	movwcs	r0, #24835	; 0x6103
    299c:	03000001 	movweq	r0, #1
    29a0:	00180502 	andseq	r0, r8, r2, lsl #10
    29a4:	04030000 	streq	r0, [r3], #-0
    29a8:	0000ce05 	andeq	ip, r0, r5, lsl #28
    29ac:	05080300 	streq	r0, [r8, #-768]	; 0xfffffd00
    29b0:	000000c9 	andeq	r0, r0, r9, asr #1
    29b4:	21080103 	tstcs	r8, r3, lsl #2
    29b8:	03000001 	movweq	r0, #1
    29bc:	01720702 	cmneq	r2, r2, lsl #14
    29c0:	04030000 	streq	r0, [r3], #-0
    29c4:	00014807 	andeq	r4, r1, r7, lsl #16
    29c8:	07080300 	streq	r0, [r8, -r0, lsl #6]
    29cc:	00000143 	andeq	r0, r0, r3, asr #2
    29d0:	00002504 	andeq	r2, r0, r4, lsl #10
    29d4:	00007a00 	andeq	r7, r0, r0, lsl #20
    29d8:	00250500 	eoreq	r0, r5, r0, lsl #10
    29dc:	06000000 	streq	r0, [r0], -r0
    29e0:	00000027 	andeq	r0, r0, r7, lsr #32
    29e4:	860e1c02 	strhi	r1, [lr], -r2, lsl #24
    29e8:	07000000 	streq	r0, [r0, -r0]
    29ec:	00006b04 	andeq	r6, r0, r4, lsl #22
    29f0:	00250400 	eoreq	r0, r5, r0, lsl #8
    29f4:	009b0000 	addseq	r0, fp, r0
    29f8:	9b050000 	blls	142a00 <__bss_end__+0x1386e0>
    29fc:	00000000 	andeq	r0, r0, r0
    2a00:	00a80407 	adceq	r0, r8, r7, lsl #8
    2a04:	01030000 	mrseq	r0, (UNDEF: 3)
    2a08:	00012a08 	andeq	r2, r1, r8, lsl #20
    2a0c:	00a10800 	adceq	r0, r1, r0, lsl #16
    2a10:	22060000 	andcs	r0, r6, #0, 0
    2a14:	02000005 	andeq	r0, r0, #5, 0
    2a18:	00b90e21 	adcseq	r0, r9, r1, lsr #28
    2a1c:	04070000 	streq	r0, [r7], #-0
    2a20:	0000008c 	andeq	r0, r0, ip, lsl #1
    2a24:	0000ad09 	andeq	sl, r0, r9, lsl #26
    2a28:	070c0100 	streq	r0, [ip, -r0, lsl #2]
    2a2c:	9f080305 	svcls	0x00080305
    2a30:	190a0000 	stmdbne	sl, {}	; <UNPREDICTABLE>
    2a34:	01000005 	tsteq	r0, r5
    2a38:	00250504 	eoreq	r0, r5, r4, lsl #10
    2a3c:	88000000 	stmdahi	r0, {}	; <UNPREDICTABLE>
    2a40:	00340000 	eorseq	r0, r4, r0
    2a44:	9c010000 	stcls	0, cr0, [r1], {-0}
    2a48:	0100700b 	tsteq	r0, fp
    2a4c:	009b1f04 	addseq	r1, fp, r4, lsl #30
    2a50:	13300000 	teqne	r0, #0, 0
    2a54:	132c0000 			; <UNDEFINED> instruction: 0x132c0000
    2a58:	00000000 	andeq	r0, r0, r0
    2a5c:	00000ad7 	ldrdeq	r0, [r0], -r7
    2a60:	08e60004 	stmiaeq	r6!, {r2}^
    2a64:	01040000 	mrseq	r0, (UNDEF: 4)
    2a68:	0000037b 	andeq	r0, r0, fp, ror r3
    2a6c:	0005460c 	andeq	r4, r5, ip, lsl #12
    2a70:	00044c00 	andeq	r4, r4, r0, lsl #24
    2a74:	00883400 	addeq	r3, r8, r0, lsl #8
    2a78:	00074000 	andeq	r4, r7, r0
    2a7c:	001b1900 	andseq	r1, fp, r0, lsl #18
    2a80:	05040200 	streq	r0, [r4, #-512]	; 0xfffffe00
    2a84:	00746e69 	rsbseq	r6, r4, r9, ror #28
    2a88:	4d070403 	cfstrsmi	mvf0, [r7, #-12]
    2a8c:	03000001 	movweq	r0, #1
    2a90:	01230601 			; <UNDEFINED> instruction: 0x01230601
    2a94:	02030000 	andeq	r0, r3, #0, 0
    2a98:	00001805 	andeq	r1, r0, r5, lsl #16
    2a9c:	05040300 	streq	r0, [r4, #-768]	; 0xfffffd00
    2aa0:	000000ce 	andeq	r0, r0, lr, asr #1
    2aa4:	c9050803 	stmdbgt	r5, {r0, r1, fp}
    2aa8:	03000000 	movweq	r0, #0
    2aac:	01210801 			; <UNDEFINED> instruction: 0x01210801
    2ab0:	02030000 	andeq	r0, r3, #0, 0
    2ab4:	00017207 	andeq	r7, r1, r7, lsl #4
    2ab8:	03720400 	cmneq	r2, #0, 8
    2abc:	34020000 	strcc	r0, [r2], #-0
    2ac0:	00006919 	andeq	r6, r0, r9, lsl r9
    2ac4:	07040300 	streq	r0, [r4, -r0, lsl #6]
    2ac8:	00000148 	andeq	r0, r0, r8, asr #2
    2acc:	00053d04 	andeq	r3, r5, r4, lsl #26
    2ad0:	19370200 	ldmdbne	r7!, {r9}
    2ad4:	0000007c 	andeq	r0, r0, ip, ror r0
    2ad8:	43070803 	movwmi	r0, #30723	; 0x7803
    2adc:	05000001 	streq	r0, [r0, #-1]
    2ae0:	00000025 	andeq	r0, r0, r5, lsr #32
    2ae4:	00000092 	muleq	r0, r2, r0
    2ae8:	00002506 	andeq	r2, r0, r6, lsl #10
    2aec:	27070000 	strcs	r0, [r7, -r0]
    2af0:	03000000 	movweq	r0, #0
    2af4:	009e0e1c 	addseq	r0, lr, ip, lsl lr
    2af8:	04080000 	streq	r0, [r8], #-0
    2afc:	00000083 	andeq	r0, r0, r3, lsl #1
    2b00:	00002505 	andeq	r2, r0, r5, lsl #10
    2b04:	0000b300 	andeq	fp, r0, r0, lsl #6
    2b08:	00b30600 	adcseq	r0, r3, r0, lsl #12
    2b0c:	08000000 	stmdaeq	r0, {}	; <UNPREDICTABLE>
    2b10:	0000c004 	andeq	ip, r0, r4
    2b14:	08010300 	stmdaeq	r1, {r8, r9}
    2b18:	0000012a 	andeq	r0, r0, sl, lsr #2
    2b1c:	0000b909 	andeq	fp, r0, r9, lsl #18
    2b20:	05220700 	streq	r0, [r2, #-1792]!	; 0xfffff900
    2b24:	21030000 	mrscs	r0, (UNDEF: 3)
    2b28:	0000d10e 	andeq	sp, r0, lr, lsl #2
    2b2c:	a4040800 	strge	r0, [r4], #-2048	; 0xfffff800
    2b30:	07000000 	streq	r0, [r0, -r0]
    2b34:	00000559 	andeq	r0, r0, r9, asr r5
    2b38:	b90d0b04 	stmdblt	sp, {r2, r8, r9, fp}
    2b3c:	07000000 	streq	r0, [r0, -r0]
    2b40:	000005d7 	ldrdeq	r0, [r0], -r7
    2b44:	b90d0c04 	stmdblt	sp, {r2, sl, fp}
    2b48:	07000000 	streq	r0, [r0, -r0]
    2b4c:	00000568 	andeq	r0, r0, r8, ror #10
    2b50:	b90d0d04 	stmdblt	sp, {r2, r8, sl, fp}
    2b54:	07000000 	streq	r0, [r0, -r0]
    2b58:	00000591 	muleq	r0, r1, r5
    2b5c:	b90d0e04 	stmdblt	sp, {r2, r9, sl, fp}
    2b60:	07000000 	streq	r0, [r0, -r0]
    2b64:	00000607 	andeq	r0, r0, r7, lsl #12
    2b68:	b90d0f04 	stmdblt	sp, {r2, r8, r9, sl, fp}
    2b6c:	07000000 	streq	r0, [r0, -r0]
    2b70:	0000057c 	andeq	r0, r0, ip, ror r5
    2b74:	b90d1004 	stmdblt	sp, {r2, ip}
    2b78:	07000000 	streq	r0, [r0, -r0]
    2b7c:	00000616 	andeq	r0, r0, r6, lsl r6
    2b80:	b90d1104 	stmdblt	sp, {r2, r8, ip}
    2b84:	07000000 	streq	r0, [r0, -r0]
    2b88:	0000059d 	muleq	r0, sp, r5
    2b8c:	b90d1204 	stmdblt	sp, {r2, r9, ip}
    2b90:	04000000 	streq	r0, [r0], #-0
    2b94:	000004b2 			; <UNDEFINED> instruction: 0x000004b2
    2b98:	431b2805 	tstmi	fp, #327680	; 0x50000
    2b9c:	0a000001 	beq	2ba8 <__code_start__-0x5458>
    2ba0:	000004d6 	ldrdeq	r0, [r0], -r6
    2ba4:	5a000604 	bpl	43bc <__code_start__-0x3c44>
    2ba8:	0b000001 	bleq	2bb4 <__code_start__-0x544c>
    2bac:	000004c1 	andeq	r0, r0, r1, asr #9
    2bb0:	0000015a 	andeq	r0, r0, sl, asr r1
    2bb4:	040c0000 	streq	r0, [ip], #-0
    2bb8:	0004d804 	andeq	sp, r4, r4, lsl #16
    2bbc:	18630500 	stmdane	r3!, {r8, sl}^
    2bc0:	00000137 	andeq	r0, r0, r7, lsr r1
    2bc4:	0004a80d 	andeq	sl, r4, sp, lsl #16
    2bc8:	05810100 	streq	r0, [r1, #256]	; 0x100
    2bcc:	00000025 	andeq	r0, r0, r5, lsr #32
    2bd0:	00008abc 			; <UNDEFINED> instruction: 0x00008abc
    2bd4:	000004b8 			; <UNDEFINED> instruction: 0x000004b8
    2bd8:	07179c01 	ldreq	r9, [r7, -r1, lsl #24]
    2bdc:	620e0000 	andvs	r0, lr, #0, 0
    2be0:	01006675 	tsteq	r0, r5, ror r6
    2be4:	07171581 	ldreq	r1, [r7, -r1, lsl #11]
    2be8:	13540000 	cmpne	r4, #0, 0
    2bec:	134e0000 	movtne	r0, #57344	; 0xe000
    2bf0:	6e0e0000 	cdpvs	0, 0, cr0, cr14, cr0, {0}
    2bf4:	1e810100 	rmfnes	f0, f1, f0
    2bf8:	00000025 	andeq	r0, r0, r5, lsr #32
    2bfc:	00001386 	andeq	r1, r0, r6, lsl #7
    2c00:	00001380 	andeq	r1, r0, r0, lsl #7
    2c04:	746d660e 	strbtvc	r6, [sp], #-1550	; 0xfffff9f2
    2c08:	2d810100 	stfcss	f0, [r1]
    2c0c:	000000b3 	strheq	r0, [r0], -r3
    2c10:	000013c0 	andeq	r1, r0, r0, asr #7
    2c14:	000013b4 			; <UNDEFINED> instruction: 0x000013b4
    2c18:	0004a30f 	andeq	sl, r4, pc, lsl #6
    2c1c:	3a810100 	bcc	fe043024 <__bss_end__+0xfe038d04>
    2c20:	0000015c 	andeq	r0, r0, ip, asr r1
    2c24:	7dd49103 	ldfvcp	f1, [r4, #12]
    2c28:	01007010 	tsteq	r0, r0, lsl r0
    2c2c:	07170882 	ldreq	r0, [r7, -r2, lsl #17]
    2c30:	141e0000 	ldrne	r0, [lr], #-0
    2c34:	140a0000 	strne	r0, [sl], #-0
    2c38:	65100000 	ldrvs	r0, [r0, #-0]
    2c3c:	12820100 	addne	r0, r2, #0
    2c40:	00000717 	andeq	r0, r0, r7, lsl r7
    2c44:	000014a0 	andeq	r1, r0, r0, lsr #9
    2c48:	0000149c 	muleq	r0, ip, r4
    2c4c:	00307810 	eorseq	r7, r0, r0, lsl r8
    2c50:	5d0e8301 	stcpl	3, cr8, [lr, #-4]
    2c54:	cd000000 	stcgt	0, cr0, [r0, #-0]
    2c58:	c7000014 	smladgt	r0, r4, r0, r0
    2c5c:	10000014 	andne	r0, r0, r4, lsl r0
    2c60:	01003178 	tsteq	r0, r8, ror r1
    2c64:	005d1183 	subseq	r1, sp, r3, lsl #3
    2c68:	14fa0000 	ldrbtne	r0, [sl], #0
    2c6c:	14f60000 	ldrbtne	r0, [r6], #0
    2c70:	bb110000 	bllt	442c78 <__bss_end__+0x438958>
    2c74:	01000005 	tsteq	r0, r5
    2c78:	00b31186 	adcseq	r1, r3, r6, lsl #3
    2c7c:	151c0000 	ldrne	r0, [ip, #-0]
    2c80:	15180000 	ldrne	r0, [r8, #-0]
    2c84:	e4120000 	ldr	r0, [r2], #-0
    2c88:	2d000000 	stccs	0, cr0, [r0, #-0]
    2c8c:	05000007 	streq	r0, [r0, #-7]
    2c90:	009cf003 	addseq	pc, ip, r3
    2c94:	8b241300 	blhi	90789c <__bss_end__+0x8fd57c>
    2c98:	04000000 	streq	r0, [r0], #-0
    2c9c:	73100000 	tstvc	r0, #0, 0
    2ca0:	0a910100 	beq	fe4430a8 <__bss_end__+0xfe438d88>
    2ca4:	00000717 	andeq	r0, r0, r7, lsl r7
    2ca8:	00001552 	andeq	r1, r0, r2, asr r5
    2cac:	0000153c 	andeq	r1, r0, ip, lsr r5
    2cb0:	6d756e14 	ldclvs	14, cr6, [r5, #-80]!	; 0xffffffb0
    2cb4:	0d910100 	ldfeqs	f0, [r1]
    2cb8:	00000732 	andeq	r0, r0, r2, lsr r7
    2cbc:	7dd89103 	ldfvcp	f1, [r8, #12]
    2cc0:	0005d215 	andeq	sp, r5, r5, lsl r2
    2cc4:	17910100 	ldrne	r0, [r1, r0, lsl #2]
    2cc8:	00000732 	andeq	r0, r0, r2, lsr r7
    2ccc:	7ed89103 	atnvce	f1, f3
    2cd0:	00057611 	andeq	r7, r5, r1, lsl r6
    2cd4:	0d920100 	ldfeqs	f0, [r2]
    2cd8:	0000002c 	andeq	r0, r0, ip, lsr #32
    2cdc:	000015d9 	ldrdeq	r1, [r0], -r9
    2ce0:	000015d3 	ldrdeq	r1, [r0], -r3
    2ce4:	008bec16 	addeq	lr, fp, r6, lsl ip
    2ce8:	0001a400 	andeq	sl, r1, r0, lsl #8
    2cec:	00053900 	andeq	r3, r5, r0, lsl #18
    2cf0:	79741000 	ldmdbvc	r4!, {ip}^
    2cf4:	1d9e0100 	ldfnes	f0, [lr]
    2cf8:	000000b3 	strheq	r0, [r0], -r3
    2cfc:	0000160d 	andeq	r1, r0, sp, lsl #12
    2d00:	00001603 	andeq	r1, r0, r3, lsl #12
    2d04:	00787817 	rsbseq	r7, r8, r7, lsl r8
    2d08:	701aa201 	andsvc	sl, sl, r1, lsl #4
    2d0c:	18000000 	stmdane	r0, {}	; <UNPREDICTABLE>
    2d10:	00008bfc 	strdeq	r8, [r0], -ip
    2d14:	00000a92 	muleq	r0, r2, sl
    2d18:	000002d5 	ldrdeq	r0, [r0], -r5
    2d1c:	02500119 	subseq	r0, r0, #1073741830	; 0x40000006
    2d20:	01190076 	tsteq	r9, r6, ror r0
    2d24:	e4030551 	str	r0, [r3], #-1361	; 0xfffffaaf
    2d28:	1900009b 	stmdbne	r0, {r0, r1, r3, r4, r7}
    2d2c:	33015201 	movwcc	r5, #4609	; 0x1201
    2d30:	8c141800 	ldchi	8, cr1, [r4], {-0}
    2d34:	0a920000 	beq	fe482d3c <__bss_end__+0xfe478a1c>
    2d38:	02f70000 	rscseq	r0, r7, #0, 0
    2d3c:	01190000 	tsteq	r9, r0
    2d40:	00760250 	rsbseq	r0, r6, r0, asr r2
    2d44:	05510119 	ldrbeq	r0, [r1, #-281]	; 0xfffffee7
    2d48:	009be803 	addseq	lr, fp, r3, lsl #16
    2d4c:	52011900 	andpl	r1, r1, #0, 18
    2d50:	18003301 	stmdane	r0, {r0, r8, r9, ip, sp}
    2d54:	00008c48 	andeq	r8, r0, r8, asr #24
    2d58:	00000a9e 	muleq	r0, lr, sl
    2d5c:	00000314 	andeq	r0, r0, r4, lsl r3
    2d60:	05500119 	ldrbeq	r0, [r0, #-281]	; 0xfffffee7
    2d64:	009bec03 	addseq	lr, fp, r3, lsl #24
    2d68:	51011900 	tstpl	r1, r0, lsl #18
    2d6c:	00007702 	andeq	r7, r0, r2, lsl #14
    2d70:	008c5418 	addeq	r5, ip, r8, lsl r4
    2d74:	000a9e00 	andeq	r9, sl, r0, lsl #28
    2d78:	00033100 	andeq	r3, r3, r0, lsl #2
    2d7c:	50011900 	andpl	r1, r1, r0, lsl #18
    2d80:	9bf40305 	blls	ffd0399c <__bss_end__+0xffcf967c>
    2d84:	01190000 	tsteq	r9, r0
    2d88:	007a0251 	rsbseq	r0, sl, r1, asr r2
    2d8c:	8c641800 	stclhi	8, cr1, [r4], #-0
    2d90:	0a920000 	beq	fe482d98 <__bss_end__+0xfe478a78>
    2d94:	03530000 	cmpeq	r3, #0, 0
    2d98:	01190000 	tsteq	r9, r0
    2d9c:	00760250 	rsbseq	r0, r6, r0, asr r2
    2da0:	05510119 	ldrbeq	r0, [r1, #-281]	; 0xfffffee7
    2da4:	009be403 	addseq	lr, fp, r3, lsl #8
    2da8:	52011900 	andpl	r1, r1, #0, 18
    2dac:	18003301 	stmdane	r0, {r0, r8, r9, ip, sp}
    2db0:	00008c7c 	andeq	r8, r0, ip, ror ip
    2db4:	00000a92 	muleq	r0, r2, sl
    2db8:	00000375 	andeq	r0, r0, r5, ror r3
    2dbc:	02500119 	subseq	r0, r0, #1073741830	; 0x40000006
    2dc0:	01190076 	tsteq	r9, r6, ror r0
    2dc4:	e8030551 	stmda	r3, {r0, r4, r6, r8, sl}
    2dc8:	1900009b 	stmdbne	r0, {r0, r1, r3, r4, r7}
    2dcc:	33015201 	movwcc	r5, #4609	; 0x1201
    2dd0:	8ca41800 	stchi	8, cr1, [r4]
    2dd4:	07420000 	strbeq	r0, [r2, -r0]
    2dd8:	03a90000 			; <UNDEFINED> instruction: 0x03a90000
    2ddc:	01190000 	tsteq	r9, r0
    2de0:	193a0150 	ldmdbne	sl!, {r4, r6, r8}
    2de4:	91035101 	tstls	r3, r1, lsl #2
    2de8:	01197dd0 			; <UNDEFINED> instruction: 0x01197dd0
    2dec:	80080252 	andhi	r0, r8, r2, asr r2
    2df0:	02530119 	subseq	r0, r3, #1073741830	; 0x40000006
    2df4:	02190077 	andseq	r0, r9, #119, 0	; 0x77
    2df8:	7502007d 	strvc	r0, [r2, #-125]	; 0xffffff83
    2dfc:	7d021900 	vstrvc.16	s2, [r2, #-0]	; <UNPREDICTABLE>
    2e00:	00760204 	rsbseq	r0, r6, r4, lsl #4
    2e04:	8cc41800 	stclhi	8, cr1, [r4], {0}
    2e08:	07420000 	strbeq	r0, [r2, -r0]
    2e0c:	03dd0000 	bicseq	r0, sp, #0, 0
    2e10:	01190000 	tsteq	r9, r0
    2e14:	193a0150 	ldmdbne	sl!, {r4, r6, r8}
    2e18:	91035101 	tstls	r3, r1, lsl #2
    2e1c:	01197ed0 			; <UNDEFINED> instruction: 0x01197ed0
    2e20:	80080252 	andhi	r0, r8, r2, asr r2
    2e24:	02530119 	subseq	r0, r3, #1073741830	; 0x40000006
    2e28:	0219007a 	andseq	r0, r9, #122, 0	; 0x7a
    2e2c:	7502007d 	strvc	r0, [r2, #-125]	; 0xffffff83
    2e30:	7d021900 	vstrvc.16	s2, [r2, #-0]	; <UNPREDICTABLE>
    2e34:	00760204 	rsbseq	r0, r6, r4, lsl #4
    2e38:	8cd01800 	ldclhi	8, cr1, [r0], {0}
    2e3c:	0aaa0000 	beq	fea82e44 <__bss_end__+0xfea78b24>
    2e40:	03fb0000 	mvnseq	r0, #0, 0
    2e44:	01190000 	tsteq	r9, r0
    2e48:	d0910350 	addsle	r0, r1, r0, asr r3
    2e4c:	5101197d 	tstpl	r1, sp, ror r9
    2e50:	9ba80305 	blls	fea03a6c <__bss_end__+0xfe9f974c>
    2e54:	18000000 	stmdane	r0, {}	; <UNPREDICTABLE>
    2e58:	00008ce4 	andeq	r8, r0, r4, ror #25
    2e5c:	00000ab6 			; <UNDEFINED> instruction: 0x00000ab6
    2e60:	00000417 	andeq	r0, r0, r7, lsl r4
    2e64:	03500119 	cmpeq	r0, #1073741830	; 0x40000006
    2e68:	197dd091 	ldmdbne	sp!, {r0, r4, r7, ip, lr, pc}^
    2e6c:	91035101 	tstls	r3, r1, lsl #2
    2e70:	18007ed0 	stmdane	r0, {r4, r6, r7, r9, sl, fp, ip, sp, lr}
    2e74:	00008d08 	andeq	r8, r0, r8, lsl #26
    2e78:	00000a9e 	muleq	r0, lr, sl
    2e7c:	00000450 	andeq	r0, r0, r0, asr r4
    2e80:	05500119 	ldrbeq	r0, [r0, #-281]	; 0xfffffee7
    2e84:	0099e803 	addseq	lr, r9, r3, lsl #16
    2e88:	51011900 	tstpl	r1, r0, lsl #18
    2e8c:	9b940305 	blls	fe503aa8 <__bss_end__+0xfe4f9788>
    2e90:	01190000 	tsteq	r9, r0
    2e94:	f0030552 			; <UNDEFINED> instruction: 0xf0030552
    2e98:	1900009c 	stmdbne	r0, {r2, r3, r4, r7}
    2e9c:	08025301 	stmdaeq	r2, {r0, r8, r9, ip, lr}
    2ea0:	7d02199f 	vstrvc.16	s2, [r2, #-318]	; 0xfffffec2	; <UNPREDICTABLE>
    2ea4:	fc030500 	stc2	5, cr0, [r3], {-0}
    2ea8:	0000009b 	muleq	r0, fp, r0
    2eac:	008d0c1a 	addeq	r0, sp, sl, lsl ip
    2eb0:	000ac200 	andeq	ip, sl, r0, lsl #4
    2eb4:	8d2c1800 	stchi	8, cr1, [ip, #-0]
    2eb8:	07420000 	strbeq	r0, [r2, -r0]
    2ebc:	048d0000 	streq	r0, [sp], #0
    2ec0:	01190000 	tsteq	r9, r0
    2ec4:	19400150 	stmdbne	r0, {r4, r6, r8}^
    2ec8:	91035101 	tstls	r3, r1, lsl #2
    2ecc:	01197dd0 			; <UNDEFINED> instruction: 0x01197dd0
    2ed0:	80080252 	andhi	r0, r8, r2, asr r2
    2ed4:	02530119 	subseq	r0, r3, #1073741830	; 0x40000006
    2ed8:	02190077 	andseq	r0, r9, #119, 0	; 0x77
    2edc:	7502007d 	strvc	r0, [r2, #-125]	; 0xffffff83
    2ee0:	7d021900 	vstrvc.16	s2, [r2, #-0]	; <UNPREDICTABLE>
    2ee4:	00760204 	rsbseq	r0, r6, r4, lsl #4
    2ee8:	8d4c1800 	stclhi	8, cr1, [ip, #-0]
    2eec:	07420000 	strbeq	r0, [r2, -r0]
    2ef0:	04c10000 	strbeq	r0, [r1], #0
    2ef4:	01190000 	tsteq	r9, r0
    2ef8:	19400150 	stmdbne	r0, {r4, r6, r8}^
    2efc:	91035101 	tstls	r3, r1, lsl #2
    2f00:	01197ed0 			; <UNDEFINED> instruction: 0x01197ed0
    2f04:	80080252 	andhi	r0, r8, r2, asr r2
    2f08:	02530119 	subseq	r0, r3, #1073741830	; 0x40000006
    2f0c:	0219007a 	andseq	r0, r9, #122, 0	; 0x7a
    2f10:	7502007d 	strvc	r0, [r2, #-125]	; 0xffffff83
    2f14:	7d021900 	vstrvc.16	s2, [r2, #-0]	; <UNPREDICTABLE>
    2f18:	00760204 	rsbseq	r0, r6, r4, lsl #4
    2f1c:	8d581800 	ldclhi	8, cr1, [r8, #-0]
    2f20:	0ace0000 	beq	ff382f28 <__bss_end__+0xff378c08>
    2f24:	04dd0000 	ldrbeq	r0, [sp], #0
    2f28:	01190000 	tsteq	r9, r0
    2f2c:	d0910350 	addsle	r0, r1, r0, asr r3
    2f30:	5101197d 	tstpl	r1, sp, ror r9
    2f34:	7ed29103 	atnvcs	f1, f3
    2f38:	8d6c1800 	stclhi	8, cr1, [ip, #-0]
    2f3c:	0ace0000 	beq	ff382f44 <__bss_end__+0xff378c24>
    2f40:	04f90000 	ldrbteq	r0, [r9], #0
    2f44:	01190000 	tsteq	r9, r0
    2f48:	d0910350 	addsle	r0, r1, r0, asr r3
    2f4c:	5101197d 	tstpl	r1, sp, ror r9
    2f50:	7ed09103 	atnvcs	f1, f3
    2f54:	8d8c1800 	stchi	8, cr1, [ip]
    2f58:	0a9e0000 	beq	fe782f60 <__bss_end__+0xfe778c40>
    2f5c:	052f0000 	streq	r0, [pc, #-0]!	; 2f64 <__code_start__-0x509c>
    2f60:	01190000 	tsteq	r9, r0
    2f64:	38030550 	stmdacc	r3, {r4, r6, r8, sl}
    2f68:	1900009c 	stmdbne	r0, {r2, r3, r4, r7}
    2f6c:	03055101 	movweq	r5, #20737	; 0x5101
    2f70:	00009b94 	muleq	r0, r4, fp
    2f74:	05520119 	ldrbeq	r0, [r2, #-281]	; 0xfffffee7
    2f78:	009cf003 	addseq	pc, ip, r3
    2f7c:	53011900 	movwpl	r1, #6400	; 0x1900
    2f80:	19b60802 	ldmibne	r6!, {r1, fp}
    2f84:	02007d02 	andeq	r7, r0, #128	; 0x80
    2f88:	1a000076 	bne	3168 <__code_start__-0x4e98>
    2f8c:	00008d90 	muleq	r0, r0, sp
    2f90:	00000ac2 	andeq	r0, r0, r2, asr #21
    2f94:	8b3c1800 	blhi	f08f9c <__bss_end__+0xefec7c>
    2f98:	09c00000 	stmibeq	r0, {}^	; <UNPREDICTABLE>
    2f9c:	054d0000 	strbeq	r0, [sp, #-0]
    2fa0:	01190000 	tsteq	r9, r0
    2fa4:	00770250 	rsbseq	r0, r7, r0, asr r2
    2fa8:	8be81800 	blhi	ffa08fb0 <__bss_end__+0xff9fec90>
    2fac:	0a9e0000 	beq	fe782fb4 <__bss_end__+0xfe778c94>
    2fb0:	05860000 	streq	r0, [r6]
    2fb4:	01190000 	tsteq	r9, r0
    2fb8:	e8030550 	stmda	r3, {r4, r6, r8, sl}
    2fbc:	19000099 	stmdbne	r0, {r0, r3, r4, r7}
    2fc0:	03055101 	movweq	r5, #20737	; 0x5101
    2fc4:	00009b94 	muleq	r0, r4, fp
    2fc8:	05520119 	ldrbeq	r0, [r2, #-281]	; 0xfffffee7
    2fcc:	009cf003 	addseq	pc, ip, r3
    2fd0:	53011900 	movwpl	r1, #6400	; 0x1900
    2fd4:	19980802 	ldmibne	r8, {r1, fp}
    2fd8:	05007d02 	streq	r7, [r0, #-3330]	; 0xfffff2fe
    2fdc:	009bd803 	addseq	sp, fp, r3, lsl #16
    2fe0:	ec1a0000 	ldc	0, cr0, [sl], {-0}
    2fe4:	c200008b 	andgt	r0, r0, #139, 0	; 0x8b
    2fe8:	1800000a 	stmdane	r0, {r1, r3}
    2fec:	00008da4 	andeq	r8, r0, r4, lsr #27
    2ff0:	00000a9e 	muleq	r0, lr, sl
    2ff4:	000005be 			; <UNDEFINED> instruction: 0x000005be
    2ff8:	05500119 	ldrbeq	r0, [r0, #-281]	; 0xfffffee7
    2ffc:	009c6003 	addseq	r6, ip, r3
    3000:	51011900 	tstpl	r1, r0, lsl #18
    3004:	9b940305 	blls	fe503c20 <__bss_end__+0xfe4f9900>
    3008:	01190000 	tsteq	r9, r0
    300c:	f0030552 			; <UNDEFINED> instruction: 0xf0030552
    3010:	1900009c 	stmdbne	r0, {r2, r3, r4, r7}
    3014:	08025301 	stmdaeq	r2, {r0, r8, r9, ip, lr}
    3018:	a81a00be 	ldmdage	sl, {r1, r2, r3, r4, r5, r7}
    301c:	c200008d 	andgt	r0, r0, #141, 0	; 0x8d
    3020:	1800000a 	stmdane	r0, {r1, r3}
    3024:	00008dd4 	ldrdeq	r8, [r0], -r4
    3028:	00000742 	andeq	r0, r0, r2, asr #14
    302c:	000005f4 	strdeq	r0, [r0], -r4
    3030:	01500119 	cmpeq	r0, r9, lsl r1
    3034:	5101193a 	tstpl	r1, sl, lsr r9
    3038:	7dd09103 	ldfvcp	f1, [r0, #12]
    303c:	02520119 	subseq	r0, r2, #1073741830	; 0x40000006
    3040:	02198008 	andseq	r8, r9, #8, 0
    3044:	7502007d 	strvc	r0, [r2, #-125]	; 0xffffff83
    3048:	7d021900 	vstrvc.16	s2, [r2, #-0]	; <UNPREDICTABLE>
    304c:	00310104 	eorseq	r0, r1, r4, lsl #2
    3050:	008e0c18 	addeq	r0, lr, r8, lsl ip
    3054:	00074200 	andeq	r4, r7, r0, lsl #4
    3058:	00062100 	andeq	r2, r6, r0, lsl #2
    305c:	50011900 	andpl	r1, r1, r0, lsl #18
    3060:	01193a01 	tsteq	r9, r1, lsl #20
    3064:	d0910351 	addsle	r0, r1, r1, asr r3
    3068:	5201197d 	andpl	r1, r1, #2048000	; 0x1f4000
    306c:	19800802 	stmibne	r0, {r1, fp}
    3070:	02007d02 	andeq	r7, r0, #128	; 0x80
    3074:	02190075 	andseq	r0, r9, #117, 0	; 0x75
    3078:	3001047d 	andcc	r0, r1, sp, ror r4
    307c:	8e401800 	cdphi	8, 4, cr1, cr0, cr0, {0}
    3080:	07420000 	strbeq	r0, [r2, -r0]
    3084:	064e0000 	strbeq	r0, [lr], -r0
    3088:	01190000 	tsteq	r9, r0
    308c:	19400150 	stmdbne	r0, {r4, r6, r8}^
    3090:	91035101 	tstls	r3, r1, lsl #2
    3094:	01197dd0 			; <UNDEFINED> instruction: 0x01197dd0
    3098:	80080252 	andhi	r0, r8, r2, asr r2
    309c:	007d0219 	rsbseq	r0, sp, r9, lsl r2
    30a0:	19007502 	stmdbne	r0, {r1, r8, sl, ip, sp, lr}
    30a4:	01047d02 	tsteq	r4, r2, lsl #26
    30a8:	74180030 	ldrvc	r0, [r8], #-48	; 0xffffffd0
    30ac:	4200008e 	andmi	r0, r0, #142, 0	; 0x8e
    30b0:	7b000007 	blvc	30d4 <__code_start__-0x4f2c>
    30b4:	19000006 	stmdbne	r0, {r1, r2}
    30b8:	32015001 	andcc	r5, r1, #1, 0
    30bc:	03510119 	cmpeq	r1, #1073741830	; 0x40000006
    30c0:	197dd091 	ldmdbne	sp!, {r0, r4, r7, ip, lr, pc}^
    30c4:	08025201 	stmdaeq	r2, {r0, r9, ip, lr}
    30c8:	7d021980 	vstrvc.16	s2, [r2, #-256]	; 0xffffff00	; <UNPREDICTABLE>
    30cc:	00750200 	rsbseq	r0, r5, r0, lsl #4
    30d0:	047d0219 	ldrbteq	r0, [sp], #-537	; 0xfffffde7
    30d4:	18003001 	stmdane	r0, {r0, ip, sp}
    30d8:	00008ebc 			; <UNDEFINED> instruction: 0x00008ebc
    30dc:	00000742 	andeq	r0, r0, r2, asr #14
    30e0:	000006a8 	andeq	r0, r0, r8, lsr #13
    30e4:	01500119 	cmpeq	r0, r9, lsl r1
    30e8:	51011938 	tstpl	r1, r8, lsr r9
    30ec:	7dd09103 	ldfvcp	f1, [r0, #12]
    30f0:	02520119 	subseq	r0, r2, #1073741830	; 0x40000006
    30f4:	02198008 	andseq	r8, r9, #8, 0
    30f8:	7502007d 	strvc	r0, [r2, #-125]	; 0xffffff83
    30fc:	7d021900 	vstrvc.16	s2, [r2, #-0]	; <UNPREDICTABLE>
    3100:	00300104 	eorseq	r0, r0, r4, lsl #2
    3104:	008edc18 	addeq	sp, lr, r8, lsl ip
    3108:	000a9e00 	andeq	r9, sl, r0, lsl #28
    310c:	0006cb00 	andeq	ip, r6, r0, lsl #22
    3110:	50011900 	andpl	r1, r1, r0, lsl #18
    3114:	9c880305 	stcls	3, cr0, [r8], {5}
    3118:	01190000 	tsteq	r9, r0
    311c:	007a0251 	rsbseq	r0, sl, r1, asr r2
    3120:	02520119 	subseq	r0, r2, #1073741830	; 0x40000006
    3124:	1b00007a 	blne	3314 <__code_start__-0x4cec>
    3128:	00008eec 	andeq	r8, r0, ip, ror #29
    312c:	000006dd 	ldrdeq	r0, [r0], -sp
    3130:	04500119 	ldrbeq	r0, [r0], #-281	; 0xfffffee7
    3134:	067dc891 			; <UNDEFINED> instruction: 0x067dc891
    3138:	8f001800 	svchi	0x00001800
    313c:	0a9e0000 	beq	fe783144 <__bss_end__+0xfe778e24>
    3140:	070c0000 	streq	r0, [ip, -r0]
    3144:	01190000 	tsteq	r9, r0
    3148:	b8030550 	stmdalt	r3, {r4, r6, r8, sl}
    314c:	1900009c 	stmdbne	r0, {r2, r3, r4, r7}
    3150:	03055101 	movweq	r5, #20737	; 0x5101
    3154:	00009b94 	muleq	r0, r4, fp
    3158:	05520119 	ldrbeq	r0, [r2, #-281]	; 0xfffffee7
    315c:	009cf003 	addseq	pc, ip, r3
    3160:	53011900 	movwpl	r1, #6400	; 0x1900
    3164:	00e20802 	rsceq	r0, r2, r2, lsl #16
    3168:	008f041a 	addeq	r0, pc, sl, lsl r4	; <UNPREDICTABLE>
    316c:	000ac200 	andeq	ip, sl, r0, lsl #4
    3170:	08000000 	stmdaeq	r0, {}	; <UNPREDICTABLE>
    3174:	0000b904 	andeq	fp, r0, r4, lsl #18
    3178:	00c01c00 	sbceq	r1, r0, r0, lsl #24
    317c:	072d0000 	streq	r0, [sp, -r0]!
    3180:	2c1d0000 	ldccs	0, cr0, [sp], {-0}
    3184:	09000000 	stmdbeq	r0, {}	; <UNPREDICTABLE>
    3188:	071d0900 	ldreq	r0, [sp, -r0, lsl #18]
    318c:	b91c0000 	ldmdblt	ip, {}	; <UNPREDICTABLE>
    3190:	42000000 	andmi	r0, r0, #0, 0
    3194:	1d000007 	stcne	0, cr0, [r0, #-28]	; 0xffffffe4
    3198:	0000002c 	andeq	r0, r0, ip, lsr #32
    319c:	e41e007f 	ldr	r0, [lr], #-127	; 0xffffff81
    31a0:	01000005 	tsteq	r0, r5
    31a4:	07170149 	ldreq	r0, [r7, -r9, asr #2]
    31a8:	88a40000 	stmiahi	r4!, {}	; <UNPREDICTABLE>
    31ac:	01b40000 			; <UNDEFINED> instruction: 0x01b40000
    31b0:	9c010000 	stcls	0, cr0, [r1], {-0}
    31b4:	000008ab 	andeq	r0, r0, fp, lsr #17
    31b8:	00062b1f 	andeq	r2, r6, pc, lsl fp
    31bc:	0f490100 	svceq	0x00490100
    31c0:	0000002c 	andeq	r0, r0, ip, lsr #32
    31c4:	00001656 	andeq	r1, r0, r6, asr r6
    31c8:	00001650 	andeq	r1, r0, r0, asr r6
    31cc:	7473640e 	ldrbtvc	r6, [r3], #-1038	; 0xfffffbf2
    31d0:	1b490100 	blne	12435d8 <__bss_end__+0x12392b8>
    31d4:	00000717 	andeq	r0, r0, r7, lsl r7
    31d8:	00001694 	muleq	r0, r4, r6
    31dc:	00001684 	andeq	r1, r0, r4, lsl #13
    31e0:	01006e0e 	tsteq	r0, lr, lsl #28
    31e4:	00252449 	eoreq	r2, r5, r9, asr #8
    31e8:	16f80000 	ldrbtne	r0, [r8], r0
    31ec:	16f40000 	ldrbtne	r0, [r4], r0
    31f0:	760e0000 	strvc	r0, [lr], -r0
    31f4:	01006c61 	tsteq	r0, r1, ror #24
    31f8:	00252b49 	eoreq	r2, r5, r9, asr #22
    31fc:	17220000 	strne	r0, [r2, -r0]!
    3200:	17160000 	ldrne	r0, [r6, -r0]
    3204:	761f0000 	ldrvc	r0, [pc], -r0
    3208:	01000005 	tsteq	r0, r5
    320c:	00253449 	eoreq	r3, r5, r9, asr #8
    3210:	17780000 	ldrbne	r0, [r8, -r0]!
    3214:	17720000 	ldrbne	r0, [r2, -r0]!
    3218:	300f0000 	andcc	r0, pc, r0
    321c:	01000006 	tsteq	r0, r6
    3220:	00253f49 	eoreq	r3, r5, r9, asr #30
    3224:	91020000 	mrsls	r0, (UNDEF: 2)
    3228:	75621404 	strbvc	r1, [r2, #-1028]!	; 0xfffffbfc
    322c:	4e010066 	cdpmi	0, 0, cr0, cr1, cr6, {3}
    3230:	0008ab07 	andeq	sl, r8, r7, lsl #22
    3234:	a8910300 	ldmge	r1, {r8, r9}
    3238:	0070107f 	rsbseq	r1, r0, pc, ror r0
    323c:	17114e01 	ldrne	r4, [r1, -r1, lsl #28]
    3240:	c2000007 	andgt	r0, r0, #7, 0
    3244:	a2000017 	andge	r0, r0, #23, 0
    3248:	10000017 	andne	r0, r0, r7, lsl r0
    324c:	4f010075 	svcmi	0x00010075
    3250:	00002c0b 	andeq	r2, r0, fp, lsl #24
    3254:	0018a800 	andseq	sl, r8, r0, lsl #16
    3258:	00189400 	andseq	r9, r8, r0, lsl #8
    325c:	00e41200 	rsceq	r1, r4, r0, lsl #4
    3260:	08cb0000 	stmiaeq	fp, {}^	; <UNPREDICTABLE>
    3264:	03050000 	movweq	r0, #20480	; 0x5000
    3268:	00009cd8 	ldrdeq	r9, [r0], -r8
    326c:	00891016 	addeq	r1, r9, r6, lsl r0
    3270:	00007800 	andeq	r7, r0, r0, lsl #16
    3274:	00083200 	andeq	r3, r8, r0, lsl #4
    3278:	05cc1100 	strbeq	r1, [ip, #256]	; 0x100
    327c:	54010000 	strpl	r0, [r1], #-0
    3280:	00002c0d 	andeq	r2, r0, sp, lsl #24
    3284:	00192900 	andseq	r2, r9, r0, lsl #18
    3288:	00192100 	andseq	r2, r9, r0, lsl #2
    328c:	c8180000 	ldmdagt	r8, {}	; <UNPREDICTABLE>
    3290:	5d000089 	stcpl	0, cr0, [r0, #-548]	; 0xfffffddc
    3294:	47000009 	strmi	r0, [r0, -r9]
    3298:	19000008 	stmdbne	r0, {r3}
    329c:	91035101 	tstls	r3, r1, lsl #2
    32a0:	18007fa0 	stmdane	r0, {r5, r7, r8, r9, sl, fp, ip, sp, lr}
    32a4:	000089dc 	ldrdeq	r8, [r0], -ip
    32a8:	000008d0 	ldrdeq	r0, [r0], -r0	; <UNPREDICTABLE>
    32ac:	00000868 	andeq	r0, r0, r8, ror #16
    32b0:	02500119 	subseq	r0, r0, #1073741830	; 0x40000006
    32b4:	01190075 	tsteq	r9, r5, ror r0
    32b8:	00740251 	rsbseq	r0, r4, r1, asr r2
    32bc:	03530119 	cmpeq	r3, #1073741830	; 0x40000006
    32c0:	007fa091 			; <UNDEFINED> instruction: 0x007fa091
    32c4:	008a3418 	addeq	r3, sl, r8, lsl r4
    32c8:	000a9e00 	andeq	r9, sl, r0, lsl #28
    32cc:	0008a100 	andeq	sl, r8, r0, lsl #2
    32d0:	50011900 	andpl	r1, r1, r0, lsl #18
    32d4:	99e80305 	stmibls	r8!, {r0, r2, r8, r9}^
    32d8:	01190000 	tsteq	r9, r0
    32dc:	94030551 	strls	r0, [r3], #-1361	; 0xfffffaaf
    32e0:	1900009b 	stmdbne	r0, {r0, r1, r3, r4, r7}
    32e4:	03055201 	movweq	r5, #20993	; 0x5201
    32e8:	00009cd8 	ldrdeq	r9, [r0], -r8
    32ec:	02530119 	subseq	r0, r3, #1073741830	; 0x40000006
    32f0:	02197908 	andseq	r7, r9, #8, 18	; 0x20000
    32f4:	0305007d 	movweq	r0, #20605	; 0x507d
    32f8:	00009ba8 	andeq	r9, r0, r8, lsr #23
    32fc:	8a381a00 	bhi	e09b04 <__bss_end__+0xdff7e4>
    3300:	0ac20000 	beq	ff083308 <__bss_end__+0xff078fe8>
    3304:	1c000000 	stcne	0, cr0, [r0], {-0}
    3308:	000000b9 	strheq	r0, [r0], -r9
    330c:	000008bb 			; <UNDEFINED> instruction: 0x000008bb
    3310:	00002c1d 	andeq	r2, r0, sp, lsl ip
    3314:	1c003f00 	stcne	15, cr3, [r0], {-0}
    3318:	000000c0 	andeq	r0, r0, r0, asr #1
    331c:	000008cb 	andeq	r0, r0, fp, asr #17
    3320:	00002c1d 	andeq	r2, r0, sp, lsl ip
    3324:	09000400 	stmdbeq	r0, {sl}
    3328:	000008bb 			; <UNDEFINED> instruction: 0x000008bb
    332c:	0005f11e 	andeq	pc, r5, lr, lsl r1	; <UNPREDICTABLE>
    3330:	0e380100 	rsfeqe	f0, f0, f0
    3334:	00000717 	andeq	r0, r0, r7, lsl r7
    3338:	0000886c 	andeq	r8, r0, ip, ror #16
    333c:	00000038 	andeq	r0, r0, r8, lsr r0
    3340:	095d9c01 	ldmdbeq	sp, {r0, sl, fp, ip, pc}^
    3344:	640e0000 	strvs	r0, [lr], #-0
    3348:	01007473 	tsteq	r0, r3, ror r4
    334c:	07171c38 			; <UNDEFINED> instruction: 0x07171c38
    3350:	196a0000 	stmdbne	sl!, {}^	; <UNPREDICTABLE>
    3354:	19600000 	stmdbne	r0!, {}^	; <UNPREDICTABLE>
    3358:	6e0e0000 	cdpvs	0, 0, cr0, cr14, cr0, {0}
    335c:	25380100 	ldrcs	r0, [r8, #-256]!	; 0xffffff00
    3360:	00000025 	andeq	r0, r0, r5, lsr #32
    3364:	000019b1 			; <UNDEFINED> instruction: 0x000019b1
    3368:	000019ad 	andeq	r1, r0, sp, lsr #19
    336c:	0100700e 	tsteq	r0, lr
    3370:	07172e38 			; <UNDEFINED> instruction: 0x07172e38
    3374:	19da0000 	ldmibne	sl, {}^	; <UNPREDICTABLE>
    3378:	19d20000 	ldmibne	r2, {}^	; <UNPREDICTABLE>
    337c:	4f1f0000 	svcmi	0x001f0000
    3380:	0100000a 	tsteq	r0, sl
    3384:	07173738 			; <UNDEFINED> instruction: 0x07173738
    3388:	1a140000 	bne	503390 <__bss_end__+0x4f9070>
    338c:	1a100000 	bne	403394 <__bss_end__+0x3f9074>
    3390:	6c100000 	ldcvs	0, cr0, [r0], {-0}
    3394:	01006e65 	tsteq	r0, r5, ror #28
    3398:	0025063a 	eoreq	r0, r5, sl, lsr r6
    339c:	1a3a0000 	bne	e833a4 <__bss_end__+0xe79084>
    33a0:	1a320000 	bne	c833a8 <__bss_end__+0xc79088>
    33a4:	73100000 	tstvc	r0, #0, 0
    33a8:	083e0100 	ldmdaeq	lr!, {r8}
    33ac:	00000717 	andeq	r0, r0, r7, lsl r7
    33b0:	00001a88 	andeq	r1, r0, r8, lsl #21
    33b4:	00001a86 	andeq	r1, r0, r6, lsl #21
    33b8:	61702000 	cmnvs	r0, r0
    33bc:	2e010064 	cdpcs	0, 0, cr0, cr1, cr4, {3}
    33c0:	0007170e 	andeq	r1, r7, lr, lsl #14
    33c4:	00884800 	addeq	r4, r8, r0, lsl #16
    33c8:	00002400 	andeq	r2, r0, r0, lsl #8
    33cc:	c09c0100 	addsgt	r0, ip, r0, lsl #2
    33d0:	0e000009 	cdpeq	0, 0, cr0, cr0, cr9, {0}
    33d4:	2e010070 	mcrcs	0, 0, r0, cr1, cr0, {3}
    33d8:	00071718 	andeq	r1, r7, r8, lsl r7
    33dc:	001aa100 	andseq	sl, sl, r0, lsl #2
    33e0:	001a9b00 	andseq	r9, sl, r0, lsl #22
    33e4:	062b1f00 	strteq	r1, [fp], -r0, lsl #30
    33e8:	2e010000 	cdpcs	0, 0, cr0, cr1, cr0, {0}
    33ec:	00071722 	andeq	r1, r7, r2, lsr #14
    33f0:	001ad000 	andseq	sp, sl, r0
    33f4:	001acc00 	andseq	ip, sl, r0, lsl #24
    33f8:	05760f00 	ldrbeq	r0, [r6, #-3840]!	; 0xfffff100
    33fc:	2e010000 	cdpcs	0, 0, cr0, cr1, cr0, {0}
    3400:	0000252c 	andeq	r2, r0, ip, lsr #10
    3404:	10520100 	subsne	r0, r2, r0, lsl #2
    3408:	006e656c 	rsbeq	r6, lr, ip, ror #10
    340c:	25062f01 	strcs	r2, [r6, #-3841]	; 0xfffff0ff
    3410:	f3000000 	vhadd.u8	d0, d0, d0
    3414:	f100001a 	cps	#26
    3418:	0000001a 	andeq	r0, r0, sl, lsl r0
    341c:	0005351e 	andeq	r3, r5, lr, lsl r5
    3420:	0c270100 	stfeqs	f0, [r7], #-0
    3424:	00000025 	andeq	r0, r0, r5, lsr #32
    3428:	00008834 	andeq	r8, r0, r4, lsr r8
    342c:	00000014 	andeq	r0, r0, r4, lsl r0
    3430:	09ed9c01 	stmibeq	sp!, {r0, sl, fp, ip, pc}^
    3434:	630e0000 	movwvs	r0, #57344	; 0xe000
    3438:	18270100 	stmdane	r7!, {r8}
    343c:	00000025 	andeq	r0, r0, r5, lsr #32
    3440:	00001b0c 	andeq	r1, r0, ip, lsl #22
    3444:	00001b06 	andeq	r1, r0, r6, lsl #22
    3448:	05ac2100 	streq	r2, [ip, #256]!	; 0x100
    344c:	1f010000 	svcne	0x00010000
    3450:	008a5806 	addeq	r5, sl, r6, lsl #16
    3454:	00006400 	andeq	r6, r0, r0, lsl #8
    3458:	7d9c0100 	ldfvcs	f0, [ip]
    345c:	1f00000a 	svcne	0x0000000a
    3460:	00000589 	andeq	r0, r0, r9, lsl #11
    3464:	9e1b1f01 	cdpls	15, 1, cr1, cr11, cr1, {0}
    3468:	3e000000 	cdpcc	0, 0, cr0, cr0, cr0, {0}
    346c:	3a00001b 	bcc	34e0 <__code_start__-0x4b20>
    3470:	1f00001b 	svcne	0x0000001b
    3474:	000005e9 	andeq	r0, r0, r9, ror #11
    3478:	d1301f01 	teqle	r0, r1, lsl #30
    347c:	63000000 	movwvs	r0, #0
    3480:	5f00001b 	svcpl	0x0000001b
    3484:	1200001b 	andne	r0, r0, #27, 0
    3488:	000000e4 	andeq	r0, r0, r4, ror #1
    348c:	00000a8d 	andeq	r0, r0, sp, lsl #21
    3490:	9ce00305 	stclls	3, cr0, [r0], #20
    3494:	a0180000 	andsge	r0, r8, r0
    3498:	9e00008a 	cdpls	0, 0, cr0, cr0, cr10, {4}
    349c:	7300000a 	movwvc	r0, #10
    34a0:	1900000a 	stmdbne	r0, {r1, r3}
    34a4:	03055001 	movweq	r5, #20481	; 0x5001
    34a8:	000099e8 	andeq	r9, r0, r8, ror #19
    34ac:	05510119 	ldrbeq	r0, [r1, #-281]	; 0xfffffee7
    34b0:	009b9403 	addseq	r9, fp, r3, lsl #8
    34b4:	52011900 	andpl	r1, r1, #0, 18
    34b8:	9ce00305 	stclls	3, cr0, [r0], #20
    34bc:	01190000 	tsteq	r9, r0
    34c0:	20080253 	andcs	r0, r8, r3, asr r2
    34c4:	007d0219 	rsbseq	r0, sp, r9, lsl r2
    34c8:	9bd00305 	blls	ff4040e4 <__bss_end__+0xff3f9dc4>
    34cc:	1a000000 	bne	34d4 <__code_start__-0x4b2c>
    34d0:	00008aa4 	andeq	r8, r0, r4, lsr #21
    34d4:	00000ac2 	andeq	r0, r0, r2, asr #21
    34d8:	00c01c00 	sbceq	r1, r0, r0, lsl #24
    34dc:	0a8d0000 	beq	fe3434e4 <__bss_end__+0xfe3391c4>
    34e0:	2c1d0000 	ldccs	0, cr0, [sp], {-0}
    34e4:	0e000000 	cdpeq	0, 0, cr0, cr0, cr0, {0}
    34e8:	0a7d0900 	beq	1f458f0 <__bss_end__+0x1f3b5d0>
    34ec:	23220000 			; <UNDEFINED> instruction: 0x23220000
    34f0:	23000006 	movwcs	r0, #6
    34f4:	03000006 	movweq	r0, #6
    34f8:	ab2205f0 	blge	884cc0 <__bss_end__+0x87a9a0>
    34fc:	ab000004 	blge	3514 <__code_start__-0x4aec>
    3500:	03000004 	movweq	r0, #4
    3504:	00220628 	eoreq	r0, r2, r8, lsr #12
    3508:	00000006 	andeq	r0, r0, r6
    350c:	03000006 	movweq	r0, #6
    3510:	c52205ef 	strgt	r0, [r2, #-1519]!	; 0xfffffa11
    3514:	c5000005 	strgt	r0, [r0, #-5]
    3518:	03000005 	movweq	r0, #5
    351c:	432207f2 			; <UNDEFINED> instruction: 0x432207f2
    3520:	43000000 	movwmi	r0, #0
    3524:	03000000 	movweq	r0, #0
    3528:	f922066e 			; <UNDEFINED> instruction: 0xf922066e
    352c:	f9000005 			; <UNDEFINED> instruction: 0xf9000005
    3530:	03000005 	movweq	r0, #5
    3534:	0a0007f3 	beq	5508 <__code_start__-0x2af8>
    3538:	04000001 	streq	r0, [r0], #-1
    353c:	000af000 	andeq	pc, sl, r0
    3540:	7b010400 	blvc	44548 <__bss_end__+0x3a228>
    3544:	0c000003 	stceq	0, cr0, [r0], {3}
    3548:	00000647 	andeq	r0, r0, r7, asr #12
    354c:	0000044c 	andeq	r0, r0, ip, asr #8
    3550:	00000090 	muleq	r0, r0, r0
    3554:	00000000 	andeq	r0, r0, r0
    3558:	00002139 	andeq	r2, r0, r9, lsr r1
    355c:	69050402 	stmdbvs	r5, {r1, sl}
    3560:	0300746e 	movweq	r7, #1134	; 0x46e
    3564:	014d0704 	cmpeq	sp, r4, lsl #14
    3568:	01030000 	mrseq	r0, (UNDEF: 3)
    356c:	00012306 	andeq	r2, r1, r6, lsl #6
    3570:	05020300 	streq	r0, [r2, #-768]	; 0xfffffd00
    3574:	00000018 	andeq	r0, r0, r8, lsl r0
    3578:	ce050403 	cdpgt	4, 0, cr0, cr5, cr3, {0}
    357c:	03000000 	movweq	r0, #0
    3580:	00c90508 	sbceq	r0, r9, r8, lsl #10
    3584:	01030000 	mrseq	r0, (UNDEF: 3)
    3588:	00012108 	andeq	r2, r1, r8, lsl #2
    358c:	07020300 	streq	r0, [r2, -r0, lsl #6]
    3590:	00000172 	andeq	r0, r0, r2, ror r1
    3594:	48070403 	stmdami	r7, {r0, r1, sl}
    3598:	03000001 	movweq	r0, #1
    359c:	01430708 	cmpeq	r3, r8, lsl #14
    35a0:	25040000 	strcs	r0, [r4, #-0]
    35a4:	7a000000 	bvc	35ac <__code_start__-0x4a54>
    35a8:	05000000 	streq	r0, [r0, #-0]
    35ac:	00000025 	andeq	r0, r0, r5, lsr #32
    35b0:	00270600 	eoreq	r0, r7, r0, lsl #12
    35b4:	1c020000 	stcne	0, cr0, [r2], {-0}
    35b8:	0000860e 	andeq	r8, r0, lr, lsl #12
    35bc:	6b040700 	blvs	1051c4 <__bss_end__+0xfaea4>
    35c0:	04000000 	streq	r0, [r0], #-0
    35c4:	00000025 	andeq	r0, r0, r5, lsr #32
    35c8:	0000009b 	muleq	r0, fp, r0
    35cc:	00009b05 	andeq	r9, r0, r5, lsl #22
    35d0:	04070000 	streq	r0, [r7], #-0
    35d4:	000000a8 	andeq	r0, r0, r8, lsr #1
    35d8:	2a080103 	bcs	2039ec <__bss_end__+0x1f96cc>
    35dc:	08000001 	stmdaeq	r0, {r0}
    35e0:	000000a1 	andeq	r0, r0, r1, lsr #1
    35e4:	00052206 	andeq	r2, r5, r6, lsl #4
    35e8:	0e210200 	cdpeq	2, 2, cr0, cr1, cr0, {0}
    35ec:	000000b9 	strheq	r0, [r0], -r9
    35f0:	008c0407 	addeq	r0, ip, r7, lsl #8
    35f4:	39090000 	stmdbcc	r9, {}	; <UNPREDICTABLE>
    35f8:	01000006 	tsteq	r0, r6
    35fc:	8f84060c 	svchi	0x0084060c
    3600:	00100000 	andseq	r0, r0, r0
    3604:	9c010000 	stcls	0, cr0, [r1], {-0}
    3608:	000000e8 	andeq	r0, r0, r8, ror #1
    360c:	0100720a 	tsteq	r0, sl, lsl #4
    3610:	002c0e0d 	eoreq	r0, ip, sp, lsl #28
    3614:	1b8a0000 	blne	fe28361c <__bss_end__+0xfe2792fc>
    3618:	1b840000 	blne	fe103620 <__bss_end__+0xfe0f9300>
    361c:	0b000000 	bleq	3624 <__code_start__-0x49dc>
    3620:	00000100 	andeq	r0, r0, r0, lsl #2
    3624:	74060301 	strvc	r0, [r6], #-769	; 0xfffffcff
    3628:	1000008f 	andne	r0, r0, pc, lsl #1
    362c:	01000000 	mrseq	r0, (UNDEF: 0)
    3630:	00720a9c 			; <UNDEFINED> instruction: 0x00720a9c
    3634:	2c0e0401 	cfstrscs	mvf0, [lr], {1}
    3638:	bf000000 	svclt	0x00000000
    363c:	b900001b 	stmdblt	r0, {r0, r1, r3, r4}
    3640:	0000001b 	andeq	r0, r0, fp, lsl r0
    3644:	00012f00 	andeq	r2, r1, r0, lsl #30
    3648:	99000400 	stmdbls	r0, {sl}
    364c:	0400000b 	streq	r0, [r0], #-11
    3650:	00037b01 	andeq	r7, r3, r1, lsl #22
    3654:	06660c00 	strbteq	r0, [r6], -r0, lsl #24
    3658:	044c0000 	strbeq	r0, [ip], #-0
    365c:	8f940000 	svchi	0x00940000
    3660:	002c0000 	eoreq	r0, ip, r0
    3664:	22000000 	andcs	r0, r0, #0, 0
    3668:	04020000 	streq	r0, [r2], #-0
    366c:	746e6905 	strbtvc	r6, [lr], #-2309	; 0xfffff6fb
    3670:	07040300 	streq	r0, [r4, -r0, lsl #6]
    3674:	0000014d 	andeq	r0, r0, sp, asr #2
    3678:	23060103 	movwcs	r0, #24835	; 0x6103
    367c:	03000001 	movweq	r0, #1
    3680:	00180502 	andseq	r0, r8, r2, lsl #10
    3684:	04030000 	streq	r0, [r3], #-0
    3688:	0000ce05 	andeq	ip, r0, r5, lsl #28
    368c:	05080300 	streq	r0, [r8, #-768]	; 0xfffffd00
    3690:	000000c9 	andeq	r0, r0, r9, asr #1
    3694:	21080103 	tstcs	r8, r3, lsl #2
    3698:	03000001 	movweq	r0, #1
    369c:	01720702 	cmneq	r2, r2, lsl #14
    36a0:	04030000 	streq	r0, [r3], #-0
    36a4:	00014807 	andeq	r4, r1, r7, lsl #16
    36a8:	07080300 	streq	r0, [r8, -r0, lsl #6]
    36ac:	00000143 	andeq	r0, r0, r3, asr #2
    36b0:	00002504 	andeq	r2, r0, r4, lsl #10
    36b4:	00007a00 	andeq	r7, r0, r0, lsl #20
    36b8:	00250500 	eoreq	r0, r5, r0, lsl #10
    36bc:	06000000 	streq	r0, [r0], -r0
    36c0:	00000027 	andeq	r0, r0, r7, lsr #32
    36c4:	860e1c02 	strhi	r1, [lr], -r2, lsl #24
    36c8:	07000000 	streq	r0, [r0, -r0]
    36cc:	00006b04 	andeq	r6, r0, r4, lsl #22
    36d0:	00250400 	eoreq	r0, r5, r0, lsl #8
    36d4:	009b0000 	addseq	r0, fp, r0
    36d8:	9b050000 	blls	1436e0 <__bss_end__+0x1393c0>
    36dc:	00000000 	andeq	r0, r0, r0
    36e0:	00a80407 	adceq	r0, r8, r7, lsl #8
    36e4:	01030000 	mrseq	r0, (UNDEF: 3)
    36e8:	00012a08 	andeq	r2, r1, r8, lsl #20
    36ec:	00a10800 	adceq	r0, r1, r0, lsl #16
    36f0:	22060000 	andcs	r0, r6, #0, 0
    36f4:	02000005 	andeq	r0, r0, #5, 0
    36f8:	00b90e21 	adcseq	r0, r9, r1, lsr #28
    36fc:	04070000 	streq	r0, [r7], #-0
    3700:	0000008c 	andeq	r0, r0, ip, lsl #1
    3704:	00004309 	andeq	r4, r0, r9, lsl #6
    3708:	06040100 	streq	r0, [r4], -r0, lsl #2
    370c:	00008f94 	muleq	r0, r4, pc	; <UNPREDICTABLE>
    3710:	0000002c 	andeq	r0, r0, ip, lsr #32
    3714:	010e9c01 	tsteq	lr, r1, lsl #24
    3718:	a80a0000 	stmdage	sl, {}	; <UNPREDICTABLE>
    371c:	e800008f 	stmda	r0, {r0, r1, r2, r3, r7}
    3720:	0b000000 	bleq	3728 <__code_start__-0x48d8>
    3724:	03055001 	movweq	r5, #20481	; 0x5001
    3728:	00009cfc 	strdeq	r9, [r0], -ip
    372c:	8fac0c00 	svchi	0x00ac0c00
    3730:	010e0000 	mrseq	r0, (UNDEF: 14)
    3734:	b40d0000 	strlt	r0, [sp], #-0
    3738:	1a00008f 	bne	397c <__code_start__-0x4684>
    373c:	04000001 	streq	r0, [r0], #-1
    3740:	0b000001 	bleq	374c <__code_start__-0x48b4>
    3744:	3a015001 	bcc	57750 <__bss_end__+0x4d430>
    3748:	8fb80c00 	svchi	0x00b80c00
    374c:	01260000 			; <UNDEFINED> instruction: 0x01260000
    3750:	0e000000 	cdpeq	0, 0, cr0, cr0, cr0, {0}
    3754:	00000681 	andeq	r0, r0, r1, lsl #13
    3758:	00000681 	andeq	r0, r0, r1, lsl #13
    375c:	0e064d02 	cdpeq	13, 0, cr4, cr6, cr2, {0}
    3760:	000001bb 			; <UNDEFINED> instruction: 0x000001bb
    3764:	000001bb 			; <UNDEFINED> instruction: 0x000001bb
    3768:	0e065802 	cdpeq	8, 0, cr5, cr6, cr2, {0}
    376c:	0000065b 	andeq	r0, r0, fp, asr r6
    3770:	0000065b 	andeq	r0, r0, fp, asr r6
    3774:	00066b02 	andeq	r6, r6, r2, lsl #22
    3778:	00000189 	andeq	r0, r0, r9, lsl #3
    377c:	0c590004 	mrrceq	0, 0, r0, r9, cr4
    3780:	01040000 	mrseq	r0, (UNDEF: 4)
    3784:	0000037b 	andeq	r0, r0, fp, ror r3
    3788:	0006b70c 	andeq	fp, r6, ip, lsl #14
    378c:	00044c00 	andeq	r4, r4, r0, lsl #24
    3790:	008fc000 	addeq	ip, pc, r0
    3794:	00003c00 	andeq	r3, r0, r0, lsl #24
    3798:	0022a800 	eoreq	sl, r2, r0, lsl #16
    379c:	05040200 	streq	r0, [r4, #-512]	; 0xfffffe00
    37a0:	00746e69 	rsbseq	r6, r4, r9, ror #28
    37a4:	4d070403 	cfstrsmi	mvf0, [r7, #-12]
    37a8:	03000001 	movweq	r0, #1
    37ac:	01230601 			; <UNDEFINED> instruction: 0x01230601
    37b0:	02030000 	andeq	r0, r3, #0, 0
    37b4:	00001805 	andeq	r1, r0, r5, lsl #16
    37b8:	05040300 	streq	r0, [r4, #-768]	; 0xfffffd00
    37bc:	000000ce 	andeq	r0, r0, lr, asr #1
    37c0:	c9050803 	stmdbgt	r5, {r0, r1, fp}
    37c4:	03000000 	movweq	r0, #0
    37c8:	01210801 			; <UNDEFINED> instruction: 0x01210801
    37cc:	02030000 	andeq	r0, r3, #0, 0
    37d0:	00017207 	andeq	r7, r1, r7, lsl #4
    37d4:	07040300 	streq	r0, [r4, -r0, lsl #6]
    37d8:	00000148 	andeq	r0, r0, r8, asr #2
    37dc:	43070803 	movwmi	r0, #30723	; 0x7803
    37e0:	04000001 	streq	r0, [r0], #-1
    37e4:	00000025 	andeq	r0, r0, r5, lsr #32
    37e8:	0000007a 	andeq	r0, r0, sl, ror r0
    37ec:	00002505 	andeq	r2, r0, r5, lsl #10
    37f0:	27060000 	strcs	r0, [r6, -r0]
    37f4:	02000000 	andeq	r0, r0, #0, 0
    37f8:	00860e1c 	addeq	r0, r6, ip, lsl lr
    37fc:	04070000 	streq	r0, [r7], #-0
    3800:	0000006b 	andeq	r0, r0, fp, rrx
    3804:	00002504 	andeq	r2, r0, r4, lsl #10
    3808:	00009b00 	andeq	r9, r0, r0, lsl #22
    380c:	009b0500 	addseq	r0, fp, r0, lsl #10
    3810:	07000000 	streq	r0, [r0, -r0]
    3814:	0000a804 	andeq	sl, r0, r4, lsl #16
    3818:	08010300 	stmdaeq	r1, {r8, r9}
    381c:	0000012a 	andeq	r0, r0, sl, lsr #2
    3820:	0000a108 	andeq	sl, r0, r8, lsl #2
    3824:	05220600 	streq	r0, [r2, #-1536]!	; 0xfffffa00
    3828:	21020000 	mrscs	r0, (UNDEF: 2)
    382c:	0000b90e 	andeq	fp, r0, lr, lsl #18
    3830:	8c040700 	stchi	7, cr0, [r4], {-0}
    3834:	09000000 	stmdbeq	r0, {}	; <UNPREDICTABLE>
    3838:	0000068f 	andeq	r0, r0, pc, lsl #13
    383c:	c0060401 	andgt	r0, r6, r1, lsl #8
    3840:	3c00008f 	stccc	0, cr0, [r0], {143}	; 0x8f
    3844:	01000000 	mrseq	r0, (UNDEF: 0)
    3848:	0001549c 	muleq	r1, ip, r4
    384c:	05680600 	strbeq	r0, [r8, #-1536]!	; 0xfffffa00
    3850:	05010000 	streq	r0, [r1, #-0]
    3854:	00002510 	andeq	r2, r0, r0, lsl r5
    3858:	05910600 	ldreq	r0, [r1, #1536]	; 0x600
    385c:	05010000 	streq	r0, [r1, #-0]
    3860:	0000251f 	andeq	r2, r0, pc, lsl r5
    3864:	016a0a00 	cmneq	sl, r0, lsl #20
    3868:	06010000 	streq	r0, [r1], -r0
    386c:	73620b07 	cmnvc	r2, #7168	; 0x1c00
    3870:	0a010073 	beq	43a44 <__bss_end__+0x39724>
    3874:	0001540a 	andeq	r5, r1, sl, lsl #8
    3878:	001bf400 	andseq	pc, fp, r0, lsl #8
    387c:	001bee00 	andseq	lr, fp, r0, lsl #28
    3880:	06970c00 	ldreq	r0, [r7], r0, lsl #24
    3884:	0b010000 	bleq	4388c <__bss_end__+0x3956c>
    3888:	0001540a 	andeq	r5, r1, sl, lsl #8
    388c:	8fe40d00 	svchi	0x00e40d00
    3890:	00080000 	andeq	r0, r8, r0
    3894:	012f0000 			; <UNDEFINED> instruction: 0x012f0000
    3898:	690e0000 	stmdbvs	lr, {}	; <UNPREDICTABLE>
    389c:	1401006e 	strne	r0, [r1], #-110	; 0xffffff92
    38a0:	00002c05 	andeq	r2, r0, r5, lsl #24
    38a4:	0f000100 	svceq	0x00000100
    38a8:	00008fc8 	andeq	r8, r0, r8, asr #31
    38ac:	0000015a 	andeq	r0, r0, sl, asr r1
    38b0:	008fe40f 	addeq	lr, pc, pc, lsl #8
    38b4:	00016700 	andeq	r6, r1, r0, lsl #14
    38b8:	8ff00f00 	svchi	0x00f00f00
    38bc:	01730000 	cmneq	r3, r0
    38c0:	f40f0000 	vst4.8	{d0-d3}, [pc], r0
    38c4:	8000008f 	andhi	r0, r0, pc, lsl #1
    38c8:	00000001 	andeq	r0, r0, r1
    38cc:	00250407 	eoreq	r0, r5, r7, lsl #8
    38d0:	a9100000 	ldmdbge	r0, {}	; <UNPREDICTABLE>
    38d4:	a9000006 	stmdbge	r0, {r1, r2}
    38d8:	02000006 	andeq	r0, r0, #6, 0
    38dc:	11060136 	tstne	r6, r6, lsr r1
    38e0:	0000069f 	muleq	r0, pc, r6	; <UNPREDICTABLE>
    38e4:	0000069f 	muleq	r0, pc, r6	; <UNPREDICTABLE>
    38e8:	10063b02 	andne	r3, r6, r2, lsl #22
    38ec:	0000016a 	andeq	r0, r0, sl, ror #2
    38f0:	0000016a 	andeq	r0, r0, sl, ror #2
    38f4:	06010a02 	streq	r0, [r1], -r2, lsl #20
    38f8:	00004311 	andeq	r4, r0, r1, lsl r3
    38fc:	00004300 	andeq	r4, r0, r0, lsl #6
    3900:	066e0200 	strbteq	r0, [lr], -r0, lsl #4
    3904:	0000ce00 	andeq	ip, r0, r0, lsl #28
    3908:	55000400 	strpl	r0, [r0, #-1024]	; 0xfffffc00
    390c:	0400000d 	streq	r0, [r0], #-13
    3910:	00037b01 	andeq	r7, r3, r1, lsl #22
    3914:	06cc0c00 	strbeq	r0, [ip], r0, lsl #24
    3918:	044c0000 	strbeq	r0, [ip], #-0
    391c:	8ffc0000 	svchi	0x00fc0000
    3920:	00040000 	andeq	r0, r4, r0
    3924:	236a0000 	cmncs	sl, #0, 0
    3928:	04020000 	streq	r0, [r2], #-0
    392c:	746e6905 	strbtvc	r6, [lr], #-2309	; 0xfffff6fb
    3930:	07040300 	streq	r0, [r4, -r0, lsl #6]
    3934:	0000014d 	andeq	r0, r0, sp, asr #2
    3938:	23060103 	movwcs	r0, #24835	; 0x6103
    393c:	03000001 	movweq	r0, #1
    3940:	00180502 	andseq	r0, r8, r2, lsl #10
    3944:	04030000 	streq	r0, [r3], #-0
    3948:	0000ce05 	andeq	ip, r0, r5, lsl #28
    394c:	05080300 	streq	r0, [r8, #-768]	; 0xfffffd00
    3950:	000000c9 	andeq	r0, r0, r9, asr #1
    3954:	21080103 	tstcs	r8, r3, lsl #2
    3958:	03000001 	movweq	r0, #1
    395c:	01720702 	cmneq	r2, r2, lsl #14
    3960:	04030000 	streq	r0, [r3], #-0
    3964:	00014807 	andeq	r4, r1, r7, lsl #16
    3968:	07080300 	streq	r0, [r8, -r0, lsl #6]
    396c:	00000143 	andeq	r0, r0, r3, asr #2
    3970:	00002504 	andeq	r2, r0, r4, lsl #10
    3974:	00007a00 	andeq	r7, r0, r0, lsl #20
    3978:	00250500 	eoreq	r0, r5, r0, lsl #10
    397c:	06000000 	streq	r0, [r0], -r0
    3980:	00000027 	andeq	r0, r0, r7, lsr #32
    3984:	860e1c02 	strhi	r1, [lr], -r2, lsl #24
    3988:	07000000 	streq	r0, [r0, -r0]
    398c:	00006b04 	andeq	r6, r0, r4, lsl #22
    3990:	00250400 	eoreq	r0, r5, r0, lsl #8
    3994:	009b0000 	addseq	r0, fp, r0
    3998:	9b050000 	blls	1439a0 <__bss_end__+0x139680>
    399c:	00000000 	andeq	r0, r0, r0
    39a0:	00a80407 	adceq	r0, r8, r7, lsl #8
    39a4:	01030000 	mrseq	r0, (UNDEF: 3)
    39a8:	00012a08 	andeq	r2, r1, r8, lsl #20
    39ac:	00a10800 	adceq	r0, r1, r0, lsl #16
    39b0:	22060000 	andcs	r0, r6, #0, 0
    39b4:	02000005 	andeq	r0, r0, #5, 0
    39b8:	00b90e21 	adcseq	r0, r9, r1, lsr #28
    39bc:	04070000 	streq	r0, [r7], #-0
    39c0:	0000008c 	andeq	r0, r0, ip, lsl #1
    39c4:	0006a909 	andeq	sl, r6, r9, lsl #18
    39c8:	06040100 	streq	r0, [r4], -r0, lsl #2
    39cc:	00008ffc 	strdeq	r8, [r0], -ip
    39d0:	00000004 	andeq	r0, r0, r4
    39d4:	36009c01 	strcc	r9, [r0], -r1, lsl #24
    39d8:	04000002 	streq	r0, [r0], #-2
    39dc:	000dce00 	andeq	ip, sp, r0, lsl #28
    39e0:	7b010400 	blvc	449e8 <__bss_end__+0x3a6c8>
    39e4:	0c000003 	stceq	0, cr0, [r0], {3}
    39e8:	00000714 	andeq	r0, r0, r4, lsl r7
    39ec:	0000044c 	andeq	r0, r0, ip, asr #8
    39f0:	000000a0 	andeq	r0, r0, r0, lsr #1
    39f4:	00000000 	andeq	r0, r0, r0
    39f8:	00002410 	andeq	r2, r0, r0, lsl r4
    39fc:	69050402 	stmdbvs	r5, {r1, sl}
    3a00:	0300746e 	movweq	r7, #1134	; 0x46e
    3a04:	00000025 	andeq	r0, r0, r5, lsr #32
    3a08:	4d070404 	cfstrsmi	mvf0, [r7, #-16]
    3a0c:	04000001 	streq	r0, [r0], #-1
    3a10:	01230601 			; <UNDEFINED> instruction: 0x01230601
    3a14:	02040000 	andeq	r0, r4, #0, 0
    3a18:	00001805 	andeq	r1, r0, r5, lsl #16
    3a1c:	05040400 	streq	r0, [r4, #-1024]	; 0xfffffc00
    3a20:	000000ce 	andeq	r0, r0, lr, asr #1
    3a24:	c9050804 	stmdbgt	r5, {r2, fp}
    3a28:	04000000 	streq	r0, [r0], #-0
    3a2c:	01210801 			; <UNDEFINED> instruction: 0x01210801
    3a30:	02040000 	andeq	r0, r4, #0, 0
    3a34:	00017207 	andeq	r7, r1, r7, lsl #4
    3a38:	07040400 	streq	r0, [r4, -r0, lsl #8]
    3a3c:	00000148 	andeq	r0, r0, r8, asr #2
    3a40:	43070804 	movwmi	r0, #30724	; 0x7804
    3a44:	05000001 	streq	r0, [r0, #-1]
    3a48:	00000025 	andeq	r0, r0, r5, lsr #32
    3a4c:	0000007f 	andeq	r0, r0, pc, ror r0
    3a50:	00002506 	andeq	r2, r0, r6, lsl #10
    3a54:	27070000 	strcs	r0, [r7, -r0]
    3a58:	02000000 	andeq	r0, r0, #0, 0
    3a5c:	008b0e1c 	addeq	r0, fp, ip, lsl lr
    3a60:	04080000 	streq	r0, [r8], #-0
    3a64:	00000070 	andeq	r0, r0, r0, ror r0
    3a68:	00002505 	andeq	r2, r0, r5, lsl #10
    3a6c:	0000a000 	andeq	sl, r0, r0
    3a70:	00a00600 	adceq	r0, r0, r0, lsl #12
    3a74:	08000000 	stmdaeq	r0, {}	; <UNPREDICTABLE>
    3a78:	0000ad04 	andeq	sl, r0, r4, lsl #26
    3a7c:	08010400 	stmdaeq	r1, {sl}
    3a80:	0000012a 	andeq	r0, r0, sl, lsr #2
    3a84:	0000a603 	andeq	sl, r0, r3, lsl #12
    3a88:	05220700 	streq	r0, [r2, #-1792]!	; 0xfffff900
    3a8c:	21020000 	mrscs	r0, (UNDEF: 2)
    3a90:	0000be0e 	andeq	fp, r0, lr, lsl #28
    3a94:	91040800 	tstls	r4, r0, lsl #16
    3a98:	09000000 	stmdbeq	r0, {}	; <UNPREDICTABLE>
    3a9c:	00000738 	andeq	r0, r0, r8, lsr r7
    3aa0:	31110d01 	tstcc	r1, r1, lsl #26
    3aa4:	0a000000 	beq	3aac <__code_start__-0x4554>
    3aa8:	0000065b 	andeq	r0, r0, fp, asr r6
    3aac:	44061f01 	strmi	r1, [r6], #-3841	; 0xfffff0ff
    3ab0:	54000090 	strpl	r0, [r0], #-144	; 0xffffff70
    3ab4:	01000000 	mrseq	r0, (UNDEF: 0)
    3ab8:	0001ae9c 	muleq	r1, ip, lr
    3abc:	075c0b00 	ldrbeq	r0, [ip, -r0, lsl #22]
    3ac0:	2c010000 	stccs	0, cr0, [r1], {-0}
    3ac4:	00002c0f 	andeq	r2, r0, pc, lsl #24
    3ac8:	001c2100 	andseq	r2, ip, r0, lsl #2
    3acc:	001c1f00 	andseq	r1, ip, r0, lsl #30
    3ad0:	06f70b00 	ldrbteq	r0, [r7], r0, lsl #22
    3ad4:	2d010000 	stccs	0, cr0, [r1, #-0]
    3ad8:	00002c0f 	andeq	r2, r0, pc, lsl #24
    3adc:	001c3b00 	andseq	r3, ip, r0, lsl #22
    3ae0:	001c3900 	andseq	r3, ip, r0, lsl #18
    3ae4:	07290b00 	streq	r0, [r9, -r0, lsl #22]!
    3ae8:	2e010000 	cdpcs	0, 0, cr0, cr1, cr0, {0}
    3aec:	00002c0f 	andeq	r2, r0, pc, lsl #24
    3af0:	001c5500 	andseq	r5, ip, r0, lsl #10
    3af4:	001c5300 	andseq	r5, ip, r0, lsl #6
    3af8:	07430b00 	strbeq	r0, [r3, -r0, lsl #22]
    3afc:	2f010000 	svccs	0x00010000
    3b00:	00002c0f 	andeq	r2, r0, pc, lsl #24
    3b04:	001c6e00 	andseq	r6, ip, r0, lsl #28
    3b08:	001c6c00 	andseq	r6, ip, r0, lsl #24
    3b0c:	904c0c00 	subls	r0, ip, r0, lsl #24
    3b10:	01d90000 	bicseq	r0, r9, r0
    3b14:	580c0000 	stmdapl	ip, {}	; <UNPREDICTABLE>
    3b18:	08000090 	stmdaeq	r0, {r4, r7}
    3b1c:	0c000002 	stceq	0, cr0, [r0], {2}
    3b20:	0000905c 	andeq	r9, r0, ip, asr r0
    3b24:	00000215 	andeq	r0, r0, r5, lsl r2
    3b28:	0090640d 	addseq	r6, r0, sp, lsl #8
    3b2c:	00022100 	andeq	r2, r2, r0, lsl #2
    3b30:	00016400 	andeq	r6, r1, r0, lsl #8
    3b34:	50010e00 	andpl	r0, r1, r0, lsl #28
    3b38:	0d003a01 	vstreq	s6, [r0, #-4]
    3b3c:	00009070 	andeq	r9, r0, r0, ror r0
    3b40:	0000022d 	andeq	r0, r0, sp, lsr #4
    3b44:	00000184 	andeq	r0, r0, r4, lsl #3
    3b48:	0550010e 	ldrbeq	r0, [r0, #-270]	; 0xfffffef2
    3b4c:	1000240c 	andne	r2, r0, ip, lsl #8
    3b50:	51010e20 	tstpl	r1, r0, lsr #28
    3b54:	00010c05 	andeq	r0, r1, r5, lsl #24
    3b58:	0d005a00 	vstreq	s10, [r0, #-0]
    3b5c:	0000907c 	andeq	r9, r0, ip, ror r0
    3b60:	0000022d 	andeq	r0, r0, sp, lsr #4
    3b64:	000001a4 	andeq	r0, r0, r4, lsr #3
    3b68:	0550010e 	ldrbeq	r0, [r0, #-270]	; 0xfffffef2
    3b6c:	10001c0c 	andne	r1, r0, ip, lsl #24
    3b70:	51010e20 	tstpl	r1, r0, lsr #28
    3b74:	00200c05 	eoreq	r0, r0, r5, lsl #24
    3b78:	0c005a00 			; <UNDEFINED> instruction: 0x0c005a00
    3b7c:	00009084 	andeq	r9, r0, r4, lsl #1
    3b80:	000001ae 	andeq	r0, r0, lr, lsr #3
    3b84:	07050f00 	streq	r0, [r5, -r0, lsl #30]
    3b88:	17010000 	strne	r0, [r1, -r0]
    3b8c:	00903006 	addseq	r3, r0, r6
    3b90:	00001400 	andeq	r1, r0, r0, lsl #8
    3b94:	d99c0100 	ldmible	ip, {r8}
    3b98:	0b000001 	bleq	3ba4 <__code_start__-0x445c>
    3b9c:	00000764 	andeq	r0, r0, r4, ror #14
    3ba0:	310e1801 	tstcc	lr, r1, lsl #16
    3ba4:	89000000 	stmdbhi	r0, {}	; <UNPREDICTABLE>
    3ba8:	8300001c 	movwhi	r0, #28
    3bac:	0000001c 	andeq	r0, r0, ip, lsl r0
    3bb0:	00073510 	andeq	r3, r7, r0, lsl r5
    3bb4:	050e0100 	streq	r0, [lr, #-256]	; 0xffffff00
    3bb8:	00000025 	andeq	r0, r0, r5, lsr #32
    3bbc:	00009018 	andeq	r9, r0, r8, lsl r0
    3bc0:	00000018 	andeq	r0, r0, r8, lsl r0
    3bc4:	02089c01 	andeq	r9, r8, #256	; 0x100
    3bc8:	640b0000 	strvs	r0, [fp], #-0
    3bcc:	01000007 	tsteq	r0, r7
    3bd0:	00310e0f 	eorseq	r0, r1, pc, lsl #28
    3bd4:	1cb70000 	ldcne	0, cr0, [r7]
    3bd8:	1cb30000 	ldcne	0, cr0, [r3]
    3bdc:	11000000 	mrsne	r0, (UNDEF: 0)
    3be0:	000006e8 	andeq	r0, r0, r8, ror #13
    3be4:	000006e8 	andeq	r0, r0, r8, ror #13
    3be8:	06013b02 	streq	r3, [r1], -r2, lsl #22
    3bec:	00068112 	andeq	r8, r6, r2, lsl r1
    3bf0:	00068100 	andeq	r8, r6, r0, lsl #2
    3bf4:	064d0200 	strbeq	r0, [sp], -r0, lsl #4
    3bf8:	0001bb12 	andeq	fp, r1, r2, lsl fp
    3bfc:	0001bb00 	andeq	fp, r1, r0, lsl #22
    3c00:	06580200 	ldrbeq	r0, [r8], -r0, lsl #4
    3c04:	0006ff12 	andeq	pc, r6, r2, lsl pc	; <UNPREDICTABLE>
    3c08:	0006ff00 	andeq	pc, r6, r0, lsl #30
    3c0c:	06b20200 	ldrteq	r0, [r2], r0, lsl #4
    3c10:	00024d00 	andeq	r4, r2, r0, lsl #26
    3c14:	f3000400 	vshl.u8	d0, d0, d0
    3c18:	0400000e 	streq	r0, [r0], #-14
    3c1c:	00037b01 	andeq	r7, r3, r1, lsl #22
    3c20:	07730c00 	ldrbeq	r0, [r3, -r0, lsl #24]!
    3c24:	044c0000 	strbeq	r0, [ip], #-0
    3c28:	90980000 	addsls	r0, r8, r0
    3c2c:	00840000 	addeq	r0, r4, r0
    3c30:	25060000 	strcs	r0, [r6, #-0]
    3c34:	04020000 	streq	r0, [r2], #-0
    3c38:	746e6905 	strbtvc	r6, [lr], #-2309	; 0xfffff6fb
    3c3c:	07040300 	streq	r0, [r4, -r0, lsl #6]
    3c40:	0000014d 	andeq	r0, r0, sp, asr #2
    3c44:	23060103 	movwcs	r0, #24835	; 0x6103
    3c48:	03000001 	movweq	r0, #1
    3c4c:	00180502 	andseq	r0, r8, r2, lsl #10
    3c50:	04030000 	streq	r0, [r3], #-0
    3c54:	0000ce05 	andeq	ip, r0, r5, lsl #28
    3c58:	05080300 	streq	r0, [r8, #-768]	; 0xfffffd00
    3c5c:	000000c9 	andeq	r0, r0, r9, asr #1
    3c60:	21080103 	tstcs	r8, r3, lsl #2
    3c64:	03000001 	movweq	r0, #1
    3c68:	01720702 	cmneq	r2, r2, lsl #14
    3c6c:	04030000 	streq	r0, [r3], #-0
    3c70:	00014807 	andeq	r4, r1, r7, lsl #16
    3c74:	07080300 	streq	r0, [r8, -r0, lsl #6]
    3c78:	00000143 	andeq	r0, r0, r3, asr #2
    3c7c:	00002504 	andeq	r2, r0, r4, lsl #10
    3c80:	00007a00 	andeq	r7, r0, r0, lsl #20
    3c84:	00250500 	eoreq	r0, r5, r0, lsl #10
    3c88:	06000000 	streq	r0, [r0], -r0
    3c8c:	00000027 	andeq	r0, r0, r7, lsr #32
    3c90:	860e1c02 	strhi	r1, [lr], -r2, lsl #24
    3c94:	07000000 	streq	r0, [r0, -r0]
    3c98:	00006b04 	andeq	r6, r0, r4, lsl #22
    3c9c:	00250400 	eoreq	r0, r5, r0, lsl #8
    3ca0:	009b0000 	addseq	r0, fp, r0
    3ca4:	9b050000 	blls	143cac <__bss_end__+0x13998c>
    3ca8:	00000000 	andeq	r0, r0, r0
    3cac:	00a80407 	adceq	r0, r8, r7, lsl #8
    3cb0:	01030000 	mrseq	r0, (UNDEF: 3)
    3cb4:	00012a08 	andeq	r2, r1, r8, lsl #20
    3cb8:	00a10800 	adceq	r0, r1, r0, lsl #16
    3cbc:	22060000 	andcs	r0, r6, #0, 0
    3cc0:	02000005 	andeq	r0, r0, #5, 0
    3cc4:	00b90e21 	adcseq	r0, r9, r1, lsr #28
    3cc8:	04070000 	streq	r0, [r7], #-0
    3ccc:	0000008c 	andeq	r0, r0, ip, lsl #1
    3cd0:	00076909 	andeq	r6, r7, r9, lsl #18
    3cd4:	061e0100 	ldreq	r0, [lr], -r0, lsl #2
    3cd8:	00009104 	andeq	r9, r0, r4, lsl #2
    3cdc:	00000018 	andeq	r0, r0, r8, lsl r0
    3ce0:	01099c01 	tsteq	r9, r1, lsl #24
    3ce4:	730a0000 	movwvc	r0, #40960	; 0xa000
    3ce8:	01006365 	tsteq	r0, r5, ror #6
    3cec:	002c191e 	eoreq	r1, ip, lr, lsl r9
    3cf0:	1cda0000 	ldclne	0, cr0, [sl], {0}
    3cf4:	1cd60000 	ldclne	0, cr0, [r6], {0}
    3cf8:	180b0000 	stmdane	fp, {}	; <UNPREDICTABLE>
    3cfc:	09000091 	stmdbeq	r0, {r0, r4, r7}
    3d00:	0c000001 	stceq	0, cr0, [r0], {1}
    3d04:	f3115001 	vhadd.u16	d5, d1, d1
    3d08:	24355001 	ldrtcs	r5, [r5], #-1
    3d0c:	1c5001f3 	ldfnee	f0, [r0], {243}	; 0xf3
    3d10:	01f32432 	mvnseq	r2, r2, lsr r4
    3d14:	24332250 	ldrtcs	r2, [r3], #-592	; 0xfffffdb0
    3d18:	bb090000 	bllt	243d20 <__bss_end__+0x239a00>
    3d1c:	01000001 	tsteq	r0, r1
    3d20:	90ec061b 	rscls	r0, ip, fp, lsl r6
    3d24:	00180000 	andseq	r0, r8, r0
    3d28:	9c010000 	stcls	0, cr0, [r1], {-0}
    3d2c:	00000152 	andeq	r0, r0, r2, asr r1
    3d30:	00736d0a 	rsbseq	r6, r3, sl, lsl #26
    3d34:	2c181b01 			; <UNDEFINED> instruction: 0x2c181b01
    3d38:	ff000000 			; <UNDEFINED> instruction: 0xff000000
    3d3c:	fb00001c 	blx	3db6 <__code_start__-0x424a>
    3d40:	0b00001c 	bleq	3db8 <__code_start__-0x4248>
    3d44:	00009100 	andeq	r9, r0, r0, lsl #2
    3d48:	00000152 	andeq	r0, r0, r2, asr r1
    3d4c:	1150010c 	cmpne	r0, ip, lsl #2
    3d50:	355001f3 	ldrbcc	r0, [r0, #-499]	; 0xfffffe0d
    3d54:	5001f324 	andpl	pc, r1, r4, lsr #6
    3d58:	f324321c 	vqsub.u32	d3, d4, d12
    3d5c:	33225001 			; <UNDEFINED> instruction: 0x33225001
    3d60:	09000024 	stmdbeq	r0, {r2, r5}
    3d64:	0000079c 	muleq	r0, ip, r7
    3d68:	c8061201 	stmdagt	r6, {r0, r9, ip}
    3d6c:	24000090 	strcs	r0, [r0], #-144	; 0xffffff70
    3d70:	01000000 	mrseq	r0, (UNDEF: 0)
    3d74:	0001c29c 	muleq	r1, ip, r2
    3d78:	73750a00 	cmnvc	r5, #0, 20
    3d7c:	18120100 	ldmdane	r2, {r8}
    3d80:	0000002c 	andeq	r0, r0, ip, lsr #32
    3d84:	00001d24 	andeq	r1, r0, r4, lsr #26
    3d88:	00001d20 	andeq	r1, r0, r0, lsr #26
    3d8c:	0062720d 	rsbeq	r7, r2, sp, lsl #4
    3d90:	2c0e1301 	stccs	3, cr1, [lr], {1}
    3d94:	44000000 	strmi	r0, [r0], #-0
    3d98:	4200001d 	andmi	r0, r0, #29, 0
    3d9c:	0e00001d 	mcreq	0, 0, r0, cr0, cr13, {0}
    3da0:	000090d8 	ldrdeq	r9, [r0], -r8
    3da4:	00000014 	andeq	r0, r0, r4, lsl r0
    3da8:	000001b8 			; <UNDEFINED> instruction: 0x000001b8
    3dac:	0061720d 	rsbeq	r7, r1, sp, lsl #4
    3db0:	2c121501 	cfldr32cs	mvfx1, [r2], {1}
    3db4:	59000000 	stmdbpl	r0, {}	; <UNPREDICTABLE>
    3db8:	5700001d 	smladpl	r0, sp, r0, r0
    3dbc:	0f00001d 	svceq	0x0000001d
    3dc0:	000090dc 	ldrdeq	r9, [r0], -ip
    3dc4:	000001c2 	andeq	r0, r0, r2, asr #3
    3dc8:	90d40f00 	sbcsls	r0, r4, r0, lsl #30
    3dcc:	01c20000 	biceq	r0, r2, r0
    3dd0:	10000000 	andne	r0, r0, r0
    3dd4:	0000078d 	andeq	r0, r0, sp, lsl #15
    3dd8:	2c0a0901 			; <UNDEFINED> instruction: 0x2c0a0901
    3ddc:	ac000000 	stcge	0, cr0, [r0], {-0}
    3de0:	1c000090 	stcne	0, cr0, [r0], {144}	; 0x90
    3de4:	01000000 	mrseq	r0, (UNDEF: 0)
    3de8:	00020a9c 	muleq	r2, ip, sl
    3dec:	00750d00 	rsbseq	r0, r5, r0, lsl #26
    3df0:	2c0e0d01 	stccs	13, cr0, [lr], {1}
    3df4:	70000000 	andvc	r0, r0, r0
    3df8:	6c00001d 	stcvs	0, cr0, [r0], {29}
    3dfc:	0f00001d 	svceq	0x0000001d
    3e00:	000090b4 	strheq	r9, [r0], -r4
    3e04:	00000238 	andeq	r0, r0, r8, lsr r2
    3e08:	0090b80f 	addseq	fp, r0, pc, lsl #16
    3e0c:	00020a00 	andeq	r0, r2, r0, lsl #20
    3e10:	90c00f00 	sbcls	r0, r0, r0, lsl #30
    3e14:	02380000 	eorseq	r0, r8, #0, 0
    3e18:	10000000 	andne	r0, r0, r0
    3e1c:	000007a5 	andeq	r0, r0, r5, lsr #15
    3e20:	2c0a0401 	cfstrscs	mvf0, [sl], {1}
    3e24:	98000000 	stmdals	r0, {}	; <UNPREDICTABLE>
    3e28:	14000090 	strne	r0, [r0], #-144	; 0xffffff70
    3e2c:	01000000 	mrseq	r0, (UNDEF: 0)
    3e30:	0002389c 	muleq	r2, ip, r8
    3e34:	90a40b00 	adcls	r0, r4, r0, lsl #22
    3e38:	02440000 	subeq	r0, r4, #0, 0
    3e3c:	010c0000 	mrseq	r0, (UNDEF: 12)
    3e40:	040c0550 	streq	r0, [ip], #-1360	; 0xfffffab0
    3e44:	00200030 	eoreq	r0, r0, r0, lsr r0
    3e48:	01a71100 			; <UNDEFINED> instruction: 0x01a71100
    3e4c:	01a70000 			; <UNDEFINED> instruction: 0x01a70000
    3e50:	a1020000 	mrsge	r0, (UNDEF: 2)
    3e54:	07871106 	streq	r1, [r7, r6, lsl #2]
    3e58:	07870000 	streq	r0, [r7, r0]
    3e5c:	c7020000 	strgt	r0, [r2, -r0]
    3e60:	03a5000a 			; <UNDEFINED> instruction: 0x03a5000a
    3e64:	00040000 	andeq	r0, r4, r0
    3e68:	00000ff4 	strdeq	r0, [r0], -r4
    3e6c:	08a90104 	stmiaeq	r9!, {r2, r8}
    3e70:	5a0c0000 	bpl	303e78 <__bss_end__+0x2f9b58>
    3e74:	56000009 	strpl	r0, [r0], -r9
    3e78:	1c000008 	stcne	0, cr0, [r0], {8}
    3e7c:	1c000091 	stcne	0, cr0, [r0], {145}	; 0x91
    3e80:	03000001 	movweq	r0, #1
    3e84:	02000026 	andeq	r0, r0, #38, 0	; 0x26
    3e88:	6e690504 	cdpvs	5, 6, cr0, cr9, cr4, {0}
    3e8c:	04030074 	streq	r0, [r3], #-116	; 0xffffff8c
    3e90:	00014d07 	andeq	r4, r1, r7, lsl #26
    3e94:	002c0400 	eoreq	r0, ip, r0, lsl #8
    3e98:	01030000 	mrseq	r0, (UNDEF: 3)
    3e9c:	00012306 	andeq	r2, r1, r6, lsl #6
    3ea0:	05020300 	streq	r0, [r2, #-768]	; 0xfffffd00
    3ea4:	00000018 	andeq	r0, r0, r8, lsl r0
    3ea8:	ce050403 	cdpgt	4, 0, cr0, cr5, cr3, {0}
    3eac:	03000000 	movweq	r0, #0
    3eb0:	00c90508 	sbceq	r0, r9, r8, lsl #10
    3eb4:	01030000 	mrseq	r0, (UNDEF: 3)
    3eb8:	00012108 	andeq	r2, r1, r8, lsl #2
    3ebc:	07020300 	streq	r0, [r2, -r0, lsl #6]
    3ec0:	00000172 	andeq	r0, r0, r2, ror r1
    3ec4:	00037205 	andeq	r7, r3, r5, lsl #4
    3ec8:	19340300 	ldmdbne	r4!, {r8, r9}
    3ecc:	0000006e 	andeq	r0, r0, lr, rrx
    3ed0:	48070403 	stmdami	r7, {r0, r1, sl}
    3ed4:	03000001 	movweq	r0, #1
    3ed8:	01430708 	cmpeq	r3, r8, lsl #14
    3edc:	01030000 	mrseq	r0, (UNDEF: 3)
    3ee0:	00012a08 	andeq	r2, r1, r8, lsl #20
    3ee4:	01070600 	tsteq	r7, r0, lsl #12
    3ee8:	00000054 	andeq	r0, r0, r4, asr r0
    3eec:	c20e0c04 	andgt	r0, lr, #4, 24	; 0x400
    3ef0:	07000000 	streq	r0, [r0, -r0]
    3ef4:	00000961 	andeq	r0, r0, r1, ror #18
    3ef8:	07d70700 	ldrbeq	r0, [r7, r0, lsl #14]
    3efc:	07010000 	streq	r0, [r1, -r0]
    3f00:	000007fc 	strdeq	r0, [r0], -ip
    3f04:	080b0704 	stmdaeq	fp, {r2, r8, r9, sl}
    3f08:	07050000 	streq	r0, [r5, -r0]
    3f0c:	0000081a 	andeq	r0, r0, sl, lsl r8
    3f10:	08290706 	stmdaeq	r9!, {r1, r2, r8, r9, sl}
    3f14:	07070000 	streq	r0, [r7, -r0]
    3f18:	00000946 	andeq	r0, r0, r6, asr #18
    3f1c:	08380703 	ldmdaeq	r8!, {r0, r1, r8, r9, sl}
    3f20:	00020000 	andeq	r0, r2, r0
    3f24:	00089d05 	andeq	r9, r8, r5, lsl #26
    3f28:	03150400 	tsteq	r5, #0, 8
    3f2c:	00000083 	andeq	r0, r0, r3, lsl #1
    3f30:	0007c208 	andeq	ip, r7, r8, lsl #4
    3f34:	171d0100 	ldrne	r0, [sp, -r0, lsl #2]
    3f38:	00000033 	andeq	r0, r0, r3, lsr r0
    3f3c:	2020001c 	eorcs	r0, r0, ip, lsl r0
    3f40:	0007b808 	andeq	fp, r7, r8, lsl #16
    3f44:	171e0100 	ldrne	r0, [lr, -r0, lsl #2]
    3f48:	00000033 	andeq	r0, r0, r3, lsr r0
    3f4c:	20200028 	eorcs	r0, r0, r8, lsr #32
    3f50:	00093c08 	andeq	r3, r9, r8, lsl #24
    3f54:	171f0100 	ldrne	r0, [pc, -r0, lsl #2]
    3f58:	00000033 	andeq	r0, r0, r3, lsr r0
    3f5c:	20200034 	eorcs	r0, r0, r4, lsr r0
    3f60:	0007f209 	andeq	pc, r7, r9, lsl #4
    3f64:	05550100 	ldrbeq	r0, [r5, #-256]	; 0xffffff00
    3f68:	00000025 	andeq	r0, r0, r5, lsr #32
    3f6c:	00009204 	andeq	r9, r0, r4, lsl #4
    3f70:	00000034 	andeq	r0, r0, r4, lsr r0
    3f74:	016e9c01 	cmneq	lr, r1, lsl #24
    3f78:	700a0000 	andvc	r0, sl, r0
    3f7c:	01006e69 	tsteq	r0, r9, ror #28
    3f80:	002c1855 	eoreq	r1, ip, r5, asr r8
    3f84:	1d960000 	ldcne	0, cr0, [r6]
    3f88:	1d8e0000 	stcne	0, cr0, [lr]
    3f8c:	550b0000 	strpl	r0, [fp, #-0]
    3f90:	01000009 	tsteq	r0, r9
    3f94:	002c0e58 	eoreq	r0, ip, r8, asr lr
    3f98:	1dd60000 	ldclne	0, cr0, [r6]
    3f9c:	1dd00000 	ldclne	0, cr0, [r0]
    3fa0:	6f0c0000 	svcvs	0x000c0000
    3fa4:	01006666 	tsteq	r0, r6, ror #12
    3fa8:	002c0e59 	eoreq	r0, ip, r9, asr lr
    3fac:	1e160000 	cdpne	0, 1, cr0, cr6, cr0, {0}
    3fb0:	1e140000 	cdpne	0, 1, cr0, cr4, cr0, {0}
    3fb4:	200d0000 	andcs	r0, sp, r0
    3fb8:	90000092 	mulls	r0, r2, r0
    3fbc:	0e000003 	cdpeq	0, 0, cr0, cr0, cr3, {0}
    3fc0:	f30b5001 	vhadd.u8	d5, d11, d1
    3fc4:	25355001 	ldrcs	r5, [r5, #-1]!
    3fc8:	8080b423 	addhi	fp, r0, r3, lsr #8
    3fcc:	00000281 	andeq	r0, r0, r1, lsl #5
    3fd0:	0007cc0f 	andeq	ip, r7, pc, lsl #24
    3fd4:	064e0100 	strbeq	r0, [lr], -r0, lsl #2
    3fd8:	000091e8 	andeq	r9, r0, r8, ror #3
    3fdc:	0000001c 	andeq	r0, r0, ip, lsl r0
    3fe0:	01c99c01 	biceq	r9, r9, r1, lsl #24
    3fe4:	700a0000 	andvc	r0, sl, r0
    3fe8:	01006e69 	tsteq	r0, r9, ror #28
    3fec:	002c1a4e 	eoreq	r1, ip, lr, asr #20
    3ff0:	1e310000 	cdpne	0, 3, cr0, cr1, cr0, {0}
    3ff4:	1e290000 	cdpne	0, 2, cr0, cr9, cr0, {0}
    3ff8:	760a0000 	strvc	r0, [sl], -r0
    3ffc:	284e0100 	stmdacs	lr, {r8}^
    4000:	0000002c 	andeq	r0, r0, ip, lsr #32
    4004:	00001e73 	andeq	r1, r0, r3, ror lr
    4008:	00001e6b 	andeq	r1, r0, fp, ror #28
    400c:	0091f810 	addseq	pc, r1, r0, lsl r8	; <UNPREDICTABLE>
    4010:	00025100 	andeq	r5, r2, r0, lsl #2
    4014:	0001bf00 	andeq	fp, r1, r0, lsl #30
    4018:	50010e00 	andpl	r0, r1, r0, lsl #28
    401c:	5001f303 	andpl	pc, r1, r3, lsl #6
    4020:	92001100 	andls	r1, r0, #0
    4024:	020a0000 	andeq	r0, sl, #0, 0
    4028:	0f000000 	svceq	0x00000000
    402c:	00000847 	andeq	r0, r0, r7, asr #16
    4030:	d8064901 	stmdale	r6, {r0, r8, fp, lr}
    4034:	10000091 	mulne	r0, r1, r0
    4038:	01000000 	mrseq	r0, (UNDEF: 0)
    403c:	00020a9c 	muleq	r2, ip, sl
    4040:	69700a00 	ldmdbvs	r0!, {r9, fp}^
    4044:	4901006e 	stmdbmi	r1, {r1, r2, r3, r5, r6}
    4048:	00002c1e 	andeq	r2, r0, lr, lsl ip
    404c:	001eb100 	andseq	fp, lr, r0, lsl #2
    4050:	001ead00 	andseq	sl, lr, r0, lsl #26
    4054:	91e40d00 	mvnls	r0, r0, lsl #26
    4058:	02d90000 	sbcseq	r0, r9, #0, 0
    405c:	010e0000 	mrseq	r0, (UNDEF: 14)
    4060:	01f30350 	mvnseq	r0, r0, asr r3
    4064:	51010e50 	tstpl	r1, r0, asr lr
    4068:	00003001 	andeq	r3, r0, r1
    406c:	00088b0f 	andeq	r8, r8, pc, lsl #22
    4070:	06420100 	strbeq	r0, [r2], -r0, lsl #2
    4074:	000091b4 			; <UNDEFINED> instruction: 0x000091b4
    4078:	00000024 	andeq	r0, r0, r4, lsr #32
    407c:	02519c01 	subseq	r9, r1, #256	; 0x100
    4080:	700a0000 	andvc	r0, sl, r0
    4084:	01006e69 	tsteq	r0, r9, ror #28
    4088:	002c1c42 	eoreq	r1, ip, r2, asr #24
    408c:	1ed60000 	cdpne	0, 13, cr0, cr6, cr0, {0}
    4090:	1ed20000 	cdpne	0, 13, cr0, cr2, cr0, {0}
    4094:	d00d0000 	andle	r0, sp, r0
    4098:	9c000091 	stcls	0, cr0, [r0], {145}	; 0x91
    409c:	0e000003 	cdpeq	0, 0, cr0, cr0, cr3, {0}
    40a0:	0c055001 	stceq	0, cr5, [r5], {1}
    40a4:	20200028 	eorcs	r0, r0, r8, lsr #32
    40a8:	0551010e 	ldrbeq	r0, [r1, #-270]	; 0xfffffef2
    40ac:	5001f331 	andpl	pc, r1, r1, lsr r3	; <UNPREDICTABLE>
    40b0:	0f000024 	svceq	0x00000024
    40b4:	00000983 	andeq	r0, r0, r3, lsl #19
    40b8:	90063b01 	andls	r3, r6, r1, lsl #22
    40bc:	24000091 	strcs	r0, [r0], #-145	; 0xffffff6f
    40c0:	01000000 	mrseq	r0, (UNDEF: 0)
    40c4:	0002989c 	muleq	r2, ip, r8
    40c8:	69700a00 	ldmdbvs	r0!, {r9, fp}^
    40cc:	3b01006e 	blcc	4428c <__bss_end__+0x39f6c>
    40d0:	00002c1b 	andeq	r2, r0, fp, lsl ip
    40d4:	001efb00 	andseq	pc, lr, r0, lsl #22
    40d8:	001ef700 	andseq	pc, lr, r0, lsl #14
    40dc:	91ac0d00 			; <UNDEFINED> instruction: 0x91ac0d00
    40e0:	039c0000 	orrseq	r0, ip, #0, 0
    40e4:	010e0000 	mrseq	r0, (UNDEF: 14)
    40e8:	1c0c0550 	cfstr32ne	mvfx0, [ip], {80}	; 0x50
    40ec:	0e202000 	cdpeq	0, 2, cr2, cr0, cr0, {0}
    40f0:	31055101 	tstcc	r5, r1, lsl #2
    40f4:	245001f3 	ldrbcs	r0, [r0], #-499	; 0xfffffe0d
    40f8:	330f0000 	movwcc	r0, #61440	; 0xf000
    40fc:	01000000 	mrseq	r0, (UNDEF: 0)
    4100:	91800636 	orrls	r0, r0, r6, lsr r6
    4104:	00100000 	andseq	r0, r0, r0
    4108:	9c010000 	stcls	0, cr0, [r1], {-0}
    410c:	000002d9 	ldrdeq	r0, [r0], -r9
    4110:	6e69700a 	cdpvs	0, 6, cr7, cr9, cr10, {0}
    4114:	1f360100 	svcne	0x00360100
    4118:	0000002c 	andeq	r0, r0, ip, lsr #32
    411c:	00001f20 	andeq	r1, r0, r0, lsr #30
    4120:	00001f1c 	andeq	r1, r0, ip, lsl pc
    4124:	00918c0d 	addseq	r8, r1, sp, lsl #24
    4128:	0002d900 	andeq	sp, r2, r0, lsl #18
    412c:	50010e00 	andpl	r0, r1, r0, lsl #28
    4130:	5001f303 	andpl	pc, r1, r3, lsl #6
    4134:	0151010e 	cmpeq	r1, lr, lsl #2
    4138:	0f000031 	svceq	0x00000031
    413c:	00000971 	andeq	r0, r0, r1, ror r9
    4140:	1c062801 	stcne	8, cr2, [r6], {1}
    4144:	64000091 	strvs	r0, [r0], #-145	; 0xffffff6f
    4148:	01000000 	mrseq	r0, (UNDEF: 0)
    414c:	0003749c 	muleq	r3, ip, r4
    4150:	69700a00 	ldmdbvs	r0!, {r9, fp}^
    4154:	2801006e 	stmdacs	r1, {r1, r2, r3, r5, r6}
    4158:	00002c21 	andeq	r2, r0, r1, lsr #24
    415c:	001f4500 	andseq	r4, pc, r0, lsl #10
    4160:	001f4100 	andseq	r4, pc, r0, lsl #2
    4164:	08981200 	ldmeq	r8, {r9, ip}
    4168:	28010000 	stmdacs	r1, {}	; <UNPREDICTABLE>
    416c:	0000c232 	andeq	ip, r0, r2, lsr r2
    4170:	001f6a00 	andseq	r6, pc, r0, lsl #20
    4174:	001f6600 	andseq	r6, pc, r0, lsl #12
    4178:	666f0c00 	strbtvs	r0, [pc], -r0, lsl #24
    417c:	2d010066 	stccs	0, cr0, [r1, #-408]	; 0xfffffe68
    4180:	00002c0e 	andeq	r2, r0, lr, lsl #24
    4184:	001f8d00 	andseq	r8, pc, r0, lsl #26
    4188:	001f8b00 	andseq	r8, pc, r0, lsl #22
    418c:	00670c00 	rsbeq	r0, r7, r0, lsl #24
    4190:	2c0e2e01 	stccs	14, cr2, [lr], {1}
    4194:	a2000000 	andge	r0, r0, #0, 0
    4198:	a000001f 	andge	r0, r0, pc, lsl r0
    419c:	0c00001f 	stceq	0, cr0, [r0], {31}
    41a0:	30010076 	andcc	r0, r1, r6, ror r0
    41a4:	00002c0e 	andeq	r2, r0, lr, lsl #24
    41a8:	001fbd00 	andseq	fp, pc, r0, lsl #26
    41ac:	001fb500 	andseq	fp, pc, r0, lsl #10
    41b0:	91641000 	cmnls	r4, r0
    41b4:	03900000 	orrseq	r0, r0, #0, 0
    41b8:	03630000 	cmneq	r3, #0, 0
    41bc:	010e0000 	mrseq	r0, (UNDEF: 14)
    41c0:	00760250 	rsbseq	r0, r6, r0, asr r2
    41c4:	91780d00 	cmnls	r8, r0, lsl #26
    41c8:	039c0000 	orrseq	r0, ip, #0, 0
    41cc:	010e0000 	mrseq	r0, (UNDEF: 14)
    41d0:	00760250 	rsbseq	r0, r6, r0, asr r2
    41d4:	e8130000 	ldmda	r3, {}	; <UNPREDICTABLE>
    41d8:	02000007 	andeq	r0, r0, #7, 0
    41dc:	006218b6 	strhteq	r1, [r2], #-134	; 0xffffff7a
    41e0:	90030000 	andls	r0, r3, r0
    41e4:	14000003 	strne	r0, [r0], #-3
    41e8:	b6020078 			; <UNDEFINED> instruction: 0xb6020078
    41ec:	0000622b 	andeq	r6, r0, fp, lsr #4
    41f0:	87150000 	ldrhi	r0, [r5, -r0]
    41f4:	87000007 	strhi	r0, [r0, -r7]
    41f8:	02000007 	andeq	r0, r0, #7, 0
    41fc:	ff150ac7 			; <UNDEFINED> instruction: 0xff150ac7
    4200:	ff000006 			; <UNDEFINED> instruction: 0xff000006
    4204:	02000006 	andeq	r0, r0, #6, 0
    4208:	cd0006b2 	stcgt	6, cr0, [r0, #-712]	; 0xfffffd38
    420c:	04000005 	streq	r0, [r0], #-5
    4210:	00115100 	andseq	r5, r1, r0, lsl #2
    4214:	a9010400 	stmdbge	r1, {sl}
    4218:	0c000008 	stceq	0, cr0, [r0], {8}
    421c:	000009bd 			; <UNDEFINED> instruction: 0x000009bd
    4220:	00000856 	andeq	r0, r0, r6, asr r8
    4224:	00009238 	andeq	r9, r0, r8, lsr r2
    4228:	000001f0 	strdeq	r0, [r0], -r0	; <UNPREDICTABLE>
    422c:	000027c2 	andeq	r2, r0, r2, asr #15
    4230:	69050402 	stmdbvs	r5, {r1, sl}
    4234:	0300746e 	movweq	r7, #1134	; 0x46e
    4238:	014d0704 	cmpeq	sp, r4, lsl #14
    423c:	2c040000 	stccs	0, cr0, [r4], {-0}
    4240:	03000000 	movweq	r0, #0
    4244:	01230601 			; <UNDEFINED> instruction: 0x01230601
    4248:	02030000 	andeq	r0, r3, #0, 0
    424c:	00001805 	andeq	r1, r0, r5, lsl #16
    4250:	05040300 	streq	r0, [r4, #-768]	; 0xfffffd00
    4254:	000000ce 	andeq	r0, r0, lr, asr #1
    4258:	c9050803 	stmdbgt	r5, {r0, r1, fp}
    425c:	03000000 	movweq	r0, #0
    4260:	01210801 			; <UNDEFINED> instruction: 0x01210801
    4264:	02030000 	andeq	r0, r3, #0, 0
    4268:	00017207 	andeq	r7, r1, r7, lsl #4
    426c:	03720500 	cmneq	r2, #0, 10
    4270:	34050000 	strcc	r0, [r5], #-0
    4274:	00006e19 	andeq	r6, r0, r9, lsl lr
    4278:	07040300 	streq	r0, [r4, -r0, lsl #6]
    427c:	00000148 	andeq	r0, r0, r8, asr #2
    4280:	43070803 	movwmi	r0, #30723	; 0x7803
    4284:	03000001 	movweq	r0, #1
    4288:	012a0801 			; <UNDEFINED> instruction: 0x012a0801
    428c:	07060000 	streq	r0, [r6, -r0]
    4290:	00005401 	andeq	r5, r0, r1, lsl #8
    4294:	0e0c0400 	cfcpyseq	mvf0, mvf12
    4298:	000000c2 	andeq	r0, r0, r2, asr #1
    429c:	00096107 	andeq	r6, r9, r7, lsl #2
    42a0:	d7070000 	strle	r0, [r7, -r0]
    42a4:	01000007 	tsteq	r0, r7
    42a8:	0007fc07 	andeq	pc, r7, r7, lsl #24
    42ac:	0b070400 	bleq	1c52b4 <__bss_end__+0x1baf94>
    42b0:	05000008 	streq	r0, [r0, #-8]
    42b4:	00081a07 	andeq	r1, r8, r7, lsl #20
    42b8:	29070600 	stmdbcs	r7, {r9, sl}
    42bc:	07000008 	streq	r0, [r0, -r8]
    42c0:	00094607 	andeq	r4, r9, r7, lsl #12
    42c4:	38070300 	stmdacc	r7, {r8, r9}
    42c8:	02000008 	andeq	r0, r0, #8, 0
    42cc:	09b10800 	ldmibeq	r1!, {fp}
    42d0:	022c0000 	eoreq	r0, ip, #0, 0
    42d4:	015e0806 	cmpeq	lr, r6, lsl #16
    42d8:	69090000 	stmdbvs	r9, {}	; <UNPREDICTABLE>
    42dc:	0902006f 	stmdbeq	r2, {r0, r1, r2, r3, r5, r6}
    42e0:	00003309 	andeq	r3, r0, r9, lsl #6
    42e4:	69090000 	stmdbvs	r9, {}	; <UNPREDICTABLE>
    42e8:	02007265 	andeq	r7, r0, #1342177286	; 0x50000006
    42ec:	0033090a 	eorseq	r0, r3, sl, lsl #18
    42f0:	09040000 	stmdbeq	r4, {}	; <UNPREDICTABLE>
    42f4:	00726969 	rsbseq	r6, r2, r9, ror #18
    42f8:	33091102 	movwcc	r1, #37122	; 0x9102
    42fc:	08000000 	stmdaeq	r0, {}	; <UNPREDICTABLE>
    4300:	72636c09 	rsbvc	r6, r3, #2304	; 0x900
    4304:	09130200 	ldmdbeq	r3, {r9}
    4308:	00000033 	andeq	r0, r0, r3, lsr r0
    430c:	636d090c 	cmnvs	sp, #12, 18	; 0x30000
    4310:	14020072 	strne	r0, [r2], #-114	; 0xffffff8e
    4314:	00003309 	andeq	r3, r0, r9, lsl #6
    4318:	6c091000 	stcvs	0, cr1, [r9], {-0}
    431c:	02007273 	andeq	r7, r0, #805306375	; 0x30000007
    4320:	00330915 	eorseq	r0, r3, r5, lsl r9
    4324:	09140000 	ldmdbeq	r4, {}	; <UNPREDICTABLE>
    4328:	0072736d 	rsbseq	r7, r2, sp, ror #6
    432c:	33091602 	movwcc	r1, #38402	; 0x9602
    4330:	18000000 	stmdane	r0, {}	; <UNPREDICTABLE>
    4334:	000a260a 	andeq	r2, sl, sl, lsl #12
    4338:	09170200 	ldmdbeq	r7, {r9}
    433c:	00000033 	andeq	r0, r0, r3, lsr r0
    4340:	09fe0a1c 	ldmibeq	lr!, {r2, r3, r4, r9, fp}^
    4344:	1b020000 	blne	8434c <__bss_end__+0x7a02c>
    4348:	00003309 	andeq	r3, r0, r9, lsl #6
    434c:	9e0a2000 	cdpls	0, 0, cr2, cr10, cr0, {0}
    4350:	02000009 	andeq	r0, r0, #9, 0
    4354:	0033091d 	eorseq	r0, r3, sp, lsl r9
    4358:	0a240000 	beq	904360 <__bss_end__+0x8fa040>
    435c:	000009e3 	andeq	r0, r0, r3, ror #19
    4360:	33091e02 	movwcc	r1, #40450	; 0x9e02
    4364:	28000000 	stmdacs	r0, {}	; <UNPREDICTABLE>
    4368:	09e80b00 	stmibeq	r8!, {r8, r9, fp}^
    436c:	08010000 	stmdaeq	r1, {}	; <UNPREDICTABLE>
    4370:	00017409 	andeq	r7, r1, r9, lsl #8
    4374:	21500400 	cmpcs	r0, r0, lsl #8
    4378:	33040c20 	movwcc	r0, #19488	; 0x4c20
    437c:	0d000000 	stceq	0, cr0, [r0, #-0]
    4380:	0000016e 	andeq	r0, r0, lr, ror #2
    4384:	000a2e0b 	andeq	r2, sl, fp, lsl #28
    4388:	23290100 			; <UNDEFINED> instruction: 0x23290100
    438c:	0000018f 	andeq	r0, r0, pc, lsl #3
    4390:	20215040 	eorcs	r5, r1, r0, asr #32
    4394:	00c2040c 	sbceq	r0, r2, ip, lsl #8
    4398:	890d0000 	stmdbhi	sp, {}	; <UNPREDICTABLE>
    439c:	0e000001 	cdpeq	0, 0, cr0, cr0, cr1, {0}
    43a0:	00000681 	andeq	r0, r0, r1, lsl #13
    43a4:	f006cc01 			; <UNDEFINED> instruction: 0xf006cc01
    43a8:	14000093 	strne	r0, [r0], #-147	; 0xffffff6d
    43ac:	01000000 	mrseq	r0, (UNDEF: 0)
    43b0:	0001b49c 	muleq	r1, ip, r4
    43b4:	93f80f00 	mvnsls	r0, #0, 30
    43b8:	01b40000 			; <UNDEFINED> instruction: 0x01b40000
    43bc:	10000000 	andne	r0, r0, r0
    43c0:	000009d2 	ldrdeq	r0, [r0], -r2
    43c4:	2505b601 	strcs	fp, [r5, #-1537]	; 0xfffff9ff
    43c8:	d0000000 	andle	r0, r0, r0
    43cc:	20000093 	mulcs	r0, r3, r0
    43d0:	01000000 	mrseq	r0, (UNDEF: 0)
    43d4:	0001eb9c 	muleq	r1, ip, fp
    43d8:	93d80f00 	bicsls	r0, r8, #0, 30
    43dc:	05a00000 	streq	r0, [r0, #0]!
    43e0:	e0110000 	ands	r0, r1, r0
    43e4:	ac000093 	stcge	0, cr0, [r0], {147}	; 0x93
    43e8:	12000005 	andne	r0, r0, #5, 0
    43ec:	0c055001 	stceq	0, cr5, [r5], {1}
    43f0:	20215064 	eorcs	r5, r1, r4, rrx
    43f4:	10100000 	andsne	r0, r0, r0
    43f8:	0100000a 	tsteq	r0, sl
    43fc:	002505b3 	strhteq	r0, [r5], -r3
    4400:	93c00000 	bicls	r0, r0, #0, 0
    4404:	00100000 	andseq	r0, r0, r0
    4408:	9c010000 	stcls	0, cr0, [r1], {-0}
    440c:	00000218 	andeq	r0, r0, r8, lsl r2
    4410:	0093c80f 	addseq	ip, r3, pc, lsl #16
    4414:	0005a000 	andeq	sl, r5, r0
    4418:	93cc0f00 	bicls	r0, ip, #0, 30
    441c:	03090000 	movweq	r0, #36864	; 0x9000
    4420:	0e000000 	cdpeq	0, 0, cr0, cr0, cr0, {0}
    4424:	0000050f 	andeq	r0, r0, pc, lsl #10
    4428:	9006ab01 	andls	sl, r6, r1, lsl #22
    442c:	30000093 	mulcc	r0, r3, r0
    4430:	01000000 	mrseq	r0, (UNDEF: 0)
    4434:	00027c9c 	muleq	r2, ip, ip
    4438:	00631300 	rsbeq	r1, r3, r0, lsl #6
    443c:	2c19ab01 			; <UNDEFINED> instruction: 0x2c19ab01
    4440:	fd000000 	stc2	0, cr0, [r0, #-0]
    4444:	f900001f 			; <UNDEFINED> instruction: 0xf900001f
    4448:	0f00001f 	svceq	0x0000001f
    444c:	0000939c 	muleq	r0, ip, r3
    4450:	000005a0 	andeq	r0, r0, r0, lsr #11
    4454:	0093a00f 	addseq	sl, r3, pc
    4458:	0002db00 	andeq	sp, r2, r0, lsl #22
    445c:	93b41400 			; <UNDEFINED> instruction: 0x93b41400
    4460:	05b80000 	ldreq	r0, [r8, #0]!
    4464:	02720000 	rsbseq	r0, r2, #0, 0
    4468:	01120000 	tsteq	r2, r0
    446c:	400c0550 	andmi	r0, ip, r0, asr r5
    4470:	12202150 	eorne	r2, r0, #20
    4474:	74055101 	strvc	r5, [r5], #-257	; 0xfffffeff
    4478:	1aff0800 	bne	fffc6480 <__bss_end__+0xfffbc160>
    447c:	93b80f00 			; <UNDEFINED> instruction: 0x93b80f00
    4480:	05a00000 	streq	r0, [r0, #0]!
    4484:	10000000 	andne	r0, r0, r0
    4488:	000009f4 	strdeq	r0, [r0], -r4
    448c:	2505a301 	strcs	sl, [r5, #-769]	; 0xfffffcff
    4490:	60000000 	andvs	r0, r0, r0
    4494:	30000093 	mulcc	r0, r3, r0
    4498:	01000000 	mrseq	r0, (UNDEF: 0)
    449c:	0002db9c 	muleq	r2, ip, fp
    44a0:	00631500 	rsbeq	r1, r3, r0, lsl #10
    44a4:	2509a701 	strcs	sl, [r9, #-1793]	; 0xfffff8ff
    44a8:	1d000000 	stcne	0, cr0, [r0, #-0]
    44ac:	1b000020 	blne	4534 <__code_start__-0x3acc>
    44b0:	0f000020 	svceq	0x00000020
    44b4:	00009368 	andeq	r9, r0, r8, ror #6
    44b8:	000005a0 	andeq	r0, r0, r0, lsr #11
    44bc:	00936c0f 	addseq	r6, r3, pc, lsl #24
    44c0:	00030900 	andeq	r0, r3, r0, lsl #18
    44c4:	937c1400 	cmnls	ip, #0, 8
    44c8:	05ac0000 	streq	r0, [ip, #0]!
    44cc:	02d10000 	sbcseq	r0, r1, #0, 0
    44d0:	01120000 	tsteq	r2, r0
    44d4:	400c0550 	andmi	r0, ip, r0, asr r5
    44d8:	00202150 	eoreq	r2, r0, r0, asr r1
    44dc:	0093840f 	addseq	r8, r3, pc, lsl #8
    44e0:	0005a000 	andeq	sl, r5, r0
    44e4:	c4100000 	ldrgt	r0, [r0], #-0
    44e8:	01000009 	tsteq	r0, r9
    44ec:	00250594 	mlaeq	r5, r4, r5, r0
    44f0:	93400000 	movtls	r0, #0
    44f4:	00200000 	eoreq	r0, r0, r0
    44f8:	9c010000 	stcls	0, cr0, [r1], {-0}
    44fc:	00000309 	andeq	r0, r0, r9, lsl #6
    4500:	00934c11 	addseq	r4, r3, r1, lsl ip
    4504:	0005ac00 	andeq	sl, r5, r0, lsl #24
    4508:	50011200 	andpl	r1, r1, r0, lsl #4
    450c:	50640c05 	rsbpl	r0, r4, r5, lsl #24
    4510:	00002021 	andeq	r2, r0, r1, lsr #32
    4514:	0009a310 	andeq	sl, r9, r0, lsl r3
    4518:	058b0100 	streq	r0, [fp, #256]	; 0x100
    451c:	00000025 	andeq	r0, r0, r5, lsr #32
    4520:	00009328 	andeq	r9, r0, r8, lsr #6
    4524:	00000018 	andeq	r0, r0, r8, lsl r0
    4528:	03379c01 	teqeq	r7, #256	; 0x100
    452c:	34110000 	ldrcc	r0, [r1], #-0
    4530:	ac000093 	stcge	0, cr0, [r0], {147}	; 0x93
    4534:	12000005 	andne	r0, r0, #5, 0
    4538:	0c055001 	stceq	0, cr5, [r5], {1}
    453c:	20215064 	eorcs	r5, r1, r4, rrx
    4540:	9f0e0000 	svcls	0x000e0000
    4544:	01000006 	tsteq	r0, r6
    4548:	92780645 	rsbsls	r0, r8, #72351744	; 0x4500000
    454c:	00b00000 	adcseq	r0, r0, r0
    4550:	9c010000 	stcls	0, cr0, [r1], {-0}
    4554:	00000484 	andeq	r0, r0, r4, lsl #9
    4558:	00099516 	andeq	r9, r9, r6, lsl r5
    455c:	0e7e0100 	rpweqe	f0, f6, f0
    4560:	00000062 	andeq	r0, r0, r2, rrx
    4564:	8814010e 	ldmdahi	r4, {r1, r2, r3, r8}
    4568:	c4000092 	strgt	r0, [r0], #-146	; 0xffffff6e
    456c:	73000005 	movwvc	r0, #5
    4570:	12000003 	andne	r0, r0, #3, 0
    4574:	3e015001 	cdpcc	0, 0, cr5, cr1, cr1, {0}
    4578:	01510112 	cmpeq	r1, r2, lsl r1
    457c:	94140032 	ldrls	r0, [r4], #-50	; 0xffffffce
    4580:	c4000092 	strgt	r0, [r0], #-146	; 0xffffff6e
    4584:	8b000005 	blhi	45a0 <__code_start__-0x3a60>
    4588:	12000003 	andne	r0, r0, #3, 0
    458c:	3f015001 	svccc	0x00015001
    4590:	01510112 	cmpeq	r1, r2, lsl r1
    4594:	980f0032 	stmdals	pc, {r1, r4, r5}	; <UNPREDICTABLE>
    4598:	a0000092 	mulge	r0, r2, r0
    459c:	14000005 	strne	r0, [r0], #-5
    45a0:	000092a4 	andeq	r9, r0, r4, lsr #5
    45a4:	0000053d 	andeq	r0, r0, sp, lsr r5
    45a8:	000003b0 			; <UNDEFINED> instruction: 0x000003b0
    45ac:	05500112 	ldrbeq	r0, [r0, #-274]	; 0xfffffeee
    45b0:	2150040c 	cmpcs	r0, ip, lsl #8
    45b4:	51011220 	tstpl	r1, r0, lsr #4
    45b8:	0f003101 	svceq	0x00003101
    45bc:	000092a8 	andeq	r9, r0, r8, lsr #5
    45c0:	000005a0 	andeq	r0, r0, r0, lsr #11
    45c4:	0092b814 	addseq	fp, r2, r4, lsl r8
    45c8:	0005b800 	andeq	fp, r5, r0, lsl #16
    45cc:	0003d200 	andeq	sp, r3, r0, lsl #4
    45d0:	50011200 	andpl	r1, r1, r0, lsl #4
    45d4:	12007402 	andne	r7, r0, #33554432	; 0x2000000
    45d8:	30015101 	andcc	r5, r1, r1, lsl #2
    45dc:	92c41400 	sbcls	r1, r4, #0, 8
    45e0:	05b80000 	ldreq	r0, [r8, #0]!
    45e4:	03ee0000 	mvneq	r0, #0, 0
    45e8:	01120000 	tsteq	r2, r0
    45ec:	440c0550 	strmi	r0, [ip], #-1360	; 0xfffffab0
    45f0:	12202150 	eorne	r2, r0, #20
    45f4:	30015101 	andcc	r5, r1, r1, lsl #2
    45f8:	92d01400 	sbcsls	r1, r0, #0, 8
    45fc:	05b80000 	ldreq	r0, [r8, #0]!
    4600:	040a0000 	streq	r0, [sl], #-0
    4604:	01120000 	tsteq	r2, r0
    4608:	4c0c0550 	cfstr32mi	mvfx0, [ip], {80}	; 0x50
    460c:	12202150 	eorne	r2, r0, #20
    4610:	33015101 	movwcc	r5, #4353	; 0x1101
    4614:	92dc1400 	sbcsls	r1, ip, #0, 8
    4618:	05b80000 	ldreq	r0, [r8, #0]!
    461c:	04260000 	strteq	r0, [r6], #-0
    4620:	01120000 	tsteq	r2, r0
    4624:	500c0550 	andpl	r0, ip, r0, asr r5
    4628:	12202150 	eorne	r2, r0, #20
    462c:	30015101 	andcc	r5, r1, r1, lsl #2
    4630:	92e81400 	rscls	r1, r8, #0, 8
    4634:	05b80000 	ldreq	r0, [r8, #0]!
    4638:	04430000 	strbeq	r0, [r3], #-0
    463c:	01120000 	tsteq	r2, r0
    4640:	480c0550 	stmdami	ip, {r4, r6, r8, sl}
    4644:	12202150 	eorne	r2, r0, #20
    4648:	08025101 	stmdaeq	r2, {r0, r8, ip, lr}
    464c:	f41400c7 			; <UNDEFINED> instruction: 0xf41400c7
    4650:	b8000092 	stmdalt	r0, {r1, r4, r7}
    4654:	61000005 	tstvs	r0, r5
    4658:	12000004 	andne	r0, r0, #4, 0
    465c:	0c055001 	stceq	0, cr5, [r5], {1}
    4660:	20215068 	eorcs	r5, r1, r8, rrx
    4664:	03510112 	cmpeq	r1, #-2147483644	; 0x80000004
    4668:	00010e0a 	andeq	r0, r1, sl, lsl #28
    466c:	00930014 	addseq	r0, r3, r4, lsl r0
    4670:	0005b800 	andeq	fp, r5, r0, lsl #16
    4674:	00047a00 	andeq	r7, r4, r0, lsl #20
    4678:	50011200 	andpl	r1, r1, r0, lsl #4
    467c:	12007402 	andne	r7, r0, #33554432	; 0x2000000
    4680:	33015101 	movwcc	r5, #4353	; 0x1101
    4684:	93040f00 	movwls	r0, #20224	; 0x4f00
    4688:	05a00000 	streq	r0, [r0, #0]!
    468c:	0e000000 	cdpeq	0, 0, cr0, cr0, cr0, {0}
    4690:	00000a03 	andeq	r0, r0, r3, lsl #20
    4694:	04063501 	streq	r3, [r6], #-1281	; 0xfffffaff
    4698:	24000094 	strcs	r0, [r0], #-148	; 0xffffff6c
    469c:	01000000 	mrseq	r0, (UNDEF: 0)
    46a0:	0004d39c 	muleq	r4, ip, r3
    46a4:	940c0f00 	strls	r0, [ip], #-3840	; 0xfffff100
    46a8:	01940000 	orrseq	r0, r4, r0
    46ac:	100f0000 	andne	r0, pc, r0
    46b0:	a0000094 	mulge	r0, r4, r0
    46b4:	14000005 	strne	r0, [r0], #-5
    46b8:	0000941c 	andeq	r9, r0, ip, lsl r4
    46bc:	000004d3 	ldrdeq	r0, [r0], -r3
    46c0:	000004c9 	andeq	r0, r0, r9, asr #9
    46c4:	05500112 	ldrbeq	r0, [r0, #-274]	; 0xfffffeee
    46c8:	2150040c 	cmpcs	r0, ip, lsl #8
    46cc:	51011220 	tstpl	r1, r0, lsr #4
    46d0:	00fe0902 	rscseq	r0, lr, r2, lsl #18
    46d4:	0094200f 	addseq	r2, r4, pc
    46d8:	0005a000 	andeq	sl, r5, r0
    46dc:	33170000 	tstcc	r7, #0, 0
    46e0:	0100000a 	tsteq	r0, sl
    46e4:	92380d31 	eorsls	r0, r8, #3136	; 0xc40
    46e8:	00200000 	eoreq	r0, r0, r0
    46ec:	9c010000 	stcls	0, cr0, [r1], {-0}
    46f0:	00000536 	andeq	r0, r0, r6, lsr r5
    46f4:	000a6118 	andeq	r6, sl, r8, lsl r1
    46f8:	25310100 	ldrcs	r0, [r1, #-256]!	; 0xffffff00
    46fc:	00000536 	andeq	r0, r0, r6, lsr r5
    4700:	00002034 	andeq	r2, r0, r4, lsr r0
    4704:	00002030 	andeq	r2, r0, r0, lsr r0
    4708:	6c617613 	stclvs	6, cr7, [r1], #-76	; 0xffffffb4
    470c:	34310100 	ldrtcc	r0, [r1], #-256	; 0xffffff00
    4710:	0000002c 	andeq	r0, r0, ip, lsr #32
    4714:	00002056 	andeq	r2, r0, r6, asr r0
    4718:	00002052 	andeq	r2, r0, r2, asr r0
    471c:	00924814 	addseq	r4, r2, r4, lsl r8
    4720:	0005ac00 	andeq	sl, r5, r0, lsl #24
    4724:	00052500 	andeq	r2, r5, r0, lsl #10
    4728:	50011200 	andpl	r1, r1, r0, lsl #4
    472c:	00007402 	andeq	r7, r0, r2, lsl #8
    4730:	00925411 	addseq	r5, r2, r1, lsl r4
    4734:	0005b800 	andeq	fp, r5, r0, lsl #16
    4738:	50011200 	andpl	r1, r1, r0, lsl #4
    473c:	00007402 	andeq	r7, r0, r2, lsl #8
    4740:	3c040c00 	stccc	12, cr0, [r4], {-0}
    4744:	19000005 	stmdbne	r0, {r0, r2}
    4748:	000a1e17 	andeq	r1, sl, r7, lsl lr
    474c:	0d2e0100 	stfeqs	f0, [lr, #-0]
    4750:	00009258 	andeq	r9, r0, r8, asr r2
    4754:	00000020 	andeq	r0, r0, r0, lsr #32
    4758:	05a09c01 	streq	r9, [r0, #3073]!	; 0xc01
    475c:	61180000 	tstvs	r8, r0
    4760:	0100000a 	tsteq	r0, sl
    4764:	0536242e 	ldreq	r2, [r6, #-1070]!	; 0xfffffbd2
    4768:	20780000 	rsbscs	r0, r8, r0
    476c:	20740000 	rsbscs	r0, r4, r0
    4770:	76130000 	ldrvc	r0, [r3], -r0
    4774:	01006c61 	tsteq	r0, r1, ror #24
    4778:	002c332e 	eoreq	r3, ip, lr, lsr #6
    477c:	209a0000 	addscs	r0, sl, r0
    4780:	20960000 	addscs	r0, r6, r0
    4784:	68140000 	ldmdavs	r4, {}	; <UNPREDICTABLE>
    4788:	ac000092 	stcge	0, cr0, [r0], {146}	; 0x92
    478c:	8f000005 	svchi	0x00000005
    4790:	12000005 	andne	r0, r0, #5, 0
    4794:	74025001 	strvc	r5, [r2], #-1
    4798:	74110000 	ldrvc	r0, [r1], #-0
    479c:	b8000092 	stmdalt	r0, {r1, r4, r7}
    47a0:	12000005 	andne	r0, r0, #5, 0
    47a4:	74025001 	strvc	r5, [r2], #-1
    47a8:	1a000000 	bne	47b0 <__code_start__-0x3850>
    47ac:	000001a7 	andeq	r0, r0, r7, lsr #3
    47b0:	000001a7 	andeq	r0, r0, r7, lsr #3
    47b4:	1a06a103 	bne	1acbc8 <__bss_end__+0x1a28a8>
    47b8:	00000a3c 	andeq	r0, r0, ip, lsr sl
    47bc:	00000a3c 	andeq	r0, r0, ip, lsr sl
    47c0:	1a0bc803 	bne	2f67d4 <__bss_end__+0x2ec4b4>
    47c4:	0000098f 	andeq	r0, r0, pc, lsl #19
    47c8:	0000098f 	andeq	r0, r0, pc, lsl #19
    47cc:	1a06b303 	bne	1b13e0 <__bss_end__+0x1a70c0>
    47d0:	00000971 	andeq	r0, r0, r1, ror r9
    47d4:	00000971 	andeq	r0, r0, r1, ror r9
    47d8:	00061904 	andeq	r1, r6, r4, lsl #18
    47dc:	000008e9 	andeq	r0, r0, r9, ror #17
    47e0:	12e90004 	rscne	r0, r9, #4, 0
    47e4:	01040000 	mrseq	r0, (UNDEF: 4)
    47e8:	000008a9 	andeq	r0, r0, r9, lsr #17
    47ec:	000ade0c 	andeq	sp, sl, ip, lsl #28
    47f0:	00085600 	andeq	r5, r8, r0, lsl #12
    47f4:	00942800 	addseq	r2, r4, r0, lsl #16
    47f8:	0003b000 	andeq	fp, r3, r0
    47fc:	0029cb00 	eoreq	ip, r9, r0, lsl #22
    4800:	05040200 	streq	r0, [r4, #-512]	; 0xfffffe00
    4804:	00746e69 	rsbseq	r6, r4, r9, ror #28
    4808:	4d070403 	cfstrsmi	mvf0, [r7, #-12]
    480c:	03000001 	movweq	r0, #1
    4810:	01230601 			; <UNDEFINED> instruction: 0x01230601
    4814:	02030000 	andeq	r0, r3, #0, 0
    4818:	00001805 	andeq	r1, r0, r5, lsl #16
    481c:	05040300 	streq	r0, [r4, #-768]	; 0xfffffd00
    4820:	000000ce 	andeq	r0, r0, lr, asr #1
    4824:	c9050803 	stmdbgt	r5, {r0, r1, fp}
    4828:	03000000 	movweq	r0, #0
    482c:	01210801 			; <UNDEFINED> instruction: 0x01210801
    4830:	02030000 	andeq	r0, r3, #0, 0
    4834:	00017207 	andeq	r7, r1, r7, lsl #4
    4838:	03720400 	cmneq	r2, #0, 8
    483c:	34030000 	strcc	r0, [r3], #-0
    4840:	00006919 	andeq	r6, r0, r9, lsl r9
    4844:	07040300 	streq	r0, [r4, -r0, lsl #6]
    4848:	00000148 	andeq	r0, r0, r8, asr #2
    484c:	43070803 	movwmi	r0, #30723	; 0x7803
    4850:	03000001 	movweq	r0, #1
    4854:	012a0801 			; <UNDEFINED> instruction: 0x012a0801
    4858:	77050000 	strvc	r0, [r5, -r0]
    485c:	03000000 	movweq	r0, #0
    4860:	0b000408 	bleq	5888 <__code_start__-0x2778>
    4864:	04060000 	streq	r0, [r6], #-0
    4868:	2c040707 	stccs	7, cr0, [r4], {7}
    486c:	01000000 	mrseq	r0, (UNDEF: 0)
    4870:	00a4061f 	adceq	r0, r4, pc, lsl r6
    4874:	6c080000 	stcvs	0, cr0, [r8], {-0}
    4878:	0000000a 	andeq	r0, r0, sl
    487c:	00002000 	andeq	r2, r0, r0
    4880:	00059d09 	andeq	r9, r5, r9, lsl #26
    4884:	0d220100 	stfeqs	f0, [r2, #-0]
    4888:	00000077 	andeq	r0, r0, r7, ror r0
    488c:	000a870a 	andeq	r8, sl, sl, lsl #14
    4890:	0e230100 	sufeqs	f0, f3, f0
    4894:	000000c2 	andeq	r0, r0, r2, asr #1
    4898:	9f140305 	svcls	0x00140305
    489c:	040b0000 	streq	r0, [fp], #-0
    48a0:	00000077 	andeq	r0, r0, r7, ror r0
    48a4:	000a4a0a 	andeq	r4, sl, sl, lsl #20
    48a8:	0e240100 	sufeqs	f0, f4, f0
    48ac:	000000c2 	andeq	r0, r0, r2, asr #1
    48b0:	9f100305 	svcls	0x00100305
    48b4:	bd0a0000 	stclt	0, cr0, [sl, #-0]
    48b8:	0100000a 	tsteq	r0, sl
    48bc:	00c20e25 	sbceq	r0, r2, r5, lsr #28
    48c0:	03050000 	movweq	r0, #20480	; 0x5000
    48c4:	00009f0c 	andeq	r9, r0, ip, lsl #30
    48c8:	000a930c 	andeq	r9, sl, ip, lsl #6
    48cc:	06750100 	ldrbteq	r0, [r5], -r0, lsl #2
    48d0:	00009778 	andeq	r9, r0, r8, ror r7
    48d4:	00000060 	andeq	r0, r0, r0, rrx
    48d8:	01649c01 	cmneq	r4, r1, lsl #24
    48dc:	700d0000 	andvc	r0, sp, r0
    48e0:	16750100 	ldrbtne	r0, [r5], -r0, lsl #2
    48e4:	0000008a 	andeq	r0, r0, sl, lsl #1
    48e8:	000020be 	strheq	r2, [r0], -lr
    48ec:	000020b8 	strheq	r2, [r0], -r8
    48f0:	0000e40e 	andeq	lr, r0, lr, lsl #8
    48f4:	00017400 	andeq	r7, r1, r0, lsl #8
    48f8:	f8030500 			; <UNDEFINED> instruction: 0xf8030500
    48fc:	0f00009e 	svceq	0x0000009e
    4900:	000097c4 	andeq	r9, r0, r4, asr #15
    4904:	000008bc 			; <UNDEFINED> instruction: 0x000008bc
    4908:	0000015a 	andeq	r0, r0, sl, asr r1
    490c:	05500110 	ldrbeq	r0, [r0, #-272]	; 0xfffffef0
    4910:	009e7003 	addseq	r7, lr, r3
    4914:	51011000 	mrspl	r1, (UNDEF: 1)
    4918:	9d080305 	stcls	3, cr0, [r8, #-20]	; 0xffffffec
    491c:	01100000 	tsteq	r0, r0
    4920:	f8030552 			; <UNDEFINED> instruction: 0xf8030552
    4924:	1000009e 	mulne	r0, lr, r0
    4928:	08025301 	stmdaeq	r2, {r0, r8, r9, ip, lr}
    492c:	7d021077 	stcvc	0, cr1, [r2, #-476]	; 0xfffffe24
    4930:	01f30300 	mvnseq	r0, r0, lsl #6
    4934:	c8110050 	ldmdagt	r1, {r4, r6}
    4938:	c8000097 	stmdagt	r0, {r0, r1, r2, r4, r7}
    493c:	00000008 	andeq	r0, r0, r8
    4940:	00007e12 	andeq	r7, r0, r2, lsl lr
    4944:	00017400 	andeq	r7, r1, r0, lsl #8
    4948:	002c1300 	eoreq	r1, ip, r0, lsl #6
    494c:	00090000 	andeq	r0, r9, r0
    4950:	00016405 	andeq	r6, r1, r5, lsl #8
    4954:	0a751400 	beq	1d4995c <__bss_end__+0x1d3f63c>
    4958:	72010000 	andvc	r0, r1, #0, 0
    495c:	00976406 	addseq	r6, r7, r6, lsl #8
    4960:	00001400 	andeq	r1, r0, r0, lsl #8
    4964:	0c9c0100 	ldfeqs	f0, [ip], {0}
    4968:	00000a66 	andeq	r0, r0, r6, ror #20
    496c:	60066f01 	andvs	r6, r6, r1, lsl #30
    4970:	04000097 	streq	r0, [r0], #-151	; 0xffffff69
    4974:	01000000 	mrseq	r0, (UNDEF: 0)
    4978:	0001ae9c 	muleq	r1, ip, lr
    497c:	00701500 	rsbseq	r1, r0, r0, lsl #10
    4980:	8a126f01 	bhi	4a058c <__bss_end__+0x49626c>
    4984:	01000000 	mrseq	r0, (UNDEF: 0)
    4988:	2f160050 	svccs	0x00160050
    498c:	0100000b 	tsteq	r0, fp
    4990:	008a075e 	addeq	r0, sl, lr, asr r7
    4994:	96480000 	strbls	r0, [r8], -r0
    4998:	01180000 	tsteq	r8, r0
    499c:	9c010000 	stcls	0, cr0, [r1], {-0}
    49a0:	0000042c 	andeq	r0, r0, ip, lsr #8
    49a4:	000a5917 	andeq	r5, sl, r7, lsl r9
    49a8:	205e0100 	subscs	r0, lr, r0, lsl #2
    49ac:	0000002c 	andeq	r0, r0, ip, lsr #32
    49b0:	000020ff 	strdeq	r2, [r0], -pc	; <UNPREDICTABLE>
    49b4:	000020eb 	andeq	r2, r0, fp, ror #1
    49b8:	000a9d17 	andeq	r9, sl, r7, lsl sp
    49bc:	315e0100 	cmpcc	lr, r0, lsl #2
    49c0:	0000002c 	andeq	r0, r0, ip, lsr #32
    49c4:	00002198 	muleq	r0, r8, r1
    49c8:	00002184 	andeq	r2, r0, r4, lsl #3
    49cc:	0000e40e 	andeq	lr, r0, lr, lsl #8
    49d0:	00043c00 	andeq	r3, r4, r0, lsl #24
    49d4:	e0030500 	and	r0, r3, r0, lsl #10
    49d8:	1800009e 	stmdane	r0, {r1, r2, r3, r4, r7}
    49dc:	66010068 	strvs	r0, [r1], -r8, rrx
    49e0:	00002c0e 	andeq	r2, r0, lr, lsl #24
    49e4:	00224e00 	eoreq	r4, r2, r0, lsl #28
    49e8:	00224200 	eoreq	r4, r2, r0, lsl #4
    49ec:	08541900 	ldmdaeq	r4, {r8, fp, ip}^
    49f0:	96580000 	ldrbls	r0, [r8], -r0
    49f4:	58040000 	stmdapl	r4, {}	; <UNPREDICTABLE>
    49f8:	04000096 	streq	r0, [r0], #-150	; 0xffffff6a
    49fc:	01000000 	mrseq	r0, (UNDEF: 0)
    4a00:	02380560 	eorseq	r0, r8, #96, 10	; 0x18000000
    4a04:	651a0000 	ldrvs	r0, [sl, #-0]
    4a08:	a2000008 	andge	r0, r0, #8, 0
    4a0c:	a0000022 	andge	r0, r0, r2, lsr #32
    4a10:	00000022 	andeq	r0, r0, r2, lsr #32
    4a14:	00089619 	andeq	r9, r8, r9, lsl r6
    4a18:	00966400 	addseq	r6, r6, r0, lsl #8
    4a1c:	96640200 	strbtls	r0, [r4], -r0, lsl #4
    4a20:	00080000 	andeq	r0, r8, r0
    4a24:	61010000 	mrsvs	r0, (UNDEF: 1)
    4a28:	00026c11 	andeq	r6, r2, r1, lsl ip
    4a2c:	08b11a00 	ldmeq	r1!, {r9, fp, ip}
    4a30:	22b70000 	adcscs	r0, r7, #0, 0
    4a34:	22b50000 	adcscs	r0, r5, #0, 0
    4a38:	a71a0000 	ldrge	r0, [sl, -r0]
    4a3c:	cd000008 	stcgt	0, cr0, [r0, #-32]	; 0xffffffe0
    4a40:	cb000022 	blgt	4ad0 <__code_start__-0x3530>
    4a44:	00000022 	andeq	r0, r0, r2, lsr #32
    4a48:	00081f1b 	andeq	r1, r8, fp, lsl pc
    4a4c:	00967400 	addseq	r7, r6, r0, lsl #8
    4a50:	00c80100 	sbceq	r0, r8, r0, lsl #2
    4a54:	67010000 	strvs	r0, [r1, -r0]
    4a58:	00030a09 	andeq	r0, r3, r9, lsl #20
    4a5c:	083a1a00 	ldmdaeq	sl!, {r9, fp, ip}
    4a60:	22e60000 	rsccs	r0, r6, #0, 0
    4a64:	22e00000 	rsccs	r0, r0, #0, 0
    4a68:	301a0000 	andscc	r0, sl, r0
    4a6c:	2d000008 	stccs	0, cr0, [r0, #-32]	; 0xffffffe0
    4a70:	25000023 	strcs	r0, [r0, #-35]	; 0xffffffdd
    4a74:	1c000023 	stcne	0, cr0, [r0], {35}	; 0x23
    4a78:	000000c8 	andeq	r0, r0, r8, asr #1
    4a7c:	00085419 	andeq	r5, r8, r9, lsl r4
    4a80:	00967400 	addseq	r7, r6, r0, lsl #8
    4a84:	96740400 	ldrbtls	r0, [r4], -r0, lsl #8
    4a88:	00040000 	andeq	r0, r4, r0
    4a8c:	11010000 	mrsne	r0, (UNDEF: 1)
    4a90:	0002c705 	andeq	ip, r2, r5, lsl #14
    4a94:	08651a00 	stmdaeq	r5!, {r9, fp, ip}^
    4a98:	236b0000 	cmncs	fp, #0, 0
    4a9c:	23690000 	cmncs	r9, #0, 0
    4aa0:	0f000000 	svceq	0x00000000
    4aa4:	0000970c 	andeq	r9, r0, ip, lsl #14
    4aa8:	000008bc 			; <UNDEFINED> instruction: 0x000008bc
    4aac:	000002ff 	strdeq	r0, [r0], -pc	; <UNPREDICTABLE>
    4ab0:	05500110 	ldrbeq	r0, [r0, #-272]	; 0xfffffef0
    4ab4:	0099e803 	addseq	lr, r9, r3, lsl #16
    4ab8:	51011000 	mrspl	r1, (UNDEF: 1)
    4abc:	9d080305 	stcls	3, cr0, [r8, #-20]	; 0xffffffec
    4ac0:	01100000 	tsteq	r0, r0
    4ac4:	f0030552 			; <UNDEFINED> instruction: 0xf0030552
    4ac8:	1000009e 	mulne	r0, lr, r0
    4acc:	41015301 	tstmi	r1, r1, lsl #6
    4ad0:	007d0210 	rsbseq	r0, sp, r0, lsl r2
    4ad4:	9e1c0305 	cdpls	3, 1, cr0, cr12, cr5, {0}
    4ad8:	11000000 	mrsne	r0, (UNDEF: 0)
    4adc:	00009710 	andeq	r9, r0, r0, lsl r7
    4ae0:	000008c8 	andeq	r0, r0, r8, asr #17
    4ae4:	70190000 	andsvc	r0, r9, r0
    4ae8:	8c000008 	stchi	0, cr0, [r0], {8}
    4aec:	03000096 	movweq	r0, #150	; 0x96
    4af0:	0000968c 	andeq	r9, r0, ip, lsl #13
    4af4:	00000004 	andeq	r0, r0, r4
    4af8:	3e056801 	cdpcc	8, 0, cr6, cr5, cr1, {0}
    4afc:	1a000003 	bne	4b10 <__code_start__-0x34f0>
    4b00:	0000088b 	andeq	r0, r0, fp, lsl #17
    4b04:	00002380 	andeq	r2, r0, r0, lsl #7
    4b08:	0000237e 	andeq	r2, r0, lr, ror r3
    4b0c:	0008811a 	andeq	r8, r8, sl, lsl r1
    4b10:	00239500 	eoreq	r9, r3, r0, lsl #10
    4b14:	00239300 	eoreq	r9, r3, r0, lsl #6
    4b18:	a40f0000 	strge	r0, [pc], #-0	; 4b20 <__code_start__-0x34e0>
    4b1c:	41000096 	swpmi	r0, r6, [r0]	; <UNPREDICTABLE>
    4b20:	53000004 	movwpl	r0, #4
    4b24:	10000003 	andne	r0, r0, r3
    4b28:	f3035001 	vhadd.u8	d5, d3, d1
    4b2c:	0f005001 	svceq	0x00005001
    4b30:	000096c8 	andeq	r9, r0, r8, asr #13
    4b34:	000008bc 			; <UNDEFINED> instruction: 0x000008bc
    4b38:	0000038c 	andeq	r0, r0, ip, lsl #7
    4b3c:	05500110 	ldrbeq	r0, [r0, #-272]	; 0xfffffef0
    4b40:	0099e803 	addseq	lr, r9, r3, lsl #16
    4b44:	51011000 	mrspl	r1, (UNDEF: 1)
    4b48:	9d080305 	stcls	3, cr0, [r8, #-20]	; 0xffffffec
    4b4c:	01100000 	tsteq	r0, r0
    4b50:	e0030552 	and	r0, r3, r2, asr r5
    4b54:	1000009e 	mulne	r0, lr, r0
    4b58:	08025301 	stmdaeq	r2, {r0, r8, r9, ip, lr}
    4b5c:	7d02105f 	stcvc	0, cr1, [r2, #-380]	; 0xfffffe84
    4b60:	18030500 	stmdane	r3, {r8, sl}
    4b64:	0000009d 	muleq	r0, sp, r0
    4b68:	0096cc11 	addseq	ip, r6, r1, lsl ip
    4b6c:	0008c800 	andeq	ip, r8, r0, lsl #16
    4b70:	96d01100 	ldrbls	r1, [r0], r0, lsl #2
    4b74:	08d40000 	ldmeq	r4, {}^	; <UNPREDICTABLE>
    4b78:	ec0f0000 	stc	0, cr0, [pc], {-0}
    4b7c:	bc000096 	stclt	0, cr0, [r0], {150}	; 0x96
    4b80:	d7000008 	strle	r0, [r0, -r8]
    4b84:	10000003 	andne	r0, r0, r3
    4b88:	03055001 	movweq	r5, #20481	; 0x5001
    4b8c:	00009dd4 	ldrdeq	r9, [r0], -r4
    4b90:	05510110 	ldrbeq	r0, [r1, #-272]	; 0xfffffef0
    4b94:	009d0803 	addseq	r0, sp, r3, lsl #16
    4b98:	52011000 	andpl	r1, r1, #0, 0
    4b9c:	9ee00305 	cdpls	3, 14, cr0, cr0, cr5, {0}
    4ba0:	01100000 	tsteq	r0, r0
    4ba4:	60080253 	andvs	r0, r8, r3, asr r2
    4ba8:	007d0210 	rsbseq	r0, sp, r0, lsl r2
    4bac:	9e080305 	cdpls	3, 0, cr0, cr8, cr5, {0}
    4bb0:	11000000 	mrsne	r0, (UNDEF: 0)
    4bb4:	000096f0 	strdeq	r9, [r0], -r0
    4bb8:	000008c8 	andeq	r0, r0, r8, asr #17
    4bbc:	00971411 	addseq	r1, r7, r1, lsl r4
    4bc0:	0008d400 	andeq	sp, r8, r0, lsl #8
    4bc4:	97300f00 	ldrls	r0, [r0, -r0, lsl #30]!
    4bc8:	08bc0000 	ldmeq	ip!, {}	; <UNPREDICTABLE>
    4bcc:	04220000 	strteq	r0, [r2], #-0
    4bd0:	01100000 	tsteq	r0, r0
    4bd4:	28030550 	stmdacs	r3, {r4, r6, r8, sl}
    4bd8:	1000009e 	mulne	r0, lr, r0
    4bdc:	03055101 	movweq	r5, #20737	; 0x5101
    4be0:	00009d08 	andeq	r9, r0, r8, lsl #26
    4be4:	05520110 	ldrbeq	r0, [r2, #-272]	; 0xfffffef0
    4be8:	009ee003 	addseq	lr, lr, r3
    4bec:	53011000 	movwpl	r1, #4096	; 0x1000
    4bf0:	10680802 	rsbne	r0, r8, r2, lsl #16
    4bf4:	05007d02 	streq	r7, [r0, #-3330]	; 0xfffff2fe
    4bf8:	009e5403 	addseq	r5, lr, r3, lsl #8
    4bfc:	34110000 	ldrcc	r0, [r1], #-0
    4c00:	c8000097 	stmdagt	r0, {r0, r1, r2, r4, r7}
    4c04:	00000008 	andeq	r0, r0, r8
    4c08:	00007e12 	andeq	r7, r0, r2, lsl lr
    4c0c:	00043c00 	andeq	r3, r4, r0, lsl #24
    4c10:	002c1300 	eoreq	r1, ip, r0, lsl #6
    4c14:	000f0000 	andeq	r0, pc, r0
    4c18:	00042c05 	andeq	r2, r4, r5, lsl #24
    4c1c:	030d1600 	movweq	r1, #54784	; 0xd600
    4c20:	53010000 	movwpl	r0, #4096	; 0x1000
    4c24:	00008a07 	andeq	r8, r0, r7, lsl #20
    4c28:	0095e400 	addseq	lr, r5, r0, lsl #8
    4c2c:	00006400 	andeq	r6, r0, r0, lsl #8
    4c30:	089c0100 	ldmeq	ip, {r8}
    4c34:	17000005 	strne	r0, [r0, -r5]
    4c38:	00000a59 	andeq	r0, r0, r9, asr sl
    4c3c:	2c185301 	ldccs	3, cr5, [r8], {1}
    4c40:	b0000000 	andlt	r0, r0, r0
    4c44:	a8000023 	stmdage	r0, {r0, r1, r5}
    4c48:	0e000023 	cdpeq	0, 0, cr0, cr0, cr3, {1}
    4c4c:	000000e4 	andeq	r0, r0, r4, ror #1
    4c50:	00000518 	andeq	r0, r0, r8, lsl r5
    4c54:	9ed80305 	cdpls	3, 13, cr0, cr8, cr5, {0}
    4c58:	611d0000 	tstvs	sp, r0
    4c5c:	0100000a 	tsteq	r0, sl
    4c60:	008a0b55 	addeq	r0, sl, r5, asr fp
    4c64:	23e80000 	mvncs	r0, #0, 0
    4c68:	23e40000 	mvncs	r0, #0, 0
    4c6c:	fc0f0000 	stc2	0, cr0, [pc], {-0}
    4c70:	1d000095 	stcne	0, cr0, [r0, #-596]	; 0xfffffdac
    4c74:	a6000005 	strge	r0, [r0], -r5
    4c78:	10000004 	andne	r0, r0, r4
    4c7c:	74025001 	strvc	r5, [r2], #-1
    4c80:	0c0f0000 	stceq	0, cr0, [pc], {-0}
    4c84:	e0000096 	mul	r0, r6, r0
    4c88:	c5000008 	strgt	r0, [r0, #-8]
    4c8c:	10000004 	andne	r0, r0, r4
    4c90:	75025001 	strvc	r5, [r2, #-1]
    4c94:	51011000 	mrspl	r1, (UNDEF: 1)
    4c98:	01103001 	tsteq	r0, r1
    4c9c:	00740252 	rsbseq	r0, r4, r2, asr r2
    4ca0:	96340f00 	ldrtls	r0, [r4], -r0, lsl #30
    4ca4:	08bc0000 	ldmeq	ip!, {}	; <UNPREDICTABLE>
    4ca8:	04fe0000 	ldrbteq	r0, [lr], #0
    4cac:	01100000 	tsteq	r0, r0
    4cb0:	e8030550 	stmda	r3, {r4, r6, r8, sl}
    4cb4:	10000099 	mulne	r0, r9, r0
    4cb8:	03055101 	movweq	r5, #20737	; 0x5101
    4cbc:	00009d08 	andeq	r9, r0, r8, lsl #26
    4cc0:	05520110 	ldrbeq	r0, [r2, #-272]	; 0xfffffef0
    4cc4:	009ed803 	addseq	sp, lr, r3, lsl #16
    4cc8:	53011000 	movwpl	r1, #4096	; 0x1000
    4ccc:	10540802 	subsne	r0, r4, r2, lsl #16
    4cd0:	05007d02 	streq	r7, [r0, #-3330]	; 0xfffff2fe
    4cd4:	009d1803 	addseq	r1, sp, r3, lsl #16
    4cd8:	38110000 	ldmdacc	r1, {}	; <UNPREDICTABLE>
    4cdc:	c8000096 	stmdagt	r0, {r1, r2, r4, r7}
    4ce0:	00000008 	andeq	r0, r0, r8
    4ce4:	00007e12 	andeq	r7, r0, r2, lsl lr
    4ce8:	00051800 	andeq	r1, r5, r0, lsl #16
    4cec:	002c1300 	eoreq	r1, ip, r0, lsl #6
    4cf0:	00070000 	andeq	r0, r7, r0
    4cf4:	00050805 	andeq	r0, r5, r5, lsl #16
    4cf8:	0ac61600 	beq	ff18a500 <__bss_end__+0xff1801e0>
    4cfc:	47010000 	strmi	r0, [r1, -r0]
    4d00:	00008a07 	andeq	r8, r0, r7, lsl #20
    4d04:	00954c00 	addseq	r4, r5, r0, lsl #24
    4d08:	00009800 	andeq	r9, r0, r0, lsl #16
    4d0c:	2b9c0100 	blcs	fe705114 <__bss_end__+0xfe6fadf4>
    4d10:	17000006 	strne	r0, [r0, -r6]
    4d14:	00000a59 	andeq	r0, r0, r9, asr sl
    4d18:	2c204701 	stccs	7, cr4, [r0], #-4
    4d1c:	16000000 	strne	r0, [r0], -r0
    4d20:	06000024 	streq	r0, [r0], -r4, lsr #32
    4d24:	0e000024 	cdpeq	0, 0, cr0, cr0, cr4, {1}
    4d28:	000000e4 	andeq	r0, r0, r4, ror #1
    4d2c:	0000043c 	andeq	r0, r0, ip, lsr r4
    4d30:	9ec80305 	cdpls	3, 12, cr0, cr8, cr5, {0}
    4d34:	611d0000 	tstvs	sp, r0
    4d38:	0100000a 	tsteq	r0, sl
    4d3c:	008a0b4b 	addeq	r0, sl, fp, asr #22
    4d40:	248a0000 	strcs	r0, [sl], #0
    4d44:	24840000 	strcs	r0, [r4], #0
    4d48:	1f1b0000 	svcne	0x001b0000
    4d4c:	5c000008 	stcpl	0, cr0, [r0], {8}
    4d50:	03000095 	movweq	r0, #149	; 0x95
    4d54:	000000b0 	strheq	r0, [r0], -r0	; <UNPREDICTABLE>
    4d58:	a30e4901 	movwge	r4, #59649	; 0xe901
    4d5c:	1a000005 	bne	4d78 <__code_start__-0x3288>
    4d60:	0000083a 	andeq	r0, r0, sl, lsr r8
    4d64:	000024b9 			; <UNDEFINED> instruction: 0x000024b9
    4d68:	000024b7 			; <UNDEFINED> instruction: 0x000024b7
    4d6c:	0008301a 	andeq	r3, r8, sl, lsl r0
    4d70:	0024d100 	eoreq	sp, r4, r0, lsl #2
    4d74:	0024cd00 	eoreq	ip, r4, r0, lsl #26
    4d78:	00b01e00 	adcseq	r1, r0, r0, lsl #28
    4d7c:	0f000000 	svceq	0x00000000
    4d80:	000095a4 	andeq	r9, r0, r4, lsr #11
    4d84:	000008bc 			; <UNDEFINED> instruction: 0x000008bc
    4d88:	000005dc 	ldrdeq	r0, [r0], -ip
    4d8c:	05500110 	ldrbeq	r0, [r0, #-272]	; 0xfffffef0
    4d90:	0099e803 	addseq	lr, r9, r3, lsl #16
    4d94:	51011000 	mrspl	r1, (UNDEF: 1)
    4d98:	9d080305 	stcls	3, cr0, [r8, #-20]	; 0xffffffec
    4d9c:	01100000 	tsteq	r0, r0
    4da0:	c8030552 	stmdagt	r3, {r1, r4, r6, r8, sl}
    4da4:	1000009e 	mulne	r0, lr, r0
    4da8:	08025301 	stmdaeq	r2, {r0, r8, r9, ip, lr}
    4dac:	7d021048 	stcvc	0, cr1, [r2, #-288]	; 0xfffffee0
    4db0:	18030500 	stmdane	r3, {r8, sl}
    4db4:	0000009d 	muleq	r0, sp, r0
    4db8:	0095a811 	addseq	sl, r5, r1, lsl r8
    4dbc:	0008c800 	andeq	ip, r8, r0, lsl #16
    4dc0:	95c80f00 	strbls	r0, [r8, #3840]	; 0xf00
    4dc4:	08bc0000 	ldmeq	ip!, {}	; <UNPREDICTABLE>
    4dc8:	06210000 	strteq	r0, [r1], -r0
    4dcc:	01100000 	tsteq	r0, r0
    4dd0:	94030550 	strls	r0, [r3], #-1360	; 0xfffffab0
    4dd4:	1000009d 	mulne	r0, sp, r0
    4dd8:	03055101 	movweq	r5, #20737	; 0x5101
    4ddc:	00009d08 	andeq	r9, r0, r8, lsl #26
    4de0:	05520110 	ldrbeq	r0, [r2, #-272]	; 0xfffffef0
    4de4:	009ec803 	addseq	ip, lr, r3, lsl #16
    4de8:	53011000 	movwpl	r1, #4096	; 0x1000
    4dec:	104e0802 	subne	r0, lr, r2, lsl #16
    4df0:	08007d02 	stmdaeq	r0, {r1, r8, sl, fp, ip, sp, lr}
    4df4:	235001f3 	cmpcs	r0, #-1073741764	; 0xc000003c
    4df8:	1af80907 	bne	ffe0721c <__bss_end__+0xffdfcefc>
    4dfc:	95cc1100 	strbls	r1, [ip, #256]	; 0x100
    4e00:	08c80000 	stmiaeq	r8, {}^	; <UNPREDICTABLE>
    4e04:	0c000000 	stceq	0, cr0, [r0], {-0}
    4e08:	00000ae8 	andeq	r0, r0, r8, ror #21
    4e0c:	f4063c01 			; <UNDEFINED> instruction: 0xf4063c01
    4e10:	58000094 	stmdapl	r0, {r2, r4, r7}
    4e14:	01000000 	mrseq	r0, (UNDEF: 0)
    4e18:	0006cf9c 	muleq	r6, ip, pc	; <UNPREDICTABLE>
    4e1c:	0a8c0a00 	beq	fe307624 <__bss_end__+0xfe2fd304>
    4e20:	3d010000 	stccc	0, cr0, [r1, #-0]
    4e24:	00002510 	andeq	r2, r0, r0, lsl r5
    4e28:	18030500 	stmdane	r3, {r8, sl}
    4e2c:	0e0000a3 	cdpeq	0, 0, cr0, cr0, cr3, {5}
    4e30:	000000e4 	andeq	r0, r0, r4, ror #1
    4e34:	000006df 	ldrdeq	r0, [r0], -pc	; <UNPREDICTABLE>
    4e38:	9eb80305 	cdpls	3, 11, cr0, cr8, cr5, {0}
    4e3c:	07070000 	streq	r0, [r7, -r0]
    4e40:	00002c04 	andeq	r2, r0, r4, lsl #24
    4e44:	0a420100 	beq	108524c <__bss_end__+0x107af2c>
    4e48:	0000067a 	andeq	r0, r0, sl, ror r6
    4e4c:	000aaf08 	andeq	sl, sl, r8, lsl #30
    4e50:	10000000 	andne	r0, r0, r0
    4e54:	200f0000 	andcs	r0, pc, r0
    4e58:	e4000095 	str	r0, [r0], #-149	; 0xffffff6b
    4e5c:	96000006 	strls	r0, [r0], -r6
    4e60:	10000006 	andne	r0, r0, r6
    4e64:	40035001 	andmi	r5, r3, r1
    4e68:	01102440 	tsteq	r0, r0, asr #8
    4e6c:	48400351 	stmdami	r0, {r0, r4, r6, r8, r9}^
    4e70:	380f0024 	stmdacc	pc, {r2, r5}	; <UNPREDICTABLE>
    4e74:	bc000095 	stclt	0, cr0, [r0], {149}	; 0x95
    4e78:	c5000008 	strgt	r0, [r0, #-8]
    4e7c:	10000006 	andne	r0, r0, r6
    4e80:	03055001 	movweq	r5, #20481	; 0x5001
    4e84:	00009d64 	andeq	r9, r0, r4, ror #26
    4e88:	05510110 	ldrbeq	r0, [r1, #-272]	; 0xfffffef0
    4e8c:	009d0803 	addseq	r0, sp, r3, lsl #16
    4e90:	52011000 	andpl	r1, r1, #0, 0
    4e94:	9eb80305 	cdpls	3, 11, cr0, cr8, cr5, {0}
    4e98:	01100000 	tsteq	r0, r0
    4e9c:	40080253 	andmi	r0, r8, r3, asr r2
    4ea0:	953c1100 	ldrls	r1, [ip, #-256]!	; 0xffffff00
    4ea4:	08c80000 	stmiaeq	r8, {}^	; <UNPREDICTABLE>
    4ea8:	12000000 	andne	r0, r0, #0, 0
    4eac:	0000007e 	andeq	r0, r0, lr, ror r0
    4eb0:	000006df 	ldrdeq	r0, [r0], -pc	; <UNPREDICTABLE>
    4eb4:	00002c13 	andeq	r2, r0, r3, lsl ip
    4eb8:	05000c00 	streq	r0, [r0, #-3072]	; 0xfffff400
    4ebc:	000006cf 	andeq	r0, r0, pc, asr #13
    4ec0:	000b180c 	andeq	r1, fp, ip, lsl #16
    4ec4:	062d0100 	strteq	r0, [sp], -r0, lsl #2
    4ec8:	00009458 	andeq	r9, r0, r8, asr r4
    4ecc:	0000009c 	muleq	r0, ip, r0
    4ed0:	07c89c01 	strbeq	r9, [r8, r1, lsl #24]
    4ed4:	60170000 	andsvs	r0, r7, r0
    4ed8:	0100000a 	tsteq	r0, sl
    4edc:	002c262d 	eoreq	r2, ip, sp, lsr #12
    4ee0:	24ff0000 	ldrbtcs	r0, [pc], #0	; 4ee8 <__code_start__-0x3118>
    4ee4:	24f10000 	ldrbtcs	r0, [r1], #0
    4ee8:	55170000 	ldrpl	r0, [r7, #-0]
    4eec:	0100000a 	tsteq	r0, sl
    4ef0:	002c362d 	eoreq	r3, ip, sp, lsr #12
    4ef4:	25670000 	strbcs	r0, [r7, #-0]!
    4ef8:	255f0000 	ldrbcs	r0, [pc, #-0]	; 4f00 <__code_start__-0x3100>
    4efc:	611d0000 	tstvs	sp, r0
    4f00:	0100000a 	tsteq	r0, sl
    4f04:	00c20b2e 	sbceq	r0, r2, lr, lsr #22
    4f08:	25af0000 	strcs	r0, [pc, #0]!	; 4f10 <__code_start__-0x30f0>
    4f0c:	25a10000 	strcs	r0, [r1, #0]!
    4f10:	e40e0000 	str	r0, [lr], #-0
    4f14:	d8000000 	stmdale	r0, {}	; <UNPREDICTABLE>
    4f18:	05000007 	streq	r0, [r0, #-7]
    4f1c:	009ea003 	addseq	sl, lr, r3
    4f20:	94b00f00 	ldrtls	r0, [r0], #3840	; 0xf00
    4f24:	08bc0000 	ldmeq	ip!, {}	; <UNPREDICTABLE>
    4f28:	077e0000 	ldrbeq	r0, [lr, -r0]!
    4f2c:	01100000 	tsteq	r0, r0
    4f30:	e8030550 	stmda	r3, {r4, r6, r8, sl}
    4f34:	10000099 	mulne	r0, r9, r0
    4f38:	03055101 	movweq	r5, #20737	; 0x5101
    4f3c:	00009d08 	andeq	r9, r0, r8, lsl #26
    4f40:	05520110 	ldrbeq	r0, [r2, #-272]	; 0xfffffef0
    4f44:	009ea003 	addseq	sl, lr, r3
    4f48:	53011000 	movwpl	r1, #4096	; 0x1000
    4f4c:	10300802 	eorsne	r0, r0, r2, lsl #16
    4f50:	05007d02 	streq	r7, [r0, #-3330]	; 0xfffff2fe
    4f54:	009d1403 	addseq	r1, sp, r3, lsl #8
    4f58:	b4110000 	ldrlt	r0, [r1], #-0
    4f5c:	c8000094 	stmdagt	r0, {r2, r4, r7}
    4f60:	0f000008 	svceq	0x00000008
    4f64:	000094d8 	ldrdeq	r9, [r0], -r8
    4f68:	000008bc 			; <UNDEFINED> instruction: 0x000008bc
    4f6c:	000007be 			; <UNDEFINED> instruction: 0x000007be
    4f70:	05500110 	ldrbeq	r0, [r0, #-272]	; 0xfffffef0
    4f74:	009d2003 	addseq	r2, sp, r3
    4f78:	51011000 	mrspl	r1, (UNDEF: 1)
    4f7c:	9d080305 	stcls	3, cr0, [r8, #-20]	; 0xffffffec
    4f80:	01100000 	tsteq	r0, r0
    4f84:	a0030552 	andge	r0, r3, r2, asr r5
    4f88:	1000009e 	mulne	r0, lr, r0
    4f8c:	08025301 	stmdaeq	r2, {r0, r8, r9, ip, lr}
    4f90:	7d021034 	stcvc	0, cr1, [r2, #-208]	; 0xffffff30
    4f94:	01f30300 	mvnseq	r0, r0, lsl #6
    4f98:	dc110050 	ldcle	0, cr0, [r1], {80}	; 0x50
    4f9c:	c8000094 	stmdagt	r0, {r2, r4, r7}
    4fa0:	00000008 	andeq	r0, r0, r8
    4fa4:	00007e12 	andeq	r7, r0, r2, lsl lr
    4fa8:	0007d800 	andeq	sp, r7, r0, lsl #16
    4fac:	002c1300 	eoreq	r1, ip, r0, lsl #6
    4fb0:	00160000 	andseq	r0, r6, r0
    4fb4:	0007c805 	andeq	ip, r7, r5, lsl #16
    4fb8:	0b071f00 	bleq	1ccbc0 <__bss_end__+0x1c28a0>
    4fbc:	2a010000 	bcs	44fc4 <__bss_end__+0x3aca4>
    4fc0:	00008a07 	andeq	r8, r0, r7, lsl #20
    4fc4:	00944800 	addseq	r4, r4, r0, lsl #16
    4fc8:	00001000 	andeq	r1, r0, r0
    4fcc:	1f9c0100 	svcne	0x009c0100
    4fd0:	00000a42 	andeq	r0, r0, r2, asr #20
    4fd4:	8a072901 	bhi	1cf3e0 <__bss_end__+0x1c50c0>
    4fd8:	38000000 	stmdacc	r0, {}	; <UNPREDICTABLE>
    4fdc:	10000094 	mulne	r0, r4, r0
    4fe0:	01000000 	mrseq	r0, (UNDEF: 0)
    4fe4:	0ab51f9c 	beq	fed4ce5c <__bss_end__+0xfed42b3c>
    4fe8:	28010000 	stmdacs	r1, {}	; <UNPREDICTABLE>
    4fec:	00008a07 	andeq	r8, r0, r7, lsl #20
    4ff0:	00942800 	addseq	r2, r4, r0, lsl #16
    4ff4:	00001000 	andeq	r1, r0, r0
    4ff8:	209c0100 	addscs	r0, ip, r0, lsl #2
    4ffc:	00000a7f 	andeq	r0, r0, pc, ror sl
    5000:	2c181001 	ldccs	0, cr1, [r8], {1}
    5004:	03000000 	movweq	r0, #0
    5008:	00000854 	andeq	r0, r0, r4, asr r8
    500c:	01007821 	tsteq	r0, r1, lsr #16
    5010:	002c2910 	eoreq	r2, ip, r0, lsl r9
    5014:	6e210000 	cdpvs	0, 2, cr0, cr1, cr0, {0}
    5018:	35100100 	ldrcc	r0, [r0, #-256]	; 0xffffff00
    501c:	0000002c 	andeq	r0, r0, ip, lsr #32
    5020:	0000e40e 	andeq	lr, r0, lr, lsl #8
    5024:	00051800 	andeq	r1, r5, r0, lsl #16
    5028:	f0030500 			; <UNDEFINED> instruction: 0xf0030500
    502c:	0000009e 	muleq	r0, lr, r0
    5030:	000ad620 	andeq	sp, sl, r0, lsr #12
    5034:	180d0100 	stmdane	sp, {r8}
    5038:	0000002c 	andeq	r0, r0, ip, lsr #32
    503c:	00087003 	andeq	r7, r8, r3
    5040:	00782100 	rsbseq	r2, r8, r0, lsl #2
    5044:	2c290d01 	stccs	13, cr0, [r9], #-4
    5048:	00000000 	andeq	r0, r0, r0
    504c:	000af520 	andeq	pc, sl, r0, lsr #10
    5050:	18070100 	stmdane	r7, {r8}
    5054:	0000002c 	andeq	r0, r0, ip, lsr #32
    5058:	00089603 	andeq	r9, r8, r3, lsl #12
    505c:	00782100 	rsbseq	r2, r8, r0, lsl #2
    5060:	2c2c0701 	stccs	7, cr0, [ip], #-4
    5064:	21000000 	mrscs	r0, (UNDEF: 0)
    5068:	0701006e 	streq	r0, [r1, -lr, rrx]
    506c:	00002c38 	andeq	r2, r0, r8, lsr ip
    5070:	a7200000 	strge	r0, [r0, -r0]!
    5074:	0100000a 	tsteq	r0, sl
    5078:	005d1804 	subseq	r1, sp, r4, lsl #16
    507c:	bc030000 	stclt	0, cr0, [r3], {-0}
    5080:	21000008 	tstcs	r0, r8
    5084:	04010078 	streq	r0, [r1], #-120	; 0xffffff88
    5088:	00005d29 	andeq	r5, r0, r9, lsr #26
    508c:	00792100 	rsbseq	r2, r9, r0, lsl #2
    5090:	5d350401 	cfldrspl	mvf0, [r5, #-4]!
    5094:	00000000 	andeq	r0, r0, r0
    5098:	0004ab22 	andeq	sl, r4, r2, lsr #22
    509c:	0004ab00 	andeq	sl, r4, r0, lsl #22
    50a0:	06280200 	strteq	r0, [r8], -r0, lsl #4
    50a4:	00004322 	andeq	r4, r0, r2, lsr #6
    50a8:	00004300 	andeq	r4, r0, r0, lsl #6
    50ac:	066e0200 	strbteq	r0, [lr], -r0, lsl #4
    50b0:	0002aa22 	andeq	sl, r2, r2, lsr #20
    50b4:	0002aa00 	andeq	sl, r2, r0, lsl #20
    50b8:	061d0200 	ldreq	r0, [sp], -r0, lsl #4
    50bc:	00032222 	andeq	r2, r3, r2, lsr #4
    50c0:	00032200 	andeq	r2, r3, r0, lsl #4
    50c4:	07f70200 	ldrbeq	r0, [r7, r0, lsl #4]!
    50c8:	00013700 	andeq	r3, r1, r0, lsl #14
    50cc:	0c000400 	cfstrseq	mvf0, [r0], {-0}
    50d0:	04000015 	streq	r0, [r0], #-21	; 0xffffffeb
    50d4:	00037b01 	andeq	r7, r3, r1, lsl #22
    50d8:	0b440c00 	bleq	11080e0 <__bss_end__+0x10fddc0>
    50dc:	044c0000 	strbeq	r0, [ip], #-0
    50e0:	97d80000 	ldrbls	r0, [r8, r0]
    50e4:	00340000 	eorseq	r0, r4, r0
    50e8:	2d620000 	stclcs	0, cr0, [r2, #-0]
    50ec:	04020000 	streq	r0, [r2], #-0
    50f0:	746e6905 	strbtvc	r6, [lr], #-2309	; 0xfffff6fb
    50f4:	07040300 	streq	r0, [r4, -r0, lsl #6]
    50f8:	0000014d 	andeq	r0, r0, sp, asr #2
    50fc:	23060103 	movwcs	r0, #24835	; 0x6103
    5100:	03000001 	movweq	r0, #1
    5104:	00180502 	andseq	r0, r8, r2, lsl #10
    5108:	04030000 	streq	r0, [r3], #-0
    510c:	0000ce05 	andeq	ip, r0, r5, lsl #28
    5110:	05080300 	streq	r0, [r8, #-768]	; 0xfffffd00
    5114:	000000c9 	andeq	r0, r0, r9, asr #1
    5118:	21080103 	tstcs	r8, r3, lsl #2
    511c:	03000001 	movweq	r0, #1
    5120:	01720702 	cmneq	r2, r2, lsl #14
    5124:	04030000 	streq	r0, [r3], #-0
    5128:	00014807 	andeq	r4, r1, r7, lsl #16
    512c:	07080300 	streq	r0, [r8, -r0, lsl #6]
    5130:	00000143 	andeq	r0, r0, r3, asr #2
    5134:	00002504 	andeq	r2, r0, r4, lsl #10
    5138:	00007a00 	andeq	r7, r0, r0, lsl #20
    513c:	00250500 	eoreq	r0, r5, r0, lsl #10
    5140:	06000000 	streq	r0, [r0], -r0
    5144:	00000027 	andeq	r0, r0, r7, lsr #32
    5148:	860e1c02 	strhi	r1, [lr], -r2, lsl #24
    514c:	07000000 	streq	r0, [r0, -r0]
    5150:	00006b04 	andeq	r6, r0, r4, lsl #22
    5154:	00250400 	eoreq	r0, r5, r0, lsl #8
    5158:	009b0000 	addseq	r0, fp, r0
    515c:	9b050000 	blls	145164 <__bss_end__+0x13ae44>
    5160:	00000000 	andeq	r0, r0, r0
    5164:	00a80407 	adceq	r0, r8, r7, lsl #8
    5168:	01030000 	mrseq	r0, (UNDEF: 3)
    516c:	00012a08 	andeq	r2, r1, r8, lsl #20
    5170:	00a10800 	adceq	r0, r1, r0, lsl #16
    5174:	22060000 	andcs	r0, r6, #0, 0
    5178:	02000005 	andeq	r0, r0, #5, 0
    517c:	00b90e21 	adcseq	r0, r9, r1, lsr #28
    5180:	04070000 	streq	r0, [r7], #-0
    5184:	0000008c 	andeq	r0, r0, ip, lsl #1
    5188:	0005f909 	andeq	pc, r5, r9, lsl #18
    518c:	07040100 	streq	r0, [r4, -r0, lsl #2]
    5190:	00000134 	andeq	r0, r0, r4, lsr r1
    5194:	000097d8 	ldrdeq	r9, [r0], -r8
    5198:	00000034 	andeq	r0, r0, r4, lsr r0
    519c:	01349c01 	teqeq	r4, r1, lsl #24
    51a0:	3f0a0000 	svccc	0x000a0000
    51a4:	0100000b 	tsteq	r0, fp
    51a8:	01341504 	teqeq	r4, r4, lsl #10
    51ac:	50010000 	andpl	r0, r1, r0
    51b0:	6372730b 	cmnvs	r2, #738197504	; 0x2c000000
    51b4:	27040100 	strcs	r0, [r4, -r0, lsl #2]
    51b8:	0000009b 	muleq	r0, fp, r0
    51bc:	00002613 	andeq	r2, r0, r3, lsl r6
    51c0:	0000260f 	andeq	r2, r0, pc, lsl #12
    51c4:	0031730c 	eorseq	r7, r1, ip, lsl #6
    51c8:	340b0501 	strcc	r0, [fp], #-1281	; 0xfffffaff
    51cc:	3e000001 	cdpcc	0, 0, cr0, cr0, cr1, {0}
    51d0:	34000026 	strcc	r0, [r0], #-38	; 0xffffffda
    51d4:	0c000026 	stceq	0, cr0, [r0], {38}	; 0x26
    51d8:	01003273 	tsteq	r0, r3, ror r2
    51dc:	009b1106 	addseq	r1, fp, r6, lsl #2
    51e0:	26830000 	strcs	r0, [r3], r0
    51e4:	267f0000 	ldrbtcs	r0, [pc], -r0
    51e8:	630c0000 	movwvs	r0, #49152	; 0xc000
    51ec:	0a070100 	beq	1c55f4 <__bss_end__+0x1bb2d4>
    51f0:	000000a1 	andeq	r0, r0, r1, lsr #1
    51f4:	000026a7 	andeq	r2, r0, r7, lsr #13
    51f8:	000026a3 	andeq	r2, r0, r3, lsr #13
    51fc:	a1040700 	tstge	r4, r0, lsl #14
    5200:	00000000 	andeq	r0, r0, r0
    5204:	000000f7 	strdeq	r0, [r0], -r7
    5208:	15c20004 	strbne	r0, [r2, #4]
    520c:	01040000 	mrseq	r0, (UNDEF: 4)
    5210:	0000037b 	andeq	r0, r0, fp, ror r3
    5214:	000b540c 	andeq	r5, fp, ip, lsl #8
    5218:	00044c00 	andeq	r4, r4, r0, lsl #24
    521c:	00980c00 	addseq	r0, r8, r0, lsl #24
    5220:	00002c00 	andeq	r2, r0, r0, lsl #24
    5224:	002e6f00 	eoreq	r6, lr, r0, lsl #30
    5228:	05040200 	streq	r0, [r4, #-512]	; 0xfffffe00
    522c:	00746e69 	rsbseq	r6, r4, r9, ror #28
    5230:	4d070403 	cfstrsmi	mvf0, [r7, #-12]
    5234:	03000001 	movweq	r0, #1
    5238:	01230601 			; <UNDEFINED> instruction: 0x01230601
    523c:	02030000 	andeq	r0, r3, #0, 0
    5240:	00001805 	andeq	r1, r0, r5, lsl #16
    5244:	05040300 	streq	r0, [r4, #-768]	; 0xfffffd00
    5248:	000000ce 	andeq	r0, r0, lr, asr #1
    524c:	c9050803 	stmdbgt	r5, {r0, r1, fp}
    5250:	03000000 	movweq	r0, #0
    5254:	01210801 			; <UNDEFINED> instruction: 0x01210801
    5258:	02030000 	andeq	r0, r3, #0, 0
    525c:	00017207 	andeq	r7, r1, r7, lsl #4
    5260:	07040300 	streq	r0, [r4, -r0, lsl #6]
    5264:	00000148 	andeq	r0, r0, r8, asr #2
    5268:	43070803 	movwmi	r0, #30723	; 0x7803
    526c:	04000001 	streq	r0, [r0], #-1
    5270:	00000025 	andeq	r0, r0, r5, lsr #32
    5274:	0000007a 	andeq	r0, r0, sl, ror r0
    5278:	00002505 	andeq	r2, r0, r5, lsl #10
    527c:	27060000 	strcs	r0, [r6, -r0]
    5280:	02000000 	andeq	r0, r0, #0, 0
    5284:	00860e1c 	addeq	r0, r6, ip, lsl lr
    5288:	04070000 	streq	r0, [r7], #-0
    528c:	0000006b 	andeq	r0, r0, fp, rrx
    5290:	00002504 	andeq	r2, r0, r4, lsl #10
    5294:	00009b00 	andeq	r9, r0, r0, lsl #22
    5298:	009b0500 	addseq	r0, fp, r0, lsl #10
    529c:	07000000 	streq	r0, [r0, -r0]
    52a0:	0000a804 	andeq	sl, r0, r4, lsl #16
    52a4:	08010300 	stmdaeq	r1, {r8, r9}
    52a8:	0000012a 	andeq	r0, r0, sl, lsr #2
    52ac:	0000a108 	andeq	sl, r0, r8, lsl #2
    52b0:	05220600 	streq	r0, [r2, #-1536]!	; 0xfffffa00
    52b4:	21020000 	mrscs	r0, (UNDEF: 2)
    52b8:	0000b90e 	andeq	fp, r0, lr, lsl #18
    52bc:	8c040700 	stchi	7, cr0, [r4], {-0}
    52c0:	09000000 	stmdbeq	r0, {}	; <UNPREDICTABLE>
    52c4:	00000600 	andeq	r0, r0, r0, lsl #12
    52c8:	25050301 	strcs	r0, [r5, #-769]	; 0xfffffcff
    52cc:	0c000000 	stceq	0, cr0, [r0], {-0}
    52d0:	2c000098 	stccs	0, cr0, [r0], {152}	; 0x98
    52d4:	01000000 	mrseq	r0, (UNDEF: 0)
    52d8:	00610a9c 	mlseq	r1, ip, sl, r0
    52dc:	9b180301 	blls	605ee8 <__bss_end__+0x5fbbc8>
    52e0:	c9000000 	stmdbgt	r0, {}	; <UNPREDICTABLE>
    52e4:	c5000026 	strgt	r0, [r0, #-38]	; 0xffffffda
    52e8:	0a000026 	beq	5388 <__code_start__-0x2c78>
    52ec:	03010062 	movweq	r0, #4194	; 0x1062
    52f0:	00009b27 	andeq	r9, r0, r7, lsr #22
    52f4:	0026eb00 	eoreq	lr, r6, r0, lsl #22
    52f8:	0026e700 	eoreq	lr, r6, r0, lsl #14
    52fc:	0f000000 	svceq	0x00000000
    5300:	04000001 	streq	r0, [r0], #-1
    5304:	00165100 	andseq	r5, r6, r0, lsl #2
    5308:	7b010400 	blvc	46310 <__bss_end__+0x3bff0>
    530c:	0c000003 	stceq	0, cr0, [r0], {3}
    5310:	00000b64 	andeq	r0, r0, r4, ror #22
    5314:	0000044c 	andeq	r0, r0, ip, asr #8
    5318:	00009838 	andeq	r9, r0, r8, lsr r8
    531c:	00000020 	andeq	r0, r0, r0, lsr #32
    5320:	00002f35 	andeq	r2, r0, r5, lsr pc
    5324:	69050402 	stmdbvs	r5, {r1, sl}
    5328:	0300746e 	movweq	r7, #1134	; 0x46e
    532c:	014d0704 	cmpeq	sp, r4, lsl #14
    5330:	01030000 	mrseq	r0, (UNDEF: 3)
    5334:	00012306 	andeq	r2, r1, r6, lsl #6
    5338:	05020300 	streq	r0, [r2, #-768]	; 0xfffffd00
    533c:	00000018 	andeq	r0, r0, r8, lsl r0
    5340:	ce050403 	cdpgt	4, 0, cr0, cr5, cr3, {0}
    5344:	03000000 	movweq	r0, #0
    5348:	00c90508 	sbceq	r0, r9, r8, lsl #10
    534c:	01030000 	mrseq	r0, (UNDEF: 3)
    5350:	00012108 	andeq	r2, r1, r8, lsl #2
    5354:	07020300 	streq	r0, [r2, -r0, lsl #6]
    5358:	00000172 	andeq	r0, r0, r2, ror r1
    535c:	48070403 	stmdami	r7, {r0, r1, sl}
    5360:	03000001 	movweq	r0, #1
    5364:	01430708 	cmpeq	r3, r8, lsl #14
    5368:	25040000 	strcs	r0, [r4, #-0]
    536c:	7a000000 	bvc	5374 <__code_start__-0x2c8c>
    5370:	05000000 	streq	r0, [r0, #-0]
    5374:	00000025 	andeq	r0, r0, r5, lsr #32
    5378:	00270600 	eoreq	r0, r7, r0, lsl #12
    537c:	1c020000 	stcne	0, cr0, [r2], {-0}
    5380:	0000860e 	andeq	r8, r0, lr, lsl #12
    5384:	6b040700 	blvs	106f8c <__bss_end__+0xfcc6c>
    5388:	04000000 	streq	r0, [r0], #-0
    538c:	00000025 	andeq	r0, r0, r5, lsr #32
    5390:	0000009b 	muleq	r0, fp, r0
    5394:	00009b05 	andeq	r9, r0, r5, lsl #22
    5398:	04070000 	streq	r0, [r7], #-0
    539c:	000000a8 	andeq	r0, r0, r8, lsr #1
    53a0:	2a080103 	bcs	2057b4 <__bss_end__+0x1fb494>
    53a4:	08000001 	stmdaeq	r0, {r0}
    53a8:	000000a1 	andeq	r0, r0, r1, lsr #1
    53ac:	00052206 	andeq	r2, r5, r6, lsl #4
    53b0:	0e210200 	cdpeq	2, 2, cr0, cr1, cr0, {0}
    53b4:	000000b9 	strheq	r0, [r0], -r9
    53b8:	008c0407 	addeq	r0, ip, r7, lsl #8
    53bc:	c5090000 	strgt	r0, [r9, #-0]
    53c0:	01000005 	tsteq	r0, r5
    53c4:	010c0703 	tsteq	ip, r3, lsl #14
    53c8:	98380000 	ldmdals	r8!, {}	; <UNPREDICTABLE>
    53cc:	00200000 	eoreq	r0, r0, r0
    53d0:	9c010000 	stcls	0, cr0, [r1], {-0}
    53d4:	0000010c 	andeq	r0, r0, ip, lsl #2
    53d8:	0031730a 	eorseq	r7, r1, sl, lsl #6
    53dc:	0c150301 	ldceq	3, cr0, [r5], {1}
    53e0:	01000001 	tsteq	r0, r1
    53e4:	32730b50 	rsbscc	r0, r3, #80, 22	; 0x14000
    53e8:	26030100 	strcs	r0, [r3], -r0, lsl #2
    53ec:	0000009b 	muleq	r0, fp, r0
    53f0:	0000270f 	andeq	r2, r0, pc, lsl #14
    53f4:	00002709 	andeq	r2, r0, r9, lsl #14
    53f8:	0100730c 	tsteq	r0, ip, lsl #6
    53fc:	010c1404 	tsteq	ip, r4, lsl #8
    5400:	27400000 	strbcs	r0, [r0, -r0]
    5404:	273a0000 	ldrcs	r0, [sl, -r0]!
    5408:	07000000 	streq	r0, [r0, -r0]
    540c:	0000a104 	andeq	sl, r0, r4, lsl #2
    5410:	014e0000 	mrseq	r0, (UNDEF: 78)
    5414:	00040000 	andeq	r0, r4, r0
    5418:	00001707 	andeq	r1, r0, r7, lsl #14
    541c:	037b0104 	cmneq	fp, #1
    5420:	740c0000 	strvc	r0, [ip], #-0
    5424:	4c00000b 	stcmi	0, cr0, [r0], {11}
    5428:	e0000004 	and	r0, r0, r4
    542c:	00000000 	andeq	r0, r0, r0
    5430:	f9000000 			; <UNDEFINED> instruction: 0xf9000000
    5434:	0200002f 	andeq	r0, r0, #47, 0	; 0x2f
    5438:	6e690504 	cdpvs	5, 6, cr0, cr9, cr4, {0}
    543c:	45030074 	strmi	r0, [r3, #-116]	; 0xffffff8c
    5440:	03000004 	movweq	r0, #4
    5444:	003817d1 	ldrsbteq	r1, [r8], -r1
    5448:	04040000 	streq	r0, [r4], #-0
    544c:	00014d07 	andeq	r4, r1, r7, lsl #26
    5450:	06010400 	streq	r0, [r1], -r0, lsl #8
    5454:	00000123 	andeq	r0, r0, r3, lsr #2
    5458:	18050204 	stmdane	r5, {r2, r9}
    545c:	04000000 	streq	r0, [r0], #-0
    5460:	00ce0504 	sbceq	r0, lr, r4, lsl #10
    5464:	08040000 	stmdaeq	r4, {}	; <UNPREDICTABLE>
    5468:	0000c905 	andeq	ip, r0, r5, lsl #18
    546c:	08010400 	stmdaeq	r1, {sl}
    5470:	00000121 	andeq	r0, r0, r1, lsr #2
    5474:	00005b05 	andeq	r5, r0, r5, lsl #22
    5478:	07020400 	streq	r0, [r2, -r0, lsl #8]
    547c:	00000172 	andeq	r0, r0, r2, ror r1
    5480:	48070404 	stmdami	r7, {r2, sl}
    5484:	04000001 	streq	r0, [r0], #-1
    5488:	01430708 	cmpeq	r3, r8, lsl #14
    548c:	25060000 	strcs	r0, [r6, #-0]
    5490:	8b000000 	blhi	5498 <__code_start__-0x2b68>
    5494:	07000000 	streq	r0, [r0, -r0]
    5498:	00000025 	andeq	r0, r0, r5, lsr #32
    549c:	00270800 	eoreq	r0, r7, r0, lsl #16
    54a0:	1c020000 	stcne	0, cr0, [r2], {-0}
    54a4:	0000970e 	andeq	r9, r0, lr, lsl #14
    54a8:	7c040900 			; <UNDEFINED> instruction: 0x7c040900
    54ac:	06000000 	streq	r0, [r0], -r0
    54b0:	00000025 	andeq	r0, r0, r5, lsr #32
    54b4:	000000ac 	andeq	r0, r0, ip, lsr #1
    54b8:	0000ac07 	andeq	sl, r0, r7, lsl #24
    54bc:	04090000 	streq	r0, [r9], #-0
    54c0:	000000b9 	strheq	r0, [r0], -r9
    54c4:	2a080104 	bcs	2058dc <__bss_end__+0x1fb5bc>
    54c8:	05000001 	streq	r0, [r0, #-1]
    54cc:	000000b2 	strheq	r0, [r0], -r2
    54d0:	00052208 	andeq	r2, r5, r8, lsl #4
    54d4:	0e210200 	cdpeq	2, 2, cr0, cr1, cr0, {0}
    54d8:	000000ca 	andeq	r0, r0, sl, asr #1
    54dc:	009d0409 	addseq	r0, sp, r9, lsl #8
    54e0:	230a0000 	movwcs	r0, #40960	; 0xa000
    54e4:	01000006 	tsteq	r0, r6
    54e8:	00250504 	eoreq	r0, r5, r4, lsl #10
    54ec:	98580000 	ldmdals	r8, {}^	; <UNPREDICTABLE>
    54f0:	002c0000 	eoreq	r0, ip, r0
    54f4:	9c010000 	stcls	0, cr0, [r1], {-0}
    54f8:	0000014b 	andeq	r0, r0, fp, asr #2
    54fc:	31735f0b 	cmncc	r3, fp, lsl #30
    5500:	19040100 	stmdbne	r4, {r8}
    5504:	000000ac 	andeq	r0, r0, ip, lsr #1
    5508:	0000276f 	andeq	r2, r0, pc, ror #14
    550c:	0000276b 	andeq	r2, r0, fp, ror #14
    5510:	32735f0b 	rsbscc	r5, r3, #11, 30	; 0x2c
    5514:	2a040100 	bcs	10591c <__bss_end__+0xfb5fc>
    5518:	000000ac 	andeq	r0, r0, ip, lsr #1
    551c:	00002794 	muleq	r0, r4, r7
    5520:	00002790 	muleq	r0, r0, r7
    5524:	01006e0b 	tsteq	r0, fp, lsl #28
    5528:	002c3604 	eoreq	r3, ip, r4, lsl #12
    552c:	27bb0000 	ldrcs	r0, [fp, r0]!
    5530:	27b50000 	ldrcs	r0, [r5, r0]!
    5534:	730c0000 	movwvc	r0, #49152	; 0xc000
    5538:	05010031 	streq	r0, [r1, #-49]	; 0xffffffcf
    553c:	00014b1a 	andeq	r4, r1, sl, lsl fp
    5540:	0027ee00 	eoreq	lr, r7, r0, lsl #28
    5544:	0027e600 	eoreq	lr, r7, r0, lsl #12
    5548:	32730c00 	rsbscc	r0, r3, #0, 24
    554c:	2c050100 	stfcss	f0, [r5], {-0}
    5550:	0000014b 	andeq	r0, r0, fp, asr #2
    5554:	0000282a 	andeq	r2, r0, sl, lsr #16
    5558:	00002824 	andeq	r2, r0, r4, lsr #16
    555c:	62040900 	andvs	r0, r4, #0, 18
    5560:	00000000 	andeq	r0, r0, r0
    5564:	000000ce 	andeq	r0, r0, lr, asr #1
    5568:	17bb0004 	ldrne	r0, [fp, r4]!
    556c:	01040000 	mrseq	r0, (UNDEF: 4)
    5570:	0000037b 	andeq	r0, r0, fp, ror r3
    5574:	000b850c 	andeq	r8, fp, ip, lsl #10
    5578:	00044c00 	andeq	r4, r4, r0, lsl #24
    557c:	00988400 	addseq	r8, r8, r0, lsl #8
    5580:	00000400 	andeq	r0, r0, r0, lsl #8
    5584:	00311d00 	eorseq	r1, r1, r0, lsl #26
    5588:	05040200 	streq	r0, [r4, #-512]	; 0xfffffe00
    558c:	00746e69 	rsbseq	r6, r4, r9, ror #28
    5590:	4d070403 	cfstrsmi	mvf0, [r7, #-12]
    5594:	03000001 	movweq	r0, #1
    5598:	01230601 			; <UNDEFINED> instruction: 0x01230601
    559c:	02030000 	andeq	r0, r3, #0, 0
    55a0:	00001805 	andeq	r1, r0, r5, lsl #16
    55a4:	05040300 	streq	r0, [r4, #-768]	; 0xfffffd00
    55a8:	000000ce 	andeq	r0, r0, lr, asr #1
    55ac:	c9050803 	stmdbgt	r5, {r0, r1, fp}
    55b0:	03000000 	movweq	r0, #0
    55b4:	01210801 			; <UNDEFINED> instruction: 0x01210801
    55b8:	02030000 	andeq	r0, r3, #0, 0
    55bc:	00017207 	andeq	r7, r1, r7, lsl #4
    55c0:	07040300 	streq	r0, [r4, -r0, lsl #6]
    55c4:	00000148 	andeq	r0, r0, r8, asr #2
    55c8:	43070803 	movwmi	r0, #30723	; 0x7803
    55cc:	04000001 	streq	r0, [r0], #-1
    55d0:	00000025 	andeq	r0, r0, r5, lsr #32
    55d4:	0000007a 	andeq	r0, r0, sl, ror r0
    55d8:	00002505 	andeq	r2, r0, r5, lsl #10
    55dc:	27060000 	strcs	r0, [r6, -r0]
    55e0:	02000000 	andeq	r0, r0, #0, 0
    55e4:	00860e1c 	addeq	r0, r6, ip, lsl lr
    55e8:	04070000 	streq	r0, [r7], #-0
    55ec:	0000006b 	andeq	r0, r0, fp, rrx
    55f0:	00002504 	andeq	r2, r0, r4, lsl #10
    55f4:	00009b00 	andeq	r9, r0, r0, lsl #22
    55f8:	009b0500 	addseq	r0, fp, r0, lsl #10
    55fc:	07000000 	streq	r0, [r0, -r0]
    5600:	0000a804 	andeq	sl, r0, r4, lsl #16
    5604:	08010300 	stmdaeq	r1, {r8, r9}
    5608:	0000012a 	andeq	r0, r0, sl, lsr #2
    560c:	0000a108 	andeq	sl, r0, r8, lsl #2
    5610:	05220600 	streq	r0, [r2, #-1536]!	; 0xfffffa00
    5614:	21020000 	mrscs	r0, (UNDEF: 2)
    5618:	0000b90e 	andeq	fp, r0, lr, lsl #18
    561c:	8c040700 	stchi	7, cr0, [r4], {-0}
    5620:	09000000 	stmdbeq	r0, {}	; <UNPREDICTABLE>
    5624:	000006e8 	andeq	r0, r0, r8, ror #13
    5628:	84060301 	strhi	r0, [r6], #-769	; 0xfffffcff
    562c:	04000098 	streq	r0, [r0], #-152	; 0xffffff68
    5630:	01000000 	mrseq	r0, (UNDEF: 0)
    5634:	Address 0x0000000000005634 is out of bounds.


Disassembly of section .debug_abbrev:

00000000 <.debug_abbrev>:
       0:	25011101 	strcs	r1, [r1, #-257]	; 0xfffffeff
       4:	030b130e 	movweq	r1, #45838	; 0xb30e
       8:	110e1b0e 	tstne	lr, lr, lsl #22
       c:	10061201 	andne	r1, r6, r1, lsl #4
      10:	02000017 	andeq	r0, r0, #23, 0
      14:	0b0b0024 	bleq	2c00ac <__bss_end__+0x2b5d8c>
      18:	08030b3e 	stmdaeq	r3, {r1, r2, r3, r4, r5, r8, r9, fp}
      1c:	24030000 	strcs	r0, [r3], #-0
      20:	3e0b0b00 	vmlacc.f64	d0, d11, d0
      24:	000e030b 	andeq	r0, lr, fp, lsl #6
      28:	00260400 	eoreq	r0, r6, r0, lsl #8
      2c:	00001349 	andeq	r1, r0, r9, asr #6
      30:	27011505 	strcs	r1, [r1, -r5, lsl #10]
      34:	01134919 	tsteq	r3, r9, lsl r9
      38:	06000013 			; <UNDEFINED> instruction: 0x06000013
      3c:	13490005 	movtne	r0, #36869	; 0x9005
      40:	34070000 	strcc	r0, [r7], #-0
      44:	3a0e0300 	bcc	380c4c <__bss_end__+0x37692c>
      48:	390b3b0b 	stmdbcc	fp, {r0, r1, r3, r8, r9, fp, ip, sp}
      4c:	3f13490b 	svccc	0x0013490b
      50:	00193c19 	andseq	r3, r9, r9, lsl ip
      54:	000f0800 	andeq	r0, pc, r0, lsl #16
      58:	13490b0b 	movtne	r0, #39691	; 0x9b0b
      5c:	04090000 	streq	r0, [r9], #-0
      60:	0b0b3e01 	bleq	2cf86c <__bss_end__+0x2c554c>
      64:	3a13490b 	bcc	4d2498 <__bss_end__+0x4c8178>
      68:	390b3b0b 	stmdbcc	fp, {r0, r1, r3, r8, r9, fp, ip, sp}
      6c:	0013010b 	andseq	r0, r3, fp, lsl #2
      70:	00280a00 	eoreq	r0, r8, r0, lsl #20
      74:	0b1c0803 	bleq	702088 <__bss_end__+0x6f7d68>
      78:	280b0000 	stmdacs	fp, {}	; <UNPREDICTABLE>
      7c:	1c0e0300 	stcne	3, cr0, [lr], {-0}
      80:	0c000005 	stceq	0, cr0, [r0], {5}
      84:	0e030034 	mcreq	0, 0, r0, cr3, cr4, {1}
      88:	0b3b0b3a 	bleq	ec2d78 <__bss_end__+0xeb8a58>
      8c:	13490b39 	movtne	r0, #39737	; 0x9b39
      90:	00000b1c 	andeq	r0, r0, ip, lsl fp
      94:	0300280d 	movweq	r2, #2061	; 0x80d
      98:	000b1c0e 	andeq	r1, fp, lr, lsl #24
      9c:	012e0e00 			; <UNDEFINED> instruction: 0x012e0e00
      a0:	0e03193f 			; <UNDEFINED> instruction: 0x0e03193f
      a4:	0b3b0b3a 	bleq	ec2d94 <__bss_end__+0xeb8a74>
      a8:	19270b39 	stmdbne	r7!, {r0, r3, r4, r5, r8, r9, fp}
      ac:	06120111 			; <UNDEFINED> instruction: 0x06120111
      b0:	42971840 	addsmi	r1, r7, #64, 16	; 0x400000
      b4:	00130119 	andseq	r0, r3, r9, lsl r1
      b8:	82890f00 	addhi	r0, r9, #0, 30
      bc:	01110001 	tsteq	r1, r1
      c0:	00001331 	andeq	r1, r0, r1, lsr r3
      c4:	01828910 	orreq	r8, r2, r0, lsl r9
      c8:	31011101 	tstcc	r1, r1, lsl #2
      cc:	00130113 	andseq	r0, r3, r3, lsl r1
      d0:	828a1100 	addhi	r1, sl, #0
      d4:	18020001 	stmdane	r2, {r0}
      d8:	00184291 	mulseq	r8, r1, r2
      dc:	82891200 	addhi	r1, r9, #0, 4
      e0:	01110101 	tsteq	r1, r1, lsl #2
      e4:	00001331 	andeq	r1, r0, r1, lsr r3
      e8:	03012e13 	movweq	r2, #7699	; 0x1e13
      ec:	3b0b3a0e 	blcc	2ce92c <__bss_end__+0x2c460c>
      f0:	270b390b 	strcs	r3, [fp, -fp, lsl #18]
      f4:	12011119 	andne	r1, r1, #1073741830	; 0x40000006
      f8:	97184006 	ldrls	r4, [r8, -r6]
      fc:	13011942 	movwne	r1, #6466	; 0x1942
     100:	05140000 	ldreq	r0, [r4, #-0]
     104:	3a0e0300 	bcc	380d0c <__bss_end__+0x3769ec>
     108:	390b3b0b 	stmdbcc	fp, {r0, r1, r3, r8, r9, fp, ip, sp}
     10c:	0213490b 	andseq	r4, r3, #180224	; 0x2c000
     110:	1742b717 	smlaldne	fp, r2, r7, r7
     114:	34150000 	ldrcc	r0, [r5], #-0
     118:	3a080300 	bcc	200d20 <__bss_end__+0x1f6a00>
     11c:	390b3b0b 	stmdbcc	fp, {r0, r1, r3, r8, r9, fp, ip, sp}
     120:	0213490b 	andseq	r4, r3, #180224	; 0x2c000
     124:	1742b717 	smlaldne	fp, r2, r7, r7
     128:	34160000 	ldrcc	r0, [r6], #-0
     12c:	3a0e0300 	bcc	380d34 <__bss_end__+0x376a14>
     130:	390b3b0b 	stmdbcc	fp, {r0, r1, r3, r8, r9, fp, ip, sp}
     134:	0213490b 	andseq	r4, r3, #180224	; 0x2c000
     138:	1742b717 	smlaldne	fp, r2, r7, r7
     13c:	34170000 	ldrcc	r0, [r7], #-0
     140:	490e0300 	stmdbmi	lr, {r8, r9}
     144:	02193413 	andseq	r3, r9, #318767104	; 0x13000000
     148:	18000018 	stmdane	r0, {r3, r4}
     14c:	0111010b 	tsteq	r1, fp, lsl #2
     150:	13010612 	movwne	r0, #5650	; 0x1612
     154:	1d190000 	ldcne	0, cr0, [r9, #-0]
     158:	52133101 	andspl	r3, r3, #1073741824	; 0x40000000
     15c:	0542b801 	strbeq	fp, [r2, #-2049]	; 0xfffff7ff
     160:	06120111 			; <UNDEFINED> instruction: 0x06120111
     164:	0b590b58 	bleq	1642ecc <__bss_end__+0x1638bac>
     168:	13010b57 	movwne	r0, #6999	; 0x1b57
     16c:	051a0000 	ldreq	r0, [sl, #-0]
     170:	02133100 	andseq	r3, r3, #0
     174:	1742b717 	smlaldne	fp, r2, r7, r7
     178:	341b0000 	ldrcc	r0, [fp], #-0
     17c:	02133100 	andseq	r3, r3, #0
     180:	1742b717 	smlaldne	fp, r2, r7, r7
     184:	0b1c0000 	bleq	70018c <__bss_end__+0x6f5e6c>
     188:	11133101 	tstne	r3, r1, lsl #2
     18c:	00061201 	andeq	r1, r6, r1, lsl #4
     190:	82891d00 	addhi	r1, r9, #0, 26
     194:	01110101 	tsteq	r1, r1, lsl #2
     198:	31194295 			; <UNDEFINED> instruction: 0x31194295
     19c:	00130113 	andseq	r0, r3, r3, lsl r1
     1a0:	01011e00 	tsteq	r1, r0, lsl #28
     1a4:	13011349 	movwne	r1, #4937	; 0x1349
     1a8:	211f0000 	tstcs	pc, r0
     1ac:	2f134900 	svccs	0x00134900
     1b0:	2000000b 	andcs	r0, r0, fp
     1b4:	08030005 	stmdaeq	r3, {r0, r2}
     1b8:	0b3b0b3a 	bleq	ec2ea8 <__bss_end__+0xeb8b88>
     1bc:	13490b39 	movtne	r0, #39737	; 0x9b39
     1c0:	42b71702 	adcsmi	r1, r7, #524288	; 0x80000
     1c4:	21000017 	tstcs	r0, r7, lsl r0
     1c8:	1331011d 	teqne	r1, #1073741831	; 0x40000007
     1cc:	42b80152 	adcsmi	r0, r8, #-2147483628	; 0x80000014
     1d0:	58175505 	ldmdapl	r7, {r0, r2, r8, sl, ip, lr}
     1d4:	570b590b 	strpl	r5, [fp, -fp, lsl #18]
     1d8:	0013010b 	andseq	r0, r3, fp, lsl #2
     1dc:	011d2200 	tsteq	sp, r0, lsl #4
     1e0:	01521331 	cmpeq	r2, r1, lsr r3
     1e4:	550542b8 	strpl	r4, [r5, #-696]	; 0xfffffd48
     1e8:	590b5817 	stmdbpl	fp, {r0, r1, r2, r4, fp, ip, lr}
     1ec:	000b570b 	andeq	r5, fp, fp, lsl #14
     1f0:	00342300 	eorseq	r2, r4, r0, lsl #6
     1f4:	18021331 	stmdane	r2, {r0, r4, r5, r8, r9, ip}
     1f8:	34240000 	strtcc	r0, [r4], #-0
     1fc:	00133100 	andseq	r3, r3, r0, lsl #2
     200:	012e2500 			; <UNDEFINED> instruction: 0x012e2500
     204:	0b3a0e03 	bleq	e83a18 <__bss_end__+0xe796f8>
     208:	0b390b3b 	bleq	e42efc <__bss_end__+0xe38bdc>
     20c:	13011927 	movwne	r1, #6439	; 0x1927
     210:	05260000 	streq	r0, [r6, #-0]!
     214:	3a080300 	bcc	200e1c <__bss_end__+0x1f6afc>
     218:	390b3b0b 	stmdbcc	fp, {r0, r1, r3, r8, r9, fp, ip, sp}
     21c:	0013490b 	andseq	r4, r3, fp, lsl #18
     220:	010b2700 	tsteq	fp, r0, lsl #14
     224:	34280000 	strtcc	r0, [r8], #-0
     228:	3a080300 	bcc	200e30 <__bss_end__+0x1f6b10>
     22c:	390b3b0b 	stmdbcc	fp, {r0, r1, r3, r8, r9, fp, ip, sp}
     230:	0013490b 	andseq	r4, r3, fp, lsl #18
     234:	012e2900 			; <UNDEFINED> instruction: 0x012e2900
     238:	0b3a0e03 	bleq	e83a4c <__bss_end__+0xe7972c>
     23c:	0b390b3b 	bleq	e42f30 <__bss_end__+0xe38c10>
     240:	0b201927 	bleq	8066e4 <__bss_end__+0x7fc3c4>
     244:	00001301 	andeq	r1, r0, r1, lsl #6
     248:	0300342a 	movweq	r3, #1066	; 0x42a
     24c:	3b0b3a0e 	blcc	2cea8c <__bss_end__+0x2c476c>
     250:	490b390b 	stmdbmi	fp, {r0, r1, r3, r8, fp, ip, sp}
     254:	2b000013 	blcs	2a8 <__code_start__-0x7d58>
     258:	1301010b 	movwne	r0, #4363	; 0x110b
     25c:	152c0000 	strne	r0, [ip, #-0]!
     260:	01192701 	tsteq	r9, r1, lsl #14
     264:	2d000013 	stccs	0, cr0, [r0, #-76]	; 0xffffffb4
     268:	0803012e 	stmdaeq	r3, {r1, r2, r3, r5, r8}
     26c:	0b3b0b3a 	bleq	ec2f5c <__bss_end__+0xeb8c3c>
     270:	19270b39 	stmdbne	r7!, {r0, r3, r4, r5, r8, r9, fp}
     274:	06120111 			; <UNDEFINED> instruction: 0x06120111
     278:	42971840 	addsmi	r1, r7, #64, 16	; 0x400000
     27c:	00130119 	andseq	r0, r3, r9, lsl r1
     280:	00052e00 	andeq	r2, r5, r0, lsl #28
     284:	0b3a0e03 	bleq	e83a98 <__bss_end__+0xe79778>
     288:	0b390b3b 	bleq	e42f7c <__bss_end__+0xe38c5c>
     28c:	00001349 	andeq	r1, r0, r9, asr #6
     290:	31012e2f 	tstcc	r1, pc, lsr #28
     294:	12011113 	andne	r1, r1, #-1073741820	; 0xc0000004
     298:	97184006 	ldrls	r4, [r8, -r6]
     29c:	13011942 	movwne	r1, #6466	; 0x1942
     2a0:	0b300000 	bleq	c002a8 <__bss_end__+0xbf5f88>
     2a4:	11133101 	tstne	r3, r1, lsl #2
     2a8:	01061201 	tsteq	r6, r1, lsl #4
     2ac:	31000013 	tstcc	r0, r3, lsl r0
     2b0:	01018289 	smlabbeq	r1, r9, r2, r8
     2b4:	42930111 	addsmi	r0, r3, #1073741828	; 0x40000004
     2b8:	00130118 	andseq	r0, r3, r8, lsl r1
     2bc:	002e3200 	eoreq	r3, lr, r0, lsl #4
     2c0:	193c193f 	ldmdbne	ip!, {r0, r1, r2, r3, r4, r5, r8, fp, ip}
     2c4:	0e030e6e 	cdpeq	14, 0, cr0, cr3, cr14, {3}
     2c8:	0b3b0b3a 	bleq	ec2fb8 <__bss_end__+0xeb8c98>
     2cc:	00000b39 	andeq	r0, r0, r9, lsr fp
     2d0:	01110100 	tsteq	r1, r0, lsl #2
     2d4:	0b130e25 	bleq	4c3b70 <__bss_end__+0x4b9850>
     2d8:	0e1b0e03 	cdpeq	14, 1, cr0, cr11, cr3, {0}
     2dc:	06120111 			; <UNDEFINED> instruction: 0x06120111
     2e0:	00001710 	andeq	r1, r0, r0, lsl r7
     2e4:	0b002402 	bleq	92f4 <uart_init+0x7c>
     2e8:	030b3e0b 	movweq	r3, #48651	; 0xbe0b
     2ec:	03000008 	movweq	r0, #8
     2f0:	0b0b0024 	bleq	2c0388 <__bss_end__+0x2b6068>
     2f4:	0e030b3e 	vmoveq.16	d3[0], r0
     2f8:	26040000 	strcs	r0, [r4], -r0
     2fc:	00134900 	andseq	r4, r3, r0, lsl #18
     300:	00160500 	andseq	r0, r6, r0, lsl #10
     304:	0b3a0e03 	bleq	e83b18 <__bss_end__+0xe797f8>
     308:	0b390b3b 	bleq	e42ffc <__bss_end__+0xe38cdc>
     30c:	00001349 	andeq	r1, r0, r9, asr #6
     310:	27011506 	strcs	r1, [r1, -r6, lsl #10]
     314:	01134919 	tsteq	r3, r9, lsl r9
     318:	07000013 	smladeq	r0, r3, r0, r0
     31c:	13490005 	movtne	r0, #36869	; 0x9005
     320:	34080000 	strcc	r0, [r8], #-0
     324:	3a0e0300 	bcc	380f2c <__bss_end__+0x376c0c>
     328:	390b3b0b 	stmdbcc	fp, {r0, r1, r3, r8, r9, fp, ip, sp}
     32c:	3f13490b 	svccc	0x0013490b
     330:	00193c19 	andseq	r3, r9, r9, lsl ip
     334:	000f0900 	andeq	r0, pc, r0, lsl #18
     338:	13490b0b 	movtne	r0, #39691	; 0x9b0b
     33c:	130a0000 	movwne	r0, #40960	; 0xa000
     340:	0b0e0301 	bleq	380f4c <__bss_end__+0x376c2c>
     344:	3b0b3a0b 	blcc	2ceb78 <__bss_end__+0x2c4858>
     348:	010b390b 	tsteq	fp, fp, lsl #18
     34c:	0b000013 	bleq	3a0 <__code_start__-0x7c60>
     350:	0803000d 	stmdaeq	r3, {r0, r2, r3}
     354:	0b3b0b3a 	bleq	ec3044 <__bss_end__+0xeb8d24>
     358:	13490b39 	movtne	r0, #39737	; 0x9b39
     35c:	00000b38 	andeq	r0, r0, r8, lsr fp
     360:	03000d0c 	movweq	r0, #3340	; 0xd0c
     364:	3b0b3a0e 	blcc	2ceba4 <__bss_end__+0x2c4884>
     368:	490b390b 	stmdbmi	fp, {r0, r1, r3, r8, fp, ip, sp}
     36c:	000b3813 	andeq	r3, fp, r3, lsl r8
     370:	00340d00 	eorseq	r0, r4, r0, lsl #26
     374:	0b3a0e03 	bleq	e83b88 <__bss_end__+0xe79868>
     378:	0b390b3b 	bleq	e4306c <__bss_end__+0xe38d4c>
     37c:	0b1c1349 	bleq	7050a8 <__bss_end__+0x6fad88>
     380:	010e0000 	mrseq	r0, (UNDEF: 14)
     384:	01134901 	tsteq	r3, r1, lsl #18
     388:	0f000013 	svceq	0x00000013
     38c:	13490021 	movtne	r0, #36897	; 0x9021
     390:	2e100000 	cdpcs	0, 1, cr0, cr0, cr0, {0}
     394:	03193f01 	tsteq	r9, #1, 30
     398:	3b0b3a0e 	blcc	2cebd8 <__bss_end__+0x2c48b8>
     39c:	270b390b 	strcs	r3, [fp, -fp, lsl #18]
     3a0:	12011119 	andne	r1, r1, #1073741830	; 0x40000006
     3a4:	97184006 	ldrls	r4, [r8, -r6]
     3a8:	13011942 	movwne	r1, #6466	; 0x1942
     3ac:	05110000 	ldreq	r0, [r1, #-0]
     3b0:	3a080300 	bcc	200fb8 <__bss_end__+0x1f6c98>
     3b4:	390b3b0b 	stmdbcc	fp, {r0, r1, r3, r8, r9, fp, ip, sp}
     3b8:	0213490b 	andseq	r4, r3, #180224	; 0x2c000
     3bc:	1742b717 	smlaldne	fp, r2, r7, r7
     3c0:	05120000 	ldreq	r0, [r2, #-0]
     3c4:	3a080300 	bcc	200fcc <__bss_end__+0x1f6cac>
     3c8:	390b3b0b 	stmdbcc	fp, {r0, r1, r3, r8, r9, fp, ip, sp}
     3cc:	0213490b 	andseq	r4, r3, #180224	; 0x2c000
     3d0:	13000018 	movwne	r0, #24
     3d4:	0e030034 	mcreq	0, 0, r0, cr3, cr4, {1}
     3d8:	19341349 	ldmdbne	r4!, {r0, r3, r6, r8, r9, ip}
     3dc:	00001802 	andeq	r1, r0, r2, lsl #16
     3e0:	01828914 	orreq	r8, r2, r4, lsl r9
     3e4:	31011101 	tstcc	r1, r1, lsl #2
     3e8:	00130113 	andseq	r0, r3, r3, lsl r1
     3ec:	828a1500 	addhi	r1, sl, #0, 10
     3f0:	18020001 	stmdane	r2, {r0}
     3f4:	00184291 	mulseq	r8, r1, r2
     3f8:	82891600 	addhi	r1, r9, #0, 12
     3fc:	01110001 	tsteq	r1, r1
     400:	00001331 	andeq	r1, r0, r1, lsr r3
     404:	49002117 	stmdbmi	r0, {r0, r1, r2, r4, r8, sp}
     408:	000b2f13 	andeq	r2, fp, r3, lsl pc
     40c:	82891800 	addhi	r1, r9, #0, 16
     410:	01110101 	tsteq	r1, r1, lsl #2
     414:	00001331 	andeq	r1, r0, r1, lsr r3
     418:	55010b19 	strpl	r0, [r1, #-2841]	; 0xfffff4e7
     41c:	00130117 	andseq	r0, r3, r7, lsl r1
     420:	00341a00 	eorseq	r1, r4, r0, lsl #20
     424:	0b3a0803 	bleq	e82438 <__bss_end__+0xe78118>
     428:	0b390b3b 	bleq	e4311c <__bss_end__+0xe38dfc>
     42c:	0b1c1349 	bleq	705158 <__bss_end__+0x6fae38>
     430:	8a1b0000 	bhi	6c0438 <__bss_end__+0x6b6118>
     434:	31000182 	smlabbcc	r0, r2, r1, r0
     438:	18429113 	stmdane	r2, {r0, r1, r4, r8, ip, pc}^
     43c:	1d1c0000 	ldcne	0, cr0, [ip, #-0]
     440:	52133101 	andspl	r3, r3, #1073741824	; 0x40000000
     444:	0b42b801 	bleq	10ae450 <__bss_end__+0x10a4130>
     448:	0b581755 	bleq	16061a4 <__bss_end__+0x15fbe84>
     44c:	0b570b59 	bleq	15c31b8 <__bss_end__+0x15b8e98>
     450:	051d0000 	ldreq	r0, [sp, #-0]
     454:	02133100 	andseq	r3, r3, #0
     458:	1742b717 	smlaldne	fp, r2, r7, r7
     45c:	1d1e0000 	ldcne	0, cr0, [lr, #-0]
     460:	52133101 	andspl	r3, r3, #1073741824	; 0x40000000
     464:	0b42b801 	bleq	10ae470 <__bss_end__+0x10a4150>
     468:	06120111 			; <UNDEFINED> instruction: 0x06120111
     46c:	0b590b58 	bleq	16431d4 <__bss_end__+0x1638eb4>
     470:	00000b57 	andeq	r0, r0, r7, asr fp
     474:	3f012e1f 	svccc	0x00012e1f
     478:	3a0e0319 	bcc	3810e4 <__bss_end__+0x376dc4>
     47c:	390b3b0b 	stmdbcc	fp, {r0, r1, r3, r8, r9, fp, ip, sp}
     480:	4919270b 	ldmdbmi	r9, {r0, r1, r3, r8, r9, sl, sp}
     484:	12011113 	andne	r1, r1, #-1073741820	; 0xc0000004
     488:	97184006 	ldrls	r4, [r8, -r6]
     48c:	13011942 	movwne	r1, #6466	; 0x1942
     490:	05200000 	streq	r0, [r0, #-0]!
     494:	3a0e0300 	bcc	38109c <__bss_end__+0x376d7c>
     498:	390b3b0b 	stmdbcc	fp, {r0, r1, r3, r8, r9, fp, ip, sp}
     49c:	0213490b 	andseq	r4, r3, #180224	; 0x2c000
     4a0:	1742b717 	smlaldne	fp, r2, r7, r7
     4a4:	34210000 	strtcc	r0, [r1], #-0
     4a8:	3a080300 	bcc	2010b0 <__bss_end__+0x1f6d90>
     4ac:	390b3b0b 	stmdbcc	fp, {r0, r1, r3, r8, r9, fp, ip, sp}
     4b0:	0213490b 	andseq	r4, r3, #180224	; 0x2c000
     4b4:	1742b717 	smlaldne	fp, r2, r7, r7
     4b8:	34220000 	strtcc	r0, [r2], #-0
     4bc:	3a0e0300 	bcc	3810c4 <__bss_end__+0x376da4>
     4c0:	390b3b0b 	stmdbcc	fp, {r0, r1, r3, r8, r9, fp, ip, sp}
     4c4:	0213490b 	andseq	r4, r3, #180224	; 0x2c000
     4c8:	1742b717 	smlaldne	fp, r2, r7, r7
     4cc:	2e230000 	cdpcs	0, 2, cr0, cr3, cr0, {0}
     4d0:	03193f01 	tsteq	r9, #1, 30
     4d4:	3b0b3a0e 	blcc	2ced14 <__bss_end__+0x2c49f4>
     4d8:	270b390b 	strcs	r3, [fp, -fp, lsl #18]
     4dc:	010b2019 	tsteq	fp, r9, lsl r0
     4e0:	24000013 	strcs	r0, [r0], #-19	; 0xffffffed
     4e4:	08030005 	stmdaeq	r3, {r0, r2}
     4e8:	0b3b0b3a 	bleq	ec31d8 <__bss_end__+0xeb8eb8>
     4ec:	13490b39 	movtne	r0, #39737	; 0x9b39
     4f0:	2e250000 	cdpcs	0, 2, cr0, cr5, cr0, {0}
     4f4:	3a0e0301 	bcc	381100 <__bss_end__+0x376de0>
     4f8:	390b3b0b 	stmdbcc	fp, {r0, r1, r3, r8, r9, fp, ip, sp}
     4fc:	2019270b 	andscs	r2, r9, fp, lsl #14
     500:	0013010b 	andseq	r0, r3, fp, lsl #2
     504:	012e2600 			; <UNDEFINED> instruction: 0x012e2600
     508:	01111331 	tsteq	r1, r1, lsr r3
     50c:	18400612 	stmdane	r0, {r1, r4, r9, sl}^
     510:	01194297 			; <UNDEFINED> instruction: 0x01194297
     514:	27000013 	smladcs	r0, r3, r0, r0
     518:	193f002e 	ldmdbne	pc!, {r1, r2, r3, r5}	; <UNPREDICTABLE>
     51c:	0e6e193c 			; <UNDEFINED> instruction: 0x0e6e193c
     520:	0b3a0e03 	bleq	e83d34 <__bss_end__+0xe79a14>
     524:	0b390b3b 	bleq	e43218 <__bss_end__+0xe38ef8>
     528:	01000000 	mrseq	r0, (UNDEF: 0)
     52c:	0e250111 	mcreq	1, 1, r0, cr5, cr1, {0}
     530:	0e030b13 	vmoveq.32	d3[0], r0
     534:	01110e1b 	tsteq	r1, fp, lsl lr
     538:	17100612 			; <UNDEFINED> instruction: 0x17100612
     53c:	24020000 	strcs	r0, [r2], #-0
     540:	3e0b0b00 	vmlacc.f64	d0, d11, d0
     544:	0008030b 	andeq	r0, r8, fp, lsl #6
     548:	00160300 	andseq	r0, r6, r0, lsl #6
     54c:	0b3a0e03 	bleq	e83d60 <__bss_end__+0xe79a40>
     550:	0b390b3b 	bleq	e43244 <__bss_end__+0xe38f24>
     554:	00001349 	andeq	r1, r0, r9, asr #6
     558:	0b002404 	bleq	9570 <kmalloc_notzero+0x24>
     55c:	030b3e0b 	movweq	r3, #48651	; 0xbe0b
     560:	0500000e 	streq	r0, [r0, #-14]
     564:	19270115 	stmdbne	r7!, {r0, r2, r4, r8}
     568:	13011349 	movwne	r1, #4937	; 0x1349
     56c:	05060000 	streq	r0, [r6, #-0]
     570:	00134900 	andseq	r4, r3, r0, lsl #18
     574:	00340700 	eorseq	r0, r4, r0, lsl #14
     578:	0b3a0e03 	bleq	e83d8c <__bss_end__+0xe79a6c>
     57c:	0b390b3b 	bleq	e43270 <__bss_end__+0xe38f50>
     580:	193f1349 	ldmdbne	pc!, {r0, r3, r6, r8, r9, ip}	; <UNPREDICTABLE>
     584:	0000193c 	andeq	r1, r0, ip, lsr r9
     588:	0b000f08 	bleq	41b0 <__code_start__-0x3e50>
     58c:	0013490b 	andseq	r4, r3, fp, lsl #18
     590:	00260900 	eoreq	r0, r6, r0, lsl #18
     594:	00001349 	andeq	r1, r0, r9, asr #6
     598:	3f012e0a 	svccc	0x00012e0a
     59c:	3a0e0319 	bcc	381208 <__bss_end__+0x376ee8>
     5a0:	390b3b0b 	stmdbcc	fp, {r0, r1, r3, r8, r9, fp, ip, sp}
     5a4:	4919270b 	ldmdbmi	r9, {r0, r1, r3, r8, r9, sl, sp}
     5a8:	12011113 	andne	r1, r1, #-1073741820	; 0xc0000004
     5ac:	97184006 	ldrls	r4, [r8, -r6]
     5b0:	13011942 	movwne	r1, #6466	; 0x1942
     5b4:	050b0000 	streq	r0, [fp, #-0]
     5b8:	3a080300 	bcc	2011c0 <__bss_end__+0x1f6ea0>
     5bc:	390b3b0b 	stmdbcc	fp, {r0, r1, r3, r8, r9, fp, ip, sp}
     5c0:	0213490b 	andseq	r4, r3, #180224	; 0x2c000
     5c4:	0c000018 	stceq	0, cr0, [r0], {24}
     5c8:	08030005 	stmdaeq	r3, {r0, r2}
     5cc:	0b3b0b3a 	bleq	ec32bc <__bss_end__+0xeb8f9c>
     5d0:	13490b39 	movtne	r0, #39737	; 0x9b39
     5d4:	42b71702 	adcsmi	r1, r7, #524288	; 0x80000
     5d8:	0d000017 	stceq	0, cr0, [r0, #-92]	; 0xffffffa4
     5dc:	08030034 	stmdaeq	r3, {r2, r4, r5}
     5e0:	0b3b0b3a 	bleq	ec32d0 <__bss_end__+0xeb8fb0>
     5e4:	13490b39 	movtne	r0, #39737	; 0x9b39
     5e8:	42b71702 	adcsmi	r1, r7, #524288	; 0x80000
     5ec:	0e000017 	mcreq	0, 0, r0, cr0, cr7, {0}
     5f0:	0b0b000f 	bleq	2c0634 <__bss_end__+0x2b6314>
     5f4:	01000000 	mrseq	r0, (UNDEF: 0)
     5f8:	0e250111 	mcreq	1, 1, r0, cr5, cr1, {0}
     5fc:	0e030b13 	vmoveq.32	d3[0], r0
     600:	01110e1b 	tsteq	r1, fp, lsl lr
     604:	17100612 			; <UNDEFINED> instruction: 0x17100612
     608:	16020000 	strne	r0, [r2], -r0
     60c:	3a0e0300 	bcc	381214 <__bss_end__+0x376ef4>
     610:	390b3b0b 	stmdbcc	fp, {r0, r1, r3, r8, r9, fp, ip, sp}
     614:	0013490b 	andseq	r4, r3, fp, lsl #18
     618:	01130300 	tsteq	r3, r0, lsl #6
     61c:	0b0b0e03 	bleq	2c3e30 <__bss_end__+0x2b9b10>
     620:	0b3b0b3a 	bleq	ec3310 <__bss_end__+0xeb8ff0>
     624:	00001301 	andeq	r1, r0, r1, lsl #6
     628:	03000d04 	movweq	r0, #3332	; 0xd04
     62c:	3813490e 	ldmdacc	r3, {r1, r2, r3, r8, fp, lr}
     630:	0019340b 	andseq	r3, r9, fp, lsl #8
     634:	000f0500 	andeq	r0, pc, r0, lsl #10
     638:	00000b0b 	andeq	r0, r0, fp, lsl #22
     63c:	0b002406 	bleq	965c <kmalloc_aligned+0x14>
     640:	030b3e0b 	movweq	r3, #48651	; 0xbe0b
     644:	07000008 	streq	r0, [r0, -r8]
     648:	0b0b0024 	bleq	2c06e0 <__bss_end__+0x2b63c0>
     64c:	0e030b3e 	vmoveq.16	d3[0], r0
     650:	15080000 	strne	r0, [r8, #-0]
     654:	49192701 	ldmdbmi	r9, {r0, r8, r9, sl, sp}
     658:	00130113 	andseq	r0, r3, r3, lsl r1
     65c:	00050900 	andeq	r0, r5, r0, lsl #18
     660:	00001349 	andeq	r1, r0, r9, asr #6
     664:	0300340a 	movweq	r3, #1034	; 0x40a
     668:	3b0b3a0e 	blcc	2ceea8 <__bss_end__+0x2c4b88>
     66c:	490b390b 	stmdbmi	fp, {r0, r1, r3, r8, fp, ip, sp}
     670:	3c193f13 	ldccc	15, cr3, [r9], {19}
     674:	0b000019 	bleq	6e0 <__code_start__-0x7920>
     678:	0b0b000f 	bleq	2c06bc <__bss_end__+0x2b639c>
     67c:	00001349 	andeq	r1, r0, r9, asr #6
     680:	4900260c 	stmdbmi	r0, {r2, r3, r9, sl, sp}
     684:	0d000013 	stceq	0, cr0, [r0, #-76]	; 0xffffffb4
     688:	193f012e 	ldmdbne	pc!, {r1, r2, r3, r5, r8}	; <UNPREDICTABLE>
     68c:	0b3a0e03 	bleq	e83ea0 <__bss_end__+0xe79b80>
     690:	0b390b3b 	bleq	e43384 <__bss_end__+0xe39064>
     694:	13491927 	movtne	r1, #39207	; 0x9927
     698:	06120111 			; <UNDEFINED> instruction: 0x06120111
     69c:	42971840 	addsmi	r1, r7, #64, 16	; 0x400000
     6a0:	00130119 	andseq	r0, r3, r9, lsl r1
     6a4:	00050e00 	andeq	r0, r5, r0, lsl #28
     6a8:	0b3a0803 	bleq	e826bc <__bss_end__+0xe7839c>
     6ac:	0b390b3b 	bleq	e433a0 <__bss_end__+0xe39080>
     6b0:	18021349 	stmdane	r2, {r0, r3, r6, r8, r9, ip}
     6b4:	180f0000 	stmdane	pc, {}	; <UNPREDICTABLE>
     6b8:	10000000 	andne	r0, r0, r0
     6bc:	08030034 	stmdaeq	r3, {r2, r4, r5}
     6c0:	0b3b0b3a 	bleq	ec33b0 <__bss_end__+0xeb9090>
     6c4:	13490b39 	movtne	r0, #39737	; 0x9b39
     6c8:	00001802 	andeq	r1, r0, r2, lsl #16
     6cc:	03003411 	movweq	r3, #1041	; 0x411
     6d0:	3b0b3a0e 	blcc	2cef10 <__bss_end__+0x2c4bf0>
     6d4:	490b390b 	stmdbmi	fp, {r0, r1, r3, r8, fp, ip, sp}
     6d8:	00180213 	andseq	r0, r8, r3, lsl r2
     6dc:	00341200 	eorseq	r1, r4, r0, lsl #4
     6e0:	0b3a0803 	bleq	e826f4 <__bss_end__+0xe783d4>
     6e4:	0b390b3b 	bleq	e433d8 <__bss_end__+0xe390b8>
     6e8:	17021349 	strne	r1, [r2, -r9, asr #6]
     6ec:	001742b7 			; <UNDEFINED> instruction: 0x001742b7
     6f0:	82891300 	addhi	r1, r9, #0, 6
     6f4:	01110101 	tsteq	r1, r1, lsl #2
     6f8:	13011331 	movwne	r1, #4913	; 0x1331
     6fc:	8a140000 	bhi	500704 <__bss_end__+0x4f63e4>
     700:	02000182 	andeq	r0, r0, #-2147483616	; 0x80000020
     704:	18429118 	stmdane	r2, {r3, r4, r8, ip, pc}^
     708:	89150000 	ldmdbhi	r5, {}	; <UNPREDICTABLE>
     70c:	11010182 	smlabbne	r1, r2, r1, r0
     710:	16000001 	strne	r0, [r0], -r1
     714:	13490101 	movtne	r0, #37121	; 0x9101
     718:	00001301 	andeq	r1, r0, r1, lsl #6
     71c:	49002117 	stmdbmi	r0, {r0, r1, r2, r4, r8, sp}
     720:	00052f13 	andeq	r2, r5, r3, lsl pc
     724:	002e1800 	eoreq	r1, lr, r0, lsl #16
     728:	193c193f 	ldmdbne	ip!, {r0, r1, r2, r3, r4, r5, r8, fp, ip}
     72c:	0e030e6e 	cdpeq	14, 0, cr0, cr3, cr14, {3}
     730:	0b3b0b3a 	bleq	ec3420 <__bss_end__+0xeb9100>
     734:	00000b39 	andeq	r0, r0, r9, lsr fp
     738:	01110100 	tsteq	r1, r0, lsl #2
     73c:	0b130e25 	bleq	4c3fd8 <__bss_end__+0x4b9cb8>
     740:	0e1b0e03 	cdpeq	14, 1, cr0, cr11, cr3, {0}
     744:	06120111 			; <UNDEFINED> instruction: 0x06120111
     748:	00001710 	andeq	r1, r0, r0, lsl r7
     74c:	0b002402 	bleq	975c <kmalloc_aligned+0x114>
     750:	030b3e0b 	movweq	r3, #48651	; 0xbe0b
     754:	03000008 	movweq	r0, #8
     758:	0b0b0024 	bleq	2c07f0 <__bss_end__+0x2b64d0>
     75c:	0e030b3e 	vmoveq.16	d3[0], r0
     760:	15040000 	strne	r0, [r4, #-0]
     764:	49192701 	ldmdbmi	r9, {r0, r8, r9, sl, sp}
     768:	00130113 	andseq	r0, r3, r3, lsl r1
     76c:	00050500 	andeq	r0, r5, r0, lsl #10
     770:	00001349 	andeq	r1, r0, r9, asr #6
     774:	03003406 	movweq	r3, #1030	; 0x406
     778:	3b0b3a0e 	blcc	2cefb8 <__bss_end__+0x2c4c98>
     77c:	490b390b 	stmdbmi	fp, {r0, r1, r3, r8, fp, ip, sp}
     780:	3c193f13 	ldccc	15, cr3, [r9], {19}
     784:	07000019 	smladeq	r0, r9, r0, r0
     788:	0b0b000f 	bleq	2c07cc <__bss_end__+0x2b64ac>
     78c:	00001349 	andeq	r1, r0, r9, asr #6
     790:	49002608 	stmdbmi	r0, {r3, r9, sl, sp}
     794:	09000013 	stmdbeq	r0, {r0, r1, r4}
     798:	13470034 	movtne	r0, #28724	; 0x7034
     79c:	0b3b0b3a 	bleq	ec348c <__bss_end__+0xeb916c>
     7a0:	18020b39 	stmdane	r2, {r0, r3, r4, r5, r8, r9, fp}
     7a4:	2e0a0000 	cdpcs	0, 0, cr0, cr10, cr0, {0}
     7a8:	03193f01 	tsteq	r9, #1, 30
     7ac:	3b0b3a0e 	blcc	2cefec <__bss_end__+0x2c4ccc>
     7b0:	270b390b 	strcs	r3, [fp, -fp, lsl #18]
     7b4:	12011119 	andne	r1, r1, #1073741830	; 0x40000006
     7b8:	97184006 	ldrls	r4, [r8, -r6]
     7bc:	13011942 	movwne	r1, #6466	; 0x1942
     7c0:	050b0000 	streq	r0, [fp, #-0]
     7c4:	3a080300 	bcc	2013cc <__bss_end__+0x1f70ac>
     7c8:	390b3b0b 	stmdbcc	fp, {r0, r1, r3, r8, r9, fp, ip, sp}
     7cc:	0213490b 	andseq	r4, r3, #180224	; 0x2c000
     7d0:	0c000018 	stceq	0, cr0, [r0], {24}
     7d4:	193f002e 	ldmdbne	pc!, {r1, r2, r3, r5}	; <UNPREDICTABLE>
     7d8:	0b3a0e03 	bleq	e83fec <__bss_end__+0xe79ccc>
     7dc:	0b390b3b 	bleq	e434d0 <__bss_end__+0xe391b0>
     7e0:	01111927 	tsteq	r1, r7, lsr #18
     7e4:	18400612 	stmdane	r0, {r1, r4, r9, sl}^
     7e8:	00194297 	mulseq	r9, r7, r2
     7ec:	012e0d00 			; <UNDEFINED> instruction: 0x012e0d00
     7f0:	0b3a0e03 	bleq	e84004 <__bss_end__+0xe79ce4>
     7f4:	0b390b3b 	bleq	e434e8 <__bss_end__+0xe391c8>
     7f8:	13491927 	movtne	r1, #39207	; 0x9927
     7fc:	06120111 			; <UNDEFINED> instruction: 0x06120111
     800:	42971840 	addsmi	r1, r7, #64, 16	; 0x400000
     804:	00130119 	andseq	r0, r3, r9, lsl r1
     808:	00050e00 	andeq	r0, r5, r0, lsl #28
     80c:	0b3a0803 	bleq	e82820 <__bss_end__+0xe78500>
     810:	0b390b3b 	bleq	e43504 <__bss_end__+0xe391e4>
     814:	17021349 	strne	r1, [r2, -r9, asr #6]
     818:	001742b7 			; <UNDEFINED> instruction: 0x001742b7
     81c:	82890f00 	addhi	r0, r9, #0, 30
     820:	01110101 	tsteq	r1, r1, lsl #2
     824:	00001331 	andeq	r1, r0, r1, lsr r3
     828:	01828a10 	orreq	r8, r2, r0, lsl sl
     82c:	91180200 	tstls	r8, r0, lsl #4
     830:	00001842 	andeq	r1, r0, r2, asr #16
     834:	3f002e11 	svccc	0x00002e11
     838:	6e193c19 	mrcvs	12, 0, r3, cr9, cr9, {0}
     83c:	3a0e030e 	bcc	38147c <__bss_end__+0x37715c>
     840:	390b3b0b 	stmdbcc	fp, {r0, r1, r3, r8, r9, fp, ip, sp}
     844:	0000000b 	andeq	r0, r0, fp
     848:	25011101 	strcs	r1, [r1, #-257]	; 0xfffffeff
     84c:	030b130e 	movweq	r1, #45838	; 0xb30e
     850:	110e1b0e 	tstne	lr, lr, lsl #22
     854:	10061201 	andne	r1, r6, r1, lsl #4
     858:	02000017 	andeq	r0, r0, #23, 0
     85c:	0b0b0024 	bleq	2c08f4 <__bss_end__+0x2b65d4>
     860:	08030b3e 	stmdaeq	r3, {r1, r2, r3, r4, r5, r8, r9, fp}
     864:	24030000 	strcs	r0, [r3], #-0
     868:	3e0b0b00 	vmlacc.f64	d0, d11, d0
     86c:	000e030b 	andeq	r0, lr, fp, lsl #6
     870:	01150400 	tsteq	r5, r0, lsl #8
     874:	13491927 	movtne	r1, #39207	; 0x9927
     878:	00001301 	andeq	r1, r0, r1, lsl #6
     87c:	49000505 	stmdbmi	r0, {r0, r2, r8, sl}
     880:	06000013 			; <UNDEFINED> instruction: 0x06000013
     884:	0e030034 	mcreq	0, 0, r0, cr3, cr4, {1}
     888:	0b3b0b3a 	bleq	ec3578 <__bss_end__+0xeb9258>
     88c:	13490b39 	movtne	r0, #39737	; 0x9b39
     890:	193c193f 	ldmdbne	ip!, {r0, r1, r2, r3, r4, r5, r8, fp, ip}
     894:	0f070000 	svceq	0x00070000
     898:	490b0b00 	stmdbmi	fp, {r8, r9, fp}
     89c:	08000013 	stmdaeq	r0, {r0, r1, r4}
     8a0:	13490026 	movtne	r0, #36902	; 0x9026
     8a4:	34090000 	strcc	r0, [r9], #-0
     8a8:	3a134700 	bcc	4d24b0 <__bss_end__+0x4c8190>
     8ac:	390b3b0b 	stmdbcc	fp, {r0, r1, r3, r8, r9, fp, ip, sp}
     8b0:	0018020b 	andseq	r0, r8, fp, lsl #4
     8b4:	012e0a00 			; <UNDEFINED> instruction: 0x012e0a00
     8b8:	0e03193f 			; <UNDEFINED> instruction: 0x0e03193f
     8bc:	0b3b0b3a 	bleq	ec35ac <__bss_end__+0xeb928c>
     8c0:	19270b39 	stmdbne	r7!, {r0, r3, r4, r5, r8, r9, fp}
     8c4:	01111349 	tsteq	r1, r9, asr #6
     8c8:	18400612 	stmdane	r0, {r1, r4, r9, sl}^
     8cc:	00194296 	mulseq	r9, r6, r2
     8d0:	00050b00 	andeq	r0, r5, r0, lsl #22
     8d4:	0b3a0803 	bleq	e828e8 <__bss_end__+0xe785c8>
     8d8:	0b390b3b 	bleq	e435cc <__bss_end__+0xe392ac>
     8dc:	17021349 	strne	r1, [r2, -r9, asr #6]
     8e0:	001742b7 			; <UNDEFINED> instruction: 0x001742b7
     8e4:	11010000 	mrsne	r0, (UNDEF: 1)
     8e8:	130e2501 	movwne	r2, #58625	; 0xe501
     8ec:	1b0e030b 	blne	381520 <__bss_end__+0x377200>
     8f0:	1201110e 	andne	r1, r1, #-2147483645	; 0x80000003
     8f4:	00171006 	andseq	r1, r7, r6
     8f8:	00240200 	eoreq	r0, r4, r0, lsl #4
     8fc:	0b3e0b0b 	bleq	f83530 <__bss_end__+0xf79210>
     900:	00000803 	andeq	r0, r0, r3, lsl #16
     904:	0b002403 	bleq	9918 <__code_end__+0x90>
     908:	030b3e0b 	movweq	r3, #48651	; 0xbe0b
     90c:	0400000e 	streq	r0, [r0], #-14
     910:	0e030016 	mcreq	0, 0, r0, cr3, cr6, {0}
     914:	0b3b0b3a 	bleq	ec3604 <__bss_end__+0xeb92e4>
     918:	13490b39 	movtne	r0, #39737	; 0x9b39
     91c:	15050000 	strne	r0, [r5, #-0]
     920:	49192701 	ldmdbmi	r9, {r0, r8, r9, sl, sp}
     924:	00130113 	andseq	r0, r3, r3, lsl r1
     928:	00050600 	andeq	r0, r5, r0, lsl #12
     92c:	00001349 	andeq	r1, r0, r9, asr #6
     930:	03003407 	movweq	r3, #1031	; 0x407
     934:	3b0b3a0e 	blcc	2cf174 <__bss_end__+0x2c4e54>
     938:	490b390b 	stmdbmi	fp, {r0, r1, r3, r8, fp, ip, sp}
     93c:	3c193f13 	ldccc	15, cr3, [r9], {19}
     940:	08000019 	stmdaeq	r0, {r0, r3, r4}
     944:	0b0b000f 	bleq	2c0988 <__bss_end__+0x2b6668>
     948:	00001349 	andeq	r1, r0, r9, asr #6
     94c:	49002609 	stmdbmi	r0, {r0, r3, r9, sl, sp}
     950:	0a000013 	beq	9a4 <__code_start__-0x765c>
     954:	0e030113 	mcreq	1, 0, r0, cr3, cr3, {0}
     958:	0b3a0b0b 	bleq	e8358c <__bss_end__+0xe7926c>
     95c:	13010b3b 	movwne	r0, #6971	; 0x1b3b
     960:	0d0b0000 	stceq	0, cr0, [fp, #-0]
     964:	490e0300 	stmdbmi	lr, {r8, r9}
     968:	340b3813 	strcc	r3, [fp], #-2067	; 0xfffff7ed
     96c:	0c000019 	stceq	0, cr0, [r0], {25}
     970:	0b0b000f 	bleq	2c09b4 <__bss_end__+0x2b6694>
     974:	2e0d0000 	cdpcs	0, 0, cr0, cr13, cr0, {0}
     978:	03193f01 	tsteq	r9, #1, 30
     97c:	3b0b3a0e 	blcc	2cf1bc <__bss_end__+0x2c4e9c>
     980:	270b390b 	strcs	r3, [fp, -fp, lsl #18]
     984:	11134919 	tstne	r3, r9, lsl r9
     988:	40061201 	andmi	r1, r6, r1, lsl #4
     98c:	19429718 	stmdbne	r2, {r3, r4, r8, r9, sl, ip, pc}^
     990:	00001301 	andeq	r1, r0, r1, lsl #6
     994:	0300050e 	movweq	r0, #1294	; 0x50e
     998:	3b0b3a08 	blcc	2cf1c0 <__bss_end__+0x2c4ea0>
     99c:	490b390b 	stmdbmi	fp, {r0, r1, r3, r8, fp, ip, sp}
     9a0:	b7170213 			; <UNDEFINED> instruction: 0xb7170213
     9a4:	00001742 	andeq	r1, r0, r2, asr #14
     9a8:	0300050f 	movweq	r0, #1295	; 0x50f
     9ac:	3b0b3a0e 	blcc	2cf1ec <__bss_end__+0x2c4ecc>
     9b0:	490b390b 	stmdbmi	fp, {r0, r1, r3, r8, fp, ip, sp}
     9b4:	00180213 	andseq	r0, r8, r3, lsl r2
     9b8:	00341000 	eorseq	r1, r4, r0
     9bc:	0b3a0803 	bleq	e829d0 <__bss_end__+0xe786b0>
     9c0:	0b390b3b 	bleq	e436b4 <__bss_end__+0xe39394>
     9c4:	17021349 	strne	r1, [r2, -r9, asr #6]
     9c8:	001742b7 			; <UNDEFINED> instruction: 0x001742b7
     9cc:	00341100 	eorseq	r1, r4, r0, lsl #2
     9d0:	0b3a0e03 	bleq	e841e4 <__bss_end__+0xe79ec4>
     9d4:	0b390b3b 	bleq	e436c8 <__bss_end__+0xe393a8>
     9d8:	17021349 	strne	r1, [r2, -r9, asr #6]
     9dc:	001742b7 			; <UNDEFINED> instruction: 0x001742b7
     9e0:	00341200 	eorseq	r1, r4, r0, lsl #4
     9e4:	13490e03 	movtne	r0, #40451	; 0x9e03
     9e8:	18021934 	stmdane	r2, {r2, r4, r5, r8, fp, ip}
     9ec:	0b130000 	bleq	4c09f4 <__bss_end__+0x4b66d4>
     9f0:	12011101 	andne	r1, r1, #1073741824	; 0x40000000
     9f4:	14000006 	strne	r0, [r0], #-6
     9f8:	08030034 	stmdaeq	r3, {r2, r4, r5}
     9fc:	0b3b0b3a 	bleq	ec36ec <__bss_end__+0xeb93cc>
     a00:	13490b39 	movtne	r0, #39737	; 0x9b39
     a04:	00001802 	andeq	r1, r0, r2, lsl #16
     a08:	03003415 	movweq	r3, #1045	; 0x415
     a0c:	3b0b3a0e 	blcc	2cf24c <__bss_end__+0x2c4f2c>
     a10:	490b390b 	stmdbmi	fp, {r0, r1, r3, r8, fp, ip, sp}
     a14:	00180213 	andseq	r0, r8, r3, lsl r2
     a18:	010b1600 	tsteq	fp, r0, lsl #12
     a1c:	06120111 			; <UNDEFINED> instruction: 0x06120111
     a20:	00001301 	andeq	r1, r0, r1, lsl #6
     a24:	03003417 	movweq	r3, #1047	; 0x417
     a28:	3b0b3a08 	blcc	2cf250 <__bss_end__+0x2c4f30>
     a2c:	490b390b 	stmdbmi	fp, {r0, r1, r3, r8, fp, ip, sp}
     a30:	18000013 	stmdane	r0, {r0, r1, r4}
     a34:	01018289 	smlabbeq	r1, r9, r2, r8
     a38:	13310111 	teqne	r1, #1073741828	; 0x40000004
     a3c:	00001301 	andeq	r1, r0, r1, lsl #6
     a40:	01828a19 	orreq	r8, r2, r9, lsl sl
     a44:	91180200 	tstls	r8, r0, lsl #4
     a48:	00001842 	andeq	r1, r0, r2, asr #16
     a4c:	0182891a 	orreq	r8, r2, sl, lsl r9
     a50:	31011100 	mrscc	r1, (UNDEF: 17)
     a54:	1b000013 	blne	aa8 <__code_start__-0x7558>
     a58:	01018289 	smlabbeq	r1, r9, r2, r8
     a5c:	13010111 	movwne	r0, #4369	; 0x1111
     a60:	011c0000 	tsteq	ip, r0
     a64:	01134901 	tsteq	r3, r1, lsl #18
     a68:	1d000013 	stcne	0, cr0, [r0, #-76]	; 0xffffffb4
     a6c:	13490021 	movtne	r0, #36897	; 0x9021
     a70:	00000b2f 	andeq	r0, r0, pc, lsr #22
     a74:	03012e1e 	movweq	r2, #7710	; 0x1e1e
     a78:	3b0b3a0e 	blcc	2cf2b8 <__bss_end__+0x2c4f98>
     a7c:	270b390b 	strcs	r3, [fp, -fp, lsl #18]
     a80:	11134919 	tstne	r3, r9, lsl r9
     a84:	40061201 	andmi	r1, r6, r1, lsl #4
     a88:	19429718 	stmdbne	r2, {r3, r4, r8, r9, sl, ip, pc}^
     a8c:	00001301 	andeq	r1, r0, r1, lsl #6
     a90:	0300051f 	movweq	r0, #1311	; 0x51f
     a94:	3b0b3a0e 	blcc	2cf2d4 <__bss_end__+0x2c4fb4>
     a98:	490b390b 	stmdbmi	fp, {r0, r1, r3, r8, fp, ip, sp}
     a9c:	b7170213 			; <UNDEFINED> instruction: 0xb7170213
     aa0:	00001742 	andeq	r1, r0, r2, asr #14
     aa4:	03012e20 	movweq	r2, #7712	; 0x1e20
     aa8:	3b0b3a08 	blcc	2cf2d0 <__bss_end__+0x2c4fb0>
     aac:	270b390b 	strcs	r3, [fp, -fp, lsl #18]
     ab0:	11134919 	tstne	r3, r9, lsl r9
     ab4:	40061201 	andmi	r1, r6, r1, lsl #4
     ab8:	19429718 	stmdbne	r2, {r3, r4, r8, r9, sl, ip, pc}^
     abc:	00001301 	andeq	r1, r0, r1, lsl #6
     ac0:	3f012e21 	svccc	0x00012e21
     ac4:	3a0e0319 	bcc	381730 <__bss_end__+0x377410>
     ac8:	390b3b0b 	stmdbcc	fp, {r0, r1, r3, r8, r9, fp, ip, sp}
     acc:	1119270b 	tstne	r9, fp, lsl #14
     ad0:	40061201 	andmi	r1, r6, r1, lsl #4
     ad4:	19429718 	stmdbne	r2, {r3, r4, r8, r9, sl, ip, pc}^
     ad8:	00001301 	andeq	r1, r0, r1, lsl #6
     adc:	3f002e22 	svccc	0x00002e22
     ae0:	6e193c19 	mrcvs	12, 0, r3, cr9, cr9, {0}
     ae4:	3a0e030e 	bcc	381724 <__bss_end__+0x377404>
     ae8:	390b3b0b 	stmdbcc	fp, {r0, r1, r3, r8, r9, fp, ip, sp}
     aec:	0000000b 	andeq	r0, r0, fp
     af0:	25011101 	strcs	r1, [r1, #-257]	; 0xfffffeff
     af4:	030b130e 	movweq	r1, #45838	; 0xb30e
     af8:	550e1b0e 	strpl	r1, [lr, #-2830]	; 0xfffff4f2
     afc:	10011117 	andne	r1, r1, r7, lsl r1
     b00:	02000017 	andeq	r0, r0, #23, 0
     b04:	0b0b0024 	bleq	2c0b9c <__bss_end__+0x2b687c>
     b08:	08030b3e 	stmdaeq	r3, {r1, r2, r3, r4, r5, r8, r9, fp}
     b0c:	24030000 	strcs	r0, [r3], #-0
     b10:	3e0b0b00 	vmlacc.f64	d0, d11, d0
     b14:	000e030b 	andeq	r0, lr, fp, lsl #6
     b18:	01150400 	tsteq	r5, r0, lsl #8
     b1c:	13491927 	movtne	r1, #39207	; 0x9927
     b20:	00001301 	andeq	r1, r0, r1, lsl #6
     b24:	49000505 	stmdbmi	r0, {r0, r2, r8, sl}
     b28:	06000013 			; <UNDEFINED> instruction: 0x06000013
     b2c:	0e030034 	mcreq	0, 0, r0, cr3, cr4, {1}
     b30:	0b3b0b3a 	bleq	ec3820 <__bss_end__+0xeb9500>
     b34:	13490b39 	movtne	r0, #39737	; 0x9b39
     b38:	193c193f 	ldmdbne	ip!, {r0, r1, r2, r3, r4, r5, r8, fp, ip}
     b3c:	0f070000 	svceq	0x00070000
     b40:	490b0b00 	stmdbmi	fp, {r8, r9, fp}
     b44:	08000013 	stmdaeq	r0, {r0, r1, r4}
     b48:	13490026 	movtne	r0, #36902	; 0x9026
     b4c:	2e090000 	cdpcs	0, 0, cr0, cr9, cr0, {0}
     b50:	03193f01 	tsteq	r9, #1, 30
     b54:	3b0b3a0e 	blcc	2cf394 <__bss_end__+0x2c5074>
     b58:	270b390b 	strcs	r3, [fp, -fp, lsl #18]
     b5c:	12011119 	andne	r1, r1, #1073741830	; 0x40000006
     b60:	97184006 	ldrls	r4, [r8, -r6]
     b64:	13011942 	movwne	r1, #6466	; 0x1942
     b68:	340a0000 	strcc	r0, [sl], #-0
     b6c:	3a080300 	bcc	201774 <__bss_end__+0x1f7454>
     b70:	390b3b0b 	stmdbcc	fp, {r0, r1, r3, r8, r9, fp, ip, sp}
     b74:	0213490b 	andseq	r4, r3, #180224	; 0x2c000
     b78:	1742b717 	smlaldne	fp, r2, r7, r7
     b7c:	2e0b0000 	cdpcs	0, 0, cr0, cr11, cr0, {0}
     b80:	03193f01 	tsteq	r9, #1, 30
     b84:	3b0b3a0e 	blcc	2cf3c4 <__bss_end__+0x2c50a4>
     b88:	270b390b 	strcs	r3, [fp, -fp, lsl #18]
     b8c:	12011119 	andne	r1, r1, #1073741830	; 0x40000006
     b90:	97184006 	ldrls	r4, [r8, -r6]
     b94:	00001942 	andeq	r1, r0, r2, asr #18
     b98:	01110100 	tsteq	r1, r0, lsl #2
     b9c:	0b130e25 	bleq	4c4438 <__bss_end__+0x4ba118>
     ba0:	0e1b0e03 	cdpeq	14, 1, cr0, cr11, cr3, {0}
     ba4:	06120111 			; <UNDEFINED> instruction: 0x06120111
     ba8:	00001710 	andeq	r1, r0, r0, lsl r7
     bac:	0b002402 	bleq	9bbc <__FUNCTION__.4074+0x38>
     bb0:	030b3e0b 	movweq	r3, #48651	; 0xbe0b
     bb4:	03000008 	movweq	r0, #8
     bb8:	0b0b0024 	bleq	2c0c50 <__bss_end__+0x2b6930>
     bbc:	0e030b3e 	vmoveq.16	d3[0], r0
     bc0:	15040000 	strne	r0, [r4, #-0]
     bc4:	49192701 	ldmdbmi	r9, {r0, r8, r9, sl, sp}
     bc8:	00130113 	andseq	r0, r3, r3, lsl r1
     bcc:	00050500 	andeq	r0, r5, r0, lsl #10
     bd0:	00001349 	andeq	r1, r0, r9, asr #6
     bd4:	03003406 	movweq	r3, #1030	; 0x406
     bd8:	3b0b3a0e 	blcc	2cf418 <__bss_end__+0x2c50f8>
     bdc:	490b390b 	stmdbmi	fp, {r0, r1, r3, r8, fp, ip, sp}
     be0:	3c193f13 	ldccc	15, cr3, [r9], {19}
     be4:	07000019 	smladeq	r0, r9, r0, r0
     be8:	0b0b000f 	bleq	2c0c2c <__bss_end__+0x2b690c>
     bec:	00001349 	andeq	r1, r0, r9, asr #6
     bf0:	49002608 	stmdbmi	r0, {r3, r9, sl, sp}
     bf4:	09000013 	stmdbeq	r0, {r0, r1, r4}
     bf8:	193f012e 	ldmdbne	pc!, {r1, r2, r3, r5, r8}	; <UNPREDICTABLE>
     bfc:	0b3a0e03 	bleq	e84410 <__bss_end__+0xe7a0f0>
     c00:	0b390b3b 	bleq	e438f4 <__bss_end__+0xe395d4>
     c04:	01871927 	orreq	r1, r7, r7, lsr #18
     c08:	12011119 	andne	r1, r1, #1073741830	; 0x40000006
     c0c:	97184006 	ldrls	r4, [r8, -r6]
     c10:	13011942 	movwne	r1, #6466	; 0x1942
     c14:	890a0000 	stmdbhi	sl, {}	; <UNPREDICTABLE>
     c18:	11010182 	smlabbne	r1, r2, r1, r0
     c1c:	00130101 	andseq	r0, r3, r1, lsl #2
     c20:	828a0b00 	addhi	r0, sl, #0, 22
     c24:	18020001 	stmdane	r2, {r0}
     c28:	00184291 	mulseq	r8, r1, r2
     c2c:	82890c00 	addhi	r0, r9, #0, 24
     c30:	01110001 	tsteq	r1, r1
     c34:	00001331 	andeq	r1, r0, r1, lsr r3
     c38:	0182890d 	orreq	r8, r2, sp, lsl #18
     c3c:	31011101 	tstcc	r1, r1, lsl #2
     c40:	00130113 	andseq	r0, r3, r3, lsl r1
     c44:	002e0e00 	eoreq	r0, lr, r0, lsl #28
     c48:	193c193f 	ldmdbne	ip!, {r0, r1, r2, r3, r4, r5, r8, fp, ip}
     c4c:	0e030e6e 	cdpeq	14, 0, cr0, cr3, cr14, {3}
     c50:	0b3b0b3a 	bleq	ec3940 <__bss_end__+0xeb9620>
     c54:	00000b39 	andeq	r0, r0, r9, lsr fp
     c58:	01110100 	tsteq	r1, r0, lsl #2
     c5c:	0b130e25 	bleq	4c44f8 <__bss_end__+0x4ba1d8>
     c60:	0e1b0e03 	cdpeq	14, 1, cr0, cr11, cr3, {0}
     c64:	06120111 			; <UNDEFINED> instruction: 0x06120111
     c68:	00001710 	andeq	r1, r0, r0, lsl r7
     c6c:	0b002402 	bleq	9c7c <__FUNCTION__.4074+0xf8>
     c70:	030b3e0b 	movweq	r3, #48651	; 0xbe0b
     c74:	03000008 	movweq	r0, #8
     c78:	0b0b0024 	bleq	2c0d10 <__bss_end__+0x2b69f0>
     c7c:	0e030b3e 	vmoveq.16	d3[0], r0
     c80:	15040000 	strne	r0, [r4, #-0]
     c84:	49192701 	ldmdbmi	r9, {r0, r8, r9, sl, sp}
     c88:	00130113 	andseq	r0, r3, r3, lsl r1
     c8c:	00050500 	andeq	r0, r5, r0, lsl #10
     c90:	00001349 	andeq	r1, r0, r9, asr #6
     c94:	03003406 	movweq	r3, #1030	; 0x406
     c98:	3b0b3a0e 	blcc	2cf4d8 <__bss_end__+0x2c51b8>
     c9c:	490b390b 	stmdbmi	fp, {r0, r1, r3, r8, fp, ip, sp}
     ca0:	3c193f13 	ldccc	15, cr3, [r9], {19}
     ca4:	07000019 	smladeq	r0, r9, r0, r0
     ca8:	0b0b000f 	bleq	2c0cec <__bss_end__+0x2b69cc>
     cac:	00001349 	andeq	r1, r0, r9, asr #6
     cb0:	49002608 	stmdbmi	r0, {r3, r9, sl, sp}
     cb4:	09000013 	stmdbeq	r0, {r0, r1, r4}
     cb8:	193f012e 	ldmdbne	pc!, {r1, r2, r3, r5, r8}	; <UNPREDICTABLE>
     cbc:	0b3a0e03 	bleq	e844d0 <__bss_end__+0xe7a1b0>
     cc0:	0b390b3b 	bleq	e439b4 <__bss_end__+0xe39694>
     cc4:	06120111 			; <UNDEFINED> instruction: 0x06120111
     cc8:	42971840 	addsmi	r1, r7, #64, 16	; 0x400000
     ccc:	00130119 	andseq	r0, r3, r9, lsl r1
     cd0:	002e0a00 	eoreq	r0, lr, r0, lsl #20
     cd4:	0e03193f 			; <UNDEFINED> instruction: 0x0e03193f
     cd8:	0b3b0b3a 	bleq	ec39c8 <__bss_end__+0xeb96a8>
     cdc:	19270b39 	stmdbne	r7!, {r0, r3, r4, r5, r8, r9, fp}
     ce0:	0000193c 	andeq	r1, r0, ip, lsr r9
     ce4:	0300340b 	movweq	r3, #1035	; 0x40b
     ce8:	3b0b3a08 	blcc	2cf510 <__bss_end__+0x2c51f0>
     cec:	490b390b 	stmdbmi	fp, {r0, r1, r3, r8, fp, ip, sp}
     cf0:	b7170213 			; <UNDEFINED> instruction: 0xb7170213
     cf4:	00001742 	andeq	r1, r0, r2, asr #14
     cf8:	0300340c 	movweq	r3, #1036	; 0x40c
     cfc:	3b0b3a0e 	blcc	2cf53c <__bss_end__+0x2c521c>
     d00:	490b390b 	stmdbmi	fp, {r0, r1, r3, r8, fp, ip, sp}
     d04:	0d000013 	stceq	0, cr0, [r0, #-76]	; 0xffffffb4
     d08:	0111010b 	tsteq	r1, fp, lsl #2
     d0c:	13010612 	movwne	r0, #5650	; 0x1612
     d10:	340e0000 	strcc	r0, [lr], #-0
     d14:	3a080300 	bcc	20191c <__bss_end__+0x1f75fc>
     d18:	390b3b0b 	stmdbcc	fp, {r0, r1, r3, r8, r9, fp, ip, sp}
     d1c:	1c13490b 			; <UNDEFINED> instruction: 0x1c13490b
     d20:	0f00000b 	svceq	0x0000000b
     d24:	00018289 	andeq	r8, r1, r9, lsl #5
     d28:	13310111 	teqne	r1, #1073741828	; 0x40000004
     d2c:	2e100000 	cdpcs	0, 1, cr0, cr0, cr0, {0}
     d30:	3c193f00 	ldccc	15, cr3, [r9], {-0}
     d34:	030e6e19 	movweq	r6, #60953	; 0xee19
     d38:	3b0b3a0e 	blcc	2cf578 <__bss_end__+0x2c5258>
     d3c:	000b3905 	andeq	r3, fp, r5, lsl #18
     d40:	002e1100 	eoreq	r1, lr, r0, lsl #2
     d44:	193c193f 	ldmdbne	ip!, {r0, r1, r2, r3, r4, r5, r8, fp, ip}
     d48:	0e030e6e 	cdpeq	14, 0, cr0, cr3, cr14, {3}
     d4c:	0b3b0b3a 	bleq	ec3a3c <__bss_end__+0xeb971c>
     d50:	00000b39 	andeq	r0, r0, r9, lsr fp
     d54:	01110100 	tsteq	r1, r0, lsl #2
     d58:	0b130e25 	bleq	4c45f4 <__bss_end__+0x4ba2d4>
     d5c:	0e1b0e03 	cdpeq	14, 1, cr0, cr11, cr3, {0}
     d60:	06120111 			; <UNDEFINED> instruction: 0x06120111
     d64:	00001710 	andeq	r1, r0, r0, lsl r7
     d68:	0b002402 	bleq	9d78 <__FUNCTION__.4034+0x88>
     d6c:	030b3e0b 	movweq	r3, #48651	; 0xbe0b
     d70:	03000008 	movweq	r0, #8
     d74:	0b0b0024 	bleq	2c0e0c <__bss_end__+0x2b6aec>
     d78:	0e030b3e 	vmoveq.16	d3[0], r0
     d7c:	15040000 	strne	r0, [r4, #-0]
     d80:	49192701 	ldmdbmi	r9, {r0, r8, r9, sl, sp}
     d84:	00130113 	andseq	r0, r3, r3, lsl r1
     d88:	00050500 	andeq	r0, r5, r0, lsl #10
     d8c:	00001349 	andeq	r1, r0, r9, asr #6
     d90:	03003406 	movweq	r3, #1030	; 0x406
     d94:	3b0b3a0e 	blcc	2cf5d4 <__bss_end__+0x2c52b4>
     d98:	490b390b 	stmdbmi	fp, {r0, r1, r3, r8, fp, ip, sp}
     d9c:	3c193f13 	ldccc	15, cr3, [r9], {19}
     da0:	07000019 	smladeq	r0, r9, r0, r0
     da4:	0b0b000f 	bleq	2c0de8 <__bss_end__+0x2b6ac8>
     da8:	00001349 	andeq	r1, r0, r9, asr #6
     dac:	49002608 	stmdbmi	r0, {r3, r9, sl, sp}
     db0:	09000013 	stmdbeq	r0, {r0, r1, r4}
     db4:	193f002e 	ldmdbne	pc!, {r1, r2, r3, r5}	; <UNPREDICTABLE>
     db8:	0b3a0e03 	bleq	e845cc <__bss_end__+0xe7a2ac>
     dbc:	0b390b3b 	bleq	e43ab0 <__bss_end__+0xe39790>
     dc0:	01111927 	tsteq	r1, r7, lsr #18
     dc4:	18400612 	stmdane	r0, {r1, r4, r9, sl}^
     dc8:	00194297 	mulseq	r9, r7, r2
     dcc:	11010000 	mrsne	r0, (UNDEF: 1)
     dd0:	130e2501 	movwne	r2, #58625	; 0xe501
     dd4:	1b0e030b 	blne	381a08 <__bss_end__+0x3776e8>
     dd8:	1117550e 	tstne	r7, lr, lsl #10
     ddc:	00171001 	andseq	r1, r7, r1
     de0:	00240200 	eoreq	r0, r4, r0, lsl #4
     de4:	0b3e0b0b 	bleq	f83a18 <__bss_end__+0xf796f8>
     de8:	00000803 	andeq	r0, r0, r3, lsl #16
     dec:	49002603 	stmdbmi	r0, {r0, r1, r9, sl, sp}
     df0:	04000013 	streq	r0, [r0], #-19	; 0xffffffed
     df4:	0b0b0024 	bleq	2c0e8c <__bss_end__+0x2b6b6c>
     df8:	0e030b3e 	vmoveq.16	d3[0], r0
     dfc:	15050000 	strne	r0, [r5, #-0]
     e00:	49192701 	ldmdbmi	r9, {r0, r8, r9, sl, sp}
     e04:	00130113 	andseq	r0, r3, r3, lsl r1
     e08:	00050600 	andeq	r0, r5, r0, lsl #12
     e0c:	00001349 	andeq	r1, r0, r9, asr #6
     e10:	03003407 	movweq	r3, #1031	; 0x407
     e14:	3b0b3a0e 	blcc	2cf654 <__bss_end__+0x2c5334>
     e18:	490b390b 	stmdbmi	fp, {r0, r1, r3, r8, fp, ip, sp}
     e1c:	3c193f13 	ldccc	15, cr3, [r9], {19}
     e20:	08000019 	stmdaeq	r0, {r0, r3, r4}
     e24:	0b0b000f 	bleq	2c0e68 <__bss_end__+0x2b6b48>
     e28:	00001349 	andeq	r1, r0, r9, asr #6
     e2c:	03003409 	movweq	r3, #1033	; 0x409
     e30:	3b0b3a0e 	blcc	2cf670 <__bss_end__+0x2c5350>
     e34:	490b390b 	stmdbmi	fp, {r0, r1, r3, r8, fp, ip, sp}
     e38:	0a000013 	beq	e8c <__code_start__-0x7174>
     e3c:	193f012e 	ldmdbne	pc!, {r1, r2, r3, r5, r8}	; <UNPREDICTABLE>
     e40:	0b3a0e03 	bleq	e84654 <__bss_end__+0xe7a334>
     e44:	0b390b3b 	bleq	e43b38 <__bss_end__+0xe39818>
     e48:	01871927 	orreq	r1, r7, r7, lsr #18
     e4c:	12011119 	andne	r1, r1, #1073741830	; 0x40000006
     e50:	97184006 	ldrls	r4, [r8, -r6]
     e54:	13011942 	movwne	r1, #6466	; 0x1942
     e58:	340b0000 	strcc	r0, [fp], #-0
     e5c:	3a0e0300 	bcc	381a64 <__bss_end__+0x377744>
     e60:	390b3b0b 	stmdbcc	fp, {r0, r1, r3, r8, r9, fp, ip, sp}
     e64:	0213490b 	andseq	r4, r3, #180224	; 0x2c000
     e68:	1742b717 	smlaldne	fp, r2, r7, r7
     e6c:	890c0000 	stmdbhi	ip, {}	; <UNPREDICTABLE>
     e70:	11000182 	smlabbne	r0, r2, r1, r0
     e74:	00133101 	andseq	r3, r3, r1, lsl #2
     e78:	82890d00 	addhi	r0, r9, #0, 26
     e7c:	01110101 	tsteq	r1, r1, lsl #2
     e80:	13011331 	movwne	r1, #4913	; 0x1331
     e84:	8a0e0000 	bhi	380e8c <__bss_end__+0x376b6c>
     e88:	02000182 	andeq	r0, r0, #-2147483616	; 0x80000020
     e8c:	18429118 	stmdane	r2, {r3, r4, r8, ip, pc}^
     e90:	2e0f0000 	cdpcs	0, 0, cr0, cr15, cr0, {0}
     e94:	03193f01 	tsteq	r9, #1, 30
     e98:	3b0b3a0e 	blcc	2cf6d8 <__bss_end__+0x2c53b8>
     e9c:	270b390b 	strcs	r3, [fp, -fp, lsl #18]
     ea0:	12011119 	andne	r1, r1, #1073741830	; 0x40000006
     ea4:	97184006 	ldrls	r4, [r8, -r6]
     ea8:	13011942 	movwne	r1, #6466	; 0x1942
     eac:	2e100000 	cdpcs	0, 1, cr0, cr0, cr0, {0}
     eb0:	03193f01 	tsteq	r9, #1, 30
     eb4:	3b0b3a0e 	blcc	2cf6f4 <__bss_end__+0x2c53d4>
     eb8:	270b390b 	strcs	r3, [fp, -fp, lsl #18]
     ebc:	11134919 	tstne	r3, r9, lsl r9
     ec0:	40061201 	andmi	r1, r6, r1, lsl #4
     ec4:	19429718 	stmdbne	r2, {r3, r4, r8, r9, sl, ip, pc}^
     ec8:	00001301 	andeq	r1, r0, r1, lsl #6
     ecc:	3f002e11 	svccc	0x00002e11
     ed0:	6e193c19 	mrcvs	12, 0, r3, cr9, cr9, {0}
     ed4:	3a0e030e 	bcc	381b14 <__bss_end__+0x3777f4>
     ed8:	39053b0b 	stmdbcc	r5, {r0, r1, r3, r8, r9, fp, ip, sp}
     edc:	1200000b 	andne	r0, r0, #11, 0
     ee0:	193f002e 	ldmdbne	pc!, {r1, r2, r3, r5}	; <UNPREDICTABLE>
     ee4:	0e6e193c 			; <UNDEFINED> instruction: 0x0e6e193c
     ee8:	0b3a0e03 	bleq	e846fc <__bss_end__+0xe7a3dc>
     eec:	0b390b3b 	bleq	e43be0 <__bss_end__+0xe398c0>
     ef0:	01000000 	mrseq	r0, (UNDEF: 0)
     ef4:	0e250111 	mcreq	1, 1, r0, cr5, cr1, {0}
     ef8:	0e030b13 	vmoveq.32	d3[0], r0
     efc:	01110e1b 	tsteq	r1, fp, lsl lr
     f00:	17100612 			; <UNDEFINED> instruction: 0x17100612
     f04:	24020000 	strcs	r0, [r2], #-0
     f08:	3e0b0b00 	vmlacc.f64	d0, d11, d0
     f0c:	0008030b 	andeq	r0, r8, fp, lsl #6
     f10:	00240300 	eoreq	r0, r4, r0, lsl #6
     f14:	0b3e0b0b 	bleq	f83b48 <__bss_end__+0xf79828>
     f18:	00000e03 	andeq	r0, r0, r3, lsl #28
     f1c:	27011504 	strcs	r1, [r1, -r4, lsl #10]
     f20:	01134919 	tsteq	r3, r9, lsl r9
     f24:	05000013 	streq	r0, [r0, #-19]	; 0xffffffed
     f28:	13490005 	movtne	r0, #36869	; 0x9005
     f2c:	34060000 	strcc	r0, [r6], #-0
     f30:	3a0e0300 	bcc	381b38 <__bss_end__+0x377818>
     f34:	390b3b0b 	stmdbcc	fp, {r0, r1, r3, r8, r9, fp, ip, sp}
     f38:	3f13490b 	svccc	0x0013490b
     f3c:	00193c19 	andseq	r3, r9, r9, lsl ip
     f40:	000f0700 	andeq	r0, pc, r0, lsl #14
     f44:	13490b0b 	movtne	r0, #39691	; 0x9b0b
     f48:	26080000 	strcs	r0, [r8], -r0
     f4c:	00134900 	andseq	r4, r3, r0, lsl #18
     f50:	012e0900 			; <UNDEFINED> instruction: 0x012e0900
     f54:	0e03193f 			; <UNDEFINED> instruction: 0x0e03193f
     f58:	0b3b0b3a 	bleq	ec3c48 <__bss_end__+0xeb9928>
     f5c:	19270b39 	stmdbne	r7!, {r0, r3, r4, r5, r8, r9, fp}
     f60:	06120111 			; <UNDEFINED> instruction: 0x06120111
     f64:	42971840 	addsmi	r1, r7, #64, 16	; 0x400000
     f68:	00130119 	andseq	r0, r3, r9, lsl r1
     f6c:	00050a00 	andeq	r0, r5, r0, lsl #20
     f70:	0b3a0803 	bleq	e82f84 <__bss_end__+0xe78c64>
     f74:	0b390b3b 	bleq	e43c68 <__bss_end__+0xe39948>
     f78:	17021349 	strne	r1, [r2, -r9, asr #6]
     f7c:	001742b7 			; <UNDEFINED> instruction: 0x001742b7
     f80:	82890b00 	addhi	r0, r9, #0, 22
     f84:	01110101 	tsteq	r1, r1, lsl #2
     f88:	00001331 	andeq	r1, r0, r1, lsr r3
     f8c:	01828a0c 	orreq	r8, r2, ip, lsl #20
     f90:	91180200 	tstls	r8, r0, lsl #4
     f94:	00001842 	andeq	r1, r0, r2, asr #16
     f98:	0300340d 	movweq	r3, #1037	; 0x40d
     f9c:	3b0b3a08 	blcc	2cf7c4 <__bss_end__+0x2c54a4>
     fa0:	490b390b 	stmdbmi	fp, {r0, r1, r3, r8, fp, ip, sp}
     fa4:	b7170213 			; <UNDEFINED> instruction: 0xb7170213
     fa8:	00001742 	andeq	r1, r0, r2, asr #14
     fac:	11010b0e 	tstne	r1, lr, lsl #22
     fb0:	01061201 	tsteq	r6, r1, lsl #4
     fb4:	0f000013 	svceq	0x00000013
     fb8:	00018289 	andeq	r8, r1, r9, lsl #5
     fbc:	13310111 	teqne	r1, #1073741828	; 0x40000004
     fc0:	2e100000 	cdpcs	0, 1, cr0, cr0, cr0, {0}
     fc4:	03193f01 	tsteq	r9, #1, 30
     fc8:	3b0b3a0e 	blcc	2cf808 <__bss_end__+0x2c54e8>
     fcc:	270b390b 	strcs	r3, [fp, -fp, lsl #18]
     fd0:	11134919 	tstne	r3, r9, lsl r9
     fd4:	40061201 	andmi	r1, r6, r1, lsl #4
     fd8:	19429718 	stmdbne	r2, {r3, r4, r8, r9, sl, ip, pc}^
     fdc:	00001301 	andeq	r1, r0, r1, lsl #6
     fe0:	3f002e11 	svccc	0x00002e11
     fe4:	6e193c19 	mrcvs	12, 0, r3, cr9, cr9, {0}
     fe8:	3a0e030e 	bcc	381c28 <__bss_end__+0x377908>
     fec:	390b3b0b 	stmdbcc	fp, {r0, r1, r3, r8, r9, fp, ip, sp}
     ff0:	0000000b 	andeq	r0, r0, fp
     ff4:	25011101 	strcs	r1, [r1, #-257]	; 0xfffffeff
     ff8:	030b130e 	movweq	r1, #45838	; 0xb30e
     ffc:	110e1b0e 	tstne	lr, lr, lsl #22
    1000:	10061201 	andne	r1, r6, r1, lsl #4
    1004:	02000017 	andeq	r0, r0, #23, 0
    1008:	0b0b0024 	bleq	2c10a0 <__bss_end__+0x2b6d80>
    100c:	08030b3e 	stmdaeq	r3, {r1, r2, r3, r4, r5, r8, r9, fp}
    1010:	24030000 	strcs	r0, [r3], #-0
    1014:	3e0b0b00 	vmlacc.f64	d0, d11, d0
    1018:	000e030b 	andeq	r0, lr, fp, lsl #6
    101c:	00260400 	eoreq	r0, r6, r0, lsl #8
    1020:	00001349 	andeq	r1, r0, r9, asr #6
    1024:	03001605 	movweq	r1, #1541	; 0x605
    1028:	3b0b3a0e 	blcc	2cf868 <__bss_end__+0x2c5548>
    102c:	490b390b 	stmdbmi	fp, {r0, r1, r3, r8, fp, ip, sp}
    1030:	06000013 			; <UNDEFINED> instruction: 0x06000013
    1034:	0b3e0104 	bleq	f8144c <__bss_end__+0xf7712c>
    1038:	13490b0b 	movtne	r0, #39691	; 0x9b0b
    103c:	0b3b0b3a 	bleq	ec3d2c <__bss_end__+0xeb9a0c>
    1040:	13010b39 	movwne	r0, #6969	; 0x1b39
    1044:	28070000 	stmdacs	r7, {}	; <UNPREDICTABLE>
    1048:	1c0e0300 	stcne	3, cr0, [lr], {-0}
    104c:	0800000b 	stmdaeq	r0, {r0, r1, r3}
    1050:	0e030034 	mcreq	0, 0, r0, cr3, cr4, {1}
    1054:	0b3b0b3a 	bleq	ec3d44 <__bss_end__+0xeb9a24>
    1058:	13490b39 	movtne	r0, #39737	; 0x9b39
    105c:	0000061c 	andeq	r0, r0, ip, lsl r6
    1060:	3f012e09 	svccc	0x00012e09
    1064:	3a0e0319 	bcc	381cd0 <__bss_end__+0x3779b0>
    1068:	390b3b0b 	stmdbcc	fp, {r0, r1, r3, r8, r9, fp, ip, sp}
    106c:	4919270b 	ldmdbmi	r9, {r0, r1, r3, r8, r9, sl, sp}
    1070:	12011113 	andne	r1, r1, #-1073741820	; 0xc0000004
    1074:	97184006 	ldrls	r4, [r8, -r6]
    1078:	13011942 	movwne	r1, #6466	; 0x1942
    107c:	050a0000 	streq	r0, [sl, #-0]
    1080:	3a080300 	bcc	201c88 <__bss_end__+0x1f7968>
    1084:	390b3b0b 	stmdbcc	fp, {r0, r1, r3, r8, r9, fp, ip, sp}
    1088:	0213490b 	andseq	r4, r3, #180224	; 0x2c000
    108c:	1742b717 	smlaldne	fp, r2, r7, r7
    1090:	340b0000 	strcc	r0, [fp], #-0
    1094:	3a0e0300 	bcc	381c9c <__bss_end__+0x37797c>
    1098:	390b3b0b 	stmdbcc	fp, {r0, r1, r3, r8, r9, fp, ip, sp}
    109c:	0213490b 	andseq	r4, r3, #180224	; 0x2c000
    10a0:	1742b717 	smlaldne	fp, r2, r7, r7
    10a4:	340c0000 	strcc	r0, [ip], #-0
    10a8:	3a080300 	bcc	201cb0 <__bss_end__+0x1f7990>
    10ac:	390b3b0b 	stmdbcc	fp, {r0, r1, r3, r8, r9, fp, ip, sp}
    10b0:	0213490b 	andseq	r4, r3, #180224	; 0x2c000
    10b4:	1742b717 	smlaldne	fp, r2, r7, r7
    10b8:	890d0000 	stmdbhi	sp, {}	; <UNPREDICTABLE>
    10bc:	11010182 	smlabbne	r1, r2, r1, r0
    10c0:	00133101 	andseq	r3, r3, r1, lsl #2
    10c4:	828a0e00 	addhi	r0, sl, #0, 28
    10c8:	18020001 	stmdane	r2, {r0}
    10cc:	00184291 	mulseq	r8, r1, r2
    10d0:	012e0f00 			; <UNDEFINED> instruction: 0x012e0f00
    10d4:	0e03193f 			; <UNDEFINED> instruction: 0x0e03193f
    10d8:	0b3b0b3a 	bleq	ec3dc8 <__bss_end__+0xeb9aa8>
    10dc:	19270b39 	stmdbne	r7!, {r0, r3, r4, r5, r8, r9, fp}
    10e0:	06120111 			; <UNDEFINED> instruction: 0x06120111
    10e4:	42971840 	addsmi	r1, r7, #64, 16	; 0x400000
    10e8:	00130119 	andseq	r0, r3, r9, lsl r1
    10ec:	82891000 	addhi	r1, r9, #0, 0
    10f0:	01110101 	tsteq	r1, r1, lsl #2
    10f4:	13011331 	movwne	r1, #4913	; 0x1331
    10f8:	89110000 	ldmdbhi	r1, {}	; <UNPREDICTABLE>
    10fc:	11000182 	smlabbne	r0, r2, r1, r0
    1100:	00133101 	andseq	r3, r3, r1, lsl #2
    1104:	00051200 	andeq	r1, r5, r0, lsl #4
    1108:	0b3a0e03 	bleq	e8491c <__bss_end__+0xe7a5fc>
    110c:	0b390b3b 	bleq	e43e00 <__bss_end__+0xe39ae0>
    1110:	17021349 	strne	r1, [r2, -r9, asr #6]
    1114:	001742b7 			; <UNDEFINED> instruction: 0x001742b7
    1118:	012e1300 			; <UNDEFINED> instruction: 0x012e1300
    111c:	0b3a0e03 	bleq	e84930 <__bss_end__+0xe7a610>
    1120:	0b390b3b 	bleq	e43e14 <__bss_end__+0xe39af4>
    1124:	13491927 	movtne	r1, #39207	; 0x9927
    1128:	13010b20 	movwne	r0, #6944	; 0x1b20
    112c:	05140000 	ldreq	r0, [r4, #-0]
    1130:	3a080300 	bcc	201d38 <__bss_end__+0x1f7a18>
    1134:	390b3b0b 	stmdbcc	fp, {r0, r1, r3, r8, r9, fp, ip, sp}
    1138:	0013490b 	andseq	r4, r3, fp, lsl #18
    113c:	002e1500 	eoreq	r1, lr, r0, lsl #10
    1140:	193c193f 	ldmdbne	ip!, {r0, r1, r2, r3, r4, r5, r8, fp, ip}
    1144:	0e030e6e 	cdpeq	14, 0, cr0, cr3, cr14, {3}
    1148:	0b3b0b3a 	bleq	ec3e38 <__bss_end__+0xeb9b18>
    114c:	00000b39 	andeq	r0, r0, r9, lsr fp
    1150:	01110100 	tsteq	r1, r0, lsl #2
    1154:	0b130e25 	bleq	4c49f0 <__bss_end__+0x4ba6d0>
    1158:	0e1b0e03 	cdpeq	14, 1, cr0, cr11, cr3, {0}
    115c:	06120111 			; <UNDEFINED> instruction: 0x06120111
    1160:	00001710 	andeq	r1, r0, r0, lsl r7
    1164:	0b002402 	bleq	a174 <__data_end__+0x25c>
    1168:	030b3e0b 	movweq	r3, #48651	; 0xbe0b
    116c:	03000008 	movweq	r0, #8
    1170:	0b0b0024 	bleq	2c1208 <__bss_end__+0x2b6ee8>
    1174:	0e030b3e 	vmoveq.16	d3[0], r0
    1178:	35040000 	strcc	r0, [r4, #-0]
    117c:	00134900 	andseq	r4, r3, r0, lsl #18
    1180:	00160500 	andseq	r0, r6, r0, lsl #10
    1184:	0b3a0e03 	bleq	e84998 <__bss_end__+0xe7a678>
    1188:	0b390b3b 	bleq	e43e7c <__bss_end__+0xe39b5c>
    118c:	00001349 	andeq	r1, r0, r9, asr #6
    1190:	3e010406 	cdpcc	4, 0, cr0, cr1, cr6, {0}
    1194:	490b0b0b 	stmdbmi	fp, {r0, r1, r3, r8, r9, fp}
    1198:	3b0b3a13 	blcc	2cf9ec <__bss_end__+0x2c56cc>
    119c:	010b390b 	tsteq	fp, fp, lsl #18
    11a0:	07000013 	smladeq	r0, r3, r0, r0
    11a4:	0e030028 	cdpeq	0, 0, cr0, cr3, cr8, {1}
    11a8:	00000b1c 	andeq	r0, r0, ip, lsl fp
    11ac:	03011308 	movweq	r1, #4872	; 0x1308
    11b0:	3a0b0b0e 	bcc	2c3df0 <__bss_end__+0x2b9ad0>
    11b4:	390b3b0b 	stmdbcc	fp, {r0, r1, r3, r8, r9, fp, ip, sp}
    11b8:	0013010b 	andseq	r0, r3, fp, lsl #2
    11bc:	000d0900 	andeq	r0, sp, r0, lsl #18
    11c0:	0b3a0803 	bleq	e831d4 <__bss_end__+0xe78eb4>
    11c4:	0b390b3b 	bleq	e43eb8 <__bss_end__+0xe39b98>
    11c8:	0b381349 	bleq	e05ef4 <__bss_end__+0xdfbbd4>
    11cc:	0d0a0000 	stceq	0, cr0, [sl, #-0]
    11d0:	3a0e0300 	bcc	381dd8 <__bss_end__+0x377ab8>
    11d4:	390b3b0b 	stmdbcc	fp, {r0, r1, r3, r8, r9, fp, ip, sp}
    11d8:	3813490b 	ldmdacc	r3, {r0, r1, r3, r8, fp, lr}
    11dc:	0b00000b 	bleq	1210 <__code_start__-0x6df0>
    11e0:	0e030034 	mcreq	0, 0, r0, cr3, cr4, {1}
    11e4:	0b3b0b3a 	bleq	ec3ed4 <__bss_end__+0xeb9bb4>
    11e8:	13490b39 	movtne	r0, #39737	; 0x9b39
    11ec:	0000061c 	andeq	r0, r0, ip, lsl r6
    11f0:	0b000f0c 	bleq	4e28 <__code_start__-0x31d8>
    11f4:	0013490b 	andseq	r4, r3, fp, lsl #18
    11f8:	00260d00 	eoreq	r0, r6, r0, lsl #26
    11fc:	00001349 	andeq	r1, r0, r9, asr #6
    1200:	3f012e0e 	svccc	0x00012e0e
    1204:	3a0e0319 	bcc	381e70 <__bss_end__+0x377b50>
    1208:	390b3b0b 	stmdbcc	fp, {r0, r1, r3, r8, r9, fp, ip, sp}
    120c:	1119270b 	tstne	r9, fp, lsl #14
    1210:	40061201 	andmi	r1, r6, r1, lsl #4
    1214:	19429718 	stmdbne	r2, {r3, r4, r8, r9, sl, ip, pc}^
    1218:	00001301 	andeq	r1, r0, r1, lsl #6
    121c:	0182890f 	orreq	r8, r2, pc, lsl #18
    1220:	31011100 	mrscc	r1, (UNDEF: 17)
    1224:	10000013 	andne	r0, r0, r3, lsl r0
    1228:	193f012e 	ldmdbne	pc!, {r1, r2, r3, r5, r8}	; <UNPREDICTABLE>
    122c:	0b3a0e03 	bleq	e84a40 <__bss_end__+0xe7a720>
    1230:	0b390b3b 	bleq	e43f24 <__bss_end__+0xe39c04>
    1234:	13491927 	movtne	r1, #39207	; 0x9927
    1238:	06120111 			; <UNDEFINED> instruction: 0x06120111
    123c:	42971840 	addsmi	r1, r7, #64, 16	; 0x400000
    1240:	00130119 	andseq	r0, r3, r9, lsl r1
    1244:	82891100 	addhi	r1, r9, #0
    1248:	01110101 	tsteq	r1, r1, lsl #2
    124c:	00001331 	andeq	r1, r0, r1, lsr r3
    1250:	01828a12 	orreq	r8, r2, r2, lsl sl
    1254:	91180200 	tstls	r8, r0, lsl #4
    1258:	00001842 	andeq	r1, r0, r2, asr #16
    125c:	03000513 	movweq	r0, #1299	; 0x513
    1260:	3b0b3a08 	blcc	2cfa88 <__bss_end__+0x2c5768>
    1264:	490b390b 	stmdbmi	fp, {r0, r1, r3, r8, fp, ip, sp}
    1268:	b7170213 			; <UNDEFINED> instruction: 0xb7170213
    126c:	00001742 	andeq	r1, r0, r2, asr #14
    1270:	01828914 	orreq	r8, r2, r4, lsl r9
    1274:	31011101 	tstcc	r1, r1, lsl #2
    1278:	00130113 	andseq	r0, r3, r3, lsl r1
    127c:	00341500 	eorseq	r1, r4, r0, lsl #10
    1280:	0b3a0803 	bleq	e83294 <__bss_end__+0xe78f74>
    1284:	0b390b3b 	bleq	e43f78 <__bss_end__+0xe39c58>
    1288:	17021349 	strne	r1, [r2, -r9, asr #6]
    128c:	001742b7 			; <UNDEFINED> instruction: 0x001742b7
    1290:	00341600 	eorseq	r1, r4, r0, lsl #12
    1294:	0b3a0e03 	bleq	e84aa8 <__bss_end__+0xe7a788>
    1298:	0b390b3b 	bleq	e43f8c <__bss_end__+0xe39c6c>
    129c:	051c1349 	ldreq	r1, [ip, #-841]	; 0xfffffcb7
    12a0:	2e170000 	cdpcs	0, 1, cr0, cr7, cr0, {0}
    12a4:	3a0e0301 	bcc	381eb0 <__bss_end__+0x377b90>
    12a8:	390b3b0b 	stmdbcc	fp, {r0, r1, r3, r8, r9, fp, ip, sp}
    12ac:	1119270b 	tstne	r9, fp, lsl #14
    12b0:	40061201 	andmi	r1, r6, r1, lsl #4
    12b4:	19429718 	stmdbne	r2, {r3, r4, r8, r9, sl, ip, pc}^
    12b8:	00001301 	andeq	r1, r0, r1, lsl #6
    12bc:	03000518 	movweq	r0, #1304	; 0x518
    12c0:	3b0b3a0e 	blcc	2cfb00 <__bss_end__+0x2c57e0>
    12c4:	490b390b 	stmdbmi	fp, {r0, r1, r3, r8, fp, ip, sp}
    12c8:	b7170213 			; <UNDEFINED> instruction: 0xb7170213
    12cc:	00001742 	andeq	r1, r0, r2, asr #14
    12d0:	00003519 	andeq	r3, r0, r9, lsl r5
    12d4:	002e1a00 	eoreq	r1, lr, r0, lsl #20
    12d8:	193c193f 	ldmdbne	ip!, {r0, r1, r2, r3, r4, r5, r8, fp, ip}
    12dc:	0e030e6e 	cdpeq	14, 0, cr0, cr3, cr14, {3}
    12e0:	0b3b0b3a 	bleq	ec3fd0 <__bss_end__+0xeb9cb0>
    12e4:	00000b39 	andeq	r0, r0, r9, lsr fp
    12e8:	01110100 	tsteq	r1, r0, lsl #2
    12ec:	0b130e25 	bleq	4c4b88 <__bss_end__+0x4ba868>
    12f0:	0e1b0e03 	cdpeq	14, 1, cr0, cr11, cr3, {0}
    12f4:	06120111 			; <UNDEFINED> instruction: 0x06120111
    12f8:	00001710 	andeq	r1, r0, r0, lsl r7
    12fc:	0b002402 	bleq	a30c <__data_end__+0x3f4>
    1300:	030b3e0b 	movweq	r3, #48651	; 0xbe0b
    1304:	03000008 	movweq	r0, #8
    1308:	0b0b0024 	bleq	2c13a0 <__bss_end__+0x2b7080>
    130c:	0e030b3e 	vmoveq.16	d3[0], r0
    1310:	16040000 	strne	r0, [r4], -r0
    1314:	3a0e0300 	bcc	381f1c <__bss_end__+0x377bfc>
    1318:	390b3b0b 	stmdbcc	fp, {r0, r1, r3, r8, r9, fp, ip, sp}
    131c:	0013490b 	andseq	r4, r3, fp, lsl #18
    1320:	00260500 	eoreq	r0, r6, r0, lsl #10
    1324:	00001349 	andeq	r1, r0, r9, asr #6
    1328:	0b000f06 	bleq	4f48 <__code_start__-0x30b8>
    132c:	0700000b 	streq	r0, [r0, -fp]
    1330:	0b3e0104 	bleq	f81748 <__bss_end__+0xf77428>
    1334:	13490b0b 	movtne	r0, #39691	; 0x9b0b
    1338:	0b3b0b3a 	bleq	ec4028 <__bss_end__+0xeb9d08>
    133c:	13010b39 	movwne	r0, #6969	; 0x1b39
    1340:	28080000 	stmdacs	r8, {}	; <UNPREDICTABLE>
    1344:	1c0e0300 	stcne	3, cr0, [lr], {-0}
    1348:	09000006 	stmdbeq	r0, {r1, r2}
    134c:	0e030034 	mcreq	0, 0, r0, cr3, cr4, {1}
    1350:	0b3b0b3a 	bleq	ec4040 <__bss_end__+0xeb9d20>
    1354:	13490b39 	movtne	r0, #39737	; 0x9b39
    1358:	193c193f 	ldmdbne	ip!, {r0, r1, r2, r3, r4, r5, r8, fp, ip}
    135c:	340a0000 	strcc	r0, [sl], #-0
    1360:	3a0e0300 	bcc	381f68 <__bss_end__+0x377c48>
    1364:	390b3b0b 	stmdbcc	fp, {r0, r1, r3, r8, r9, fp, ip, sp}
    1368:	0213490b 	andseq	r4, r3, #180224	; 0x2c000
    136c:	0b000018 	bleq	13d4 <__code_start__-0x6c2c>
    1370:	0b0b000f 	bleq	2c13b4 <__bss_end__+0x2b7094>
    1374:	00001349 	andeq	r1, r0, r9, asr #6
    1378:	3f012e0c 	svccc	0x00012e0c
    137c:	3a0e0319 	bcc	381fe8 <__bss_end__+0x377cc8>
    1380:	390b3b0b 	stmdbcc	fp, {r0, r1, r3, r8, r9, fp, ip, sp}
    1384:	1119270b 	tstne	r9, fp, lsl #14
    1388:	40061201 	andmi	r1, r6, r1, lsl #4
    138c:	19429718 	stmdbne	r2, {r3, r4, r8, r9, sl, ip, pc}^
    1390:	00001301 	andeq	r1, r0, r1, lsl #6
    1394:	0300050d 	movweq	r0, #1293	; 0x50d
    1398:	3b0b3a08 	blcc	2cfbc0 <__bss_end__+0x2c58a0>
    139c:	490b390b 	stmdbmi	fp, {r0, r1, r3, r8, fp, ip, sp}
    13a0:	b7170213 			; <UNDEFINED> instruction: 0xb7170213
    13a4:	00001742 	andeq	r1, r0, r2, asr #14
    13a8:	0300340e 	movweq	r3, #1038	; 0x40e
    13ac:	3413490e 	ldrcc	r4, [r3], #-2318	; 0xfffff6f2
    13b0:	00180219 	andseq	r0, r8, r9, lsl r2
    13b4:	82890f00 	addhi	r0, r9, #0, 30
    13b8:	01110101 	tsteq	r1, r1, lsl #2
    13bc:	13011331 	movwne	r1, #4913	; 0x1331
    13c0:	8a100000 	bhi	4013c8 <__bss_end__+0x3f70a8>
    13c4:	02000182 	andeq	r0, r0, #-2147483616	; 0x80000020
    13c8:	18429118 	stmdane	r2, {r3, r4, r8, ip, pc}^
    13cc:	89110000 	ldmdbhi	r1, {}	; <UNPREDICTABLE>
    13d0:	11000182 	smlabbne	r0, r2, r1, r0
    13d4:	00133101 	andseq	r3, r3, r1, lsl #2
    13d8:	01011200 	mrseq	r1, R9_usr
    13dc:	13011349 	movwne	r1, #4937	; 0x1349
    13e0:	21130000 	tstcs	r3, r0
    13e4:	2f134900 	svccs	0x00134900
    13e8:	1400000b 	strne	r0, [r0], #-11
    13ec:	193f002e 	ldmdbne	pc!, {r1, r2, r3, r5}	; <UNPREDICTABLE>
    13f0:	0b3a0e03 	bleq	e84c04 <__bss_end__+0xe7a8e4>
    13f4:	0b390b3b 	bleq	e440e8 <__bss_end__+0xe39dc8>
    13f8:	01111927 	tsteq	r1, r7, lsr #18
    13fc:	18400612 	stmdane	r0, {r1, r4, r9, sl}^
    1400:	00194297 	mulseq	r9, r7, r2
    1404:	00051500 	andeq	r1, r5, r0, lsl #10
    1408:	0b3a0803 	bleq	e8341c <__bss_end__+0xe790fc>
    140c:	0b390b3b 	bleq	e44100 <__bss_end__+0xe39de0>
    1410:	18021349 	stmdane	r2, {r0, r3, r6, r8, r9, ip}
    1414:	2e160000 	cdpcs	0, 1, cr0, cr6, cr0, {0}
    1418:	03193f01 	tsteq	r9, #1, 30
    141c:	3b0b3a0e 	blcc	2cfc5c <__bss_end__+0x2c593c>
    1420:	270b390b 	strcs	r3, [fp, -fp, lsl #18]
    1424:	11134919 	tstne	r3, r9, lsl r9
    1428:	40061201 	andmi	r1, r6, r1, lsl #4
    142c:	19429718 	stmdbne	r2, {r3, r4, r8, r9, sl, ip, pc}^
    1430:	00001301 	andeq	r1, r0, r1, lsl #6
    1434:	03000517 	movweq	r0, #1303	; 0x517
    1438:	3b0b3a0e 	blcc	2cfc78 <__bss_end__+0x2c5958>
    143c:	490b390b 	stmdbmi	fp, {r0, r1, r3, r8, fp, ip, sp}
    1440:	b7170213 			; <UNDEFINED> instruction: 0xb7170213
    1444:	00001742 	andeq	r1, r0, r2, asr #14
    1448:	03003418 	movweq	r3, #1048	; 0x418
    144c:	3b0b3a08 	blcc	2cfc74 <__bss_end__+0x2c5954>
    1450:	490b390b 	stmdbmi	fp, {r0, r1, r3, r8, fp, ip, sp}
    1454:	b7170213 			; <UNDEFINED> instruction: 0xb7170213
    1458:	00001742 	andeq	r1, r0, r2, asr #14
    145c:	31011d19 	tstcc	r1, r9, lsl sp
    1460:	b8015213 	stmdalt	r1, {r0, r1, r4, r9, ip, lr}
    1464:	01110b42 	tsteq	r1, r2, asr #22
    1468:	0b580612 	bleq	1602cb8 <__bss_end__+0x15f8998>
    146c:	0b570b59 	bleq	15c41d8 <__bss_end__+0x15b9eb8>
    1470:	00001301 	andeq	r1, r0, r1, lsl #6
    1474:	3100051a 	tstcc	r0, sl, lsl r5
    1478:	b7170213 			; <UNDEFINED> instruction: 0xb7170213
    147c:	00001742 	andeq	r1, r0, r2, asr #14
    1480:	31011d1b 	tstcc	r1, fp, lsl sp
    1484:	b8015213 	stmdalt	r1, {r0, r1, r4, r9, ip, lr}
    1488:	17550b42 	ldrbne	r0, [r5, -r2, asr #22]
    148c:	0b590b58 	bleq	16441f4 <__bss_end__+0x1639ed4>
    1490:	13010b57 	movwne	r0, #6999	; 0x1b57
    1494:	0b1c0000 	bleq	70149c <__bss_end__+0x6f717c>
    1498:	00175501 	andseq	r5, r7, r1, lsl #10
    149c:	00341d00 	eorseq	r1, r4, r0, lsl #26
    14a0:	0b3a0e03 	bleq	e84cb4 <__bss_end__+0xe7a994>
    14a4:	0b390b3b 	bleq	e44198 <__bss_end__+0xe39e78>
    14a8:	17021349 	strne	r1, [r2, -r9, asr #6]
    14ac:	001742b7 			; <UNDEFINED> instruction: 0x001742b7
    14b0:	000b1e00 	andeq	r1, fp, r0, lsl #28
    14b4:	00001755 	andeq	r1, r0, r5, asr r7
    14b8:	3f002e1f 	svccc	0x00002e1f
    14bc:	3a0e0319 	bcc	382128 <__bss_end__+0x377e08>
    14c0:	390b3b0b 	stmdbcc	fp, {r0, r1, r3, r8, r9, fp, ip, sp}
    14c4:	4919270b 	ldmdbmi	r9, {r0, r1, r3, r8, r9, sl, sp}
    14c8:	12011113 	andne	r1, r1, #-1073741820	; 0xc0000004
    14cc:	97184006 	ldrls	r4, [r8, -r6]
    14d0:	00001942 	andeq	r1, r0, r2, asr #18
    14d4:	03012e20 	movweq	r2, #7712	; 0x1e20
    14d8:	3b0b3a0e 	blcc	2cfd18 <__bss_end__+0x2c59f8>
    14dc:	270b390b 	strcs	r3, [fp, -fp, lsl #18]
    14e0:	20134919 	andscs	r4, r3, r9, lsl r9
    14e4:	0013010b 	andseq	r0, r3, fp, lsl #2
    14e8:	00052100 	andeq	r2, r5, r0, lsl #2
    14ec:	0b3a0803 	bleq	e83500 <__bss_end__+0xe791e0>
    14f0:	0b390b3b 	bleq	e441e4 <__bss_end__+0xe39ec4>
    14f4:	00001349 	andeq	r1, r0, r9, asr #6
    14f8:	3f002e22 	svccc	0x00002e22
    14fc:	6e193c19 	mrcvs	12, 0, r3, cr9, cr9, {0}
    1500:	3a0e030e 	bcc	382140 <__bss_end__+0x377e20>
    1504:	390b3b0b 	stmdbcc	fp, {r0, r1, r3, r8, r9, fp, ip, sp}
    1508:	0000000b 	andeq	r0, r0, fp
    150c:	25011101 	strcs	r1, [r1, #-257]	; 0xfffffeff
    1510:	030b130e 	movweq	r1, #45838	; 0xb30e
    1514:	110e1b0e 	tstne	lr, lr, lsl #22
    1518:	10061201 	andne	r1, r6, r1, lsl #4
    151c:	02000017 	andeq	r0, r0, #23, 0
    1520:	0b0b0024 	bleq	2c15b8 <__bss_end__+0x2b7298>
    1524:	08030b3e 	stmdaeq	r3, {r1, r2, r3, r4, r5, r8, r9, fp}
    1528:	24030000 	strcs	r0, [r3], #-0
    152c:	3e0b0b00 	vmlacc.f64	d0, d11, d0
    1530:	000e030b 	andeq	r0, lr, fp, lsl #6
    1534:	01150400 	tsteq	r5, r0, lsl #8
    1538:	13491927 	movtne	r1, #39207	; 0x9927
    153c:	00001301 	andeq	r1, r0, r1, lsl #6
    1540:	49000505 	stmdbmi	r0, {r0, r2, r8, sl}
    1544:	06000013 			; <UNDEFINED> instruction: 0x06000013
    1548:	0e030034 	mcreq	0, 0, r0, cr3, cr4, {1}
    154c:	0b3b0b3a 	bleq	ec423c <__bss_end__+0xeb9f1c>
    1550:	13490b39 	movtne	r0, #39737	; 0x9b39
    1554:	193c193f 	ldmdbne	ip!, {r0, r1, r2, r3, r4, r5, r8, fp, ip}
    1558:	0f070000 	svceq	0x00070000
    155c:	490b0b00 	stmdbmi	fp, {r8, r9, fp}
    1560:	08000013 	stmdaeq	r0, {r0, r1, r4}
    1564:	13490026 	movtne	r0, #36902	; 0x9026
    1568:	2e090000 	cdpcs	0, 0, cr0, cr9, cr0, {0}
    156c:	03193f01 	tsteq	r9, #1, 30
    1570:	3b0b3a0e 	blcc	2cfdb0 <__bss_end__+0x2c5a90>
    1574:	270b390b 	strcs	r3, [fp, -fp, lsl #18]
    1578:	11134919 	tstne	r3, r9, lsl r9
    157c:	40061201 	andmi	r1, r6, r1, lsl #4
    1580:	19429718 	stmdbne	r2, {r3, r4, r8, r9, sl, ip, pc}^
    1584:	00001301 	andeq	r1, r0, r1, lsl #6
    1588:	0300050a 	movweq	r0, #1290	; 0x50a
    158c:	3b0b3a0e 	blcc	2cfdcc <__bss_end__+0x2c5aac>
    1590:	490b390b 	stmdbmi	fp, {r0, r1, r3, r8, fp, ip, sp}
    1594:	00180213 	andseq	r0, r8, r3, lsl r2
    1598:	00050b00 	andeq	r0, r5, r0, lsl #22
    159c:	0b3a0803 	bleq	e835b0 <__bss_end__+0xe79290>
    15a0:	0b390b3b 	bleq	e44294 <__bss_end__+0xe39f74>
    15a4:	17021349 	strne	r1, [r2, -r9, asr #6]
    15a8:	001742b7 			; <UNDEFINED> instruction: 0x001742b7
    15ac:	00340c00 	eorseq	r0, r4, r0, lsl #24
    15b0:	0b3a0803 	bleq	e835c4 <__bss_end__+0xe792a4>
    15b4:	0b390b3b 	bleq	e442a8 <__bss_end__+0xe39f88>
    15b8:	17021349 	strne	r1, [r2, -r9, asr #6]
    15bc:	001742b7 			; <UNDEFINED> instruction: 0x001742b7
    15c0:	11010000 	mrsne	r0, (UNDEF: 1)
    15c4:	130e2501 	movwne	r2, #58625	; 0xe501
    15c8:	1b0e030b 	blne	3821fc <__bss_end__+0x377edc>
    15cc:	1201110e 	andne	r1, r1, #-2147483645	; 0x80000003
    15d0:	00171006 	andseq	r1, r7, r6
    15d4:	00240200 	eoreq	r0, r4, r0, lsl #4
    15d8:	0b3e0b0b 	bleq	f8420c <__bss_end__+0xf79eec>
    15dc:	00000803 	andeq	r0, r0, r3, lsl #16
    15e0:	0b002403 	bleq	a5f4 <__bss_end__+0x2d4>
    15e4:	030b3e0b 	movweq	r3, #48651	; 0xbe0b
    15e8:	0400000e 	streq	r0, [r0], #-14
    15ec:	19270115 	stmdbne	r7!, {r0, r2, r4, r8}
    15f0:	13011349 	movwne	r1, #4937	; 0x1349
    15f4:	05050000 	streq	r0, [r5, #-0]
    15f8:	00134900 	andseq	r4, r3, r0, lsl #18
    15fc:	00340600 	eorseq	r0, r4, r0, lsl #12
    1600:	0b3a0e03 	bleq	e84e14 <__bss_end__+0xe7aaf4>
    1604:	0b390b3b 	bleq	e442f8 <__bss_end__+0xe39fd8>
    1608:	193f1349 	ldmdbne	pc!, {r0, r3, r6, r8, r9, ip}	; <UNPREDICTABLE>
    160c:	0000193c 	andeq	r1, r0, ip, lsr r9
    1610:	0b000f07 	bleq	5234 <__code_start__-0x2dcc>
    1614:	0013490b 	andseq	r4, r3, fp, lsl #18
    1618:	00260800 	eoreq	r0, r6, r0, lsl #16
    161c:	00001349 	andeq	r1, r0, r9, asr #6
    1620:	3f012e09 	svccc	0x00012e09
    1624:	3a0e0319 	bcc	382290 <__bss_end__+0x377f70>
    1628:	390b3b0b 	stmdbcc	fp, {r0, r1, r3, r8, r9, fp, ip, sp}
    162c:	4919270b 	ldmdbmi	r9, {r0, r1, r3, r8, r9, sl, sp}
    1630:	12011113 	andne	r1, r1, #-1073741820	; 0xc0000004
    1634:	97184006 	ldrls	r4, [r8, -r6]
    1638:	00001942 	andeq	r1, r0, r2, asr #18
    163c:	0300050a 	movweq	r0, #1290	; 0x50a
    1640:	3b0b3a08 	blcc	2cfe68 <__bss_end__+0x2c5b48>
    1644:	490b390b 	stmdbmi	fp, {r0, r1, r3, r8, fp, ip, sp}
    1648:	b7170213 			; <UNDEFINED> instruction: 0xb7170213
    164c:	00001742 	andeq	r1, r0, r2, asr #14
    1650:	01110100 	tsteq	r1, r0, lsl #2
    1654:	0b130e25 	bleq	4c4ef0 <__bss_end__+0x4babd0>
    1658:	0e1b0e03 	cdpeq	14, 1, cr0, cr11, cr3, {0}
    165c:	06120111 			; <UNDEFINED> instruction: 0x06120111
    1660:	00001710 	andeq	r1, r0, r0, lsl r7
    1664:	0b002402 	bleq	a674 <__bss_end__+0x354>
    1668:	030b3e0b 	movweq	r3, #48651	; 0xbe0b
    166c:	03000008 	movweq	r0, #8
    1670:	0b0b0024 	bleq	2c1708 <__bss_end__+0x2b73e8>
    1674:	0e030b3e 	vmoveq.16	d3[0], r0
    1678:	15040000 	strne	r0, [r4, #-0]
    167c:	49192701 	ldmdbmi	r9, {r0, r8, r9, sl, sp}
    1680:	00130113 	andseq	r0, r3, r3, lsl r1
    1684:	00050500 	andeq	r0, r5, r0, lsl #10
    1688:	00001349 	andeq	r1, r0, r9, asr #6
    168c:	03003406 	movweq	r3, #1030	; 0x406
    1690:	3b0b3a0e 	blcc	2cfed0 <__bss_end__+0x2c5bb0>
    1694:	490b390b 	stmdbmi	fp, {r0, r1, r3, r8, fp, ip, sp}
    1698:	3c193f13 	ldccc	15, cr3, [r9], {19}
    169c:	07000019 	smladeq	r0, r9, r0, r0
    16a0:	0b0b000f 	bleq	2c16e4 <__bss_end__+0x2b73c4>
    16a4:	00001349 	andeq	r1, r0, r9, asr #6
    16a8:	49002608 	stmdbmi	r0, {r3, r9, sl, sp}
    16ac:	09000013 	stmdbeq	r0, {r0, r1, r4}
    16b0:	193f012e 	ldmdbne	pc!, {r1, r2, r3, r5, r8}	; <UNPREDICTABLE>
    16b4:	0b3a0e03 	bleq	e84ec8 <__bss_end__+0xe7aba8>
    16b8:	0b390b3b 	bleq	e443ac <__bss_end__+0xe3a08c>
    16bc:	13491927 	movtne	r1, #39207	; 0x9927
    16c0:	06120111 			; <UNDEFINED> instruction: 0x06120111
    16c4:	42971840 	addsmi	r1, r7, #64, 16	; 0x400000
    16c8:	00130119 	andseq	r0, r3, r9, lsl r1
    16cc:	00050a00 	andeq	r0, r5, r0, lsl #20
    16d0:	0b3a0803 	bleq	e836e4 <__bss_end__+0xe793c4>
    16d4:	0b390b3b 	bleq	e443c8 <__bss_end__+0xe3a0a8>
    16d8:	18021349 	stmdane	r2, {r0, r3, r6, r8, r9, ip}
    16dc:	050b0000 	streq	r0, [fp, #-0]
    16e0:	3a080300 	bcc	2022e8 <__bss_end__+0x1f7fc8>
    16e4:	390b3b0b 	stmdbcc	fp, {r0, r1, r3, r8, r9, fp, ip, sp}
    16e8:	0213490b 	andseq	r4, r3, #180224	; 0x2c000
    16ec:	1742b717 	smlaldne	fp, r2, r7, r7
    16f0:	340c0000 	strcc	r0, [ip], #-0
    16f4:	3a080300 	bcc	2022fc <__bss_end__+0x1f7fdc>
    16f8:	390b3b0b 	stmdbcc	fp, {r0, r1, r3, r8, r9, fp, ip, sp}
    16fc:	0213490b 	andseq	r4, r3, #180224	; 0x2c000
    1700:	1742b717 	smlaldne	fp, r2, r7, r7
    1704:	01000000 	mrseq	r0, (UNDEF: 0)
    1708:	0e250111 	mcreq	1, 1, r0, cr5, cr1, {0}
    170c:	0e030b13 	vmoveq.32	d3[0], r0
    1710:	17550e1b 	smmlane	r5, fp, lr, r0
    1714:	17100111 			; <UNDEFINED> instruction: 0x17100111
    1718:	24020000 	strcs	r0, [r2], #-0
    171c:	3e0b0b00 	vmlacc.f64	d0, d11, d0
    1720:	0008030b 	andeq	r0, r8, fp, lsl #6
    1724:	00160300 	andseq	r0, r6, r0, lsl #6
    1728:	0b3a0e03 	bleq	e84f3c <__bss_end__+0xe7ac1c>
    172c:	0b390b3b 	bleq	e44420 <__bss_end__+0xe3a100>
    1730:	00001349 	andeq	r1, r0, r9, asr #6
    1734:	0b002404 	bleq	a74c <__bss_end__+0x42c>
    1738:	030b3e0b 	movweq	r3, #48651	; 0xbe0b
    173c:	0500000e 	streq	r0, [r0, #-14]
    1740:	13490026 	movtne	r0, #36902	; 0x9026
    1744:	15060000 	strne	r0, [r6, #-0]
    1748:	49192701 	ldmdbmi	r9, {r0, r8, r9, sl, sp}
    174c:	00130113 	andseq	r0, r3, r3, lsl r1
    1750:	00050700 	andeq	r0, r5, r0, lsl #14
    1754:	00001349 	andeq	r1, r0, r9, asr #6
    1758:	03003408 	movweq	r3, #1032	; 0x408
    175c:	3b0b3a0e 	blcc	2cff9c <__bss_end__+0x2c5c7c>
    1760:	490b390b 	stmdbmi	fp, {r0, r1, r3, r8, fp, ip, sp}
    1764:	3c193f13 	ldccc	15, cr3, [r9], {19}
    1768:	09000019 	stmdbeq	r0, {r0, r3, r4}
    176c:	0b0b000f 	bleq	2c17b0 <__bss_end__+0x2b7490>
    1770:	00001349 	andeq	r1, r0, r9, asr #6
    1774:	3f012e0a 	svccc	0x00012e0a
    1778:	3a0e0319 	bcc	3823e4 <__bss_end__+0x3780c4>
    177c:	390b3b0b 	stmdbcc	fp, {r0, r1, r3, r8, r9, fp, ip, sp}
    1780:	4919270b 	ldmdbmi	r9, {r0, r1, r3, r8, r9, sl, sp}
    1784:	12011113 	andne	r1, r1, #-1073741820	; 0xc0000004
    1788:	97184006 	ldrls	r4, [r8, -r6]
    178c:	13011942 	movwne	r1, #6466	; 0x1942
    1790:	050b0000 	streq	r0, [fp, #-0]
    1794:	3a080300 	bcc	20239c <__bss_end__+0x1f807c>
    1798:	390b3b0b 	stmdbcc	fp, {r0, r1, r3, r8, r9, fp, ip, sp}
    179c:	0213490b 	andseq	r4, r3, #180224	; 0x2c000
    17a0:	1742b717 	smlaldne	fp, r2, r7, r7
    17a4:	340c0000 	strcc	r0, [ip], #-0
    17a8:	3a080300 	bcc	2023b0 <__bss_end__+0x1f8090>
    17ac:	390b3b0b 	stmdbcc	fp, {r0, r1, r3, r8, r9, fp, ip, sp}
    17b0:	0213490b 	andseq	r4, r3, #180224	; 0x2c000
    17b4:	1742b717 	smlaldne	fp, r2, r7, r7
    17b8:	01000000 	mrseq	r0, (UNDEF: 0)
    17bc:	0e250111 	mcreq	1, 1, r0, cr5, cr1, {0}
    17c0:	0e030b13 	vmoveq.32	d3[0], r0
    17c4:	01110e1b 	tsteq	r1, fp, lsl lr
    17c8:	17100612 			; <UNDEFINED> instruction: 0x17100612
    17cc:	24020000 	strcs	r0, [r2], #-0
    17d0:	3e0b0b00 	vmlacc.f64	d0, d11, d0
    17d4:	0008030b 	andeq	r0, r8, fp, lsl #6
    17d8:	00240300 	eoreq	r0, r4, r0, lsl #6
    17dc:	0b3e0b0b 	bleq	f84410 <__bss_end__+0xf7a0f0>
    17e0:	00000e03 	andeq	r0, r0, r3, lsl #28
    17e4:	27011504 	strcs	r1, [r1, -r4, lsl #10]
    17e8:	01134919 	tsteq	r3, r9, lsl r9
    17ec:	05000013 	streq	r0, [r0, #-19]	; 0xffffffed
    17f0:	13490005 	movtne	r0, #36869	; 0x9005
    17f4:	34060000 	strcc	r0, [r6], #-0
    17f8:	3a0e0300 	bcc	382400 <__bss_end__+0x3780e0>
    17fc:	390b3b0b 	stmdbcc	fp, {r0, r1, r3, r8, r9, fp, ip, sp}
    1800:	3f13490b 	svccc	0x0013490b
    1804:	00193c19 	andseq	r3, r9, r9, lsl ip
    1808:	000f0700 	andeq	r0, pc, r0, lsl #14
    180c:	13490b0b 	movtne	r0, #39691	; 0x9b0b
    1810:	26080000 	strcs	r0, [r8], -r0
    1814:	00134900 	andseq	r4, r3, r0, lsl #18
    1818:	002e0900 	eoreq	r0, lr, r0, lsl #18
    181c:	0e03193f 			; <UNDEFINED> instruction: 0x0e03193f
    1820:	0b3b0b3a 	bleq	ec4510 <__bss_end__+0xeba1f0>
    1824:	19270b39 	stmdbne	r7!, {r0, r3, r4, r5, r8, r9, fp}
    1828:	06120111 			; <UNDEFINED> instruction: 0x06120111
    182c:	42971840 	addsmi	r1, r7, #64, 16	; 0x400000
    1830:	00000019 	andeq	r0, r0, r9, lsl r0

Disassembly of section .debug_loc:

00000000 <.debug_loc>:
	...
       c:	000000c8 	andeq	r0, r0, r8, asr #1
      10:	000000dc 	ldrdeq	r0, [r0], -ip
      14:	dc500001 	mrrcle	0, 0, r0, r0, cr1	; <UNPREDICTABLE>
      18:	df000000 	svcle	0x00000000
      1c:	01000000 	mrseq	r0, (UNDEF: 0)
      20:	00df5100 	sbcseq	r5, pc, r0, lsl #2
      24:	01340000 	teqeq	r4, r0
      28:	00010000 	andeq	r0, r1, r0
      2c:	00013454 	andeq	r3, r1, r4, asr r4
      30:	00013700 	andeq	r3, r1, r0, lsl #14
      34:	51000100 	mrspl	r0, (UNDEF: 16)
      38:	00000137 	andeq	r0, r0, r7, lsr r1
      3c:	00000138 	andeq	r0, r0, r8, lsr r1
      40:	01f30004 	mvnseq	r0, r4
      44:	01389f50 	teqeq	r8, r0, asr pc
      48:	01700000 	cmneq	r0, r0
      4c:	00010000 	andeq	r0, r1, r0
      50:	00000054 	andeq	r0, r0, r4, asr r0
      54:	00000000 	andeq	r0, r0, r0
      58:	01000100 	mrseq	r0, (UNDEF: 16)
      5c:	0000e400 	andeq	lr, r0, r0, lsl #8
      60:	0000ec00 	andeq	lr, r0, r0, lsl #24
      64:	55000100 	strpl	r0, [r0, #-256]	; 0xffffff00
      68:	000000fc 	strdeq	r0, [r0], -ip
      6c:	00000118 	andeq	r0, r0, r8, lsl r1
      70:	00520001 	subseq	r0, r2, r1
      74:	00000000 	andeq	r0, r0, r0
      78:	01000000 	mrseq	r0, (UNDEF: 0)
      7c:	00000100 	andeq	r0, r0, r0, lsl #2
      80:	0000e800 	andeq	lr, r0, r0, lsl #16
      84:	0000f700 	andeq	pc, r0, r0, lsl #14
      88:	53000100 	movwpl	r0, #256	; 0x100
      8c:	00000110 	andeq	r0, r0, r0, lsl r1
      90:	0000012c 	andeq	r0, r0, ip, lsr #2
      94:	38500001 	ldmdacc	r0, {r0}^
      98:	4c000001 	stcmi	0, cr0, [r0], {1}
      9c:	01000001 	tsteq	r0, r1
      a0:	00005000 	andeq	r5, r0, r0
	...
      ac:	00ec0000 	rsceq	r0, ip, r0
      b0:	01340000 	teqeq	r4, r0
      b4:	00010000 	andeq	r0, r1, r0
      b8:	00013855 	andeq	r3, r1, r5, asr r8
      bc:	00017000 	andeq	r7, r1, r0
      c0:	55000100 	strpl	r0, [r0, #-256]	; 0xffffff00
	...
      d4:	0000011c 	andeq	r0, r0, ip, lsl r1
      d8:	00000137 	andeq	r0, r0, r7, lsr r1
      dc:	38530001 	ldmdacc	r3, {r0}^
      e0:	44000001 	strmi	r0, [r0], #-1
      e4:	01000001 	tsteq	r0, r1
      e8:	01445300 	mrseq	r5, SPSR_abt
      ec:	01530000 	cmpeq	r3, r0
      f0:	00020000 	andeq	r0, r2, r0
      f4:	01536091 			; <UNDEFINED> instruction: 0x01536091
      f8:	01700000 	cmneq	r0, r0
      fc:	00080000 	andeq	r0, r8, r0
     100:	00750074 	rsbseq	r0, r5, r4, ror r0
     104:	9f102322 	svcls	0x00102322
	...
     110:	00000001 	andeq	r0, r0, r1
     114:	011c0000 	tsteq	ip, r0
     118:	01370000 	teqeq	r7, r0
     11c:	00010000 	andeq	r0, r1, r0
     120:	00013852 	andeq	r3, r1, r2, asr r8
     124:	00014800 	andeq	r4, r1, r0, lsl #16
     128:	52000100 	andpl	r0, r0, #0
     12c:	00000148 	andeq	r0, r0, r8, asr #2
     130:	00000153 	andeq	r0, r0, r3, asr r1
     134:	5c910002 	ldcpl	0, cr0, [r1], {2}
	...
     140:	00e40000 	rsceq	r0, r4, r0
     144:	00ec0000 	rsceq	r0, ip, r0
     148:	00010000 	andeq	r0, r1, r0
     14c:	00000055 	andeq	r0, r0, r5, asr r0
     150:	00000000 	andeq	r0, r0, r0
     154:	e8000000 	stmda	r0, {}	; <UNPREDICTABLE>
     158:	f7000000 			; <UNDEFINED> instruction: 0xf7000000
     15c:	01000000 	mrseq	r0, (UNDEF: 0)
     160:	00005300 	andeq	r5, r0, r0, lsl #6
	...
     16c:	000000fc 	strdeq	r0, [r0], -ip
     170:	00000118 	andeq	r0, r0, r8, lsl r1
     174:	00520001 	subseq	r0, r2, r1
	...
     180:	10000000 	andne	r0, r0, r0
     184:	2c000001 	stccs	0, cr0, [r0], {1}
     188:	01000001 	tsteq	r0, r1
     18c:	01385000 	teqeq	r8, r0
     190:	014c0000 	mrseq	r0, (UNDEF: 76)
     194:	00010000 	andeq	r0, r1, r0
     198:	00000050 	andeq	r0, r0, r0, asr r0
     19c:	00000000 	andeq	r0, r0, r0
     1a0:	fc000300 	stc2	3, cr0, [r0], {-0}
     1a4:	0c000000 	stceq	0, cr0, [r0], {-0}
     1a8:	01000001 	tsteq	r0, r1
     1ac:	00005400 	andeq	r5, r0, r0, lsl #8
     1b0:	00000000 	andeq	r0, r0, r0
     1b4:	00030000 	andeq	r0, r3, r0
     1b8:	000000fc 	strdeq	r0, [r0], -ip
     1bc:	0000010c 	andeq	r0, r0, ip, lsl #2
     1c0:	00520001 	subseq	r0, r2, r1
     1c4:	00000000 	andeq	r0, r0, r0
     1c8:	01000000 	mrseq	r0, (UNDEF: 0)
     1cc:	00010000 	andeq	r0, r1, r0
     1d0:	00010400 	andeq	r0, r1, r0, lsl #8
     1d4:	5c000100 	stfpls	f0, [r0], {-0}
	...
     1e0:	01000000 	mrseq	r0, (UNDEF: 0)
     1e4:	01040000 	mrseq	r0, (UNDEF: 4)
     1e8:	00010000 	andeq	r0, r1, r0
     1ec:	0000005c 	andeq	r0, r0, ip, asr r0
	...
     1f8:	00025800 	andeq	r5, r2, r0, lsl #16
     1fc:	00027c00 	andeq	r7, r2, r0, lsl #24
     200:	50000100 	andpl	r0, r0, r0, lsl #2
     204:	0000027c 	andeq	r0, r0, ip, ror r2
     208:	000005e0 	andeq	r0, r0, r0, ror #11
     20c:	00560001 	subseq	r0, r6, r1
	...
     218:	58000000 	stmdapl	r0, {}	; <UNPREDICTABLE>
     21c:	6c000002 	stcvs	0, cr0, [r0], {2}
     220:	01000002 	tsteq	r0, r2
     224:	026c5100 	rsbeq	r5, ip, #0
     228:	05e00000 	strbeq	r0, [r0, #0]!
     22c:	00010000 	andeq	r0, r1, r0
     230:	00000057 	andeq	r0, r0, r7, asr r0
     234:	00000000 	andeq	r0, r0, r0
     238:	01000100 	mrseq	r0, (UNDEF: 16)
     23c:	00026c00 	andeq	r6, r2, r0, lsl #24
     240:	00027800 	andeq	r7, r2, r0, lsl #16
     244:	51000100 	mrspl	r0, (UNDEF: 16)
     248:	000004b4 			; <UNDEFINED> instruction: 0x000004b4
     24c:	000004d0 	ldrdeq	r0, [r0], -r0	; <UNPREDICTABLE>
     250:	00540001 	subseq	r0, r4, r1
     254:	00000000 	andeq	r0, r0, r0
     258:	01000000 	mrseq	r0, (UNDEF: 0)
     25c:	70000100 	andvc	r0, r0, r0, lsl #2
     260:	74000002 	strvc	r0, [r0], #-2
     264:	01000002 	tsteq	r0, r2
     268:	04c05400 	strbeq	r5, [r0], #1024	; 0x400
     26c:	04c80000 	strbeq	r0, [r8], #0
     270:	00010000 	andeq	r0, r1, r0
     274:	00000051 	andeq	r0, r0, r1, asr r0
	...
     280:	00027400 	andeq	r7, r2, r0, lsl #8
     284:	00029400 	andeq	r9, r2, r0, lsl #8
     288:	54000100 	strpl	r0, [r0], #-256	; 0xffffff00
     28c:	000002ac 	andeq	r0, r0, ip, lsr #5
     290:	000002b4 			; <UNDEFINED> instruction: 0x000002b4
     294:	00540001 	subseq	r0, r4, r1
	...
     2a0:	0004d000 	andeq	sp, r4, r0
     2a4:	0005e000 	andeq	lr, r5, r0
     2a8:	54000100 	strpl	r0, [r0], #-256	; 0xffffff00
	...
     2b4:	026c0000 	rsbeq	r0, ip, #0, 0
     2b8:	02780000 	rsbseq	r0, r8, #0, 0
     2bc:	00010000 	andeq	r0, r1, r0
     2c0:	00000051 	andeq	r0, r0, r1, asr r0
     2c4:	00000000 	andeq	r0, r0, r0
     2c8:	70000000 	andvc	r0, r0, r0
     2cc:	74000002 	strvc	r0, [r0], #-2
     2d0:	01000002 	tsteq	r0, r2
     2d4:	00005400 	andeq	r5, r0, r0, lsl #8
	...
     2e0:	000002c8 	andeq	r0, r0, r8, asr #5
     2e4:	000003ac 	andeq	r0, r0, ip, lsr #7
     2e8:	00530001 	subseq	r0, r3, r1
	...
     2f4:	00039400 	andeq	r9, r3, r0, lsl #8
     2f8:	00039c00 	andeq	r9, r3, r0, lsl #24
     2fc:	50000100 	andpl	r0, r0, r0, lsl #2
	...
     308:	02c80001 	sbceq	r0, r8, #1, 0
     30c:	02cc0000 	sbceq	r0, ip, #0, 0
     310:	00010000 	andeq	r0, r1, r0
     314:	00000056 	andeq	r0, r0, r6, asr r0
     318:	00000000 	andeq	r0, r0, r0
     31c:	cc000200 	sfmgt	f0, 4, [r0], {-0}
     320:	d0000002 	andle	r0, r0, r2
     324:	01000002 	tsteq	r0, r2
     328:	00005600 	andeq	r5, r0, r0, lsl #12
     32c:	00000000 	andeq	r0, r0, r0
     330:	00020000 	andeq	r0, r2, r0
     334:	000002d0 	ldrdeq	r0, [r0], -r0	; <UNPREDICTABLE>
     338:	000002d4 	ldrdeq	r0, [r0], -r4
     33c:	00560001 	subseq	r0, r6, r1
     340:	00000000 	andeq	r0, r0, r0
     344:	02000000 	andeq	r0, r0, #0, 0
     348:	0002d400 	andeq	sp, r2, r0, lsl #8
     34c:	0002d800 	andeq	sp, r2, r0, lsl #16
     350:	56000100 	strpl	r0, [r0], -r0, lsl #2
	...
     35c:	02d80002 	sbcseq	r0, r8, #2, 0
     360:	02dc0000 	sbcseq	r0, ip, #0, 0
     364:	00010000 	andeq	r0, r1, r0
     368:	00000056 	andeq	r0, r0, r6, asr r0
     36c:	00000000 	andeq	r0, r0, r0
     370:	dc000200 	sfmle	f0, 4, [r0], {-0}
     374:	e0000002 	and	r0, r0, r2
     378:	01000002 	tsteq	r0, r2
     37c:	00005600 	andeq	r5, r0, r0, lsl #12
     380:	00000000 	andeq	r0, r0, r0
     384:	00020000 	andeq	r0, r2, r0
     388:	000002e0 	andeq	r0, r0, r0, ror #5
     38c:	000002e4 	andeq	r0, r0, r4, ror #5
     390:	00560001 	subseq	r0, r6, r1
     394:	00000000 	andeq	r0, r0, r0
     398:	02000000 	andeq	r0, r0, #0, 0
     39c:	0002e400 	andeq	lr, r2, r0, lsl #8
     3a0:	0002e800 	andeq	lr, r2, r0, lsl #16
     3a4:	56000100 	strpl	r0, [r0], -r0, lsl #2
	...
     3b0:	02e80002 	rsceq	r0, r8, #2, 0
     3b4:	02ec0000 	rsceq	r0, ip, #0, 0
     3b8:	00010000 	andeq	r0, r1, r0
     3bc:	00000056 	andeq	r0, r0, r6, asr r0
     3c0:	00000000 	andeq	r0, r0, r0
     3c4:	ec000200 	sfm	f0, 4, [r0], {-0}
     3c8:	f0000002 			; <UNDEFINED> instruction: 0xf0000002
     3cc:	01000002 	tsteq	r0, r2
     3d0:	00005600 	andeq	r5, r0, r0, lsl #12
     3d4:	00000000 	andeq	r0, r0, r0
     3d8:	00020000 	andeq	r0, r2, r0
     3dc:	000002f0 	strdeq	r0, [r0], -r0	; <UNPREDICTABLE>
     3e0:	000002f4 	strdeq	r0, [r0], -r4
     3e4:	00560001 	subseq	r0, r6, r1
     3e8:	00000000 	andeq	r0, r0, r0
     3ec:	02000000 	andeq	r0, r0, #0, 0
     3f0:	0002f400 	andeq	pc, r2, r0, lsl #8
     3f4:	0002f800 	andeq	pc, r2, r0, lsl #16
     3f8:	56000100 	strpl	r0, [r0], -r0, lsl #2
	...
     404:	02f80002 	rscseq	r0, r8, #2, 0
     408:	02fc0000 	rscseq	r0, ip, #0, 0
     40c:	00010000 	andeq	r0, r1, r0
     410:	00000056 	andeq	r0, r0, r6, asr r0
     414:	00000000 	andeq	r0, r0, r0
     418:	fc000200 	stc2	2, cr0, [r0], {-0}
     41c:	00000002 	andeq	r0, r0, r2
     420:	01000003 	tsteq	r0, r3
     424:	00005600 	andeq	r5, r0, r0, lsl #12
     428:	00000000 	andeq	r0, r0, r0
     42c:	00020000 	andeq	r0, r2, r0
     430:	00000300 	andeq	r0, r0, r0, lsl #6
     434:	00000304 	andeq	r0, r0, r4, lsl #6
     438:	00560001 	subseq	r0, r6, r1
     43c:	00000000 	andeq	r0, r0, r0
     440:	02000000 	andeq	r0, r0, #0, 0
     444:	00030400 	andeq	r0, r3, r0, lsl #8
     448:	00030800 	andeq	r0, r3, r0, lsl #16
     44c:	56000100 	strpl	r0, [r0], -r0, lsl #2
	...
     458:	03080002 	movweq	r0, #32770	; 0x8002
     45c:	030c0000 	movweq	r0, #49152	; 0xc000
     460:	00010000 	andeq	r0, r1, r0
     464:	00000056 	andeq	r0, r0, r6, asr r0
     468:	00000000 	andeq	r0, r0, r0
     46c:	0c000200 	sfmeq	f0, 4, [r0], {-0}
     470:	10000003 	andne	r0, r0, r3
     474:	01000003 	tsteq	r0, r3
     478:	00005600 	andeq	r5, r0, r0, lsl #12
     47c:	00000000 	andeq	r0, r0, r0
     480:	00020000 	andeq	r0, r2, r0
     484:	00000310 	andeq	r0, r0, r0, lsl r3
     488:	00000314 	andeq	r0, r0, r4, lsl r3
     48c:	00560001 	subseq	r0, r6, r1
     490:	00000000 	andeq	r0, r0, r0
     494:	02000000 	andeq	r0, r0, #0, 0
     498:	00031400 	andeq	r1, r3, r0, lsl #8
     49c:	00031800 	andeq	r1, r3, r0, lsl #16
     4a0:	56000100 	strpl	r0, [r0], -r0, lsl #2
	...
     4ac:	03180002 	tsteq	r8, #2, 0
     4b0:	031c0000 	tsteq	ip, #0, 0
     4b4:	00010000 	andeq	r0, r1, r0
     4b8:	00000056 	andeq	r0, r0, r6, asr r0
     4bc:	00000000 	andeq	r0, r0, r0
     4c0:	1c000200 	sfmne	f0, 4, [r0], {-0}
     4c4:	20000003 	andcs	r0, r0, r3
     4c8:	01000003 	tsteq	r0, r3
     4cc:	00005600 	andeq	r5, r0, r0, lsl #12
     4d0:	00000000 	andeq	r0, r0, r0
     4d4:	00020000 	andeq	r0, r2, r0
     4d8:	00000320 	andeq	r0, r0, r0, lsr #6
     4dc:	00000324 	andeq	r0, r0, r4, lsr #6
     4e0:	00560001 	subseq	r0, r6, r1
     4e4:	00000000 	andeq	r0, r0, r0
     4e8:	02000000 	andeq	r0, r0, #0, 0
     4ec:	00032400 	andeq	r2, r3, r0, lsl #8
     4f0:	00032800 	andeq	r2, r3, r0, lsl #16
     4f4:	56000100 	strpl	r0, [r0], -r0, lsl #2
	...
     500:	03280002 			; <UNDEFINED> instruction: 0x03280002
     504:	032c0000 			; <UNDEFINED> instruction: 0x032c0000
     508:	00010000 	andeq	r0, r1, r0
     50c:	00000056 	andeq	r0, r0, r6, asr r0
     510:	00000000 	andeq	r0, r0, r0
     514:	2c000200 	sfmcs	f0, 4, [r0], {-0}
     518:	30000003 	andcc	r0, r0, r3
     51c:	01000003 	tsteq	r0, r3
     520:	00005600 	andeq	r5, r0, r0, lsl #12
     524:	00000000 	andeq	r0, r0, r0
     528:	00020000 	andeq	r0, r2, r0
     52c:	00000330 	andeq	r0, r0, r0, lsr r3
     530:	00000334 	andeq	r0, r0, r4, lsr r3
     534:	00560001 	subseq	r0, r6, r1
     538:	00000000 	andeq	r0, r0, r0
     53c:	02000000 	andeq	r0, r0, #0, 0
     540:	00033400 	andeq	r3, r3, r0, lsl #8
     544:	00033800 	andeq	r3, r3, r0, lsl #16
     548:	56000100 	strpl	r0, [r0], -r0, lsl #2
	...
     554:	03380002 	teqeq	r8, #2, 0
     558:	033c0000 	teqeq	ip, #0, 0
     55c:	00010000 	andeq	r0, r1, r0
     560:	00000056 	andeq	r0, r0, r6, asr r0
     564:	00000000 	andeq	r0, r0, r0
     568:	3c000200 	sfmcc	f0, 4, [r0], {-0}
     56c:	40000003 	andmi	r0, r0, r3
     570:	01000003 	tsteq	r0, r3
     574:	00005600 	andeq	r5, r0, r0, lsl #12
     578:	00000000 	andeq	r0, r0, r0
     57c:	00020000 	andeq	r0, r2, r0
     580:	00000340 	andeq	r0, r0, r0, asr #6
     584:	00000344 	andeq	r0, r0, r4, asr #6
     588:	00560001 	subseq	r0, r6, r1
     58c:	00000000 	andeq	r0, r0, r0
     590:	02000000 	andeq	r0, r0, #0, 0
     594:	00034400 	andeq	r4, r3, r0, lsl #8
     598:	00034800 	andeq	r4, r3, r0, lsl #16
     59c:	56000100 	strpl	r0, [r0], -r0, lsl #2
	...
     5a8:	03480002 	movteq	r0, #32770	; 0x8002
     5ac:	034c0000 	movteq	r0, #49152	; 0xc000
     5b0:	00010000 	andeq	r0, r1, r0
     5b4:	00000056 	andeq	r0, r0, r6, asr r0
     5b8:	00000000 	andeq	r0, r0, r0
     5bc:	4c000200 	sfmmi	f0, 4, [r0], {-0}
     5c0:	50000003 	andpl	r0, r0, r3
     5c4:	01000003 	tsteq	r0, r3
     5c8:	00005600 	andeq	r5, r0, r0, lsl #12
     5cc:	00000000 	andeq	r0, r0, r0
     5d0:	00020000 	andeq	r0, r2, r0
     5d4:	00000350 	andeq	r0, r0, r0, asr r3
     5d8:	00000354 	andeq	r0, r0, r4, asr r3
     5dc:	00560001 	subseq	r0, r6, r1
     5e0:	00000000 	andeq	r0, r0, r0
     5e4:	02000000 	andeq	r0, r0, #0, 0
     5e8:	00035400 	andeq	r5, r3, r0, lsl #8
     5ec:	00035800 	andeq	r5, r3, r0, lsl #16
     5f0:	56000100 	strpl	r0, [r0], -r0, lsl #2
	...
     5fc:	03580002 	cmpeq	r8, #2, 0
     600:	035c0000 	cmpeq	ip, #0, 0
     604:	00010000 	andeq	r0, r1, r0
     608:	00000056 	andeq	r0, r0, r6, asr r0
     60c:	00000000 	andeq	r0, r0, r0
     610:	5c000200 	sfmpl	f0, 4, [r0], {-0}
     614:	60000003 	andvs	r0, r0, r3
     618:	01000003 	tsteq	r0, r3
     61c:	00005600 	andeq	r5, r0, r0, lsl #12
     620:	00000000 	andeq	r0, r0, r0
     624:	00020000 	andeq	r0, r2, r0
     628:	00000360 	andeq	r0, r0, r0, ror #6
     62c:	00000364 	andeq	r0, r0, r4, ror #6
     630:	00560001 	subseq	r0, r6, r1
     634:	00000000 	andeq	r0, r0, r0
     638:	02000000 	andeq	r0, r0, #0, 0
     63c:	00036400 	andeq	r6, r3, r0, lsl #8
     640:	00036800 	andeq	r6, r3, r0, lsl #16
     644:	56000100 	strpl	r0, [r0], -r0, lsl #2
	...
     650:	03680002 	cmneq	r8, #2, 0
     654:	036c0000 	cmneq	ip, #0, 0
     658:	00010000 	andeq	r0, r1, r0
     65c:	00000056 	andeq	r0, r0, r6, asr r0
     660:	00000000 	andeq	r0, r0, r0
     664:	6c000200 	sfmvs	f0, 4, [r0], {-0}
     668:	70000003 	andvc	r0, r0, r3
     66c:	01000003 	tsteq	r0, r3
     670:	00005600 	andeq	r5, r0, r0, lsl #12
     674:	00000000 	andeq	r0, r0, r0
     678:	00020000 	andeq	r0, r2, r0
     67c:	00000370 	andeq	r0, r0, r0, ror r3
     680:	00000374 	andeq	r0, r0, r4, ror r3
     684:	00560001 	subseq	r0, r6, r1
     688:	00000000 	andeq	r0, r0, r0
     68c:	02000000 	andeq	r0, r0, #0, 0
     690:	00037400 	andeq	r7, r3, r0, lsl #8
     694:	00037800 	andeq	r7, r3, r0, lsl #16
     698:	56000100 	strpl	r0, [r0], -r0, lsl #2
	...
     6a4:	03780002 	cmneq	r8, #2, 0
     6a8:	037c0000 	cmneq	ip, #0, 0
     6ac:	00010000 	andeq	r0, r1, r0
     6b0:	00000056 	andeq	r0, r0, r6, asr r0
     6b4:	00000000 	andeq	r0, r0, r0
     6b8:	7c000200 	sfmvc	f0, 4, [r0], {-0}
     6bc:	80000003 	andhi	r0, r0, r3
     6c0:	01000003 	tsteq	r0, r3
     6c4:	00005600 	andeq	r5, r0, r0, lsl #12
     6c8:	00000000 	andeq	r0, r0, r0
     6cc:	00020000 	andeq	r0, r2, r0
     6d0:	00000380 	andeq	r0, r0, r0, lsl #7
     6d4:	00000384 	andeq	r0, r0, r4, lsl #7
     6d8:	00560001 	subseq	r0, r6, r1
     6dc:	00000000 	andeq	r0, r0, r0
     6e0:	02000000 	andeq	r0, r0, #0, 0
     6e4:	00038400 	andeq	r8, r3, r0, lsl #8
     6e8:	00038800 	andeq	r8, r3, r0, lsl #16
     6ec:	56000100 	strpl	r0, [r0], -r0, lsl #2
	...
     6f8:	03880002 	orreq	r0, r8, #2, 0
     6fc:	038c0000 	orreq	r0, ip, #0, 0
     700:	00010000 	andeq	r0, r1, r0
     704:	00000056 	andeq	r0, r0, r6, asr r0
     708:	00000000 	andeq	r0, r0, r0
     70c:	8c000200 	sfmhi	f0, 4, [r0], {-0}
     710:	90000003 	andls	r0, r0, r3
     714:	01000003 	tsteq	r0, r3
     718:	00005600 	andeq	r5, r0, r0, lsl #12
	...
     724:	000003c4 	andeq	r0, r0, r4, asr #7
     728:	000004a8 	andeq	r0, r0, r8, lsr #9
     72c:	00530001 	subseq	r0, r3, r1
	...
     738:	00049000 	andeq	r9, r4, r0
     73c:	00049800 	andeq	r9, r4, r0, lsl #16
     740:	54000100 	strpl	r0, [r0], #-256	; 0xffffff00
	...
     74c:	03c40001 	biceq	r0, r4, #1, 0
     750:	03c80000 	biceq	r0, r8, #0, 0
     754:	00010000 	andeq	r0, r1, r0
     758:	00000056 	andeq	r0, r0, r6, asr r0
     75c:	00000000 	andeq	r0, r0, r0
     760:	c8000200 	stmdagt	r0, {r9}
     764:	cc000003 	stcgt	0, cr0, [r0], {3}
     768:	01000003 	tsteq	r0, r3
     76c:	00005600 	andeq	r5, r0, r0, lsl #12
     770:	00000000 	andeq	r0, r0, r0
     774:	00020000 	andeq	r0, r2, r0
     778:	000003cc 	andeq	r0, r0, ip, asr #7
     77c:	000003d0 	ldrdeq	r0, [r0], -r0	; <UNPREDICTABLE>
     780:	00560001 	subseq	r0, r6, r1
     784:	00000000 	andeq	r0, r0, r0
     788:	02000000 	andeq	r0, r0, #0, 0
     78c:	0003d000 	andeq	sp, r3, r0
     790:	0003d400 	andeq	sp, r3, r0, lsl #8
     794:	56000100 	strpl	r0, [r0], -r0, lsl #2
	...
     7a0:	03d40002 	bicseq	r0, r4, #2, 0
     7a4:	03d80000 	bicseq	r0, r8, #0, 0
     7a8:	00010000 	andeq	r0, r1, r0
     7ac:	00000056 	andeq	r0, r0, r6, asr r0
     7b0:	00000000 	andeq	r0, r0, r0
     7b4:	d8000200 	stmdale	r0, {r9}
     7b8:	dc000003 	stcle	0, cr0, [r0], {3}
     7bc:	01000003 	tsteq	r0, r3
     7c0:	00005600 	andeq	r5, r0, r0, lsl #12
     7c4:	00000000 	andeq	r0, r0, r0
     7c8:	00020000 	andeq	r0, r2, r0
     7cc:	000003dc 	ldrdeq	r0, [r0], -ip
     7d0:	000003e0 	andeq	r0, r0, r0, ror #7
     7d4:	00560001 	subseq	r0, r6, r1
     7d8:	00000000 	andeq	r0, r0, r0
     7dc:	02000000 	andeq	r0, r0, #0, 0
     7e0:	0003e000 	andeq	lr, r3, r0
     7e4:	0003e400 	andeq	lr, r3, r0, lsl #8
     7e8:	56000100 	strpl	r0, [r0], -r0, lsl #2
	...
     7f4:	03e40002 	mvneq	r0, #2, 0
     7f8:	03e80000 	mvneq	r0, #0, 0
     7fc:	00010000 	andeq	r0, r1, r0
     800:	00000056 	andeq	r0, r0, r6, asr r0
     804:	00000000 	andeq	r0, r0, r0
     808:	e8000200 	stmda	r0, {r9}
     80c:	ec000003 	stc	0, cr0, [r0], {3}
     810:	01000003 	tsteq	r0, r3
     814:	00005600 	andeq	r5, r0, r0, lsl #12
     818:	00000000 	andeq	r0, r0, r0
     81c:	00020000 	andeq	r0, r2, r0
     820:	000003ec 	andeq	r0, r0, ip, ror #7
     824:	000003f0 	strdeq	r0, [r0], -r0	; <UNPREDICTABLE>
     828:	00560001 	subseq	r0, r6, r1
     82c:	00000000 	andeq	r0, r0, r0
     830:	02000000 	andeq	r0, r0, #0, 0
     834:	0003f000 	andeq	pc, r3, r0
     838:	0003f400 	andeq	pc, r3, r0, lsl #8
     83c:	56000100 	strpl	r0, [r0], -r0, lsl #2
	...
     848:	03f40002 	mvnseq	r0, #2, 0
     84c:	03f80000 	mvnseq	r0, #0, 0
     850:	00010000 	andeq	r0, r1, r0
     854:	00000056 	andeq	r0, r0, r6, asr r0
     858:	00000000 	andeq	r0, r0, r0
     85c:	f8000200 			; <UNDEFINED> instruction: 0xf8000200
     860:	fc000003 	stc2	0, cr0, [r0], {3}
     864:	01000003 	tsteq	r0, r3
     868:	00005600 	andeq	r5, r0, r0, lsl #12
     86c:	00000000 	andeq	r0, r0, r0
     870:	00020000 	andeq	r0, r2, r0
     874:	000003fc 	strdeq	r0, [r0], -ip
     878:	00000400 	andeq	r0, r0, r0, lsl #8
     87c:	00560001 	subseq	r0, r6, r1
     880:	00000000 	andeq	r0, r0, r0
     884:	02000000 	andeq	r0, r0, #0, 0
     888:	00040000 	andeq	r0, r4, r0
     88c:	00040400 	andeq	r0, r4, r0, lsl #8
     890:	56000100 	strpl	r0, [r0], -r0, lsl #2
	...
     89c:	04040002 	streq	r0, [r4], #-2
     8a0:	04080000 	streq	r0, [r8], #-0
     8a4:	00010000 	andeq	r0, r1, r0
     8a8:	00000056 	andeq	r0, r0, r6, asr r0
     8ac:	00000000 	andeq	r0, r0, r0
     8b0:	08000200 	stmdaeq	r0, {r9}
     8b4:	0c000004 	stceq	0, cr0, [r0], {4}
     8b8:	01000004 	tsteq	r0, r4
     8bc:	00005600 	andeq	r5, r0, r0, lsl #12
     8c0:	00000000 	andeq	r0, r0, r0
     8c4:	00020000 	andeq	r0, r2, r0
     8c8:	0000040c 	andeq	r0, r0, ip, lsl #8
     8cc:	00000410 	andeq	r0, r0, r0, lsl r4
     8d0:	00560001 	subseq	r0, r6, r1
     8d4:	00000000 	andeq	r0, r0, r0
     8d8:	02000000 	andeq	r0, r0, #0, 0
     8dc:	00041000 	andeq	r1, r4, r0
     8e0:	00041400 	andeq	r1, r4, r0, lsl #8
     8e4:	56000100 	strpl	r0, [r0], -r0, lsl #2
	...
     8f0:	04140002 	ldreq	r0, [r4], #-2
     8f4:	04180000 	ldreq	r0, [r8], #-0
     8f8:	00010000 	andeq	r0, r1, r0
     8fc:	00000056 	andeq	r0, r0, r6, asr r0
     900:	00000000 	andeq	r0, r0, r0
     904:	18000200 	stmdane	r0, {r9}
     908:	1c000004 	stcne	0, cr0, [r0], {4}
     90c:	01000004 	tsteq	r0, r4
     910:	00005600 	andeq	r5, r0, r0, lsl #12
     914:	00000000 	andeq	r0, r0, r0
     918:	00020000 	andeq	r0, r2, r0
     91c:	0000041c 	andeq	r0, r0, ip, lsl r4
     920:	00000420 	andeq	r0, r0, r0, lsr #8
     924:	00560001 	subseq	r0, r6, r1
     928:	00000000 	andeq	r0, r0, r0
     92c:	02000000 	andeq	r0, r0, #0, 0
     930:	00042000 	andeq	r2, r4, r0
     934:	00042400 	andeq	r2, r4, r0, lsl #8
     938:	56000100 	strpl	r0, [r0], -r0, lsl #2
	...
     944:	04240002 	strteq	r0, [r4], #-2
     948:	04280000 	strteq	r0, [r8], #-0
     94c:	00010000 	andeq	r0, r1, r0
     950:	00000056 	andeq	r0, r0, r6, asr r0
     954:	00000000 	andeq	r0, r0, r0
     958:	28000200 	stmdacs	r0, {r9}
     95c:	2c000004 	stccs	0, cr0, [r0], {4}
     960:	01000004 	tsteq	r0, r4
     964:	00005600 	andeq	r5, r0, r0, lsl #12
     968:	00000000 	andeq	r0, r0, r0
     96c:	00020000 	andeq	r0, r2, r0
     970:	0000042c 	andeq	r0, r0, ip, lsr #8
     974:	00000430 	andeq	r0, r0, r0, lsr r4
     978:	00560001 	subseq	r0, r6, r1
     97c:	00000000 	andeq	r0, r0, r0
     980:	02000000 	andeq	r0, r0, #0, 0
     984:	00043000 	andeq	r3, r4, r0
     988:	00043400 	andeq	r3, r4, r0, lsl #8
     98c:	56000100 	strpl	r0, [r0], -r0, lsl #2
	...
     998:	04340002 	ldrteq	r0, [r4], #-2
     99c:	04380000 	ldrteq	r0, [r8], #-0
     9a0:	00010000 	andeq	r0, r1, r0
     9a4:	00000056 	andeq	r0, r0, r6, asr r0
     9a8:	00000000 	andeq	r0, r0, r0
     9ac:	38000200 	stmdacc	r0, {r9}
     9b0:	3c000004 	stccc	0, cr0, [r0], {4}
     9b4:	01000004 	tsteq	r0, r4
     9b8:	00005600 	andeq	r5, r0, r0, lsl #12
     9bc:	00000000 	andeq	r0, r0, r0
     9c0:	00020000 	andeq	r0, r2, r0
     9c4:	0000043c 	andeq	r0, r0, ip, lsr r4
     9c8:	00000440 	andeq	r0, r0, r0, asr #8
     9cc:	00560001 	subseq	r0, r6, r1
     9d0:	00000000 	andeq	r0, r0, r0
     9d4:	02000000 	andeq	r0, r0, #0, 0
     9d8:	00044000 	andeq	r4, r4, r0
     9dc:	00044400 	andeq	r4, r4, r0, lsl #8
     9e0:	56000100 	strpl	r0, [r0], -r0, lsl #2
	...
     9ec:	04440002 	strbeq	r0, [r4], #-2
     9f0:	04480000 	strbeq	r0, [r8], #-0
     9f4:	00010000 	andeq	r0, r1, r0
     9f8:	00000056 	andeq	r0, r0, r6, asr r0
     9fc:	00000000 	andeq	r0, r0, r0
     a00:	48000200 	stmdami	r0, {r9}
     a04:	4c000004 	stcmi	0, cr0, [r0], {4}
     a08:	01000004 	tsteq	r0, r4
     a0c:	00005600 	andeq	r5, r0, r0, lsl #12
     a10:	00000000 	andeq	r0, r0, r0
     a14:	00020000 	andeq	r0, r2, r0
     a18:	0000044c 	andeq	r0, r0, ip, asr #8
     a1c:	00000450 	andeq	r0, r0, r0, asr r4
     a20:	00560001 	subseq	r0, r6, r1
     a24:	00000000 	andeq	r0, r0, r0
     a28:	02000000 	andeq	r0, r0, #0, 0
     a2c:	00045000 	andeq	r5, r4, r0
     a30:	00045400 	andeq	r5, r4, r0, lsl #8
     a34:	56000100 	strpl	r0, [r0], -r0, lsl #2
	...
     a40:	04540002 	ldrbeq	r0, [r4], #-2
     a44:	04580000 	ldrbeq	r0, [r8], #-0
     a48:	00010000 	andeq	r0, r1, r0
     a4c:	00000056 	andeq	r0, r0, r6, asr r0
     a50:	00000000 	andeq	r0, r0, r0
     a54:	58000200 	stmdapl	r0, {r9}
     a58:	5c000004 	stcpl	0, cr0, [r0], {4}
     a5c:	01000004 	tsteq	r0, r4
     a60:	00005600 	andeq	r5, r0, r0, lsl #12
     a64:	00000000 	andeq	r0, r0, r0
     a68:	00020000 	andeq	r0, r2, r0
     a6c:	0000045c 	andeq	r0, r0, ip, asr r4
     a70:	00000460 	andeq	r0, r0, r0, ror #8
     a74:	00560001 	subseq	r0, r6, r1
     a78:	00000000 	andeq	r0, r0, r0
     a7c:	02000000 	andeq	r0, r0, #0, 0
     a80:	00046000 	andeq	r6, r4, r0
     a84:	00046400 	andeq	r6, r4, r0, lsl #8
     a88:	56000100 	strpl	r0, [r0], -r0, lsl #2
	...
     a94:	04640002 	strbteq	r0, [r4], #-2
     a98:	04680000 	strbteq	r0, [r8], #-0
     a9c:	00010000 	andeq	r0, r1, r0
     aa0:	00000056 	andeq	r0, r0, r6, asr r0
     aa4:	00000000 	andeq	r0, r0, r0
     aa8:	68000200 	stmdavs	r0, {r9}
     aac:	6c000004 	stcvs	0, cr0, [r0], {4}
     ab0:	01000004 	tsteq	r0, r4
     ab4:	00005600 	andeq	r5, r0, r0, lsl #12
     ab8:	00000000 	andeq	r0, r0, r0
     abc:	00020000 	andeq	r0, r2, r0
     ac0:	0000046c 	andeq	r0, r0, ip, ror #8
     ac4:	00000470 	andeq	r0, r0, r0, ror r4
     ac8:	00560001 	subseq	r0, r6, r1
     acc:	00000000 	andeq	r0, r0, r0
     ad0:	02000000 	andeq	r0, r0, #0, 0
     ad4:	00047000 	andeq	r7, r4, r0
     ad8:	00047400 	andeq	r7, r4, r0, lsl #8
     adc:	56000100 	strpl	r0, [r0], -r0, lsl #2
	...
     ae8:	04740002 	ldrbteq	r0, [r4], #-2
     aec:	04780000 	ldrbteq	r0, [r8], #-0
     af0:	00010000 	andeq	r0, r1, r0
     af4:	00000056 	andeq	r0, r0, r6, asr r0
     af8:	00000000 	andeq	r0, r0, r0
     afc:	78000200 	stmdavc	r0, {r9}
     b00:	7c000004 	stcvc	0, cr0, [r0], {4}
     b04:	01000004 	tsteq	r0, r4
     b08:	00005600 	andeq	r5, r0, r0, lsl #12
     b0c:	00000000 	andeq	r0, r0, r0
     b10:	00020000 	andeq	r0, r2, r0
     b14:	0000047c 	andeq	r0, r0, ip, ror r4
     b18:	00000480 	andeq	r0, r0, r0, lsl #9
     b1c:	00560001 	subseq	r0, r6, r1
     b20:	00000000 	andeq	r0, r0, r0
     b24:	02000000 	andeq	r0, r0, #0, 0
     b28:	00048000 	andeq	r8, r4, r0
     b2c:	00048400 	andeq	r8, r4, r0, lsl #8
     b30:	56000100 	strpl	r0, [r0], -r0, lsl #2
	...
     b3c:	04840002 	streq	r0, [r4], #2
     b40:	04880000 	streq	r0, [r8], #0
     b44:	00010000 	andeq	r0, r1, r0
     b48:	00000056 	andeq	r0, r0, r6, asr r0
     b4c:	00000000 	andeq	r0, r0, r0
     b50:	88000200 	stmdahi	r0, {r9}
     b54:	8c000004 	stchi	0, cr0, [r0], {4}
     b58:	01000004 	tsteq	r0, r4
     b5c:	00005600 	andeq	r5, r0, r0, lsl #12
	...
     b68:	000004b4 			; <UNDEFINED> instruction: 0x000004b4
     b6c:	000004d0 	ldrdeq	r0, [r0], -r0	; <UNPREDICTABLE>
     b70:	00540001 	subseq	r0, r4, r1
	...
     b7c:	0004c000 	andeq	ip, r4, r0
     b80:	0004c800 	andeq	ip, r4, r0, lsl #16
     b84:	51000100 	mrspl	r0, (UNDEF: 16)
	...
     b90:	05580001 	ldrbeq	r0, [r8, #-1]
     b94:	05700000 	ldrbeq	r0, [r0, #-0]!
     b98:	00010000 	andeq	r0, r1, r0
     b9c:	00000056 	andeq	r0, r0, r6, asr r0
     ba0:	00000000 	andeq	r0, r0, r0
     ba4:	58000300 	stmdapl	r0, {r8, r9}
     ba8:	70000005 	andvc	r0, r0, r5
     bac:	01000005 	tsteq	r0, r5
     bb0:	00005600 	andeq	r5, r0, r0, lsl #12
	...
     bc0:	00140000 	andseq	r0, r4, r0
     bc4:	00010000 	andeq	r0, r1, r0
     bc8:	00001450 	andeq	r1, r0, r0, asr r4
     bcc:	00002800 	andeq	r2, r0, r0, lsl #16
     bd0:	f3000400 	vshl.u8	d0, d0, d0
     bd4:	009f5001 	addseq	r5, pc, r1
	...
     be0:	28000000 	stmdacs	r0, {}	; <UNPREDICTABLE>
     be4:	3c000000 	stccc	0, cr0, [r0], {-0}
     be8:	01000000 	mrseq	r0, (UNDEF: 0)
     bec:	003c5000 	eorseq	r5, ip, r0
     bf0:	00500000 	subseq	r0, r0, r0
     bf4:	00040000 	andeq	r0, r4, r0
     bf8:	9f5001f3 	svcls	0x005001f3
	...
     c08:	00000050 	andeq	r0, r0, r0, asr r0
     c0c:	00000064 	andeq	r0, r0, r4, rrx
     c10:	64500001 	ldrbvs	r0, [r0], #-1
     c14:	78000000 	stmdavc	r0, {}	; <UNPREDICTABLE>
     c18:	04000000 	streq	r0, [r0], #-0
     c1c:	5001f300 	andpl	pc, r1, r0, lsl #6
     c20:	0000009f 	muleq	r0, pc, r0	; <UNPREDICTABLE>
	...
     c2c:	00007800 	andeq	r7, r0, r0, lsl #16
     c30:	00008c00 	andeq	r8, r0, r0, lsl #24
     c34:	50000100 	andpl	r0, r0, r0, lsl #2
     c38:	0000008c 	andeq	r0, r0, ip, lsl #1
     c3c:	000000a0 	andeq	r0, r0, r0, lsr #1
     c40:	01f30004 	mvnseq	r0, r4
     c44:	00009f50 	andeq	r9, r0, r0, asr pc
	...
     c50:	00a00000 	adceq	r0, r0, r0
     c54:	00b40000 	adcseq	r0, r4, r0
     c58:	00010000 	andeq	r0, r1, r0
     c5c:	0000b450 	andeq	fp, r0, r0, asr r4
     c60:	0000c800 	andeq	ip, r0, r0, lsl #16
     c64:	f3000400 	vshl.u8	d0, d0, d0
     c68:	009f5001 	addseq	r5, pc, r1
	...
     c78:	70000000 	andvc	r0, r0, r0
     c7c:	a3000001 	movwge	r0, #1
     c80:	01000001 	tsteq	r0, r1
     c84:	01a35000 			; <UNDEFINED> instruction: 0x01a35000
     c88:	02180000 	andseq	r0, r8, #0, 0
     c8c:	00010000 	andeq	r0, r1, r0
     c90:	00021856 	andeq	r1, r2, r6, asr r8
     c94:	00021b00 	andeq	r1, r2, r0, lsl #22
     c98:	50000100 	andpl	r0, r0, r0, lsl #2
     c9c:	0000021b 	andeq	r0, r0, fp, lsl r2
     ca0:	00000258 	andeq	r0, r0, r8, asr r2
     ca4:	01f30004 	mvnseq	r0, r4
     ca8:	00009f50 	andeq	r9, r0, r0, asr pc
	...
     cb8:	01700000 	cmneq	r0, r0
     cbc:	01a30000 			; <UNDEFINED> instruction: 0x01a30000
     cc0:	00010000 	andeq	r0, r1, r0
     cc4:	0001a351 	andeq	sl, r1, r1, asr r3
     cc8:	00021800 	andeq	r1, r2, r0, lsl #16
     ccc:	58000100 	stmdapl	r0, {r8}
     cd0:	00000218 	andeq	r0, r0, r8, lsl r2
     cd4:	0000021b 	andeq	r0, r0, fp, lsl r2
     cd8:	1b510001 	blne	1440ce4 <__bss_end__+0x14369c4>
     cdc:	58000002 	stmdapl	r0, {r1}
     ce0:	04000002 	streq	r0, [r0], #-2
     ce4:	5101f300 	mrspl	pc, SP_irq	; <UNPREDICTABLE>
     ce8:	0000009f 	muleq	r0, pc, r0	; <UNPREDICTABLE>
	...
     cf8:	00017000 	andeq	r7, r1, r0
     cfc:	0001a300 	andeq	sl, r1, r0, lsl #6
     d00:	52000100 	andpl	r0, r0, #0
     d04:	000001a3 	andeq	r0, r0, r3, lsr #3
     d08:	00000218 	andeq	r0, r0, r8, lsl r2
     d0c:	18570001 	ldmdane	r7, {r0}^
     d10:	1b000002 	blne	d20 <__code_start__-0x72e0>
     d14:	01000002 	tsteq	r0, r2
     d18:	021b5200 	andseq	r5, fp, #0, 4
     d1c:	02580000 	subseq	r0, r8, #0, 0
     d20:	00040000 	andeq	r0, r4, r0
     d24:	9f5201f3 	svcls	0x005201f3
	...
     d3c:	00000170 	andeq	r0, r0, r0, ror r1
     d40:	00000184 	andeq	r0, r0, r4, lsl #3
     d44:	84530001 	ldrbhi	r0, [r3], #-1
     d48:	e8000001 	stmda	r0, {r0}
     d4c:	01000001 	tsteq	r0, r1
     d50:	01e85400 	mvneq	r5, r0, lsl #8
     d54:	01f80000 	mvnseq	r0, r0
     d58:	00030000 	andeq	r0, r3, r0
     d5c:	f89f1474 			; <UNDEFINED> instruction: 0xf89f1474
     d60:	00000001 	andeq	r0, r0, r1
     d64:	03000002 	movweq	r0, #2
     d68:	9f6c7300 	svcls	0x006c7300
     d6c:	00000200 	andeq	r0, r0, r0, lsl #4
     d70:	00000218 	andeq	r0, r0, r8, lsl r2
     d74:	01f30004 	mvnseq	r0, r4
     d78:	02189f53 	andseq	r9, r8, #332	; 0x14c
     d7c:	02580000 	subseq	r0, r8, #0, 0
     d80:	00010000 	andeq	r0, r1, r0
     d84:	00000054 	andeq	r0, r0, r4, asr r0
     d88:	00000000 	andeq	r0, r0, r0
     d8c:	01000100 	mrseq	r0, (UNDEF: 16)
     d90:	84000000 	strhi	r0, [r0], #-0
     d94:	a3000001 	movwge	r0, #1
     d98:	01000001 	tsteq	r0, r1
     d9c:	01ac5300 			; <UNDEFINED> instruction: 0x01ac5300
     da0:	02180000 	andseq	r0, r8, #0, 0
     da4:	00010000 	andeq	r0, r1, r0
     da8:	00021859 	andeq	r1, r2, r9, asr r8
     dac:	00021b00 	andeq	r1, r2, r0, lsl #22
     db0:	53000100 	movwpl	r0, #256	; 0x100
	...
     dbc:	00010001 	andeq	r0, r1, r1
     dc0:	01880000 	orreq	r0, r8, r0
     dc4:	018c0000 	orreq	r0, ip, r0
     dc8:	00010000 	andeq	r0, r1, r0
     dcc:	0001b855 	andeq	fp, r1, r5, asr r8
     dd0:	0001bc00 	andeq	fp, r1, r0, lsl #24
     dd4:	55000100 	strpl	r0, [r0, #-256]	; 0xffffff00
     dd8:	000001bc 			; <UNDEFINED> instruction: 0x000001bc
     ddc:	000001c0 	andeq	r0, r0, r0, asr #3
     de0:	08750003 	ldmdaeq	r5!, {r0, r1}^
     de4:	0000009f 	muleq	r0, pc, r0	; <UNPREDICTABLE>
	...
     df0:	00018c00 	andeq	r8, r1, r0, lsl #24
     df4:	0001b800 	andeq	fp, r1, r0, lsl #16
     df8:	55000100 	strpl	r0, [r0, #-256]	; 0xffffff00
     dfc:	00000218 	andeq	r0, r0, r8, lsl r2
     e00:	00000258 	andeq	r0, r0, r8, asr r2
     e04:	00550001 	subseq	r0, r5, r1
     e08:	00000000 	andeq	r0, r0, r0
     e0c:	01000000 	mrseq	r0, (UNDEF: 0)
     e10:	0001c400 	andeq	ip, r1, r0, lsl #8
     e14:	00021800 	andeq	r1, r2, r0, lsl #16
     e18:	55000100 	strpl	r0, [r0, #-256]	; 0xffffff00
	...
     e24:	01c40002 	biceq	r0, r4, r2
     e28:	02180000 	andseq	r0, r8, #0, 0
     e2c:	00020000 	andeq	r0, r2, r0
     e30:	00009f44 	andeq	r9, r0, r4, asr #30
	...
     e3c:	01840000 	orreq	r0, r4, r0
     e40:	01a30000 			; <UNDEFINED> instruction: 0x01a30000
     e44:	00010000 	andeq	r0, r1, r0
     e48:	00021853 	andeq	r1, r2, r3, asr r8
     e4c:	00021b00 	andeq	r1, r2, r0, lsl #22
     e50:	53000100 	movwpl	r0, #256	; 0x100
	...
     e5c:	01880000 	orreq	r0, r8, r0
     e60:	018c0000 	orreq	r0, ip, r0
     e64:	00010000 	andeq	r0, r1, r0
     e68:	00000055 	andeq	r0, r0, r5, asr r0
     e6c:	00000000 	andeq	r0, r0, r0
     e70:	ac000000 	stcge	0, cr0, [r0], {-0}
     e74:	18000001 	stmdane	r0, {r0}
     e78:	01000002 	tsteq	r0, r2
     e7c:	00005900 	andeq	r5, r0, r0, lsl #18
	...
     e88:	01b80000 			; <UNDEFINED> instruction: 0x01b80000
     e8c:	01bc0000 			; <UNDEFINED> instruction: 0x01bc0000
     e90:	00010000 	andeq	r0, r1, r0
     e94:	0001bc55 	andeq	fp, r1, r5, asr ip
     e98:	0001c000 	andeq	ip, r1, r0
     e9c:	75000300 	strvc	r0, [r0, #-768]	; 0xfffffd00
     ea0:	00009f08 	andeq	r9, r0, r8, lsl #30
     ea4:	00000000 	andeq	r0, r0, r0
     ea8:	00010000 	andeq	r0, r1, r0
     eac:	000001f8 	strdeq	r0, [r0], -r8
     eb0:	00000218 	andeq	r0, r0, r8, lsl r2
     eb4:	00560001 	subseq	r0, r6, r1
     eb8:	00000000 	andeq	r0, r0, r0
     ebc:	01000000 	mrseq	r0, (UNDEF: 0)
     ec0:	0001f800 	andeq	pc, r1, r0, lsl #16
     ec4:	00021800 	andeq	r1, r2, r0, lsl #16
     ec8:	58000100 	stmdapl	r0, {r8}
	...
     ed4:	01f80001 	mvnseq	r0, r1
     ed8:	02180000 	andseq	r0, r8, #0, 0
     edc:	00010000 	andeq	r0, r1, r0
     ee0:	00000057 	andeq	r0, r0, r7, asr r0
     ee4:	00000000 	andeq	r0, r0, r0
     ee8:	00000100 	andeq	r0, r0, r0, lsl #2
     eec:	0001f800 	andeq	pc, r1, r0, lsl #16
     ef0:	00020000 	andeq	r0, r2, r0
     ef4:	73000300 	movwvc	r0, #768	; 0x300
     ef8:	02009f6c 	andeq	r9, r0, #108, 30	; 0x1b0
     efc:	02180000 	andseq	r0, r8, #0, 0
     f00:	00040000 	andeq	r0, r4, r0
     f04:	9f5301f3 	svcls	0x005301f3
	...
     f14:	000000c4 	andeq	r0, r0, r4, asr #1
     f18:	000000d8 	ldrdeq	r0, [r0], -r8
     f1c:	d8500001 	ldmdale	r0, {r0}^
     f20:	ec000000 	stc	0, cr0, [r0], {-0}
     f24:	04000000 	streq	r0, [r0], #-0
     f28:	5001f300 	andpl	pc, r1, r0, lsl #6
     f2c:	0000009f 	muleq	r0, pc, r0	; <UNPREDICTABLE>
	...
     f38:	0000c400 	andeq	ip, r0, r0, lsl #8
     f3c:	0000d400 	andeq	sp, r0, r0, lsl #8
     f40:	51000100 	mrspl	r0, (UNDEF: 16)
     f44:	000000d4 	ldrdeq	r0, [r0], -r4
     f48:	000000ec 	andeq	r0, r0, ip, ror #1
     f4c:	01f30004 	mvnseq	r0, r4
     f50:	00009f51 	andeq	r9, r0, r1, asr pc
	...
     f5c:	00c40000 	sbceq	r0, r4, r0
     f60:	00d00000 	sbcseq	r0, r0, r0
     f64:	00010000 	andeq	r0, r1, r0
     f68:	0000d052 	andeq	sp, r0, r2, asr r0
     f6c:	0000ec00 	andeq	lr, r0, r0, lsl #24
     f70:	f3000400 	vshl.u8	d0, d0, d0
     f74:	009f5201 	addseq	r5, pc, r1, lsl #4
	...
     f80:	c4000000 	strgt	r0, [r0], #-0
     f84:	c8000000 	stmdagt	r0, {}	; <UNPREDICTABLE>
     f88:	01000000 	mrseq	r0, (UNDEF: 0)
     f8c:	00c85300 	sbceq	r5, r8, r0, lsl #6
     f90:	00ec0000 	rsceq	r0, ip, r0
     f94:	00040000 	andeq	r0, r4, r0
     f98:	9f5301f3 	svcls	0x005301f3
	...
     fa8:	000000b8 	strheq	r0, [r0], -r8
     fac:	000000c3 	andeq	r0, r0, r3, asr #1
     fb0:	c3500001 	cmpgt	r0, #1, 0
     fb4:	c4000000 	strgt	r0, [r0], #-0
     fb8:	04000000 	streq	r0, [r0], #-0
     fbc:	5001f300 	andpl	pc, r1, r0, lsl #6
     fc0:	0000009f 	muleq	r0, pc, r0	; <UNPREDICTABLE>
	...
     fd0:	0000a400 	andeq	sl, r0, r0, lsl #8
     fd4:	0000b300 	andeq	fp, r0, r0, lsl #6
     fd8:	50000100 	andpl	r0, r0, r0, lsl #2
     fdc:	000000b3 	strheq	r0, [r0], -r3
     fe0:	000000b4 	strheq	r0, [r0], -r4
     fe4:	01f30004 	mvnseq	r0, r4
     fe8:	00b49f50 	adcseq	r9, r4, r0, asr pc
     fec:	00b70000 	adcseq	r0, r7, r0
     ff0:	00010000 	andeq	r0, r1, r0
     ff4:	0000b750 	andeq	fp, r0, r0, asr r7
     ff8:	0000b800 	andeq	fp, r0, r0, lsl #16
     ffc:	f3000400 	vshl.u8	d0, d0, d0
    1000:	009f5001 	addseq	r5, pc, r1
	...
    1010:	a4000000 	strge	r0, [r0], #-0
    1014:	b3000000 	movwlt	r0, #0
    1018:	01000000 	mrseq	r0, (UNDEF: 0)
    101c:	00b35100 	adcseq	r5, r3, r0, lsl #2
    1020:	00b40000 	adcseq	r0, r4, r0
    1024:	00040000 	andeq	r0, r4, r0
    1028:	9f5101f3 	svcls	0x005101f3
    102c:	000000b4 	strheq	r0, [r0], -r4
    1030:	000000b7 	strheq	r0, [r0], -r7
    1034:	b7510001 	ldrblt	r0, [r1, -r1]
    1038:	b8000000 	stmdalt	r0, {}	; <UNPREDICTABLE>
    103c:	04000000 	streq	r0, [r0], #-0
    1040:	5101f300 	mrspl	pc, SP_irq	; <UNPREDICTABLE>
    1044:	0000009f 	muleq	r0, pc, r0	; <UNPREDICTABLE>
    1048:	00000000 	andeq	r0, r0, r0
    104c:	00000200 	andeq	r0, r0, r0, lsl #4
    1050:	0000b400 	andeq	fp, r0, r0, lsl #8
    1054:	0000b700 	andeq	fp, r0, r0, lsl #14
    1058:	50000100 	andpl	r0, r0, r0, lsl #2
    105c:	000000b7 	strheq	r0, [r0], -r7
    1060:	000000b8 	strheq	r0, [r0], -r8
    1064:	01f30004 	mvnseq	r0, r4
    1068:	00009f50 	andeq	r9, r0, r0, asr pc
    106c:	00000000 	andeq	r0, r0, r0
    1070:	00050000 	andeq	r0, r5, r0
    1074:	000000b4 	strheq	r0, [r0], -r4
    1078:	000000b7 	strheq	r0, [r0], -r7
    107c:	00700008 	rsbseq	r0, r0, r8
    1080:	ff080194 			; <UNDEFINED> instruction: 0xff080194
    1084:	00009f1a 	andeq	r9, r0, sl, lsl pc
	...
    1090:	009c0000 	addseq	r0, ip, r0
    1094:	00a30000 	adceq	r0, r3, r0
    1098:	00010000 	andeq	r0, r1, r0
    109c:	0000a350 	andeq	sl, r0, r0, asr r3
    10a0:	0000a400 	andeq	sl, r0, r0, lsl #8
    10a4:	f3000400 	vshl.u8	d0, d0, d0
    10a8:	009f5001 	addseq	r5, pc, r1
	...
    10b4:	9c000000 	stcls	0, cr0, [r0], {-0}
    10b8:	a3000000 	movwge	r0, #0
    10bc:	01000000 	mrseq	r0, (UNDEF: 0)
    10c0:	00a35100 	adceq	r5, r3, r0, lsl #2
    10c4:	00a40000 	adceq	r0, r4, r0
    10c8:	00040000 	andeq	r0, r4, r0
    10cc:	9f5101f3 	svcls	0x005101f3
	...
    10dc:	0000009c 	muleq	r0, ip, r0
    10e0:	000000a3 	andeq	r0, r0, r3, lsr #1
    10e4:	a3520001 	cmpge	r2, #1, 0
    10e8:	a4000000 	strge	r0, [r0], #-0
    10ec:	04000000 	streq	r0, [r0], #-0
    10f0:	5201f300 	andpl	pc, r1, #0, 6
    10f4:	0000009f 	muleq	r0, pc, r0	; <UNPREDICTABLE>
	...
    1100:	00009c00 	andeq	r9, r0, r0, lsl #24
    1104:	0000a300 	andeq	sl, r0, r0, lsl #6
    1108:	53000100 	movwpl	r0, #256	; 0x100
    110c:	000000a3 	andeq	r0, r0, r3, lsr #1
    1110:	000000a4 	andeq	r0, r0, r4, lsr #1
    1114:	01f30004 	mvnseq	r0, r4
    1118:	00009f53 	andeq	r9, r0, r3, asr pc
	...
    1124:	00580000 	subseq	r0, r8, r0
    1128:	006c0000 	rsbeq	r0, ip, r0
    112c:	00010000 	andeq	r0, r1, r0
    1130:	00006c50 	andeq	r6, r0, r0, asr ip
    1134:	00009c00 	andeq	r9, r0, r0, lsl #24
    1138:	f3000400 	vshl.u8	d0, d0, d0
    113c:	009f5001 	addseq	r5, pc, r1
	...
    1148:	58000000 	stmdapl	r0, {}	; <UNPREDICTABLE>
    114c:	73000000 	movwvc	r0, #0
    1150:	01000000 	mrseq	r0, (UNDEF: 0)
    1154:	00735100 	rsbseq	r5, r3, r0, lsl #2
    1158:	009c0000 	addseq	r0, ip, r0
    115c:	00010000 	andeq	r0, r1, r0
    1160:	00000055 	andeq	r0, r0, r5, asr r0
	...
    116c:	00007800 	andeq	r7, r0, r0, lsl #16
    1170:	00008300 	andeq	r8, r0, r0, lsl #6
    1174:	50000100 	andpl	r0, r0, r0, lsl #2
    1178:	00000083 	andeq	r0, r0, r3, lsl #1
    117c:	0000009c 	muleq	r0, ip, r0
    1180:	00540001 	subseq	r0, r4, r1
	...
    118c:	00006400 	andeq	r6, r0, r0, lsl #8
    1190:	00009c00 	andeq	r9, r0, r0, lsl #24
    1194:	57000100 	strpl	r0, [r0, -r0, lsl #2]
	...
    11a0:	00000001 	andeq	r0, r0, r1
    11a4:	00280000 	eoreq	r0, r8, r0
    11a8:	00060000 	andeq	r0, r6, r0
    11ac:	0004f7fa 	strdeq	pc, [r4], -sl
    11b0:	00009f00 	andeq	r9, r0, r0, lsl #30
    11b4:	00000000 	andeq	r0, r0, r0
    11b8:	00010000 	andeq	r0, r1, r0
    11bc:	00000028 	andeq	r0, r0, r8, lsr #32
    11c0:	00000050 	andeq	r0, r0, r0, asr r0
    11c4:	a1fa0006 	mvnsge	r0, r6
    11c8:	9f000004 	svcls	0x00000004
	...
    11d4:	00280001 	eoreq	r0, r8, r1
    11d8:	00500000 	subseq	r0, r0, r0
    11dc:	00060000 	andeq	r0, r6, r0
    11e0:	000497fa 	strdeq	r9, [r4], -sl
    11e4:	00009f00 	andeq	r9, r0, r0, lsl #30
    11e8:	00000000 	andeq	r0, r0, r0
    11ec:	00010000 	andeq	r0, r1, r0
    11f0:	00000028 	andeq	r0, r0, r8, lsr #32
    11f4:	00000050 	andeq	r0, r0, r0, asr r0
    11f8:	8dfa0006 	ldclhi	0, cr0, [sl, #24]!
    11fc:	9f000004 	svcls	0x00000004
	...
    1208:	00280001 	eoreq	r0, r8, r1
    120c:	00500000 	subseq	r0, r0, r0
    1210:	00060000 	andeq	r0, r6, r0
    1214:	000481fa 	strdeq	r8, [r4], -sl
    1218:	00009f00 	andeq	r9, r0, r0, lsl #30
	...
    1224:	00500000 	subseq	r0, r0, r0
    1228:	00570000 	subseq	r0, r7, r0
    122c:	00010000 	andeq	r0, r1, r0
    1230:	00005750 	andeq	r5, r0, r0, asr r7
    1234:	00005800 	andeq	r5, r0, r0, lsl #16
    1238:	f3000400 	vshl.u8	d0, d0, d0
    123c:	009f5001 	addseq	r5, pc, r1
    1240:	00000000 	andeq	r0, r0, r0
    1244:	03000000 	movweq	r0, #0
    1248:	00005000 	andeq	r5, r0, r0
    124c:	00005700 	andeq	r5, r0, r0, lsl #14
    1250:	70000800 	andvc	r0, r0, r0, lsl #16
    1254:	08019400 	stmdaeq	r1, {sl, ip, pc}
    1258:	009f1aff 			; <UNDEFINED> instruction: 0x009f1aff
	...
    1268:	04000000 	streq	r0, [r0], #-0
    126c:	01000000 	mrseq	r0, (UNDEF: 0)
    1270:	00045200 	andeq	r5, r4, r0, lsl #4
    1274:	00180000 	andseq	r0, r8, r0
    1278:	00040000 	andeq	r0, r4, r0
    127c:	9f5201f3 	svcls	0x005201f3
	...
    1288:	01000002 	tsteq	r0, r2
    128c:	00000001 	andeq	r0, r0, r1
    1290:	00000000 	andeq	r0, r0, r0
    1294:	00000008 	andeq	r0, r0, r8
    1298:	08500001 	ldmdaeq	r0, {r0}^
    129c:	10000000 	andne	r0, r0, r0
    12a0:	01000000 	mrseq	r0, (UNDEF: 0)
    12a4:	00105300 	andseq	r5, r0, r0, lsl #6
    12a8:	00140000 	andseq	r0, r4, r0
    12ac:	00030000 	andeq	r0, r3, r0
    12b0:	149f0173 	ldrne	r0, [pc], #371	; 12b8 <__code_start__-0x6d48>
    12b4:	18000000 	stmdane	r0, {}	; <UNPREDICTABLE>
    12b8:	01000000 	mrseq	r0, (UNDEF: 0)
    12bc:	00005300 	andeq	r5, r0, r0, lsl #6
	...
    12c8:	00000004 	andeq	r0, r0, r4
    12cc:	00000018 	andeq	r0, r0, r8, lsl r0
    12d0:	00520001 	subseq	r0, r2, r1
	...
    12e0:	00002c00 	andeq	r2, r0, r0, lsl #24
    12e4:	00003800 	andeq	r3, r0, r0, lsl #16
    12e8:	50000100 	andpl	r0, r0, r0, lsl #2
    12ec:	00000038 	andeq	r0, r0, r8, lsr r0
    12f0:	00000048 	andeq	r0, r0, r8, asr #32
    12f4:	48540001 	ldmdami	r4, {r0}^
    12f8:	58000000 	stmdapl	r0, {}	; <UNPREDICTABLE>
    12fc:	01000000 	mrseq	r0, (UNDEF: 0)
    1300:	00005000 	andeq	r5, r0, r0
	...
    1310:	000b0000 	andeq	r0, fp, r0
    1314:	00010000 	andeq	r0, r1, r0
    1318:	00000b50 	andeq	r0, r0, r0, asr fp
    131c:	00001400 	andeq	r1, r0, r0, lsl #8
    1320:	54000100 	strpl	r0, [r0], #-256	; 0xffffff00
	...
    132c:	00010100 	andeq	r0, r1, r0, lsl #2
    1330:	00000000 	andeq	r0, r0, r0
    1334:	00000008 	andeq	r0, r0, r8
    1338:	08500001 	ldmdaeq	r0, {r0}^
    133c:	34000000 	strcc	r0, [r0], #-0
    1340:	01000000 	mrseq	r0, (UNDEF: 0)
    1344:	00005400 	andeq	r5, r0, r0, lsl #8
	...
    1354:	00000288 	andeq	r0, r0, r8, lsl #5
    1358:	000002b8 			; <UNDEFINED> instruction: 0x000002b8
    135c:	b8500001 	ldmdalt	r0, {r0}^
    1360:	04000002 	streq	r0, [r0], #-2
    1364:	01000007 	tsteq	r0, r7
    1368:	07045900 	streq	r5, [r4, -r0, lsl #18]
    136c:	07400000 	strbeq	r0, [r0, -r0]
    1370:	00040000 	andeq	r0, r4, r0
    1374:	9f5001f3 	svcls	0x005001f3
	...
    1384:	02880000 	addeq	r0, r8, #0, 0
    1388:	02a00000 	adceq	r0, r0, #0, 0
    138c:	00010000 	andeq	r0, r1, r0
    1390:	0002a051 	andeq	sl, r2, r1, asr r0
    1394:	0002b800 	andeq	fp, r2, r0, lsl #16
    1398:	71000300 	mrsvc	r0, LR_irq
    139c:	02b89f01 	adcseq	r9, r8, #1, 30
    13a0:	07400000 	strbeq	r0, [r0, -r0]
    13a4:	00040000 	andeq	r0, r4, r0
    13a8:	9f5101f3 	svcls	0x005101f3
	...
    13c0:	00000288 	andeq	r0, r0, r8, lsl #5
    13c4:	000002b8 			; <UNDEFINED> instruction: 0x000002b8
    13c8:	b8520001 	ldmdalt	r2, {r0}^
    13cc:	ec000002 	stc	0, cr0, [r0], {2}
    13d0:	01000003 	tsteq	r0, r3
    13d4:	03ec5600 	mvneq	r5, #0, 12
    13d8:	04b80000 	ldrteq	r0, [r8], #0
    13dc:	00010000 	andeq	r0, r1, r0
    13e0:	0004b85b 	andeq	fp, r4, fp, asr r8
    13e4:	0004d800 	andeq	sp, r4, r0, lsl #16
    13e8:	56000100 	strpl	r0, [r0], -r0, lsl #2
    13ec:	000004d8 	ldrdeq	r0, [r0], -r8
    13f0:	0000055c 	andeq	r0, r0, ip, asr r5
    13f4:	5c5b0001 	mrrcpl	0, 0, r0, fp, cr1
    13f8:	04000005 	streq	r0, [r0], #-5
    13fc:	01000007 	tsteq	r0, r7
    1400:	00005600 	andeq	r5, r0, r0, lsl #12
    1404:	00000000 	andeq	r0, r0, r0
    1408:	00010000 	andeq	r0, r1, r0
    140c:	00000000 	andeq	r0, r0, r0
    1410:	00010100 	andeq	r0, r1, r0, lsl #2
    1414:	00000000 	andeq	r0, r0, r0
    1418:	00020200 	andeq	r0, r2, r0, lsl #4
    141c:	029c0000 	addseq	r0, ip, #0, 0
    1420:	02b80000 	adcseq	r0, r8, #0, 0
    1424:	00010000 	andeq	r0, r1, r0
    1428:	0002b850 	andeq	fp, r2, r0, asr r8
    142c:	0002bc00 	andeq	fp, r2, r0, lsl #24
    1430:	54000100 	strpl	r0, [r0], #-256	; 0xffffff00
    1434:	000002bc 			; <UNDEFINED> instruction: 0x000002bc
    1438:	000002c0 	andeq	r0, r0, r0, asr #5
    143c:	01740003 	cmneq	r4, r3
    1440:	0002c09f 	muleq	r2, pc, r0	; <UNPREDICTABLE>
    1444:	0002e400 	andeq	lr, r2, r0, lsl #8
    1448:	54000100 	strpl	r0, [r0], #-256	; 0xffffff00
    144c:	000002e4 	andeq	r0, r0, r4, ror #5
    1450:	000002e8 	andeq	r0, r0, r8, ror #5
    1454:	01740003 	cmneq	r4, r3
    1458:	0002e89f 	muleq	r2, pc, r8	; <UNPREDICTABLE>
    145c:	0006d400 	andeq	sp, r6, r0, lsl #8
    1460:	54000100 	strpl	r0, [r0], #-256	; 0xffffff00
    1464:	000006d4 	ldrdeq	r0, [r0], -r4
    1468:	000006d8 	ldrdeq	r0, [r0], -r8
    146c:	01740003 	cmneq	r4, r3
    1470:	0006d89f 	muleq	r6, pc, r8	; <UNPREDICTABLE>
    1474:	0006f000 	andeq	pc, r6, r0
    1478:	54000100 	strpl	r0, [r0], #-256	; 0xffffff00
    147c:	000006f0 	strdeq	r0, [r0], -r0	; <UNPREDICTABLE>
    1480:	000006f8 	strdeq	r0, [r0], -r8
    1484:	01740003 	cmneq	r4, r3
    1488:	0006f89f 	muleq	r6, pc, r8	; <UNPREDICTABLE>
    148c:	00070400 	andeq	r0, r7, r0, lsl #8
    1490:	54000100 	strpl	r0, [r0], #-256	; 0xffffff00
	...
    14a0:	000002a4 	andeq	r0, r0, r4, lsr #5
    14a4:	00000704 	andeq	r0, r0, r4, lsl #14
    14a8:	04580001 	ldrbeq	r0, [r8], #-1
    14ac:	40000007 	andmi	r0, r0, r7
    14b0:	0a000007 	beq	14d4 <__code_start__-0x6b2c>
    14b4:	5101f300 	mrspl	pc, SP_irq	; <UNPREDICTABLE>
    14b8:	225001f3 	subscs	r0, r0, #-1073741764	; 0xc000003c
    14bc:	009f1c31 	addseq	r1, pc, r1, lsr ip	; <UNPREDICTABLE>
    14c0:	00000000 	andeq	r0, r0, r0
    14c4:	01000000 	mrseq	r0, (UNDEF: 0)
    14c8:	00000000 	andeq	r0, r0, r0
    14cc:	00040800 	andeq	r0, r4, r0, lsl #16
    14d0:	00047400 	andeq	r7, r4, r0, lsl #8
    14d4:	57000100 	strpl	r0, [r0, -r0, lsl #2]
    14d8:	000004d8 	ldrdeq	r0, [r0], -r8
    14dc:	000004fc 	strdeq	r0, [r0], -ip
    14e0:	40570001 	subsmi	r0, r7, r1
    14e4:	5c000005 	stcpl	0, cr0, [r0], {5}
    14e8:	01000005 	tsteq	r0, r5
    14ec:	00005700 	andeq	r5, r0, r0, lsl #14
    14f0:	00000000 	andeq	r0, r0, r0
    14f4:	00020000 	andeq	r0, r2, r0
    14f8:	04080000 	streq	r0, [r8], #-0
    14fc:	04b80000 	ldrteq	r0, [r8], #0
    1500:	00010000 	andeq	r0, r1, r0
    1504:	0004d85a 	andeq	sp, r4, sl, asr r8
    1508:	00055c00 	andeq	r5, r5, r0, lsl #24
    150c:	5a000100 	bpl	1914 <__code_start__-0x66ec>
	...
    1518:	00000001 	andeq	r0, r0, r1
    151c:	000002ac 	andeq	r0, r0, ip, lsr #5
    1520:	000002b8 			; <UNDEFINED> instruction: 0x000002b8
    1524:	b8520001 	ldmdalt	r2, {r0}^
    1528:	40000002 	andmi	r0, r0, r2
    152c:	03000007 	movweq	r0, #7
    1530:	7dc89100 	stfvcp	f1, [r8]
	...
    1544:	00010100 	andeq	r0, r1, r0, lsl #2
	...
    1550:	04740000 	ldrbteq	r0, [r4], #-0
    1554:	048c0000 	streq	r0, [ip], #0
    1558:	00010000 	andeq	r0, r1, r0
    155c:	00048c50 	andeq	r8, r4, r0, asr ip
    1560:	0004b800 	andeq	fp, r4, r0, lsl #16
    1564:	57000100 	strpl	r0, [r0, -r0, lsl #2]
    1568:	000004fc 	strdeq	r0, [r0], -ip
    156c:	00000514 	andeq	r0, r0, r4, lsl r5
    1570:	14500001 	ldrbne	r0, [r0], #-1
    1574:	40000005 	andmi	r0, r0, r5
    1578:	01000005 	tsteq	r0, r5
    157c:	05a45700 	streq	r5, [r4, #1792]!	; 0x700
    1580:	05a40000 	streq	r0, [r4, #0]!
    1584:	00010000 	andeq	r0, r1, r0
    1588:	0005a450 	andeq	sl, r5, r0, asr r4
    158c:	0005ac00 	andeq	sl, r5, r0, lsl #24
    1590:	57000100 	strpl	r0, [r0, -r0, lsl #2]
    1594:	000005dc 	ldrdeq	r0, [r0], -ip
    1598:	000005e0 	andeq	r0, r0, r0, ror #11
    159c:	10500001 	subsne	r0, r0, r1
    15a0:	14000006 	strne	r0, [r0], #-6
    15a4:	01000006 	tsteq	r0, r6
    15a8:	06445000 	strbeq	r5, [r4], -r0
    15ac:	06480000 	strbeq	r0, [r8], -r0
    15b0:	00010000 	andeq	r0, r1, r0
    15b4:	00068c50 	andeq	r8, r6, r0, asr ip
    15b8:	00069000 	andeq	r9, r6, r0
    15bc:	50000100 	andpl	r0, r0, r0, lsl #2
    15c0:	000006d0 	ldrdeq	r0, [r0], -r0	; <UNPREDICTABLE>
    15c4:	000006f0 	strdeq	r0, [r0], -r0	; <UNPREDICTABLE>
    15c8:	00570001 	subseq	r0, r7, r1
    15cc:	00000000 	andeq	r0, r0, r0
    15d0:	02000000 	andeq	r0, r0, #0, 0
    15d4:	00000000 	andeq	r0, r0, r0
    15d8:	0002f400 	andeq	pc, r2, r0, lsl #8
    15dc:	0002f800 	andeq	pc, r2, r0, lsl #16
    15e0:	30000200 	andcc	r0, r0, r0, lsl #4
    15e4:	0002f89f 	muleq	r2, pc, r8	; <UNPREDICTABLE>
    15e8:	00031400 	andeq	r1, r3, r0, lsl #8
    15ec:	55000100 	strpl	r0, [r0, #-256]	; 0xffffff00
    15f0:	0000031c 	andeq	r0, r0, ip, lsl r3
    15f4:	000006f0 	strdeq	r0, [r0], -r0	; <UNPREDICTABLE>
    15f8:	00550001 	subseq	r0, r5, r1
    15fc:	00000000 	andeq	r0, r0, r0
    1600:	01000000 	mrseq	r0, (UNDEF: 0)
	...
    160c:	0003b800 	andeq	fp, r3, r0, lsl #16
    1610:	00045400 	andeq	r5, r4, r0, lsl #8
    1614:	56000100 	strpl	r0, [r0], -r0, lsl #2
    1618:	00000454 	andeq	r0, r0, r4, asr r4
    161c:	000004b8 			; <UNDEFINED> instruction: 0x000004b8
    1620:	7e7b0003 	cdpvc	0, 7, cr0, cr11, cr3, {0}
    1624:	0004b89f 	muleq	r4, pc, r8	; <UNPREDICTABLE>
    1628:	0004dc00 	andeq	sp, r4, r0, lsl #24
    162c:	56000100 	strpl	r0, [r0], -r0, lsl #2
    1630:	000004dc 	ldrdeq	r0, [r0], -ip
    1634:	00000540 	andeq	r0, r0, r0, asr #10
    1638:	7e7b0003 	cdpvc	0, 7, cr0, cr11, cr3, {0}
    163c:	0005409f 	muleq	r5, pc, r0	; <UNPREDICTABLE>
    1640:	00055c00 	andeq	r5, r5, r0, lsl #24
    1644:	56000100 	strpl	r0, [r0], -r0, lsl #2
	...
    1654:	00700000 	rsbseq	r0, r0, r0
    1658:	00940000 	addseq	r0, r4, r0
    165c:	00010000 	andeq	r0, r1, r0
    1660:	00009450 	andeq	r9, r0, r0, asr r4
    1664:	0000fc00 	andeq	pc, r0, r0, lsl #24
    1668:	70000300 	andvc	r0, r0, r0, lsl #6
    166c:	00fc9f02 	rscseq	r9, ip, r2, lsl #30
    1670:	02240000 	eoreq	r0, r4, #0, 0
    1674:	00040000 	andeq	r0, r4, r0
    1678:	9f5001f3 	svcls	0x005001f3
	...
    1694:	00000070 	andeq	r0, r0, r0, ror r0
    1698:	000000e0 	andeq	r0, r0, r0, ror #1
    169c:	e0510001 	subs	r0, r1, r1
    16a0:	54000000 	strpl	r0, [r0], #-0
    16a4:	01000001 	tsteq	r0, r1
    16a8:	01545500 	cmpeq	r4, r0, lsl #10
    16ac:	01580000 	cmpeq	r8, r0
    16b0:	00010000 	andeq	r0, r1, r0
    16b4:	00015851 	andeq	r5, r1, r1, asr r8
    16b8:	0001b000 	andeq	fp, r1, r0
    16bc:	55000100 	strpl	r0, [r0, #-256]	; 0xffffff00
    16c0:	000001b0 			; <UNDEFINED> instruction: 0x000001b0
    16c4:	000001c0 	andeq	r0, r0, r0, asr #3
    16c8:	c0510001 	subsgt	r0, r1, r1
    16cc:	e4000001 	str	r0, [r0], #-1
    16d0:	01000001 	tsteq	r0, r1
    16d4:	01e45500 	mvneq	r5, r0, lsl #10
    16d8:	01f80000 	mvnseq	r0, r0
    16dc:	00010000 	andeq	r0, r1, r0
    16e0:	0001f851 	andeq	pc, r1, r1, asr r8	; <UNPREDICTABLE>
    16e4:	00022400 	andeq	r2, r2, r0, lsl #8
    16e8:	55000100 	strpl	r0, [r0, #-256]	; 0xffffff00
	...
    16f8:	00000070 	andeq	r0, r0, r0, ror r0
    16fc:	00000084 	andeq	r0, r0, r4, lsl #1
    1700:	84520001 	ldrbhi	r0, [r2], #-1
    1704:	24000000 	strcs	r0, [r0], #-0
    1708:	01000002 	tsteq	r0, r2
    170c:	00005400 	andeq	r5, r0, r0, lsl #8
	...
    1718:	01000000 	mrseq	r0, (UNDEF: 0)
    171c:	00000000 	andeq	r0, r0, r0
    1720:	00700000 	rsbseq	r0, r0, r0
    1724:	00f40000 	rscseq	r0, r4, r0
    1728:	00010000 	andeq	r0, r1, r0
    172c:	00014c53 	andeq	r4, r1, r3, asr ip
    1730:	00018000 	andeq	r8, r1, r0
    1734:	53000100 	movwpl	r0, #256	; 0x100
    1738:	00000180 	andeq	r0, r0, r0, lsl #3
    173c:	0000018c 	andeq	r0, r0, ip, lsl #3
    1740:	01f30004 	mvnseq	r0, r4
    1744:	01b09f53 	asrseq	r9, r3, pc
    1748:	01e80000 	mvneq	r0, r0
    174c:	00010000 	andeq	r0, r1, r0
    1750:	0001e853 	andeq	lr, r1, r3, asr r8
    1754:	0001ff00 	andeq	pc, r1, r0, lsl #30
    1758:	5c000100 	stfpls	f0, [r0], {-0}
    175c:	000001ff 	strdeq	r0, [r0], -pc	; <UNPREDICTABLE>
    1760:	00000224 	andeq	r0, r0, r4, lsr #4
    1764:	01f30004 	mvnseq	r0, r4
    1768:	00009f53 	andeq	r9, r0, r3, asr pc
	...
    1778:	00000070 	andeq	r0, r0, r0, ror r0
    177c:	0000008c 	andeq	r0, r0, ip, lsl #1
    1780:	00910002 	addseq	r0, r1, r2
    1784:	0000008c 	andeq	r0, r0, ip, lsl #1
    1788:	00000193 	muleq	r0, r3, r1
    178c:	b0520001 	subslt	r0, r2, r1
    1790:	f4000001 	vst4.8	{d0-d3}, [r0], r1
    1794:	01000001 	tsteq	r0, r1
    1798:	00005200 	andeq	r5, r0, r0, lsl #4
    179c:	00000000 	andeq	r0, r0, r0
    17a0:	00010000 	andeq	r0, r1, r0
    17a4:	00010100 	andeq	r0, r1, r0, lsl #2
    17a8:	00000000 	andeq	r0, r0, r0
    17ac:	01000000 	mrseq	r0, (UNDEF: 0)
    17b0:	00010101 	andeq	r0, r1, r1, lsl #2
    17b4:	00010100 	andeq	r0, r1, r0, lsl #2
	...
    17c0:	008c0000 	addeq	r0, ip, r0
    17c4:	00fc0000 	rscseq	r0, ip, r0
    17c8:	00040000 	andeq	r0, r4, r0
    17cc:	9f7fa091 	svcls	0x007fa091
    17d0:	000000fc 	strdeq	r0, [r0], -ip
    17d4:	0000013c 	andeq	r0, r0, ip, lsr r1
    17d8:	3c500001 	mrrccc	0, 0, r0, r0, cr1	; <UNPREDICTABLE>
    17dc:	48000001 	stmdami	r0, {r0}
    17e0:	03000001 	movweq	r0, #1
    17e4:	9f027100 	svcls	0x00027100
    17e8:	00000148 	andeq	r0, r0, r8, asr #2
    17ec:	0000014c 	andeq	r0, r0, ip, asr #2
    17f0:	4c500001 	mrrcmi	0, 0, r0, r0, cr1	; <UNPREDICTABLE>
    17f4:	58000001 	stmdapl	r0, {r0}
    17f8:	04000001 	streq	r0, [r0], #-1
    17fc:	7fa09100 	svcvc	0x00a09100
    1800:	0001589f 	muleq	r1, pc, r8	; <UNPREDICTABLE>
    1804:	00016c00 	andeq	r6, r1, r0, lsl #24
    1808:	51000100 	mrspl	r0, (UNDEF: 16)
    180c:	0000016c 	andeq	r0, r0, ip, ror #2
    1810:	00000178 	andeq	r0, r0, r8, ror r1
    1814:	7f710003 	svcvc	0x00710003
    1818:	0001789f 	muleq	r1, pc, r8	; <UNPREDICTABLE>
    181c:	00018400 	andeq	r8, r1, r0, lsl #8
    1820:	71000300 	mrsvc	r0, LR_irq
    1824:	01849f01 	orreq	r9, r4, r1, lsl #30
    1828:	01930000 	orrseq	r0, r3, r0
    182c:	00010000 	andeq	r0, r1, r0
    1830:	0001b050 	andeq	fp, r1, r0, asr r0
    1834:	0001b000 	andeq	fp, r1, r0
    1838:	91000400 	tstls	r0, r0, lsl #8
    183c:	b09f7fa0 	addslt	r7, pc, r0, lsr #31
    1840:	b8000001 	stmdalt	r0, {r0}
    1844:	04000001 	streq	r0, [r0], #-1
    1848:	7fa19100 	svcvc	0x00a19100
    184c:	0001b89f 	muleq	r1, pc, r8	; <UNPREDICTABLE>
    1850:	0001bc00 	andeq	fp, r1, r0, lsl #24
    1854:	50000100 	andpl	r0, r0, r0, lsl #2
    1858:	000001bc 			; <UNDEFINED> instruction: 0x000001bc
    185c:	000001c0 	andeq	r0, r0, r0, asr #3
    1860:	a0910004 	addsge	r0, r1, r4
    1864:	01c09f7f 	biceq	r9, r0, pc, ror pc
    1868:	01d40000 	bicseq	r0, r4, r0
    186c:	00010000 	andeq	r0, r1, r0
    1870:	0001d450 	andeq	sp, r1, r0, asr r4
    1874:	0001e400 	andeq	lr, r1, r0, lsl #8
    1878:	70000300 	andvc	r0, r0, r0, lsl #6
    187c:	01e49f7f 	mvneq	r9, pc, ror pc
    1880:	02240000 	eoreq	r0, r4, #0, 0
    1884:	00040000 	andeq	r0, r4, r0
    1888:	9f7fa091 	svcls	0x007fa091
	...
    1894:	01000000 	mrseq	r0, (UNDEF: 0)
    1898:	00000001 	andeq	r0, r0, r1
	...
    18a8:	00000090 	muleq	r0, r0, r0
    18ac:	000000dc 	ldrdeq	r0, [r0], -ip
    18b0:	dc5c0001 	mrrcle	0, 0, r0, ip, cr1
    18b4:	f4000000 	vst4.8	{d0-d3}, [r0], r0
    18b8:	01000000 	mrseq	r0, (UNDEF: 0)
    18bc:	00f45300 	rscseq	r5, r4, r0, lsl #6
    18c0:	014c0000 	mrseq	r0, (UNDEF: 76)
    18c4:	00010000 	andeq	r0, r1, r0
    18c8:	00014c5c 	andeq	r4, r1, ip, asr ip
    18cc:	00015800 	andeq	r5, r1, r0, lsl #16
    18d0:	53000100 	movwpl	r0, #256	; 0x100
    18d4:	00000158 	andeq	r0, r0, r8, asr r1
    18d8:	00000174 	andeq	r0, r0, r4, ror r1
    18dc:	b05c0001 	subslt	r0, ip, r1
    18e0:	c0000001 	andgt	r0, r0, r1
    18e4:	01000001 	tsteq	r0, r1
    18e8:	01c05300 	biceq	r5, r0, r0, lsl #6
    18ec:	01dc0000 	bicseq	r0, ip, r0
    18f0:	00010000 	andeq	r0, r1, r0
    18f4:	0001e45c 	andeq	lr, r1, ip, asr r4
    18f8:	0001e800 	andeq	lr, r1, r0, lsl #16
    18fc:	53000100 	movwpl	r0, #256	; 0x100
    1900:	000001e8 	andeq	r0, r0, r8, ror #3
    1904:	000001ff 	strdeq	r0, [r0], -pc	; <UNPREDICTABLE>
    1908:	ff5c0001 			; <UNDEFINED> instruction: 0xff5c0001
    190c:	24000001 	strcs	r0, [r0], #-1
    1910:	04000002 	streq	r0, [r0], #-2
    1914:	5301f300 	movwpl	pc, #4864	; 0x1300	; <UNPREDICTABLE>
    1918:	0000009f 	muleq	r0, pc, r0	; <UNPREDICTABLE>
    191c:	00000000 	andeq	r0, r0, r0
    1920:	01010100 	mrseq	r0, (UNDEF: 17)
    1924:	00000000 	andeq	r0, r0, r0
    1928:	0000dc00 	andeq	sp, r0, r0, lsl #24
    192c:	0000f000 	andeq	pc, r0, r0
    1930:	30000200 	andcc	r0, r0, r0, lsl #4
    1934:	0000f09f 	muleq	r0, pc, r0	; <UNPREDICTABLE>
    1938:	0000f800 	andeq	pc, r0, r0, lsl #16
    193c:	31000200 	mrscc	r0, R8_usr
    1940:	0000fc9f 	muleq	r0, pc, ip	; <UNPREDICTABLE>
    1944:	00014c00 	andeq	r4, r1, r0, lsl #24
    1948:	56000100 	strpl	r0, [r0], -r0, lsl #2
    194c:	0000014c 	andeq	r0, r0, ip, asr #2
    1950:	00000154 	andeq	r0, r0, r4, asr r1
    1954:	9f300002 	svcls	0x00300002
	...
    1960:	01000000 	mrseq	r0, (UNDEF: 0)
    1964:	01000001 	tsteq	r0, r1
    1968:	00380001 	eorseq	r0, r8, r1
    196c:	00540000 	subseq	r0, r4, r0
    1970:	00010000 	andeq	r0, r1, r0
    1974:	00005450 	andeq	r5, r0, r0, asr r4
    1978:	00005800 	andeq	r5, r0, r0, lsl #16
    197c:	52000100 	andpl	r0, r0, #0
    1980:	00000058 	andeq	r0, r0, r8, asr r0
    1984:	00000060 	andeq	r0, r0, r0, rrx
    1988:	01720003 	cmneq	r2, r3
    198c:	0000609f 	muleq	r0, pc, r0	; <UNPREDICTABLE>
    1990:	00006400 	andeq	r6, r0, r0, lsl #8
    1994:	52000100 	andpl	r0, r0, #0
    1998:	00000064 	andeq	r0, r0, r4, rrx
    199c:	00000070 	andeq	r0, r0, r0, ror r0
    19a0:	01720003 	cmneq	r2, r3
    19a4:	0000009f 	muleq	r0, pc, r0	; <UNPREDICTABLE>
	...
    19b0:	00003800 	andeq	r3, r0, r0, lsl #16
    19b4:	00005000 	andeq	r5, r0, r0
    19b8:	51000100 	mrspl	r0, (UNDEF: 16)
    19bc:	00000050 	andeq	r0, r0, r0, asr r0
    19c0:	00000070 	andeq	r0, r0, r0, ror r0
    19c4:	01f30004 	mvnseq	r0, r4
    19c8:	00009f51 	andeq	r9, r0, r1, asr pc
	...
    19d4:	01000000 	mrseq	r0, (UNDEF: 0)
    19d8:	00380001 	eorseq	r0, r8, r1
    19dc:	00500000 	subseq	r0, r0, r0
    19e0:	00010000 	andeq	r0, r1, r0
    19e4:	00005052 	andeq	r5, r0, r2, asr r0
    19e8:	00005c00 	andeq	r5, r0, r0, lsl #24
    19ec:	51000100 	mrspl	r0, (UNDEF: 16)
    19f0:	0000005c 	andeq	r0, r0, ip, asr r0
    19f4:	00000060 	andeq	r0, r0, r0, rrx
    19f8:	01710003 	cmneq	r1, r3
    19fc:	0000609f 	muleq	r0, pc, r0	; <UNPREDICTABLE>
    1a00:	00007000 	andeq	r7, r0, r0
    1a04:	51000100 	mrspl	r0, (UNDEF: 16)
	...
    1a14:	00000038 	andeq	r0, r0, r8, lsr r0
    1a18:	0000004c 	andeq	r0, r0, ip, asr #32
    1a1c:	4c530001 	mrrcmi	0, 0, r0, r3, cr1
    1a20:	68000000 	stmdavs	r0, {}	; <UNPREDICTABLE>
    1a24:	01000000 	mrseq	r0, (UNDEF: 0)
    1a28:	00005300 	andeq	r5, r0, r0, lsl #6
	...
    1a38:	00400000 	subeq	r0, r0, r0
    1a3c:	00480000 	subeq	r0, r8, r0
    1a40:	00010000 	andeq	r0, r1, r0
    1a44:	0000485c 	andeq	r4, r0, ip, asr r8
    1a48:	00004c00 	andeq	r4, r0, r0, lsl #24
    1a4c:	72000800 	andvc	r0, r0, #0, 16
    1a50:	1c007300 	stcne	3, cr7, [r0], {-0}
    1a54:	4c9f0123 	ldfmis	f0, [pc], {35}	; 0x23
    1a58:	54000000 	strpl	r0, [r0], #-0
    1a5c:	09000000 	stmdbeq	r0, {}	; <UNPREDICTABLE>
    1a60:	f3007200 	vhsub.u8	d7, d0, d0
    1a64:	231c5301 	tstcs	ip, #67108864	; 0x4000000
    1a68:	00549f01 	subseq	r9, r4, r1, lsl #30
    1a6c:	00700000 	rsbseq	r0, r0, r0
    1a70:	000a0000 	andeq	r0, sl, r0
    1a74:	f35201f3 	vbsl	q8, q9, <illegal reg q9.5>
    1a78:	231c5301 	tstcs	ip, #67108864	; 0x4000000
    1a7c:	00009f01 	andeq	r9, r0, r1, lsl #30
    1a80:	00000000 	andeq	r0, r0, r0
    1a84:	00010000 	andeq	r0, r1, r0
    1a88:	0000004c 	andeq	r0, r0, ip, asr #32
    1a8c:	00000070 	andeq	r0, r0, r0, ror r0
    1a90:	00500001 	subseq	r0, r0, r1
	...
    1a9c:	00000101 	andeq	r0, r0, r1, lsl #2
    1aa0:	00001400 	andeq	r1, r0, r0, lsl #8
    1aa4:	00001c00 	andeq	r1, r0, r0, lsl #24
    1aa8:	50000100 	andpl	r0, r0, r0, lsl #2
    1aac:	0000001c 	andeq	r0, r0, ip, lsl r0
    1ab0:	00000024 	andeq	r0, r0, r4, lsr #32
    1ab4:	01700003 	cmneq	r0, r3
    1ab8:	0000249f 	muleq	r0, pc, r4	; <UNPREDICTABLE>
    1abc:	00003800 	andeq	r3, r0, r0, lsl #16
    1ac0:	50000100 	andpl	r0, r0, r0, lsl #2
	...
    1ad0:	00000014 	andeq	r0, r0, r4, lsl r0
    1ad4:	00000018 	andeq	r0, r0, r8, lsl r0
    1ad8:	18510001 	ldmdane	r1, {r0}^
    1adc:	38000000 	stmdacc	r0, {}	; <UNPREDICTABLE>
    1ae0:	04000000 	streq	r0, [r0], #-0
    1ae4:	5101f300 	mrspl	pc, SP_irq	; <UNPREDICTABLE>
    1ae8:	0000009f 	muleq	r0, pc, r0	; <UNPREDICTABLE>
    1aec:	00000000 	andeq	r0, r0, r0
    1af0:	18000000 	stmdane	r0, {}	; <UNPREDICTABLE>
    1af4:	38000000 	stmdacc	r0, {}	; <UNPREDICTABLE>
    1af8:	01000000 	mrseq	r0, (UNDEF: 0)
    1afc:	00005100 	andeq	r5, r0, r0, lsl #2
	...
    1b10:	00000004 	andeq	r0, r0, r4
    1b14:	04500001 	ldrbeq	r0, [r0], #-1
    1b18:	0c000000 	stceq	0, cr0, [r0], {-0}
    1b1c:	03000000 	movweq	r0, #0
    1b20:	9f307000 	svcls	0x00307000
    1b24:	0000000c 	andeq	r0, r0, ip
    1b28:	00000014 	andeq	r0, r0, r4, lsl r0
    1b2c:	01f30004 	mvnseq	r0, r4
    1b30:	00009f50 	andeq	r9, r0, r0, asr pc
	...
    1b3c:	02240000 	eoreq	r0, r4, #0, 0
    1b40:	02680000 	rsbeq	r0, r8, #0, 0
    1b44:	00010000 	andeq	r0, r1, r0
    1b48:	00026850 	andeq	r6, r2, r0, asr r8
    1b4c:	00028800 	andeq	r8, r2, r0, lsl #16
    1b50:	f3000400 	vshl.u8	d0, d0, d0
    1b54:	009f5001 	addseq	r5, pc, r1
	...
    1b60:	24000000 	strcs	r0, [r0], #-0
    1b64:	64000002 	strvs	r0, [r0], #-2
    1b68:	01000002 	tsteq	r0, r2
    1b6c:	02645100 	rsbeq	r5, r4, #0
    1b70:	02880000 	addeq	r0, r8, #0, 0
    1b74:	00040000 	andeq	r0, r4, r0
    1b78:	9f5101f3 	svcls	0x005101f3
	...
    1b84:	00010100 	andeq	r0, r1, r0, lsl #2
    1b88:	8f880000 	svchi	0x00880000
    1b8c:	8f880000 	svchi	0x00880000
    1b90:	00010000 	andeq	r0, r1, r0
    1b94:	008f8853 	addeq	r8, pc, r3, asr r8	; <UNPREDICTABLE>
    1b98:	008f8c00 	addeq	r8, pc, r0, lsl #24
    1b9c:	73000700 	movwvc	r0, #1792	; 0x700
    1ba0:	efff0b00 	svc	0x00ff0b00
    1ba4:	8f8c9f1a 	svchi	0x008c9f1a
    1ba8:	8f940000 	svchi	0x00940000
    1bac:	00010000 	andeq	r0, r1, r0
    1bb0:	00000053 	andeq	r0, r0, r3, asr r0
    1bb4:	00000000 	andeq	r0, r0, r0
    1bb8:	01010000 	mrseq	r0, (UNDEF: 1)
    1bbc:	78000000 	stmdavc	r0, {}	; <UNPREDICTABLE>
    1bc0:	7800008f 	stmdavc	r0, {r0, r1, r2, r3, r7}
    1bc4:	0100008f 	smlabbeq	r0, pc, r0, r0	; <UNPREDICTABLE>
    1bc8:	8f785300 	svchi	0x00785300
    1bcc:	8f7c0000 	svchi	0x007c0000
    1bd0:	00070000 	andeq	r0, r7, r0
    1bd4:	000a0073 	andeq	r0, sl, r3, ror r0
    1bd8:	7c9f2110 	ldfvcs	f2, [pc], {16}
    1bdc:	8400008f 	strhi	r0, [r0], #-143	; 0xffffff71
    1be0:	0100008f 	smlabbeq	r0, pc, r0, r0	; <UNPREDICTABLE>
    1be4:	00005300 	andeq	r5, r0, r0, lsl #6
    1be8:	00000000 	andeq	r0, r0, r0
    1bec:	01000000 	mrseq	r0, (UNDEF: 0)
    1bf0:	00000001 	andeq	r0, r0, r1
    1bf4:	0000000c 	andeq	r0, r0, ip
    1bf8:	00000014 	andeq	r0, r0, r4, lsl r0
    1bfc:	14530001 	ldrbne	r0, [r3], #-1
    1c00:	1c000000 	stcne	0, cr0, [r0], {-0}
    1c04:	03000000 	movweq	r0, #0
    1c08:	9f047300 	svcls	0x00047300
    1c0c:	0000001c 	andeq	r0, r0, ip, lsl r0
    1c10:	00000023 	andeq	r0, r0, r3, lsr #32
    1c14:	00530001 	subseq	r0, r3, r1
    1c18:	00000000 	andeq	r0, r0, r0
    1c1c:	01000000 	mrseq	r0, (UNDEF: 0)
    1c20:	00906400 	addseq	r6, r0, r0, lsl #8
    1c24:	00908000 	addseq	r8, r0, r0
    1c28:	0c000600 	stceq	6, cr0, [r0], {-0}
    1c2c:	2010001c 	andscs	r0, r0, ip, lsl r0
    1c30:	0000009f 	muleq	r0, pc, r0	; <UNPREDICTABLE>
    1c34:	00000000 	andeq	r0, r0, r0
    1c38:	64000200 	strvs	r0, [r0], #-512	; 0xfffffe00
    1c3c:	80000090 	mulhi	r0, r0, r0
    1c40:	06000090 			; <UNDEFINED> instruction: 0x06000090
    1c44:	00240c00 	eoreq	r0, r4, r0, lsl #24
    1c48:	009f2010 	addseq	r2, pc, r0, lsl r0	; <UNPREDICTABLE>
    1c4c:	00000000 	andeq	r0, r0, r0
    1c50:	03000000 	movweq	r0, #0
    1c54:	00906400 	addseq	r6, r0, r0, lsl #8
    1c58:	00908000 	addseq	r8, r0, r0
    1c5c:	08000500 	stmdaeq	r0, {r8, sl}
    1c60:	9f2447b4 	svcls	0x002447b4
	...
    1c6c:	90640004 	rsbls	r0, r4, r4
    1c70:	90800000 	addls	r0, r0, r0
    1c74:	00030000 	andeq	r0, r3, r0
    1c78:	009f2008 	addseq	r2, pc, r8
    1c7c:	00000000 	andeq	r0, r0, r0
    1c80:	02000000 	andeq	r0, r0, #0, 0
    1c84:	00000000 	andeq	r0, r0, r0
    1c88:	00903000 	addseq	r3, r0, r0
    1c8c:	00903400 	addseq	r3, r0, r0, lsl #8
    1c90:	30000200 	andcc	r0, r0, r0, lsl #4
    1c94:	0090349f 	umullseq	r3, r0, pc, r4	; <UNPREDICTABLE>
    1c98:	00903800 	addseq	r3, r0, r0, lsl #16
    1c9c:	53000100 	movwpl	r0, #256	; 0x100
    1ca0:	0000903c 	andeq	r9, r0, ip, lsr r0
    1ca4:	00009044 	andeq	r9, r0, r4, asr #32
    1ca8:	00530001 	subseq	r0, r3, r1
    1cac:	00000000 	andeq	r0, r0, r0
    1cb0:	02000000 	andeq	r0, r0, #0, 0
    1cb4:	18000000 	stmdane	r0, {}	; <UNPREDICTABLE>
    1cb8:	1c000090 	stcne	0, cr0, [r0], {144}	; 0x90
    1cbc:	02000090 	andeq	r0, r0, #144, 0	; 0x90
    1cc0:	1c9f3000 	ldcne	0, cr3, [pc], {0}
    1cc4:	20000090 	mulcs	r0, r0, r0
    1cc8:	01000090 	swpeq	r0, r0, [r0]	; <UNPREDICTABLE>
    1ccc:	00005000 	andeq	r5, r0, r0
	...
    1cd8:	006c0000 	rsbeq	r0, ip, r0
    1cdc:	00780000 	rsbseq	r0, r8, r0
    1ce0:	00010000 	andeq	r0, r1, r0
    1ce4:	00007850 	andeq	r7, r0, r0, asr r8
    1ce8:	00008400 	andeq	r8, r0, r0, lsl #8
    1cec:	f3000400 	vshl.u8	d0, d0, d0
    1cf0:	009f5001 	addseq	r5, pc, r1
	...
    1cfc:	54000000 	strpl	r0, [r0], #-0
    1d00:	60000000 	andvs	r0, r0, r0
    1d04:	01000000 	mrseq	r0, (UNDEF: 0)
    1d08:	00605000 	rsbeq	r5, r0, r0
    1d0c:	006c0000 	rsbeq	r0, ip, r0
    1d10:	00040000 	andeq	r0, r4, r0
    1d14:	9f5001f3 	svcls	0x005001f3
	...
    1d24:	00000030 	andeq	r0, r0, r0, lsr r0
    1d28:	0000003b 	andeq	r0, r0, fp, lsr r0
    1d2c:	3b500001 	blcc	1401d38 <__bss_end__+0x13f7a18>
    1d30:	54000000 	strpl	r0, [r0], #-0
    1d34:	01000000 	mrseq	r0, (UNDEF: 0)
    1d38:	00005500 	andeq	r5, r0, r0, lsl #10
	...
    1d44:	00000040 	andeq	r0, r0, r0, asr #32
    1d48:	00000054 	andeq	r0, r0, r4, asr r0
    1d4c:	00540001 	subseq	r0, r4, r1
	...
    1d58:	00004400 	andeq	r4, r0, r0, lsl #8
    1d5c:	00004800 	andeq	r4, r0, r0, lsl #16
    1d60:	50000100 	andpl	r0, r0, r0, lsl #2
	...
    1d70:	00000024 	andeq	r0, r0, r4, lsr #32
    1d74:	00000027 	andeq	r0, r0, r7, lsr #32
    1d78:	27500001 	ldrbcs	r0, [r0, -r1]
    1d7c:	30000000 	andcc	r0, r0, r0
    1d80:	01000000 	mrseq	r0, (UNDEF: 0)
    1d84:	00005400 	andeq	r5, r0, r0, lsl #8
	...
    1d94:	00e80000 	rsceq	r0, r8, r0
    1d98:	01000000 	mrseq	r0, (UNDEF: 0)
    1d9c:	00010000 	andeq	r0, r1, r0
    1da0:	00010050 	andeq	r0, r1, r0, asr r0
    1da4:	00011000 	andeq	r1, r1, r0
    1da8:	f3000400 	vshl.u8	d0, d0, d0
    1dac:	109f5001 	addsne	r5, pc, r1
    1db0:	14000001 	strne	r0, [r0], #-1
    1db4:	01000001 	tsteq	r0, r1
    1db8:	01145000 	tsteq	r4, r0
    1dbc:	011c0000 	tsteq	ip, r0
    1dc0:	00040000 	andeq	r0, r4, r0
    1dc4:	9f5001f3 	svcls	0x005001f3
	...
    1dd0:	00000001 	andeq	r0, r0, r1
    1dd4:	00f40000 	rscseq	r0, r4, r0
    1dd8:	01000000 	mrseq	r0, (UNDEF: 0)
    1ddc:	000b0000 	andeq	r0, fp, r0
    1de0:	25350070 	ldrcs	r0, [r5, #-112]!	; 0xffffff90
    1de4:	8080b423 	addhi	fp, r0, r3, lsr #8
    1de8:	009f0281 	addseq	r0, pc, r1, lsl #5
    1dec:	03000001 	movweq	r0, #1
    1df0:	01000001 	tsteq	r0, r1
    1df4:	01035000 	mrseq	r5, (UNDEF: 3)
    1df8:	01100000 	tsteq	r0, r0
    1dfc:	000c0000 	andeq	r0, ip, r0
    1e00:	355001f3 	ldrbcc	r0, [r0, #-499]	; 0xfffffe0d
    1e04:	80b42325 	adcshi	r2, r4, r5, lsr #6
    1e08:	9f028180 	svcls	0x00028180
	...
    1e14:	00f80000 	rscseq	r0, r8, r0
    1e18:	01100000 	tsteq	r0, r0
    1e1c:	00010000 	andeq	r0, r1, r0
    1e20:	00000054 	andeq	r0, r0, r4, asr r0
	...
    1e30:	0000cc00 	andeq	ip, r0, r0, lsl #24
    1e34:	0000db00 	andeq	sp, r0, r0, lsl #22
    1e38:	50000100 	andpl	r0, r0, r0, lsl #2
    1e3c:	000000db 	ldrdeq	r0, [r0], -fp
    1e40:	000000e0 	andeq	r0, r0, r0, ror #1
    1e44:	01f30004 	mvnseq	r0, r4
    1e48:	00e09f50 	rsceq	r9, r0, r0, asr pc
    1e4c:	00e30000 	rsceq	r0, r3, r0
    1e50:	00010000 	andeq	r0, r1, r0
    1e54:	0000e350 	andeq	lr, r0, r0, asr r3
    1e58:	0000e800 	andeq	lr, r0, r0, lsl #16
    1e5c:	f3000400 	vshl.u8	d0, d0, d0
    1e60:	009f5001 	addseq	r5, pc, r1
	...
    1e70:	cc000000 	stcgt	0, cr0, [r0], {-0}
    1e74:	db000000 	blle	1e7c <__code_start__-0x6184>
    1e78:	01000000 	mrseq	r0, (UNDEF: 0)
    1e7c:	00db5100 	sbcseq	r5, fp, r0, lsl #2
    1e80:	00e00000 	rsceq	r0, r0, r0
    1e84:	00040000 	andeq	r0, r4, r0
    1e88:	9f5101f3 	svcls	0x005101f3
    1e8c:	000000e0 	andeq	r0, r0, r0, ror #1
    1e90:	000000e3 	andeq	r0, r0, r3, ror #1
    1e94:	e3510001 	cmp	r1, #1, 0
    1e98:	e8000000 	stmda	r0, {}	; <UNPREDICTABLE>
    1e9c:	04000000 	streq	r0, [r0], #-0
    1ea0:	5101f300 	mrspl	pc, SP_irq	; <UNPREDICTABLE>
    1ea4:	0000009f 	muleq	r0, pc, r0	; <UNPREDICTABLE>
	...
    1eb0:	0000bc00 	andeq	fp, r0, r0, lsl #24
    1eb4:	0000c700 	andeq	ip, r0, r0, lsl #14
    1eb8:	50000100 	andpl	r0, r0, r0, lsl #2
    1ebc:	000000c7 	andeq	r0, r0, r7, asr #1
    1ec0:	000000cc 	andeq	r0, r0, ip, asr #1
    1ec4:	01f30004 	mvnseq	r0, r4
    1ec8:	00009f50 	andeq	r9, r0, r0, asr pc
	...
    1ed4:	00980000 	addseq	r0, r8, r0
    1ed8:	00b00000 	adcseq	r0, r0, r0
    1edc:	00010000 	andeq	r0, r1, r0
    1ee0:	0000b050 	andeq	fp, r0, r0, asr r0
    1ee4:	0000bc00 	andeq	fp, r0, r0, lsl #24
    1ee8:	f3000400 	vshl.u8	d0, d0, d0
    1eec:	009f5001 	addseq	r5, pc, r1
	...
    1ef8:	74000000 	strvc	r0, [r0], #-0
    1efc:	8c000000 	stchi	0, cr0, [r0], {-0}
    1f00:	01000000 	mrseq	r0, (UNDEF: 0)
    1f04:	008c5000 	addeq	r5, ip, r0
    1f08:	00980000 	addseq	r0, r8, r0
    1f0c:	00040000 	andeq	r0, r4, r0
    1f10:	9f5001f3 	svcls	0x005001f3
	...
    1f20:	00000064 	andeq	r0, r0, r4, rrx
    1f24:	0000006f 	andeq	r0, r0, pc, rrx
    1f28:	6f500001 	svcvs	0x00500001
    1f2c:	74000000 	strvc	r0, [r0], #-0
    1f30:	04000000 	streq	r0, [r0], #-0
    1f34:	5001f300 	andpl	pc, r1, r0, lsl #6
    1f38:	0000009f 	muleq	r0, pc, r0	; <UNPREDICTABLE>
	...
    1f48:	00003800 	andeq	r3, r0, r0, lsl #16
    1f4c:	50000100 	andpl	r0, r0, r0, lsl #2
    1f50:	00000038 	andeq	r0, r0, r8, lsr r0
    1f54:	00000064 	andeq	r0, r0, r4, rrx
    1f58:	01f30004 	mvnseq	r0, r4
    1f5c:	00009f50 	andeq	r9, r0, r0, asr pc
	...
    1f6c:	00470000 	subeq	r0, r7, r0
    1f70:	00010000 	andeq	r0, r1, r0
    1f74:	00004751 	andeq	r4, r0, r1, asr r7
    1f78:	00006400 	andeq	r6, r0, r0, lsl #8
    1f7c:	f3000400 	vshl.u8	d0, d0, d0
    1f80:	009f5101 	addseq	r5, pc, r1, lsl #2
	...
    1f8c:	00003400 	andeq	r3, r0, r0, lsl #8
    1f90:	00006400 	andeq	r6, r0, r0, lsl #8
    1f94:	54000100 	strpl	r0, [r0], #-256	; 0xffffff00
	...
    1fa0:	00400000 	subeq	r0, r0, r0
    1fa4:	00640000 	rsbeq	r0, r4, r0
    1fa8:	00010000 	andeq	r0, r1, r0
    1fac:	00000056 	andeq	r0, r0, r6, asr r0
	...
    1fb8:	00000101 	andeq	r0, r0, r1, lsl #2
    1fbc:	00004800 	andeq	r4, r0, r0, lsl #16
    1fc0:	00005000 	andeq	r5, r0, r0
    1fc4:	50000100 	andpl	r0, r0, r0, lsl #2
    1fc8:	00000050 	andeq	r0, r0, r0, asr r0
    1fcc:	00000050 	andeq	r0, r0, r0, asr r0
    1fd0:	50510001 	subspl	r0, r1, r1
    1fd4:	54000000 	strpl	r0, [r0], #-0
    1fd8:	09000000 	stmdbeq	r0, {}	; <UNPREDICTABLE>
    1fdc:	74007500 	strvc	r7, [r0], #-1280	; 0xfffffb00
    1fe0:	00712400 	rsbseq	r2, r1, r0, lsl #8
    1fe4:	00549f21 	subseq	r9, r4, r1, lsr #30
    1fe8:	005b0000 	subseq	r0, fp, r0
    1fec:	00010000 	andeq	r0, r1, r0
    1ff0:	00000051 	andeq	r0, r0, r1, asr r0
	...
    1ffc:	00015800 	andeq	r5, r1, r0, lsl #16
    2000:	00016300 	andeq	r6, r1, r0, lsl #6
    2004:	50000100 	andpl	r0, r0, r0, lsl #2
    2008:	00000163 	andeq	r0, r0, r3, ror #2
    200c:	00000188 	andeq	r0, r0, r8, lsl #3
    2010:	00540001 	subseq	r0, r4, r1
	...
    201c:	00014800 	andeq	r4, r1, r0, lsl #16
    2020:	00015800 	andeq	r5, r1, r0, lsl #16
    2024:	54000100 	strpl	r0, [r0], #-256	; 0xffffff00
	...
    2038:	0000000f 	andeq	r0, r0, pc
    203c:	0f500001 	svceq	0x00500001
    2040:	20000000 	andcs	r0, r0, r0
    2044:	01000000 	mrseq	r0, (UNDEF: 0)
    2048:	00005400 	andeq	r5, r0, r0, lsl #8
	...
    2058:	000f0000 	andeq	r0, pc, r0
    205c:	00010000 	andeq	r0, r1, r0
    2060:	00000f51 	andeq	r0, r0, r1, asr pc
    2064:	00002000 	andeq	r2, r0, r0
    2068:	55000100 	strpl	r0, [r0, #-256]	; 0xffffff00
	...
    2078:	00000020 	andeq	r0, r0, r0, lsr #32
    207c:	0000002f 	andeq	r0, r0, pc, lsr #32
    2080:	2f500001 	svccs	0x00500001
    2084:	40000000 	andmi	r0, r0, r0
    2088:	01000000 	mrseq	r0, (UNDEF: 0)
    208c:	00005400 	andeq	r5, r0, r0, lsl #8
	...
    2098:	00200000 	eoreq	r0, r0, r0
    209c:	002f0000 	eoreq	r0, pc, r0
    20a0:	00010000 	andeq	r0, r1, r0
    20a4:	00002f51 	andeq	r2, r0, r1, asr pc
    20a8:	00004000 	andeq	r4, r0, r0
    20ac:	55000100 	strpl	r0, [r0, #-256]	; 0xffffff00
	...
    20bc:	03500000 	cmpeq	r0, #0, 0
    20c0:	03980000 	orrseq	r0, r8, #0, 0
    20c4:	00010000 	andeq	r0, r1, r0
    20c8:	00039850 	andeq	r9, r3, r0, asr r8
    20cc:	00039b00 	andeq	r9, r3, r0, lsl #22
    20d0:	91000200 	mrsls	r0, R8_usr
    20d4:	00039b68 	andeq	r9, r3, r8, ror #22
    20d8:	0003b000 	andeq	fp, r3, r0
    20dc:	f3000400 	vshl.u8	d0, d0, d0
    20e0:	009f5001 	addseq	r5, pc, r1
	...
    20fc:	20000000 	andcs	r0, r0, r0
    2100:	7b000002 	blvc	2110 <__code_start__-0x5ef0>
    2104:	01000002 	tsteq	r0, r2
    2108:	027b5000 	rsbseq	r5, fp, #0, 0
    210c:	02840000 	addeq	r0, r4, #0, 0
    2110:	00040000 	andeq	r0, r4, r0
    2114:	9f5001f3 	svcls	0x005001f3
    2118:	00000284 	andeq	r0, r0, r4, lsl #5
    211c:	0000029c 	muleq	r0, ip, r2
    2120:	9c500001 	mrrcls	0, 0, r0, r0, cr1	; <UNPREDICTABLE>
    2124:	a4000002 	strge	r0, [r0], #-2
    2128:	04000002 	streq	r0, [r0], #-2
    212c:	5001f300 	andpl	pc, r1, r0, lsl #6
    2130:	0002a49f 	muleq	r2, pc, r4	; <UNPREDICTABLE>
    2134:	0002a700 	andeq	sl, r2, r0, lsl #14
    2138:	50000100 	andpl	r0, r0, r0, lsl #2
    213c:	000002a7 	andeq	r0, r0, r7, lsr #5
    2140:	000002c8 	andeq	r0, r0, r8, asr #5
    2144:	01f30004 	mvnseq	r0, r4
    2148:	02c89f50 	sbceq	r9, r8, #80, 30	; 0x140
    214c:	02e00000 	rsceq	r0, r0, #0, 0
    2150:	00010000 	andeq	r0, r1, r0
    2154:	0002e050 	andeq	lr, r2, r0, asr r0
    2158:	0002e800 	andeq	lr, r2, r0, lsl #16
    215c:	f3000400 	vshl.u8	d0, d0, d0
    2160:	e89f5001 	ldm	pc, {r0, ip, lr}	; <UNPREDICTABLE>
    2164:	eb000002 	bl	2174 <__code_start__-0x5e8c>
    2168:	01000002 	tsteq	r0, r2
    216c:	02eb5000 	rsceq	r5, fp, #0, 0
    2170:	03380000 	teqeq	r8, #0, 0
    2174:	00040000 	andeq	r0, r4, r0
    2178:	9f5001f3 	svcls	0x005001f3
	...
    2198:	00000220 	andeq	r0, r0, r0, lsr #4
    219c:	00000244 	andeq	r0, r0, r4, asr #4
    21a0:	44510001 	ldrbmi	r0, [r1], #-1
    21a4:	68000002 	stmdavs	r0, {r1}
    21a8:	01000002 	tsteq	r0, r2
    21ac:	02685100 	rsbeq	r5, r8, #0
    21b0:	027b0000 	rsbseq	r0, fp, #0, 0
    21b4:	00030000 	andeq	r0, r3, r0
    21b8:	7b9f0171 	blvc	fe7c2784 <__bss_end__+0xfe7b8464>
    21bc:	84000002 	strhi	r0, [r0], #-2
    21c0:	17000002 	strne	r0, [r0, -r2]
    21c4:	01f33800 	mvnseq	r3, r0, lsl #16
    21c8:	5101f351 	tstpl	r1, r1, asr r3	; <UNPREDICTABLE>
    21cc:	22244b40 	eorcs	r4, r4, #64, 22	; 0x10000
    21d0:	0000080c 	andeq	r0, r0, ip, lsl #16
    21d4:	01282d80 	smlawbeq	r8, r0, sp, r2
    21d8:	9f131600 	svcls	0x00131600
    21dc:	00000284 	andeq	r0, r0, r4, lsl #5
    21e0:	00000298 	muleq	r0, r8, r2
    21e4:	98510001 	ldmdals	r1, {r0}^
    21e8:	a4000002 	strge	r0, [r0], #-2
    21ec:	04000002 	streq	r0, [r0], #-2
    21f0:	5101f300 	mrspl	pc, SP_irq	; <UNPREDICTABLE>
    21f4:	0002a49f 	muleq	r2, pc, r4	; <UNPREDICTABLE>
    21f8:	0002a700 	andeq	sl, r2, r0, lsl #14
    21fc:	51000100 	mrspl	r0, (UNDEF: 16)
    2200:	000002a7 	andeq	r0, r0, r7, lsr #5
    2204:	000002c8 	andeq	r0, r0, r8, asr #5
    2208:	01f30004 	mvnseq	r0, r4
    220c:	02c89f51 	sbceq	r9, r8, #324	; 0x144
    2210:	02dc0000 	sbcseq	r0, ip, #0, 0
    2214:	00010000 	andeq	r0, r1, r0
    2218:	0002dc51 	andeq	sp, r2, r1, asr ip
    221c:	00033800 	andeq	r3, r3, r0, lsl #16
    2220:	38001700 	stmdacc	r0, {r8, r9, sl, ip}
    2224:	f35101f3 	vbsl	q8, <illegal reg q8.5>, <illegal reg q9.5>
    2228:	4b405101 	blmi	1016634 <__bss_end__+0x100c314>
    222c:	080c2224 	stmdaeq	ip, {r2, r5, r9, sp}
    2230:	2d800000 	stccs	0, cr0, [r0]
    2234:	16000128 	strne	r0, [r0], -r8, lsr #2
    2238:	00009f13 	andeq	r9, r0, r3, lsl pc
	...
    224c:	024c0000 	subeq	r0, ip, #0, 0
    2250:	025c0000 	subseq	r0, ip, #0, 0
    2254:	00010000 	andeq	r0, r1, r0
    2258:	00025c52 	andeq	r5, r2, r2, asr ip
    225c:	00026400 	andeq	r6, r2, r0, lsl #8
    2260:	03000500 	movweq	r0, #1280	; 0x500
    2264:	00009f14 	andeq	r9, r0, r4, lsl pc
    2268:	00000264 	andeq	r0, r0, r4, ror #4
    226c:	0000027b 	andeq	r0, r0, fp, ror r2
    2270:	c8530001 	ldmdagt	r3, {r0}^
    2274:	d8000002 	stmdale	r0, {r1}
    2278:	01000002 	tsteq	r0, r2
    227c:	02d85200 	sbcseq	r5, r8, #0, 4
    2280:	02e30000 	rsceq	r0, r3, #0, 0
    2284:	00050000 	andeq	r0, r5, r0
    2288:	009f1403 	addseq	r1, pc, r3, lsl #8
    228c:	0002e800 	andeq	lr, r2, r0, lsl #16
    2290:	0002eb00 	andeq	lr, r2, r0, lsl #22
    2294:	53000100 	movwpl	r0, #256	; 0x100
	...
    22a0:	02300004 	eorseq	r0, r0, #4, 0
    22a4:	02340000 	eorseq	r0, r4, #0, 0
    22a8:	00010000 	andeq	r0, r1, r0
    22ac:	00000051 	andeq	r0, r0, r1, asr r0
    22b0:	00000000 	andeq	r0, r0, r0
    22b4:	3c000200 	sfmcc	f0, 4, [r0], {-0}
    22b8:	44000002 	strmi	r0, [r0], #-2
    22bc:	02000002 	andeq	r0, r0, #2, 0
    22c0:	009f3800 	addseq	r3, pc, r0, lsl #16
    22c4:	00000000 	andeq	r0, r0, r0
    22c8:	02000000 	andeq	r0, r0, #0, 0
    22cc:	00023c00 	andeq	r3, r2, r0, lsl #24
    22d0:	00024400 	andeq	r4, r2, r0, lsl #8
    22d4:	51000100 	mrspl	r0, (UNDEF: 16)
	...
    22e0:	00000001 	andeq	r0, r0, r1
    22e4:	024c0000 	subeq	r0, ip, #0, 0
    22e8:	02640000 	rsbeq	r0, r4, #0, 0
    22ec:	00010000 	andeq	r0, r1, r0
    22f0:	0002c851 	andeq	ip, r2, r1, asr r8
    22f4:	0002dc00 	andeq	sp, r2, r0, lsl #24
    22f8:	51000100 	mrspl	r0, (UNDEF: 16)
    22fc:	000002dc 	ldrdeq	r0, [r0], -ip
    2300:	000002e8 	andeq	r0, r0, r8, ror #5
    2304:	f3380017 	vqadd.u64	d0, d8, d7
    2308:	01f35101 	mvnseq	r5, r1, lsl #2
    230c:	244b4051 	strbcs	r4, [fp], #-81	; 0xffffffaf
    2310:	00080c22 	andeq	r0, r8, r2, lsr #24
    2314:	282d8000 	stmdacs	sp!, {pc}
    2318:	13160001 	tstne	r6, #1, 0
    231c:	0000009f 	muleq	r0, pc, r0	; <UNPREDICTABLE>
    2320:	00000000 	andeq	r0, r0, r0
    2324:	00000100 	andeq	r0, r0, r0, lsl #2
    2328:	00000000 	andeq	r0, r0, r0
    232c:	00024c00 	andeq	r4, r2, r0, lsl #24
    2330:	00025c00 	andeq	r5, r2, r0, lsl #24
    2334:	52000100 	andpl	r0, r0, #0
    2338:	0000025c 	andeq	r0, r0, ip, asr r2
    233c:	00000264 	andeq	r0, r0, r4, ror #4
    2340:	14030005 	strne	r0, [r3], #-5
    2344:	c800009f 	stmdagt	r0, {r0, r1, r2, r3, r4, r7}
    2348:	d8000002 	stmdale	r0, {r1}
    234c:	01000002 	tsteq	r0, r2
    2350:	02d85200 	sbcseq	r5, r8, #0, 4
    2354:	02e30000 	rsceq	r0, r3, #0, 0
    2358:	00050000 	andeq	r0, r5, r0
    235c:	009f1403 	addseq	r1, pc, r3, lsl #8
	...
    2368:	4c000400 	cfstrsmi	mvf0, [r0], {-0}
    236c:	50000002 	andpl	r0, r0, r2
    2370:	01000002 	tsteq	r0, r2
    2374:	00005100 	andeq	r5, r0, r0, lsl #2
    2378:	00000000 	andeq	r0, r0, r0
    237c:	00030000 	andeq	r0, r3, r0
    2380:	00000264 	andeq	r0, r0, r4, ror #4
    2384:	00000268 	andeq	r0, r0, r8, ror #4
    2388:	00510001 	subseq	r0, r1, r1
    238c:	00000000 	andeq	r0, r0, r0
    2390:	03000000 	movweq	r0, #0
    2394:	00026400 	andeq	r6, r2, r0, lsl #8
    2398:	00026800 	andeq	r6, r2, r0, lsl #16
    239c:	53000100 	movwpl	r0, #256	; 0x100
	...
    23b0:	000001bc 			; <UNDEFINED> instruction: 0x000001bc
    23b4:	000001d3 	ldrdeq	r0, [r0], -r3
    23b8:	d3500001 	cmple	r0, #1, 0
    23bc:	f0000001 			; <UNDEFINED> instruction: 0xf0000001
    23c0:	01000001 	tsteq	r0, r1
    23c4:	01f05400 	mvnseq	r5, r0, lsl #8
    23c8:	02080000 	andeq	r0, r8, #0, 0
    23cc:	00010000 	andeq	r0, r1, r0
    23d0:	00020850 	andeq	r0, r2, r0, asr r8
    23d4:	00022000 	andeq	r2, r2, r0
    23d8:	54000100 	strpl	r0, [r0], #-256	; 0xffffff00
	...
    23e8:	000001d8 	ldrdeq	r0, [r0], -r8
    23ec:	000001e3 	andeq	r0, r0, r3, ror #3
    23f0:	e3500001 	cmp	r0, #1, 0
    23f4:	f0000001 			; <UNDEFINED> instruction: 0xf0000001
    23f8:	01000001 	tsteq	r0, r1
    23fc:	00005500 	andeq	r5, r0, r0, lsl #10
	...
    2414:	01240000 			; <UNDEFINED> instruction: 0x01240000
    2418:	01380000 	teqeq	r8, r0
    241c:	00010000 	andeq	r0, r1, r0
    2420:	00013850 	andeq	r3, r1, r0, asr r8
    2424:	00013c00 	andeq	r3, r1, r0, lsl #24
    2428:	70000300 	andvc	r0, r0, r0, lsl #6
    242c:	013c9f79 	teqeq	ip, r9, ror pc
    2430:	01600000 	cmneq	r0, r0
    2434:	00010000 	andeq	r0, r1, r0
    2438:	00016053 	andeq	r6, r1, r3, asr r0
    243c:	00017800 	andeq	r7, r1, r0, lsl #16
    2440:	50000100 	andpl	r0, r0, r0, lsl #2
    2444:	00000178 	andeq	r0, r0, r8, ror r1
    2448:	00000180 	andeq	r0, r0, r0, lsl #3
    244c:	01f30004 	mvnseq	r0, r4
    2450:	01809f50 	orreq	r9, r0, r0, asr pc
    2454:	01900000 	orrseq	r0, r0, r0
    2458:	00010000 	andeq	r0, r1, r0
    245c:	00019053 	andeq	r9, r1, r3, asr r0
    2460:	00019f00 	andeq	r9, r1, r0, lsl #30
    2464:	91000200 	mrsls	r0, R8_usr
    2468:	00019f68 	andeq	r9, r1, r8, ror #30
    246c:	0001bc00 	andeq	fp, r1, r0, lsl #24
    2470:	f3000900 	vmls.i8	d0, d0, d0
    2474:	07235001 	streq	r5, [r3, -r1]!
    2478:	9f1af809 	svcls	0x001af809
	...
    2488:	01440000 	mrseq	r0, (UNDEF: 68)
    248c:	01600000 	cmneq	r0, r0
    2490:	00010000 	andeq	r0, r1, r0
    2494:	00018050 	andeq	r8, r1, r0, asr r0
    2498:	00019c00 	andeq	r9, r1, r0, lsl #24
    249c:	50000100 	andpl	r0, r0, r0, lsl #2
    24a0:	0000019c 	muleq	r0, ip, r1
    24a4:	0000019f 	muleq	r0, pc, r1	; <UNPREDICTABLE>
    24a8:	14030005 	strne	r0, [r3], #-5
    24ac:	0000009f 	muleq	r0, pc, r0	; <UNPREDICTABLE>
    24b0:	00000000 	andeq	r0, r0, r0
    24b4:	03000000 	movweq	r0, #0
    24b8:	00013400 	andeq	r3, r1, r0, lsl #8
    24bc:	00013c00 	andeq	r3, r1, r0, lsl #24
    24c0:	38000200 	stmdacc	r0, {r9}
    24c4:	0000009f 	muleq	r0, pc, r0	; <UNPREDICTABLE>
    24c8:	00000000 	andeq	r0, r0, r0
    24cc:	00000300 	andeq	r0, r0, r0, lsl #6
    24d0:	00013400 	andeq	r3, r1, r0, lsl #8
    24d4:	00013800 	andeq	r3, r1, r0, lsl #16
    24d8:	50000100 	andpl	r0, r0, r0, lsl #2
    24dc:	00000138 	andeq	r0, r0, r8, lsr r1
    24e0:	0000013c 	andeq	r0, r0, ip, lsr r1
    24e4:	79700003 	ldmdbvc	r0!, {r0, r1}^
    24e8:	0000009f 	muleq	r0, pc, r0	; <UNPREDICTABLE>
	...
    24fc:	30000000 	andcc	r0, r0, r0
    2500:	60000000 	andvs	r0, r0, r0
    2504:	01000000 	mrseq	r0, (UNDEF: 0)
    2508:	00605000 	rsbeq	r5, r0, r0
    250c:	006c0000 	rsbeq	r0, ip, r0
    2510:	00050000 	andeq	r0, r5, r0
    2514:	009f1403 	addseq	r1, pc, r3, lsl #8
    2518:	00006c00 	andeq	r6, r0, r0, lsl #24
    251c:	00008400 	andeq	r8, r0, r0, lsl #8
    2520:	50000100 	andpl	r0, r0, r0, lsl #2
    2524:	00000084 	andeq	r0, r0, r4, lsl #1
    2528:	0000008c 	andeq	r0, r0, ip, lsl #1
    252c:	01f30004 	mvnseq	r0, r4
    2530:	008c9f50 	addeq	r9, ip, r0, asr pc
    2534:	00ac0000 	adceq	r0, ip, r0
    2538:	00010000 	andeq	r0, r1, r0
    253c:	0000ac50 	andeq	sl, r0, r0, asr ip
    2540:	0000af00 	andeq	sl, r0, r0, lsl #30
    2544:	91000200 	mrsls	r0, R8_usr
    2548:	0000af68 	andeq	sl, r0, r8, ror #30
    254c:	0000cc00 	andeq	ip, r0, r0, lsl #24
    2550:	f3000400 	vshl.u8	d0, d0, d0
    2554:	009f5001 	addseq	r5, pc, r1
	...
    2564:	30000000 	andcc	r0, r0, r0
    2568:	80000000 	andhi	r0, r0, r0
    256c:	01000000 	mrseq	r0, (UNDEF: 0)
    2570:	00805100 	addeq	r5, r0, r0, lsl #2
    2574:	008c0000 	addeq	r0, ip, r0
    2578:	00040000 	andeq	r0, r4, r0
    257c:	9f5101f3 	svcls	0x005101f3
    2580:	0000008c 	andeq	r0, r0, ip, lsl #1
    2584:	000000a8 	andeq	r0, r0, r8, lsr #1
    2588:	a8510001 	ldmdage	r1, {r0}^
    258c:	cc000000 	stcgt	0, cr0, [r0], {-0}
    2590:	04000000 	streq	r0, [r0], #-0
    2594:	5101f300 	mrspl	pc, SP_irq	; <UNPREDICTABLE>
    2598:	0000009f 	muleq	r0, pc, r0	; <UNPREDICTABLE>
    259c:	00000000 	andeq	r0, r0, r0
    25a0:	00000100 	andeq	r0, r0, r0, lsl #2
	...
    25ac:	38000000 	stmdacc	r0, {}	; <UNPREDICTABLE>
    25b0:	60000000 	andvs	r0, r0, r0
    25b4:	01000000 	mrseq	r0, (UNDEF: 0)
    25b8:	00605000 	rsbeq	r5, r0, r0
    25bc:	006c0000 	rsbeq	r0, ip, r0
    25c0:	00050000 	andeq	r0, r5, r0
    25c4:	009f1403 	addseq	r1, pc, r3, lsl #8
    25c8:	00006c00 	andeq	r6, r0, r0, lsl #24
    25cc:	00008400 	andeq	r8, r0, r0, lsl #8
    25d0:	50000100 	andpl	r0, r0, r0, lsl #2
    25d4:	00000084 	andeq	r0, r0, r4, lsl #1
    25d8:	0000008c 	andeq	r0, r0, ip, lsl #1
    25dc:	01f30004 	mvnseq	r0, r4
    25e0:	008c9f50 	addeq	r9, ip, r0, asr pc
    25e4:	00ac0000 	adceq	r0, ip, r0
    25e8:	00010000 	andeq	r0, r1, r0
    25ec:	0000ac50 	andeq	sl, r0, r0, asr ip
    25f0:	0000af00 	andeq	sl, r0, r0, lsl #30
    25f4:	91000200 	mrsls	r0, R8_usr
    25f8:	0000af68 	andeq	sl, r0, r8, ror #30
    25fc:	0000cc00 	andeq	ip, r0, r0, lsl #24
    2600:	f3000400 	vshl.u8	d0, d0, d0
    2604:	009f5001 	addseq	r5, pc, r1
	...
    2614:	1c000000 	stcne	0, cr0, [r0], {-0}
    2618:	01000000 	mrseq	r0, (UNDEF: 0)
    261c:	001c5100 	andseq	r5, ip, r0, lsl #2
    2620:	00340000 	eorseq	r0, r4, r0
    2624:	00040000 	andeq	r0, r4, r0
    2628:	9f5101f3 	svcls	0x005101f3
	...
    2634:	00000002 	andeq	r0, r0, r2
    2638:	00010100 	andeq	r0, r1, r0, lsl #2
    263c:	00000000 	andeq	r0, r0, r0
    2640:	00040000 	andeq	r0, r4, r0
    2644:	00010000 	andeq	r0, r1, r0
    2648:	00000450 	andeq	r0, r0, r0, asr r4
    264c:	00001c00 	andeq	r1, r0, r0, lsl #24
    2650:	52000100 	andpl	r0, r0, #0
    2654:	0000001c 	andeq	r0, r0, ip, lsl r0
    2658:	00000024 	andeq	r0, r0, r4, lsr #32
    265c:	24530001 	ldrbcs	r0, [r3], #-1
    2660:	28000000 	stmdacs	r0, {}	; <UNPREDICTABLE>
    2664:	03000000 	movweq	r0, #0
    2668:	9f017300 	svcls	0x00017300
    266c:	00000028 	andeq	r0, r0, r8, lsr #32
    2670:	00000034 	andeq	r0, r0, r4, lsr r0
    2674:	00530001 	subseq	r0, r3, r1
    2678:	00000000 	andeq	r0, r0, r0
    267c:	03000000 	movweq	r0, #0
    2680:	00000000 	andeq	r0, r0, r0
    2684:	24000000 	strcs	r0, [r0], #-0
    2688:	01000000 	mrseq	r0, (UNDEF: 0)
    268c:	00245100 	eoreq	r5, r4, r0, lsl #2
    2690:	00340000 	eorseq	r0, r4, r0
    2694:	00030000 	andeq	r0, r3, r0
    2698:	009f7f71 	addseq	r7, pc, r1, ror pc	; <UNPREDICTABLE>
	...
    26a4:	10000000 	andne	r0, r0, r0
    26a8:	1c000000 	stcne	0, cr0, [r0], {-0}
    26ac:	01000000 	mrseq	r0, (UNDEF: 0)
    26b0:	00245c00 	eoreq	r5, r4, r0, lsl #24
    26b4:	00340000 	eorseq	r0, r4, r0
    26b8:	00010000 	andeq	r0, r1, r0
    26bc:	00000052 	andeq	r0, r0, r2, asr r0
	...
    26cc:	00001800 	andeq	r1, r0, r0, lsl #16
    26d0:	50000100 	andpl	r0, r0, r0, lsl #2
    26d4:	00000018 	andeq	r0, r0, r8, lsl r0
    26d8:	00000024 	andeq	r0, r0, r4, lsr #32
    26dc:	00500001 	subseq	r0, r0, r1
	...
    26ec:	1c000000 	stcne	0, cr0, [r0], {-0}
    26f0:	01000000 	mrseq	r0, (UNDEF: 0)
    26f4:	001c5100 	andseq	r5, ip, r0, lsl #2
    26f8:	002c0000 	eoreq	r0, ip, r0
    26fc:	00010000 	andeq	r0, r1, r0
    2700:	00000051 	andeq	r0, r0, r1, asr r0
	...
    2710:	04000000 	streq	r0, [r0], #-0
    2714:	01000000 	mrseq	r0, (UNDEF: 0)
    2718:	00045100 	andeq	r5, r4, r0, lsl #2
    271c:	000c0000 	andeq	r0, ip, r0
    2720:	00010000 	andeq	r0, r1, r0
    2724:	00000c51 	andeq	r0, r0, r1, asr ip
    2728:	00002000 	andeq	r2, r0, r0
    272c:	71000300 	mrsvc	r0, LR_irq
    2730:	00009f7f 	andeq	r9, r0, pc, ror pc
    2734:	00000000 	andeq	r0, r0, r0
    2738:	00020000 	andeq	r0, r2, r0
	...
    2744:	00000004 	andeq	r0, r0, r4
    2748:	04500001 	ldrbeq	r0, [r0], #-1
    274c:	14000000 	strne	r0, [r0], #-0
    2750:	01000000 	mrseq	r0, (UNDEF: 0)
    2754:	00145c00 	andseq	r5, r4, r0, lsl #24
    2758:	00200000 	eoreq	r0, r0, r0
    275c:	00030000 	andeq	r0, r3, r0
    2760:	009f7f7c 	addseq	r7, pc, ip, ror pc	; <UNPREDICTABLE>
	...
    276c:	58000303 	stmdapl	r0, {r0, r1, r8, r9}
    2770:	58000098 	stmdapl	r0, {r3, r4, r7}
    2774:	01000098 	swpeq	r0, r8, [r0]	; <UNPREDICTABLE>
    2778:	98585000 	ldmdals	r8, {ip, lr}^
    277c:	98840000 	stmls	r4, {}	; <UNPREDICTABLE>
    2780:	00040000 	andeq	r0, r4, r0
    2784:	9f5001f3 	svcls	0x005001f3
	...
    2790:	00030300 	andeq	r0, r3, r0, lsl #6
    2794:	00009858 	andeq	r9, r0, r8, asr r8
    2798:	00009858 	andeq	r9, r0, r8, asr r8
    279c:	58510001 	ldmdapl	r1, {r0}^
    27a0:	84000098 	strhi	r0, [r0], #-152	; 0xffffff68
    27a4:	04000098 	streq	r0, [r0], #-152	; 0xffffff68
    27a8:	5101f300 	mrspl	pc, SP_irq	; <UNPREDICTABLE>
    27ac:	0000009f 	muleq	r0, pc, r0	; <UNPREDICTABLE>
    27b0:	00000000 	andeq	r0, r0, r0
    27b4:	03030000 	movweq	r0, #12288	; 0x3000
    27b8:	58000000 	stmdapl	r0, {}	; <UNPREDICTABLE>
    27bc:	58000098 	stmdapl	r0, {r3, r4, r7}
    27c0:	01000098 	swpeq	r0, r8, [r0]	; <UNPREDICTABLE>
    27c4:	98585200 	ldmdals	r8, {r9, ip, lr}^
    27c8:	98600000 	stmdals	r0!, {}^	; <UNPREDICTABLE>
    27cc:	00010000 	andeq	r0, r1, r0
    27d0:	00986052 	addseq	r6, r8, r2, asr r0
    27d4:	00988400 	addseq	r8, r8, r0, lsl #8
    27d8:	72000300 	andvc	r0, r0, #0, 6
    27dc:	00009f01 	andeq	r9, r0, r1, lsl #30
    27e0:	00000000 	andeq	r0, r0, r0
    27e4:	01020000 	mrseq	r0, (UNDEF: 2)
    27e8:	00000001 	andeq	r0, r0, r1
    27ec:	98580000 	ldmdals	r8, {}^	; <UNPREDICTABLE>
    27f0:	98640000 	stmdals	r4!, {}^	; <UNPREDICTABLE>
    27f4:	00010000 	andeq	r0, r1, r0
    27f8:	00986450 	addseq	r6, r8, r0, asr r4
    27fc:	00986800 	addseq	r6, r8, r0, lsl #16
    2800:	70000300 	andvc	r0, r0, r0, lsl #6
    2804:	98689f01 	stmdals	r8!, {r0, r8, r9, sl, fp, ip, pc}^
    2808:	98780000 	ldmdals	r8!, {}^	; <UNPREDICTABLE>
    280c:	00010000 	andeq	r0, r1, r0
    2810:	00987c50 	addseq	r7, r8, r0, asr ip
    2814:	00988000 	addseq	r8, r8, r0
    2818:	50000100 	andpl	r0, r0, r0, lsl #2
	...
    2824:	00000002 	andeq	r0, r0, r2
    2828:	98580000 	ldmdals	r8, {}^	; <UNPREDICTABLE>
    282c:	98680000 	stmdals	r8!, {}^	; <UNPREDICTABLE>
    2830:	00010000 	andeq	r0, r1, r0
    2834:	00986851 	addseq	r6, r8, r1, asr r8
    2838:	00986c00 	addseq	r6, r8, r0, lsl #24
    283c:	71000300 	mrsvc	r0, LR_irq
    2840:	986c9f01 	stmdals	ip!, {r0, r8, r9, sl, fp, ip, pc}^
    2844:	98840000 	stmls	r4, {}	; <UNPREDICTABLE>
    2848:	00010000 	andeq	r0, r1, r0
    284c:	00000051 	andeq	r0, r0, r1, asr r0
    2850:	00000000 	andeq	r0, r0, r0
	...

Disassembly of section .debug_aranges:

00000000 <.debug_aranges>:
   0:	0000001c 	andeq	r0, r0, ip, lsl r0
   4:	00000002 	andeq	r0, r0, r2
   8:	00040000 	andeq	r0, r4, r0
   c:	00000000 	andeq	r0, r0, r0
  10:	00008040 	andeq	r8, r0, r0, asr #32
  14:	00000628 	andeq	r0, r0, r8, lsr #12
	...
  20:	0000001c 	andeq	r0, r0, ip, lsl r0
  24:	1eb20002 	cdpne	0, 11, cr0, cr2, cr2, {0}
  28:	00040000 	andeq	r0, r4, r0
  2c:	00000000 	andeq	r0, r0, r0
  30:	00008668 	andeq	r8, r0, r8, ror #12
  34:	000000ec 	andeq	r0, r0, ip, ror #1
	...
  40:	0000001c 	andeq	r0, r0, ip, lsl r0
  44:	25390002 	ldrcs	r0, [r9, #-2]!
  48:	00040000 	andeq	r0, r4, r0
  4c:	00000000 	andeq	r0, r0, r0
  50:	00008754 	andeq	r8, r0, r4, asr r7
  54:	00000018 	andeq	r0, r0, r8, lsl r0
	...
  60:	0000001c 	andeq	r0, r0, ip, lsl r0
  64:	26770002 	ldrbtcs	r0, [r7], -r2
  68:	00040000 	andeq	r0, r4, r0
  6c:	00000000 	andeq	r0, r0, r0
  70:	0000876c 	andeq	r8, r0, ip, ror #14
  74:	00000058 	andeq	r0, r0, r8, asr r0
	...
  80:	0000001c 	andeq	r0, r0, ip, lsl r0
  84:	28180002 	ldmdacs	r8, {r1}
  88:	00040000 	andeq	r0, r4, r0
  8c:	00000000 	andeq	r0, r0, r0
  90:	000087c4 	andeq	r8, r0, r4, asr #15
  94:	0000003c 	andeq	r0, r0, ip, lsr r0
	...
  a0:	0000001c 	andeq	r0, r0, ip, lsl r0
  a4:	29650002 	stmdbcs	r5!, {r1}^
  a8:	00040000 	andeq	r0, r4, r0
  ac:	00000000 	andeq	r0, r0, r0
  b0:	00008800 	andeq	r8, r0, r0, lsl #16
  b4:	00000034 	andeq	r0, r0, r4, lsr r0
	...
  c0:	0000001c 	andeq	r0, r0, ip, lsl r0
  c4:	2a5c0002 	bcs	17000d4 <__bss_end__+0x16f5db4>
  c8:	00040000 	andeq	r0, r4, r0
  cc:	00000000 	andeq	r0, r0, r0
  d0:	00008834 	andeq	r8, r0, r4, lsr r8
  d4:	00000740 	andeq	r0, r0, r0, asr #14
	...
  e0:	0000001c 	andeq	r0, r0, ip, lsl r0
  e4:	35370002 	ldrcc	r0, [r7, #-2]!
  e8:	00040000 	andeq	r0, r4, r0
  ec:	00000000 	andeq	r0, r0, r0
  f0:	00008f74 	andeq	r8, r0, r4, ror pc
  f4:	00000020 	andeq	r0, r0, r0, lsr #32
	...
 100:	0000001c 	andeq	r0, r0, ip, lsl r0
 104:	36450002 	strbcc	r0, [r5], -r2
 108:	00040000 	andeq	r0, r4, r0
 10c:	00000000 	andeq	r0, r0, r0
 110:	00008f94 	muleq	r0, r4, pc	; <UNPREDICTABLE>
 114:	0000002c 	andeq	r0, r0, ip, lsr #32
	...
 120:	0000001c 	andeq	r0, r0, ip, lsl r0
 124:	37780002 	ldrbcc	r0, [r8, -r2]!
 128:	00040000 	andeq	r0, r4, r0
 12c:	00000000 	andeq	r0, r0, r0
 130:	00008fc0 	andeq	r8, r0, r0, asr #31
 134:	0000003c 	andeq	r0, r0, ip, lsr r0
	...
 140:	0000001c 	andeq	r0, r0, ip, lsl r0
 144:	39050002 	stmdbcc	r5, {r1}
 148:	00040000 	andeq	r0, r4, r0
 14c:	00000000 	andeq	r0, r0, r0
 150:	00008ffc 	strdeq	r8, [r0], -ip
 154:	00000004 	andeq	r0, r0, r4
	...
 160:	0000001c 	andeq	r0, r0, ip, lsl r0
 164:	39d70002 	ldmibcc	r7, {r1}^
 168:	00040000 	andeq	r0, r4, r0
 16c:	00000000 	andeq	r0, r0, r0
 170:	00009018 	andeq	r9, r0, r8, lsl r0
 174:	00000080 	andeq	r0, r0, r0, lsl #1
	...
 180:	0000001c 	andeq	r0, r0, ip, lsl r0
 184:	3c110002 	ldccc	0, cr0, [r1], {2}
 188:	00040000 	andeq	r0, r4, r0
 18c:	00000000 	andeq	r0, r0, r0
 190:	00009098 	muleq	r0, r8, r0
 194:	00000084 	andeq	r0, r0, r4, lsl #1
	...
 1a0:	0000001c 	andeq	r0, r0, ip, lsl r0
 1a4:	3e620002 	cdpcc	0, 6, cr0, cr2, cr2, {0}
 1a8:	00040000 	andeq	r0, r4, r0
 1ac:	00000000 	andeq	r0, r0, r0
 1b0:	0000911c 	andeq	r9, r0, ip, lsl r1
 1b4:	0000011c 	andeq	r0, r0, ip, lsl r1
	...
 1c0:	0000001c 	andeq	r0, r0, ip, lsl r0
 1c4:	420b0002 	andmi	r0, fp, #2, 0
 1c8:	00040000 	andeq	r0, r4, r0
 1cc:	00000000 	andeq	r0, r0, r0
 1d0:	00009238 	andeq	r9, r0, r8, lsr r2
 1d4:	000001f0 	strdeq	r0, [r0], -r0	; <UNPREDICTABLE>
	...
 1e0:	0000001c 	andeq	r0, r0, ip, lsl r0
 1e4:	47dc0002 	ldrbmi	r0, [ip, r2]
 1e8:	00040000 	andeq	r0, r4, r0
 1ec:	00000000 	andeq	r0, r0, r0
 1f0:	00009428 	andeq	r9, r0, r8, lsr #8
 1f4:	000003b0 			; <UNDEFINED> instruction: 0x000003b0
	...
 200:	0000001c 	andeq	r0, r0, ip, lsl r0
 204:	50c90002 	sbcpl	r0, r9, r2
 208:	00040000 	andeq	r0, r4, r0
 20c:	00000000 	andeq	r0, r0, r0
 210:	000097d8 	ldrdeq	r9, [r0], -r8
 214:	00000034 	andeq	r0, r0, r4, lsr r0
	...
 220:	0000001c 	andeq	r0, r0, ip, lsl r0
 224:	52040002 	andpl	r0, r4, #2, 0
 228:	00040000 	andeq	r0, r4, r0
 22c:	00000000 	andeq	r0, r0, r0
 230:	0000980c 	andeq	r9, r0, ip, lsl #16
 234:	0000002c 	andeq	r0, r0, ip, lsr #32
	...
 240:	0000001c 	andeq	r0, r0, ip, lsl r0
 244:	52ff0002 	rscspl	r0, pc, #2, 0
 248:	00040000 	andeq	r0, r4, r0
 24c:	00000000 	andeq	r0, r0, r0
 250:	00009838 	andeq	r9, r0, r8, lsr r8
 254:	00000020 	andeq	r0, r0, r0, lsr #32
	...
 260:	0000001c 	andeq	r0, r0, ip, lsl r0
 264:	54120002 	ldrpl	r0, [r2], #-2
 268:	00040000 	andeq	r0, r4, r0
 26c:	00000000 	andeq	r0, r0, r0
 270:	00009858 	andeq	r9, r0, r8, asr r8
 274:	0000002c 	andeq	r0, r0, ip, lsr #32
	...
 280:	0000001c 	andeq	r0, r0, ip, lsl r0
 284:	55640002 	strbpl	r0, [r4, #-2]!
 288:	00040000 	andeq	r0, r4, r0
 28c:	00000000 	andeq	r0, r0, r0
 290:	00009884 	andeq	r9, r0, r4, lsl #17
 294:	00000004 	andeq	r0, r0, r4
	...

Disassembly of section .debug_ranges:

00000000 <.debug_ranges>:
   0:	000002b0 			; <UNDEFINED> instruction: 0x000002b0
   4:	000002b4 			; <UNDEFINED> instruction: 0x000002b4
   8:	000002b8 			; <UNDEFINED> instruction: 0x000002b8
   c:	000002bc 			; <UNDEFINED> instruction: 0x000002bc
  10:	000002c0 	andeq	r0, r0, r0, asr #5
  14:	000002c4 	andeq	r0, r0, r4, asr #5
  18:	000002c8 	andeq	r0, r0, r8, asr #5
  1c:	000002cc 	andeq	r0, r0, ip, asr #5
	...
  28:	00000558 	andeq	r0, r0, r8, asr r5
  2c:	00000558 	andeq	r0, r0, r8, asr r5
  30:	00000558 	andeq	r0, r0, r8, asr r5
  34:	00000558 	andeq	r0, r0, r8, asr r5
  38:	00000558 	andeq	r0, r0, r8, asr r5
  3c:	00000570 	andeq	r0, r0, r0, ror r5
	...
  48:	00000050 	andeq	r0, r0, r0, asr r0
  4c:	00000050 	andeq	r0, r0, r0, asr r0
  50:	00000054 	andeq	r0, r0, r4, asr r0
  54:	00000058 	andeq	r0, r0, r8, asr r0
	...
  60:	000000a4 	andeq	r0, r0, r4, lsr #1
  64:	000000a8 	andeq	r0, r0, r8, lsr #1
  68:	000000ac 	andeq	r0, r0, ip, lsr #1
  6c:	000000b4 	strheq	r0, [r0], -r4
	...
  78:	000000b4 	strheq	r0, [r0], -r4
  7c:	000000b4 	strheq	r0, [r0], -r4
  80:	000000b4 	strheq	r0, [r0], -r4
  84:	000000b8 	strheq	r0, [r0], -r8
	...
  90:	00008f74 	andeq	r8, r0, r4, ror pc
  94:	00008f94 	muleq	r0, r4, pc	; <UNPREDICTABLE>
	...
  a0:	00009018 	andeq	r9, r0, r8, lsl r0
  a4:	00009098 	muleq	r0, r8, r0
	...
  b0:	00000134 	andeq	r0, r0, r4, lsr r1
  b4:	00000134 	andeq	r0, r0, r4, lsr r1
  b8:	00000134 	andeq	r0, r0, r4, lsr r1
  bc:	0000013c 	andeq	r0, r0, ip, lsr r1
	...
  c8:	0000024c 	andeq	r0, r0, ip, asr #4
  cc:	00000264 	andeq	r0, r0, r4, ror #4
  d0:	000002c8 	andeq	r0, r0, r8, asr #5
  d4:	000002e8 	andeq	r0, r0, r8, ror #5
	...
  e0:	00009858 	andeq	r9, r0, r8, asr r8
  e4:	00009884 	andeq	r9, r0, r4, lsl #17
	...

Disassembly of section .debug_line:

00000000 <.debug_line>:
       0:	000014fa 	strdeq	r1, [r0], -sl
       4:	00960003 	addseq	r0, r6, r3
       8:	01020000 	mrseq	r0, (UNDEF: 2)
       c:	000d0efb 	strdeq	r0, [sp], -fp
      10:	01010101 	tsteq	r1, r1, lsl #2
      14:	01000000 	mrseq	r0, (UNDEF: 0)
      18:	2f010000 	svccs	0x00010000
      1c:	72657355 	rsbvc	r7, r5, #1409286145	; 0x54000001
      20:	72652f73 	rsbvc	r2, r5, #460	; 0x1cc
      24:	65626369 	strbvs	r6, [r2, #-873]!	; 0xfffffc97
      28:	442f7261 	strtmi	r7, [pc], #-609	; 30 <__code_start__-0x7fd0>
      2c:	6d75636f 	ldclvs	3, cr6, [r5, #-444]!	; 0xfffffe44
      30:	73746e65 	cmnvc	r4, #1616	; 0x650
      34:	3153432f 	cmpcc	r3, pc, lsr #6
      38:	2f453034 	svccs	0x00453034
      3c:	34317363 	ldrtcc	r7, [r1], #-867	; 0xfffffc9d
      40:	662d4530 			; <UNDEFINED> instruction: 0x662d4530
      44:	6c616e69 	stclvs	14, cr6, [r1], #-420	; 0xfffffe5c
      48:	6f72702d 	svcvs	0x0072702d
      4c:	7463656a 	strbtvc	r6, [r3], #-1386	; 0xfffffa96
      50:	62696c2f 	rsbvs	r6, r9, #12032	; 0x2f00
      54:	34322d73 	ldrtcc	r2, [r2], #-3443	; 0xfffff28d
      58:	2f786c30 	svccs	0x00786c30
      5c:	7062696c 	rsbvc	r6, r2, ip, ror #18
      60:	6e692f69 	cdpvs	15, 6, cr2, cr9, cr9, {3}
      64:	64756c63 	ldrbtvs	r6, [r5], #-3171	; 0xfffff39d
      68:	57000065 	strpl	r0, [r0, -r5, rrx]
      6c:	31383253 	teqcc	r8, r3, asr r2
      70:	682e4232 	stmdavs	lr!, {r1, r4, r5, r9, lr}
      74:	00000000 	andeq	r0, r0, r0
      78:	69742d30 	ldmdbvs	r4!, {r4, r5, r8, sl, fp, sp}^
      7c:	676e696d 	strbvs	r6, [lr, -sp, ror #18]!
      80:	6568632d 	strbvs	r6, [r8, #-813]!	; 0xfffffcd3
      84:	632e6b63 			; <UNDEFINED> instruction: 0x632e6b63
      88:	00000000 	andeq	r0, r0, r0
      8c:	2e697072 	mcrcs	0, 3, r7, cr9, cr2, {3}
      90:	00010068 	andeq	r0, r1, r8, rrx
      94:	69706700 	ldmdbvs	r0!, {r8, r9, sl, sp, lr}^
      98:	00682e6f 	rsbeq	r2, r8, pc, ror #28
      9c:	00000001 	andeq	r0, r0, r1
      a0:	05002905 	streq	r2, [r0, #-2309]	; 0xfffff6fb
      a4:	00804002 	addeq	r4, r0, r2
      a8:	01bd0300 			; <UNDEFINED> instruction: 0x01bd0300
      ac:	13050501 	movwne	r0, #21761	; 0x5501
      b0:	06290501 	strteq	r0, [r9], -r1, lsl #10
      b4:	2f05052d 	svccs	0x0005052d
      b8:	052e0666 	streq	r0, [lr, #-1638]!	; 0xfffff99a
      bc:	05057d26 	streq	r7, [r5, #-3366]	; 0xfffff2da
      c0:	26050113 			; <UNDEFINED> instruction: 0x26050113
      c4:	05052d06 	streq	r2, [r5, #-3334]	; 0xfffff2fa
      c8:	2e06662f 	cfmadd32cs	mvax1, mvfx6, mvfx6, mvfx15
      cc:	057d2605 	ldrbeq	r2, [sp, #-1541]!	; 0xfffff9fb
      d0:	05011305 	streq	r1, [r1, #-773]	; 0xfffffcfb
      d4:	052d0626 	streq	r0, [sp, #-1574]!	; 0xfffff9da
      d8:	06662f05 	strbteq	r2, [r6], -r5, lsl #30
      dc:	7d26052e 	cfstr32vc	mvfx0, [r6, #-184]!	; 0xffffff48
      e0:	01130505 	tsteq	r3, r5, lsl #10
      e4:	2d062605 	stccs	6, cr2, [r6, #-20]	; 0xffffffec
      e8:	662f0505 	strtvs	r0, [pc], -r5, lsl #10
      ec:	26052e06 	strcs	r2, [r5], -r6, lsl #28
      f0:	05827a03 	streq	r7, [r2, #2563]	; 0xa03
      f4:	05011305 	streq	r1, [r1, #-773]	; 0xfffffcfb
      f8:	052d0626 	streq	r0, [sp, #-1574]!	; 0xfffff9da
      fc:	06662f05 	strbteq	r2, [r6], -r5, lsl #30
     100:	0502042e 	streq	r0, [r2, #-1070]	; 0xfffffbd2
     104:	82710329 	rsbshi	r0, r1, #-1543503872	; 0xa4000000
     108:	05130505 	ldreq	r0, [r3, #-1285]	; 0xfffffafb
     10c:	05110629 	ldreq	r0, [r1, #-1577]	; 0xfffff9d7
     110:	054a6705 	strbeq	r6, [sl, #-1797]	; 0xfffff8fb
     114:	05310602 	ldreq	r0, [r1, #-1538]!	; 0xfffff9fe
     118:	2e01010f 	adfcss	f0, f1, #10.0
     11c:	02050106 	andeq	r0, r5, #-2147483647	; 0x80000001
     120:	0f051306 	svceq	0x00051306
     124:	062e0101 	strteq	r0, [lr], -r1, lsl #2
     128:	06050501 	streq	r0, [r5], -r1, lsl #10
     12c:	060e0513 			; <UNDEFINED> instruction: 0x060e0513
     130:	06050501 	streq	r0, [r5], -r1, lsl #10
     134:	6802052f 	stmdavs	r2, {r0, r1, r2, r3, r5, r8, sl}
     138:	01010605 	tsteq	r1, r5, lsl #12
     13c:	0501062e 	streq	r0, [r1, #-1582]	; 0xfffff9d2
     140:	04130609 	ldreq	r0, [r3], #-1545	; 0xfffff9f7
     144:	03140501 	tsteq	r4, #4194304	; 0x400000
     148:	0505015d 	streq	r0, [r5, #-349]	; 0xfffffea3
     14c:	39051313 	stmdbcc	r5, {r0, r1, r4, r8, r9, ip}
     150:	010b0501 	tsteq	fp, r1, lsl #10
     154:	01011205 	tsteq	r1, r5, lsl #4
     158:	0501062e 	streq	r0, [r1, #-1582]	; 0xfffff9d2
     15c:	0b050124 	bleq	1405f4 <__bss_end__+0x1362d4>
     160:	02044a2e 	andeq	r4, r4, #188416	; 0x2e000
     164:	03060205 	movweq	r0, #25093	; 0x6205
     168:	06050122 	streq	r0, [r5], -r2, lsr #2
     16c:	062e0101 	strteq	r0, [lr], -r1, lsl #2
     170:	06050501 	streq	r0, [r5], -r1, lsl #10
     174:	0e051314 	mcreq	3, 0, r1, cr5, cr4, {0}
     178:	2d2f0106 	stfcss	f0, [pc, #-24]!	; 168 <__code_start__-0x7e98>
     17c:	2f060505 	svccs	0x00060505
     180:	06070513 			; <UNDEFINED> instruction: 0x06070513
     184:	06090501 	streq	r0, [r9], -r1, lsl #10
     188:	1505054b 	strne	r0, [r5, #-1355]	; 0xfffffab5
     18c:	4c060105 	stfmis	f0, [r6], {5}
     190:	05480505 	strbeq	r0, [r8, #-1285]	; 0xfffffafb
     194:	012b0609 			; <UNDEFINED> instruction: 0x012b0609
     198:	2e2e6606 	cfmadda32cs	mvax0, mvax6, mvfx14, mvfx6
     19c:	44054a06 	strmi	r4, [r5], #-2566	; 0xfffff5fa
     1a0:	d67ef603 	ldrbtle	pc, [lr], -r3, lsl #12	; <UNPREDICTABLE>
     1a4:	05140505 	ldreq	r0, [r4, #-1285]	; 0xfffffafb
     1a8:	05100644 	ldreq	r0, [r0, #-1604]	; 0xfffff9bc
     1ac:	02056805 	andeq	r6, r5, #327680	; 0x50000
     1b0:	0f052f06 	svceq	0x00052f06
     1b4:	062e0101 	strteq	r0, [lr], -r1, lsl #2
     1b8:	06020501 	streq	r0, [r2], -r1, lsl #10
     1bc:	010f0513 	tsteq	pc, r3, lsl r5	; <UNPREDICTABLE>
     1c0:	01062e01 	tsteq	r6, r1, lsl #28
     1c4:	13060205 	movwne	r0, #25093	; 0x6205
     1c8:	01060b05 	tsteq	r6, r5, lsl #22
     1cc:	2f060205 	svccs	0x00060205
     1d0:	04020001 	streq	r0, [r2], #-1
     1d4:	02009e02 	andeq	r9, r0, #2, 28
     1d8:	05140204 	ldreq	r0, [r4, #-516]	; 0xfffffdfc
     1dc:	04020005 	streq	r0, [r2], #-5
     1e0:	02052f02 	andeq	r2, r5, #2, 30
     1e4:	02040200 	andeq	r0, r4, #0, 4
     1e8:	0006052f 	andeq	r0, r6, pc, lsr #10
     1ec:	01020402 	tsteq	r2, r2, lsl #8
     1f0:	02040200 	andeq	r0, r4, #0, 4
     1f4:	04020001 	streq	r0, [r2], #-1
     1f8:	02002e02 	andeq	r2, r0, #2, 28
     1fc:	01060204 	tsteq	r6, r4, lsl #4
     200:	02000305 	andeq	r0, r0, #335544320	; 0x14000000
     204:	13060204 	movwne	r0, #25092	; 0x6204
     208:	02000205 	andeq	r0, r0, #1342177280	; 0x50000000
     20c:	054b0204 	strbeq	r0, [fp, #-516]	; 0xfffffdfc
     210:	04020006 	streq	r0, [r2], #-6
     214:	02000102 	andeq	r0, r0, #-2147483648	; 0x80000000
     218:	00010204 	andeq	r0, r1, r4, lsl #4
     21c:	2e020402 	cdpcs	4, 0, cr0, cr2, cr2, {0}
     220:	02040200 	andeq	r0, r4, #0, 4
     224:	02050106 	andeq	r0, r5, #-2147483647	; 0x80000001
     228:	02040200 	andeq	r0, r4, #0, 4
     22c:	0b051306 	bleq	144e4c <__bss_end__+0x13ab2c>
     230:	02040200 	andeq	r0, r4, #0, 4
     234:	02001306 	andeq	r1, r0, #402653184	; 0x18000000
     238:	052e0204 	streq	r0, [lr, #-516]!	; 0xfffffdfc
     23c:	04020002 	streq	r0, [r2], #-2
     240:	02002d02 	andeq	r2, r0, #128	; 0x80
     244:	2f060204 	svccs	0x00060204
     248:	02000505 	andeq	r0, r0, #20971520	; 0x1400000
     24c:	05170204 	ldreq	r0, [r7, #-516]	; 0xfffffdfc
     250:	04020002 	streq	r0, [r2], #-2
     254:	02001302 	andeq	r1, r0, #134217728	; 0x8000000
     258:	009f0204 	addseq	r0, pc, r4, lsl #4
     25c:	01020402 	tsteq	r2, r2, lsl #8
     260:	01040200 	mrseq	r0, R12_usr
     264:	02006606 	andeq	r6, r0, #6291456	; 0x600000
     268:	052e0104 	streq	r0, [lr, #-260]!	; 0xfffffefc
     26c:	03064b01 	movweq	r4, #27393	; 0x6b01
     270:	02054a6a 	andeq	r4, r5, #434176	; 0x6a000
     274:	01011503 	tsteq	r1, r3, lsl #10
     278:	9e064a06 	vmlals.f32	s8, s12, s12
     27c:	02002e06 	andeq	r2, r0, #96	; 0x60
     280:	03060104 	movweq	r0, #24836	; 0x6104
     284:	02000171 	andeq	r0, r0, #1073741852	; 0x4000001c
     288:	002e0104 	eoreq	r0, lr, r4, lsl #2
     28c:	d6010402 	strle	r0, [r1], -r2, lsl #8
     290:	d5033105 	strle	r3, [r3, #-261]	; 0xfffffefb
     294:	0505f200 	streq	pc, [r5, #-512]	; 0xfffffe00
     298:	06310513 			; <UNDEFINED> instruction: 0x06310513
     29c:	83050511 	movwhi	r0, #21777	; 0x5511
     2a0:	13060205 	movwne	r0, #25093	; 0x6205
     2a4:	01010f05 	tsteq	r1, r5, lsl #30
     2a8:	0501062e 	streq	r0, [r1, #-1582]	; 0xfffff9d2
     2ac:	05130602 	ldreq	r0, [r3, #-1538]	; 0xfffff9fe
     2b0:	2e01010f 	adfcss	f0, f1, #10.0
     2b4:	02050106 	andeq	r0, r5, #-2147483647	; 0x80000001
     2b8:	0b051306 	bleq	144ed8 <__bss_end__+0x13abb8>
     2bc:	02050106 	andeq	r0, r5, #-2147483647	; 0x80000001
     2c0:	2e062f06 	cdpcs	15, 0, cr2, cr6, cr6, {0}
     2c4:	0605052e 	streq	r0, [r5], -lr, lsr #10
     2c8:	0200012f 	andeq	r0, r0, #-1073741813	; 0xc000000b
     2cc:	00660104 	rsbeq	r0, r6, r4, lsl #2
     2d0:	01010402 	tsteq	r1, r2, lsl #8
     2d4:	02000605 	andeq	r0, r0, #5242880	; 0x500000
     2d8:	03060104 	movweq	r0, #24836	; 0x6104
     2dc:	02004a0c 	andeq	r4, r0, #12, 20	; 0xc000
     2e0:	9e060104 	adflss	f0, f6, f4
     2e4:	02000505 	andeq	r0, r0, #20971520	; 0x1400000
     2e8:	74030204 	strvc	r0, [r3], #-516	; 0xfffffdfc
     2ec:	0402002e 	streq	r0, [r2], #-46	; 0xffffffd2
     2f0:	02050102 	andeq	r0, r5, #-2147483648	; 0x80000000
     2f4:	02040200 	andeq	r0, r4, #0, 4
     2f8:	04020014 	streq	r0, [r2], #-20	; 0xffffffec
     2fc:	02000102 	andeq	r0, r0, #-2147483648	; 0x80000000
     300:	042e0204 	strteq	r0, [lr], #-516	; 0xfffffdfc
     304:	002b0501 	eoreq	r0, fp, r1, lsl #10
     308:	06020402 	streq	r0, [r2], -r2, lsl #8
     30c:	00017903 	andeq	r7, r1, r3, lsl #18
     310:	2e020402 	cdpcs	4, 0, cr0, cr2, cr2, {0}
     314:	02050204 	andeq	r0, r5, #4, 4	; 0x40000000
     318:	02040200 	andeq	r0, r4, #0, 4
     31c:	05010419 	streq	r0, [r1, #-1049]	; 0xfffffbe7
     320:	04020026 	streq	r0, [r2], #-38	; 0xffffffda
     324:	2e790302 	cdpcs	3, 7, cr0, cr9, cr2, {0}
     328:	02050204 	andeq	r0, r5, #4, 4	; 0x40000000
     32c:	02040200 	andeq	r0, r4, #0, 4
     330:	05010435 	streq	r0, [r1, #-1077]	; 0xfffffbcb
     334:	0402002b 	streq	r0, [r2], #-43	; 0xffffffd5
     338:	2e790302 	cdpcs	3, 7, cr0, cr9, cr2, {0}
     33c:	02050204 	andeq	r0, r5, #4, 4	; 0x40000000
     340:	02040200 	andeq	r0, r4, #0, 4
     344:	04020035 	streq	r0, [r2], #-53	; 0xffffffcb
     348:	042e0602 	strteq	r0, [lr], #-1538	; 0xfffff9fe
     34c:	00140501 	andseq	r0, r4, r1, lsl #10
     350:	03020402 	movweq	r0, #9218	; 0x2402
     354:	05050176 	streq	r0, [r5, #-374]	; 0xfffffe8a
     358:	02040200 	andeq	r0, r4, #0, 4
     35c:	00260515 	eoreq	r0, r6, r5, lsl r5
     360:	06020402 	streq	r0, [r2], -r2, lsl #8
     364:	04020001 	streq	r0, [r2], #-1
     368:	02042e02 	andeq	r2, r4, #2, 28
     36c:	02000205 	andeq	r0, r0, #1342177280	; 0x50000000
     370:	19060204 	stmdbne	r6, {r2, r9}
     374:	14050104 	strne	r0, [r5], #-260	; 0xfffffefc
     378:	02040200 	andeq	r0, r4, #0, 4
     37c:	05017603 	streq	r7, [r1, #-1539]	; 0xfffff9fd
     380:	04020005 	streq	r0, [r2], #-5
     384:	26051502 	strcs	r1, [r5], -r2, lsl #10
     388:	02040200 	andeq	r0, r4, #0, 4
     38c:	02000106 	andeq	r0, r0, #-2147483647	; 0x80000001
     390:	042e0204 	strteq	r0, [lr], #-516	; 0xfffffdfc
     394:	00020502 	andeq	r0, r2, r2, lsl #10
     398:	06020402 	streq	r0, [r2], -r2, lsl #8
     39c:	05010419 	streq	r0, [r1, #-1049]	; 0xfffffbe7
     3a0:	04020014 	streq	r0, [r2], #-20	; 0xffffffec
     3a4:	01760302 	cmneq	r6, r2, lsl #6
     3a8:	02000505 	andeq	r0, r0, #20971520	; 0x1400000
     3ac:	05150204 	ldreq	r0, [r5, #-516]	; 0xfffffdfc
     3b0:	04020026 	streq	r0, [r2], #-38	; 0xffffffda
     3b4:	00010602 	andeq	r0, r1, r2, lsl #12
     3b8:	2e020402 	cdpcs	4, 0, cr0, cr2, cr2, {0}
     3bc:	02050204 	andeq	r0, r5, #4, 4	; 0x40000000
     3c0:	02040200 	andeq	r0, r4, #0, 4
     3c4:	01041906 	tsteq	r4, r6, lsl #18
     3c8:	02001405 	andeq	r1, r0, #83886080	; 0x5000000
     3cc:	76030204 	strvc	r0, [r3], -r4, lsl #4
     3d0:	00050501 	andeq	r0, r5, r1, lsl #10
     3d4:	15020402 	strne	r0, [r2, #-1026]	; 0xfffffbfe
     3d8:	02002605 	andeq	r2, r0, #5242880	; 0x500000
     3dc:	01060204 	tsteq	r6, r4, lsl #4
     3e0:	02040200 	andeq	r0, r4, #0, 4
     3e4:	0502042e 	streq	r0, [r2, #-1070]	; 0xfffffbd2
     3e8:	04020002 	streq	r0, [r2], #-2
     3ec:	04190602 	ldreq	r0, [r9], #-1538	; 0xfffff9fe
     3f0:	00140501 	andseq	r0, r4, r1, lsl #10
     3f4:	03020402 	movweq	r0, #9218	; 0x2402
     3f8:	05050176 	streq	r0, [r5, #-374]	; 0xfffffe8a
     3fc:	02040200 	andeq	r0, r4, #0, 4
     400:	00260515 	eoreq	r0, r6, r5, lsl r5
     404:	06020402 	streq	r0, [r2], -r2, lsl #8
     408:	04020001 	streq	r0, [r2], #-1
     40c:	02042e02 	andeq	r2, r4, #2, 28
     410:	02000205 	andeq	r0, r0, #1342177280	; 0x50000000
     414:	19060204 	stmdbne	r6, {r2, r9}
     418:	14050104 	strne	r0, [r5], #-260	; 0xfffffefc
     41c:	02040200 	andeq	r0, r4, #0, 4
     420:	05017603 	streq	r7, [r1, #-1539]	; 0xfffff9fd
     424:	04020005 	streq	r0, [r2], #-5
     428:	26051502 	strcs	r1, [r5], -r2, lsl #10
     42c:	02040200 	andeq	r0, r4, #0, 4
     430:	02000106 	andeq	r0, r0, #-2147483647	; 0x80000001
     434:	042e0204 	strteq	r0, [lr], #-516	; 0xfffffdfc
     438:	00020502 	andeq	r0, r2, r2, lsl #10
     43c:	06020402 	streq	r0, [r2], -r2, lsl #8
     440:	05010419 	streq	r0, [r1, #-1049]	; 0xfffffbe7
     444:	04020014 	streq	r0, [r2], #-20	; 0xffffffec
     448:	01760302 	cmneq	r6, r2, lsl #6
     44c:	02000505 	andeq	r0, r0, #20971520	; 0x1400000
     450:	05150204 	ldreq	r0, [r5, #-516]	; 0xfffffdfc
     454:	04020026 	streq	r0, [r2], #-38	; 0xffffffda
     458:	00010602 	andeq	r0, r1, r2, lsl #12
     45c:	2e020402 	cdpcs	4, 0, cr0, cr2, cr2, {0}
     460:	02050204 	andeq	r0, r5, #4, 4	; 0x40000000
     464:	02040200 	andeq	r0, r4, #0, 4
     468:	01041906 	tsteq	r4, r6, lsl #18
     46c:	02001405 	andeq	r1, r0, #83886080	; 0x5000000
     470:	76030204 	strvc	r0, [r3], -r4, lsl #4
     474:	00050501 	andeq	r0, r5, r1, lsl #10
     478:	15020402 	strne	r0, [r2, #-1026]	; 0xfffffbfe
     47c:	02002605 	andeq	r2, r0, #5242880	; 0x500000
     480:	01060204 	tsteq	r6, r4, lsl #4
     484:	02040200 	andeq	r0, r4, #0, 4
     488:	0502042e 	streq	r0, [r2, #-1070]	; 0xfffffbd2
     48c:	04020002 	streq	r0, [r2], #-2
     490:	04190602 	ldreq	r0, [r9], #-1538	; 0xfffff9fe
     494:	00140501 	andseq	r0, r4, r1, lsl #10
     498:	03020402 	movweq	r0, #9218	; 0x2402
     49c:	05050176 	streq	r0, [r5, #-374]	; 0xfffffe8a
     4a0:	02040200 	andeq	r0, r4, #0, 4
     4a4:	00260515 	eoreq	r0, r6, r5, lsl r5
     4a8:	06020402 	streq	r0, [r2], -r2, lsl #8
     4ac:	04020001 	streq	r0, [r2], #-1
     4b0:	02042e02 	andeq	r2, r4, #2, 28
     4b4:	02000205 	andeq	r0, r0, #1342177280	; 0x50000000
     4b8:	19060204 	stmdbne	r6, {r2, r9}
     4bc:	14050104 	strne	r0, [r5], #-260	; 0xfffffefc
     4c0:	02040200 	andeq	r0, r4, #0, 4
     4c4:	05017603 	streq	r7, [r1, #-1539]	; 0xfffff9fd
     4c8:	04020005 	streq	r0, [r2], #-5
     4cc:	26051502 	strcs	r1, [r5], -r2, lsl #10
     4d0:	02040200 	andeq	r0, r4, #0, 4
     4d4:	02000106 	andeq	r0, r0, #-2147483647	; 0x80000001
     4d8:	042e0204 	strteq	r0, [lr], #-516	; 0xfffffdfc
     4dc:	00020502 	andeq	r0, r2, r2, lsl #10
     4e0:	06020402 	streq	r0, [r2], -r2, lsl #8
     4e4:	05010419 	streq	r0, [r1, #-1049]	; 0xfffffbe7
     4e8:	04020014 	streq	r0, [r2], #-20	; 0xffffffec
     4ec:	01760302 	cmneq	r6, r2, lsl #6
     4f0:	02000505 	andeq	r0, r0, #20971520	; 0x1400000
     4f4:	05150204 	ldreq	r0, [r5, #-516]	; 0xfffffdfc
     4f8:	04020026 	streq	r0, [r2], #-38	; 0xffffffda
     4fc:	00010602 	andeq	r0, r1, r2, lsl #12
     500:	2e020402 	cdpcs	4, 0, cr0, cr2, cr2, {0}
     504:	02050204 	andeq	r0, r5, #4, 4	; 0x40000000
     508:	02040200 	andeq	r0, r4, #0, 4
     50c:	01041906 	tsteq	r4, r6, lsl #18
     510:	02001405 	andeq	r1, r0, #83886080	; 0x5000000
     514:	76030204 	strvc	r0, [r3], -r4, lsl #4
     518:	00050501 	andeq	r0, r5, r1, lsl #10
     51c:	15020402 	strne	r0, [r2, #-1026]	; 0xfffffbfe
     520:	02002605 	andeq	r2, r0, #5242880	; 0x500000
     524:	01060204 	tsteq	r6, r4, lsl #4
     528:	02040200 	andeq	r0, r4, #0, 4
     52c:	0502042e 	streq	r0, [r2, #-1070]	; 0xfffffbd2
     530:	04020002 	streq	r0, [r2], #-2
     534:	04190602 	ldreq	r0, [r9], #-1538	; 0xfffff9fe
     538:	00140501 	andseq	r0, r4, r1, lsl #10
     53c:	03020402 	movweq	r0, #9218	; 0x2402
     540:	05050176 	streq	r0, [r5, #-374]	; 0xfffffe8a
     544:	02040200 	andeq	r0, r4, #0, 4
     548:	00260515 	eoreq	r0, r6, r5, lsl r5
     54c:	06020402 	streq	r0, [r2], -r2, lsl #8
     550:	04020001 	streq	r0, [r2], #-1
     554:	02042e02 	andeq	r2, r4, #2, 28
     558:	02000205 	andeq	r0, r0, #1342177280	; 0x50000000
     55c:	19060204 	stmdbne	r6, {r2, r9}
     560:	14050104 	strne	r0, [r5], #-260	; 0xfffffefc
     564:	02040200 	andeq	r0, r4, #0, 4
     568:	05017603 	streq	r7, [r1, #-1539]	; 0xfffff9fd
     56c:	04020005 	streq	r0, [r2], #-5
     570:	26051502 	strcs	r1, [r5], -r2, lsl #10
     574:	02040200 	andeq	r0, r4, #0, 4
     578:	02000106 	andeq	r0, r0, #-2147483647	; 0x80000001
     57c:	042e0204 	strteq	r0, [lr], #-516	; 0xfffffdfc
     580:	00020502 	andeq	r0, r2, r2, lsl #10
     584:	06020402 	streq	r0, [r2], -r2, lsl #8
     588:	05010419 	streq	r0, [r1, #-1049]	; 0xfffffbe7
     58c:	04020014 	streq	r0, [r2], #-20	; 0xffffffec
     590:	01760302 	cmneq	r6, r2, lsl #6
     594:	02000505 	andeq	r0, r0, #20971520	; 0x1400000
     598:	05150204 	ldreq	r0, [r5, #-516]	; 0xfffffdfc
     59c:	04020026 	streq	r0, [r2], #-38	; 0xffffffda
     5a0:	00010602 	andeq	r0, r1, r2, lsl #12
     5a4:	2e020402 	cdpcs	4, 0, cr0, cr2, cr2, {0}
     5a8:	02050204 	andeq	r0, r5, #4, 4	; 0x40000000
     5ac:	02040200 	andeq	r0, r4, #0, 4
     5b0:	01041906 	tsteq	r4, r6, lsl #18
     5b4:	02001405 	andeq	r1, r0, #83886080	; 0x5000000
     5b8:	76030204 	strvc	r0, [r3], -r4, lsl #4
     5bc:	00050501 	andeq	r0, r5, r1, lsl #10
     5c0:	15020402 	strne	r0, [r2, #-1026]	; 0xfffffbfe
     5c4:	02002605 	andeq	r2, r0, #5242880	; 0x500000
     5c8:	01060204 	tsteq	r6, r4, lsl #4
     5cc:	02040200 	andeq	r0, r4, #0, 4
     5d0:	0502042e 	streq	r0, [r2, #-1070]	; 0xfffffbd2
     5d4:	04020002 	streq	r0, [r2], #-2
     5d8:	04190602 	ldreq	r0, [r9], #-1538	; 0xfffff9fe
     5dc:	00140501 	andseq	r0, r4, r1, lsl #10
     5e0:	03020402 	movweq	r0, #9218	; 0x2402
     5e4:	05050176 	streq	r0, [r5, #-374]	; 0xfffffe8a
     5e8:	02040200 	andeq	r0, r4, #0, 4
     5ec:	00260515 	eoreq	r0, r6, r5, lsl r5
     5f0:	06020402 	streq	r0, [r2], -r2, lsl #8
     5f4:	04020001 	streq	r0, [r2], #-1
     5f8:	02042e02 	andeq	r2, r4, #2, 28
     5fc:	02000205 	andeq	r0, r0, #1342177280	; 0x50000000
     600:	19060204 	stmdbne	r6, {r2, r9}
     604:	14050104 	strne	r0, [r5], #-260	; 0xfffffefc
     608:	02040200 	andeq	r0, r4, #0, 4
     60c:	05017603 	streq	r7, [r1, #-1539]	; 0xfffff9fd
     610:	04020005 	streq	r0, [r2], #-5
     614:	26051502 	strcs	r1, [r5], -r2, lsl #10
     618:	02040200 	andeq	r0, r4, #0, 4
     61c:	02000106 	andeq	r0, r0, #-2147483647	; 0x80000001
     620:	042e0204 	strteq	r0, [lr], #-516	; 0xfffffdfc
     624:	00020502 	andeq	r0, r2, r2, lsl #10
     628:	06020402 	streq	r0, [r2], -r2, lsl #8
     62c:	05010419 	streq	r0, [r1, #-1049]	; 0xfffffbe7
     630:	04020014 	streq	r0, [r2], #-20	; 0xffffffec
     634:	01760302 	cmneq	r6, r2, lsl #6
     638:	02000505 	andeq	r0, r0, #20971520	; 0x1400000
     63c:	05150204 	ldreq	r0, [r5, #-516]	; 0xfffffdfc
     640:	04020026 	streq	r0, [r2], #-38	; 0xffffffda
     644:	00010602 	andeq	r0, r1, r2, lsl #12
     648:	2e020402 	cdpcs	4, 0, cr0, cr2, cr2, {0}
     64c:	02050204 	andeq	r0, r5, #4, 4	; 0x40000000
     650:	02040200 	andeq	r0, r4, #0, 4
     654:	01041906 	tsteq	r4, r6, lsl #18
     658:	02001405 	andeq	r1, r0, #83886080	; 0x5000000
     65c:	76030204 	strvc	r0, [r3], -r4, lsl #4
     660:	00050501 	andeq	r0, r5, r1, lsl #10
     664:	15020402 	strne	r0, [r2, #-1026]	; 0xfffffbfe
     668:	02002605 	andeq	r2, r0, #5242880	; 0x500000
     66c:	01060204 	tsteq	r6, r4, lsl #4
     670:	02040200 	andeq	r0, r4, #0, 4
     674:	0502042e 	streq	r0, [r2, #-1070]	; 0xfffffbd2
     678:	04020002 	streq	r0, [r2], #-2
     67c:	04190602 	ldreq	r0, [r9], #-1538	; 0xfffff9fe
     680:	00140501 	andseq	r0, r4, r1, lsl #10
     684:	03020402 	movweq	r0, #9218	; 0x2402
     688:	05050176 	streq	r0, [r5, #-374]	; 0xfffffe8a
     68c:	02040200 	andeq	r0, r4, #0, 4
     690:	00260515 	eoreq	r0, r6, r5, lsl r5
     694:	06020402 	streq	r0, [r2], -r2, lsl #8
     698:	04020001 	streq	r0, [r2], #-1
     69c:	02042e02 	andeq	r2, r4, #2, 28
     6a0:	02000205 	andeq	r0, r0, #1342177280	; 0x50000000
     6a4:	19060204 	stmdbne	r6, {r2, r9}
     6a8:	14050104 	strne	r0, [r5], #-260	; 0xfffffefc
     6ac:	02040200 	andeq	r0, r4, #0, 4
     6b0:	05017603 	streq	r7, [r1, #-1539]	; 0xfffff9fd
     6b4:	04020005 	streq	r0, [r2], #-5
     6b8:	26051502 	strcs	r1, [r5], -r2, lsl #10
     6bc:	02040200 	andeq	r0, r4, #0, 4
     6c0:	02000106 	andeq	r0, r0, #-2147483647	; 0x80000001
     6c4:	042e0204 	strteq	r0, [lr], #-516	; 0xfffffdfc
     6c8:	00020502 	andeq	r0, r2, r2, lsl #10
     6cc:	06020402 	streq	r0, [r2], -r2, lsl #8
     6d0:	05010419 	streq	r0, [r1, #-1049]	; 0xfffffbe7
     6d4:	04020014 	streq	r0, [r2], #-20	; 0xffffffec
     6d8:	01760302 	cmneq	r6, r2, lsl #6
     6dc:	02000505 	andeq	r0, r0, #20971520	; 0x1400000
     6e0:	05150204 	ldreq	r0, [r5, #-516]	; 0xfffffdfc
     6e4:	04020026 	streq	r0, [r2], #-38	; 0xffffffda
     6e8:	00010602 	andeq	r0, r1, r2, lsl #12
     6ec:	2e020402 	cdpcs	4, 0, cr0, cr2, cr2, {0}
     6f0:	02050204 	andeq	r0, r5, #4, 4	; 0x40000000
     6f4:	02040200 	andeq	r0, r4, #0, 4
     6f8:	01041906 	tsteq	r4, r6, lsl #18
     6fc:	02001405 	andeq	r1, r0, #83886080	; 0x5000000
     700:	76030204 	strvc	r0, [r3], -r4, lsl #4
     704:	00050501 	andeq	r0, r5, r1, lsl #10
     708:	15020402 	strne	r0, [r2, #-1026]	; 0xfffffbfe
     70c:	02002605 	andeq	r2, r0, #5242880	; 0x500000
     710:	01060204 	tsteq	r6, r4, lsl #4
     714:	02040200 	andeq	r0, r4, #0, 4
     718:	0502042e 	streq	r0, [r2, #-1070]	; 0xfffffbd2
     71c:	04020002 	streq	r0, [r2], #-2
     720:	04190602 	ldreq	r0, [r9], #-1538	; 0xfffff9fe
     724:	00140501 	andseq	r0, r4, r1, lsl #10
     728:	03020402 	movweq	r0, #9218	; 0x2402
     72c:	05050176 	streq	r0, [r5, #-374]	; 0xfffffe8a
     730:	02040200 	andeq	r0, r4, #0, 4
     734:	00260515 	eoreq	r0, r6, r5, lsl r5
     738:	06020402 	streq	r0, [r2], -r2, lsl #8
     73c:	04020001 	streq	r0, [r2], #-1
     740:	02042e02 	andeq	r2, r4, #2, 28
     744:	02000205 	andeq	r0, r0, #1342177280	; 0x50000000
     748:	19060204 	stmdbne	r6, {r2, r9}
     74c:	14050104 	strne	r0, [r5], #-260	; 0xfffffefc
     750:	02040200 	andeq	r0, r4, #0, 4
     754:	05017603 	streq	r7, [r1, #-1539]	; 0xfffff9fd
     758:	04020005 	streq	r0, [r2], #-5
     75c:	26051502 	strcs	r1, [r5], -r2, lsl #10
     760:	02040200 	andeq	r0, r4, #0, 4
     764:	02000106 	andeq	r0, r0, #-2147483647	; 0x80000001
     768:	042e0204 	strteq	r0, [lr], #-516	; 0xfffffdfc
     76c:	00020502 	andeq	r0, r2, r2, lsl #10
     770:	06020402 	streq	r0, [r2], -r2, lsl #8
     774:	05010419 	streq	r0, [r1, #-1049]	; 0xfffffbe7
     778:	04020014 	streq	r0, [r2], #-20	; 0xffffffec
     77c:	01760302 	cmneq	r6, r2, lsl #6
     780:	02000505 	andeq	r0, r0, #20971520	; 0x1400000
     784:	05150204 	ldreq	r0, [r5, #-516]	; 0xfffffdfc
     788:	04020026 	streq	r0, [r2], #-38	; 0xffffffda
     78c:	00010602 	andeq	r0, r1, r2, lsl #12
     790:	2e020402 	cdpcs	4, 0, cr0, cr2, cr2, {0}
     794:	02050204 	andeq	r0, r5, #4, 4	; 0x40000000
     798:	02040200 	andeq	r0, r4, #0, 4
     79c:	01041906 	tsteq	r4, r6, lsl #18
     7a0:	02001405 	andeq	r1, r0, #83886080	; 0x5000000
     7a4:	76030204 	strvc	r0, [r3], -r4, lsl #4
     7a8:	00050501 	andeq	r0, r5, r1, lsl #10
     7ac:	15020402 	strne	r0, [r2, #-1026]	; 0xfffffbfe
     7b0:	02002605 	andeq	r2, r0, #5242880	; 0x500000
     7b4:	01060204 	tsteq	r6, r4, lsl #4
     7b8:	02040200 	andeq	r0, r4, #0, 4
     7bc:	0502042e 	streq	r0, [r2, #-1070]	; 0xfffffbd2
     7c0:	04020002 	streq	r0, [r2], #-2
     7c4:	04190602 	ldreq	r0, [r9], #-1538	; 0xfffff9fe
     7c8:	00140501 	andseq	r0, r4, r1, lsl #10
     7cc:	03020402 	movweq	r0, #9218	; 0x2402
     7d0:	05050176 	streq	r0, [r5, #-374]	; 0xfffffe8a
     7d4:	02040200 	andeq	r0, r4, #0, 4
     7d8:	00260515 	eoreq	r0, r6, r5, lsl r5
     7dc:	06020402 	streq	r0, [r2], -r2, lsl #8
     7e0:	04020001 	streq	r0, [r2], #-1
     7e4:	02042e02 	andeq	r2, r4, #2, 28
     7e8:	02000205 	andeq	r0, r0, #1342177280	; 0x50000000
     7ec:	19060204 	stmdbne	r6, {r2, r9}
     7f0:	14050104 	strne	r0, [r5], #-260	; 0xfffffefc
     7f4:	02040200 	andeq	r0, r4, #0, 4
     7f8:	05017603 	streq	r7, [r1, #-1539]	; 0xfffff9fd
     7fc:	04020005 	streq	r0, [r2], #-5
     800:	26051502 	strcs	r1, [r5], -r2, lsl #10
     804:	02040200 	andeq	r0, r4, #0, 4
     808:	02000106 	andeq	r0, r0, #-2147483647	; 0x80000001
     80c:	042e0204 	strteq	r0, [lr], #-516	; 0xfffffdfc
     810:	00020502 	andeq	r0, r2, r2, lsl #10
     814:	06020402 	streq	r0, [r2], -r2, lsl #8
     818:	05010419 	streq	r0, [r1, #-1049]	; 0xfffffbe7
     81c:	04020014 	streq	r0, [r2], #-20	; 0xffffffec
     820:	01760302 	cmneq	r6, r2, lsl #6
     824:	02000505 	andeq	r0, r0, #20971520	; 0x1400000
     828:	05150204 	ldreq	r0, [r5, #-516]	; 0xfffffdfc
     82c:	04020026 	streq	r0, [r2], #-38	; 0xffffffda
     830:	00010602 	andeq	r0, r1, r2, lsl #12
     834:	2e020402 	cdpcs	4, 0, cr0, cr2, cr2, {0}
     838:	02050204 	andeq	r0, r5, #4, 4	; 0x40000000
     83c:	02040200 	andeq	r0, r4, #0, 4
     840:	01041906 	tsteq	r4, r6, lsl #18
     844:	02001405 	andeq	r1, r0, #83886080	; 0x5000000
     848:	76030204 	strvc	r0, [r3], -r4, lsl #4
     84c:	00050501 	andeq	r0, r5, r1, lsl #10
     850:	15020402 	strne	r0, [r2, #-1026]	; 0xfffffbfe
     854:	02002605 	andeq	r2, r0, #5242880	; 0x500000
     858:	01060204 	tsteq	r6, r4, lsl #4
     85c:	02040200 	andeq	r0, r4, #0, 4
     860:	0502042e 	streq	r0, [r2, #-1070]	; 0xfffffbd2
     864:	04020002 	streq	r0, [r2], #-2
     868:	04190602 	ldreq	r0, [r9], #-1538	; 0xfffff9fe
     86c:	00140501 	andseq	r0, r4, r1, lsl #10
     870:	03020402 	movweq	r0, #9218	; 0x2402
     874:	05050176 	streq	r0, [r5, #-374]	; 0xfffffe8a
     878:	02040200 	andeq	r0, r4, #0, 4
     87c:	00260515 	eoreq	r0, r6, r5, lsl r5
     880:	06020402 	streq	r0, [r2], -r2, lsl #8
     884:	04020001 	streq	r0, [r2], #-1
     888:	02042e02 	andeq	r2, r4, #2, 28
     88c:	02000205 	andeq	r0, r0, #1342177280	; 0x50000000
     890:	19060204 	stmdbne	r6, {r2, r9}
     894:	14050104 	strne	r0, [r5], #-260	; 0xfffffefc
     898:	02040200 	andeq	r0, r4, #0, 4
     89c:	05017603 	streq	r7, [r1, #-1539]	; 0xfffff9fd
     8a0:	04020005 	streq	r0, [r2], #-5
     8a4:	26051502 	strcs	r1, [r5], -r2, lsl #10
     8a8:	02040200 	andeq	r0, r4, #0, 4
     8ac:	02000106 	andeq	r0, r0, #-2147483647	; 0x80000001
     8b0:	042e0204 	strteq	r0, [lr], #-516	; 0xfffffdfc
     8b4:	00020502 	andeq	r0, r2, r2, lsl #10
     8b8:	06020402 	streq	r0, [r2], -r2, lsl #8
     8bc:	05010419 	streq	r0, [r1, #-1049]	; 0xfffffbe7
     8c0:	04020014 	streq	r0, [r2], #-20	; 0xffffffec
     8c4:	01760302 	cmneq	r6, r2, lsl #6
     8c8:	02000505 	andeq	r0, r0, #20971520	; 0x1400000
     8cc:	05150204 	ldreq	r0, [r5, #-516]	; 0xfffffdfc
     8d0:	04020026 	streq	r0, [r2], #-38	; 0xffffffda
     8d4:	00010602 	andeq	r0, r1, r2, lsl #12
     8d8:	2e020402 	cdpcs	4, 0, cr0, cr2, cr2, {0}
     8dc:	02050204 	andeq	r0, r5, #4, 4	; 0x40000000
     8e0:	02040200 	andeq	r0, r4, #0, 4
     8e4:	01041906 	tsteq	r4, r6, lsl #18
     8e8:	02001405 	andeq	r1, r0, #83886080	; 0x5000000
     8ec:	76030204 	strvc	r0, [r3], -r4, lsl #4
     8f0:	00050501 	andeq	r0, r5, r1, lsl #10
     8f4:	15020402 	strne	r0, [r2, #-1026]	; 0xfffffbfe
     8f8:	02002605 	andeq	r2, r0, #5242880	; 0x500000
     8fc:	01060204 	tsteq	r6, r4, lsl #4
     900:	02040200 	andeq	r0, r4, #0, 4
     904:	0502042e 	streq	r0, [r2, #-1070]	; 0xfffffbd2
     908:	04020002 	streq	r0, [r2], #-2
     90c:	04190602 	ldreq	r0, [r9], #-1538	; 0xfffff9fe
     910:	00140501 	andseq	r0, r4, r1, lsl #10
     914:	03020402 	movweq	r0, #9218	; 0x2402
     918:	05050176 	streq	r0, [r5, #-374]	; 0xfffffe8a
     91c:	02040200 	andeq	r0, r4, #0, 4
     920:	00260515 	eoreq	r0, r6, r5, lsl r5
     924:	06020402 	streq	r0, [r2], -r2, lsl #8
     928:	04020001 	streq	r0, [r2], #-1
     92c:	02042e02 	andeq	r2, r4, #2, 28
     930:	02000205 	andeq	r0, r0, #1342177280	; 0x50000000
     934:	19060204 	stmdbne	r6, {r2, r9}
     938:	14050104 	strne	r0, [r5], #-260	; 0xfffffefc
     93c:	02040200 	andeq	r0, r4, #0, 4
     940:	05017603 	streq	r7, [r1, #-1539]	; 0xfffff9fd
     944:	04020005 	streq	r0, [r2], #-5
     948:	26051502 	strcs	r1, [r5], -r2, lsl #10
     94c:	02040200 	andeq	r0, r4, #0, 4
     950:	02000106 	andeq	r0, r0, #-2147483647	; 0x80000001
     954:	042e0204 	strteq	r0, [lr], #-516	; 0xfffffdfc
     958:	00020502 	andeq	r0, r2, r2, lsl #10
     95c:	06020402 	streq	r0, [r2], -r2, lsl #8
     960:	05010419 	streq	r0, [r1, #-1049]	; 0xfffffbe7
     964:	04020014 	streq	r0, [r2], #-20	; 0xffffffec
     968:	01760302 	cmneq	r6, r2, lsl #6
     96c:	02000505 	andeq	r0, r0, #20971520	; 0x1400000
     970:	05150204 	ldreq	r0, [r5, #-516]	; 0xfffffdfc
     974:	04020026 	streq	r0, [r2], #-38	; 0xffffffda
     978:	00010602 	andeq	r0, r1, r2, lsl #12
     97c:	2e020402 	cdpcs	4, 0, cr0, cr2, cr2, {0}
     980:	02050204 	andeq	r0, r5, #4, 4	; 0x40000000
     984:	02040200 	andeq	r0, r4, #0, 4
     988:	01041906 	tsteq	r4, r6, lsl #18
     98c:	02001405 	andeq	r1, r0, #83886080	; 0x5000000
     990:	76030204 	strvc	r0, [r3], -r4, lsl #4
     994:	00050501 	andeq	r0, r5, r1, lsl #10
     998:	15020402 	strne	r0, [r2, #-1026]	; 0xfffffbfe
     99c:	02002605 	andeq	r2, r0, #5242880	; 0x500000
     9a0:	01060204 	tsteq	r6, r4, lsl #4
     9a4:	02040200 	andeq	r0, r4, #0, 4
     9a8:	0502042e 	streq	r0, [r2, #-1070]	; 0xfffffbd2
     9ac:	04020002 	streq	r0, [r2], #-2
     9b0:	04190602 	ldreq	r0, [r9], #-1538	; 0xfffff9fe
     9b4:	00140501 	andseq	r0, r4, r1, lsl #10
     9b8:	03020402 	movweq	r0, #9218	; 0x2402
     9bc:	05050176 	streq	r0, [r5, #-374]	; 0xfffffe8a
     9c0:	02040200 	andeq	r0, r4, #0, 4
     9c4:	00260515 	eoreq	r0, r6, r5, lsl r5
     9c8:	06020402 	streq	r0, [r2], -r2, lsl #8
     9cc:	04020001 	streq	r0, [r2], #-1
     9d0:	02042e02 	andeq	r2, r4, #2, 28
     9d4:	02000205 	andeq	r0, r0, #1342177280	; 0x50000000
     9d8:	19060204 	stmdbne	r6, {r2, r9}
     9dc:	14050104 	strne	r0, [r5], #-260	; 0xfffffefc
     9e0:	02040200 	andeq	r0, r4, #0, 4
     9e4:	05017603 	streq	r7, [r1, #-1539]	; 0xfffff9fd
     9e8:	04020005 	streq	r0, [r2], #-5
     9ec:	26051502 	strcs	r1, [r5], -r2, lsl #10
     9f0:	02040200 	andeq	r0, r4, #0, 4
     9f4:	02000106 	andeq	r0, r0, #-2147483647	; 0x80000001
     9f8:	042e0204 	strteq	r0, [lr], #-516	; 0xfffffdfc
     9fc:	00020502 	andeq	r0, r2, r2, lsl #10
     a00:	06020402 	streq	r0, [r2], -r2, lsl #8
     a04:	05010419 	streq	r0, [r1, #-1049]	; 0xfffffbe7
     a08:	04020014 	streq	r0, [r2], #-20	; 0xffffffec
     a0c:	01760302 	cmneq	r6, r2, lsl #6
     a10:	02000505 	andeq	r0, r0, #20971520	; 0x1400000
     a14:	05150204 	ldreq	r0, [r5, #-516]	; 0xfffffdfc
     a18:	04020026 	streq	r0, [r2], #-38	; 0xffffffda
     a1c:	00010602 	andeq	r0, r1, r2, lsl #12
     a20:	2e020402 	cdpcs	4, 0, cr0, cr2, cr2, {0}
     a24:	02050204 	andeq	r0, r5, #4, 4	; 0x40000000
     a28:	02040200 	andeq	r0, r4, #0, 4
     a2c:	01041906 	tsteq	r4, r6, lsl #18
     a30:	02001405 	andeq	r1, r0, #83886080	; 0x5000000
     a34:	76030204 	strvc	r0, [r3], -r4, lsl #4
     a38:	00050501 	andeq	r0, r5, r1, lsl #10
     a3c:	15020402 	strne	r0, [r2, #-1026]	; 0xfffffbfe
     a40:	02002605 	andeq	r2, r0, #5242880	; 0x500000
     a44:	01060204 	tsteq	r6, r4, lsl #4
     a48:	02040200 	andeq	r0, r4, #0, 4
     a4c:	0502042e 	streq	r0, [r2, #-1070]	; 0xfffffbd2
     a50:	04020002 	streq	r0, [r2], #-2
     a54:	04190602 	ldreq	r0, [r9], #-1538	; 0xfffff9fe
     a58:	00140501 	andseq	r0, r4, r1, lsl #10
     a5c:	03020402 	movweq	r0, #9218	; 0x2402
     a60:	05050176 	streq	r0, [r5, #-374]	; 0xfffffe8a
     a64:	02040200 	andeq	r0, r4, #0, 4
     a68:	00260515 	eoreq	r0, r6, r5, lsl r5
     a6c:	06020402 	streq	r0, [r2], -r2, lsl #8
     a70:	04020001 	streq	r0, [r2], #-1
     a74:	02042e02 	andeq	r2, r4, #2, 28
     a78:	02000205 	andeq	r0, r0, #1342177280	; 0x50000000
     a7c:	19060204 	stmdbne	r6, {r2, r9}
     a80:	14050104 	strne	r0, [r5], #-260	; 0xfffffefc
     a84:	02040200 	andeq	r0, r4, #0, 4
     a88:	05017603 	streq	r7, [r1, #-1539]	; 0xfffff9fd
     a8c:	04020005 	streq	r0, [r2], #-5
     a90:	26051502 	strcs	r1, [r5], -r2, lsl #10
     a94:	02040200 	andeq	r0, r4, #0, 4
     a98:	02000106 	andeq	r0, r0, #-2147483647	; 0x80000001
     a9c:	042e0204 	strteq	r0, [lr], #-516	; 0xfffffdfc
     aa0:	00020502 	andeq	r0, r2, r2, lsl #10
     aa4:	06020402 	streq	r0, [r2], -r2, lsl #8
     aa8:	05010419 	streq	r0, [r1, #-1049]	; 0xfffffbe7
     aac:	04020014 	streq	r0, [r2], #-20	; 0xffffffec
     ab0:	01760302 	cmneq	r6, r2, lsl #6
     ab4:	02000505 	andeq	r0, r0, #20971520	; 0x1400000
     ab8:	05150204 	ldreq	r0, [r5, #-516]	; 0xfffffdfc
     abc:	04020026 	streq	r0, [r2], #-38	; 0xffffffda
     ac0:	00010602 	andeq	r0, r1, r2, lsl #12
     ac4:	2e020402 	cdpcs	4, 0, cr0, cr2, cr2, {0}
     ac8:	02050204 	andeq	r0, r5, #4, 4	; 0x40000000
     acc:	02040200 	andeq	r0, r4, #0, 4
     ad0:	01041906 	tsteq	r4, r6, lsl #18
     ad4:	02001405 	andeq	r1, r0, #83886080	; 0x5000000
     ad8:	76030204 	strvc	r0, [r3], -r4, lsl #4
     adc:	00050501 	andeq	r0, r5, r1, lsl #10
     ae0:	15020402 	strne	r0, [r2, #-1026]	; 0xfffffbfe
     ae4:	02002605 	andeq	r2, r0, #5242880	; 0x500000
     ae8:	01060204 	tsteq	r6, r4, lsl #4
     aec:	02040200 	andeq	r0, r4, #0, 4
     af0:	0502042e 	streq	r0, [r2, #-1070]	; 0xfffffbd2
     af4:	04020002 	streq	r0, [r2], #-2
     af8:	04190602 	ldreq	r0, [r9], #-1538	; 0xfffff9fe
     afc:	00140501 	andseq	r0, r4, r1, lsl #10
     b00:	03020402 	movweq	r0, #9218	; 0x2402
     b04:	05050176 	streq	r0, [r5, #-374]	; 0xfffffe8a
     b08:	02040200 	andeq	r0, r4, #0, 4
     b0c:	00260515 	eoreq	r0, r6, r5, lsl r5
     b10:	06020402 	streq	r0, [r2], -r2, lsl #8
     b14:	04020001 	streq	r0, [r2], #-1
     b18:	02042e02 	andeq	r2, r4, #2, 28
     b1c:	02000205 	andeq	r0, r0, #1342177280	; 0x50000000
     b20:	19060204 	stmdbne	r6, {r2, r9}
     b24:	14050104 	strne	r0, [r5], #-260	; 0xfffffefc
     b28:	02040200 	andeq	r0, r4, #0, 4
     b2c:	05017603 	streq	r7, [r1, #-1539]	; 0xfffff9fd
     b30:	04020005 	streq	r0, [r2], #-5
     b34:	26051502 	strcs	r1, [r5], -r2, lsl #10
     b38:	02040200 	andeq	r0, r4, #0, 4
     b3c:	02000106 	andeq	r0, r0, #-2147483647	; 0x80000001
     b40:	042e0204 	strteq	r0, [lr], #-516	; 0xfffffdfc
     b44:	00020502 	andeq	r0, r2, r2, lsl #10
     b48:	06020402 	streq	r0, [r2], -r2, lsl #8
     b4c:	04020019 	streq	r0, [r2], #-25	; 0xffffffe7
     b50:	02002e02 	andeq	r2, r0, #2, 28
     b54:	4a060204 	bmi	18136c <__bss_end__+0x17704c>
     b58:	02040200 	andeq	r0, r4, #0, 4
     b5c:	04020082 	streq	r0, [r2], #-130	; 0xffffff7e
     b60:	00660602 	rsbeq	r0, r6, r2, lsl #12
     b64:	13020402 	movwne	r0, #9218	; 0x2402
     b68:	02040200 	andeq	r0, r4, #0, 4
     b6c:	04020001 	streq	r0, [r2], #-1
     b70:	02004a02 	andeq	r4, r0, #8192	; 0x2000
     b74:	042e0204 	strteq	r0, [lr], #-516	; 0xfffffdfc
     b78:	00140501 	andseq	r0, r4, r1, lsl #10
     b7c:	03020402 	movweq	r0, #9218	; 0x2402
     b80:	05050170 	streq	r0, [r5, #-368]	; 0xfffffe90
     b84:	02040200 	andeq	r0, r4, #0, 4
     b88:	00260515 	eoreq	r0, r6, r5, lsl r5
     b8c:	06020402 	streq	r0, [r2], -r2, lsl #8
     b90:	04020001 	streq	r0, [r2], #-1
     b94:	02042e02 	andeq	r2, r4, #2, 28
     b98:	02000205 	andeq	r0, r0, #1342177280	; 0x50000000
     b9c:	03060204 	movweq	r0, #25092	; 0x6204
     ba0:	0104010d 	tsteq	r4, sp, lsl #2
     ba4:	02001405 	andeq	r1, r0, #83886080	; 0x5000000
     ba8:	70030204 	andvc	r0, r3, r4, lsl #4
     bac:	00050501 	andeq	r0, r5, r1, lsl #10
     bb0:	15020402 	strne	r0, [r2, #-1026]	; 0xfffffbfe
     bb4:	02002605 	andeq	r2, r0, #5242880	; 0x500000
     bb8:	01060204 	tsteq	r6, r4, lsl #4
     bbc:	02040200 	andeq	r0, r4, #0, 4
     bc0:	0502042e 	streq	r0, [r2, #-1070]	; 0xfffffbd2
     bc4:	04020002 	streq	r0, [r2], #-2
     bc8:	0d030602 	stceq	6, cr0, [r3, #-8]
     bcc:	05010401 	streq	r0, [r1, #-1025]	; 0xfffffbff
     bd0:	04020014 	streq	r0, [r2], #-20	; 0xffffffec
     bd4:	01700302 	cmneq	r0, r2, lsl #6
     bd8:	02000505 	andeq	r0, r0, #20971520	; 0x1400000
     bdc:	05150204 	ldreq	r0, [r5, #-516]	; 0xfffffdfc
     be0:	04020026 	streq	r0, [r2], #-38	; 0xffffffda
     be4:	00010602 	andeq	r0, r1, r2, lsl #12
     be8:	2e020402 	cdpcs	4, 0, cr0, cr2, cr2, {0}
     bec:	02050204 	andeq	r0, r5, #4, 4	; 0x40000000
     bf0:	02040200 	andeq	r0, r4, #0, 4
     bf4:	010d0306 	tsteq	sp, r6, lsl #6
     bf8:	14050104 	strne	r0, [r5], #-260	; 0xfffffefc
     bfc:	02040200 	andeq	r0, r4, #0, 4
     c00:	05017003 	streq	r7, [r1, #-3]
     c04:	04020005 	streq	r0, [r2], #-5
     c08:	26051502 	strcs	r1, [r5], -r2, lsl #10
     c0c:	02040200 	andeq	r0, r4, #0, 4
     c10:	02000106 	andeq	r0, r0, #-2147483647	; 0x80000001
     c14:	042e0204 	strteq	r0, [lr], #-516	; 0xfffffdfc
     c18:	00020502 	andeq	r0, r2, r2, lsl #10
     c1c:	06020402 	streq	r0, [r2], -r2, lsl #8
     c20:	04010d03 	streq	r0, [r1], #-3331	; 0xfffff2fd
     c24:	00140501 	andseq	r0, r4, r1, lsl #10
     c28:	03020402 	movweq	r0, #9218	; 0x2402
     c2c:	05050170 	streq	r0, [r5, #-368]	; 0xfffffe90
     c30:	02040200 	andeq	r0, r4, #0, 4
     c34:	00260515 	eoreq	r0, r6, r5, lsl r5
     c38:	06020402 	streq	r0, [r2], -r2, lsl #8
     c3c:	04020001 	streq	r0, [r2], #-1
     c40:	02042e02 	andeq	r2, r4, #2, 28
     c44:	02000205 	andeq	r0, r0, #1342177280	; 0x50000000
     c48:	03060204 	movweq	r0, #25092	; 0x6204
     c4c:	0104010d 	tsteq	r4, sp, lsl #2
     c50:	02001405 	andeq	r1, r0, #83886080	; 0x5000000
     c54:	70030204 	andvc	r0, r3, r4, lsl #4
     c58:	00050501 	andeq	r0, r5, r1, lsl #10
     c5c:	15020402 	strne	r0, [r2, #-1026]	; 0xfffffbfe
     c60:	02002605 	andeq	r2, r0, #5242880	; 0x500000
     c64:	01060204 	tsteq	r6, r4, lsl #4
     c68:	02040200 	andeq	r0, r4, #0, 4
     c6c:	0502042e 	streq	r0, [r2, #-1070]	; 0xfffffbd2
     c70:	04020002 	streq	r0, [r2], #-2
     c74:	0d030602 	stceq	6, cr0, [r3, #-8]
     c78:	05010401 	streq	r0, [r1, #-1025]	; 0xfffffbff
     c7c:	04020014 	streq	r0, [r2], #-20	; 0xffffffec
     c80:	01700302 	cmneq	r0, r2, lsl #6
     c84:	02000505 	andeq	r0, r0, #20971520	; 0x1400000
     c88:	05150204 	ldreq	r0, [r5, #-516]	; 0xfffffdfc
     c8c:	04020026 	streq	r0, [r2], #-38	; 0xffffffda
     c90:	00010602 	andeq	r0, r1, r2, lsl #12
     c94:	2e020402 	cdpcs	4, 0, cr0, cr2, cr2, {0}
     c98:	02050204 	andeq	r0, r5, #4, 4	; 0x40000000
     c9c:	02040200 	andeq	r0, r4, #0, 4
     ca0:	010d0306 	tsteq	sp, r6, lsl #6
     ca4:	14050104 	strne	r0, [r5], #-260	; 0xfffffefc
     ca8:	02040200 	andeq	r0, r4, #0, 4
     cac:	05017003 	streq	r7, [r1, #-3]
     cb0:	04020005 	streq	r0, [r2], #-5
     cb4:	26051502 	strcs	r1, [r5], -r2, lsl #10
     cb8:	02040200 	andeq	r0, r4, #0, 4
     cbc:	02000106 	andeq	r0, r0, #-2147483647	; 0x80000001
     cc0:	042e0204 	strteq	r0, [lr], #-516	; 0xfffffdfc
     cc4:	00020502 	andeq	r0, r2, r2, lsl #10
     cc8:	06020402 	streq	r0, [r2], -r2, lsl #8
     ccc:	04010d03 	streq	r0, [r1], #-3331	; 0xfffff2fd
     cd0:	00140501 	andseq	r0, r4, r1, lsl #10
     cd4:	03020402 	movweq	r0, #9218	; 0x2402
     cd8:	05050170 	streq	r0, [r5, #-368]	; 0xfffffe90
     cdc:	02040200 	andeq	r0, r4, #0, 4
     ce0:	00260515 	eoreq	r0, r6, r5, lsl r5
     ce4:	06020402 	streq	r0, [r2], -r2, lsl #8
     ce8:	04020001 	streq	r0, [r2], #-1
     cec:	02042e02 	andeq	r2, r4, #2, 28
     cf0:	02000205 	andeq	r0, r0, #1342177280	; 0x50000000
     cf4:	03060204 	movweq	r0, #25092	; 0x6204
     cf8:	0104010d 	tsteq	r4, sp, lsl #2
     cfc:	02001405 	andeq	r1, r0, #83886080	; 0x5000000
     d00:	70030204 	andvc	r0, r3, r4, lsl #4
     d04:	00050501 	andeq	r0, r5, r1, lsl #10
     d08:	15020402 	strne	r0, [r2, #-1026]	; 0xfffffbfe
     d0c:	02002605 	andeq	r2, r0, #5242880	; 0x500000
     d10:	01060204 	tsteq	r6, r4, lsl #4
     d14:	02040200 	andeq	r0, r4, #0, 4
     d18:	0502042e 	streq	r0, [r2, #-1070]	; 0xfffffbd2
     d1c:	04020002 	streq	r0, [r2], #-2
     d20:	0d030602 	stceq	6, cr0, [r3, #-8]
     d24:	05010401 	streq	r0, [r1, #-1025]	; 0xfffffbff
     d28:	04020014 	streq	r0, [r2], #-20	; 0xffffffec
     d2c:	01700302 	cmneq	r0, r2, lsl #6
     d30:	02000505 	andeq	r0, r0, #20971520	; 0x1400000
     d34:	05150204 	ldreq	r0, [r5, #-516]	; 0xfffffdfc
     d38:	04020026 	streq	r0, [r2], #-38	; 0xffffffda
     d3c:	00010602 	andeq	r0, r1, r2, lsl #12
     d40:	2e020402 	cdpcs	4, 0, cr0, cr2, cr2, {0}
     d44:	02050204 	andeq	r0, r5, #4, 4	; 0x40000000
     d48:	02040200 	andeq	r0, r4, #0, 4
     d4c:	010d0306 	tsteq	sp, r6, lsl #6
     d50:	14050104 	strne	r0, [r5], #-260	; 0xfffffefc
     d54:	02040200 	andeq	r0, r4, #0, 4
     d58:	05017003 	streq	r7, [r1, #-3]
     d5c:	04020005 	streq	r0, [r2], #-5
     d60:	26051502 	strcs	r1, [r5], -r2, lsl #10
     d64:	02040200 	andeq	r0, r4, #0, 4
     d68:	02000106 	andeq	r0, r0, #-2147483647	; 0x80000001
     d6c:	042e0204 	strteq	r0, [lr], #-516	; 0xfffffdfc
     d70:	00020502 	andeq	r0, r2, r2, lsl #10
     d74:	06020402 	streq	r0, [r2], -r2, lsl #8
     d78:	04010d03 	streq	r0, [r1], #-3331	; 0xfffff2fd
     d7c:	00140501 	andseq	r0, r4, r1, lsl #10
     d80:	03020402 	movweq	r0, #9218	; 0x2402
     d84:	05050170 	streq	r0, [r5, #-368]	; 0xfffffe90
     d88:	02040200 	andeq	r0, r4, #0, 4
     d8c:	00260515 	eoreq	r0, r6, r5, lsl r5
     d90:	06020402 	streq	r0, [r2], -r2, lsl #8
     d94:	04020001 	streq	r0, [r2], #-1
     d98:	02042e02 	andeq	r2, r4, #2, 28
     d9c:	02000205 	andeq	r0, r0, #1342177280	; 0x50000000
     da0:	03060204 	movweq	r0, #25092	; 0x6204
     da4:	0104010d 	tsteq	r4, sp, lsl #2
     da8:	02001405 	andeq	r1, r0, #83886080	; 0x5000000
     dac:	70030204 	andvc	r0, r3, r4, lsl #4
     db0:	00050501 	andeq	r0, r5, r1, lsl #10
     db4:	15020402 	strne	r0, [r2, #-1026]	; 0xfffffbfe
     db8:	02002605 	andeq	r2, r0, #5242880	; 0x500000
     dbc:	01060204 	tsteq	r6, r4, lsl #4
     dc0:	02040200 	andeq	r0, r4, #0, 4
     dc4:	0502042e 	streq	r0, [r2, #-1070]	; 0xfffffbd2
     dc8:	04020002 	streq	r0, [r2], #-2
     dcc:	0d030602 	stceq	6, cr0, [r3, #-8]
     dd0:	05010401 	streq	r0, [r1, #-1025]	; 0xfffffbff
     dd4:	04020014 	streq	r0, [r2], #-20	; 0xffffffec
     dd8:	01700302 	cmneq	r0, r2, lsl #6
     ddc:	02000505 	andeq	r0, r0, #20971520	; 0x1400000
     de0:	05150204 	ldreq	r0, [r5, #-516]	; 0xfffffdfc
     de4:	04020026 	streq	r0, [r2], #-38	; 0xffffffda
     de8:	00010602 	andeq	r0, r1, r2, lsl #12
     dec:	2e020402 	cdpcs	4, 0, cr0, cr2, cr2, {0}
     df0:	02050204 	andeq	r0, r5, #4, 4	; 0x40000000
     df4:	02040200 	andeq	r0, r4, #0, 4
     df8:	010d0306 	tsteq	sp, r6, lsl #6
     dfc:	14050104 	strne	r0, [r5], #-260	; 0xfffffefc
     e00:	02040200 	andeq	r0, r4, #0, 4
     e04:	05017003 	streq	r7, [r1, #-3]
     e08:	04020005 	streq	r0, [r2], #-5
     e0c:	26051502 	strcs	r1, [r5], -r2, lsl #10
     e10:	02040200 	andeq	r0, r4, #0, 4
     e14:	02000106 	andeq	r0, r0, #-2147483647	; 0x80000001
     e18:	042e0204 	strteq	r0, [lr], #-516	; 0xfffffdfc
     e1c:	00020502 	andeq	r0, r2, r2, lsl #10
     e20:	06020402 	streq	r0, [r2], -r2, lsl #8
     e24:	04010d03 	streq	r0, [r1], #-3331	; 0xfffff2fd
     e28:	00140501 	andseq	r0, r4, r1, lsl #10
     e2c:	03020402 	movweq	r0, #9218	; 0x2402
     e30:	05050170 	streq	r0, [r5, #-368]	; 0xfffffe90
     e34:	02040200 	andeq	r0, r4, #0, 4
     e38:	00260515 	eoreq	r0, r6, r5, lsl r5
     e3c:	06020402 	streq	r0, [r2], -r2, lsl #8
     e40:	04020001 	streq	r0, [r2], #-1
     e44:	02042e02 	andeq	r2, r4, #2, 28
     e48:	02000205 	andeq	r0, r0, #1342177280	; 0x50000000
     e4c:	03060204 	movweq	r0, #25092	; 0x6204
     e50:	0104010d 	tsteq	r4, sp, lsl #2
     e54:	02001405 	andeq	r1, r0, #83886080	; 0x5000000
     e58:	70030204 	andvc	r0, r3, r4, lsl #4
     e5c:	00050501 	andeq	r0, r5, r1, lsl #10
     e60:	15020402 	strne	r0, [r2, #-1026]	; 0xfffffbfe
     e64:	02002605 	andeq	r2, r0, #5242880	; 0x500000
     e68:	01060204 	tsteq	r6, r4, lsl #4
     e6c:	02040200 	andeq	r0, r4, #0, 4
     e70:	0502042e 	streq	r0, [r2, #-1070]	; 0xfffffbd2
     e74:	04020002 	streq	r0, [r2], #-2
     e78:	0d030602 	stceq	6, cr0, [r3, #-8]
     e7c:	05010401 	streq	r0, [r1, #-1025]	; 0xfffffbff
     e80:	04020014 	streq	r0, [r2], #-20	; 0xffffffec
     e84:	01700302 	cmneq	r0, r2, lsl #6
     e88:	02000505 	andeq	r0, r0, #20971520	; 0x1400000
     e8c:	05150204 	ldreq	r0, [r5, #-516]	; 0xfffffdfc
     e90:	04020026 	streq	r0, [r2], #-38	; 0xffffffda
     e94:	00010602 	andeq	r0, r1, r2, lsl #12
     e98:	2e020402 	cdpcs	4, 0, cr0, cr2, cr2, {0}
     e9c:	02050204 	andeq	r0, r5, #4, 4	; 0x40000000
     ea0:	02040200 	andeq	r0, r4, #0, 4
     ea4:	010d0306 	tsteq	sp, r6, lsl #6
     ea8:	14050104 	strne	r0, [r5], #-260	; 0xfffffefc
     eac:	02040200 	andeq	r0, r4, #0, 4
     eb0:	05017003 	streq	r7, [r1, #-3]
     eb4:	04020005 	streq	r0, [r2], #-5
     eb8:	26051502 	strcs	r1, [r5], -r2, lsl #10
     ebc:	02040200 	andeq	r0, r4, #0, 4
     ec0:	02000106 	andeq	r0, r0, #-2147483647	; 0x80000001
     ec4:	042e0204 	strteq	r0, [lr], #-516	; 0xfffffdfc
     ec8:	00020502 	andeq	r0, r2, r2, lsl #10
     ecc:	06020402 	streq	r0, [r2], -r2, lsl #8
     ed0:	04010d03 	streq	r0, [r1], #-3331	; 0xfffff2fd
     ed4:	00140501 	andseq	r0, r4, r1, lsl #10
     ed8:	03020402 	movweq	r0, #9218	; 0x2402
     edc:	05050170 	streq	r0, [r5, #-368]	; 0xfffffe90
     ee0:	02040200 	andeq	r0, r4, #0, 4
     ee4:	00260515 	eoreq	r0, r6, r5, lsl r5
     ee8:	06020402 	streq	r0, [r2], -r2, lsl #8
     eec:	04020001 	streq	r0, [r2], #-1
     ef0:	02042e02 	andeq	r2, r4, #2, 28
     ef4:	02000205 	andeq	r0, r0, #1342177280	; 0x50000000
     ef8:	03060204 	movweq	r0, #25092	; 0x6204
     efc:	0104010d 	tsteq	r4, sp, lsl #2
     f00:	02001405 	andeq	r1, r0, #83886080	; 0x5000000
     f04:	70030204 	andvc	r0, r3, r4, lsl #4
     f08:	00050501 	andeq	r0, r5, r1, lsl #10
     f0c:	15020402 	strne	r0, [r2, #-1026]	; 0xfffffbfe
     f10:	02002605 	andeq	r2, r0, #5242880	; 0x500000
     f14:	01060204 	tsteq	r6, r4, lsl #4
     f18:	02040200 	andeq	r0, r4, #0, 4
     f1c:	0502042e 	streq	r0, [r2, #-1070]	; 0xfffffbd2
     f20:	04020002 	streq	r0, [r2], #-2
     f24:	0d030602 	stceq	6, cr0, [r3, #-8]
     f28:	05010401 	streq	r0, [r1, #-1025]	; 0xfffffbff
     f2c:	04020014 	streq	r0, [r2], #-20	; 0xffffffec
     f30:	01700302 	cmneq	r0, r2, lsl #6
     f34:	02000505 	andeq	r0, r0, #20971520	; 0x1400000
     f38:	05150204 	ldreq	r0, [r5, #-516]	; 0xfffffdfc
     f3c:	04020026 	streq	r0, [r2], #-38	; 0xffffffda
     f40:	00010602 	andeq	r0, r1, r2, lsl #12
     f44:	2e020402 	cdpcs	4, 0, cr0, cr2, cr2, {0}
     f48:	02050204 	andeq	r0, r5, #4, 4	; 0x40000000
     f4c:	02040200 	andeq	r0, r4, #0, 4
     f50:	010d0306 	tsteq	sp, r6, lsl #6
     f54:	14050104 	strne	r0, [r5], #-260	; 0xfffffefc
     f58:	02040200 	andeq	r0, r4, #0, 4
     f5c:	05017003 	streq	r7, [r1, #-3]
     f60:	04020005 	streq	r0, [r2], #-5
     f64:	26051502 	strcs	r1, [r5], -r2, lsl #10
     f68:	02040200 	andeq	r0, r4, #0, 4
     f6c:	02000106 	andeq	r0, r0, #-2147483647	; 0x80000001
     f70:	042e0204 	strteq	r0, [lr], #-516	; 0xfffffdfc
     f74:	00020502 	andeq	r0, r2, r2, lsl #10
     f78:	06020402 	streq	r0, [r2], -r2, lsl #8
     f7c:	04010d03 	streq	r0, [r1], #-3331	; 0xfffff2fd
     f80:	00140501 	andseq	r0, r4, r1, lsl #10
     f84:	03020402 	movweq	r0, #9218	; 0x2402
     f88:	05050170 	streq	r0, [r5, #-368]	; 0xfffffe90
     f8c:	02040200 	andeq	r0, r4, #0, 4
     f90:	00260515 	eoreq	r0, r6, r5, lsl r5
     f94:	06020402 	streq	r0, [r2], -r2, lsl #8
     f98:	04020001 	streq	r0, [r2], #-1
     f9c:	02042e02 	andeq	r2, r4, #2, 28
     fa0:	02000205 	andeq	r0, r0, #1342177280	; 0x50000000
     fa4:	03060204 	movweq	r0, #25092	; 0x6204
     fa8:	0104010d 	tsteq	r4, sp, lsl #2
     fac:	02001405 	andeq	r1, r0, #83886080	; 0x5000000
     fb0:	70030204 	andvc	r0, r3, r4, lsl #4
     fb4:	00050501 	andeq	r0, r5, r1, lsl #10
     fb8:	15020402 	strne	r0, [r2, #-1026]	; 0xfffffbfe
     fbc:	02002605 	andeq	r2, r0, #5242880	; 0x500000
     fc0:	01060204 	tsteq	r6, r4, lsl #4
     fc4:	02040200 	andeq	r0, r4, #0, 4
     fc8:	0502042e 	streq	r0, [r2, #-1070]	; 0xfffffbd2
     fcc:	04020002 	streq	r0, [r2], #-2
     fd0:	0d030602 	stceq	6, cr0, [r3, #-8]
     fd4:	05010401 	streq	r0, [r1, #-1025]	; 0xfffffbff
     fd8:	04020014 	streq	r0, [r2], #-20	; 0xffffffec
     fdc:	01700302 	cmneq	r0, r2, lsl #6
     fe0:	02000505 	andeq	r0, r0, #20971520	; 0x1400000
     fe4:	05150204 	ldreq	r0, [r5, #-516]	; 0xfffffdfc
     fe8:	04020026 	streq	r0, [r2], #-38	; 0xffffffda
     fec:	00010602 	andeq	r0, r1, r2, lsl #12
     ff0:	2e020402 	cdpcs	4, 0, cr0, cr2, cr2, {0}
     ff4:	02050204 	andeq	r0, r5, #4, 4	; 0x40000000
     ff8:	02040200 	andeq	r0, r4, #0, 4
     ffc:	010d0306 	tsteq	sp, r6, lsl #6
    1000:	14050104 	strne	r0, [r5], #-260	; 0xfffffefc
    1004:	02040200 	andeq	r0, r4, #0, 4
    1008:	05017003 	streq	r7, [r1, #-3]
    100c:	04020005 	streq	r0, [r2], #-5
    1010:	26051502 	strcs	r1, [r5], -r2, lsl #10
    1014:	02040200 	andeq	r0, r4, #0, 4
    1018:	02000106 	andeq	r0, r0, #-2147483647	; 0x80000001
    101c:	042e0204 	strteq	r0, [lr], #-516	; 0xfffffdfc
    1020:	00020502 	andeq	r0, r2, r2, lsl #10
    1024:	06020402 	streq	r0, [r2], -r2, lsl #8
    1028:	04010d03 	streq	r0, [r1], #-3331	; 0xfffff2fd
    102c:	00140501 	andseq	r0, r4, r1, lsl #10
    1030:	03020402 	movweq	r0, #9218	; 0x2402
    1034:	05050170 	streq	r0, [r5, #-368]	; 0xfffffe90
    1038:	02040200 	andeq	r0, r4, #0, 4
    103c:	00260515 	eoreq	r0, r6, r5, lsl r5
    1040:	06020402 	streq	r0, [r2], -r2, lsl #8
    1044:	04020001 	streq	r0, [r2], #-1
    1048:	02042e02 	andeq	r2, r4, #2, 28
    104c:	02000205 	andeq	r0, r0, #1342177280	; 0x50000000
    1050:	03060204 	movweq	r0, #25092	; 0x6204
    1054:	0104010d 	tsteq	r4, sp, lsl #2
    1058:	02001405 	andeq	r1, r0, #83886080	; 0x5000000
    105c:	70030204 	andvc	r0, r3, r4, lsl #4
    1060:	00050501 	andeq	r0, r5, r1, lsl #10
    1064:	15020402 	strne	r0, [r2, #-1026]	; 0xfffffbfe
    1068:	02002605 	andeq	r2, r0, #5242880	; 0x500000
    106c:	01060204 	tsteq	r6, r4, lsl #4
    1070:	02040200 	andeq	r0, r4, #0, 4
    1074:	0502042e 	streq	r0, [r2, #-1070]	; 0xfffffbd2
    1078:	04020002 	streq	r0, [r2], #-2
    107c:	0d030602 	stceq	6, cr0, [r3, #-8]
    1080:	05010401 	streq	r0, [r1, #-1025]	; 0xfffffbff
    1084:	04020014 	streq	r0, [r2], #-20	; 0xffffffec
    1088:	01700302 	cmneq	r0, r2, lsl #6
    108c:	02000505 	andeq	r0, r0, #20971520	; 0x1400000
    1090:	05150204 	ldreq	r0, [r5, #-516]	; 0xfffffdfc
    1094:	04020026 	streq	r0, [r2], #-38	; 0xffffffda
    1098:	00010602 	andeq	r0, r1, r2, lsl #12
    109c:	2e020402 	cdpcs	4, 0, cr0, cr2, cr2, {0}
    10a0:	02050204 	andeq	r0, r5, #4, 4	; 0x40000000
    10a4:	02040200 	andeq	r0, r4, #0, 4
    10a8:	010d0306 	tsteq	sp, r6, lsl #6
    10ac:	14050104 	strne	r0, [r5], #-260	; 0xfffffefc
    10b0:	02040200 	andeq	r0, r4, #0, 4
    10b4:	05017003 	streq	r7, [r1, #-3]
    10b8:	04020005 	streq	r0, [r2], #-5
    10bc:	26051502 	strcs	r1, [r5], -r2, lsl #10
    10c0:	02040200 	andeq	r0, r4, #0, 4
    10c4:	02000106 	andeq	r0, r0, #-2147483647	; 0x80000001
    10c8:	042e0204 	strteq	r0, [lr], #-516	; 0xfffffdfc
    10cc:	00020502 	andeq	r0, r2, r2, lsl #10
    10d0:	06020402 	streq	r0, [r2], -r2, lsl #8
    10d4:	04010d03 	streq	r0, [r1], #-3331	; 0xfffff2fd
    10d8:	00140501 	andseq	r0, r4, r1, lsl #10
    10dc:	03020402 	movweq	r0, #9218	; 0x2402
    10e0:	05050170 	streq	r0, [r5, #-368]	; 0xfffffe90
    10e4:	02040200 	andeq	r0, r4, #0, 4
    10e8:	00260515 	eoreq	r0, r6, r5, lsl r5
    10ec:	06020402 	streq	r0, [r2], -r2, lsl #8
    10f0:	04020001 	streq	r0, [r2], #-1
    10f4:	02042e02 	andeq	r2, r4, #2, 28
    10f8:	02000205 	andeq	r0, r0, #1342177280	; 0x50000000
    10fc:	03060204 	movweq	r0, #25092	; 0x6204
    1100:	0104010d 	tsteq	r4, sp, lsl #2
    1104:	02001405 	andeq	r1, r0, #83886080	; 0x5000000
    1108:	70030204 	andvc	r0, r3, r4, lsl #4
    110c:	00050501 	andeq	r0, r5, r1, lsl #10
    1110:	15020402 	strne	r0, [r2, #-1026]	; 0xfffffbfe
    1114:	02002605 	andeq	r2, r0, #5242880	; 0x500000
    1118:	01060204 	tsteq	r6, r4, lsl #4
    111c:	02040200 	andeq	r0, r4, #0, 4
    1120:	0502042e 	streq	r0, [r2, #-1070]	; 0xfffffbd2
    1124:	04020002 	streq	r0, [r2], #-2
    1128:	0d030602 	stceq	6, cr0, [r3, #-8]
    112c:	05010401 	streq	r0, [r1, #-1025]	; 0xfffffbff
    1130:	04020014 	streq	r0, [r2], #-20	; 0xffffffec
    1134:	01700302 	cmneq	r0, r2, lsl #6
    1138:	02000505 	andeq	r0, r0, #20971520	; 0x1400000
    113c:	05150204 	ldreq	r0, [r5, #-516]	; 0xfffffdfc
    1140:	04020026 	streq	r0, [r2], #-38	; 0xffffffda
    1144:	00010602 	andeq	r0, r1, r2, lsl #12
    1148:	2e020402 	cdpcs	4, 0, cr0, cr2, cr2, {0}
    114c:	02050204 	andeq	r0, r5, #4, 4	; 0x40000000
    1150:	02040200 	andeq	r0, r4, #0, 4
    1154:	010d0306 	tsteq	sp, r6, lsl #6
    1158:	14050104 	strne	r0, [r5], #-260	; 0xfffffefc
    115c:	02040200 	andeq	r0, r4, #0, 4
    1160:	05017003 	streq	r7, [r1, #-3]
    1164:	04020005 	streq	r0, [r2], #-5
    1168:	26051502 	strcs	r1, [r5], -r2, lsl #10
    116c:	02040200 	andeq	r0, r4, #0, 4
    1170:	02000106 	andeq	r0, r0, #-2147483647	; 0x80000001
    1174:	042e0204 	strteq	r0, [lr], #-516	; 0xfffffdfc
    1178:	00020502 	andeq	r0, r2, r2, lsl #10
    117c:	06020402 	streq	r0, [r2], -r2, lsl #8
    1180:	04010d03 	streq	r0, [r1], #-3331	; 0xfffff2fd
    1184:	00140501 	andseq	r0, r4, r1, lsl #10
    1188:	03020402 	movweq	r0, #9218	; 0x2402
    118c:	05050170 	streq	r0, [r5, #-368]	; 0xfffffe90
    1190:	02040200 	andeq	r0, r4, #0, 4
    1194:	00260515 	eoreq	r0, r6, r5, lsl r5
    1198:	06020402 	streq	r0, [r2], -r2, lsl #8
    119c:	04020001 	streq	r0, [r2], #-1
    11a0:	02042e02 	andeq	r2, r4, #2, 28
    11a4:	02000205 	andeq	r0, r0, #1342177280	; 0x50000000
    11a8:	03060204 	movweq	r0, #25092	; 0x6204
    11ac:	0104010d 	tsteq	r4, sp, lsl #2
    11b0:	02001405 	andeq	r1, r0, #83886080	; 0x5000000
    11b4:	70030204 	andvc	r0, r3, r4, lsl #4
    11b8:	00050501 	andeq	r0, r5, r1, lsl #10
    11bc:	15020402 	strne	r0, [r2, #-1026]	; 0xfffffbfe
    11c0:	02002605 	andeq	r2, r0, #5242880	; 0x500000
    11c4:	01060204 	tsteq	r6, r4, lsl #4
    11c8:	02040200 	andeq	r0, r4, #0, 4
    11cc:	0502042e 	streq	r0, [r2, #-1070]	; 0xfffffbd2
    11d0:	04020002 	streq	r0, [r2], #-2
    11d4:	0d030602 	stceq	6, cr0, [r3, #-8]
    11d8:	05010401 	streq	r0, [r1, #-1025]	; 0xfffffbff
    11dc:	04020014 	streq	r0, [r2], #-20	; 0xffffffec
    11e0:	01700302 	cmneq	r0, r2, lsl #6
    11e4:	02000505 	andeq	r0, r0, #20971520	; 0x1400000
    11e8:	05150204 	ldreq	r0, [r5, #-516]	; 0xfffffdfc
    11ec:	04020026 	streq	r0, [r2], #-38	; 0xffffffda
    11f0:	00010602 	andeq	r0, r1, r2, lsl #12
    11f4:	2e020402 	cdpcs	4, 0, cr0, cr2, cr2, {0}
    11f8:	02050204 	andeq	r0, r5, #4, 4	; 0x40000000
    11fc:	02040200 	andeq	r0, r4, #0, 4
    1200:	010d0306 	tsteq	sp, r6, lsl #6
    1204:	14050104 	strne	r0, [r5], #-260	; 0xfffffefc
    1208:	02040200 	andeq	r0, r4, #0, 4
    120c:	05017003 	streq	r7, [r1, #-3]
    1210:	04020005 	streq	r0, [r2], #-5
    1214:	26051502 	strcs	r1, [r5], -r2, lsl #10
    1218:	02040200 	andeq	r0, r4, #0, 4
    121c:	02000106 	andeq	r0, r0, #-2147483647	; 0x80000001
    1220:	042e0204 	strteq	r0, [lr], #-516	; 0xfffffdfc
    1224:	00020502 	andeq	r0, r2, r2, lsl #10
    1228:	06020402 	streq	r0, [r2], -r2, lsl #8
    122c:	04010d03 	streq	r0, [r1], #-3331	; 0xfffff2fd
    1230:	00140501 	andseq	r0, r4, r1, lsl #10
    1234:	03020402 	movweq	r0, #9218	; 0x2402
    1238:	05050170 	streq	r0, [r5, #-368]	; 0xfffffe90
    123c:	02040200 	andeq	r0, r4, #0, 4
    1240:	00260515 	eoreq	r0, r6, r5, lsl r5
    1244:	06020402 	streq	r0, [r2], -r2, lsl #8
    1248:	04020001 	streq	r0, [r2], #-1
    124c:	02042e02 	andeq	r2, r4, #2, 28
    1250:	02000205 	andeq	r0, r0, #1342177280	; 0x50000000
    1254:	03060204 	movweq	r0, #25092	; 0x6204
    1258:	0104010d 	tsteq	r4, sp, lsl #2
    125c:	02001405 	andeq	r1, r0, #83886080	; 0x5000000
    1260:	70030204 	andvc	r0, r3, r4, lsl #4
    1264:	00050501 	andeq	r0, r5, r1, lsl #10
    1268:	15020402 	strne	r0, [r2, #-1026]	; 0xfffffbfe
    126c:	02002605 	andeq	r2, r0, #5242880	; 0x500000
    1270:	01060204 	tsteq	r6, r4, lsl #4
    1274:	02040200 	andeq	r0, r4, #0, 4
    1278:	0502042e 	streq	r0, [r2, #-1070]	; 0xfffffbd2
    127c:	04020002 	streq	r0, [r2], #-2
    1280:	0d030602 	stceq	6, cr0, [r3, #-8]
    1284:	05010401 	streq	r0, [r1, #-1025]	; 0xfffffbff
    1288:	04020014 	streq	r0, [r2], #-20	; 0xffffffec
    128c:	01700302 	cmneq	r0, r2, lsl #6
    1290:	02000505 	andeq	r0, r0, #20971520	; 0x1400000
    1294:	05150204 	ldreq	r0, [r5, #-516]	; 0xfffffdfc
    1298:	04020026 	streq	r0, [r2], #-38	; 0xffffffda
    129c:	00010602 	andeq	r0, r1, r2, lsl #12
    12a0:	2e020402 	cdpcs	4, 0, cr0, cr2, cr2, {0}
    12a4:	02050204 	andeq	r0, r5, #4, 4	; 0x40000000
    12a8:	02040200 	andeq	r0, r4, #0, 4
    12ac:	010d0306 	tsteq	sp, r6, lsl #6
    12b0:	14050104 	strne	r0, [r5], #-260	; 0xfffffefc
    12b4:	02040200 	andeq	r0, r4, #0, 4
    12b8:	05017003 	streq	r7, [r1, #-3]
    12bc:	04020005 	streq	r0, [r2], #-5
    12c0:	26051502 	strcs	r1, [r5], -r2, lsl #10
    12c4:	02040200 	andeq	r0, r4, #0, 4
    12c8:	02000106 	andeq	r0, r0, #-2147483647	; 0x80000001
    12cc:	042e0204 	strteq	r0, [lr], #-516	; 0xfffffdfc
    12d0:	00020502 	andeq	r0, r2, r2, lsl #10
    12d4:	06020402 	streq	r0, [r2], -r2, lsl #8
    12d8:	04010d03 	streq	r0, [r1], #-3331	; 0xfffff2fd
    12dc:	00140501 	andseq	r0, r4, r1, lsl #10
    12e0:	03020402 	movweq	r0, #9218	; 0x2402
    12e4:	05050170 	streq	r0, [r5, #-368]	; 0xfffffe90
    12e8:	02040200 	andeq	r0, r4, #0, 4
    12ec:	00260515 	eoreq	r0, r6, r5, lsl r5
    12f0:	06020402 	streq	r0, [r2], -r2, lsl #8
    12f4:	04020001 	streq	r0, [r2], #-1
    12f8:	02042e02 	andeq	r2, r4, #2, 28
    12fc:	02000205 	andeq	r0, r0, #1342177280	; 0x50000000
    1300:	03060204 	movweq	r0, #25092	; 0x6204
    1304:	0104010d 	tsteq	r4, sp, lsl #2
    1308:	02001405 	andeq	r1, r0, #83886080	; 0x5000000
    130c:	70030204 	andvc	r0, r3, r4, lsl #4
    1310:	00050501 	andeq	r0, r5, r1, lsl #10
    1314:	15020402 	strne	r0, [r2, #-1026]	; 0xfffffbfe
    1318:	02002605 	andeq	r2, r0, #5242880	; 0x500000
    131c:	01060204 	tsteq	r6, r4, lsl #4
    1320:	02040200 	andeq	r0, r4, #0, 4
    1324:	0502042e 	streq	r0, [r2, #-1070]	; 0xfffffbd2
    1328:	04020002 	streq	r0, [r2], #-2
    132c:	0d030602 	stceq	6, cr0, [r3, #-8]
    1330:	05010401 	streq	r0, [r1, #-1025]	; 0xfffffbff
    1334:	04020014 	streq	r0, [r2], #-20	; 0xffffffec
    1338:	01700302 	cmneq	r0, r2, lsl #6
    133c:	02000505 	andeq	r0, r0, #20971520	; 0x1400000
    1340:	05150204 	ldreq	r0, [r5, #-516]	; 0xfffffdfc
    1344:	04020026 	streq	r0, [r2], #-38	; 0xffffffda
    1348:	00010602 	andeq	r0, r1, r2, lsl #12
    134c:	2e020402 	cdpcs	4, 0, cr0, cr2, cr2, {0}
    1350:	02050204 	andeq	r0, r5, #4, 4	; 0x40000000
    1354:	02040200 	andeq	r0, r4, #0, 4
    1358:	010d0306 	tsteq	sp, r6, lsl #6
    135c:	14050104 	strne	r0, [r5], #-260	; 0xfffffefc
    1360:	02040200 	andeq	r0, r4, #0, 4
    1364:	05017003 	streq	r7, [r1, #-3]
    1368:	04020005 	streq	r0, [r2], #-5
    136c:	26051502 	strcs	r1, [r5], -r2, lsl #10
    1370:	02040200 	andeq	r0, r4, #0, 4
    1374:	02000106 	andeq	r0, r0, #-2147483647	; 0x80000001
    1378:	042e0204 	strteq	r0, [lr], #-516	; 0xfffffdfc
    137c:	00020502 	andeq	r0, r2, r2, lsl #10
    1380:	06020402 	streq	r0, [r2], -r2, lsl #8
    1384:	04010d03 	streq	r0, [r1], #-3331	; 0xfffff2fd
    1388:	00140501 	andseq	r0, r4, r1, lsl #10
    138c:	03020402 	movweq	r0, #9218	; 0x2402
    1390:	05050170 	streq	r0, [r5, #-368]	; 0xfffffe90
    1394:	02040200 	andeq	r0, r4, #0, 4
    1398:	00260515 	eoreq	r0, r6, r5, lsl r5
    139c:	06020402 	streq	r0, [r2], -r2, lsl #8
    13a0:	04020001 	streq	r0, [r2], #-1
    13a4:	02042e02 	andeq	r2, r4, #2, 28
    13a8:	02000205 	andeq	r0, r0, #1342177280	; 0x50000000
    13ac:	03060204 	movweq	r0, #25092	; 0x6204
    13b0:	0104010d 	tsteq	r4, sp, lsl #2
    13b4:	02001405 	andeq	r1, r0, #83886080	; 0x5000000
    13b8:	70030204 	andvc	r0, r3, r4, lsl #4
    13bc:	00050501 	andeq	r0, r5, r1, lsl #10
    13c0:	15020402 	strne	r0, [r2, #-1026]	; 0xfffffbfe
    13c4:	02002605 	andeq	r2, r0, #5242880	; 0x500000
    13c8:	01060204 	tsteq	r6, r4, lsl #4
    13cc:	02040200 	andeq	r0, r4, #0, 4
    13d0:	0502042e 	streq	r0, [r2, #-1070]	; 0xfffffbd2
    13d4:	04020002 	streq	r0, [r2], #-2
    13d8:	0d030602 	stceq	6, cr0, [r3, #-8]
    13dc:	04020001 	streq	r0, [r2], #-1
    13e0:	02002e02 	andeq	r2, r0, #2, 28
    13e4:	4a060204 	bmi	181bfc <__bss_end__+0x1778dc>
    13e8:	02040200 	andeq	r0, r4, #0, 4
    13ec:	04020082 	streq	r0, [r2], #-130	; 0xffffff7e
    13f0:	004a0602 	subeq	r0, sl, r2, lsl #12
    13f4:	14020402 	strne	r0, [r2], #-1026	; 0xfffffbfe
    13f8:	02000605 	andeq	r0, r0, #5242880	; 0x500000
    13fc:	00010204 	andeq	r0, r1, r4, lsl #4
    1400:	01020402 	tsteq	r2, r2, lsl #8
    1404:	02040200 	andeq	r0, r4, #0, 4
    1408:	0402002e 	streq	r0, [r2], #-46	; 0xffffffd2
    140c:	05010602 	streq	r0, [r1, #-1538]	; 0xfffff9fe
    1410:	04020003 	streq	r0, [r2], #-3
    1414:	05130602 	ldreq	r0, [r3, #-1538]	; 0xfffff9fe
    1418:	04020002 	streq	r0, [r2], #-2
    141c:	06054b02 	streq	r4, [r5], -r2, lsl #22
    1420:	02040200 	andeq	r0, r4, #0, 4
    1424:	04020001 	streq	r0, [r2], #-1
    1428:	02000102 	andeq	r0, r0, #-2147483648	; 0x80000000
    142c:	002e0204 	eoreq	r0, lr, r4, lsl #4
    1430:	06020402 	streq	r0, [r2], -r2, lsl #8
    1434:	00020501 	andeq	r0, r2, r1, lsl #10
    1438:	06020402 	streq	r0, [r2], -r2, lsl #8
    143c:	000b0513 	andeq	r0, fp, r3, lsl r5
    1440:	06020402 	streq	r0, [r2], -r2, lsl #8
    1444:	00110501 	andseq	r0, r1, r1, lsl #10
    1448:	2e020402 	cdpcs	4, 0, cr0, cr2, cr2, {0}
    144c:	02000b05 	andeq	r0, r0, #5120	; 0x1400
    1450:	052e0204 	streq	r0, [lr, #-516]!	; 0xfffffdfc
    1454:	04020002 	streq	r0, [r2], #-2
    1458:	054b0602 	strbeq	r0, [fp, #-1538]	; 0xfffff9fe
    145c:	04020005 	streq	r0, [r2], #-5
    1460:	07056802 	streq	r6, [r5, -r2, lsl #16]
    1464:	02040200 	andeq	r0, r4, #0, 4
    1468:	06050106 	streq	r0, [r5], -r6, lsl #2
    146c:	00014b06 	andeq	r4, r1, r6, lsl #22
    1470:	82020402 	andhi	r0, r2, #33554432	; 0x2000000
    1474:	02040200 	andeq	r0, r4, #0, 4
    1478:	00020501 	andeq	r0, r2, r1, lsl #10
    147c:	14020402 	strne	r0, [r2], #-1026	; 0xfffffbfe
    1480:	02040200 	andeq	r0, r4, #0, 4
    1484:	0402009f 	streq	r0, [r2], #-159	; 0xffffff61
    1488:	02009f02 	andeq	r9, r0, #2, 30
    148c:	009f0204 	addseq	r0, pc, r4, lsl #4
    1490:	9f020402 	svcls	0x00020402
    1494:	02040200 	andeq	r0, r4, #0, 4
    1498:	000d05a0 	andeq	r0, sp, r0, lsr #11
    149c:	03020402 	movweq	r0, #9218	; 0x2402
    14a0:	05017fab 	streq	r7, [r1, #-4011]	; 0xfffff055
    14a4:	04020002 	streq	r0, [r2], #-2
    14a8:	01200302 			; <UNDEFINED> instruction: 0x01200302
    14ac:	02000d05 	andeq	r0, r0, #320	; 0x140
    14b0:	051a0204 	ldreq	r0, [sl, #-516]	; 0xfffffdfc
    14b4:	04020002 	streq	r0, [r2], #-2
    14b8:	02001302 	andeq	r1, r0, #134217728	; 0x8000000
    14bc:	00010204 	andeq	r0, r1, r4, lsl #4
    14c0:	4a020402 	bmi	824d0 <__bss_end__+0x781b0>
    14c4:	02040200 	andeq	r0, r4, #0, 4
    14c8:	04020066 	streq	r0, [r2], #-102	; 0xffffff9a
    14cc:	052e0602 	streq	r0, [lr, #-1538]!	; 0xfffff9fe
    14d0:	04020006 	streq	r0, [r2], #-6
    14d4:	24030601 	strcs	r0, [r3], #-1537	; 0xfffff9ff
    14d8:	04020001 	streq	r0, [r2], #-1
    14dc:	14050101 	strne	r0, [r5], #-257	; 0xfffffeff
    14e0:	38022503 	stmdacc	r2, {r0, r1, r8, sl, sp}
    14e4:	13050501 	movwne	r0, #21761	; 0x5501
    14e8:	11061405 	tstne	r6, r5, lsl #8
    14ec:	062f0505 	strteq	r0, [pc], -r5, lsl #10
    14f0:	4b4b4d2f 	blmi	12d49b4 <__bss_end__+0x12ca694>
    14f4:	4a09034b 	bmi	242228 <__bss_end__+0x237f08>
    14f8:	0008024b 	andeq	r0, r8, fp, asr #4
    14fc:	023b0101 	eorseq	r0, fp, #1073741824	; 0x40000000
    1500:	00030000 	andeq	r0, r3, r0
    1504:	00000107 	andeq	r0, r0, r7, lsl #2
    1508:	0efb0102 	cdpeq	1, 15, cr0, cr11, cr2, {0}
    150c:	0101000d 	tsteq	r1, sp
    1510:	00000101 	andeq	r0, r0, r1, lsl #2
    1514:	00000100 	andeq	r0, r0, r0, lsl #2
    1518:	73752f01 	cmnvc	r5, #1, 30
    151c:	6f6c2f72 	svcvs	0x006c2f72
    1520:	2f6c6163 	svccs	0x006c6163
    1524:	6c6c6543 	cfstr64vs	mvdx6, [ip], #-268	; 0xfffffef4
    1528:	612f7261 			; <UNDEFINED> instruction: 0x612f7261
    152c:	6e2d6d72 	mcrvs	13, 1, r6, cr13, cr2, {3}
    1530:	2d656e6f 	stclcs	14, cr6, [r5, #-444]!	; 0xfffffe44
    1534:	69626165 	stmdbvs	r2!, {r0, r2, r5, r6, r8, sp, lr}^
    1538:	7365742d 	cmnvc	r5, #754974720	; 0x2d000000
    153c:	2d392f74 	ldccs	15, cr2, [r9, #-464]!	; 0xfffffe30
    1540:	39313032 	ldmdbcc	r1!, {r1, r4, r5, ip, sp}
    1544:	632d3471 			; <UNDEFINED> instruction: 0x632d3471
    1548:	37303173 			; <UNDEFINED> instruction: 0x37303173
    154c:	696c2f65 	stmdbvs	ip!, {r0, r2, r5, r6, r8, r9, sl, fp, sp}^
    1550:	63672f62 	cmnvs	r7, #392	; 0x188
    1554:	72612f63 	rsbvc	r2, r1, #396	; 0x18c
    1558:	6f6e2d6d 	svcvs	0x006e2d6d
    155c:	652d656e 	strvs	r6, [sp, #-1390]!	; 0xfffffa92
    1560:	2f696261 	svccs	0x00696261
    1564:	2e322e39 	mrccs	14, 1, r2, cr2, cr9, {1}
    1568:	6e692f31 	mcrvs	15, 3, r2, cr9, cr1, {1}
    156c:	64756c63 	ldrbtvs	r6, [r5], #-3171	; 0xfffff39d
    1570:	552f0065 	strpl	r0, [pc, #-101]!	; 1513 <__code_start__-0x6aed>
    1574:	73726573 	cmnvc	r2, #482344960	; 0x1cc00000
    1578:	6972652f 	ldmdbvs	r2!, {r0, r1, r2, r3, r5, r8, sl, sp, lr}^
    157c:	61656263 	cmnvs	r5, r3, ror #4
    1580:	6f442f72 	svcvs	0x00442f72
    1584:	656d7563 	strbvs	r7, [sp, #-1379]!	; 0xfffffa9d
    1588:	2f73746e 	svccs	0x0073746e
    158c:	34315343 	ldrtcc	r5, [r1], #-835	; 0xfffffcbd
    1590:	632f4530 			; <UNDEFINED> instruction: 0x632f4530
    1594:	30343173 	eorscc	r3, r4, r3, ror r1
    1598:	69662d45 	stmdbvs	r6!, {r0, r2, r6, r8, sl, fp, sp}^
    159c:	2d6c616e 	stfcse	f6, [ip, #-440]!	; 0xfffffe48
    15a0:	6a6f7270 	bvs	1bddf68 <__bss_end__+0x1bd3c48>
    15a4:	2f746365 	svccs	0x00746365
    15a8:	7362696c 	cmnvc	r2, #108, 18	; 0x1b0000
    15ac:	3034322d 	eorscc	r3, r4, sp, lsr #4
    15b0:	6c2f786c 	stcvs	8, cr7, [pc], #-432	; 1408 <__code_start__-0x6bf8>
    15b4:	69706269 	ldmdbvs	r0!, {r0, r3, r5, r6, r9, sp, lr}^
    15b8:	636e692f 	cmnvs	lr, #770048	; 0xbc000
    15bc:	6564756c 	strbvs	r7, [r4, #-1388]!	; 0xfffffa94
    15c0:	53570000 	cmppl	r7, #0, 0
    15c4:	32313832 	eorscc	r3, r1, #3276800	; 0x320000
    15c8:	00682e42 	rsbeq	r2, r8, r2, asr #28
    15cc:	6e000000 	cdpvs	0, 0, cr0, cr0, cr0, {0}
    15d0:	69706f65 	ldmdbvs	r0!, {r0, r2, r5, r6, r8, r9, sl, fp, sp, lr}^
    15d4:	2e6c6578 	mcrcs	5, 3, r6, cr12, cr8, {3}
    15d8:	00000063 	andeq	r0, r0, r3, rrx
    15dc:	64747300 	ldrbtvs	r7, [r4], #-768	; 0xfffffd00
    15e0:	2d746e69 	ldclcs	14, cr6, [r4, #-420]!	; 0xfffffe5c
    15e4:	2e636367 	cdpcs	3, 6, cr6, cr3, cr7, {3}
    15e8:	00010068 	andeq	r0, r1, r8, rrx
    15ec:	69707200 	ldmdbvs	r0!, {r9, ip, sp, lr}^
    15f0:	0200682e 	andeq	r6, r0, #3014656	; 0x2e0000
    15f4:	656e0000 	strbvs	r0, [lr, #-0]!
    15f8:	7869706f 	stmdavc	r9!, {r0, r1, r2, r3, r5, r6, ip, sp, lr}^
    15fc:	682e6c65 	stmdavs	lr!, {r0, r2, r5, r6, sl, fp, sp, lr}
    1600:	00000000 	andeq	r0, r0, r0
    1604:	6f697067 	svcvs	0x00697067
    1608:	0200682e 	andeq	r6, r0, #3014656	; 0x2e0000
    160c:	05000000 	streq	r0, [r0, #-0]
    1610:	02050014 	andeq	r0, r5, #20, 0
    1614:	00008668 	andeq	r8, r0, r8, ror #12
    1618:	0101bd03 	tsteq	r1, r3, lsl #26
    161c:	01130505 	tsteq	r3, r5, lsl #10
    1620:	2d061405 	cfstrscs	mvf1, [r6, #-20]	; 0xffffffec
    1624:	062f0505 	strteq	r0, [pc], -r5, lsl #10
    1628:	03140582 	tsteq	r4, #545259520	; 0x20800000
    162c:	0505821b 	streq	r8, [r5, #-539]	; 0xfffffde5
    1630:	14050117 	strne	r0, [r5], #-279	; 0xfffffee9
    1634:	05052906 	streq	r2, [r5, #-2310]	; 0xfffff6fa
    1638:	04820633 	streq	r0, [r2], #1587	; 0x633
    163c:	031c0502 	tsteq	ip, #8388608	; 0x800000
    1640:	05827ebf 	streq	r7, [r2, #3775]	; 0xebf
    1644:	01041405 	tsteq	r4, r5, lsl #8
    1648:	a7031405 	strge	r1, [r3, -r5, lsl #8]
    164c:	05050101 	streq	r0, [r5, #-257]	; 0xfffffeff
    1650:	05020413 	streq	r0, [r2, #-1043]	; 0xfffffbed
    1654:	d603061c 			; <UNDEFINED> instruction: 0xd603061c
    1658:	0104017e 	tsteq	r4, lr, ror r1
    165c:	aa030505 	bge	c2a78 <__bss_end__+0xb8758>
    1660:	042e2e01 	strteq	r2, [lr], #-3585	; 0xfffff1ff
    1664:	06310502 	ldrteq	r0, [r1], -r2, lsl #10
    1668:	c0020500 	andgt	r0, r2, r0, lsl #10
    166c:	03000086 	movweq	r0, #134	; 0x86
    1670:	05017edb 	streq	r7, [r1, #-3803]	; 0xfffff125
    1674:	05131305 	ldreq	r1, [r3, #-773]	; 0xfffffcfb
    1678:	05100631 	ldreq	r0, [r0, #-1585]	; 0xfffff9cf
    167c:	0e053037 	mcreq	0, 0, r3, cr5, cr7, {1}
    1680:	0605052e 	streq	r0, [r5], -lr, lsr #10
    1684:	0631052f 	ldrteq	r0, [r1], -pc, lsr #10
    1688:	3109050f 	tstcc	r9, pc, lsl #10
    168c:	052b3105 	streq	r3, [fp, #-261]!	; 0xfffffefb
    1690:	052e3109 	streq	r3, [lr, #-265]!	; 0xfffffef7
    1694:	682f0605 	stmdavs	pc!, {r0, r2, r9, sl}	; <UNPREDICTABLE>
    1698:	0f051406 	svceq	0x00051406
    169c:	0605052c 	streq	r0, [r5], -ip, lsr #10
    16a0:	060c052f 	streq	r0, [ip], -pc, lsr #10
    16a4:	06050501 	streq	r0, [r5], -r1, lsl #10
    16a8:	01052f2f 	tsteq	r5, pc, lsr #30
    16ac:	41051306 	tstmi	r5, r6, lsl #6
    16b0:	05054d06 	streq	r4, [r5, #-3334]	; 0xfffff2fa
    16b4:	06410513 			; <UNDEFINED> instruction: 0x06410513
    16b8:	2f050511 	svccs	0x00050511
    16bc:	062d052e 	strteq	r0, [sp], -lr, lsr #10
    16c0:	0c020500 	cfstr32eq	mvfx0, [r2], {-0}
    16c4:	16000087 	strne	r0, [r0], -r7, lsl #1
    16c8:	05130505 	ldreq	r0, [r3, #-1285]	; 0xfffffafb
    16cc:	14050109 	strne	r0, [r5], #-265	; 0xfffffef7
    16d0:	06050501 	streq	r0, [r5], -r1, lsl #10
    16d4:	2d2d0501 	cfstr32cs	mvfx0, [sp, #-4]!
    16d8:	052f0505 	streq	r0, [pc, #-1285]!	; 11db <__code_start__-0x6e25>
    16dc:	04020009 	streq	r0, [r2], #-9
    16e0:	002f0603 	eoreq	r0, pc, r3, lsl #12
    16e4:	06030402 	streq	r0, [r3], -r2, lsl #8
    16e8:	0605052e 	streq	r0, [r5], -lr, lsr #10
    16ec:	03060513 	movweq	r0, #25875	; 0x6513
    16f0:	05050166 	streq	r0, [r5, #-358]	; 0xfffffe9a
    16f4:	05010414 	streq	r0, [r1, #-1044]	; 0xfffffbec
    16f8:	01a70314 			; <UNDEFINED> instruction: 0x01a70314
    16fc:	13050501 	movwne	r0, #21761	; 0x5501
    1700:	02042e06 	andeq	r2, r4, #96	; 0x60
    1704:	00061c05 	andeq	r1, r6, r5, lsl #24
    1708:	87200205 	strhi	r0, [r0, -r5, lsl #4]!
    170c:	f3030000 	vhadd.u8	d0, d3, d0
    1710:	0505017e 	streq	r0, [r5, #-382]	; 0xfffffe82
    1714:	061c0513 			; <UNDEFINED> instruction: 0x061c0513
    1718:	2f050511 	svccs	0x00050511
    171c:	064b054a 	strbeq	r0, [fp], -sl, asr #10
    1720:	2c020500 	cfstr32cs	mvfx0, [r2], {-0}
    1724:	16000087 	strne	r0, [r0], -r7, lsl #1
    1728:	01130505 	tsteq	r3, r5, lsl #10
    172c:	2d064b05 	vstrcs	d4, [r6, #-20]	; 0xffffffec
    1730:	2e2f0505 	cfsh64cs	mvdx0, mvdx15, #5
    1734:	2e062e2e 	cdpcs	14, 0, cr2, cr6, cr14, {1}
    1738:	01000802 	tsteq	r0, r2, lsl #16
    173c:	00011301 	andeq	r1, r1, r1, lsl #6
    1740:	e3000300 	movw	r0, #768	; 0x300
    1744:	02000000 	andeq	r0, r0, #0, 0
    1748:	0d0efb01 	vstreq	d15, [lr, #-4]
    174c:	01010100 	mrseq	r0, (UNDEF: 17)
    1750:	00000001 	andeq	r0, r0, r1
    1754:	01000001 	tsteq	r0, r1
    1758:	696c2f2e 	stmdbvs	ip!, {r1, r2, r3, r5, r8, r9, sl, fp, sp}^
    175c:	2f006362 	svccs	0x00006362
    1760:	72657355 	rsbvc	r7, r5, #1409286145	; 0x54000001
    1764:	72652f73 	rsbvc	r2, r5, #460	; 0x1cc
    1768:	65626369 	strbvs	r6, [r2, #-873]!	; 0xfffffc97
    176c:	442f7261 	strtmi	r7, [pc], #-609	; 1774 <__code_start__-0x688c>
    1770:	6d75636f 	ldclvs	3, cr6, [r5, #-444]!	; 0xfffffe44
    1774:	73746e65 	cmnvc	r4, #1616	; 0x650
    1778:	3153432f 	cmpcc	r3, pc, lsr #6
    177c:	2f453034 	svccs	0x00453034
    1780:	34317363 	ldrtcc	r7, [r1], #-867	; 0xfffffc9d
    1784:	662d4530 			; <UNDEFINED> instruction: 0x662d4530
    1788:	6c616e69 	stclvs	14, cr6, [r1], #-420	; 0xfffffe5c
    178c:	6f72702d 	svcvs	0x0072702d
    1790:	7463656a 	strbtvc	r6, [r3], #-1386	; 0xfffffa96
    1794:	62696c2f 	rsbvs	r6, r9, #12032	; 0x2f00
    1798:	34322d73 	ldrtcc	r2, [r2], #-3443	; 0xfffff28d
    179c:	2f786c30 	svccs	0x00786c30
    17a0:	7062696c 	rsbvc	r6, r2, ip, ror #18
    17a4:	6e692f69 	cdpvs	15, 6, cr2, cr9, cr9, {3}
    17a8:	64756c63 	ldrbtvs	r6, [r5], #-3171	; 0xfffff39d
    17ac:	752f0065 	strvc	r0, [pc, #-101]!	; 174f <__code_start__-0x68b1>
    17b0:	6c2f7273 	sfmvs	f7, 4, [pc], #-460	; 15ec <__code_start__-0x6a14>
    17b4:	6c61636f 	stclvs	3, cr6, [r1], #-444	; 0xfffffe44
    17b8:	6c65432f 	stclvs	3, cr4, [r5], #-188	; 0xffffff44
    17bc:	2f72616c 	svccs	0x0072616c
    17c0:	2d6d7261 	sfmcs	f7, 2, [sp, #-388]!	; 0xfffffe7c
    17c4:	656e6f6e 	strbvs	r6, [lr, #-3950]!	; 0xfffff092
    17c8:	6261652d 	rsbvs	r6, r1, #188743680	; 0xb400000
    17cc:	65742d69 	ldrbvs	r2, [r4, #-3433]!	; 0xfffff297
    17d0:	392f7473 	stmdbcc	pc!, {r0, r1, r4, r5, r6, sl, ip, sp, lr}	; <UNPREDICTABLE>
    17d4:	3130322d 	teqcc	r0, sp, lsr #4
    17d8:	2d347139 	ldfcss	f7, [r4, #-228]!	; 0xffffff1c
    17dc:	30317363 	eorscc	r7, r1, r3, ror #6
    17e0:	6c2f6537 	cfstr32vs	mvfx6, [pc], #-220	; 170c <__code_start__-0x68f4>
    17e4:	672f6269 	strvs	r6, [pc, -r9, ror #4]!
    17e8:	612f6363 			; <UNDEFINED> instruction: 0x612f6363
    17ec:	6e2d6d72 	mcrvs	13, 1, r6, cr13, cr2, {3}
    17f0:	2d656e6f 	stclcs	14, cr6, [r5, #-444]!	; 0xfffffe44
    17f4:	69626165 	stmdbvs	r2!, {r0, r2, r5, r6, r8, sp, lr}^
    17f8:	322e392f 	eorcc	r3, lr, #770048	; 0xbc000
    17fc:	692f312e 	stmdbvs	pc!, {r1, r2, r3, r5, r8, ip, sp}	; <UNPREDICTABLE>
    1800:	756c636e 	strbvc	r6, [ip, #-878]!	; 0xfffffc92
    1804:	00006564 	andeq	r6, r0, r4, ror #10
    1808:	736d656d 	cmnvc	sp, #457179136	; 0x1b400000
    180c:	632e7465 			; <UNDEFINED> instruction: 0x632e7465
    1810:	00000100 	andeq	r0, r0, r0, lsl #2
    1814:	2e697072 	mcrcs	0, 3, r7, cr9, cr2, {3}
    1818:	00020068 	andeq	r0, r2, r8, rrx
    181c:	64747300 	ldrbtvs	r7, [r4], #-768	; 0xfffffd00
    1820:	2e666564 	cdpcs	5, 6, cr6, cr6, cr4, {3}
    1824:	00030068 	andeq	r0, r3, r8, rrx
    1828:	29050000 	stmdbcs	r5, {}	; <UNPREDICTABLE>
    182c:	54020500 	strpl	r0, [r2], #-1280	; 0xfffffb00
    1830:	15000087 	strne	r0, [r0, #-135]	; 0xffffff79
    1834:	05130505 	ldreq	r0, [r3, #-1285]	; 0xfffffafb
    1838:	05010614 	streq	r0, [r1, #-1556]	; 0xfffff9ec
    183c:	05300605 	ldreq	r0, [r0, #-1541]!	; 0xfffff9fb
    1840:	0510060b 	ldreq	r0, [r0, #-1547]	; 0xfffff9f5
    1844:	0530060a 	ldreq	r0, [r0, #-1546]!	; 0xfffff9f6
    1848:	0e054b09 	vmlaeq.f64	d4, d5, d9
    184c:	022e0106 	eoreq	r0, lr, #-2147483647	; 0x80000001
    1850:	01010002 	tsteq	r1, r2
    1854:	00000132 	andeq	r0, r0, r2, lsr r1
    1858:	01000003 	tsteq	r0, r3
    185c:	01020000 	mrseq	r0, (UNDEF: 2)
    1860:	000d0efb 	strdeq	r0, [sp], -fp
    1864:	01010101 	tsteq	r1, r1, lsl #2
    1868:	01000000 	mrseq	r0, (UNDEF: 0)
    186c:	2e010000 	cdpcs	0, 0, cr0, cr1, cr0, {0}
    1870:	62696c2f 	rsbvs	r6, r9, #12032	; 0x2f00
    1874:	752f0063 	strvc	r0, [pc, #-99]!	; 1819 <__code_start__-0x67e7>
    1878:	6c2f7273 	sfmvs	f7, 4, [pc], #-460	; 16b4 <__code_start__-0x694c>
    187c:	6c61636f 	stclvs	3, cr6, [r1], #-444	; 0xfffffe44
    1880:	6c65432f 	stclvs	3, cr4, [r5], #-188	; 0xffffff44
    1884:	2f72616c 	svccs	0x0072616c
    1888:	2d6d7261 	sfmcs	f7, 2, [sp, #-388]!	; 0xfffffe7c
    188c:	656e6f6e 	strbvs	r6, [lr, #-3950]!	; 0xfffff092
    1890:	6261652d 	rsbvs	r6, r1, #188743680	; 0xb400000
    1894:	65742d69 	ldrbvs	r2, [r4, #-3433]!	; 0xfffff297
    1898:	392f7473 	stmdbcc	pc!, {r0, r1, r4, r5, r6, sl, ip, sp, lr}	; <UNPREDICTABLE>
    189c:	3130322d 	teqcc	r0, sp, lsr #4
    18a0:	2d347139 	ldfcss	f7, [r4, #-228]!	; 0xffffff1c
    18a4:	30317363 	eorscc	r7, r1, r3, ror #6
    18a8:	6c2f6537 	cfstr32vs	mvfx6, [pc], #-220	; 17d4 <__code_start__-0x682c>
    18ac:	672f6269 	strvs	r6, [pc, -r9, ror #4]!
    18b0:	612f6363 			; <UNDEFINED> instruction: 0x612f6363
    18b4:	6e2d6d72 	mcrvs	13, 1, r6, cr13, cr2, {3}
    18b8:	2d656e6f 	stclcs	14, cr6, [r5, #-444]!	; 0xfffffe44
    18bc:	69626165 	stmdbvs	r2!, {r0, r2, r5, r6, r8, sp, lr}^
    18c0:	322e392f 	eorcc	r3, lr, #770048	; 0xbc000
    18c4:	692f312e 	stmdbvs	pc!, {r1, r2, r3, r5, r8, ip, sp}	; <UNPREDICTABLE>
    18c8:	756c636e 	strbvc	r6, [ip, #-878]!	; 0xfffffc92
    18cc:	2f006564 	svccs	0x00006564
    18d0:	72657355 	rsbvc	r7, r5, #1409286145	; 0x54000001
    18d4:	72652f73 	rsbvc	r2, r5, #460	; 0x1cc
    18d8:	65626369 	strbvs	r6, [r2, #-873]!	; 0xfffffc97
    18dc:	442f7261 	strtmi	r7, [pc], #-609	; 18e4 <__code_start__-0x671c>
    18e0:	6d75636f 	ldclvs	3, cr6, [r5, #-444]!	; 0xfffffe44
    18e4:	73746e65 	cmnvc	r4, #1616	; 0x650
    18e8:	3153432f 	cmpcc	r3, pc, lsr #6
    18ec:	2f453034 	svccs	0x00453034
    18f0:	34317363 	ldrtcc	r7, [r1], #-867	; 0xfffffc9d
    18f4:	662d4530 			; <UNDEFINED> instruction: 0x662d4530
    18f8:	6c616e69 	stclvs	14, cr6, [r1], #-420	; 0xfffffe5c
    18fc:	6f72702d 	svcvs	0x0072702d
    1900:	7463656a 	strbtvc	r6, [r3], #-1386	; 0xfffffa96
    1904:	62696c2f 	rsbvs	r6, r9, #12032	; 0x2f00
    1908:	34322d73 	ldrtcc	r2, [r2], #-3443	; 0xfffff28d
    190c:	2f786c30 	svccs	0x00786c30
    1910:	7062696c 	rsbvc	r6, r2, ip, ror #18
    1914:	6e692f69 	cdpvs	15, 6, cr2, cr9, cr9, {3}
    1918:	64756c63 	ldrbtvs	r6, [r5], #-3171	; 0xfffff39d
    191c:	70000065 	andvc	r0, r0, r5, rrx
    1920:	746e6972 	strbtvc	r6, [lr], #-2418	; 0xfffff68e
    1924:	00632e6b 	rsbeq	r2, r3, fp, ror #28
    1928:	73000001 	movwvc	r0, #1
    192c:	72616474 	rsbvc	r6, r1, #116, 8	; 0x74000000
    1930:	00682e67 	rsbeq	r2, r8, r7, ror #28
    1934:	72000002 	andvc	r0, r0, #2, 0
    1938:	682e6970 	stmdavs	lr!, {r4, r5, r6, r8, fp, sp, lr}
    193c:	00000300 	andeq	r0, r0, r0, lsl #6
    1940:	6975623c 	ldmdbvs	r5!, {r2, r3, r4, r5, r9, sp, lr}^
    1944:	692d746c 	pushvs	{r2, r3, r5, r6, sl, ip, sp, lr}
    1948:	00003e6e 	andeq	r3, r0, lr, ror #28
    194c:	61760000 	cmnvs	r6, r0
    1950:	6972702d 	ldmdbvs	r2!, {r0, r2, r3, r5, ip, sp, lr}^
    1954:	2e6b746e 	cdpcs	4, 6, cr7, cr11, cr14, {3}
    1958:	00010068 	andeq	r0, r1, r8, rrx
    195c:	22050000 	andcs	r0, r5, #0, 0
    1960:	6c020500 	cfstr32vs	mvfx0, [r2], {-0}
    1964:	17000087 	strne	r0, [r0, -r7, lsl #1]
    1968:	05050106 	streq	r0, [r5, #-262]	; 0xfffffefa
    196c:	14136806 	ldrne	r6, [r3], #-2054	; 0xfffff7fa
    1970:	054b0905 	strbeq	r0, [fp, #-2309]	; 0xfffff6fb
    1974:	05010612 	streq	r0, [r1, #-1554]	; 0xfffff9ee
    1978:	16bb0605 	ldrtne	r0, [fp], r5, lsl #12
    197c:	34066606 	strcc	r6, [r6], #-1542	; 0xfffff9fa
    1980:	13060105 	movwne	r0, #24837	; 0x6105
    1984:	00080266 	andeq	r0, r8, r6, ror #4
    1988:	00bd0101 	adcseq	r0, sp, r1, lsl #2
    198c:	00030000 	andeq	r0, r3, r0
    1990:	0000007f 	andeq	r0, r0, pc, ror r0
    1994:	0efb0102 	cdpeq	1, 15, cr0, cr11, cr2, {0}
    1998:	0101000d 	tsteq	r1, sp
    199c:	00000101 	andeq	r0, r0, r1, lsl #2
    19a0:	00000100 	andeq	r0, r0, r0, lsl #2
    19a4:	6c2f2e01 	stcvs	14, cr2, [pc], #-4	; 19a8 <__code_start__-0x6658>
    19a8:	00636269 	rsbeq	r6, r3, r9, ror #4
    19ac:	6573552f 	ldrbvs	r5, [r3, #-1327]!	; 0xfffffad1
    19b0:	652f7372 	strvs	r7, [pc, #-882]!	; 1646 <__code_start__-0x69ba>
    19b4:	62636972 	rsbvs	r6, r3, #1867776	; 0x1c8000
    19b8:	2f726165 	svccs	0x00726165
    19bc:	75636f44 	strbvc	r6, [r3, #-3908]!	; 0xfffff0bc
    19c0:	746e656d 	strbtvc	r6, [lr], #-1389	; 0xfffffa93
    19c4:	53432f73 	movtpl	r2, #16243	; 0x3f73
    19c8:	45303431 	ldrmi	r3, [r0, #-1073]!	; 0xfffffbcf
    19cc:	3173632f 	cmncc	r3, pc, lsr #6
    19d0:	2d453034 	stclcs	0, cr3, [r5, #-208]	; 0xffffff30
    19d4:	616e6966 	cmnvs	lr, r6, ror #18
    19d8:	72702d6c 	rsbsvc	r2, r0, #108, 26	; 0x1b00
    19dc:	63656a6f 	cmnvs	r5, #454656	; 0x6f000
    19e0:	696c2f74 	stmdbvs	ip!, {r2, r4, r5, r6, r8, r9, sl, fp, sp}^
    19e4:	322d7362 	eorcc	r7, sp, #-2013265919	; 0x88000001
    19e8:	786c3034 	stmdavc	ip!, {r2, r4, r5, ip, sp}^
    19ec:	62696c2f 	rsbvs	r6, r9, #12032	; 0x2f00
    19f0:	692f6970 	stmdbvs	pc!, {r4, r5, r6, r8, fp, sp, lr}	; <UNPREDICTABLE>
    19f4:	756c636e 	strbvc	r6, [ip, #-878]!	; 0xfffffc92
    19f8:	00006564 	andeq	r6, r0, r4, ror #10
    19fc:	63747570 	cmnvs	r4, #112, 10	; 0x1c000000
    1a00:	2e726168 	rpwcssz	f6, f2, #0.0
    1a04:	00010063 	andeq	r0, r1, r3, rrx
    1a08:	69707200 	ldmdbvs	r0!, {r9, ip, sp, lr}^
    1a0c:	0200682e 	andeq	r6, r0, #3014656	; 0x2e0000
    1a10:	05000000 	streq	r0, [r0, #-0]
    1a14:	02050024 	andeq	r0, r5, #36, 0	; 0x24
    1a18:	000087c4 	andeq	r8, r0, r4, asr #15
    1a1c:	05010614 	streq	r0, [r1, #-1556]	; 0xfffff9ec
    1a20:	054a0626 	strbeq	r0, [sl, #-1574]	; 0xfffff9da
    1a24:	01052e34 	tsteq	r5, r4, lsr lr
    1a28:	1b050106 	blne	141e48 <__bss_end__+0x137b28>
    1a2c:	05054f06 	streq	r4, [r5, #-3846]	; 0xfffff0fa
    1a30:	06110513 			; <UNDEFINED> instruction: 0x06110513
    1a34:	67010501 	strvs	r0, [r1, -r1, lsl #10]
    1a38:	67062305 	strvs	r2, [r6, -r5, lsl #6]
    1a3c:	05130505 	ldreq	r0, [r3, #-1285]	; 0xfffffafb
    1a40:	05010611 	streq	r0, [r1, #-1553]	; 0xfffff9ef
    1a44:	04024b01 	streq	r4, [r2], #-2817	; 0xfffff4ff
    1a48:	ca010100 	bgt	41e50 <__bss_end__+0x37b30>
    1a4c:	03000000 	movweq	r0, #0
    1a50:	00007c00 	andeq	r7, r0, r0, lsl #24
    1a54:	fb010200 	blx	4225e <__bss_end__+0x37f3e>
    1a58:	01000d0e 	tsteq	r0, lr, lsl #26
    1a5c:	00010101 	andeq	r0, r1, r1, lsl #2
    1a60:	00010000 	andeq	r0, r1, r0
    1a64:	2f2e0100 	svccs	0x002e0100
    1a68:	6362696c 	cmnvs	r2, #108, 18	; 0x1b0000
    1a6c:	73552f00 	cmpvc	r5, #0, 30
    1a70:	2f737265 	svccs	0x00737265
    1a74:	63697265 	cmnvs	r9, #1342177286	; 0x50000006
    1a78:	72616562 	rsbvc	r6, r1, #411041792	; 0x18800000
    1a7c:	636f442f 	cmnvs	pc, #788529152	; 0x2f000000
    1a80:	6e656d75 	mcrvs	13, 3, r6, cr5, cr5, {3}
    1a84:	432f7374 			; <UNDEFINED> instruction: 0x432f7374
    1a88:	30343153 	eorscc	r3, r4, r3, asr r1
    1a8c:	73632f45 	cmnvc	r3, #276	; 0x114
    1a90:	45303431 	ldrmi	r3, [r0, #-1073]!	; 0xfffffbcf
    1a94:	6e69662d 	cdpvs	6, 6, cr6, cr9, cr13, {1}
    1a98:	702d6c61 	eorvc	r6, sp, r1, ror #24
    1a9c:	656a6f72 	strbvs	r6, [sl, #-3954]!	; 0xfffff08e
    1aa0:	6c2f7463 	cfstrsvs	mvf7, [pc], #-396	; 191c <__code_start__-0x66e4>
    1aa4:	2d736269 	lfmcs	f6, 2, [r3, #-420]!	; 0xfffffe5c
    1aa8:	6c303432 	cfldrsvs	mvf3, [r0], #-200	; 0xffffff38
    1aac:	696c2f78 	stmdbvs	ip!, {r3, r4, r5, r6, r8, r9, sl, fp, sp}^
    1ab0:	2f697062 	svccs	0x00697062
    1ab4:	6c636e69 	stclvs	14, cr6, [r3], #-420	; 0xfffffe5c
    1ab8:	00656475 	rsbeq	r6, r5, r5, ror r4
    1abc:	74757000 	ldrbtvc	r7, [r5], #-0
    1ac0:	00632e6b 	rsbeq	r2, r3, fp, ror #28
    1ac4:	72000001 	andvc	r0, r0, #1, 0
    1ac8:	682e6970 	stmdavs	lr!, {r4, r5, r6, r8, fp, sp, lr}
    1acc:	00000200 	andeq	r0, r0, r0, lsl #4
    1ad0:	00220500 	eoreq	r0, r2, r0, lsl #10
    1ad4:	88000205 	stmdahi	r0, {r0, r2, r9}
    1ad8:	06150000 	ldreq	r0, [r5], -r0
    1adc:	06050501 	streq	r0, [r5], -r1, lsl #10
    1ae0:	000b054b 	andeq	r0, fp, fp, asr #10
    1ae4:	01010402 	tsteq	r1, r2, lsl #8
    1ae8:	02000505 	andeq	r0, r0, #20971520	; 0x1400000
    1aec:	2e060104 	adfcss	f0, f6, f4
    1af0:	02000905 	andeq	r0, r0, #81920	; 0x14000
    1af4:	4b060204 	blmi	18230c <__bss_end__+0x177fec>
    1af8:	02000f05 	andeq	r0, r0, #5, 30
    1afc:	05650204 	strbeq	r0, [r5, #-516]!	; 0xfffffdfc
    1b00:	04020010 	streq	r0, [r2], #-16
    1b04:	00010602 	andeq	r0, r1, r2, lsl #12
    1b08:	2e020402 	cdpcs	4, 0, cr0, cr2, cr2, {0}
    1b0c:	32060505 	andcc	r0, r6, #20971520	; 0x1400000
    1b10:	13060105 	movwne	r0, #24837	; 0x6105
    1b14:	01000602 	tsteq	r0, r2, lsl #12
    1b18:	00061c01 	andeq	r1, r6, r1, lsl #24
    1b1c:	16000300 	strne	r0, [r0], -r0, lsl #6
    1b20:	02000001 	andeq	r0, r0, #1, 0
    1b24:	0d0efb01 	vstreq	d15, [lr, #-4]
    1b28:	01010100 	mrseq	r0, (UNDEF: 17)
    1b2c:	00000001 	andeq	r0, r0, r1
    1b30:	01000001 	tsteq	r0, r1
    1b34:	696c2f2e 	stmdbvs	ip!, {r1, r2, r3, r5, r8, r9, sl, fp, sp}^
    1b38:	2f006362 	svccs	0x00006362
    1b3c:	2f727375 	svccs	0x00727375
    1b40:	61636f6c 	cmnvs	r3, ip, ror #30
    1b44:	65432f6c 	strbvs	r2, [r3, #-3948]	; 0xfffff094
    1b48:	72616c6c 	rsbvc	r6, r1, #108, 24	; 0x6c00
    1b4c:	6d72612f 	ldfvse	f6, [r2, #-188]!	; 0xffffff44
    1b50:	6e6f6e2d 	cdpvs	14, 6, cr6, cr15, cr13, {1}
    1b54:	61652d65 	cmnvs	r5, r5, ror #26
    1b58:	742d6962 	strtvc	r6, [sp], #-2402	; 0xfffff69e
    1b5c:	2f747365 	svccs	0x00747365
    1b60:	30322d39 	eorscc	r2, r2, r9, lsr sp
    1b64:	34713931 	ldrbtcc	r3, [r1], #-2353	; 0xfffff6cf
    1b68:	3173632d 	cmncc	r3, sp, lsr #6
    1b6c:	2f653730 	svccs	0x00653730
    1b70:	2f62696c 	svccs	0x0062696c
    1b74:	2f636367 	svccs	0x00636367
    1b78:	2d6d7261 	sfmcs	f7, 2, [sp, #-388]!	; 0xfffffe7c
    1b7c:	656e6f6e 	strbvs	r6, [lr, #-3950]!	; 0xfffff092
    1b80:	6261652d 	rsbvs	r6, r1, #188743680	; 0xb400000
    1b84:	2e392f69 	cdpcs	15, 3, cr2, cr9, cr9, {3}
    1b88:	2f312e32 	svccs	0x00312e32
    1b8c:	6c636e69 	stclvs	14, cr6, [r3], #-420	; 0xfffffe5c
    1b90:	00656475 	rsbeq	r6, r5, r5, ror r4
    1b94:	6573552f 	ldrbvs	r5, [r3, #-1327]!	; 0xfffffad1
    1b98:	652f7372 	strvs	r7, [pc, #-882]!	; 182e <__code_start__-0x67d2>
    1b9c:	62636972 	rsbvs	r6, r3, #1867776	; 0x1c8000
    1ba0:	2f726165 	svccs	0x00726165
    1ba4:	75636f44 	strbvc	r6, [r3, #-3908]!	; 0xfffff0bc
    1ba8:	746e656d 	strbtvc	r6, [lr], #-1389	; 0xfffffa93
    1bac:	53432f73 	movtpl	r2, #16243	; 0x3f73
    1bb0:	45303431 	ldrmi	r3, [r0, #-1073]!	; 0xfffffbcf
    1bb4:	3173632f 	cmncc	r3, pc, lsr #6
    1bb8:	2d453034 	stclcs	0, cr3, [r5, #-208]	; 0xffffff30
    1bbc:	616e6966 	cmnvs	lr, r6, ror #18
    1bc0:	72702d6c 	rsbsvc	r2, r0, #108, 26	; 0x1b00
    1bc4:	63656a6f 	cmnvs	r5, #454656	; 0x6f000
    1bc8:	696c2f74 	stmdbvs	ip!, {r2, r4, r5, r6, r8, r9, sl, fp, sp}^
    1bcc:	322d7362 	eorcc	r7, sp, #-2013265919	; 0x88000001
    1bd0:	786c3034 	stmdavc	ip!, {r2, r4, r5, ip, sp}^
    1bd4:	62696c2f 	rsbvs	r6, r9, #12032	; 0x2f00
    1bd8:	692f6970 	stmdbvs	pc!, {r4, r5, r6, r8, fp, sp, lr}	; <UNPREDICTABLE>
    1bdc:	756c636e 	strbvc	r6, [ip, #-878]!	; 0xfffffc92
    1be0:	00006564 	andeq	r6, r0, r4, ror #10
    1be4:	702d6176 	eorvc	r6, sp, r6, ror r1
    1be8:	746e6972 	strbtvc	r6, [lr], #-2418	; 0xfffff68e
    1bec:	00632e6b 	rsbeq	r2, r3, fp, ror #28
    1bf0:	73000001 	movwvc	r0, #1
    1bf4:	6e696474 	mcrvs	4, 3, r6, cr9, cr4, {3}
    1bf8:	63672d74 	cmnvs	r7, #116, 26	; 0x1d00
    1bfc:	00682e63 	rsbeq	r2, r8, r3, ror #28
    1c00:	72000002 	andvc	r0, r0, #2, 0
    1c04:	682e6970 	stmdavs	lr!, {r4, r5, r6, r8, fp, sp, lr}
    1c08:	00000300 	andeq	r0, r0, r0, lsl #6
    1c0c:	2d697072 	stclcs	0, cr7, [r9, #-456]!	; 0xfffffe38
    1c10:	65746e69 	ldrbvs	r6, [r4, #-3689]!	; 0xfffff197
    1c14:	6c616e72 	stclvs	14, cr6, [r1], #-456	; 0xfffffe38
    1c18:	0300682e 	movweq	r6, #2094	; 0x82e
    1c1c:	74730000 	ldrbtvc	r0, [r3], #-0
    1c20:	67726164 	ldrbvs	r6, [r2, -r4, ror #2]!
    1c24:	0200682e 	andeq	r6, r0, #3014656	; 0x2e0000
    1c28:	623c0000 	eorsvs	r0, ip, #0, 0
    1c2c:	746c6975 	strbtvc	r6, [ip], #-2421	; 0xfffff68b
    1c30:	3e6e692d 	vmulcc.f16	s13, s28, s27	; <UNPREDICTABLE>
    1c34:	00000000 	andeq	r0, r0, r0
    1c38:	001b0500 	andseq	r0, fp, r0, lsl #10
    1c3c:	88340205 	ldmdahi	r4!, {r0, r2, r9}
    1c40:	26030000 	strcs	r0, [r3], -r0
    1c44:	011d0501 	tsteq	sp, r1, lsl #10
    1c48:	01062d05 	tsteq	r6, r5, lsl #26
    1c4c:	4a2e0105 	bmi	b82068 <__bss_end__+0xb77d48>
    1c50:	51063305 	tstpl	r6, r5, lsl #6
    1c54:	05130205 	ldreq	r0, [r3, #-517]	; 0xfffffdfb
    1c58:	05010606 	streq	r0, [r1, #-1542]	; 0xfffff9fa
    1c5c:	05300602 	ldreq	r0, [r0, #-1538]!	; 0xfffff9fe
    1c60:	04020008 	streq	r0, [r2], #-8
    1c64:	02050101 	andeq	r0, r5, #1073741824	; 0x40000000
    1c68:	01040200 	mrseq	r0, R12_usr
    1c6c:	03050106 	movweq	r0, #20742	; 0x5106
    1c70:	02040200 	andeq	r0, r4, #0, 4
    1c74:	08052f06 	stmdaeq	r5, {r1, r2, r8, r9, sl, fp, sp}
    1c78:	02040200 	andeq	r0, r4, #0, 4
    1c7c:	15050106 	strne	r0, [r5, #-262]	; 0xfffffefa
    1c80:	02040200 	andeq	r0, r4, #0, 4
    1c84:	18054906 	stmdane	r5, {r1, r2, r8, fp, lr}
    1c88:	02040200 	andeq	r0, r4, #0, 4
    1c8c:	02000106 	andeq	r0, r0, #-2147483647	; 0x80000001
    1c90:	052e0204 	streq	r0, [lr, #-516]!	; 0xfffffdfc
    1c94:	05300602 	ldreq	r0, [r0, #-1538]!	; 0xfffff9fe
    1c98:	05010605 	streq	r0, [r1, #-1541]	; 0xfffff9fb
    1c9c:	054b0602 	strbeq	r0, [fp, #-1538]	; 0xfffff9fe
    1ca0:	05130601 	ldreq	r0, [r3, #-1537]	; 0xfffff9ff
    1ca4:	0531063e 	ldreq	r0, [r1, #-1598]!	; 0xfffff9c2
    1ca8:	0e051402 	cdpeq	4, 0, cr1, cr5, cr2, {0}
    1cac:	06050106 	streq	r0, [r5], -r6, lsl #2
    1cb0:	0602052e 	streq	r0, [r2], -lr, lsr #10
    1cb4:	0604052f 	streq	r0, [r4], -pc, lsr #10
    1cb8:	06030501 	streq	r0, [r3], -r1, lsl #10
    1cbc:	0611052f 	ldreq	r0, [r1], -pc, lsr #10
    1cc0:	2e090501 	cfsh32cs	mvfx0, mvfx9, #1
    1cc4:	30060205 	andcc	r0, r6, r5, lsl #4
    1cc8:	06070515 			; <UNDEFINED> instruction: 0x06070515
    1ccc:	2e020501 	cfsh32cs	mvfx0, mvfx2, #1
    1cd0:	02000b05 	andeq	r0, r0, #5120	; 0x1400
    1cd4:	2e060104 	adfcss	f0, f6, f4
    1cd8:	02000205 	andeq	r0, r0, #1342177280	; 0x50000000
    1cdc:	01060104 	tsteq	r6, r4, lsl #2
    1ce0:	02000305 	andeq	r0, r0, #335544320	; 0x14000000
    1ce4:	2f060304 	svccs	0x00060304
    1ce8:	02000c05 	andeq	r0, r0, #1280	; 0x500
    1cec:	01060304 	tsteq	r6, r4, lsl #6
    1cf0:	02000a05 	andeq	r0, r0, #20480	; 0x5000
    1cf4:	052e0304 	streq	r0, [lr, #-772]!	; 0xfffffcfc
    1cf8:	04020017 	streq	r0, [r2], #-23	; 0xffffffe9
    1cfc:	002d0603 	eoreq	r0, sp, r3, lsl #12
    1d00:	06030402 	streq	r0, [r3], -r2, lsl #8
    1d04:	06020501 	streq	r0, [r2], -r1, lsl #10
    1d08:	06090530 			; <UNDEFINED> instruction: 0x06090530
    1d0c:	02052e01 	andeq	r2, r5, #1, 28
    1d10:	01053006 	tsteq	r5, r6
    1d14:	49051306 	stmdbmi	r5, {r1, r2, r8, r9, ip}
    1d18:	01063106 	tsteq	r6, r6, lsl #2
    1d1c:	a0060205 	andge	r0, r6, r5, lsl #4
    1d20:	01060405 	tsteq	r6, r5, lsl #8
    1d24:	2f060305 	svccs	0x00060305
    1d28:	01060905 	tsteq	r6, r5, lsl #18
    1d2c:	30060205 	andcc	r0, r6, r5, lsl #4
    1d30:	060b0513 			; <UNDEFINED> instruction: 0x060b0513
    1d34:	06020501 	streq	r0, [r2], -r1, lsl #10
    1d38:	052e0630 	streq	r0, [lr, #-1584]!	; 0xfffff9d0
    1d3c:	24020604 	strcs	r0, [r2], #-1540	; 0xfffff9fc
    1d40:	0f051315 	svceq	0x00051315
    1d44:	052e0106 	streq	r0, [lr, #-262]!	; 0xfffffefa
    1d48:	05054a06 	streq	r4, [r5, #-2566]	; 0xfffff5fa
    1d4c:	05134b06 	ldreq	r4, [r3, #-2822]	; 0xfffff4fa
    1d50:	05010609 	streq	r0, [r1, #-1545]	; 0xfffff9f7
    1d54:	052f0605 	streq	r0, [pc, #-1541]!	; 1757 <__code_start__-0x68a9>
    1d58:	0510060b 	ldreq	r0, [r0, #-1547]	; 0xfffff9f5
    1d5c:	0402000d 	streq	r0, [r2], #-13
    1d60:	04052c01 	streq	r2, [r5], #-3073	; 0xfffff3ff
    1d64:	01040200 	mrseq	r0, R12_usr
    1d68:	05053406 	streq	r3, [r5, #-1030]	; 0xfffffbfa
    1d6c:	01040200 	mrseq	r0, R12_usr
    1d70:	001b0513 	andseq	r0, fp, r3, lsl r5
    1d74:	06010402 	streq	r0, [r1], -r2, lsl #8
    1d78:	00070501 	andeq	r0, r7, r1, lsl #10
    1d7c:	d6010402 	strle	r0, [r1], -r2, lsl #8
    1d80:	02001805 	andeq	r1, r0, #327680	; 0x50000
    1d84:	052e0104 	streq	r0, [lr, #-260]!	; 0xfffffefc
    1d88:	0402000a 	streq	r0, [r2], #-10
    1d8c:	0b054a01 	bleq	154598 <__bss_end__+0x14a278>
    1d90:	01040200 	mrseq	r0, R12_usr
    1d94:	0e052f06 	cdpeq	15, 0, cr2, cr5, cr6, {0}
    1d98:	01040200 	mrseq	r0, R12_usr
    1d9c:	04052e06 	streq	r2, [r5], #-3590	; 0xfffff1fa
    1da0:	01040200 	mrseq	r0, R12_usr
    1da4:	054b062e 	strbeq	r0, [fp, #-1582]	; 0xfffff9d2
    1da8:	05010606 	streq	r0, [r1, #-1542]	; 0xfffff9fa
    1dac:	052f0605 	streq	r0, [pc, #-1541]!	; 17af <__code_start__-0x6851>
    1db0:	0501060a 	streq	r0, [r1, #-1546]	; 0xfffff9f6
    1db4:	052e4a07 	streq	r4, [lr, #-2567]!	; 0xfffff5f9
    1db8:	2e76030d 	cdpcs	3, 7, cr0, cr6, cr13, {0}
    1dbc:	0d0b054a 	cfstr32eq	mvfx0, [fp, #-296]	; 0xfffffed8
    1dc0:	02000d05 	andeq	r0, r0, #320	; 0x140
    1dc4:	03060104 	movweq	r0, #24836	; 0x6104
    1dc8:	11052e14 	tstne	r5, r4, lsl lr
    1dcc:	01040200 	mrseq	r0, R12_usr
    1dd0:	002d0513 	eoreq	r0, sp, r3, lsl r5
    1dd4:	06010402 	streq	r0, [r1], -r2, lsl #8
    1dd8:	002a0501 	eoreq	r0, sl, r1, lsl #10
    1ddc:	2e010402 	cdpcs	4, 0, cr0, cr1, cr2, {0}
    1de0:	02001605 	andeq	r1, r0, #5242880	; 0x500000
    1de4:	054a0104 	strbeq	r0, [sl, #-260]	; 0xfffffefc
    1de8:	04020014 	streq	r0, [r2], #-20	; 0xffffffec
    1dec:	054b0601 	strbeq	r0, [fp, #-1537]	; 0xfffff9ff
    1df0:	0402000d 	streq	r0, [r2], #-13
    1df4:	00010601 	andeq	r0, r1, r1, lsl #12
    1df8:	4a010402 	bmi	42e08 <__bss_end__+0x38ae8>
    1dfc:	12052f06 	andne	r2, r5, #6, 30
    1e00:	054a0106 	strbeq	r0, [sl, #-262]	; 0xfffffefa
    1e04:	052f060d 	streq	r0, [pc, #-1549]!	; 17ff <__code_start__-0x6801>
    1e08:	05010612 	streq	r0, [r1, #-1554]	; 0xfffff9ee
    1e0c:	054b0619 	strbeq	r0, [fp, #-1561]	; 0xfffff9e7
    1e10:	04020004 	streq	r0, [r2], #-4
    1e14:	01110302 	tsteq	r1, r2, lsl #6
    1e18:	02040200 	andeq	r0, r4, #0, 4
    1e1c:	00020501 	andeq	r0, r2, r1, lsl #10
    1e20:	15020402 	strne	r0, [r2, #-1026]	; 0xfffffbfe
    1e24:	02000905 	andeq	r0, r0, #81920	; 0x14000
    1e28:	01060204 	tsteq	r6, r4, lsl #4
    1e2c:	02040200 	andeq	r0, r4, #0, 4
    1e30:	0001054a 	andeq	r0, r1, sl, asr #10
    1e34:	9f020402 	svcls	0x00020402
    1e38:	03060405 	movweq	r0, #25605	; 0x6405
    1e3c:	09054a6e 	stmdbeq	r5, {r1, r2, r3, r5, r6, r9, fp, lr}
    1e40:	04050106 	streq	r0, [r5], #-262	; 0xfffffefa
    1e44:	06052f06 	streq	r2, [r5], -r6, lsl #30
    1e48:	04051106 	streq	r1, [r5], #-262	; 0xfffffefa
    1e4c:	030b052f 	movweq	r0, #46383	; 0xb52f
    1e50:	19052e63 	stmdbne	r5, {r0, r1, r5, r6, r9, sl, fp, sp}
    1e54:	01040200 	mrseq	r0, R12_usr
    1e58:	2e240306 	cdpcs	3, 2, cr0, cr4, cr6, {0}
    1e5c:	02001a05 	andeq	r1, r0, #20480	; 0x5000
    1e60:	05130104 	ldreq	r0, [r3, #-260]	; 0xfffffefc
    1e64:	04020028 	streq	r0, [r2], #-40	; 0xffffffd8
    1e68:	05010601 	streq	r0, [r1, #-1537]	; 0xfffff9ff
    1e6c:	04020025 	streq	r0, [r2], #-37	; 0xffffffdb
    1e70:	1f052e01 	svcne	0x00052e01
    1e74:	01040200 	mrseq	r0, R12_usr
    1e78:	000b054a 	andeq	r0, fp, sl, asr #10
    1e7c:	06010402 	streq	r0, [r1], -r2, lsl #8
    1e80:	0004054b 	andeq	r0, r4, fp, asr #10
    1e84:	06010402 	streq	r0, [r1], -r2, lsl #8
    1e88:	04020001 	streq	r0, [r2], #-1
    1e8c:	02004a01 	andeq	r4, r0, #4096	; 0x1000
    1e90:	4e060104 	adfmis	f0, f6, f4
    1e94:	01040200 	mrseq	r0, R12_usr
    1e98:	04020001 	streq	r0, [r2], #-1
    1e9c:	02000101 	andeq	r0, r0, #1073741824	; 0x40000000
    1ea0:	00010104 	andeq	r0, r1, r4, lsl #2
    1ea4:	06010402 	streq	r0, [r1], -r2, lsl #8
    1ea8:	0402002e 	streq	r0, [r2], #-46	; 0xffffffd2
    1eac:	02006601 	andeq	r6, r0, #1048576	; 0x100000
    1eb0:	002e0104 	eoreq	r0, lr, r4, lsl #2
    1eb4:	06010402 	streq	r0, [r1], -r2, lsl #8
    1eb8:	0348054a 	movteq	r0, #34122	; 0x854a
    1ebc:	20087fa6 	andcs	r7, r8, r6, lsr #31
    1ec0:	01130505 	tsteq	r3, r5, lsl #10
    1ec4:	02002e06 	andeq	r2, r0, #96	; 0x60
    1ec8:	2e060204 	cdpcs	2, 0, cr0, cr6, cr4, {0}
    1ecc:	02040200 	andeq	r0, r4, #0, 4
    1ed0:	04020001 	streq	r0, [r2], #-1
    1ed4:	11051302 	tstne	r5, r2, lsl #6
    1ed8:	02040200 	andeq	r0, r4, #0, 4
    1edc:	05050106 	streq	r0, [r5, #-262]	; 0xfffffefa
    1ee0:	02040200 	andeq	r0, r4, #0, 4
    1ee4:	07054b06 	streq	r4, [r5, -r6, lsl #22]
    1ee8:	02040200 	andeq	r0, r4, #0, 4
    1eec:	09050106 	stmdbeq	r5, {r1, r2, r8}
    1ef0:	0e054b06 	vmlaeq.f64	d4, d5, d6
    1ef4:	48050106 	stmdami	r5, {r1, r2, r8}
    1ef8:	01040200 	mrseq	r0, R12_usr
    1efc:	00050562 	andeq	r0, r5, r2, ror #10
    1f00:	06010402 	streq	r0, [r1], -r2, lsl #8
    1f04:	0402004b 	streq	r0, [r2], #-75	; 0xffffffb5
    1f08:	02000101 	andeq	r0, r0, #1073741824	; 0x40000000
    1f0c:	9e060104 	adflss	f0, f6, f4
    1f10:	01040200 	mrseq	r0, R12_usr
    1f14:	0402002e 	streq	r0, [r2], #-46	; 0xffffffd2
    1f18:	052e0601 	streq	r0, [lr, #-1537]!	; 0xfffff9ff
    1f1c:	00e10340 	rsceq	r0, r1, r0, asr #6
    1f20:	050106d6 	streq	r0, [r1, #-1750]	; 0xfffff92a
    1f24:	059f0602 	ldreq	r0, [pc, #1538]	; 252e <__code_start__-0x5ad2>
    1f28:	0501061e 	streq	r0, [r1, #-1566]	; 0xfffff9e2
    1f2c:	05052e12 	streq	r2, [r5, #-3602]	; 0xfffff1ee
    1f30:	02052f06 	andeq	r2, r5, #6, 30
    1f34:	06090514 			; <UNDEFINED> instruction: 0x06090514
    1f38:	06050501 	streq	r0, [r5], -r1, lsl #10
    1f3c:	1302054b 	movwne	r0, #9547	; 0x254b
    1f40:	0d060805 	stceq	8, cr0, [r6, #-20]	; 0xffffffec
    1f44:	05330205 	ldreq	r0, [r3, #-517]!	; 0xfffffdfb
    1f48:	054c0604 	strbeq	r0, [ip, #-1540]	; 0xfffff9fc
    1f4c:	0501060f 	streq	r0, [r1, #-1551]	; 0xfffff9f1
    1f50:	08052e09 	stmdaeq	r5, {r0, r3, r9, sl, fp, sp}
    1f54:	02052c06 	andeq	r2, r5, #1536	; 0x600
    1f58:	0d052e06 	stceq	14, cr2, [r5, #-24]	; 0xffffffe8
    1f5c:	01040200 	mrseq	r0, R12_usr
    1f60:	0603054a 	streq	r0, [r3], -sl, asr #10
    1f64:	0605054b 	streq	r0, [r5], -fp, asr #10
    1f68:	06080501 	streq	r0, [r8], -r1, lsl #10
    1f6c:	060e054d 	streq	r0, [lr], -sp, asr #10
    1f70:	2e0a0501 	cfsh32cs	mvfx0, mvfx10, #1
    1f74:	2f060405 	svccs	0x00060405
    1f78:	01060905 	tsteq	r6, r5, lsl #18
    1f7c:	2f060405 	svccs	0x00060405
    1f80:	01060705 	tsteq	r6, r5, lsl #14
    1f84:	0604052e 	streq	r0, [r4], -lr, lsr #10
    1f88:	06070530 			; <UNDEFINED> instruction: 0x06070530
    1f8c:	06040501 	streq	r0, [r4], -r1, lsl #10
    1f90:	05141330 	ldreq	r1, [r4, #-816]	; 0xfffffcd0
    1f94:	0510060d 	ldreq	r0, [r0, #-1549]	; 0xfffff9f3
    1f98:	05300609 	ldreq	r0, [r0, #-1545]!	; 0xfffff9f7
    1f9c:	05010612 	streq	r0, [r1, #-1554]	; 0xfffff9ee
    1fa0:	09052e0a 	stmdbeq	r5, {r1, r3, r9, sl, fp, sp}
    1fa4:	06050566 	streq	r0, [r5], -r6, ror #10
    1fa8:	0612054b 	ldreq	r0, [r2], -fp, asr #10
    1fac:	2e160501 	cfmul32cs	mvfx0, mvfx6, mvfx1
    1fb0:	052e0b05 	streq	r0, [lr, #-2821]!	; 0xfffff4fb
    1fb4:	052f0605 	streq	r0, [pc, #-1541]!	; 19b7 <__code_start__-0x6649>
    1fb8:	2e010608 	cfmadd32cs	mvax0, mvfx0, mvfx1, mvfx8
    1fbc:	30060405 	andcc	r0, r6, r5, lsl #8
    1fc0:	15014a01 	strne	r4, [r1, #-2561]	; 0xfffff5ff
    1fc4:	01040200 	mrseq	r0, R12_usr
    1fc8:	000f3602 	andeq	r3, pc, r2, lsl #12
    1fcc:	01010402 	tsteq	r1, r2, lsl #8
    1fd0:	01040200 	mrseq	r0, R12_usr
    1fd4:	341105d6 	ldrcc	r0, [r1], #-1494	; 0xfffffa2a
    1fd8:	02000113 	andeq	r0, r0, #-1073741820	; 0xc0000004
    1fdc:	ba060204 	blt	1827f4 <__bss_end__+0x1784d4>
    1fe0:	03040200 	movweq	r0, #16896	; 0x4200
    1fe4:	0200ba06 	andeq	fp, r0, #24576	; 0x6000
    1fe8:	00010304 	andeq	r0, r1, r4, lsl #6
    1fec:	14030402 	strne	r0, [r3], #-1026	; 0xfffffbfe
    1ff0:	02001505 	andeq	r1, r0, #20971520	; 0x1400000
    1ff4:	01060304 	tsteq	r6, r4, lsl #6
    1ff8:	02001105 	andeq	r1, r0, #1073741825	; 0x40000001
    1ffc:	2f060304 	svccs	0x00060304
    2000:	02001a05 	andeq	r1, r0, #20480	; 0x5000
    2004:	01060304 	tsteq	r6, r4, lsl #6
    2008:	02001105 	andeq	r1, r0, #1073741825	; 0x40000001
    200c:	d7060304 	strle	r0, [r6, -r4, lsl #6]
    2010:	03040200 	movweq	r0, #16896	; 0x4200
    2014:	04020013 	streq	r0, [r2], #-19	; 0xffffffed
    2018:	02001403 	andeq	r1, r0, #50331648	; 0x3000000
    201c:	00670304 	rsbeq	r0, r7, r4, lsl #6
    2020:	68030402 	stmdavs	r3, {r1, sl}
    2024:	02001405 	andeq	r1, r0, #83886080	; 0x5000000
    2028:	01060304 	tsteq	r6, r4, lsl #6
    202c:	02001305 	andeq	r1, r0, #335544320	; 0x14000000
    2030:	05820304 	streq	r0, [r2, #772]	; 0x304
    2034:	054e0618 	strbeq	r0, [lr, #-1560]	; 0xfffff9e8
    2038:	0501061b 	streq	r0, [r1, #-1563]	; 0xfffff9e5
    203c:	0905821a 	stmdbeq	r5, {r1, r3, r4, r9, pc}
    2040:	0d054b06 	vstreq	d4, [r5, #-24]	; 0xffffffe8
    2044:	052e0106 	streq	r0, [lr, #-262]!	; 0xfffffefa
    2048:	06f30609 	ldrbteq	r0, [r3], r9, lsl #12
    204c:	061505ba 			; <UNDEFINED> instruction: 0x061505ba
    2050:	06180530 			; <UNDEFINED> instruction: 0x06180530
    2054:	66170501 	ldrvs	r0, [r7], -r1, lsl #10
    2058:	4b061905 	blmi	188474 <__bss_end__+0x17e154>
    205c:	03061505 	movweq	r1, #25861	; 0x6505
    2060:	1105666f 	tstne	r5, pc, ror #12
    2064:	d6014806 	strle	r4, [r1], -r6, lsl #16
    2068:	0b030905 	bleq	c4484 <__bss_end__+0xba164>
    206c:	060d052e 	streq	r0, [sp], -lr, lsr #10
    2070:	09052e01 	stmdbeq	r5, {r0, r9, sl, fp, sp}
    2074:	ba06f306 	blt	1bec94 <__bss_end__+0x1b4974>
    2078:	2f061505 	svccs	0x00061505
    207c:	66750306 	ldrbtvs	r0, [r5], -r6, lsl #6
    2080:	03061905 	movweq	r1, #26885	; 0x6905
    2084:	15054a13 	strne	r4, [r5, #-2579]	; 0xfffff5ed
    2088:	666d0306 	strbtvs	r0, [sp], -r6, lsl #6
    208c:	4a150306 	bmi	542cac <__bss_end__+0x53898c>
    2090:	2e06ba01 	vmlacs.f32	s22, s12, s2
    2094:	1a060505 	bne	1834b0 <__bss_end__+0x179190>
    2098:	032e9e01 			; <UNDEFINED> instruction: 0x032e9e01
    209c:	0905010e 	stmdbeq	r5, {r1, r2, r3, r8}
    20a0:	05050106 	streq	r0, [r5, #-262]	; 0xfffffefa
    20a4:	05750806 	ldrbeq	r0, [r5, #-2054]!	; 0xfffff7fa
    20a8:	01180304 	tsteq	r8, r4, lsl #6
    20ac:	01060705 	tsteq	r6, r5, lsl #14
    20b0:	31060405 	tstcc	r6, r5, lsl #8
    20b4:	67030505 	strvs	r0, [r3, -r5, lsl #10]
    20b8:	061c052e 	ldreq	r0, [ip], -lr, lsr #10
    20bc:	82090501 	andhi	r0, r9, #4194304	; 0x400000
    20c0:	f3060505 	vrshl.u8	d0, d5, d6
    20c4:	061c0531 			; <UNDEFINED> instruction: 0x061c0531
    20c8:	82090501 	andhi	r0, r9, #4194304	; 0x400000
    20cc:	f3060505 	vrshl.u8	d0, d5, d6
    20d0:	061b0530 			; <UNDEFINED> instruction: 0x061b0530
    20d4:	82090501 	andhi	r0, r9, #4194304	; 0x400000
    20d8:	f3060505 	vrshl.u8	d0, d5, d6
    20dc:	06070530 			; <UNDEFINED> instruction: 0x06070530
    20e0:	06050501 	streq	r0, [r5], -r1, lsl #10
    20e4:	09053083 	stmdbeq	r5, {r0, r1, r7, ip, sp}
    20e8:	05050106 	streq	r0, [r5, #-262]	; 0xfffffefa
    20ec:	05750806 	ldrbeq	r0, [r5, #-2054]!	; 0xfffff7fa
    20f0:	22053011 	andcs	r3, r5, #17, 0
    20f4:	05050106 	streq	r0, [r5, #-262]	; 0xfffffefa
    20f8:	11054b06 	tstne	r5, r6, lsl #22
    20fc:	83050583 	movwhi	r0, #21891	; 0x5583
    2100:	05359e01 	ldreq	r9, [r5, #-3585]!	; 0xfffff1ff
    2104:	0501060e 	streq	r0, [r1, #-1550]	; 0xfffff9f2
    2108:	2d062e0a 	stccs	14, cr2, [r6, #-40]	; 0xffffffd8
    210c:	01060405 	tsteq	r6, r5, lsl #8
    2110:	02001305 	andeq	r1, r0, #335544320	; 0x14000000
    2114:	054a0104 	strbeq	r0, [sl, #-260]	; 0xfffffefc
    2118:	04020010 	streq	r0, [r2], #-16
    211c:	02002e01 	andeq	r2, r0, #1, 28
    2120:	05660104 	strbeq	r0, [r6, #-260]!	; 0xfffffefc
    2124:	05160602 	ldreq	r0, [r6, #-1538]	; 0xfffff9fe
    2128:	05010607 	streq	r0, [r1, #-1543]	; 0xfffff9f9
    212c:	054b0602 	strbeq	r0, [fp, #-1538]	; 0xfffff9fe
    2130:	66130601 	ldrvs	r0, [r3], -r1, lsl #12
    2134:	01001e02 	tsteq	r0, r2, lsl #28
    2138:	0000c301 	andeq	ip, r0, r1, lsl #6
    213c:	82000300 	andhi	r0, r0, #0, 6
    2140:	02000000 	andeq	r0, r0, #0, 0
    2144:	0d0efb01 	vstreq	d15, [lr, #-4]
    2148:	01010100 	mrseq	r0, (UNDEF: 17)
    214c:	00000001 	andeq	r0, r0, r1
    2150:	01000001 	tsteq	r0, r1
    2154:	74732f2e 	ldrbtvc	r2, [r3], #-3886	; 0xfffff0d2
    2158:	2d666661 	stclcs	6, cr6, [r6, #-388]!	; 0xfffffe7c
    215c:	00637273 	rsbeq	r7, r3, r3, ror r2
    2160:	6573552f 	ldrbvs	r5, [r3, #-1327]!	; 0xfffffad1
    2164:	652f7372 	strvs	r7, [pc, #-882]!	; 1dfa <__code_start__-0x6206>
    2168:	62636972 	rsbvs	r6, r3, #1867776	; 0x1c8000
    216c:	2f726165 	svccs	0x00726165
    2170:	75636f44 	strbvc	r6, [r3, #-3908]!	; 0xfffff0bc
    2174:	746e656d 	strbtvc	r6, [lr], #-1389	; 0xfffffa93
    2178:	53432f73 	movtpl	r2, #16243	; 0x3f73
    217c:	45303431 	ldrmi	r3, [r0, #-1073]!	; 0xfffffbcf
    2180:	3173632f 	cmncc	r3, pc, lsr #6
    2184:	2d453034 	stclcs	0, cr3, [r5, #-208]	; 0xffffff30
    2188:	616e6966 	cmnvs	lr, r6, ror #18
    218c:	72702d6c 	rsbsvc	r2, r0, #108, 26	; 0x1b00
    2190:	63656a6f 	cmnvs	r5, #454656	; 0x6f000
    2194:	696c2f74 	stmdbvs	ip!, {r2, r4, r5, r6, r8, r9, sl, fp, sp}^
    2198:	322d7362 	eorcc	r7, sp, #-2013265919	; 0x88000001
    219c:	786c3034 	stmdavc	ip!, {r2, r4, r5, ip, sp}^
    21a0:	62696c2f 	rsbvs	r6, r9, #12032	; 0x2f00
    21a4:	692f6970 	stmdbvs	pc!, {r4, r5, r6, r8, fp, sp, lr}	; <UNPREDICTABLE>
    21a8:	756c636e 	strbvc	r6, [ip, #-878]!	; 0xfffffc92
    21ac:	00006564 	andeq	r6, r0, r4, ror #10
    21b0:	68636163 	stmdavs	r3!, {r0, r1, r5, r6, r8, sp, lr}^
    21b4:	00632e65 	rsbeq	r2, r3, r5, ror #28
    21b8:	72000001 	andvc	r0, r0, #1, 0
    21bc:	682e6970 	stmdavs	lr!, {r4, r5, r6, r8, fp, sp, lr}
    21c0:	00000200 	andeq	r0, r0, r0, lsl #4
    21c4:	00190500 	andseq	r0, r9, r0, lsl #10
    21c8:	8f740205 	svchi	0x00740205
    21cc:	05140000 	ldreq	r0, [r4, #-0]
    21d0:	05131305 	ldreq	r1, [r3, #-773]	; 0xfffffcfb
    21d4:	05132f02 	ldreq	r2, [r3, #-3842]	; 0xfffff0fe
    21d8:	05010604 	streq	r0, [r1, #-1540]	; 0xfffff9fc
    21dc:	052f0605 	streq	r0, [pc, #-1541]!	; 1bdf <__code_start__-0x6421>
    21e0:	052f0601 	streq	r0, [pc, #-1537]!	; 1be7 <__code_start__-0x6419>
    21e4:	0531061a 	ldreq	r0, [r1, #-1562]!	; 0xfffff9e6
    21e8:	05131305 	ldreq	r1, [r3, #-773]	; 0xfffffcfb
    21ec:	05133002 	ldreq	r3, [r3, #-2]
    21f0:	05010604 	streq	r0, [r1, #-1540]	; 0xfffff9fc
    21f4:	052f0605 	streq	r0, [pc, #-1541]!	; 1bf7 <__code_start__-0x6409>
    21f8:	022f0601 	eoreq	r0, pc, #1048576	; 0x100000
    21fc:	01010002 	tsteq	r1, r2
    2200:	000000a4 	andeq	r0, r0, r4, lsr #1
    2204:	00890003 	addeq	r0, r9, r3
    2208:	01020000 	mrseq	r0, (UNDEF: 2)
    220c:	000d0efb 	strdeq	r0, [sp], -fp
    2210:	01010101 	tsteq	r1, r1, lsl #2
    2214:	01000000 	mrseq	r0, (UNDEF: 0)
    2218:	2e010000 	cdpcs	0, 0, cr0, cr1, cr0, {0}
    221c:	6174732f 	cmnvs	r4, pc, lsr #6
    2220:	732d6666 			; <UNDEFINED> instruction: 0x732d6666
    2224:	2f006372 	svccs	0x00006372
    2228:	72657355 	rsbvc	r7, r5, #1409286145	; 0x54000001
    222c:	72652f73 	rsbvc	r2, r5, #460	; 0x1cc
    2230:	65626369 	strbvs	r6, [r2, #-873]!	; 0xfffffc97
    2234:	442f7261 	strtmi	r7, [pc], #-609	; 223c <__code_start__-0x5dc4>
    2238:	6d75636f 	ldclvs	3, cr6, [r5, #-444]!	; 0xfffffe44
    223c:	73746e65 	cmnvc	r4, #1616	; 0x650
    2240:	3153432f 	cmpcc	r3, pc, lsr #6
    2244:	2f453034 	svccs	0x00453034
    2248:	34317363 	ldrtcc	r7, [r1], #-867	; 0xfffffc9d
    224c:	662d4530 			; <UNDEFINED> instruction: 0x662d4530
    2250:	6c616e69 	stclvs	14, cr6, [r1], #-420	; 0xfffffe5c
    2254:	6f72702d 	svcvs	0x0072702d
    2258:	7463656a 	strbtvc	r6, [r3], #-1386	; 0xfffffa96
    225c:	62696c2f 	rsbvs	r6, r9, #12032	; 0x2f00
    2260:	34322d73 	ldrtcc	r2, [r2], #-3443	; 0xfffff28d
    2264:	2f786c30 	svccs	0x00786c30
    2268:	7062696c 	rsbvc	r6, r2, ip, ror #18
    226c:	6e692f69 	cdpvs	15, 6, cr2, cr9, cr9, {3}
    2270:	64756c63 	ldrbtvs	r6, [r5], #-3171	; 0xfffff39d
    2274:	63000065 	movwvs	r0, #101	; 0x65
    2278:	6e61656c 	cdpvs	5, 6, cr6, cr1, cr12, {3}
    227c:	6265722d 	rsbvs	r7, r5, #-805306366	; 0xd0000002
    2280:	2e746f6f 	cdpcs	15, 7, cr6, cr4, cr15, {3}
    2284:	00010063 	andeq	r0, r1, r3, rrx
    2288:	69707200 	ldmdbvs	r0!, {r9, ip, sp, lr}^
    228c:	0200682e 	andeq	r6, r0, #3014656	; 0x2e0000
    2290:	05000000 	streq	r0, [r0, #-0]
    2294:	02050019 	andeq	r0, r5, #25, 0
    2298:	00008f94 	muleq	r0, r4, pc	; <UNPREDICTABLE>
    229c:	2f050515 	svccs	0x00050515
    22a0:	024b2f83 	subeq	r2, fp, #524	; 0x20c
    22a4:	01010006 	tsteq	r1, r6
    22a8:	000000be 	strheq	r0, [r0], -lr
    22ac:	00830003 	addeq	r0, r3, r3
    22b0:	01020000 	mrseq	r0, (UNDEF: 2)
    22b4:	000d0efb 	strdeq	r0, [sp], -fp
    22b8:	01010101 	tsteq	r1, r1, lsl #2
    22bc:	01000000 	mrseq	r0, (UNDEF: 0)
    22c0:	2e010000 	cdpcs	0, 0, cr0, cr1, cr0, {0}
    22c4:	6174732f 	cmnvs	r4, pc, lsr #6
    22c8:	732d6666 			; <UNDEFINED> instruction: 0x732d6666
    22cc:	2f006372 	svccs	0x00006372
    22d0:	72657355 	rsbvc	r7, r5, #1409286145	; 0x54000001
    22d4:	72652f73 	rsbvc	r2, r5, #460	; 0x1cc
    22d8:	65626369 	strbvs	r6, [r2, #-873]!	; 0xfffffc97
    22dc:	442f7261 	strtmi	r7, [pc], #-609	; 22e4 <__code_start__-0x5d1c>
    22e0:	6d75636f 	ldclvs	3, cr6, [r5, #-444]!	; 0xfffffe44
    22e4:	73746e65 	cmnvc	r4, #1616	; 0x650
    22e8:	3153432f 	cmpcc	r3, pc, lsr #6
    22ec:	2f453034 	svccs	0x00453034
    22f0:	34317363 	ldrtcc	r7, [r1], #-867	; 0xfffffc9d
    22f4:	662d4530 			; <UNDEFINED> instruction: 0x662d4530
    22f8:	6c616e69 	stclvs	14, cr6, [r1], #-420	; 0xfffffe5c
    22fc:	6f72702d 	svcvs	0x0072702d
    2300:	7463656a 	strbtvc	r6, [r3], #-1386	; 0xfffffa96
    2304:	62696c2f 	rsbvs	r6, r9, #12032	; 0x2f00
    2308:	34322d73 	ldrtcc	r2, [r2], #-3443	; 0xfffff28d
    230c:	2f786c30 	svccs	0x00786c30
    2310:	7062696c 	rsbvc	r6, r2, ip, ror #18
    2314:	6e692f69 	cdpvs	15, 6, cr2, cr9, cr9, {3}
    2318:	64756c63 	ldrbtvs	r6, [r5], #-3171	; 0xfffff39d
    231c:	63000065 	movwvs	r0, #101	; 0x65
    2320:	72617473 	rsbvc	r7, r1, #1929379840	; 0x73000000
    2324:	00632e74 	rsbeq	r2, r3, r4, ror lr
    2328:	72000001 	andvc	r0, r0, #1, 0
    232c:	682e6970 	stmdavs	lr!, {r4, r5, r6, r8, fp, sp, lr}
    2330:	00000200 	andeq	r0, r0, r0, lsl #4
    2334:	00100500 	andseq	r0, r0, r0, lsl #10
    2338:	8fc00205 	svchi	0x00c00205
    233c:	05150000 	ldreq	r0, [r5, #-0]
    2340:	02052f05 	andeq	r2, r5, #5, 30
    2344:	14050513 	strne	r0, [r5], #-1299	; 0xfffffaed
    2348:	05141330 	ldreq	r1, [r4, #-816]	; 0xfffffcd0
    234c:	060f060a 	streq	r0, [pc], -sl, lsl #12
    2350:	4b090531 	blmi	24381c <__bss_end__+0x2394fc>
    2354:	01061005 	tsteq	r6, r5
    2358:	0605054a 	streq	r0, [r5], -sl, asr #10
    235c:	01013230 	tsteq	r1, r0, lsr r2
    2360:	0205144a 	andeq	r1, r5, #1241513984	; 0x4a000000
    2364:	0006022f 	andeq	r0, r6, pc, lsr #4
    2368:	00a20101 	adceq	r0, r2, r1, lsl #2
    236c:	00030000 	andeq	r0, r3, r0
    2370:	0000008a 	andeq	r0, r0, sl, lsl #1
    2374:	0efb0102 	cdpeq	1, 15, cr0, cr11, cr2, {0}
    2378:	0101000d 	tsteq	r1, sp
    237c:	00000101 	andeq	r0, r0, r1, lsl #2
    2380:	00000100 	andeq	r0, r0, r0, lsl #2
    2384:	732f2e01 			; <UNDEFINED> instruction: 0x732f2e01
    2388:	66666174 			; <UNDEFINED> instruction: 0x66666174
    238c:	6372732d 	cmnvs	r2, #-1275068416	; 0xb4000000
    2390:	73552f00 	cmpvc	r5, #0, 30
    2394:	2f737265 	svccs	0x00737265
    2398:	63697265 	cmnvs	r9, #1342177286	; 0x50000006
    239c:	72616562 	rsbvc	r6, r1, #411041792	; 0x18800000
    23a0:	636f442f 	cmnvs	pc, #788529152	; 0x2f000000
    23a4:	6e656d75 	mcrvs	13, 3, r6, cr5, cr5, {3}
    23a8:	432f7374 			; <UNDEFINED> instruction: 0x432f7374
    23ac:	30343153 	eorscc	r3, r4, r3, asr r1
    23b0:	73632f45 	cmnvc	r3, #276	; 0x114
    23b4:	45303431 	ldrmi	r3, [r0, #-1073]!	; 0xfffffbcf
    23b8:	6e69662d 	cdpvs	6, 6, cr6, cr9, cr13, {1}
    23bc:	702d6c61 	eorvc	r6, sp, r1, ror #24
    23c0:	656a6f72 	strbvs	r6, [sl, #-3954]!	; 0xfffff08e
    23c4:	6c2f7463 	cfstrsvs	mvf7, [pc], #-396	; 2240 <__code_start__-0x5dc0>
    23c8:	2d736269 	lfmcs	f6, 2, [r3, #-420]!	; 0xfffffe5c
    23cc:	6c303432 	cfldrsvs	mvf3, [r0], #-200	; 0xffffff38
    23d0:	696c2f78 	stmdbvs	ip!, {r3, r4, r5, r6, r8, r9, sl, fp, sp}^
    23d4:	2f697062 	svccs	0x00697062
    23d8:	6c636e69 	stclvs	14, cr6, [r3], #-420	; 0xfffffe5c
    23dc:	00656475 	rsbeq	r6, r5, r5, ror r4
    23e0:	73756300 	cmnvc	r5, #0, 6
    23e4:	2d6d6f74 	stclcs	15, cr6, [sp, #-464]!	; 0xfffffe30
    23e8:	64616f6c 	strbtvs	r6, [r1], #-3948	; 0xfffff094
    23ec:	632e7265 			; <UNDEFINED> instruction: 0x632e7265
    23f0:	00000100 	andeq	r0, r0, r0, lsl #2
    23f4:	2e697072 	mcrcs	0, 3, r7, cr9, cr2, {3}
    23f8:	00020068 	andeq	r0, r2, r8, rrx
    23fc:	1a050000 	bne	142404 <__bss_end__+0x1380e4>
    2400:	fc020500 	stc2	5, cr0, [r2], {-0}
    2404:	1500008f 	strne	r0, [r0, #-143]	; 0xffffff71
    2408:	02140105 	andseq	r0, r4, #1073741825	; 0x40000001
    240c:	01010002 	tsteq	r1, r2
    2410:	000000f2 	strdeq	r0, [r0], -r2
    2414:	00830003 	addeq	r0, r3, r3
    2418:	01020000 	mrseq	r0, (UNDEF: 2)
    241c:	000d0efb 	strdeq	r0, [sp], -fp
    2420:	01010101 	tsteq	r1, r1, lsl #2
    2424:	01000000 	mrseq	r0, (UNDEF: 0)
    2428:	2e010000 	cdpcs	0, 0, cr0, cr1, cr0, {0}
    242c:	6174732f 	cmnvs	r4, pc, lsr #6
    2430:	732d6666 			; <UNDEFINED> instruction: 0x732d6666
    2434:	2f006372 	svccs	0x00006372
    2438:	72657355 	rsbvc	r7, r5, #1409286145	; 0x54000001
    243c:	72652f73 	rsbvc	r2, r5, #460	; 0x1cc
    2440:	65626369 	strbvs	r6, [r2, #-873]!	; 0xfffffc97
    2444:	442f7261 	strtmi	r7, [pc], #-609	; 244c <__code_start__-0x5bb4>
    2448:	6d75636f 	ldclvs	3, cr6, [r5, #-444]!	; 0xfffffe44
    244c:	73746e65 	cmnvc	r4, #1616	; 0x650
    2450:	3153432f 	cmpcc	r3, pc, lsr #6
    2454:	2f453034 	svccs	0x00453034
    2458:	34317363 	ldrtcc	r7, [r1], #-867	; 0xfffffc9d
    245c:	662d4530 			; <UNDEFINED> instruction: 0x662d4530
    2460:	6c616e69 	stclvs	14, cr6, [r1], #-420	; 0xfffffe5c
    2464:	6f72702d 	svcvs	0x0072702d
    2468:	7463656a 	strbtvc	r6, [r3], #-1386	; 0xfffffa96
    246c:	62696c2f 	rsbvs	r6, r9, #12032	; 0x2f00
    2470:	34322d73 	ldrtcc	r2, [r2], #-3443	; 0xfffff28d
    2474:	2f786c30 	svccs	0x00786c30
    2478:	7062696c 	rsbvc	r6, r2, ip, ror #18
    247c:	6e692f69 	cdpvs	15, 6, cr2, cr9, cr9, {3}
    2480:	64756c63 	ldrbtvs	r6, [r5], #-3171	; 0xfffff39d
    2484:	72000065 	andvc	r0, r0, #101, 0	; 0x65
    2488:	6f6f6265 	svcvs	0x006f6265
    248c:	00632e74 	rsbeq	r2, r3, r4, ror lr
    2490:	72000001 	andvc	r0, r0, #1, 0
    2494:	682e6970 	stmdavs	lr!, {r4, r5, r6, r8, fp, sp, lr}
    2498:	00000200 	andeq	r0, r0, r0, lsl #4
    249c:	00190500 	andseq	r0, r9, r0, lsl #10
    24a0:	90180205 	andsls	r0, r8, r5, lsl #4
    24a4:	0d030000 	stceq	0, cr0, [r3, #-0]
    24a8:	13050501 	movwne	r0, #21761	; 0x5501
    24ac:	13053113 	movwne	r3, #20755	; 0x5113
    24b0:	01050106 	tsteq	r5, r6, lsl #2
    24b4:	061b052f 	ldreq	r0, [fp], -pc, lsr #10
    24b8:	13050585 	movwne	r0, #21893	; 0x5585
    24bc:	2f090514 	svccs	0x00090514
    24c0:	01061605 	tsteq	r6, r5, lsl #12
    24c4:	052e0e05 	streq	r0, [lr, #-3589]!	; 0xfffff1fb
    24c8:	052f0605 	streq	r0, [pc, #-1541]!	; 1ecb <__code_start__-0x6135>
    24cc:	052f0601 	streq	r0, [pc, #-1537]!	; 1ed3 <__code_start__-0x612d>
    24d0:	05300617 	ldreq	r0, [r0, #-1559]!	; 0xfffff9e9
    24d4:	08052f05 	stmdaeq	r5, {r0, r2, r8, r9, sl, fp, sp}
    24d8:	07050106 	streq	r0, [r5, -r6, lsl #2]
    24dc:	0605052e 	streq	r0, [r5], -lr, lsr #10
    24e0:	4d2f3050 	stcmi	0, cr3, [pc, #-320]!	; 23a8 <__code_start__-0x5c58>
    24e4:	15131313 	ldrne	r1, [r3, #-787]	; 0xfffffced
    24e8:	04020067 	streq	r0, [r2], #-103	; 0xffffff99
    24ec:	0d056701 	stceq	7, cr6, [r5, #-4]
    24f0:	01040200 	mrseq	r0, R12_usr
    24f4:	000a0501 	andeq	r0, sl, r1, lsl #10
    24f8:	01010402 	tsteq	r1, r2, lsl #8
    24fc:	6d030905 	vstrvs.16	s0, [r3, #-10]	; <UNPREDICTABLE>
    2500:	000c022e 	andeq	r0, ip, lr, lsr #4
    2504:	00f90101 	rscseq	r0, r9, r1, lsl #2
    2508:	00030000 	andeq	r0, r3, r0
    250c:	00000082 	andeq	r0, r0, r2, lsl #1
    2510:	0efb0102 	cdpeq	1, 15, cr0, cr11, cr2, {0}
    2514:	0101000d 	tsteq	r1, sp
    2518:	00000101 	andeq	r0, r0, r1, lsl #2
    251c:	00000100 	andeq	r0, r0, r0, lsl #2
    2520:	732f2e01 			; <UNDEFINED> instruction: 0x732f2e01
    2524:	66666174 			; <UNDEFINED> instruction: 0x66666174
    2528:	6372732d 	cmnvs	r2, #-1275068416	; 0xb4000000
    252c:	73552f00 	cmpvc	r5, #0, 30
    2530:	2f737265 	svccs	0x00737265
    2534:	63697265 	cmnvs	r9, #1342177286	; 0x50000006
    2538:	72616562 	rsbvc	r6, r1, #411041792	; 0x18800000
    253c:	636f442f 	cmnvs	pc, #788529152	; 0x2f000000
    2540:	6e656d75 	mcrvs	13, 3, r6, cr5, cr5, {3}
    2544:	432f7374 			; <UNDEFINED> instruction: 0x432f7374
    2548:	30343153 	eorscc	r3, r4, r3, asr r1
    254c:	73632f45 	cmnvc	r3, #276	; 0x114
    2550:	45303431 	ldrmi	r3, [r0, #-1073]!	; 0xfffffbcf
    2554:	6e69662d 	cdpvs	6, 6, cr6, cr9, cr13, {1}
    2558:	702d6c61 	eorvc	r6, sp, r1, ror #24
    255c:	656a6f72 	strbvs	r6, [sl, #-3954]!	; 0xfffff08e
    2560:	6c2f7463 	cfstrsvs	mvf7, [pc], #-396	; 23dc <__code_start__-0x5c24>
    2564:	2d736269 	lfmcs	f6, 2, [r3, #-420]!	; 0xfffffe5c
    2568:	6c303432 	cfldrsvs	mvf3, [r0], #-200	; 0xffffff38
    256c:	696c2f78 	stmdbvs	ip!, {r3, r4, r5, r6, r8, r9, sl, fp, sp}^
    2570:	2f697062 	svccs	0x00697062
    2574:	6c636e69 	stclvs	14, cr6, [r3], #-420	; 0xfffffe5c
    2578:	00656475 	rsbeq	r6, r5, r5, ror r4
    257c:	6d697400 	cfstrdvs	mvd7, [r9, #-0]
    2580:	632e7265 			; <UNDEFINED> instruction: 0x632e7265
    2584:	00000100 	andeq	r0, r0, r0, lsl #2
    2588:	2e697072 	mcrcs	0, 3, r7, cr9, cr2, {3}
    258c:	00020068 	andeq	r0, r2, r8, rrx
    2590:	23050000 	movwcs	r0, #20480	; 0x5000
    2594:	98020500 	stmdals	r2, {r8, sl}
    2598:	15000090 	strne	r0, [r0, #-144]	; 0xffffff70
    259c:	052f0505 	streq	r0, [pc, #-1285]!	; 209f <__code_start__-0x5f61>
    25a0:	0501060c 	streq	r0, [r1, #-1548]	; 0xfffff9f4
    25a4:	1f054b01 	svcne	0x00054b01
    25a8:	05054d06 	streq	r4, [r5, #-3334]	; 0xfffff2fa
    25ac:	12052f31 	andne	r2, r5, #196	; 0xc4
    25b0:	05050106 	streq	r0, [r5, #-262]	; 0xfffffefa
    25b4:	052f4b06 	streq	r4, [pc, #-2822]!	; 1ab6 <__code_start__-0x654a>
    25b8:	05130601 	ldreq	r0, [r3, #-1537]	; 0xfffff9ff
    25bc:	064c061c 			; <UNDEFINED> instruction: 0x064c061c
    25c0:	06050501 	streq	r0, [r5], -r1, lsl #10
    25c4:	0613054b 	ldreq	r0, [r3], -fp, asr #10
    25c8:	05052e01 	streq	r2, [r5, #-3585]	; 0xfffff1ff
    25cc:	09052f06 	stmdbeq	r5, {r1, r2, r8, r9, sl, fp, sp}
    25d0:	06170513 			; <UNDEFINED> instruction: 0x06170513
    25d4:	06090501 	streq	r0, [r9], -r1, lsl #10
    25d8:	0611052f 	ldreq	r0, [r1], -pc, lsr #10
    25dc:	2e0c0501 	cfsh32cs	mvfx0, mvfx12, #1
    25e0:	6b061c05 	blvs	1895fc <__bss_end__+0x17f2dc>
    25e4:	05050106 	streq	r0, [r5, #-262]	; 0xfffffefa
    25e8:	4a062f06 	bmi	18e208 <__bss_end__+0x183ee8>
    25ec:	054b0105 	strbeq	r0, [fp, #-261]	; 0xfffffefb
    25f0:	062f061e 			; <UNDEFINED> instruction: 0x062f061e
    25f4:	06050501 	streq	r0, [r5], -r1, lsl #10
    25f8:	054a062f 	strbeq	r0, [sl, #-1583]	; 0xfffff9d1
    25fc:	02024b01 	andeq	r4, r2, #1024	; 0x400
    2600:	bb010100 	bllt	42a08 <__bss_end__+0x386e8>
    2604:	03000001 	movweq	r0, #1
    2608:	0000bf00 	andeq	fp, r0, r0, lsl #30
    260c:	fb010200 	blx	42e16 <__bss_end__+0x38af6>
    2610:	01000d0e 	tsteq	r0, lr, lsl #26
    2614:	00010101 	andeq	r0, r1, r1, lsl #2
    2618:	00010000 	andeq	r0, r1, r0
    261c:	682f0100 	stmdavs	pc!, {r8}	; <UNPREDICTABLE>
    2620:	2f656d6f 	svccs	0x00656d6f
    2624:	6c676e65 	stclvs	14, cr6, [r7], #-404	; 0xfffffe6c
    2628:	632f7265 			; <UNDEFINED> instruction: 0x632f7265
    262c:	7373616c 	cmnvc	r3, #27
    2630:	3273632f 	rsbscc	r6, r3, #-1140850688	; 0xbc000000
    2634:	786c3034 	stmdavc	ip!, {r2, r4, r5, ip, sp}^
    2638:	7332322d 	teqvc	r2, #-805306366	; 0xd0000002
    263c:	2f2f7270 	svccs	0x002f7270
    2640:	7062696c 	rsbvc	r6, r2, ip, ror #18
    2644:	6e692f69 	cdpvs	15, 6, cr2, cr9, cr9, {3}
    2648:	64756c63 	ldrbtvs	r6, [r5], #-3171	; 0xfffff39d
    264c:	752f0065 	strvc	r0, [pc, #-101]!	; 25ef <__code_start__-0x5a11>
    2650:	732f7273 			; <UNDEFINED> instruction: 0x732f7273
    2654:	65726168 	ldrbvs	r6, [r2, #-360]!	; 0xfffffe98
    2658:	6363672f 	cmnvs	r3, #12320768	; 0xbc0000
    265c:	6d72612d 	ldfvse	f6, [r2, #-180]!	; 0xffffff4c
    2660:	6e6f6e2d 	cdpvs	14, 6, cr6, cr15, cr13, {1}
    2664:	61652d65 	cmnvs	r5, r5, ror #26
    2668:	312d6962 			; <UNDEFINED> instruction: 0x312d6962
    266c:	2d332e30 	ldccs	14, cr2, [r3, #-192]!	; 0xffffff40
    2670:	31323032 	teqcc	r2, r2, lsr r0
    2674:	2f30312e 	svccs	0x0030312e
    2678:	2f62696c 	svccs	0x0062696c
    267c:	2f636367 	svccs	0x00636367
    2680:	2d6d7261 	sfmcs	f7, 2, [sp, #-388]!	; 0xfffffe7c
    2684:	656e6f6e 	strbvs	r6, [lr, #-3950]!	; 0xfffff092
    2688:	6261652d 	rsbvs	r6, r1, #188743680	; 0xb400000
    268c:	30312f69 	eorscc	r2, r1, r9, ror #30
    2690:	312e332e 			; <UNDEFINED> instruction: 0x312e332e
    2694:	636e692f 	cmnvs	lr, #770048	; 0xbc000
    2698:	6564756c 	strbvs	r7, [r4, #-1388]!	; 0xfffffa94
    269c:	70670000 	rsbvc	r0, r7, r0
    26a0:	632e6f69 			; <UNDEFINED> instruction: 0x632e6f69
    26a4:	00000000 	andeq	r0, r0, r0
    26a8:	2e697072 	mcrcs	0, 3, r7, cr9, cr2, {3}
    26ac:	00010068 	andeq	r0, r1, r8, rrx
    26b0:	64747300 	ldrbtvs	r7, [r4], #-768	; 0xfffffd00
    26b4:	2d746e69 	ldclcs	14, cr6, [r4, #-420]!	; 0xfffffe5c
    26b8:	2e636367 	cdpcs	3, 6, cr6, cr3, cr7, {3}
    26bc:	00020068 	andeq	r0, r2, r8, rrx
    26c0:	69706700 	ldmdbvs	r0!, {r8, r9, sl, sp, lr}^
    26c4:	00682e6f 	rsbeq	r2, r8, pc, ror #28
    26c8:	00000001 	andeq	r0, r0, r1
    26cc:	05003805 	streq	r3, [r0, #-2053]	; 0xfffff7fb
    26d0:	00911c02 	addseq	r1, r1, r2, lsl #24
    26d4:	01270300 			; <UNDEFINED> instruction: 0x01270300
    26d8:	05130505 	ldreq	r0, [r3, #-1285]	; 0xfffffafb
    26dc:	05010607 	streq	r0, [r1, #-1543]	; 0xfffff9f9
    26e0:	05054938 	streq	r4, [r5, #-2360]	; 0xfffff6c8
    26e4:	07054d06 	streq	r4, [r5, -r6, lsl #26]
    26e8:	05050106 	streq	r0, [r5, #-262]	; 0xfffffefa
    26ec:	18054c06 	stmdane	r5, {r1, r2, sl, fp, lr}
    26f0:	0e050106 	adfeqs	f0, f5, f6
    26f4:	060505ba 			; <UNDEFINED> instruction: 0x060505ba
    26f8:	061c052f 	ldreq	r0, [ip], -pc, lsr #10
    26fc:	0e052e01 	cdpeq	14, 0, cr2, cr5, cr1, {0}
    2700:	0605052e 	streq	r0, [r5], -lr, lsr #10
    2704:	06120530 			; <UNDEFINED> instruction: 0x06120530
    2708:	06050501 	streq	r0, [r5], -r1, lsl #10
    270c:	0607054b 	streq	r0, [r7], -fp, asr #10
    2710:	06050501 	streq	r0, [r5], -r1, lsl #10
    2714:	2e06134b 	cdpcs	3, 0, cr1, cr6, cr11, {2}
    2718:	054b0105 	strbeq	r0, [fp, #-261]	; 0xfffffefb
    271c:	064c0624 	strbeq	r0, [ip], -r4, lsr #12
    2720:	06050501 	streq	r0, [r5], -r1, lsl #10
    2724:	0601052f 	streq	r0, [r1], -pc, lsr #10
    2728:	0620054b 	strteq	r0, [r0], -fp, asr #10
    272c:	13050531 	movwne	r0, #21809	; 0x5531
    2730:	01060705 	tsteq	r6, r5, lsl #14
    2734:	05492005 	strbeq	r2, [r9, #-5]
    2738:	06310605 	ldrteq	r0, [r1], -r5, lsl #12
    273c:	2f010566 	svccs	0x00010566
    2740:	4d062105 	stfmis	f2, [r6, #-20]	; 0xffffffec
    2744:	05130505 	ldreq	r0, [r3, #-1285]	; 0xfffffafb
    2748:	05010607 	streq	r0, [r1, #-1543]	; 0xfffff9f9
    274c:	05054921 	streq	r4, [r5, #-2337]	; 0xfffff6df
    2750:	66063106 	strvs	r3, [r6], -r6, lsl #2
    2754:	052f0105 	streq	r0, [pc, #-261]!	; 2657 <__code_start__-0x59a9>
    2758:	064d0623 	strbeq	r0, [sp], -r3, lsr #12
    275c:	06050501 	streq	r0, [r5], -r1, lsl #10
    2760:	0601052f 	streq	r0, [r1], -pc, lsr #10
    2764:	062b054b 	strteq	r0, [fp], -fp, asr #10
    2768:	05010631 	streq	r0, [r1, #-1585]	; 0xfffff9cf
    276c:	052f0605 	streq	r0, [pc, #-1541]!	; 216f <__code_start__-0x5e91>
    2770:	05010607 	streq	r0, [r1, #-1543]	; 0xfffff9f9
    2774:	064b0609 	strbeq	r0, [fp], -r9, lsl #12
    2778:	0530062e 	ldreq	r0, [r0, #-1582]!	; 0xfffff9d2
    277c:	052f0601 	streq	r0, [pc, #-1537]!	; 2183 <__code_start__-0x5e7d>
    2780:	0530061d 	ldreq	r0, [r0, #-1565]!	; 0xfffff9e3
    2784:	07051305 	streq	r1, [r5, -r5, lsl #6]
    2788:	1d050106 	stfnes	f0, [r5, #-24]	; 0xffffffe8
    278c:	06050549 	streq	r0, [r5], -r9, asr #10
    2790:	0e051331 	mcreq	3, 0, r1, cr5, cr1, {1}
    2794:	05050106 	streq	r0, [r5, #-262]	; 0xfffffefa
    2798:	17052f06 	strne	r2, [r5, -r6, lsl #30]
    279c:	054a0106 	strbeq	r0, [sl, #-262]	; 0xfffffefa
    27a0:	02042e23 	andeq	r2, r4, #560	; 0x230
    27a4:	03063005 	movweq	r3, #24581	; 0x6005
    27a8:	042e00dc 	strteq	r0, [lr], #-220	; 0xffffff24
    27ac:	060c0501 	streq	r0, [ip], -r1, lsl #10
    27b0:	017fa403 	cmneq	pc, r3, lsl #8
    27b4:	052f0105 	streq	r0, [pc, #-261]!	; 26b7 <__code_start__-0x5949>
    27b8:	01052a10 	tsteq	r5, r0, lsl sl
    27bc:	00040232 	andeq	r0, r4, r2, lsr r2
    27c0:	02050101 	andeq	r0, r5, #1073741824	; 0x40000000
    27c4:	00030000 	andeq	r0, r3, r0
    27c8:	000000c9 	andeq	r0, r0, r9, asr #1
    27cc:	0efb0102 	cdpeq	1, 15, cr0, cr11, cr2, {0}
    27d0:	0101000d 	tsteq	r1, sp
    27d4:	00000101 	andeq	r0, r0, r1, lsl #2
    27d8:	00000100 	andeq	r0, r0, r0, lsl #2
    27dc:	6f682f01 	svcvs	0x00682f01
    27e0:	652f656d 	strvs	r6, [pc, #-1389]!	; 227b <__code_start__-0x5d85>
    27e4:	656c676e 	strbvs	r6, [ip, #-1902]!	; 0xfffff892
    27e8:	6c632f72 	stclvs	15, cr2, [r3], #-456	; 0xfffffe38
    27ec:	2f737361 	svccs	0x00737361
    27f0:	34327363 	ldrtcc	r7, [r2], #-867	; 0xfffffc9d
    27f4:	2d786c30 	ldclcs	12, cr6, [r8, #-192]!	; 0xffffff40
    27f8:	70733232 	rsbsvc	r3, r3, r2, lsr r2
    27fc:	6c2f2f72 	stcvs	15, cr2, [pc], #-456	; 263c <__code_start__-0x59c4>
    2800:	69706269 	ldmdbvs	r0!, {r0, r3, r5, r6, r9, sp, lr}^
    2804:	636e692f 	cmnvs	lr, #770048	; 0xbc000
    2808:	6564756c 	strbvs	r7, [r4, #-1388]!	; 0xfffffa94
    280c:	73752f00 	cmnvc	r5, #0, 30
    2810:	68732f72 	ldmdavs	r3!, {r1, r4, r5, r6, r8, r9, sl, fp, sp}^
    2814:	2f657261 	svccs	0x00657261
    2818:	2d636367 	stclcs	3, cr6, [r3, #-412]!	; 0xfffffe64
    281c:	2d6d7261 	sfmcs	f7, 2, [sp, #-388]!	; 0xfffffe7c
    2820:	656e6f6e 	strbvs	r6, [lr, #-3950]!	; 0xfffff092
    2824:	6261652d 	rsbvs	r6, r1, #188743680	; 0xb400000
    2828:	30312d69 	eorscc	r2, r1, r9, ror #26
    282c:	322d332e 	eorcc	r3, sp, #-1207959552	; 0xb8000000
    2830:	2e313230 	mrccs	2, 1, r3, cr1, cr0, {1}
    2834:	6c2f3031 	stcvs	0, cr3, [pc], #-196	; 2778 <__code_start__-0x5888>
    2838:	672f6269 	strvs	r6, [pc, -r9, ror #4]!
    283c:	612f6363 			; <UNDEFINED> instruction: 0x612f6363
    2840:	6e2d6d72 	mcrvs	13, 1, r6, cr13, cr2, {3}
    2844:	2d656e6f 	stclcs	14, cr6, [r5, #-444]!	; 0xfffffe44
    2848:	69626165 	stmdbvs	r2!, {r0, r2, r5, r6, r8, sp, lr}^
    284c:	2e30312f 	rsfcssp	f3, f0, #10.0
    2850:	2f312e33 	svccs	0x00312e33
    2854:	6c636e69 	stclvs	14, cr6, [r3], #-420	; 0xfffffe5c
    2858:	00656475 	rsbeq	r6, r5, r5, ror r4
    285c:	72617500 	rsbvc	r7, r1, #0, 10
    2860:	00632e74 	rsbeq	r2, r3, r4, ror lr
    2864:	75000000 	strvc	r0, [r0, #-0]
    2868:	2e747261 	cdpcs	2, 7, cr7, cr4, cr1, {3}
    286c:	00010068 	andeq	r0, r1, r8, rrx
    2870:	69707200 	ldmdbvs	r0!, {r9, ip, sp, lr}^
    2874:	0100682e 	tsteq	r0, lr, lsr #16
    2878:	70670000 	rsbvc	r0, r7, r0
    287c:	682e6f69 	stmdavs	lr!, {r0, r3, r5, r6, r8, r9, sl, fp, sp, lr}
    2880:	00000100 	andeq	r0, r0, r0, lsl #2
    2884:	69647473 	stmdbvs	r4!, {r0, r1, r4, r5, r6, sl, ip, sp, lr}^
    2888:	672d746e 	strvs	r7, [sp, -lr, ror #8]!
    288c:	682e6363 	stmdavs	lr!, {r0, r1, r5, r6, r8, r9, sp, lr}
    2890:	00000200 	andeq	r0, r0, r0, lsl #4
    2894:	00390500 	eorseq	r0, r9, r0, lsl #10
    2898:	92380205 	eorsls	r0, r8, #1342177280	; 0x50000000
    289c:	30030000 	andcc	r0, r3, r0
    28a0:	05010601 	streq	r0, [r1, #-1537]	; 0xfffff9ff
    28a4:	05670605 	strbeq	r0, [r7, #-1541]!	; 0xfffff9fb
    28a8:	05010611 	streq	r0, [r1, #-1553]	; 0xfffff9ef
    28ac:	01052e05 	tsteq	r5, r5, lsl #28
    28b0:	06380567 	ldrteq	r0, [r8], -r7, ror #10
    28b4:	05010629 	streq	r0, [r1, #-1577]	; 0xfffff9d7
    28b8:	05670605 	strbeq	r0, [r7, #-1541]!	; 0xfffff9fb
    28bc:	05010611 	streq	r0, [r1, #-1553]	; 0xfffff9ef
    28c0:	01052e05 	tsteq	r5, r5, lsl #28
    28c4:	06160567 	ldreq	r0, [r6], -r7, ror #10
    28c8:	052e1503 	streq	r1, [lr, #-1283]!	; 0xfffffafd
    28cc:	68673505 	stmdavs	r7!, {r0, r2, r8, sl, ip, sp}^
    28d0:	0c036835 	stceq	8, cr6, [r3], {53}	; 0x35
    28d4:	696b852e 	stmdbvs	fp!, {r1, r2, r3, r5, r8, sl, pc}^
    28d8:	660c0369 	strvs	r0, [ip], -r9, ror #6
    28dc:	05676b13 	strbeq	r6, [r7, #-2835]!	; 0xfffff4ed
    28e0:	052f0601 	streq	r0, [pc, #-1537]!	; 22e7 <__code_start__-0x5d19>
    28e4:	25080619 	strcs	r0, [r8, #-1561]	; 0xfffff9e7
    28e8:	05340505 	ldreq	r0, [r4, #-1285]!	; 0xfffffafb
    28ec:	0501060d 	streq	r0, [r1, #-1549]	; 0xfffff9f3
    28f0:	19054c01 	stmdbne	r5, {r0, sl, fp, lr}
    28f4:	05056706 	streq	r6, [r5, #-1798]	; 0xfffff8fa
    28f8:	060d0536 			; <UNDEFINED> instruction: 0x060d0536
    28fc:	4a280501 	bmi	a03d08 <__bss_end__+0x9f99e8>
    2900:	05300105 	ldreq	r0, [r0, #-261]!	; 0xfffffefb
    2904:	05870615 	streq	r0, [r7, #1557]	; 0x615
    2908:	052f2f05 	streq	r2, [pc, #-3845]!	; 1a0b <__code_start__-0x65f5>
    290c:	04020009 	streq	r0, [r2], #-9
    2910:	0a051301 	beq	14751c <__bss_end__+0x13d1fc>
    2914:	01040200 	mrseq	r0, R12_usr
    2918:	000c0511 	andeq	r0, ip, r1, lsl r5
    291c:	06010402 	streq	r0, [r1], -r2, lsl #8
    2920:	000a0501 	andeq	r0, sl, r1, lsl #10
    2924:	2e010402 	cdpcs	4, 0, cr0, cr1, cr2, {0}
    2928:	4c060505 	cfstr32mi	mvfx0, [r6], {5}
    292c:	01060e05 	tsteq	r6, r5, lsl #28
    2930:	054a0905 	strbeq	r0, [sl, #-2309]	; 0xfffff6fb
    2934:	2f2f0605 	svccs	0x002f0605
    2938:	13060105 	movwne	r0, #24837	; 0x6105
    293c:	67061c05 	strvs	r1, [r6, -r5, lsl #24]
    2940:	05050106 	streq	r0, [r5, #-262]	; 0xfffffefa
    2944:	052f4b06 	streq	r4, [pc, #-2822]!	; 1e46 <__code_start__-0x61ba>
    2948:	04020009 	streq	r0, [r2], #-9
    294c:	0a051301 	beq	147558 <__bss_end__+0x13d238>
    2950:	01040200 	mrseq	r0, R12_usr
    2954:	000c0511 	andeq	r0, ip, r1, lsl r5
    2958:	06010402 	streq	r0, [r1], -r2, lsl #8
    295c:	000a0501 	andeq	r0, sl, r1, lsl #10
    2960:	2e010402 	cdpcs	4, 0, cr0, cr1, cr2, {0}
    2964:	4c060505 	cfstr32mi	mvfx0, [r6], {5}
    2968:	06010567 	streq	r0, [r1], -r7, ror #10
    296c:	0619052f 	ldreq	r0, [r9], -pc, lsr #10
    2970:	2e1b054c 	cfmac32cs	mvfx0, mvfx11, mvfx12
    2974:	052e2a05 	streq	r2, [lr, #-2565]!	; 0xfffff5fb
    2978:	05010631 	streq	r0, [r1, #-1585]	; 0xfffff9cf
    297c:	1c052e42 	stcne	14, cr2, [r5], {66}	; 0x42
    2980:	05053106 	streq	r3, [r5, #-262]	; 0xfffffefa
    2984:	2e09032f 	cdpcs	3, 0, cr0, cr9, cr15, {1}
    2988:	01060e05 	tsteq	r6, r5, lsl #28
    298c:	054a2105 	strbeq	r2, [sl, #-261]	; 0xfffffefb
    2990:	2e0a0301 	cdpcs	3, 0, cr0, cr10, cr1, {0}
    2994:	68061a05 	stmdavs	r6, {r0, r2, r9, fp, ip}
    2998:	02000905 	andeq	r0, r0, #81920	; 0x14000
    299c:	05300104 	ldreq	r0, [r0, #-260]!	; 0xfffffefc
    29a0:	0402000a 	streq	r0, [r2], #-10
    29a4:	0c051101 	stfeqs	f1, [r5], {1}
    29a8:	01040200 	mrseq	r0, R12_usr
    29ac:	0a050106 	beq	142dcc <__bss_end__+0x138aac>
    29b0:	01040200 	mrseq	r0, R12_usr
    29b4:	0619052e 	ldreq	r0, [r9], -lr, lsr #10
    29b8:	667ee803 	ldrbtvs	lr, [lr], -r3, lsl #16
    29bc:	2f2f0505 	svccs	0x002f0505
    29c0:	0105672f 	tsteq	r5, pc, lsr #14
    29c4:	04022f06 	streq	r2, [r2], #-3846	; 0xfffff0fa
    29c8:	93010100 	movwls	r0, #4352	; 0x1100
    29cc:	03000003 	movweq	r0, #3
    29d0:	0000b800 	andeq	fp, r0, r0, lsl #16
    29d4:	fb010200 	blx	431de <__bss_end__+0x38ebe>
    29d8:	01000d0e 	tsteq	r0, lr, lsl #26
    29dc:	00010101 	andeq	r0, r1, r1, lsl #2
    29e0:	00010000 	andeq	r0, r1, r0
    29e4:	682f0100 	stmdavs	pc!, {r8}	; <UNPREDICTABLE>
    29e8:	2f656d6f 	svccs	0x00656d6f
    29ec:	6c676e65 	stclvs	14, cr6, [r7], #-404	; 0xfffffe6c
    29f0:	632f7265 			; <UNDEFINED> instruction: 0x632f7265
    29f4:	7373616c 	cmnvc	r3, #27
    29f8:	3273632f 	rsbscc	r6, r3, #-1140850688	; 0xbc000000
    29fc:	786c3034 	stmdavc	ip!, {r2, r4, r5, ip, sp}^
    2a00:	7332322d 	teqvc	r2, #-805306366	; 0xd0000002
    2a04:	2f2f7270 	svccs	0x002f7270
    2a08:	7062696c 	rsbvc	r6, r2, ip, ror #18
    2a0c:	6e692f69 	cdpvs	15, 6, cr2, cr9, cr9, {3}
    2a10:	64756c63 	ldrbtvs	r6, [r5], #-3171	; 0xfffff39d
    2a14:	752f0065 	strvc	r0, [pc, #-101]!	; 29b7 <__code_start__-0x5649>
    2a18:	732f7273 			; <UNDEFINED> instruction: 0x732f7273
    2a1c:	65726168 	ldrbvs	r6, [r2, #-360]!	; 0xfffffe98
    2a20:	6363672f 	cmnvs	r3, #12320768	; 0xbc0000
    2a24:	6d72612d 	ldfvse	f6, [r2, #-180]!	; 0xffffff4c
    2a28:	6e6f6e2d 	cdpvs	14, 6, cr6, cr15, cr13, {1}
    2a2c:	61652d65 	cmnvs	r5, r5, ror #26
    2a30:	312d6962 			; <UNDEFINED> instruction: 0x312d6962
    2a34:	2d332e30 	ldccs	14, cr2, [r3, #-192]!	; 0xffffff40
    2a38:	31323032 	teqcc	r2, r2, lsr r0
    2a3c:	2f30312e 	svccs	0x0030312e
    2a40:	2f62696c 	svccs	0x0062696c
    2a44:	2f636367 	svccs	0x00636367
    2a48:	2d6d7261 	sfmcs	f7, 2, [sp, #-388]!	; 0xfffffe7c
    2a4c:	656e6f6e 	strbvs	r6, [lr, #-3950]!	; 0xfffff092
    2a50:	6261652d 	rsbvs	r6, r1, #188743680	; 0xb400000
    2a54:	30312f69 	eorscc	r2, r1, r9, ror #30
    2a58:	312e332e 			; <UNDEFINED> instruction: 0x312e332e
    2a5c:	636e692f 	cmnvs	lr, #770048	; 0xbc000
    2a60:	6564756c 	strbvs	r7, [r4, #-1388]!	; 0xfffffa94
    2a64:	6d6b0000 	stclvs	0, cr0, [fp, #-0]
    2a68:	6f6c6c61 	svcvs	0x006c6c61
    2a6c:	00632e63 	rsbeq	r2, r3, r3, ror #28
    2a70:	72000000 	andvc	r0, r0, #0, 0
    2a74:	682e6970 	stmdavs	lr!, {r4, r5, r6, r8, fp, sp, lr}
    2a78:	00000100 	andeq	r0, r0, r0, lsl #2
    2a7c:	69647473 	stmdbvs	r4!, {r0, r1, r4, r5, r6, sl, ip, sp, lr}^
    2a80:	672d746e 	strvs	r7, [sp, -lr, ror #8]!
    2a84:	682e6363 	stmdavs	lr!, {r0, r1, r5, r6, r8, r9, sp, lr}
    2a88:	00000200 	andeq	r0, r0, r0, lsl #4
    2a8c:	001e0500 	andseq	r0, lr, r0, lsl #10
    2a90:	94280205 	strtls	r0, [r8], #-517	; 0xfffffdfb
    2a94:	27030000 	strcs	r0, [r3, -r0]
    2a98:	01200501 			; <UNDEFINED> instruction: 0x01200501
    2a9c:	01063105 	tsteq	r6, r5, lsl #2
    2aa0:	83062005 	movwhi	r2, #24581	; 0x6005
    2aa4:	05012205 	streq	r2, [r1, #-517]	; 0xfffffdfb
    2aa8:	05010635 	streq	r0, [r1, #-1589]	; 0xfffff9cb
    2aac:	0583061e 	streq	r0, [r3, #1566]	; 0x61e
    2ab0:	2d050120 	stfcss	f0, [r5, #-128]	; 0xffffff80
    2ab4:	42050106 	andmi	r0, r5, #-2147483647	; 0x80000001
    2ab8:	01068506 	tsteq	r6, r6, lsl #10
    2abc:	4b060505 	blmi	183ed8 <__bss_end__+0x179bb8>
    2ac0:	2e060114 	mcrcs	1, 0, r0, cr6, cr4, {0}
    2ac4:	02040200 	andeq	r0, r4, #0, 4
    2ac8:	02002e06 	andeq	r2, r0, #96	; 0x60
    2acc:	00010204 	andeq	r0, r1, r4, lsl #4
    2ad0:	15020402 	strne	r0, [r2, #-1026]	; 0xfffffbfe
    2ad4:	02000d05 	andeq	r0, r0, #320	; 0x140
    2ad8:	01060204 	tsteq	r6, r4, lsl #4
    2adc:	02000705 	andeq	r0, r0, #1310720	; 0x140000
    2ae0:	054a0204 	strbeq	r0, [sl, #-516]	; 0xfffffdfc
    2ae4:	054b0609 	strbeq	r0, [fp, #-1545]	; 0xfffff9f7
    2ae8:	17051505 	strne	r1, [r5, -r5, lsl #10]
    2aec:	10050106 	andne	r0, r5, r6, lsl #2
    2af0:	0605054a 	streq	r0, [r5], -sl, asr #10
    2af4:	061b052f 	ldreq	r0, [fp], -pc, lsr #10
    2af8:	2e0e0501 	cfsh32cs	mvfx0, mvfx14, #1
    2afc:	052f0105 	streq	r0, [pc, #-261]!	; 29ff <__code_start__-0x5601>
    2b00:	04020005 	streq	r0, [r2], #-5
    2b04:	77030601 	strvc	r0, [r3, -r1, lsl #12]
    2b08:	0402004a 	streq	r0, [r2], #-74	; 0xffffffb6
    2b0c:	02000101 	andeq	r0, r0, #1073741824	; 0x40000000
    2b10:	9e060104 	adflss	f0, f6, f4
    2b14:	01040200 	mrseq	r0, R12_usr
    2b18:	0402002e 	streq	r0, [r2], #-46	; 0xffffffd2
    2b1c:	052e0601 	streq	r0, [lr, #-1537]!	; 0xfffff9ff
    2b20:	06013209 	streq	r3, [r1], -r9, lsl #4
    2b24:	2e062ed6 	mcrcs	14, 0, r2, cr6, cr6, {6}
    2b28:	05de1905 	ldrbeq	r1, [lr, #2309]	; 0x905
    2b2c:	05142f05 	ldreq	r2, [r4, #-3845]	; 0xfffff0fb
    2b30:	05010608 	streq	r0, [r1, #-1544]	; 0xfffff9f8
    2b34:	09054a07 	stmdbeq	r5, {r0, r1, r2, r9, fp, lr}
    2b38:	05054b06 	streq	r4, [r5, #-2822]	; 0xfffff4fa
    2b3c:	060c0513 			; <UNDEFINED> instruction: 0x060c0513
    2b40:	06050501 	streq	r0, [r5], -r1, lsl #10
    2b44:	01051367 	tsteq	r5, r7, ror #6
    2b48:	09056706 	stmdbeq	r5, {r1, r2, r8, r9, sl, sp, lr}
    2b4c:	9e012a06 	vmlals.f32	s4, s2, s12
    2b50:	06a52805 	strteq	r2, [r5], r5, lsl #16
    2b54:	06050501 	streq	r0, [r5], -r1, lsl #10
    2b58:	2e06014b 	adfcssm	f0, f6, #3.0
    2b5c:	13012e06 	movwne	r2, #7686	; 0x1e06
    2b60:	47031805 	strmi	r1, [r3, -r5, lsl #16]
    2b64:	13050501 	movwne	r0, #21761	; 0x5501
    2b68:	06010601 	streq	r0, [r1], -r1, lsl #12
    2b6c:	1301150f 	movwne	r1, #5391	; 0x150f
    2b70:	01060e05 	tsteq	r6, r5, lsl #28
    2b74:	2e2e1605 	cfmadda32cs	mvax0, mvax1, mvfx14, mvfx5
    2b78:	03060505 	movweq	r0, #25861	; 0x6505
    2b7c:	0b050139 	bleq	143068 <__bss_end__+0x138d48>
    2b80:	05050106 	streq	r0, [r5, #-262]	; 0xfffffefa
    2b84:	0a054b06 	beq	1557a4 <__bss_end__+0x14b484>
    2b88:	05050106 	streq	r0, [r5, #-262]	; 0xfffffefa
    2b8c:	0d054b06 	vstreq	d4, [r5, #-24]	; 0xffffffe8
    2b90:	07050106 	streq	r0, [r5, -r6, lsl #2]
    2b94:	4d01052e 	cfstr32mi	mvfx0, [r1, #-184]	; 0xffffff48
    2b98:	02000505 	andeq	r0, r0, #20971520	; 0x1400000
    2b9c:	03060104 	movweq	r0, #24836	; 0x6104
    2ba0:	02004a78 	andeq	r4, r0, #120, 20	; 0x78000
    2ba4:	00010104 	andeq	r0, r1, r4, lsl #2
    2ba8:	06010402 	streq	r0, [r1], -r2, lsl #8
    2bac:	040200ba 	streq	r0, [r2], #-186	; 0xffffff46
    2bb0:	052e0601 	streq	r0, [lr, #-1537]!	; 0xfffff9ff
    2bb4:	06013409 	streq	r3, [r1], -r9, lsl #8
    2bb8:	2e066682 	cfmadd32cs	mvax4, mvfx6, mvfx6, mvfx2
    2bbc:	06db2005 	ldrbeq	r2, [fp], r5
    2bc0:	06050501 	streq	r0, [r5], -r1, lsl #10
    2bc4:	0200014b 	andeq	r0, r0, #-1073741806	; 0xc0000012
    2bc8:	004a0204 	subeq	r0, sl, r4, lsl #4
    2bcc:	01020402 	tsteq	r2, r2, lsl #8
    2bd0:	02040200 	andeq	r0, r4, #0, 4
    2bd4:	00120513 	andseq	r0, r2, r3, lsl r5
    2bd8:	06020402 	streq	r0, [r2], -r2, lsl #8
    2bdc:	04020001 	streq	r0, [r2], #-1
    2be0:	02002e02 	andeq	r2, r0, #2, 28
    2be4:	052e0204 	streq	r0, [lr, #-516]!	; 0xfffffdfc
    2be8:	04020005 	streq	r0, [r2], #-5
    2bec:	002f0602 	eoreq	r0, pc, r2, lsl #12
    2bf0:	67020402 	strvs	r0, [r2, -r2, lsl #8]
    2bf4:	02000105 	andeq	r0, r0, #1073741825	; 0x40000001
    2bf8:	13060204 	movwne	r0, #25092	; 0x6204
    2bfc:	02000505 	andeq	r0, r0, #20971520	; 0x1400000
    2c00:	62060104 	andvs	r0, r6, #1
    2c04:	01040200 	mrseq	r0, R12_usr
    2c08:	04020001 	streq	r0, [r2], #-1
    2c0c:	00ba0601 	adcseq	r0, sl, r1, lsl #12
    2c10:	06010402 	streq	r0, [r1], -r2, lsl #8
    2c14:	033c052e 	teqeq	ip, #192937984	; 0xb800000
    2c18:	01069e0a 	tsteq	r6, sl, lsl #28
    2c1c:	4b060505 	blmi	184038 <__bss_end__+0x179d18>
    2c20:	062e0601 	strteq	r0, [lr], -r1, lsl #12
    2c24:	0113012e 	tsteq	r3, lr, lsr #2
    2c28:	ad031805 	stcge	8, cr1, [r3, #-20]	; 0xffffffec
    2c2c:	0505017f 	streq	r0, [r5, #-383]	; 0xfffffe81
    2c30:	06110513 			; <UNDEFINED> instruction: 0x06110513
    2c34:	05052e01 	streq	r2, [r5, #-3585]	; 0xfffff1ff
    2c38:	0100d203 	tsteq	r0, r3, lsl #4
    2c3c:	05134a06 	ldreq	r4, [r3, #-2566]	; 0xfffff5fa
    2c40:	7fa30318 	svcvc	0x00a30318
    2c44:	13050501 	movwne	r0, #21761	; 0x5501
    2c48:	01061605 	tsteq	r6, r5, lsl #12
    2c4c:	0605054a 	streq	r0, [r5], -sl, asr #10
    2c50:	0100e103 	tsteq	r0, r3, lsl #2
    2c54:	01061205 	tsteq	r6, r5, lsl #4
    2c58:	4b060505 	blmi	184074 <__bss_end__+0x179d54>
    2c5c:	a9031805 	stmdbge	r3, {r0, r2, fp, ip}
    2c60:	0505017f 	streq	r0, [r5, #-383]	; 0xfffffe81
    2c64:	18050113 	stmdane	r5, {r0, r1, r4, r8}
    2c68:	1305050e 	movwne	r0, #21774	; 0x550e
    2c6c:	01061105 	tsteq	r6, r5, lsl #2
    2c70:	1505052e 	strne	r0, [r5, #-1326]	; 0xfffffad2
    2c74:	13014a06 	movwne	r4, #6662	; 0x1a06
    2c78:	01060e05 	tsteq	r6, r5, lsl #28
    2c7c:	2e16052e 	cfmul64cs	mvdx0, mvdx6, mvdx14
    2c80:	0605052e 	streq	r0, [r5], -lr, lsr #10
    2c84:	0100d603 	tsteq	r0, r3, lsl #12
    2c88:	03180501 	tsteq	r8, #4194304	; 0x400000
    2c8c:	05017f9f 	streq	r7, [r1, #-3999]	; 0xfffff061
    2c90:	19051305 	stmdbne	r5, {r0, r2, r8, r9, ip}
    2c94:	052e0106 	streq	r0, [lr, #-262]!	; 0xfffffefa
    2c98:	00e00305 	rsceq	r0, r0, r5, lsl #6
    2c9c:	04020001 	streq	r0, [r2], #-1
    2ca0:	004a0602 	subeq	r0, sl, r2, lsl #12
    2ca4:	14020402 	strne	r0, [r2], #-1026	; 0xfffffbfe
    2ca8:	02000a05 	andeq	r0, r0, #20480	; 0x5000
    2cac:	01060204 	tsteq	r6, r4, lsl #4
    2cb0:	02000505 	andeq	r0, r0, #20971520	; 0x1400000
    2cb4:	4b060204 	blmi	1834cc <__bss_end__+0x1791ac>
    2cb8:	02000c05 	andeq	r0, r0, #1280	; 0x500
    2cbc:	01060204 	tsteq	r6, r4, lsl #4
    2cc0:	02000105 	andeq	r0, r0, #1073741825	; 0x40000001
    2cc4:	052f0204 	streq	r0, [pc, #-516]!	; 2ac8 <__code_start__-0x5538>
    2cc8:	04020005 	streq	r0, [r2], #-5
    2ccc:	73030601 	movwvc	r0, #13825	; 0x3601
    2cd0:	0402004a 	streq	r0, [r2], #-74	; 0xffffffb6
    2cd4:	02000101 	andeq	r0, r0, #1073741824	; 0x40000000
    2cd8:	9e060104 	adflss	f0, f6, f4
    2cdc:	01040200 	mrseq	r0, R12_usr
    2ce0:	0402002e 	streq	r0, [r2], #-46	; 0xffffffd2
    2ce4:	002e0601 	eoreq	r0, lr, r1, lsl #12
    2ce8:	2f010402 	svccs	0x00010402
    2cec:	01040200 	mrseq	r0, R12_usr
    2cf0:	0402002e 	streq	r0, [r2], #-46	; 0xffffffd2
    2cf4:	b103d601 	tstlt	r3, r1, lsl #12
    2cf8:	06012e7f 			; <UNDEFINED> instruction: 0x06012e7f
    2cfc:	062e2e82 	strteq	r2, [lr], -r2, lsl #29
    2d00:	002e062e 	eoreq	r0, lr, lr, lsr #12
    2d04:	06010402 	streq	r0, [r1], -r2, lsl #8
    2d08:	0100d703 	tsteq	r0, r3, lsl #14
    2d0c:	01040200 	mrseq	r0, R12_usr
    2d10:	0402002e 	streq	r0, [r2], #-46	; 0xffffffd2
    2d14:	1505d601 	strne	sp, [r5, #-1537]	; 0xfffff9ff
    2d18:	17057b08 	strne	r7, [r5, -r8, lsl #22]
    2d1c:	31160501 	tstcc	r6, r1, lsl #10
    2d20:	05011805 	streq	r1, [r1, #-2053]	; 0xfffff7fb
    2d24:	0501061d 	streq	r0, [r1, #-1565]	; 0xfffff9e3
    2d28:	1905662b 	stmdbne	r5, {r0, r1, r3, r5, r9, sl, sp, lr}
    2d2c:	05054d06 	streq	r4, [r5, #-3334]	; 0xfffff2fa
    2d30:	060c0513 			; <UNDEFINED> instruction: 0x060c0513
    2d34:	4a070501 	bmi	1c4140 <__bss_end__+0x1b9e20>
    2d38:	02002505 	andeq	r2, r0, #20971520	; 0x1400000
    2d3c:	054a0104 	strbeq	r0, [sl, #-260]	; 0xfffffefc
    2d40:	0402001e 	streq	r0, [r2], #-30	; 0xffffffe2
    2d44:	09054a01 	stmdbeq	r5, {r0, r9, fp, lr}
    2d48:	05054b06 	streq	r4, [r5, #-2822]	; 0xfffff4fa
    2d4c:	060a0513 			; <UNDEFINED> instruction: 0x060a0513
    2d50:	63190501 	tstvs	r9, #4194304	; 0x400000
    2d54:	4c060905 			; <UNDEFINED> instruction: 0x4c060905
    2d58:	069e0601 	ldreq	r0, [lr], r1, lsl #12
    2d5c:	000a022e 	andeq	r0, sl, lr, lsr #4
    2d60:	01090101 	tsteq	r9, r1, lsl #2
    2d64:	00030000 	andeq	r0, r3, r0
    2d68:	0000007e 	andeq	r0, r0, lr, ror r0
    2d6c:	0efb0102 	cdpeq	1, 15, cr0, cr11, cr2, {0}
    2d70:	0101000d 	tsteq	r1, sp
    2d74:	00000101 	andeq	r0, r0, r1, lsl #2
    2d78:	00000100 	andeq	r0, r0, r0, lsl #2
    2d7c:	6c2f2e01 	stcvs	14, cr2, [pc], #-4	; 2d80 <__code_start__-0x5280>
    2d80:	00636269 	rsbeq	r6, r3, r9, ror #4
    2d84:	6573552f 	ldrbvs	r5, [r3, #-1327]!	; 0xfffffad1
    2d88:	652f7372 	strvs	r7, [pc, #-882]!	; 2a1e <__code_start__-0x55e2>
    2d8c:	62636972 	rsbvs	r6, r3, #1867776	; 0x1c8000
    2d90:	2f726165 	svccs	0x00726165
    2d94:	75636f44 	strbvc	r6, [r3, #-3908]!	; 0xfffff0bc
    2d98:	746e656d 	strbtvc	r6, [lr], #-1389	; 0xfffffa93
    2d9c:	53432f73 	movtpl	r2, #16243	; 0x3f73
    2da0:	45303431 	ldrmi	r3, [r0, #-1073]!	; 0xfffffbcf
    2da4:	3173632f 	cmncc	r3, pc, lsr #6
    2da8:	2d453034 	stclcs	0, cr3, [r5, #-208]	; 0xffffff30
    2dac:	616e6966 	cmnvs	lr, r6, ror #18
    2db0:	72702d6c 	rsbsvc	r2, r0, #108, 26	; 0x1b00
    2db4:	63656a6f 	cmnvs	r5, #454656	; 0x6f000
    2db8:	696c2f74 	stmdbvs	ip!, {r2, r4, r5, r6, r8, r9, sl, fp, sp}^
    2dbc:	322d7362 	eorcc	r7, sp, #-2013265919	; 0x88000001
    2dc0:	786c3034 	stmdavc	ip!, {r2, r4, r5, ip, sp}^
    2dc4:	62696c2f 	rsbvs	r6, r9, #12032	; 0x2f00
    2dc8:	692f6970 	stmdbvs	pc!, {r4, r5, r6, r8, fp, sp, lr}	; <UNPREDICTABLE>
    2dcc:	756c636e 	strbvc	r6, [ip, #-878]!	; 0xfffffc92
    2dd0:	00006564 	andeq	r6, r0, r4, ror #10
    2dd4:	63727473 	cmnvs	r2, #1929379840	; 0x73000000
    2dd8:	632e7461 			; <UNDEFINED> instruction: 0x632e7461
    2ddc:	00000100 	andeq	r0, r0, r0, lsl #2
    2de0:	2e697072 	mcrcs	0, 3, r7, cr9, cr2, {3}
    2de4:	00020068 	andeq	r0, r2, r8, rrx
    2de8:	2c050000 	stccs	0, cr0, [r5], {-0}
    2dec:	d8020500 	stmdale	r2, {r8, sl}
    2df0:	15000097 	strne	r0, [r0, #-151]	; 0xffffff69
    2df4:	13130505 	tstne	r3, #20971520	; 0x1400000
    2df8:	11060b05 	tstne	r6, r5, lsl #22
    2dfc:	02000505 	andeq	r0, r0, #20971520	; 0x1400000
    2e00:	30060104 	andcc	r0, r6, r4, lsl #2
    2e04:	01040200 	mrseq	r0, R12_usr
    2e08:	00090515 	andeq	r0, r9, r5, lsl r5
    2e0c:	13010402 	movwne	r0, #5122	; 0x1402
    2e10:	02001005 	andeq	r1, r0, #5, 0
    2e14:	2e060104 	adfcss	f0, f6, f4
    2e18:	02000b05 	andeq	r0, r0, #5120	; 0x1400
    2e1c:	002e0104 	eoreq	r0, lr, r4, lsl #2
    2e20:	06010402 	streq	r0, [r1], -r2, lsl #8
    2e24:	0005052f 	andeq	r0, r5, pc, lsr #10
    2e28:	06010402 	streq	r0, [r1], -r2, lsl #8
    2e2c:	054e0601 	strbeq	r0, [lr, #-1537]	; 0xfffff9ff
    2e30:	05010608 	streq	r0, [r1, #-1544]	; 0xfffff9f8
    2e34:	04020005 	streq	r0, [r2], #-5
    2e38:	052f0601 	streq	r0, [pc, #-1537]!	; 283f <__code_start__-0x57c1>
    2e3c:	04020009 	streq	r0, [r2], #-9
    2e40:	0b051301 	bleq	147a4c <__bss_end__+0x13d72c>
    2e44:	01040200 	mrseq	r0, R12_usr
    2e48:	09050106 	stmdbeq	r5, {r1, r2, r8}
    2e4c:	01040200 	mrseq	r0, R12_usr
    2e50:	0f054b06 	svceq	0x00054b06
    2e54:	01040200 	mrseq	r0, R12_usr
    2e58:	0d050106 	stfeqs	f0, [r5, #-24]	; 0xffffffe8
    2e5c:	01040200 	mrseq	r0, R12_usr
    2e60:	05052f06 	streq	r2, [r5, #-3846]	; 0xfffff0fa
    2e64:	01040200 	mrseq	r0, R12_usr
    2e68:	06020106 	streq	r0, [r2], -r6, lsl #2
    2e6c:	c2010100 	andgt	r0, r1, #0
    2e70:	03000000 	movweq	r0, #0
    2e74:	00007e00 	andeq	r7, r0, r0, lsl #28
    2e78:	fb010200 	blx	43682 <__bss_end__+0x39362>
    2e7c:	01000d0e 	tsteq	r0, lr, lsl #26
    2e80:	00010101 	andeq	r0, r1, r1, lsl #2
    2e84:	00010000 	andeq	r0, r1, r0
    2e88:	2f2e0100 	svccs	0x002e0100
    2e8c:	6362696c 	cmnvs	r2, #108, 18	; 0x1b0000
    2e90:	73552f00 	cmpvc	r5, #0, 30
    2e94:	2f737265 	svccs	0x00737265
    2e98:	63697265 	cmnvs	r9, #1342177286	; 0x50000006
    2e9c:	72616562 	rsbvc	r6, r1, #411041792	; 0x18800000
    2ea0:	636f442f 	cmnvs	pc, #788529152	; 0x2f000000
    2ea4:	6e656d75 	mcrvs	13, 3, r6, cr5, cr5, {3}
    2ea8:	432f7374 			; <UNDEFINED> instruction: 0x432f7374
    2eac:	30343153 	eorscc	r3, r4, r3, asr r1
    2eb0:	73632f45 	cmnvc	r3, #276	; 0x114
    2eb4:	45303431 	ldrmi	r3, [r0, #-1073]!	; 0xfffffbcf
    2eb8:	6e69662d 	cdpvs	6, 6, cr6, cr9, cr13, {1}
    2ebc:	702d6c61 	eorvc	r6, sp, r1, ror #24
    2ec0:	656a6f72 	strbvs	r6, [sl, #-3954]!	; 0xfffff08e
    2ec4:	6c2f7463 	cfstrsvs	mvf7, [pc], #-396	; 2d40 <__code_start__-0x52c0>
    2ec8:	2d736269 	lfmcs	f6, 2, [r3, #-420]!	; 0xfffffe5c
    2ecc:	6c303432 	cfldrsvs	mvf3, [r0], #-200	; 0xffffff38
    2ed0:	696c2f78 	stmdbvs	ip!, {r3, r4, r5, r6, r8, r9, sl, fp, sp}^
    2ed4:	2f697062 	svccs	0x00697062
    2ed8:	6c636e69 	stclvs	14, cr6, [r3], #-420	; 0xfffffe5c
    2edc:	00656475 	rsbeq	r6, r5, r5, ror r4
    2ee0:	72747300 	rsbsvc	r7, r4, #0, 6
    2ee4:	2e706d63 	cdpcs	13, 7, cr6, cr0, cr3, {3}
    2ee8:	00010063 	andeq	r0, r1, r3, rrx
    2eec:	69707200 	ldmdbvs	r0!, {r9, ip, sp, lr}^
    2ef0:	0200682e 	andeq	r6, r0, #3014656	; 0x2e0000
    2ef4:	05000000 	streq	r0, [r0, #-0]
    2ef8:	0205002a 	andeq	r0, r5, #42, 0	; 0x2a
    2efc:	0000980c 	andeq	r9, r0, ip, lsl #16
    2f00:	13090514 	movwne	r0, #38164	; 0x9514
    2f04:	05010f05 	streq	r0, [r1, #-3845]	; 0xfffff0fb
    2f08:	05010610 	streq	r0, [r1, #-1552]	; 0xfffff9f0
    2f0c:	1c052e0f 	stcne	14, cr2, [r5], {15}
    2f10:	01040200 	mrseq	r0, R12_usr
    2f14:	0013054a 	andseq	r0, r3, sl, asr #10
    2f18:	2e010402 	cdpcs	4, 0, cr0, cr1, cr2, {0}
    2f1c:	2f061105 	svccs	0x00061105
    2f20:	2e061605 	cfmadd32cs	mvax0, mvfx1, mvfx6, mvfx5
    2f24:	0609052e 	streq	r0, [r9], -lr, lsr #10
    2f28:	0615052f 	ldreq	r0, [r5], -pc, lsr #10
    2f2c:	2f010501 	svccs	0x00010501
    2f30:	01000402 	tsteq	r0, r2, lsl #8
    2f34:	0000c001 	andeq	ip, r0, r1
    2f38:	7e000300 	cdpvc	3, 0, cr0, cr0, cr0, {0}
    2f3c:	02000000 	andeq	r0, r0, #0, 0
    2f40:	0d0efb01 	vstreq	d15, [lr, #-4]
    2f44:	01010100 	mrseq	r0, (UNDEF: 17)
    2f48:	00000001 	andeq	r0, r0, r1
    2f4c:	01000001 	tsteq	r0, r1
    2f50:	696c2f2e 	stmdbvs	ip!, {r1, r2, r3, r5, r8, r9, sl, fp, sp}^
    2f54:	2f006362 	svccs	0x00006362
    2f58:	72657355 	rsbvc	r7, r5, #1409286145	; 0x54000001
    2f5c:	72652f73 	rsbvc	r2, r5, #460	; 0x1cc
    2f60:	65626369 	strbvs	r6, [r2, #-873]!	; 0xfffffc97
    2f64:	442f7261 	strtmi	r7, [pc], #-609	; 2f6c <__code_start__-0x5094>
    2f68:	6d75636f 	ldclvs	3, cr6, [r5, #-444]!	; 0xfffffe44
    2f6c:	73746e65 	cmnvc	r4, #1616	; 0x650
    2f70:	3153432f 	cmpcc	r3, pc, lsr #6
    2f74:	2f453034 	svccs	0x00453034
    2f78:	34317363 	ldrtcc	r7, [r1], #-867	; 0xfffffc9d
    2f7c:	662d4530 			; <UNDEFINED> instruction: 0x662d4530
    2f80:	6c616e69 	stclvs	14, cr6, [r1], #-420	; 0xfffffe5c
    2f84:	6f72702d 	svcvs	0x0072702d
    2f88:	7463656a 	strbtvc	r6, [r3], #-1386	; 0xfffffa96
    2f8c:	62696c2f 	rsbvs	r6, r9, #12032	; 0x2f00
    2f90:	34322d73 	ldrtcc	r2, [r2], #-3443	; 0xfffff28d
    2f94:	2f786c30 	svccs	0x00786c30
    2f98:	7062696c 	rsbvc	r6, r2, ip, ror #18
    2f9c:	6e692f69 	cdpvs	15, 6, cr2, cr9, cr9, {3}
    2fa0:	64756c63 	ldrbtvs	r6, [r5], #-3171	; 0xfffff39d
    2fa4:	73000065 	movwvc	r0, #101	; 0x65
    2fa8:	70637274 	rsbvc	r7, r3, r4, ror r2
    2fac:	00632e79 	rsbeq	r2, r3, r9, ror lr
    2fb0:	72000001 	andvc	r0, r0, #1, 0
    2fb4:	682e6970 	stmdavs	lr!, {r4, r5, r6, r8, fp, sp, lr}
    2fb8:	00000200 	andeq	r0, r0, r0, lsl #4
    2fbc:	002a0500 	eoreq	r0, sl, r0, lsl #10
    2fc0:	98380205 	ldmdals	r8!, {r0, r2, r9}
    2fc4:	05140000 	ldreq	r0, [r4, #-0]
    2fc8:	05131305 	ldreq	r1, [r3, #-773]	; 0xfffffcfb
    2fcc:	05110614 	ldreq	r0, [r1, #-1556]	; 0xfffff9ec
    2fd0:	04020022 	streq	r0, [r2], #-34	; 0xffffffde
    2fd4:	052f0601 	streq	r0, [pc, #-1537]!	; 29db <__code_start__-0x5625>
    2fd8:	0402000b 	streq	r0, [r2], #-11
    2fdc:	15050101 	strne	r0, [r5, #-257]	; 0xfffffeff
    2fe0:	01040200 	mrseq	r0, R12_usr
    2fe4:	13050106 	movwne	r0, #20742	; 0x5106
    2fe8:	01040200 	mrseq	r0, R12_usr
    2fec:	000b054a 	andeq	r0, fp, sl, asr #10
    2ff0:	4a010402 	bmi	44000 <__bss_end__+0x39ce0>
    2ff4:	01000602 	tsteq	r0, r2, lsl #12
    2ff8:	00012001 	andeq	r2, r1, r1
    2ffc:	e4000300 	str	r0, [r0], #-768	; 0xfffffd00
    3000:	02000000 	andeq	r0, r0, #0, 0
    3004:	0d0efb01 	vstreq	d15, [lr, #-4]
    3008:	01010100 	mrseq	r0, (UNDEF: 17)
    300c:	00000001 	andeq	r0, r0, r1
    3010:	01000001 	tsteq	r0, r1
    3014:	696c2f2e 	stmdbvs	ip!, {r1, r2, r3, r5, r8, r9, sl, fp, sp}^
    3018:	2f006362 	svccs	0x00006362
    301c:	72657355 	rsbvc	r7, r5, #1409286145	; 0x54000001
    3020:	72652f73 	rsbvc	r2, r5, #460	; 0x1cc
    3024:	65626369 	strbvs	r6, [r2, #-873]!	; 0xfffffc97
    3028:	442f7261 	strtmi	r7, [pc], #-609	; 3030 <__code_start__-0x4fd0>
    302c:	6d75636f 	ldclvs	3, cr6, [r5, #-444]!	; 0xfffffe44
    3030:	73746e65 	cmnvc	r4, #1616	; 0x650
    3034:	3153432f 	cmpcc	r3, pc, lsr #6
    3038:	2f453034 	svccs	0x00453034
    303c:	34317363 	ldrtcc	r7, [r1], #-867	; 0xfffffc9d
    3040:	662d4530 			; <UNDEFINED> instruction: 0x662d4530
    3044:	6c616e69 	stclvs	14, cr6, [r1], #-420	; 0xfffffe5c
    3048:	6f72702d 	svcvs	0x0072702d
    304c:	7463656a 	strbtvc	r6, [r3], #-1386	; 0xfffffa96
    3050:	62696c2f 	rsbvs	r6, r9, #12032	; 0x2f00
    3054:	34322d73 	ldrtcc	r2, [r2], #-3443	; 0xfffff28d
    3058:	2f786c30 	svccs	0x00786c30
    305c:	7062696c 	rsbvc	r6, r2, ip, ror #18
    3060:	6e692f69 	cdpvs	15, 6, cr2, cr9, cr9, {3}
    3064:	64756c63 	ldrbtvs	r6, [r5], #-3171	; 0xfffff39d
    3068:	752f0065 	strvc	r0, [pc, #-101]!	; 300b <__code_start__-0x4ff5>
    306c:	6c2f7273 	sfmvs	f7, 4, [pc], #-460	; 2ea8 <__code_start__-0x5158>
    3070:	6c61636f 	stclvs	3, cr6, [r1], #-444	; 0xfffffe44
    3074:	6c65432f 	stclvs	3, cr4, [r5], #-188	; 0xffffff44
    3078:	2f72616c 	svccs	0x0072616c
    307c:	2d6d7261 	sfmcs	f7, 2, [sp, #-388]!	; 0xfffffe7c
    3080:	656e6f6e 	strbvs	r6, [lr, #-3950]!	; 0xfffff092
    3084:	6261652d 	rsbvs	r6, r1, #188743680	; 0xb400000
    3088:	65742d69 	ldrbvs	r2, [r4, #-3433]!	; 0xfffff297
    308c:	392f7473 	stmdbcc	pc!, {r0, r1, r4, r5, r6, sl, ip, sp, lr}	; <UNPREDICTABLE>
    3090:	3130322d 	teqcc	r0, sp, lsr #4
    3094:	2d347139 	ldfcss	f7, [r4, #-228]!	; 0xffffff1c
    3098:	30317363 	eorscc	r7, r1, r3, ror #6
    309c:	6c2f6537 	cfstr32vs	mvfx6, [pc], #-220	; 2fc8 <__code_start__-0x5038>
    30a0:	672f6269 	strvs	r6, [pc, -r9, ror #4]!
    30a4:	612f6363 			; <UNDEFINED> instruction: 0x612f6363
    30a8:	6e2d6d72 	mcrvs	13, 1, r6, cr13, cr2, {3}
    30ac:	2d656e6f 	stclcs	14, cr6, [r5, #-444]!	; 0xfffffe44
    30b0:	69626165 	stmdbvs	r2!, {r0, r2, r5, r6, r8, sp, lr}^
    30b4:	322e392f 	eorcc	r3, lr, #770048	; 0xbc000
    30b8:	692f312e 	stmdbvs	pc!, {r1, r2, r3, r5, r8, ip, sp}	; <UNPREDICTABLE>
    30bc:	756c636e 	strbvc	r6, [ip, #-878]!	; 0xfffffc92
    30c0:	00006564 	andeq	r6, r0, r4, ror #10
    30c4:	6e727473 	mrcvs	4, 3, r7, cr2, cr3, {3}
    30c8:	2e706d63 	cdpcs	13, 7, cr6, cr0, cr3, {3}
    30cc:	00010063 	andeq	r0, r1, r3, rrx
    30d0:	69707200 	ldmdbvs	r0!, {r9, ip, sp, lr}^
    30d4:	0200682e 	andeq	r6, r0, #3014656	; 0x2e0000
    30d8:	74730000 	ldrbtvc	r0, [r3], #-0
    30dc:	66656464 	strbtvs	r6, [r5], -r4, ror #8
    30e0:	0300682e 	movweq	r6, #2094	; 0x82e
    30e4:	05000000 	streq	r0, [r0, #-0]
    30e8:	02050039 	andeq	r0, r5, #57, 0	; 0x39
    30ec:	00009858 	andeq	r9, r0, r8, asr r8
    30f0:	13050515 	movwne	r0, #21781	; 0x5515
    30f4:	010a0513 	tsteq	sl, r3, lsl r5
    30f8:	054a0106 	strbeq	r0, [sl, #-262]	; 0xfffffefa
    30fc:	052f0609 	streq	r0, [pc, #-1545]!	; 2afb <__code_start__-0x5505>
    3100:	0501060c 	streq	r0, [r1, #-1548]	; 0xfffff9f4
    3104:	0b052e13 	bleq	14e958 <__bss_end__+0x144638>
    3108:	060d052e 	streq	r0, [sp], -lr, lsr #10
    310c:	061b054b 	ldreq	r0, [fp], -fp, asr #10
    3110:	0c052e01 	stceq	14, cr2, [r5], {1}
    3114:	2f010530 	svccs	0x00010530
    3118:	01000202 	tsteq	r0, r2, lsl #4
    311c:	0000af01 	andeq	sl, r0, r1, lsl #30
    3120:	93000300 	movwls	r0, #768	; 0x300
    3124:	02000000 	andeq	r0, r0, #0, 0
    3128:	0d0efb01 	vstreq	d15, [lr, #-4]
    312c:	01010100 	mrseq	r0, (UNDEF: 17)
    3130:	00000001 	andeq	r0, r0, r1
    3134:	01000001 	tsteq	r0, r1
    3138:	74732f2e 	ldrbtvc	r2, [r3], #-3886	; 0xfffff0d2
    313c:	2d666661 	stclcs	6, cr6, [r6, #-388]!	; 0xfffffe7c
    3140:	00637273 	rsbeq	r7, r3, r3, ror r2
    3144:	6573552f 	ldrbvs	r5, [r3, #-1327]!	; 0xfffffad1
    3148:	652f7372 	strvs	r7, [pc, #-882]!	; 2dde <__code_start__-0x5222>
    314c:	62636972 	rsbvs	r6, r3, #1867776	; 0x1c8000
    3150:	2f726165 	svccs	0x00726165
    3154:	75636f44 	strbvc	r6, [r3, #-3908]!	; 0xfffff0bc
    3158:	746e656d 	strbtvc	r6, [lr], #-1389	; 0xfffffa93
    315c:	53432f73 	movtpl	r2, #16243	; 0x3f73
    3160:	45303431 	ldrmi	r3, [r0, #-1073]!	; 0xfffffbcf
    3164:	3173632f 	cmncc	r3, pc, lsr #6
    3168:	2d453034 	stclcs	0, cr3, [r5, #-208]	; 0xffffff30
    316c:	616e6966 	cmnvs	lr, r6, ror #18
    3170:	72702d6c 	rsbsvc	r2, r0, #108, 26	; 0x1b00
    3174:	63656a6f 	cmnvs	r5, #454656	; 0x6f000
    3178:	696c2f74 	stmdbvs	ip!, {r2, r4, r5, r6, r8, r9, sl, fp, sp}^
    317c:	322d7362 	eorcc	r7, sp, #-2013265919	; 0x88000001
    3180:	786c3034 	stmdavc	ip!, {r2, r4, r5, ip, sp}^
    3184:	62696c2f 	rsbvs	r6, r9, #12032	; 0x2f00
    3188:	692f6970 	stmdbvs	pc!, {r4, r5, r6, r8, fp, sp, lr}	; <UNPREDICTABLE>
    318c:	756c636e 	strbvc	r6, [ip, #-878]!	; 0xfffffc92
    3190:	00006564 	andeq	r6, r0, r4, ror #10
    3194:	61666564 	cmnvs	r6, r4, ror #10
    3198:	2d746c75 	ldclcs	12, cr6, [r4, #-468]!	; 0xfffffe2c
    319c:	6f626572 	svcvs	0x00626572
    31a0:	632d746f 			; <UNDEFINED> instruction: 0x632d746f
    31a4:	6f6c6c61 	svcvs	0x006c6c61
    31a8:	632e7475 			; <UNDEFINED> instruction: 0x632e7475
    31ac:	00000100 	andeq	r0, r0, r0, lsl #2
    31b0:	2e697072 	mcrcs	0, 3, r7, cr9, cr2, {3}
    31b4:	00020068 	andeq	r0, r2, r8, rrx
    31b8:	1b050000 	blne	1431c0 <__bss_end__+0x138ea0>
    31bc:	84020500 	strhi	r0, [r2], #-1280	; 0xfffffb00
    31c0:	14000098 	strne	r0, [r0], #-152	; 0xffffff68
    31c4:	05011c05 	streq	r1, [r1, #-3077]	; 0xfffff3fb
    31c8:	02010601 	andeq	r0, r1, #1048576	; 0x100000
    31cc:	01010002 	tsteq	r1, r2

Disassembly of section .debug_str:

00000000 <.debug_str>:
   0:	63656863 	cmnvs	r5, #6488064	; 0x630000
   4:	65645f6b 	strbvs	r5, [r4, #-3947]!	; 0xfffff095
   8:	0079616c 	rsbseq	r6, r9, ip, ror #2
   c:	63656863 	cmnvs	r5, #6488064	; 0x630000
  10:	6572746b 	ldrbvs	r7, [r2, #-1131]!	; 0xfffffb95
  14:	00746573 	rsbseq	r6, r4, r3, ror r5
  18:	726f6873 	rsbvc	r6, pc, #7536640	; 0x730000
  1c:	6e692074 	mcrvs	0, 3, r2, cr9, cr4, {3}
  20:	6f5f0074 	svcvs	0x005f0074
  24:	72007475 	andvc	r7, r0, #1962934272	; 0x75000000
  28:	705f6970 	subsvc	r6, pc, r0, ror r9	; <UNPREDICTABLE>
  2c:	68637475 	stmdavs	r3!, {r0, r2, r4, r5, r6, sl, ip, sp, lr}^
  30:	67007261 	strvs	r7, [r0, -r1, ror #4]
  34:	5f6f6970 	svcpl	0x006f6970
  38:	5f746573 	svcpl	0x00746573
  3c:	7074756f 	rsbsvc	r7, r4, pc, ror #10
  40:	63007475 	movwvs	r7, #1141	; 0x475
  44:	6e61656c 	cdpvs	5, 6, cr6, cr1, cr12, {3}
  48:	6265725f 	rsbvs	r7, r5, #-268435451	; 0xf0000005
  4c:	00746f6f 	rsbseq	r6, r4, pc, ror #30
  50:	7265766f 	rsbvc	r7, r5, #116391936	; 0x6f00000
  54:	64616568 	strbtvs	r6, [r1], #-1384	; 0xfffffa98
  58:	73552f00 	cmpvc	r5, #0, 30
  5c:	2f737265 	svccs	0x00737265
  60:	63697265 	cmnvs	r9, #1342177286	; 0x50000006
  64:	72616562 	rsbvc	r6, r1, #411041792	; 0x18800000
  68:	636f442f 	cmnvs	pc, #788529152	; 0x2f000000
  6c:	6e656d75 	mcrvs	13, 3, r6, cr5, cr5, {3}
  70:	432f7374 			; <UNDEFINED> instruction: 0x432f7374
  74:	30343153 	eorscc	r3, r4, r3, asr r1
  78:	73632f45 	cmnvc	r3, #276	; 0x114
  7c:	45303431 	ldrmi	r3, [r0, #-1073]!	; 0xfffffbcf
  80:	6e69662d 	cdpvs	6, 6, cr6, cr9, cr13, {1}
  84:	702d6c61 	eorvc	r6, sp, r1, ror #24
  88:	656a6f72 	strbvs	r6, [sl, #-3954]!	; 0xfffff08e
  8c:	722f7463 	eorvc	r7, pc, #1660944384	; 0x63000000
  90:	76656c65 	strbtvc	r6, [r5], -r5, ror #24
  94:	2d746e61 	ldclcs	14, cr6, [r4, #-388]!	; 0xfffffe7c
  98:	7362616c 	cmnvc	r2, #27
  9c:	67696c2f 	strbvs	r6, [r9, -pc, lsr #24]!
  a0:	2d737468 	cfldrdcs	mvd7, [r3, #-416]!	; 0xfffffe60
  a4:	34327363 	ldrtcc	r7, [r2], #-867	; 0xfffffc9d
  a8:	2d786c30 	ldclcs	12, cr6, [r8, #-192]!	; 0xffffff40
  ac:	73772d34 	cmnvc	r7, #52, 26	; 0xd00
  b0:	32313832 	eorscc	r3, r1, #3276800	; 0x320000
  b4:	6f632f62 	svcvs	0x00632f62
  b8:	64006564 	strvs	r6, [r0], #-1380	; 0xfffffa9c
  bc:	79616c65 	stmdbvc	r1!, {r0, r2, r5, r6, sl, fp, sp, lr}^
  c0:	79636e5f 	stmdbvc	r3!, {r0, r1, r2, r3, r4, r6, r9, sl, fp, sp, lr}^
  c4:	73656c63 	cmnvc	r5, #25344	; 0x6300
  c8:	6e6f6c00 	cdpvs	12, 6, cr6, cr15, cr0, {0}
  cc:	6f6c2067 	svcvs	0x006c2067
  d0:	6920676e 	stmdbvs	r0!, {r1, r2, r3, r5, r6, r8, r9, sl, sp, lr}
  d4:	6300746e 	movwvs	r7, #1134	; 0x46e
  d8:	65706d6f 	ldrbvs	r6, [r0, #-3439]!	; 0xfffff291
  dc:	7461736e 	strbtvc	r7, [r1], #-878	; 0xfffffc92
  e0:	006e6f69 	rsbeq	r6, lr, r9, ror #30
  e4:	55465f5f 	strbpl	r5, [r6, #-3935]	; 0xfffff0a1
  e8:	4954434e 	ldmdbmi	r4, {r1, r2, r3, r6, r8, r9, lr}^
  ec:	5f5f4e4f 	svcpl	0x005f4e4f
  f0:	6c6c6100 	stfvse	f6, [ip], #-0
  f4:	6465776f 	strbtvs	r7, [r5], #-1903	; 0xfffff891
  f8:	6379635f 	cmnvs	r9, #2080374785	; 0x7c000001
  fc:	0073656c 	rsbseq	r6, r3, ip, ror #10
 100:	62616e65 	rsbvs	r6, r1, #1616	; 0x650
 104:	635f656c 	cmpvs	pc, #108, 10	; 0x1b000000
 108:	65686361 	strbvs	r6, [r8, #-865]!	; 0xfffffc9f
 10c:	635f6e00 	cmpvs	pc, #0, 28
 110:	63006379 	movwvs	r6, #889	; 0x379
 114:	6b636568 	blvs	18d96bc <__bss_end__+0x18cf39c>
 118:	6d69745f 	cfstrdvs	mvd7, [r9, #-380]!	; 0xfffffe84
 11c:	73676e69 	cmnvc	r7, #1680	; 0x690
 120:	736e7500 	cmnvc	lr, #0, 10
 124:	656e6769 	strbvs	r6, [lr, #-1897]!	; 0xfffff897
 128:	68632064 	stmdavs	r3!, {r2, r5, r6, sp}^
 12c:	74007261 	strvc	r7, [r0], #-609	; 0xfffffd9f
 130:	5f656d69 	svcpl	0x00656d69
 134:	63657375 	cmnvs	r5, #-738197503	; 0xd4000001
 138:	61747300 	cmnvs	r4, r0, lsl #6
 13c:	635f7472 	cmpvs	pc, #1912602624	; 0x72000000
 140:	6c006379 	stcvs	3, cr6, [r0], {121}	; 0x79
 144:	20676e6f 	rsbcs	r6, r7, pc, ror #28
 148:	676e6f6c 	strbvs	r6, [lr, -ip, ror #30]!
 14c:	736e7520 	cmnvc	lr, #32, 10	; 0x8000000
 150:	656e6769 	strbvs	r6, [lr, #-1897]!	; 0xfffff897
 154:	6e692064 	cdpvs	0, 6, cr2, cr9, cr4, {3}
 158:	69740074 	ldmdbvs	r4!, {r2, r4, r5, r6}^
 15c:	635f656d 	cmpvs	pc, #457179136	; 0x1b400000
 160:	6b636568 	blvs	18d9708 <__bss_end__+0x18cf3e8>
 164:	6f6c7300 	svcvs	0x006c7300
 168:	6f6e0070 	svcvs	0x006e0070
 16c:	69616d74 	stmdbvs	r1!, {r2, r4, r5, r6, r8, sl, fp, sp, lr}^
 170:	6873006e 	ldmdavs	r3!, {r1, r2, r3, r5, r6}^
 174:	2074726f 	rsbscs	r7, r4, pc, ror #4
 178:	69736e75 	ldmdbvs	r3!, {r0, r2, r4, r5, r6, r9, sl, fp, sp, lr}^
 17c:	64656e67 	strbtvs	r6, [r5], #-3687	; 0xfffff199
 180:	746e6920 	strbtvc	r6, [lr], #-2336	; 0xfffff6e0
 184:	65686300 	strbvs	r6, [r8, #-768]!	; 0xfffffd00
 188:	30746b63 	rsbscc	r6, r4, r3, ror #22
 18c:	68630068 	stmdavs	r3!, {r3, r5, r6}^
 190:	746b6365 	strbtvc	r6, [fp], #-869	; 0xfffffc9b
 194:	67006c30 	smladxvs	r0, r0, ip, r6
 198:	5f6f6970 	svcpl	0x006f6970
 19c:	5f746573 	svcpl	0x00746573
 1a0:	725f6e6f 	subsvc	r6, pc, #1776	; 0x6f0
 1a4:	64007761 	strvs	r7, [r0], #-1889	; 0xfffff89f
 1a8:	625f7665 	subsvs	r7, pc, #105906176	; 0x6500000
 1ac:	69727261 	ldmdbvs	r2!, {r0, r5, r6, r9, ip, sp, lr}^
 1b0:	70007265 	andvc	r7, r0, r5, ror #4
 1b4:	705f7869 	subsvc	r7, pc, r9, ror #16
 1b8:	64006e69 	strvs	r6, [r0], #-3689	; 0xfffff197
 1bc:	79616c65 	stmdbvc	r1!, {r0, r2, r5, r6, sl, fp, sp, lr}^
 1c0:	00736d5f 	rsbseq	r6, r3, pc, asr sp
 1c4:	69742d30 	ldmdbvs	r4!, {r4, r5, r8, sl, fp, sp}^
 1c8:	676e696d 	strbvs	r6, [lr, -sp, ror #18]!
 1cc:	6568632d 	strbvs	r6, [r8, #-813]!	; 0xfffffcd3
 1d0:	632e6b63 			; <UNDEFINED> instruction: 0x632e6b63
 1d4:	554e4700 	strbpl	r4, [lr, #-1792]	; 0xfffff900
 1d8:	39394320 	ldmdbcc	r9!, {r5, r8, r9, lr}
 1dc:	322e3920 	eorcc	r3, lr, #32, 18	; 0x80000
 1e0:	3220312e 	eorcc	r3, r0, #-2147483637	; 0x8000000b
 1e4:	31393130 	teqcc	r9, r0, lsr r1
 1e8:	20353230 	eorscs	r3, r5, r0, lsr r2
 1ec:	6c657228 	sfmvs	f7, 2, [r5], #-160	; 0xffffff60
 1f0:	65736165 	ldrbvs	r6, [r3, #-357]!	; 0xfffffe9b
 1f4:	415b2029 	cmpmi	fp, r9, lsr #32
 1f8:	612f4d52 			; <UNDEFINED> instruction: 0x612f4d52
 1fc:	392d6d72 	pushcc	{r1, r4, r5, r6, r8, sl, fp, sp, lr}
 200:	6172622d 	cmnvs	r2, sp, lsr #4
 204:	2068636e 	rsbcs	r6, r8, lr, ror #6
 208:	69766572 	ldmdbvs	r6!, {r1, r4, r5, r6, r8, sl, sp, lr}^
 20c:	6e6f6973 			; <UNDEFINED> instruction: 0x6e6f6973
 210:	37373220 	ldrcc	r3, [r7, -r0, lsr #4]!
 214:	5d393935 			; <UNDEFINED> instruction: 0x5d393935
 218:	636d2d20 	cmnvs	sp, #32, 26	; 0x800
 21c:	613d7570 	teqvs	sp, r0, ror r5
 220:	31316d72 	teqcc	r1, r2, ror sp
 224:	7a6a3637 	bvc	1a8db08 <__bss_end__+0x1a837e8>
 228:	20732d66 	rsbscs	r2, r3, r6, ror #26
 22c:	75746d2d 	ldrbvc	r6, [r4, #-3373]!	; 0xfffff2d3
 230:	613d656e 	teqvs	sp, lr, ror #10
 234:	31316d72 	teqcc	r1, r2, ror sp
 238:	7a6a3637 	bvc	1a8db1c <__bss_end__+0x1a837fc>
 23c:	20732d66 	rsbscs	r2, r3, r6, ror #26
 240:	6c666d2d 	stclvs	13, cr6, [r6], #-180	; 0xffffff4c
 244:	2d74616f 	ldfcse	f6, [r4, #-444]!	; 0xfffffe44
 248:	3d696261 	sfmcc	f6, 2, [r9, #-388]!	; 0xfffffe7c
 24c:	74666f73 	strbtvc	r6, [r6], #-3955	; 0xfffff08d
 250:	616d2d20 	cmnvs	sp, r0, lsr #26
 254:	2d206d72 	stccs	13, cr6, [r0, #-456]!	; 0xfffffe38
 258:	6372616d 	cmnvs	r2, #1073741851	; 0x4000001b
 25c:	72613d68 	rsbvc	r3, r1, #104, 26	; 0x1a00
 260:	6b36766d 	blvs	d9dc1c <__bss_end__+0xd938fc>
 264:	672d207a 			; <UNDEFINED> instruction: 0x672d207a
 268:	20626467 	rsbcs	r6, r2, r7, ror #8
 26c:	20334f2d 	eorscs	r4, r3, sp, lsr #30
 270:	6474732d 	ldrbtvs	r7, [r4], #-813	; 0xfffffcd3
 274:	756e673d 	strbvc	r6, [lr, #-1853]!	; 0xfffff8c3
 278:	2d203939 			; <UNDEFINED> instruction: 0x2d203939
 27c:	65726666 	ldrbvs	r6, [r2, #-1638]!	; 0xfffff99a
 280:	61747365 	cmnvs	r4, r5, ror #6
 284:	6e69646e 	cdpvs	4, 6, cr6, cr9, cr14, {3}
 288:	70670067 	rsbvc	r0, r7, r7, rrx
 28c:	735f6f69 	cmpvc	pc, #420	; 0x1a4
 290:	6f5f7465 	svcvs	0x005f7465
 294:	725f6666 	subsvc	r6, pc, #106954752	; 0x6600000
 298:	64007761 	strvs	r7, [r0], #-1889	; 0xfffff89f
 29c:	6f5f6569 	svcvs	0x005f6569
 2a0:	72655f6e 	rsbvc	r5, r5, #440	; 0x1b8
 2a4:	5f726f72 	svcpl	0x00726f72
 2a8:	70720070 	rsbsvc	r0, r2, r0, ror r0
 2ac:	65725f69 	ldrbvs	r5, [r2, #-3945]!	; 0xfffff097
 2b0:	5f746573 	svcpl	0x00746573
 2b4:	63747570 	cmnvs	r4, #112, 10	; 0x1c000000
 2b8:	554c4600 	strbpl	r4, [ip, #-1536]	; 0xfffffa00
 2bc:	63004853 	movwvs	r4, #2131	; 0x853
 2c0:	6b636568 	blvs	18d9868 <__bss_end__+0x18cf548>
 2c4:	00683174 	rsbeq	r3, r8, r4, ror r1
 2c8:	63656863 	cmnvs	r5, #6488064	; 0x630000
 2cc:	6c31746b 	cfldrsvs	mvf7, [r1], #-428	; 0xfffffe54
 2d0:	6f656e00 	svcvs	0x00656e00
 2d4:	6e61685f 	mcrvs	8, 3, r6, cr1, cr15, {2}
 2d8:	00656c64 	rsbeq	r6, r5, r4, ror #24
 2dc:	706f656e 	rsbvc	r6, pc, lr, ror #10
 2e0:	735f7869 	cmpvc	pc, #6881280	; 0x690000
 2e4:	70646e65 	rsbvc	r6, r4, r5, ror #28
 2e8:	6c657869 	stclvs	8, cr7, [r5], #-420	; 0xfffffe5c
 2ec:	69706e00 	ldmdbvs	r0!, {r9, sl, fp, sp, lr}^
 2f0:	006c6578 	rsbeq	r6, ip, r8, ror r5
 2f4:	706f656e 	rsbvc	r6, pc, lr, ror #10
 2f8:	775f7869 	ldrbvc	r7, [pc, -r9, ror #16]
 2fc:	65746972 	ldrbvs	r6, [r4, #-2418]!	; 0xfffff68e
 300:	6f656e00 	svcvs	0x00656e00
 304:	5f786970 	svcpl	0x00786970
 308:	74696e69 	strbtvc	r6, [r9], #-3689	; 0xfffff197
 30c:	616d6b00 	cmnvs	sp, r0, lsl #22
 310:	636f6c6c 	cmnvs	pc, #108, 24	; 0x6c00
 314:	6f656e00 	svcvs	0x00656e00
 318:	5f786970 	svcpl	0x00786970
 31c:	73756c66 	cmnvc	r5, #26112	; 0x6600
 320:	656d0068 	strbvs	r0, [sp, #-104]!	; 0xffffff98
 324:	7465736d 	strbtvc	r7, [r5], #-877	; 0xfffffc93
 328:	6f656e00 	svcvs	0x00656e00
 32c:	5f786970 	svcpl	0x00786970
 330:	74736166 	ldrbtvc	r6, [r3], #-358	; 0xfffffe9a
 334:	656c635f 	strbvs	r6, [ip, #-863]!	; 0xfffffca1
 338:	6e007261 	cdpvs	2, 0, cr7, cr0, cr1, {3}
 33c:	705f6f65 	subsvc	r6, pc, r5, ror #30
 340:	6c657869 	stclvs	8, cr7, [r5], #-420	; 0xfffffe5c
 344:	78697000 	stmdavc	r9!, {ip, sp, lr}^
 348:	00736c65 	rsbseq	r6, r3, r5, ror #24
 34c:	706f656e 	rsbvc	r6, pc, lr, ror #10
 350:	6c657869 	stclvs	8, cr7, [r5], #-420	; 0xfffffe5c
 354:	7500632e 	strvc	r6, [r0, #-814]	; 0xfffffcd2
 358:	38746e69 	ldmdacc	r4!, {r0, r3, r5, r6, r9, sl, fp, sp, lr}^
 35c:	6e00745f 	cfmvsrvs	mvf0, r7
 360:	745f6f65 	ldrbvc	r6, [pc], #-3941	; 368 <__code_start__-0x7c98>
 364:	6f656e00 	svcvs	0x00656e00
 368:	5f786970 	svcpl	0x00786970
 36c:	61656c63 	cmnvs	r5, r3, ror #24
 370:	69750072 	ldmdbvs	r5!, {r1, r4, r5, r6}^
 374:	3233746e 	eorscc	r7, r3, #1845493760	; 0x6e000000
 378:	4700745f 	smlsdmi	r0, pc, r4, r7	; <UNPREDICTABLE>
 37c:	4320554e 			; <UNDEFINED> instruction: 0x4320554e
 380:	39203939 	stmdbcc	r0!, {r0, r3, r4, r5, r8, fp, ip, sp}
 384:	312e322e 			; <UNDEFINED> instruction: 0x312e322e
 388:	31303220 	teqcc	r0, r0, lsr #4
 38c:	32303139 	eorscc	r3, r0, #1073741838	; 0x4000000e
 390:	72282035 	eorvc	r2, r8, #53, 0	; 0x35
 394:	61656c65 	cmnvs	r5, r5, ror #24
 398:	20296573 	eorcs	r6, r9, r3, ror r5
 39c:	4d52415b 	ldfmie	f4, [r2, #-364]	; 0xfffffe94
 3a0:	6d72612f 	ldfvse	f6, [r2, #-188]!	; 0xffffff44
 3a4:	622d392d 	eorvs	r3, sp, #737280	; 0xb4000
 3a8:	636e6172 	cmnvs	lr, #-2147483620	; 0x8000001c
 3ac:	65722068 	ldrbvs	r2, [r2, #-104]!	; 0xffffff98
 3b0:	69736976 	ldmdbvs	r3!, {r1, r2, r4, r5, r6, r8, fp, sp, lr}^
 3b4:	32206e6f 	eorcc	r6, r0, #1776	; 0x6f0
 3b8:	39353737 	ldmdbcc	r5!, {r0, r1, r2, r4, r5, r8, r9, sl, ip, sp}
 3bc:	2d205d39 	stccs	13, cr5, [r0, #-228]!	; 0xffffff1c
 3c0:	7570636d 	ldrbvc	r6, [r0, #-877]!	; 0xfffffc93
 3c4:	6d72613d 	ldfvse	f6, [r2, #-244]!	; 0xffffff0c
 3c8:	36373131 			; <UNDEFINED> instruction: 0x36373131
 3cc:	2d667a6a 	vstmdbcs	r6!, {s15-s120}
 3d0:	6d2d2073 	stcvs	0, cr2, [sp, #-460]!	; 0xfffffe34
 3d4:	656e7574 	strbvs	r7, [lr, #-1396]!	; 0xfffffa8c
 3d8:	6d72613d 	ldfvse	f6, [r2, #-244]!	; 0xffffff0c
 3dc:	36373131 			; <UNDEFINED> instruction: 0x36373131
 3e0:	2d667a6a 	vstmdbcs	r6!, {s15-s120}
 3e4:	6d2d2073 	stcvs	0, cr2, [sp, #-460]!	; 0xfffffe34
 3e8:	616f6c66 	cmnvs	pc, r6, ror #24
 3ec:	62612d74 	rsbvs	r2, r1, #116, 26	; 0x1d00
 3f0:	6f733d69 	svcvs	0x00733d69
 3f4:	2d207466 	cfstrscs	mvf7, [r0, #-408]!	; 0xfffffe68
 3f8:	6d72616d 	ldfvse	f6, [r2, #-436]!	; 0xfffffe4c
 3fc:	616d2d20 	cmnvs	sp, r0, lsr #26
 400:	3d686372 	stclcc	3, cr6, [r8, #-456]!	; 0xfffffe38
 404:	766d7261 	strbtvc	r7, [sp], -r1, ror #4
 408:	207a6b36 	rsbscs	r6, sl, r6, lsr fp
 40c:	6467672d 	strbtvs	r6, [r7], #-1837	; 0xfffff8d3
 410:	672d2062 	strvs	r2, [sp, -r2, rrx]!
 414:	20626467 	rsbcs	r6, r2, r7, ror #8
 418:	20674f2d 	rsbcs	r4, r7, sp, lsr #30
 41c:	20674f2d 	rsbcs	r4, r7, sp, lsr #30
 420:	6474732d 	ldrbtvs	r7, [r4], #-813	; 0xfffffcd3
 424:	756e673d 	strbvc	r6, [lr, #-1853]!	; 0xfffff8c3
 428:	2d203939 			; <UNDEFINED> instruction: 0x2d203939
 42c:	3d647473 	cfstrdcc	mvd7, [r4, #-460]!	; 0xfffffe34
 430:	39756e67 	ldmdbcc	r5!, {r0, r1, r2, r5, r6, r9, sl, fp, sp, lr}^
 434:	662d2039 			; <UNDEFINED> instruction: 0x662d2039
 438:	65657266 	strbvs	r7, [r5, #-614]!	; 0xfffffd9a
 43c:	6e617473 	mcrvs	4, 3, r7, cr1, cr3, {3}
 440:	676e6964 	strbvs	r6, [lr, -r4, ror #18]!
 444:	7a697300 	bvc	1a5d04c <__bss_end__+0x1a52d2c>
 448:	00745f65 	rsbseq	r5, r4, r5, ror #30
 44c:	6573552f 	ldrbvs	r5, [r3, #-1327]!	; 0xfffffad1
 450:	652f7372 	strvs	r7, [pc, #-882]!	; e6 <__code_start__-0x7f1a>
 454:	62636972 	rsbvs	r6, r3, #1867776	; 0x1c8000
 458:	2f726165 	svccs	0x00726165
 45c:	75636f44 	strbvc	r6, [r3, #-3908]!	; 0xfffff0bc
 460:	746e656d 	strbtvc	r6, [lr], #-1389	; 0xfffffa93
 464:	53432f73 	movtpl	r2, #16243	; 0x3f73
 468:	45303431 	ldrmi	r3, [r0, #-1073]!	; 0xfffffbcf
 46c:	3173632f 	cmncc	r3, pc, lsr #6
 470:	2d453034 	stclcs	0, cr3, [r5, #-208]	; 0xffffff30
 474:	616e6966 	cmnvs	lr, r6, ror #18
 478:	72702d6c 	rsbsvc	r2, r0, #108, 26	; 0x1b00
 47c:	63656a6f 	cmnvs	r5, #454656	; 0x6f000
 480:	696c2f74 	stmdbvs	ip!, {r2, r4, r5, r6, r8, r9, sl, fp, sp}^
 484:	322d7362 	eorcc	r7, sp, #-2013265919	; 0x88000001
 488:	786c3034 	stmdavc	ip!, {r2, r4, r5, ip, sp}^
 48c:	62696c2f 	rsbvs	r6, r9, #12032	; 0x2f00
 490:	2e006970 			; <UNDEFINED> instruction: 0x2e006970
 494:	62696c2f 	rsbvs	r6, r9, #12032	; 0x2f00
 498:	656d2f63 	strbvs	r2, [sp, #-3939]!	; 0xfffff09d
 49c:	7465736d 	strbtvc	r7, [r5], #-877	; 0xfffffc93
 4a0:	6100632e 	tstvs	r0, lr, lsr #6
 4a4:	00736772 	rsbseq	r6, r3, r2, ror r7
 4a8:	705f6176 	subsvc	r6, pc, r6, ror r1	; <UNPREDICTABLE>
 4ac:	746e6972 	strbtvc	r6, [lr], #-2418	; 0xfffff68e
 4b0:	5f5f006b 	svcpl	0x005f006b
 4b4:	63756e67 	cmnvs	r5, #1648	; 0x670
 4b8:	5f61765f 	svcpl	0x0061765f
 4bc:	7473696c 	ldrbtvc	r6, [r3], #-2412	; 0xfffff694
 4c0:	615f5f00 	cmpvs	pc, r0, lsl #30
 4c4:	2f2e0070 	svccs	0x002e0070
 4c8:	6362696c 	cmnvs	r2, #108, 18	; 0x1b0000
 4cc:	6972702f 	ldmdbvs	r2!, {r0, r1, r2, r3, r5, ip, sp, lr}^
 4d0:	2e6b746e 	cdpcs	4, 6, cr7, cr11, cr14, {3}
 4d4:	5f5f0063 	svcpl	0x005f0063
 4d8:	6c5f6176 	ldfvse	f6, [pc], {118}	; 0x76
 4dc:	00747369 	rsbseq	r7, r4, r9, ror #6
 4e0:	65746e69 	ldrbvs	r6, [r4, #-3689]!	; 0xfffff197
 4e4:	6c616e72 	stclvs	14, cr6, [r1], #-456	; 0xfffffe38
 4e8:	7475705f 	ldrbtvc	r7, [r5], #-95	; 0xffffffa1
 4ec:	72616863 	rsbvc	r6, r1, #6488064	; 0x630000
 4f0:	69707200 	ldmdbvs	r0!, {r9, ip, sp, lr}^
 4f4:	7465735f 	strbtvc	r7, [r5], #-863	; 0xfffffca1
 4f8:	7475705f 	ldrbtvc	r7, [r5], #-95	; 0xffffffa1
 4fc:	2f2e0063 	svccs	0x002e0063
 500:	6362696c 	cmnvs	r2, #108, 18	; 0x1b0000
 504:	7475702f 	ldrbtvc	r7, [r5], #-47	; 0xffffffd1
 508:	72616863 	rsbvc	r6, r1, #6488064	; 0x630000
 50c:	7500632e 	strvc	r6, [r0, #-814]	; 0xfffffcd2
 510:	5f747261 	svcpl	0x00747261
 514:	63747570 	cmnvs	r4, #112, 10	; 0x1c000000
 518:	746e6900 	strbtvc	r6, [lr], #-2304	; 0xfffff700
 51c:	616e7265 	cmnvs	lr, r5, ror #4
 520:	75705f6c 	ldrbvc	r5, [r0, #-3948]!	; 0xfffff094
 524:	2e006b74 	vmovcs.16	d0[1], r6
 528:	62696c2f 	rsbvs	r6, r9, #12032	; 0x2f00
 52c:	75702f63 	ldrbvc	r2, [r0, #-3939]!	; 0xfffff09d
 530:	632e6b74 			; <UNDEFINED> instruction: 0x632e6b74
 534:	64736900 	ldrbtvs	r6, [r3], #-2304	; 0xfffff700
 538:	74696769 	strbtvc	r6, [r9], #-1897	; 0xfffff897
 53c:	6e697500 	cdpvs	5, 6, cr7, cr9, cr0, {0}
 540:	5f343674 	svcpl	0x00343674
 544:	2f2e0074 	svccs	0x002e0074
 548:	6362696c 	cmnvs	r2, #108, 18	; 0x1b0000
 54c:	2d61762f 	stclcs	6, cr7, [r1, #-188]!	; 0xffffff44
 550:	6e697270 	mcrvs	2, 3, r7, cr9, cr0, {3}
 554:	632e6b74 			; <UNDEFINED> instruction: 0x632e6b74
 558:	635f5f00 	cmpvs	pc, #0, 30
 55c:	5f65646f 	svcpl	0x0065646f
 560:	72617473 	rsbvc	r7, r1, #1929379840	; 0x73000000
 564:	005f5f74 	subseq	r5, pc, r4, ror pc	; <UNPREDICTABLE>
 568:	73625f5f 	cmnvc	r2, #380	; 0x17c
 56c:	74735f73 	ldrbtvc	r5, [r3], #-3955	; 0xfffff08d
 570:	5f747261 	svcpl	0x00747261
 574:	6977005f 	ldmdbvs	r7!, {r0, r1, r2, r3, r4, r6}^
 578:	00687464 	rsbeq	r7, r8, r4, ror #8
 57c:	61645f5f 	cmnvs	r4, pc, asr pc
 580:	655f6174 	ldrbvs	r6, [pc, #-372]	; 414 <__code_start__-0x7bec>
 584:	5f5f646e 	svcpl	0x005f646e
 588:	74757000 	ldrbtvc	r7, [r5], #-0
 58c:	70665f63 	rsbvc	r5, r6, r3, ror #30
 590:	625f5f00 	subsvs	r5, pc, #0, 30
 594:	655f7373 	ldrbvs	r7, [pc, #-883]	; 229 <__code_start__-0x7dd7>
 598:	5f5f646e 	svcpl	0x005f646e
 59c:	685f5f00 	ldmdavs	pc, {r8, r9, sl, fp, ip, lr}^	; <UNPREDICTABLE>
 5a0:	5f706165 	svcpl	0x00706165
 5a4:	72617473 	rsbvc	r7, r1, #1929379840	; 0x73000000
 5a8:	005f5f74 	subseq	r5, pc, r4, ror pc	; <UNPREDICTABLE>
 5ac:	5f697072 	svcpl	0x00697072
 5b0:	5f746573 	svcpl	0x00746573
 5b4:	7074756f 	rsbsvc	r7, r4, pc, ror #10
 5b8:	66007475 			; <UNDEFINED> instruction: 0x66007475
 5bc:	735f746d 	cmpvc	pc, #1828716544	; 0x6d000000
 5c0:	74726174 	ldrbtvc	r6, [r2], #-372	; 0xfffffe8c
 5c4:	72747300 	rsbsvc	r7, r4, #0, 6
 5c8:	00797063 	rsbseq	r7, r9, r3, rrx
 5cc:	5f67656e 	svcpl	0x0067656e
 5d0:	756e0070 	strbvc	r0, [lr, #-112]!	; 0xffffff90
 5d4:	5f00316d 	svcpl	0x0000316d
 5d8:	646f635f 	strbtvs	r6, [pc], #-863	; 5e0 <__code_start__-0x7a20>
 5dc:	6e655f65 	cdpvs	15, 6, cr5, cr5, cr5, {3}
 5e0:	005f5f64 	subseq	r5, pc, r4, ror #30
 5e4:	74696d65 	strbtvc	r6, [r9], #-3429	; 0xfffff29b
 5e8:	74757000 	ldrbtvc	r7, [r5], #-0
 5ec:	70665f73 	rsbvc	r5, r6, r3, ror pc
 5f0:	76657200 	strbtvc	r7, [r5], -r0, lsl #4
 5f4:	65737265 	ldrbvs	r7, [r3, #-613]!	; 0xfffffd9b
 5f8:	72747300 	rsbsvc	r7, r4, #0, 6
 5fc:	00746163 	rsbseq	r6, r4, r3, ror #2
 600:	63727473 	cmnvs	r2, #1929379840	; 0x73000000
 604:	5f00706d 	svcpl	0x0000706d
 608:	7461645f 	strbtvc	r6, [r1], #-1119	; 0xfffffba1
 60c:	74735f61 	ldrbtvc	r5, [r3], #-3937	; 0xfffff09f
 610:	5f747261 	svcpl	0x00747261
 614:	5f5f005f 	svcpl	0x005f005f
 618:	676f7270 			; <UNDEFINED> instruction: 0x676f7270
 61c:	646e655f 	strbtvs	r6, [lr], #-1375	; 0xfffffaa1
 620:	73005f5f 	movwvc	r5, #3935	; 0xf5f
 624:	636e7274 	cmnvs	lr, #116, 4	; 0x40000007
 628:	6200706d 	andvs	r7, r0, #109, 0	; 0x6d
 62c:	00657361 	rsbeq	r7, r5, r1, ror #6
 630:	6e676973 			; <UNDEFINED> instruction: 0x6e676973
 634:	705f6465 	subsvc	r6, pc, r5, ror #8
 638:	73696400 	cmnvc	r9, #0, 8
 63c:	656c6261 	strbvs	r6, [ip, #-609]!	; 0xfffffd9f
 640:	6361635f 	cmnvs	r1, #2080374785	; 0x7c000001
 644:	2e006568 	cfsh32cs	mvfx6, mvfx0, #56
 648:	6174732f 	cmnvs	r4, pc, lsr #6
 64c:	732d6666 			; <UNDEFINED> instruction: 0x732d6666
 650:	632f6372 			; <UNDEFINED> instruction: 0x632f6372
 654:	65686361 	strbvs	r6, [r8, #-865]!	; 0xfffffc9f
 658:	7200632e 	andvc	r6, r0, #-1207959552	; 0xb8000000
 65c:	725f6970 	subsvc	r6, pc, #112, 18	; 0x1c0000
 660:	6f6f6265 	svcvs	0x006f6265
 664:	2f2e0074 	svccs	0x002e0074
 668:	66617473 			; <UNDEFINED> instruction: 0x66617473
 66c:	72732d66 	rsbsvc	r2, r3, #6528	; 0x1980
 670:	6c632f63 	stclvs	15, cr2, [r3], #-396	; 0xfffffe74
 674:	2d6e6165 	stfcse	f6, [lr, #-404]!	; 0xfffffe6c
 678:	6f626572 	svcvs	0x00626572
 67c:	632e746f 			; <UNDEFINED> instruction: 0x632e746f
 680:	72617500 	rsbvc	r7, r1, #0, 10
 684:	6c665f74 	stclvs	15, cr5, [r6], #-464	; 0xfffffe30
 688:	5f687375 	svcpl	0x00687375
 68c:	5f007874 	svcpl	0x00007874
 690:	61747363 	cmnvs	r4, r3, ror #6
 694:	62007472 	andvs	r7, r0, #1912602624	; 0x72000000
 698:	655f7373 	ldrbvs	r7, [pc, #-883]	; 32d <__code_start__-0x7cd3>
 69c:	7500646e 	strvc	r6, [r0, #-1134]	; 0xfffffb92
 6a0:	5f747261 	svcpl	0x00747261
 6a4:	74696e69 	strbtvc	r6, [r9], #-3689	; 0xfffff197
 6a8:	73756300 	cmnvc	r5, #0, 6
 6ac:	5f6d6f74 	svcpl	0x006d6f74
 6b0:	64616f6c 	strbtvs	r6, [r1], #-3948	; 0xfffff094
 6b4:	2e007265 	cdpcs	2, 0, cr7, cr0, cr5, {3}
 6b8:	6174732f 	cmnvs	r4, pc, lsr #6
 6bc:	732d6666 			; <UNDEFINED> instruction: 0x732d6666
 6c0:	632f6372 			; <UNDEFINED> instruction: 0x632f6372
 6c4:	72617473 	rsbvc	r7, r1, #1929379840	; 0x73000000
 6c8:	00632e74 	rsbeq	r2, r3, r4, ror lr
 6cc:	74732f2e 	ldrbtvc	r2, [r3], #-3886	; 0xfffff0d2
 6d0:	2d666661 	stclcs	6, cr6, [r6, #-388]!	; 0xfffffe7c
 6d4:	2f637273 	svccs	0x00637273
 6d8:	74737563 	ldrbtvc	r7, [r3], #-1379	; 0xfffffa9d
 6dc:	6c2d6d6f 	stcvs	13, cr6, [sp], #-444	; 0xfffffe44
 6e0:	6564616f 	strbvs	r6, [r4, #-367]!	; 0xfffffe91
 6e4:	00632e72 	rsbeq	r2, r3, r2, ror lr
 6e8:	6f626572 	svcvs	0x00626572
 6ec:	635f746f 	cmpvs	pc, #1862270976	; 0x6f000000
 6f0:	6f6c6c61 	svcvs	0x006c6c61
 6f4:	50007475 	andpl	r7, r0, r5, ror r4
 6f8:	44575f4d 	ldrbmi	r5, [r7], #-3917	; 0xfffff0b3
 6fc:	5000474f 	andpl	r4, r0, pc, asr #14
 700:	32335455 	eorscc	r5, r3, #1426063360	; 0x55000000
 704:	74657300 	strbtvc	r7, [r5], #-768	; 0xfffffd00
 708:	6573755f 	ldrbvs	r7, [r3, #-1375]!	; 0xfffffaa1
 70c:	656c5f72 	strbvs	r5, [ip, #-3954]!	; 0xfffff08e
 710:	006c6576 	rsbeq	r6, ip, r6, ror r5
 714:	74732f2e 	ldrbtvc	r2, [r3], #-3886	; 0xfffff0d2
 718:	2d666661 	stclcs	6, cr6, [r6, #-388]!	; 0xfffffe7c
 71c:	2f637273 	svccs	0x00637273
 720:	6f626572 	svcvs	0x00626572
 724:	632e746f 			; <UNDEFINED> instruction: 0x632e746f
 728:	5f4d5000 	svcpl	0x004d5000
 72c:	53534150 	cmppl	r3, #20
 730:	44524f57 	ldrbmi	r4, [r2], #-3927	; 0xfffff0a9
 734:	5f746100 	svcpl	0x00746100
 738:	72657375 	rsbvc	r7, r5, #-738197503	; 0xd4000001
 73c:	76656c5f 			; <UNDEFINED> instruction: 0x76656c5f
 740:	50006c65 	andpl	r6, r0, r5, ror #24
 744:	53525f4d 	cmppl	r2, #308	; 0x134
 748:	575f4354 			; <UNDEFINED> instruction: 0x575f4354
 74c:	47464352 	smlsldmi	r4, r6, r2, r3
 750:	4c55465f 	mrrcmi	6, 5, r4, r5, cr15
 754:	45525f4c 	ldrbmi	r5, [r2, #-3916]	; 0xfffff0b4
 758:	00544553 	subseq	r4, r4, r3, asr r5
 75c:	525f4d50 	subspl	r4, pc, #80, 26	; 0x1400
 760:	00435453 	subeq	r5, r3, r3, asr r4
 764:	72737063 	rsbsvc	r7, r3, #99, 0	; 0x63
 768:	6c656400 	cfstrdvs	mvd6, [r5], #-0
 76c:	735f7961 	cmpvc	pc, #1589248	; 0x184000
 770:	2e006365 	cdpcs	3, 0, cr6, cr0, cr5, {3}
 774:	6174732f 	cmnvs	r4, pc, lsr #6
 778:	732d6666 			; <UNDEFINED> instruction: 0x732d6666
 77c:	742f6372 	strtvc	r6, [pc], #-882	; 784 <__code_start__-0x787c>
 780:	72656d69 	rsbvc	r6, r5, #6720	; 0x1a40
 784:	4700632e 	strmi	r6, [r0, -lr, lsr #6]
 788:	32335445 	eorscc	r5, r3, #1157627904	; 0x45000000
 78c:	6d697400 	cfstrdvs	mvd7, [r9, #-0]
 790:	675f7265 	ldrbvs	r7, [pc, -r5, ror #4]
 794:	755f7465 	ldrbvc	r7, [pc, #-1125]	; 337 <__code_start__-0x7cc9>
 798:	00636573 	rsbeq	r6, r3, r3, ror r5
 79c:	616c6564 	cmnvs	ip, r4, ror #10
 7a0:	73755f79 	cmnvc	r5, #484	; 0x1e4
 7a4:	6d697400 	cfstrdvs	mvd7, [r9, #-0]
 7a8:	675f7265 	ldrbvs	r7, [pc, -r5, ror #4]
 7ac:	755f7465 	ldrbvc	r7, [pc, #-1125]	; 34f <__code_start__-0x7cb1>
 7b0:	5f636573 	svcpl	0x00636573
 7b4:	00776172 	rsbseq	r6, r7, r2, ror r1
 7b8:	6f697067 	svcvs	0x00697067
 7bc:	726c635f 	rsbvc	r6, ip, #2080374785	; 0x7c000001
 7c0:	70670030 	rsbvc	r0, r7, r0, lsr r0
 7c4:	735f6f69 	cmpvc	pc, #420	; 0x1a4
 7c8:	00307465 	eorseq	r7, r0, r5, ror #8
 7cc:	6f697067 	svcvs	0x00697067
 7d0:	6972775f 	ldmdbvs	r2!, {r0, r1, r2, r3, r4, r6, r8, r9, sl, ip, sp, lr}^
 7d4:	47006574 	smlsdxmi	r0, r4, r5, r6
 7d8:	5f4f4950 	svcpl	0x004f4950
 7dc:	434e5546 	movtmi	r5, #58694	; 0xe546
 7e0:	54554f5f 	ldrbpl	r4, [r5], #-3935	; 0xfffff0a1
 7e4:	00545550 	subseq	r5, r4, r0, asr r5
 7e8:	5f564544 	svcpl	0x00564544
 7ec:	334c4156 	movtcc	r4, #49494	; 0xc156
 7f0:	70670032 	rsbvc	r0, r7, r2, lsr r0
 7f4:	725f6f69 	subsvc	r6, pc, #420	; 0x1a4
 7f8:	00646165 	rsbeq	r6, r4, r5, ror #2
 7fc:	4f495047 	svcmi	0x00495047
 800:	4e55465f 	mrcmi	6, 2, r4, cr5, cr15, {2}
 804:	4c415f43 	mcrrmi	15, 4, r5, r1, cr3
 808:	47003054 	smlsdmi	r0, r4, r0, r3
 80c:	5f4f4950 	svcpl	0x004f4950
 810:	434e5546 	movtmi	r5, #58694	; 0xe546
 814:	544c415f 	strbpl	r4, [ip], #-351	; 0xfffffea1
 818:	50470031 	subpl	r0, r7, r1, lsr r0
 81c:	465f4f49 	ldrbmi	r4, [pc], -r9, asr #30
 820:	5f434e55 	svcpl	0x00434e55
 824:	32544c41 	subscc	r4, r4, #16640	; 0x4100
 828:	49504700 	ldmdbmi	r0, {r8, r9, sl, lr}^
 82c:	55465f4f 	strbpl	r5, [r6, #-3919]	; 0xfffff0b1
 830:	415f434e 	cmpmi	pc, lr, asr #6
 834:	0033544c 	eorseq	r5, r3, ip, asr #8
 838:	4f495047 	svcmi	0x00495047
 83c:	4e55465f 	mrcmi	6, 2, r4, cr5, cr15, {2}
 840:	4c415f43 	mcrrmi	15, 4, r5, r1, cr3
 844:	67003554 	smlsdvs	r0, r4, r5, r3
 848:	5f6f6970 	svcpl	0x006f6970
 84c:	5f746573 	svcpl	0x00746573
 850:	75706e69 	ldrbvc	r6, [r0, #-3689]!	; 0xfffff197
 854:	682f0074 	stmdavs	pc!, {r2, r4, r5, r6}	; <UNPREDICTABLE>
 858:	2f656d6f 	svccs	0x00656d6f
 85c:	6c676e65 	stclvs	14, cr6, [r7], #-404	; 0xfffffe6c
 860:	632f7265 			; <UNDEFINED> instruction: 0x632f7265
 864:	7373616c 	cmnvc	r3, #27
 868:	3273632f 	rsbscc	r6, r3, #-1140850688	; 0xbc000000
 86c:	786c3034 	stmdavc	ip!, {r2, r4, r5, ip, sp}^
 870:	7332322d 	teqvc	r2, #-805306366	; 0xd0000002
 874:	6c2f7270 	sfmvs	f7, 4, [pc], #-448	; 6bc <__code_start__-0x7944>
 878:	69706269 	ldmdbvs	r0!, {r0, r3, r5, r6, r9, sp, lr}^
 87c:	6174732f 	cmnvs	r4, pc, lsr #6
 880:	702d6666 	eorvc	r6, sp, r6, ror #12
 884:	61766972 	cmnvs	r6, r2, ror r9
 888:	67006574 	smlsdxvs	r0, r4, r5, r6
 88c:	5f6f6970 	svcpl	0x006f6970
 890:	5f746573 	svcpl	0x00746573
 894:	0066666f 	rsbeq	r6, r6, pc, ror #12
 898:	636e7566 	cmnvs	lr, #427819008	; 0x19800000
 89c:	69706700 	ldmdbvs	r0!, {r8, r9, sl, sp, lr}^
 8a0:	75665f6f 	strbvc	r5, [r6, #-3951]!	; 0xfffff091
 8a4:	745f636e 	ldrbvc	r6, [pc], #-878	; 8ac <__code_start__-0x7754>
 8a8:	554e4700 	strbpl	r4, [lr, #-1792]	; 0xfffff900
 8ac:	39394320 	ldmdbcc	r9!, {r5, r8, r9, lr}
 8b0:	2e303120 	rsfcssp	f3, f0, f0
 8b4:	20312e33 	eorscs	r2, r1, r3, lsr lr
 8b8:	31323032 	teqcc	r2, r2, lsr r0
 8bc:	34323830 	ldrtcc	r3, [r2], #-2096	; 0xfffff7d0
 8c0:	65722820 	ldrbvs	r2, [r2, #-2080]!	; 0xfffff7e0
 8c4:	7361656c 	cmnvc	r1, #108, 10	; 0x1b000000
 8c8:	2d202965 			; <UNDEFINED> instruction: 0x2d202965
 8cc:	7570636d 	ldrbvc	r6, [r0, #-877]!	; 0xfffffc93
 8d0:	6d72613d 	ldfvse	f6, [r2, #-244]!	; 0xffffff0c
 8d4:	36373131 			; <UNDEFINED> instruction: 0x36373131
 8d8:	2d667a6a 	vstmdbcs	r6!, {s15-s120}
 8dc:	6d2d2073 	stcvs	0, cr2, [sp, #-460]!	; 0xfffffe34
 8e0:	656e7574 	strbvs	r7, [lr, #-1396]!	; 0xfffffa8c
 8e4:	6d72613d 	ldfvse	f6, [r2, #-244]!	; 0xffffff0c
 8e8:	36373131 			; <UNDEFINED> instruction: 0x36373131
 8ec:	2d667a6a 	vstmdbcs	r6!, {s15-s120}
 8f0:	6d2d2073 	stcvs	0, cr2, [sp, #-460]!	; 0xfffffe34
 8f4:	616f6c66 	cmnvs	pc, r6, ror #24
 8f8:	62612d74 	rsbvs	r2, r1, #116, 26	; 0x1d00
 8fc:	6f733d69 	svcvs	0x00733d69
 900:	2d207466 	cfstrscs	mvf7, [r0, #-408]!	; 0xfffffe68
 904:	6d72616d 	ldfvse	f6, [r2, #-436]!	; 0xfffffe4c
 908:	616d2d20 	cmnvs	sp, r0, lsr #26
 90c:	3d686372 	stclcc	3, cr6, [r8, #-456]!	; 0xfffffe38
 910:	766d7261 	strbtvc	r7, [sp], -r1, ror #4
 914:	207a6b36 	rsbscs	r6, sl, r6, lsr fp
 918:	6467672d 	strbtvs	r6, [r7], #-1837	; 0xfffff8d3
 91c:	4f2d2062 	svcmi	0x002d2062
 920:	732d2067 			; <UNDEFINED> instruction: 0x732d2067
 924:	673d6474 			; <UNDEFINED> instruction: 0x673d6474
 928:	3939756e 	ldmdbcc	r9!, {r1, r2, r3, r5, r6, r8, sl, ip, sp, lr}
 92c:	66662d20 	strbtvs	r2, [r6], -r0, lsr #26
 930:	73656572 	cmnvc	r5, #478150656	; 0x1c800000
 934:	646e6174 	strbtvs	r6, [lr], #-372	; 0xfffffe8c
 938:	00676e69 	rsbeq	r6, r7, r9, ror #28
 93c:	6f697067 	svcvs	0x00697067
 940:	76656c5f 			; <UNDEFINED> instruction: 0x76656c5f
 944:	50470030 	subpl	r0, r7, r0, lsr r0
 948:	465f4f49 	ldrbmi	r4, [pc], -r9, asr #30
 94c:	5f434e55 	svcpl	0x00434e55
 950:	34544c41 	ldrbcc	r4, [r4], #-3137	; 0xfffff3bf
 954:	6e616200 	cdpvs	2, 6, cr6, cr1, cr0, {0}
 958:	7067006b 	rsbvc	r0, r7, fp, rrx
 95c:	632e6f69 			; <UNDEFINED> instruction: 0x632e6f69
 960:	49504700 	ldmdbmi	r0, {r8, r9, sl, lr}^
 964:	55465f4f 	strbpl	r5, [r6, #-3919]	; 0xfffff0b1
 968:	495f434e 	ldmdbmi	pc, {r1, r2, r3, r6, r8, r9, lr}^	; <UNPREDICTABLE>
 96c:	5455504e 	ldrbpl	r5, [r5], #-78	; 0xffffffb2
 970:	69706700 	ldmdbvs	r0!, {r8, r9, sl, sp, lr}^
 974:	65735f6f 	ldrbvs	r5, [r3, #-3951]!	; 0xfffff091
 978:	75665f74 	strbvc	r5, [r6, #-3956]!	; 0xfffff08c
 97c:	6974636e 	ldmdbvs	r4!, {r1, r2, r3, r5, r6, r8, r9, sp, lr}^
 980:	67006e6f 	strvs	r6, [r0, -pc, ror #28]
 984:	5f6f6970 	svcpl	0x006f6970
 988:	5f746573 	svcpl	0x00746573
 98c:	70006e6f 	andvc	r6, r0, pc, ror #28
 990:	32337475 	eorscc	r7, r3, #1962934272	; 0x75000000
 994:	75616200 	strbvc	r6, [r1, #-512]!	; 0xfffffe00
 998:	61765f64 	cmnvs	r6, r4, ror #30
 99c:	7473006c 	ldrbtvc	r0, [r3], #-108	; 0xffffff94
 9a0:	75007461 	strvc	r7, [r0, #-1121]	; 0xfffffb9f
 9a4:	5f747261 	svcpl	0x00747261
 9a8:	5f6e6163 	svcpl	0x006e6163
 9ac:	63746567 	cmnvs	r4, #432013312	; 0x19c00000
 9b0:	78756100 	ldmdavc	r5!, {r8, sp, lr}^
 9b4:	7265705f 	rsbvc	r7, r5, #95, 0	; 0x5f
 9b8:	73687069 	cmnvc	r8, #105, 0	; 0x69
 9bc:	72617500 	rsbvc	r7, r1, #0, 10
 9c0:	00632e74 	rsbeq	r2, r3, r4, ror lr
 9c4:	74726175 	ldrbtvc	r6, [r2], #-373	; 0xfffffe8b
 9c8:	6e61635f 	mcrvs	3, 3, r6, cr1, cr15, {2}
 9cc:	7475705f 	ldrbtvc	r7, [r5], #-95	; 0xffffffa1
 9d0:	61750063 	cmnvs	r5, r3, rrx
 9d4:	745f7472 	ldrbvc	r7, [pc], #-1138	; 9dc <__code_start__-0x7624>
 9d8:	73695f78 	cmnvc	r9, #120, 30	; 0x1e0
 9dc:	706d655f 	rsbvc	r6, sp, pc, asr r5
 9e0:	62007974 	andvs	r7, r0, #116, 18	; 0x1d0000
 9e4:	00647561 	rsbeq	r7, r4, r1, ror #10
 9e8:	5f787561 	svcpl	0x00787561
 9ec:	62616e65 	rsbvs	r6, r1, #1616	; 0x650
 9f0:	0073656c 	rsbseq	r6, r3, ip, ror #10
 9f4:	74726175 	ldrbtvc	r6, [r2], #-373	; 0xfffffe8b
 9f8:	7465675f 	strbtvc	r6, [r5], #-1887	; 0xfffff8a1
 9fc:	6e630063 	cdpvs	0, 6, cr0, cr3, cr3, {3}
 a00:	75006c74 	strvc	r6, [r0, #-3188]	; 0xfffff38c
 a04:	5f747261 	svcpl	0x00747261
 a08:	61736964 	cmnvs	r3, r4, ror #18
 a0c:	00656c62 	rsbeq	r6, r5, r2, ror #24
 a10:	74726175 	ldrbtvc	r6, [r2], #-373	; 0xfffffe8b
 a14:	7361685f 	cmnvc	r1, #6225920	; 0x5f0000
 a18:	7461645f 	strbtvc	r6, [r1], #-1119	; 0xfffffba1
 a1c:	726f0061 	rsbvc	r0, pc, #97, 0	; 0x61
 a20:	336e695f 	cmncc	lr, #1556480	; 0x17c000
 a24:	63730032 	cmnvs	r3, #50, 0	; 0x32
 a28:	63746172 	cmnvs	r4, #-2147483620	; 0x8000001c
 a2c:	61750068 	cmnvs	r5, r8, rrx
 a30:	61007472 	tstvs	r0, r2, ror r4
 a34:	695f646e 	ldmdbvs	pc, {r1, r2, r3, r5, r6, sl, sp, lr}^	; <UNPREDICTABLE>
 a38:	0032336e 	eorseq	r3, r2, lr, ror #6
 a3c:	33746567 	cmncc	r4, #432013312	; 0x19c00000
 a40:	6d6b0032 	stclvs	0, cr0, [fp, #-200]!	; 0xffffff38
 a44:	6f6c6c61 	svcvs	0x006c6c61
 a48:	65685f63 	strbvs	r5, [r8, #-3939]!	; 0xfffff09d
 a4c:	735f7061 	cmpvc	pc, #97, 0	; 0x61
 a50:	74726174 	ldrbtvc	r6, [r2], #-372	; 0xfffffe8c
 a54:	78616d00 	stmdavc	r1!, {r8, sl, fp, sp, lr}^
 a58:	79626e5f 	stmdbvc	r2!, {r0, r1, r2, r3, r4, r6, r9, sl, fp, sp, lr}^
 a5c:	00736574 	rsbseq	r6, r3, r4, ror r5
 a60:	6464615f 	strbtvs	r6, [r4], #-351	; 0xfffffea1
 a64:	666b0072 			; <UNDEFINED> instruction: 0x666b0072
 a68:	00656572 	rsbeq	r6, r5, r2, ror r5
 a6c:	70616568 	rsbvc	r6, r1, r8, ror #10
 a70:	78616d5f 	stmdavc	r1!, {r0, r1, r2, r3, r4, r6, r8, sl, fp, sp, lr}^
 a74:	72666b00 	rsbvc	r6, r6, #0, 22
 a78:	615f6565 	cmpvs	pc, r5, ror #10
 a7c:	72006c6c 	andvc	r6, r0, #108, 24	; 0x6c00
 a80:	646e756f 	strbtvs	r7, [lr], #-1391	; 0xfffffa91
 a84:	68007075 	stmdavs	r0, {r0, r2, r4, r5, r6, ip, sp, lr}
 a88:	00706165 	rsbseq	r6, r0, r5, ror #2
 a8c:	74696e69 	strbtvc	r6, [r9], #-3689	; 0xfffff197
 a90:	6b00705f 	blvs	1cc14 <__bss_end__+0x128f4>
 a94:	65657266 	strbvs	r7, [r5, #-614]!	; 0xfffffd9a
 a98:	706f705f 	rsbvc	r7, pc, pc, asr r0	; <UNPREDICTABLE>
 a9c:	696c6100 	stmdbvs	ip!, {r8, sp, lr}^
 aa0:	656d6e67 	strbvs	r6, [sp, #-3687]!	; 0xfffff199
 aa4:	6d00746e 	cfstrsvs	mvf7, [r0, #-440]	; 0xfffffe48
 aa8:	755f7861 	ldrbvc	r7, [pc, #-2145]	; 24f <__code_start__-0x7db1>
 aac:	4f003233 	svcmi	0x00003233
 ab0:	424d656e 	submi	r6, sp, #461373440	; 0x1b800000
 ab4:	616d6b00 	cmnvs	sp, r0, lsl #22
 ab8:	636f6c6c 	cmnvs	pc, #108, 24	; 0x6c00
 abc:	6165685f 	cmnvs	r5, pc, asr r8
 ac0:	6e655f70 	mcrvs	15, 3, r5, cr5, cr0, {3}
 ac4:	6d6b0064 	stclvs	0, cr0, [fp, #-400]!	; 0xfffffe70
 ac8:	6f6c6c61 	svcvs	0x006c6c61
 acc:	6f6e5f63 	svcvs	0x006e5f63
 ad0:	72657a74 	rsbvc	r7, r5, #116, 20	; 0x74000
 ad4:	7369006f 	cmnvc	r9, #111, 0	; 0x6f
 ad8:	776f705f 			; <UNDEFINED> instruction: 0x776f705f
 adc:	6d6b0032 	stclvs	0, cr0, [fp, #-200]!	; 0xffffff38
 ae0:	6f6c6c61 	svcvs	0x006c6c61
 ae4:	00632e63 	rsbeq	r2, r3, r3, ror #28
 ae8:	6c616d6b 	stclvs	13, cr6, [r1], #-428	; 0xfffffe54
 aec:	5f636f6c 	svcpl	0x00636f6c
 af0:	74696e69 	strbtvc	r6, [r9], #-3689	; 0xfffff197
 af4:	5f736900 	svcpl	0x00736900
 af8:	67696c61 	strbvs	r6, [r9, -r1, ror #24]!
 afc:	0064656e 	rsbeq	r6, r4, lr, ror #10
 b00:	62756f64 	rsbsvs	r6, r5, #100, 30	; 0x190
 b04:	6b00656c 	blvs	1a0bc <__bss_end__+0xfd9c>
 b08:	6c6c616d 	stfvse	f6, [ip], #-436	; 0xfffffe4c
 b0c:	685f636f 	ldmdavs	pc, {r0, r1, r2, r3, r5, r6, r8, r9, sp, lr}^	; <UNPREDICTABLE>
 b10:	5f706165 	svcpl	0x00706165
 b14:	00727470 	rsbseq	r7, r2, r0, ror r4
 b18:	6c616d6b 	stclvs	13, cr6, [r1], #-428	; 0xfffffe54
 b1c:	5f636f6c 	svcpl	0x00636f6c
 b20:	74696e69 	strbtvc	r6, [r9], #-3689	; 0xfffff197
 b24:	7465735f 	strbtvc	r7, [r5], #-863	; 0xfffffca1
 b28:	6174735f 	cmnvs	r4, pc, asr r3
 b2c:	6b007472 	blvs	1dcfc <__bss_end__+0x139dc>
 b30:	6c6c616d 	stfvse	f6, [ip], #-436	; 0xfffffe4c
 b34:	615f636f 	cmpvs	pc, pc, ror #6
 b38:	6e67696c 	vnmulvs.f16	s13, s14, s25	; <UNPREDICTABLE>
 b3c:	64006465 	strvs	r6, [r0], #-1125	; 0xfffffb9b
 b40:	00747365 	rsbseq	r7, r4, r5, ror #6
 b44:	696c2f2e 	stmdbvs	ip!, {r1, r2, r3, r5, r8, r9, sl, fp, sp}^
 b48:	732f6362 			; <UNDEFINED> instruction: 0x732f6362
 b4c:	61637274 	smcvs	14116	; 0x3724
 b50:	00632e74 	rsbeq	r2, r3, r4, ror lr
 b54:	696c2f2e 	stmdbvs	ip!, {r1, r2, r3, r5, r8, r9, sl, fp, sp}^
 b58:	732f6362 			; <UNDEFINED> instruction: 0x732f6362
 b5c:	6d637274 	sfmvs	f7, 2, [r3, #-464]!	; 0xfffffe30
 b60:	00632e70 	rsbeq	r2, r3, r0, ror lr
 b64:	696c2f2e 	stmdbvs	ip!, {r1, r2, r3, r5, r8, r9, sl, fp, sp}^
 b68:	732f6362 			; <UNDEFINED> instruction: 0x732f6362
 b6c:	70637274 	rsbvc	r7, r3, r4, ror r2
 b70:	00632e79 	rsbeq	r2, r3, r9, ror lr
 b74:	696c2f2e 	stmdbvs	ip!, {r1, r2, r3, r5, r8, r9, sl, fp, sp}^
 b78:	732f6362 			; <UNDEFINED> instruction: 0x732f6362
 b7c:	636e7274 	cmnvs	lr, #116, 4	; 0x40000007
 b80:	632e706d 			; <UNDEFINED> instruction: 0x632e706d
 b84:	732f2e00 			; <UNDEFINED> instruction: 0x732f2e00
 b88:	66666174 			; <UNDEFINED> instruction: 0x66666174
 b8c:	6372732d 	cmnvs	r2, #-1275068416	; 0xb4000000
 b90:	6665642f 	strbtvs	r6, [r5], -pc, lsr #8
 b94:	746c7561 	strbtvc	r7, [ip], #-1377	; 0xfffffa9f
 b98:	6265722d 	rsbvs	r7, r5, #-805306366	; 0xd0000002
 b9c:	2d746f6f 	ldclcs	15, cr6, [r4, #-444]!	; 0xfffffe44
 ba0:	6c6c6163 	stfvse	f6, [ip], #-396	; 0xfffffe74
 ba4:	2e74756f 	cdpcs	5, 7, cr7, cr4, cr15, {3}
 ba8:	Address 0x0000000000000ba8 is out of bounds.


Disassembly of section .debug_frame:

00000000 <.debug_frame>:
   0:	0000000c 	andeq	r0, r0, ip
   4:	ffffffff 			; <UNDEFINED> instruction: 0xffffffff
   8:	7c020001 	stcvc	0, cr0, [r2], {1}
   c:	000d0c0e 	andeq	r0, sp, lr, lsl #24
  10:	00000014 	andeq	r0, r0, r4, lsl r0
  14:	00000000 	andeq	r0, r0, r0
  18:	00008040 	andeq	r8, r0, r0, asr #32
  1c:	00000028 	andeq	r0, r0, r8, lsr #32
  20:	84080e44 	strhi	r0, [r8], #-3652	; 0xfffff1bc
  24:	00018e02 	andeq	r8, r1, r2, lsl #28
  28:	00000014 	andeq	r0, r0, r4, lsl r0
  2c:	00000000 	andeq	r0, r0, r0
  30:	00008068 	andeq	r8, r0, r8, rrx
  34:	00000028 	andeq	r0, r0, r8, lsr #32
  38:	84080e44 	strhi	r0, [r8], #-3652	; 0xfffff1bc
  3c:	00018e02 	andeq	r8, r1, r2, lsl #28
  40:	00000014 	andeq	r0, r0, r4, lsl r0
  44:	00000000 	andeq	r0, r0, r0
  48:	00008090 	muleq	r0, r0, r0
  4c:	00000028 	andeq	r0, r0, r8, lsr #32
  50:	84080e44 	strhi	r0, [r8], #-3652	; 0xfffff1bc
  54:	00018e02 	andeq	r8, r1, r2, lsl #28
  58:	00000014 	andeq	r0, r0, r4, lsl r0
  5c:	00000000 	andeq	r0, r0, r0
  60:	000080b8 	strheq	r8, [r0], -r8	; <UNPREDICTABLE>
  64:	00000028 	andeq	r0, r0, r8, lsr #32
  68:	84080e44 	strhi	r0, [r8], #-3652	; 0xfffff1bc
  6c:	00018e02 	andeq	r8, r1, r2, lsl #28
  70:	00000014 	andeq	r0, r0, r4, lsl r0
  74:	00000000 	andeq	r0, r0, r0
  78:	000080e0 	andeq	r8, r0, r0, ror #1
  7c:	00000028 	andeq	r0, r0, r8, lsr #32
  80:	84080e44 	strhi	r0, [r8], #-3652	; 0xfffff1bc
  84:	00018e02 	andeq	r8, r1, r2, lsl #28
  88:	00000024 	andeq	r0, r0, r4, lsr #32
  8c:	00000000 	andeq	r0, r0, r0
  90:	00008108 	andeq	r8, r0, r8, lsl #2
  94:	000000a8 	andeq	r0, r0, r8, lsr #1
  98:	840c0e42 	strhi	r0, [ip], #-3650	; 0xfffff1be
  9c:	8e028503 	cfsh32hi	mvfx8, mvfx2, #3
  a0:	200e4401 	andcs	r4, lr, r1, lsl #8
  a4:	0c0e0a6e 			; <UNDEFINED> instruction: 0x0c0e0a6e
  a8:	c4c5ce42 	strbgt	ip, [r5], #3650	; 0xe42
  ac:	0b42000e 	bleq	10800ec <__bss_end__+0x1075dcc>
  b0:	00000028 	andeq	r0, r0, r8, lsr #32
  b4:	00000000 	andeq	r0, r0, r0
  b8:	000081b0 			; <UNDEFINED> instruction: 0x000081b0
  bc:	000000e8 	andeq	r0, r0, r8, ror #1
  c0:	841c0e42 	ldrhi	r0, [ip], #-3650	; 0xfffff1be
  c4:	86068507 	strhi	r8, [r6], -r7, lsl #10
  c8:	88048705 	stmdahi	r4, {r0, r2, r8, r9, sl, pc}
  cc:	8e028903 	vmlahi.f16	s16, s4, s6	; <UNPREDICTABLE>
  d0:	280e4401 	stmdacs	lr, {r0, sl, lr}
  d4:	1c0e0a7c 			; <UNDEFINED> instruction: 0x1c0e0a7c
  d8:	00000b42 	andeq	r0, r0, r2, asr #22
  dc:	00000024 	andeq	r0, r0, r4, lsr #32
  e0:	00000000 	andeq	r0, r0, r0
  e4:	00008298 	muleq	r0, r8, r2
  e8:	00000388 	andeq	r0, r0, r8, lsl #7
  ec:	84200e42 	strthi	r0, [r0], #-3650	; 0xfffff1be
  f0:	86078508 	strhi	r8, [r7], -r8, lsl #10
  f4:	88058706 	stmdahi	r5, {r1, r2, r8, r9, sl, pc}
  f8:	8a038904 	bhi	e2510 <__bss_end__+0xd81f0>
  fc:	46018e02 	strmi	r8, [r1], -r2, lsl #28
 100:	0000280e 	andeq	r2, r0, lr, lsl #16
 104:	00000014 	andeq	r0, r0, r4, lsl r0
 108:	00000000 	andeq	r0, r0, r0
 10c:	00008620 	andeq	r8, r0, r0, lsr #12
 110:	00000048 	andeq	r0, r0, r8, asr #32
 114:	84080e42 	strhi	r0, [r8], #-3650	; 0xfffff1be
 118:	00018e02 	andeq	r8, r1, r2, lsl #28
 11c:	0000000c 	andeq	r0, r0, ip
 120:	ffffffff 			; <UNDEFINED> instruction: 0xffffffff
 124:	7c020001 	stcvc	0, cr0, [r2], {1}
 128:	000d0c0e 	andeq	r0, sp, lr, lsl #24
 12c:	00000014 	andeq	r0, r0, r4, lsl r0
 130:	0000011c 	andeq	r0, r0, ip, lsl r1
 134:	00008668 	andeq	r8, r0, r8, ror #12
 138:	00000028 	andeq	r0, r0, r8, lsr #32
 13c:	84080e44 	strhi	r0, [r8], #-3652	; 0xfffff1bc
 140:	00018e02 	andeq	r8, r1, r2, lsl #28
 144:	00000014 	andeq	r0, r0, r4, lsl r0
 148:	0000011c 	andeq	r0, r0, ip, lsl r1
 14c:	00008690 	muleq	r0, r0, r6
 150:	00000028 	andeq	r0, r0, r8, lsr #32
 154:	84080e44 	strhi	r0, [r8], #-3652	; 0xfffff1bc
 158:	00018e02 	andeq	r8, r1, r2, lsl #28
 15c:	00000014 	andeq	r0, r0, r4, lsl r0
 160:	0000011c 	andeq	r0, r0, ip, lsl r1
 164:	000086b8 			; <UNDEFINED> instruction: 0x000086b8
 168:	00000008 	andeq	r0, r0, r8
 16c:	84080e42 	strhi	r0, [r8], #-3650	; 0xfffff1be
 170:	00018e02 	andeq	r8, r1, r2, lsl #28
 174:	0000001c 	andeq	r0, r0, ip, lsl r0
 178:	0000011c 	andeq	r0, r0, ip, lsl r1
 17c:	000086c0 	andeq	r8, r0, r0, asr #13
 180:	00000044 	andeq	r0, r0, r4, asr #32
 184:	84180e42 	ldrhi	r0, [r8], #-3650	; 0xfffff1be
 188:	86058506 	strhi	r8, [r5], -r6, lsl #10
 18c:	88038704 	stmdahi	r3, {r2, r8, r9, sl, pc}
 190:	00018e02 	andeq	r8, r1, r2, lsl #28
 194:	00000014 	andeq	r0, r0, r4, lsl r0
 198:	0000011c 	andeq	r0, r0, ip, lsl r1
 19c:	00008704 	andeq	r8, r0, r4, lsl #14
 1a0:	00000008 	andeq	r0, r0, r8
 1a4:	84080e42 	strhi	r0, [r8], #-3650	; 0xfffff1be
 1a8:	00018e02 	andeq	r8, r1, r2, lsl #28
 1ac:	00000014 	andeq	r0, r0, r4, lsl r0
 1b0:	0000011c 	andeq	r0, r0, ip, lsl r1
 1b4:	0000870c 	andeq	r8, r0, ip, lsl #14
 1b8:	00000014 	andeq	r0, r0, r4, lsl r0
 1bc:	84080e44 	strhi	r0, [r8], #-3652	; 0xfffff1bc
 1c0:	00018e02 	andeq	r8, r1, r2, lsl #28
 1c4:	00000014 	andeq	r0, r0, r4, lsl r0
 1c8:	0000011c 	andeq	r0, r0, ip, lsl r1
 1cc:	00008720 	andeq	r8, r0, r0, lsr #14
 1d0:	0000000c 	andeq	r0, r0, ip
 1d4:	84080e42 	strhi	r0, [r8], #-3650	; 0xfffff1be
 1d8:	00018e02 	andeq	r8, r1, r2, lsl #28
 1dc:	00000014 	andeq	r0, r0, r4, lsl r0
 1e0:	0000011c 	andeq	r0, r0, ip, lsl r1
 1e4:	0000872c 	andeq	r8, r0, ip, lsr #14
 1e8:	00000028 	andeq	r0, r0, r8, lsr #32
 1ec:	84080e44 	strhi	r0, [r8], #-3652	; 0xfffff1bc
 1f0:	00018e02 	andeq	r8, r1, r2, lsl #28
 1f4:	0000000c 	andeq	r0, r0, ip
 1f8:	ffffffff 			; <UNDEFINED> instruction: 0xffffffff
 1fc:	7c020001 	stcvc	0, cr0, [r2], {1}
 200:	000d0c0e 	andeq	r0, sp, lr, lsl #24
 204:	0000000c 	andeq	r0, r0, ip
 208:	000001f4 	strdeq	r0, [r0], -r4
 20c:	00008754 	andeq	r8, r0, r4, asr r7
 210:	00000018 	andeq	r0, r0, r8, lsl r0
 214:	0000000c 	andeq	r0, r0, ip
 218:	ffffffff 			; <UNDEFINED> instruction: 0xffffffff
 21c:	7c020001 	stcvc	0, cr0, [r2], {1}
 220:	000d0c0e 	andeq	r0, sp, lr, lsl #24
 224:	00000034 	andeq	r0, r0, r4, lsr r0
 228:	00000214 	andeq	r0, r0, r4, lsl r2
 22c:	0000876c 	andeq	r8, r0, ip, ror #14
 230:	00000058 	andeq	r0, r0, r8, asr r0
 234:	80100e42 	andshi	r0, r0, r2, asr #28
 238:	82038104 	andhi	r8, r3, #1
 23c:	42018302 	andmi	r8, r1, #134217728	; 0x8000000
 240:	07841c0e 	streq	r1, [r4, lr, lsl #24]
 244:	058e0685 	streq	r0, [lr, #1669]	; 0x685
 248:	5c280e42 	stcpl	14, cr0, [r8], #-264	; 0xfffffef8
 24c:	ce421c0e 	cdpgt	12, 4, cr1, cr2, cr14, {0}
 250:	100ec4c5 	andne	ip, lr, r5, asr #9
 254:	c1c2c342 	bicgt	ip, r2, r2, asr #6
 258:	00000ec0 	andeq	r0, r0, r0, asr #29
 25c:	0000000c 	andeq	r0, r0, ip
 260:	ffffffff 			; <UNDEFINED> instruction: 0xffffffff
 264:	7c020001 	stcvc	0, cr0, [r2], {1}
 268:	000d0c0e 	andeq	r0, sp, lr, lsl #24
 26c:	00000014 	andeq	r0, r0, r4, lsl r0
 270:	0000025c 	andeq	r0, r0, ip, asr r2
 274:	000087c4 	andeq	r8, r0, r4, asr #15
 278:	00000014 	andeq	r0, r0, r4, lsl r0
 27c:	84080e42 	strhi	r0, [r8], #-3650	; 0xfffff1be
 280:	00018e02 	andeq	r8, r1, r2, lsl #28
 284:	0000000c 	andeq	r0, r0, ip
 288:	0000025c 	andeq	r0, r0, ip, asr r2
 28c:	000087d8 	ldrdeq	r8, [r0], -r8	; <UNPREDICTABLE>
 290:	00000018 	andeq	r0, r0, r8, lsl r0
 294:	0000000c 	andeq	r0, r0, ip
 298:	0000025c 	andeq	r0, r0, ip, asr r2
 29c:	000087f0 	strdeq	r8, [r0], -r0
 2a0:	00000010 	andeq	r0, r0, r0, lsl r0
 2a4:	0000000c 	andeq	r0, r0, ip
 2a8:	ffffffff 			; <UNDEFINED> instruction: 0xffffffff
 2ac:	7c020001 	stcvc	0, cr0, [r2], {1}
 2b0:	000d0c0e 	andeq	r0, sp, lr, lsl #24
 2b4:	00000014 	andeq	r0, r0, r4, lsl r0
 2b8:	000002a4 	andeq	r0, r0, r4, lsr #5
 2bc:	00008800 	andeq	r8, r0, r0, lsl #16
 2c0:	00000034 	andeq	r0, r0, r4, lsr r0
 2c4:	84080e42 	strhi	r0, [r8], #-3650	; 0xfffff1be
 2c8:	00018e02 	andeq	r8, r1, r2, lsl #28
 2cc:	0000000c 	andeq	r0, r0, ip
 2d0:	ffffffff 			; <UNDEFINED> instruction: 0xffffffff
 2d4:	7c020001 	stcvc	0, cr0, [r2], {1}
 2d8:	000d0c0e 	andeq	r0, sp, lr, lsl #24
 2dc:	0000000c 	andeq	r0, r0, ip
 2e0:	000002cc 	andeq	r0, r0, ip, asr #5
 2e4:	00008834 	andeq	r8, r0, r4, lsr r8
 2e8:	00000014 	andeq	r0, r0, r4, lsl r0
 2ec:	0000000c 	andeq	r0, r0, ip
 2f0:	000002cc 	andeq	r0, r0, ip, asr #5
 2f4:	00008848 	andeq	r8, r0, r8, asr #16
 2f8:	00000024 	andeq	r0, r0, r4, lsr #32
 2fc:	0000000c 	andeq	r0, r0, ip
 300:	000002cc 	andeq	r0, r0, ip, asr #5
 304:	0000886c 	andeq	r8, r0, ip, ror #16
 308:	00000038 	andeq	r0, r0, r8, lsr r0
 30c:	00000024 	andeq	r0, r0, r4, lsr #32
 310:	000002cc 	andeq	r0, r0, ip, asr #5
 314:	000088a4 	andeq	r8, r0, r4, lsr #17
 318:	000001b4 			; <UNDEFINED> instruction: 0x000001b4
 31c:	84140e42 	ldrhi	r0, [r4], #-3650	; 0xfffff1be
 320:	86048505 	strhi	r8, [r4], -r5, lsl #10
 324:	8e028703 	cdphi	7, 0, cr8, cr2, cr3, {0}
 328:	600e4201 	andvs	r4, lr, r1, lsl #4
 32c:	0e0a9a02 	vmlaeq.f32	s18, s20, s4
 330:	000b4214 	andeq	r4, fp, r4, lsl r2
 334:	00000014 	andeq	r0, r0, r4, lsl r0
 338:	000002cc 	andeq	r0, r0, ip, asr #5
 33c:	00008a58 	andeq	r8, r0, r8, asr sl
 340:	00000064 	andeq	r0, r0, r4, rrx
 344:	8e040e54 	mcrhi	14, 0, r0, cr4, cr4, {2}
 348:	100e4201 	andne	r4, lr, r1, lsl #4
 34c:	0000002c 	andeq	r0, r0, ip, lsr #32
 350:	000002cc 	andeq	r0, r0, ip, asr #5
 354:	00008abc 			; <UNDEFINED> instruction: 0x00008abc
 358:	000004b8 			; <UNDEFINED> instruction: 0x000004b8
 35c:	84240e42 	strthi	r0, [r4], #-3650	; 0xfffff1be
 360:	86088509 	strhi	r8, [r8], -r9, lsl #10
 364:	88068707 	stmdahi	r6, {r0, r1, r2, r8, r9, sl, pc}
 368:	8a048905 	bhi	122784 <__bss_end__+0x118464>
 36c:	8e028b03 	vmlahi.f64	d8, d2, d3
 370:	b80e4201 	stmdalt	lr, {r0, r9, lr}
 374:	02380302 	eorseq	r0, r8, #134217728	; 0x8000000
 378:	0000240e 	andeq	r2, r0, lr, lsl #8
 37c:	0000000c 	andeq	r0, r0, ip
 380:	ffffffff 			; <UNDEFINED> instruction: 0xffffffff
 384:	7c020001 	stcvc	0, cr0, [r2], {1}
 388:	000d0c0e 	andeq	r0, sp, lr, lsl #24
 38c:	0000000c 	andeq	r0, r0, ip
 390:	0000037c 	andeq	r0, r0, ip, ror r3
 394:	00008f74 	andeq	r8, r0, r4, ror pc
 398:	00000010 	andeq	r0, r0, r0, lsl r0
 39c:	0000000c 	andeq	r0, r0, ip
 3a0:	0000037c 	andeq	r0, r0, ip, ror r3
 3a4:	00008f84 	andeq	r8, r0, r4, lsl #31
 3a8:	00000010 	andeq	r0, r0, r0, lsl r0
 3ac:	0000000c 	andeq	r0, r0, ip
 3b0:	ffffffff 			; <UNDEFINED> instruction: 0xffffffff
 3b4:	7c020001 	stcvc	0, cr0, [r2], {1}
 3b8:	000d0c0e 	andeq	r0, sp, lr, lsl #24
 3bc:	00000014 	andeq	r0, r0, r4, lsl r0
 3c0:	000003ac 	andeq	r0, r0, ip, lsr #7
 3c4:	00008f94 	muleq	r0, r4, pc	; <UNPREDICTABLE>
 3c8:	0000002c 	andeq	r0, r0, ip, lsr #32
 3cc:	84080e42 	strhi	r0, [r8], #-3650	; 0xfffff1be
 3d0:	00018e02 	andeq	r8, r1, r2, lsl #28
 3d4:	0000000c 	andeq	r0, r0, ip
 3d8:	ffffffff 			; <UNDEFINED> instruction: 0xffffffff
 3dc:	7c020001 	stcvc	0, cr0, [r2], {1}
 3e0:	000d0c0e 	andeq	r0, sp, lr, lsl #24
 3e4:	00000014 	andeq	r0, r0, r4, lsl r0
 3e8:	000003d4 	ldrdeq	r0, [r0], -r4
 3ec:	00008fc0 	andeq	r8, r0, r0, asr #31
 3f0:	0000003c 	andeq	r0, r0, ip, lsr r0
 3f4:	84080e42 	strhi	r0, [r8], #-3650	; 0xfffff1be
 3f8:	00018e02 	andeq	r8, r1, r2, lsl #28
 3fc:	0000000c 	andeq	r0, r0, ip
 400:	ffffffff 			; <UNDEFINED> instruction: 0xffffffff
 404:	7c020001 	stcvc	0, cr0, [r2], {1}
 408:	000d0c0e 	andeq	r0, sp, lr, lsl #24
 40c:	0000000c 	andeq	r0, r0, ip
 410:	000003fc 	strdeq	r0, [r0], -ip
 414:	00008ffc 	strdeq	r8, [r0], -ip
 418:	00000004 	andeq	r0, r0, r4
 41c:	0000000c 	andeq	r0, r0, ip
 420:	ffffffff 			; <UNDEFINED> instruction: 0xffffffff
 424:	7c020001 	stcvc	0, cr0, [r2], {1}
 428:	000d0c0e 	andeq	r0, sp, lr, lsl #24
 42c:	0000000c 	andeq	r0, r0, ip
 430:	0000041c 	andeq	r0, r0, ip, lsl r4
 434:	00009018 	andeq	r9, r0, r8, lsl r0
 438:	00000018 	andeq	r0, r0, r8, lsl r0
 43c:	0000000c 	andeq	r0, r0, ip
 440:	0000041c 	andeq	r0, r0, ip, lsl r4
 444:	00009030 	andeq	r9, r0, r0, lsr r0
 448:	00000014 	andeq	r0, r0, r4, lsl r0
 44c:	00000014 	andeq	r0, r0, r4, lsl r0
 450:	0000041c 	andeq	r0, r0, ip, lsl r4
 454:	00009044 	andeq	r9, r0, r4, asr #32
 458:	00000054 	andeq	r0, r0, r4, asr r0
 45c:	84080e42 	strhi	r0, [r8], #-3650	; 0xfffff1be
 460:	00018e02 	andeq	r8, r1, r2, lsl #28
 464:	0000000c 	andeq	r0, r0, ip
 468:	ffffffff 			; <UNDEFINED> instruction: 0xffffffff
 46c:	7c020001 	stcvc	0, cr0, [r2], {1}
 470:	000d0c0e 	andeq	r0, sp, lr, lsl #24
 474:	00000014 	andeq	r0, r0, r4, lsl r0
 478:	00000464 	andeq	r0, r0, r4, ror #8
 47c:	00009098 	muleq	r0, r8, r0
 480:	00000014 	andeq	r0, r0, r4, lsl r0
 484:	84080e42 	strhi	r0, [r8], #-3650	; 0xfffff1be
 488:	00018e02 	andeq	r8, r1, r2, lsl #28
 48c:	00000014 	andeq	r0, r0, r4, lsl r0
 490:	00000464 	andeq	r0, r0, r4, ror #8
 494:	000090ac 	andeq	r9, r0, ip, lsr #1
 498:	0000001c 	andeq	r0, r0, ip, lsl r0
 49c:	84080e42 	strhi	r0, [r8], #-3650	; 0xfffff1be
 4a0:	00018e02 	andeq	r8, r1, r2, lsl #28
 4a4:	00000018 	andeq	r0, r0, r8, lsl r0
 4a8:	00000464 	andeq	r0, r0, r4, ror #8
 4ac:	000090c8 	andeq	r9, r0, r8, asr #1
 4b0:	00000024 	andeq	r0, r0, r4, lsr #32
 4b4:	84100e42 	ldrhi	r0, [r0], #-3650	; 0xfffff1be
 4b8:	86038504 	strhi	r8, [r3], -r4, lsl #10
 4bc:	00018e02 	andeq	r8, r1, r2, lsl #28
 4c0:	00000014 	andeq	r0, r0, r4, lsl r0
 4c4:	00000464 	andeq	r0, r0, r4, ror #8
 4c8:	000090ec 	andeq	r9, r0, ip, ror #1
 4cc:	00000018 	andeq	r0, r0, r8, lsl r0
 4d0:	84080e42 	strhi	r0, [r8], #-3650	; 0xfffff1be
 4d4:	00018e02 	andeq	r8, r1, r2, lsl #28
 4d8:	00000014 	andeq	r0, r0, r4, lsl r0
 4dc:	00000464 	andeq	r0, r0, r4, ror #8
 4e0:	00009104 	andeq	r9, r0, r4, lsl #2
 4e4:	00000018 	andeq	r0, r0, r8, lsl r0
 4e8:	84080e42 	strhi	r0, [r8], #-3650	; 0xfffff1be
 4ec:	00018e02 	andeq	r8, r1, r2, lsl #28
 4f0:	0000000c 	andeq	r0, r0, ip
 4f4:	ffffffff 			; <UNDEFINED> instruction: 0xffffffff
 4f8:	7c020001 	stcvc	0, cr0, [r2], {1}
 4fc:	000d0c0e 	andeq	r0, sp, lr, lsl #24
 500:	00000018 	andeq	r0, r0, r8, lsl r0
 504:	000004f0 	strdeq	r0, [r0], -r0	; <UNPREDICTABLE>
 508:	0000911c 	andeq	r9, r0, ip, lsl r1
 50c:	00000064 	andeq	r0, r0, r4, rrx
 510:	84100e46 	ldrhi	r0, [r0], #-3654	; 0xfffff1ba
 514:	86038504 	strhi	r8, [r3], -r4, lsl #10
 518:	00018e02 	andeq	r8, r1, r2, lsl #28
 51c:	00000014 	andeq	r0, r0, r4, lsl r0
 520:	000004f0 	strdeq	r0, [r0], -r0	; <UNPREDICTABLE>
 524:	00009180 	andeq	r9, r0, r0, lsl #3
 528:	00000010 	andeq	r0, r0, r0, lsl r0
 52c:	84080e42 	strhi	r0, [r8], #-3650	; 0xfffff1be
 530:	00018e02 	andeq	r8, r1, r2, lsl #28
 534:	00000014 	andeq	r0, r0, r4, lsl r0
 538:	000004f0 	strdeq	r0, [r0], -r0	; <UNPREDICTABLE>
 53c:	00009190 	muleq	r0, r0, r1
 540:	00000024 	andeq	r0, r0, r4, lsr #32
 544:	84080e46 	strhi	r0, [r8], #-3654	; 0xfffff1ba
 548:	00018e02 	andeq	r8, r1, r2, lsl #28
 54c:	00000014 	andeq	r0, r0, r4, lsl r0
 550:	000004f0 	strdeq	r0, [r0], -r0	; <UNPREDICTABLE>
 554:	000091b4 			; <UNDEFINED> instruction: 0x000091b4
 558:	00000024 	andeq	r0, r0, r4, lsr #32
 55c:	84080e46 	strhi	r0, [r8], #-3654	; 0xfffff1ba
 560:	00018e02 	andeq	r8, r1, r2, lsl #28
 564:	00000014 	andeq	r0, r0, r4, lsl r0
 568:	000004f0 	strdeq	r0, [r0], -r0	; <UNPREDICTABLE>
 56c:	000091d8 	ldrdeq	r9, [r0], -r8
 570:	00000010 	andeq	r0, r0, r0, lsl r0
 574:	84080e42 	strhi	r0, [r8], #-3650	; 0xfffff1be
 578:	00018e02 	andeq	r8, r1, r2, lsl #28
 57c:	00000014 	andeq	r0, r0, r4, lsl r0
 580:	000004f0 	strdeq	r0, [r0], -r0	; <UNPREDICTABLE>
 584:	000091e8 	andeq	r9, r0, r8, ror #3
 588:	0000001c 	andeq	r0, r0, ip, lsl r0
 58c:	84080e42 	strhi	r0, [r8], #-3650	; 0xfffff1be
 590:	00018e02 	andeq	r8, r1, r2, lsl #28
 594:	00000018 	andeq	r0, r0, r8, lsl r0
 598:	000004f0 	strdeq	r0, [r0], -r0	; <UNPREDICTABLE>
 59c:	00009204 	andeq	r9, r0, r4, lsl #4
 5a0:	00000034 	andeq	r0, r0, r4, lsr r0
 5a4:	84080e46 	strhi	r0, [r8], #-3654	; 0xfffff1ba
 5a8:	4e018e02 	cdpmi	14, 0, cr8, cr1, cr2, {0}
 5ac:	cec4000e 	cdpgt	0, 12, cr0, cr4, cr14, {0}
 5b0:	0000000c 	andeq	r0, r0, ip
 5b4:	ffffffff 			; <UNDEFINED> instruction: 0xffffffff
 5b8:	7c020001 	stcvc	0, cr0, [r2], {1}
 5bc:	000d0c0e 	andeq	r0, sp, lr, lsl #24
 5c0:	00000018 	andeq	r0, r0, r8, lsl r0
 5c4:	000005b0 			; <UNDEFINED> instruction: 0x000005b0
 5c8:	00009238 	andeq	r9, r0, r8, lsr r2
 5cc:	00000020 	andeq	r0, r0, r0, lsr #32
 5d0:	84100e42 	ldrhi	r0, [r0], #-3650	; 0xfffff1be
 5d4:	86038504 	strhi	r8, [r3], -r4, lsl #10
 5d8:	00018e02 	andeq	r8, r1, r2, lsl #28
 5dc:	00000018 	andeq	r0, r0, r8, lsl r0
 5e0:	000005b0 			; <UNDEFINED> instruction: 0x000005b0
 5e4:	00009258 	andeq	r9, r0, r8, asr r2
 5e8:	00000020 	andeq	r0, r0, r0, lsr #32
 5ec:	84100e42 	ldrhi	r0, [r0], #-3650	; 0xfffff1be
 5f0:	86038504 	strhi	r8, [r3], -r4, lsl #10
 5f4:	00018e02 	andeq	r8, r1, r2, lsl #28
 5f8:	00000014 	andeq	r0, r0, r4, lsl r0
 5fc:	000005b0 			; <UNDEFINED> instruction: 0x000005b0
 600:	00009278 	andeq	r9, r0, r8, ror r2
 604:	000000b0 	strheq	r0, [r0], -r0	; <UNPREDICTABLE>
 608:	84080e42 	strhi	r0, [r8], #-3650	; 0xfffff1be
 60c:	00018e02 	andeq	r8, r1, r2, lsl #28
 610:	00000014 	andeq	r0, r0, r4, lsl r0
 614:	000005b0 			; <UNDEFINED> instruction: 0x000005b0
 618:	00009328 	andeq	r9, r0, r8, lsr #6
 61c:	00000018 	andeq	r0, r0, r8, lsl r0
 620:	84080e42 	strhi	r0, [r8], #-3650	; 0xfffff1be
 624:	00018e02 	andeq	r8, r1, r2, lsl #28
 628:	00000014 	andeq	r0, r0, r4, lsl r0
 62c:	000005b0 			; <UNDEFINED> instruction: 0x000005b0
 630:	00009340 	andeq	r9, r0, r0, asr #6
 634:	00000020 	andeq	r0, r0, r0, lsr #32
 638:	84080e42 	strhi	r0, [r8], #-3650	; 0xfffff1be
 63c:	00018e02 	andeq	r8, r1, r2, lsl #28
 640:	00000014 	andeq	r0, r0, r4, lsl r0
 644:	000005b0 			; <UNDEFINED> instruction: 0x000005b0
 648:	00009360 	andeq	r9, r0, r0, ror #6
 64c:	00000030 	andeq	r0, r0, r0, lsr r0
 650:	84080e42 	strhi	r0, [r8], #-3650	; 0xfffff1be
 654:	00018e02 	andeq	r8, r1, r2, lsl #28
 658:	00000014 	andeq	r0, r0, r4, lsl r0
 65c:	000005b0 			; <UNDEFINED> instruction: 0x000005b0
 660:	00009390 	muleq	r0, r0, r3
 664:	00000030 	andeq	r0, r0, r0, lsr r0
 668:	84080e42 	strhi	r0, [r8], #-3650	; 0xfffff1be
 66c:	00018e02 	andeq	r8, r1, r2, lsl #28
 670:	00000014 	andeq	r0, r0, r4, lsl r0
 674:	000005b0 			; <UNDEFINED> instruction: 0x000005b0
 678:	000093c0 	andeq	r9, r0, r0, asr #7
 67c:	00000010 	andeq	r0, r0, r0, lsl r0
 680:	84080e42 	strhi	r0, [r8], #-3650	; 0xfffff1be
 684:	00018e02 	andeq	r8, r1, r2, lsl #28
 688:	00000014 	andeq	r0, r0, r4, lsl r0
 68c:	000005b0 			; <UNDEFINED> instruction: 0x000005b0
 690:	000093d0 	ldrdeq	r9, [r0], -r0
 694:	00000020 	andeq	r0, r0, r0, lsr #32
 698:	84080e42 	strhi	r0, [r8], #-3650	; 0xfffff1be
 69c:	00018e02 	andeq	r8, r1, r2, lsl #28
 6a0:	00000014 	andeq	r0, r0, r4, lsl r0
 6a4:	000005b0 			; <UNDEFINED> instruction: 0x000005b0
 6a8:	000093f0 	strdeq	r9, [r0], -r0
 6ac:	00000014 	andeq	r0, r0, r4, lsl r0
 6b0:	84080e42 	strhi	r0, [r8], #-3650	; 0xfffff1be
 6b4:	00018e02 	andeq	r8, r1, r2, lsl #28
 6b8:	00000014 	andeq	r0, r0, r4, lsl r0
 6bc:	000005b0 			; <UNDEFINED> instruction: 0x000005b0
 6c0:	00009404 	andeq	r9, r0, r4, lsl #8
 6c4:	00000024 	andeq	r0, r0, r4, lsr #32
 6c8:	84080e42 	strhi	r0, [r8], #-3650	; 0xfffff1be
 6cc:	00018e02 	andeq	r8, r1, r2, lsl #28
 6d0:	0000000c 	andeq	r0, r0, ip
 6d4:	ffffffff 			; <UNDEFINED> instruction: 0xffffffff
 6d8:	7c020001 	stcvc	0, cr0, [r2], {1}
 6dc:	000d0c0e 	andeq	r0, sp, lr, lsl #24
 6e0:	0000000c 	andeq	r0, r0, ip
 6e4:	000006d0 	ldrdeq	r0, [r0], -r0	; <UNPREDICTABLE>
 6e8:	00009428 	andeq	r9, r0, r8, lsr #8
 6ec:	00000010 	andeq	r0, r0, r0, lsl r0
 6f0:	0000000c 	andeq	r0, r0, ip
 6f4:	000006d0 	ldrdeq	r0, [r0], -r0	; <UNPREDICTABLE>
 6f8:	00009438 	andeq	r9, r0, r8, lsr r4
 6fc:	00000010 	andeq	r0, r0, r0, lsl r0
 700:	0000000c 	andeq	r0, r0, ip
 704:	000006d0 	ldrdeq	r0, [r0], -r0	; <UNPREDICTABLE>
 708:	00009448 	andeq	r9, r0, r8, asr #8
 70c:	00000010 	andeq	r0, r0, r0, lsl r0
 710:	0000001c 	andeq	r0, r0, ip, lsl r0
 714:	000006d0 	ldrdeq	r0, [r0], -r0	; <UNPREDICTABLE>
 718:	00009458 	andeq	r9, r0, r8, asr r4
 71c:	0000009c 	muleq	r0, ip, r0
 720:	8e040e42 	cdphi	14, 0, cr0, cr4, cr2, {2}
 724:	100e4201 	andne	r4, lr, r1, lsl #4
 728:	040e0a58 	streq	r0, [lr], #-2648	; 0xfffff5a8
 72c:	00000b42 	andeq	r0, r0, r2, asr #22
 730:	00000014 	andeq	r0, r0, r4, lsl r0
 734:	000006d0 	ldrdeq	r0, [r0], -r0	; <UNPREDICTABLE>
 738:	000094f4 	strdeq	r9, [r0], -r4
 73c:	00000058 	andeq	r0, r0, r8, asr r0
 740:	84080e42 	strhi	r0, [r8], #-3650	; 0xfffff1be
 744:	00018e02 	andeq	r8, r1, r2, lsl #28
 748:	0000001c 	andeq	r0, r0, ip, lsl r0
 74c:	000006d0 	ldrdeq	r0, [r0], -r0	; <UNPREDICTABLE>
 750:	0000954c 	andeq	r9, r0, ip, asr #10
 754:	00000098 	muleq	r0, r8, r0
 758:	8e040e42 	cdphi	14, 0, cr0, cr4, cr2, {2}
 75c:	100e4201 	andne	r4, lr, r1, lsl #4
 760:	040e0a58 	streq	r0, [lr], #-2648	; 0xfffff5a8
 764:	00000b42 	andeq	r0, r0, r2, asr #22
 768:	00000020 	andeq	r0, r0, r0, lsr #32
 76c:	000006d0 	ldrdeq	r0, [r0], -r0	; <UNPREDICTABLE>
 770:	000095e4 	andeq	r9, r0, r4, ror #11
 774:	00000064 	andeq	r0, r0, r4, rrx
 778:	840c0e42 	strhi	r0, [ip], #-3650	; 0xfffff1be
 77c:	8e028503 	cfsh32hi	mvfx8, mvfx2, #3
 780:	180e4201 	stmdane	lr, {r0, r9, lr}
 784:	0c0e0a54 			; <UNDEFINED> instruction: 0x0c0e0a54
 788:	00000b42 	andeq	r0, r0, r2, asr #22
 78c:	0000001c 	andeq	r0, r0, ip, lsl r0
 790:	000006d0 	ldrdeq	r0, [r0], -r0	; <UNPREDICTABLE>
 794:	00009648 	andeq	r9, r0, r8, asr #12
 798:	00000118 	andeq	r0, r0, r8, lsl r1
 79c:	8e040e42 	cdphi	14, 0, cr0, cr4, cr2, {2}
 7a0:	100e4201 	andne	r4, lr, r1, lsl #4
 7a4:	040e0a6c 	streq	r0, [lr], #-2668	; 0xfffff594
 7a8:	00000b42 	andeq	r0, r0, r2, asr #22
 7ac:	0000000c 	andeq	r0, r0, ip
 7b0:	000006d0 	ldrdeq	r0, [r0], -r0	; <UNPREDICTABLE>
 7b4:	00009760 	andeq	r9, r0, r0, ror #14
 7b8:	00000004 	andeq	r0, r0, r4
 7bc:	0000000c 	andeq	r0, r0, ip
 7c0:	000006d0 	ldrdeq	r0, [r0], -r0	; <UNPREDICTABLE>
 7c4:	00009764 	andeq	r9, r0, r4, ror #14
 7c8:	00000014 	andeq	r0, r0, r4, lsl r0
 7cc:	00000014 	andeq	r0, r0, r4, lsl r0
 7d0:	000006d0 	ldrdeq	r0, [r0], -r0	; <UNPREDICTABLE>
 7d4:	00009778 	andeq	r9, r0, r8, ror r7
 7d8:	00000060 	andeq	r0, r0, r0, rrx
 7dc:	8e040e58 	mcrhi	14, 0, r0, cr4, cr8, {2}
 7e0:	100e4201 	andne	r4, lr, r1, lsl #4
 7e4:	0000000c 	andeq	r0, r0, ip
 7e8:	ffffffff 			; <UNDEFINED> instruction: 0xffffffff
 7ec:	7c020001 	stcvc	0, cr0, [r2], {1}
 7f0:	000d0c0e 	andeq	r0, sp, lr, lsl #24
 7f4:	0000000c 	andeq	r0, r0, ip
 7f8:	000007e4 	andeq	r0, r0, r4, ror #15
 7fc:	000097d8 	ldrdeq	r9, [r0], -r8
 800:	00000034 	andeq	r0, r0, r4, lsr r0
 804:	0000000c 	andeq	r0, r0, ip
 808:	ffffffff 			; <UNDEFINED> instruction: 0xffffffff
 80c:	7c020001 	stcvc	0, cr0, [r2], {1}
 810:	000d0c0e 	andeq	r0, sp, lr, lsl #24
 814:	0000000c 	andeq	r0, r0, ip
 818:	00000804 	andeq	r0, r0, r4, lsl #16
 81c:	0000980c 	andeq	r9, r0, ip, lsl #16
 820:	0000002c 	andeq	r0, r0, ip, lsr #32
 824:	0000000c 	andeq	r0, r0, ip
 828:	ffffffff 			; <UNDEFINED> instruction: 0xffffffff
 82c:	7c020001 	stcvc	0, cr0, [r2], {1}
 830:	000d0c0e 	andeq	r0, sp, lr, lsl #24
 834:	0000000c 	andeq	r0, r0, ip
 838:	00000824 	andeq	r0, r0, r4, lsr #16
 83c:	00009838 	andeq	r9, r0, r8, lsr r8
 840:	00000020 	andeq	r0, r0, r0, lsr #32
 844:	0000000c 	andeq	r0, r0, ip
 848:	ffffffff 			; <UNDEFINED> instruction: 0xffffffff
 84c:	7c020001 	stcvc	0, cr0, [r2], {1}
 850:	000d0c0e 	andeq	r0, sp, lr, lsl #24
 854:	0000000c 	andeq	r0, r0, ip
 858:	00000844 	andeq	r0, r0, r4, asr #16
 85c:	00009858 	andeq	r9, r0, r8, asr r8
 860:	0000002c 	andeq	r0, r0, ip, lsr #32
 864:	0000000c 	andeq	r0, r0, ip
 868:	ffffffff 			; <UNDEFINED> instruction: 0xffffffff
 86c:	7c020001 	stcvc	0, cr0, [r2], {1}
 870:	000d0c0e 	andeq	r0, sp, lr, lsl #24
 874:	0000000c 	andeq	r0, r0, ip
 878:	00000864 	andeq	r0, r0, r4, ror #16
 87c:	00009884 	andeq	r9, r0, r4, lsl #17
 880:	00000004 	andeq	r0, r0, r4
