
1-blink.elf:     file format elf32-littlearm


Disassembly of section .text:

00008000 <__code_start__>:
    8000:	e3a00013 	mov	r0, #19, 0
    8004:	e3800080 	orr	r0, r0, #128, 0	; 0x80
    8008:	e129f000 	msr	CPSR_fc, r0
    800c:	e3a01000 	mov	r1, #0, 0
    8010:	ee071f95 	mcr	15, 0, r1, cr7, cr5, {4}
    8014:	e3a0d302 	mov	sp, #134217728	; 0x8000000
    8018:	e3a0b000 	mov	fp, #0, 0
    801c:	eb000321 	bl	8ca8 <_cstart>
    8020:	eb00033b 	bl	8d14 <rpi_reboot>

00008024 <PUT32>:
    8024:	e5801000 	str	r1, [r0]
    8028:	e12fff1e 	bx	lr

0000802c <GET32>:
    802c:	e5900000 	ldr	r0, [r0]
    8030:	e12fff1e 	bx	lr

00008034 <BRANCHTO>:
    8034:	e12fff10 	bx	r0

00008038 <pix_sendbyte>:
    8038:	e92d4010 	push	{r4, lr}
    803c:	e3a03001 	mov	r3, #1, 0
    8040:	e1a00013 	lsl	r0, r3, r0
    8044:	e3a02007 	mov	r2, #7, 0
    8048:	e59f4094 	ldr	r4, [pc, #148]	; 80e4 <pix_sendbyte+0xac>
    804c:	e59fe094 	ldr	lr, [pc, #148]	; 80e8 <pix_sendbyte+0xb0>
    8050:	ea00000d 	b	808c <pix_sendbyte+0x54>
    8054:	ee1f3f3c 	mrc	15, 0, r3, cr15, cr12, {1}
    8058:	e043300c 	sub	r3, r3, ip
    805c:	e35300e4 	cmp	r3, #228, 0	; 0xe4
    8060:	9afffffb 	bls	8054 <pix_sendbyte+0x1c>
    8064:	ee1fcf3c 	mrc	15, 0, ip, cr15, cr12, {1}
    8068:	e24cc010 	sub	ip, ip, #16, 0
    806c:	e584001c 	str	r0, [r4, #28]
    8070:	ee1f3f3c 	mrc	15, 0, r3, cr15, cr12, {1}
    8074:	e043300c 	sub	r3, r3, ip
    8078:	e153000e 	cmp	r3, lr
    807c:	9afffffb 	bls	8070 <pix_sendbyte+0x38>
    8080:	e2422001 	sub	r2, r2, #1, 0
    8084:	e3720001 	cmn	r2, #1, 0
    8088:	08bd8010 	popeq	{r4, pc}
    808c:	e1a03251 	asr	r3, r1, r2
    8090:	e3130001 	tst	r3, #1, 0
    8094:	1a000003 	bne	80a8 <pix_sendbyte+0x70>
    8098:	ee1fcf3c 	mrc	15, 0, ip, cr15, cr12, {1}
    809c:	e24cc010 	sub	ip, ip, #16, 0
    80a0:	e5840028 	str	r0, [r4, #40]	; 0x28
    80a4:	eaffffea 	b	8054 <pix_sendbyte+0x1c>
    80a8:	ee1fcf3c 	mrc	15, 0, ip, cr15, cr12, {1}
    80ac:	e24cc010 	sub	ip, ip, #16, 0
    80b0:	e5840028 	str	r0, [r4, #40]	; 0x28
    80b4:	ee1f3f3c 	mrc	15, 0, r3, cr15, cr12, {1}
    80b8:	e043300c 	sub	r3, r3, ip
    80bc:	e153000e 	cmp	r3, lr
    80c0:	9afffffb 	bls	80b4 <pix_sendbyte+0x7c>
    80c4:	ee1fcf3c 	mrc	15, 0, ip, cr15, cr12, {1}
    80c8:	e24cc010 	sub	ip, ip, #16, 0
    80cc:	e584001c 	str	r0, [r4, #28]
    80d0:	ee1f3f3c 	mrc	15, 0, r3, cr15, cr12, {1}
    80d4:	e043300c 	sub	r3, r3, ip
    80d8:	e35300e4 	cmp	r3, #228, 0	; 0xe4
    80dc:	9afffffb 	bls	80d0 <pix_sendbyte+0x98>
    80e0:	eaffffe6 	b	8080 <pix_sendbyte+0x48>
    80e4:	20200000 	eorcs	r0, r0, r0
    80e8:	00000265 	andeq	r0, r0, r5, ror #4

000080ec <notmain>:
    80ec:	e92d47f0 	push	{r4, r5, r6, r7, r8, r9, sl, lr}
    80f0:	eb0002d9 	bl	8c5c <enable_cache>
    80f4:	e3a00015 	mov	r0, #21, 0
    80f8:	eb000354 	bl	8e50 <gpio_set_output>
    80fc:	e3a07002 	mov	r7, #2, 0
    8100:	e59fa0cc 	ldr	sl, [pc, #204]	; 81d4 <notmain+0xe8>
    8104:	e3a06000 	mov	r6, #0, 0
    8108:	e3a05015 	mov	r5, #21, 0
    810c:	e59f80c4 	ldr	r8, [pc, #196]	; 81d8 <notmain+0xec>
    8110:	e59f40c4 	ldr	r4, [pc, #196]	; 81dc <notmain+0xf0>
    8114:	e59f90c4 	ldr	r9, [pc, #196]	; 81e0 <notmain+0xf4>
    8118:	e1a0000a 	mov	r0, sl
    811c:	eb0000db 	bl	8490 <printk>
    8120:	e1a01006 	mov	r1, r6
    8124:	e1a00005 	mov	r0, r5
    8128:	ebffffc2 	bl	8038 <pix_sendbyte>
    812c:	e1a01006 	mov	r1, r6
    8130:	e1a00005 	mov	r0, r5
    8134:	ebffffbf 	bl	8038 <pix_sendbyte>
    8138:	e3a010ff 	mov	r1, #255, 0	; 0xff
    813c:	e1a00005 	mov	r0, r5
    8140:	ebffffbc 	bl	8038 <pix_sendbyte>
    8144:	ee1f2f3c 	mrc	15, 0, r2, cr15, cr12, {1}
    8148:	e2422010 	sub	r2, r2, #16, 0
    814c:	e3a03602 	mov	r3, #2097152	; 0x200000
    8150:	e588301c 	str	r3, [r8, #28]
    8154:	ee1f3f3c 	mrc	15, 0, r3, cr15, cr12, {1}
    8158:	e0433002 	sub	r3, r3, r2
    815c:	e1530004 	cmp	r3, r4
    8160:	9afffffb 	bls	8154 <notmain+0x68>
    8164:	e3a00ffa 	mov	r0, #1000	; 0x3e8
    8168:	eb000313 	bl	8dbc <delay_ms>
    816c:	e1a00009 	mov	r0, r9
    8170:	eb0000c6 	bl	8490 <printk>
    8174:	e1a01006 	mov	r1, r6
    8178:	e1a00005 	mov	r0, r5
    817c:	ebffffad 	bl	8038 <pix_sendbyte>
    8180:	e1a01006 	mov	r1, r6
    8184:	e1a00005 	mov	r0, r5
    8188:	ebffffaa 	bl	8038 <pix_sendbyte>
    818c:	e1a01006 	mov	r1, r6
    8190:	e1a00005 	mov	r0, r5
    8194:	ebffffa7 	bl	8038 <pix_sendbyte>
    8198:	ee1f2f3c 	mrc	15, 0, r2, cr15, cr12, {1}
    819c:	e2422010 	sub	r2, r2, #16, 0
    81a0:	e3a03602 	mov	r3, #2097152	; 0x200000
    81a4:	e588301c 	str	r3, [r8, #28]
    81a8:	ee1f3f3c 	mrc	15, 0, r3, cr15, cr12, {1}
    81ac:	e0433002 	sub	r3, r3, r2
    81b0:	e1530004 	cmp	r3, r4
    81b4:	9afffffb 	bls	81a8 <notmain+0xbc>
    81b8:	e3a00ffa 	mov	r0, #1000	; 0x3e8
    81bc:	eb0002fe 	bl	8dbc <delay_ms>
    81c0:	e2577001 	subs	r7, r7, #1, 0
    81c4:	1affffd3 	bne	8118 <notmain+0x2c>
    81c8:	e59f0014 	ldr	r0, [pc, #20]	; 81e4 <notmain+0xf8>
    81cc:	eb0000af 	bl	8490 <printk>
    81d0:	e8bd87f0 	pop	{r4, r5, r6, r7, r8, r9, sl, pc}
    81d4:	000095b0 			; <UNDEFINED> instruction: 0x000095b0
    81d8:	20200000 	eorcs	r0, r0, r0
    81dc:	0000a40f 	andeq	sl, r0, pc, lsl #8
    81e0:	000095c0 	andeq	r9, r0, r0, asr #11
    81e4:	000095d4 	ldrdeq	r9, [r0], -r4

000081e8 <pix_sendbyte>:
    81e8:	e92d4010 	push	{r4, lr}
    81ec:	e3a03001 	mov	r3, #1, 0
    81f0:	e1a00013 	lsl	r0, r3, r0
    81f4:	e3a02007 	mov	r2, #7, 0
    81f8:	e59f4094 	ldr	r4, [pc, #148]	; 8294 <pix_sendbyte+0xac>
    81fc:	e59fe094 	ldr	lr, [pc, #148]	; 8298 <pix_sendbyte+0xb0>
    8200:	ea00000d 	b	823c <pix_sendbyte+0x54>
    8204:	ee1f3f3c 	mrc	15, 0, r3, cr15, cr12, {1}
    8208:	e043300c 	sub	r3, r3, ip
    820c:	e35300e4 	cmp	r3, #228, 0	; 0xe4
    8210:	9afffffb 	bls	8204 <pix_sendbyte+0x1c>
    8214:	ee1fcf3c 	mrc	15, 0, ip, cr15, cr12, {1}
    8218:	e24cc010 	sub	ip, ip, #16, 0
    821c:	e584001c 	str	r0, [r4, #28]
    8220:	ee1f3f3c 	mrc	15, 0, r3, cr15, cr12, {1}
    8224:	e043300c 	sub	r3, r3, ip
    8228:	e153000e 	cmp	r3, lr
    822c:	9afffffb 	bls	8220 <pix_sendbyte+0x38>
    8230:	e2422001 	sub	r2, r2, #1, 0
    8234:	e3720001 	cmn	r2, #1, 0
    8238:	08bd8010 	popeq	{r4, pc}
    823c:	e1a03251 	asr	r3, r1, r2
    8240:	e3130001 	tst	r3, #1, 0
    8244:	1a000003 	bne	8258 <pix_sendbyte+0x70>
    8248:	ee1fcf3c 	mrc	15, 0, ip, cr15, cr12, {1}
    824c:	e24cc010 	sub	ip, ip, #16, 0
    8250:	e5840028 	str	r0, [r4, #40]	; 0x28
    8254:	eaffffea 	b	8204 <pix_sendbyte+0x1c>
    8258:	ee1fcf3c 	mrc	15, 0, ip, cr15, cr12, {1}
    825c:	e24cc010 	sub	ip, ip, #16, 0
    8260:	e5840028 	str	r0, [r4, #40]	; 0x28
    8264:	ee1f3f3c 	mrc	15, 0, r3, cr15, cr12, {1}
    8268:	e043300c 	sub	r3, r3, ip
    826c:	e153000e 	cmp	r3, lr
    8270:	9afffffb 	bls	8264 <pix_sendbyte+0x7c>
    8274:	ee1fcf3c 	mrc	15, 0, ip, cr15, cr12, {1}
    8278:	e24cc010 	sub	ip, ip, #16, 0
    827c:	e584001c 	str	r0, [r4, #28]
    8280:	ee1f3f3c 	mrc	15, 0, r3, cr15, cr12, {1}
    8284:	e043300c 	sub	r3, r3, ip
    8288:	e35300e4 	cmp	r3, #228, 0	; 0xe4
    828c:	9afffffb 	bls	8280 <pix_sendbyte+0x98>
    8290:	eaffffe6 	b	8230 <pix_sendbyte+0x48>
    8294:	20200000 	eorcs	r0, r0, r0
    8298:	00000265 	andeq	r0, r0, r5, ror #4

0000829c <neopix_flush>:
    829c:	e92d47f0 	push	{r4, r5, r6, r7, r8, r9, sl, lr}
    82a0:	e1a05000 	mov	r5, r0
    82a4:	e5903004 	ldr	r3, [r0, #4]
    82a8:	e3530000 	cmp	r3, #0, 0
    82ac:	0a000012 	beq	82fc <neopix_flush+0x60>
    82b0:	e1a04000 	mov	r4, r0
    82b4:	e3a07000 	mov	r7, #0, 0
    82b8:	e5d56000 	ldrb	r6, [r5]
    82bc:	e5d49008 	ldrb	r9, [r4, #8]
    82c0:	e5d4800a 	ldrb	r8, [r4, #10]
    82c4:	e5d41009 	ldrb	r1, [r4, #9]
    82c8:	e1a00006 	mov	r0, r6
    82cc:	ebffffc5 	bl	81e8 <pix_sendbyte>
    82d0:	e1a01009 	mov	r1, r9
    82d4:	e1a00006 	mov	r0, r6
    82d8:	ebffffc2 	bl	81e8 <pix_sendbyte>
    82dc:	e1a01008 	mov	r1, r8
    82e0:	e1a00006 	mov	r0, r6
    82e4:	ebffffbf 	bl	81e8 <pix_sendbyte>
    82e8:	e2877001 	add	r7, r7, #1, 0
    82ec:	e2844003 	add	r4, r4, #3, 0
    82f0:	e5953004 	ldr	r3, [r5, #4]
    82f4:	e1530007 	cmp	r3, r7
    82f8:	8affffee 	bhi	82b8 <neopix_flush+0x1c>
    82fc:	ee1f2f3c 	mrc	15, 0, r2, cr15, cr12, {1}
    8300:	e2422010 	sub	r2, r2, #16, 0
    8304:	e5d51000 	ldrb	r1, [r5]
    8308:	e3a03001 	mov	r3, #1, 0
    830c:	e1a03113 	lsl	r3, r3, r1
    8310:	e59f104c 	ldr	r1, [pc, #76]	; 8364 <neopix_flush+0xc8>
    8314:	e581301c 	str	r3, [r1, #28]
    8318:	e59f1048 	ldr	r1, [pc, #72]	; 8368 <neopix_flush+0xcc>
    831c:	ee1f3f3c 	mrc	15, 0, r3, cr15, cr12, {1}
    8320:	e0433002 	sub	r3, r3, r2
    8324:	e1530001 	cmp	r3, r1
    8328:	9afffffb 	bls	831c <neopix_flush+0x80>
    832c:	e5952004 	ldr	r2, [r5, #4]
    8330:	e3520000 	cmp	r2, #0, 0
    8334:	08bd87f0 	popeq	{r4, r5, r6, r7, r8, r9, sl, pc}
    8338:	e1a03005 	mov	r3, r5
    833c:	e0822082 	add	r2, r2, r2, lsl #1
    8340:	e0855002 	add	r5, r5, r2
    8344:	e3a02000 	mov	r2, #0, 0
    8348:	e5c32008 	strb	r2, [r3, #8]
    834c:	e5c32009 	strb	r2, [r3, #9]
    8350:	e5c3200a 	strb	r2, [r3, #10]
    8354:	e2833003 	add	r3, r3, #3, 0
    8358:	e1550003 	cmp	r5, r3
    835c:	1afffff9 	bne	8348 <neopix_flush+0xac>
    8360:	e8bd87f0 	pop	{r4, r5, r6, r7, r8, r9, sl, pc}
    8364:	20200000 	eorcs	r0, r0, r0
    8368:	0000a40f 	andeq	sl, r0, pc, lsl #8

0000836c <neopix_init>:
    836c:	e92d41f0 	push	{r4, r5, r6, r7, r8, lr}
    8370:	e1a06000 	mov	r6, r0
    8374:	e1a05001 	mov	r5, r1
    8378:	e0817081 	add	r7, r1, r1, lsl #1
    837c:	e2877008 	add	r7, r7, #8, 0
    8380:	e1a00007 	mov	r0, r7
    8384:	eb0003ca 	bl	92b4 <kmalloc>
    8388:	e1a04000 	mov	r4, r0
    838c:	e1a02007 	mov	r2, r7
    8390:	e3a01000 	mov	r1, #0, 0
    8394:	eb000037 	bl	8478 <memset>
    8398:	e5845004 	str	r5, [r4, #4]
    839c:	e5c46000 	strb	r6, [r4]
    83a0:	e1a00006 	mov	r0, r6
    83a4:	eb0002a9 	bl	8e50 <gpio_set_output>
    83a8:	e1a00004 	mov	r0, r4
    83ac:	e8bd81f0 	pop	{r4, r5, r6, r7, r8, pc}

000083b0 <neopix_sendpixel>:
    83b0:	e92d4070 	push	{r4, r5, r6, lr}
    83b4:	e1a06001 	mov	r6, r1
    83b8:	e1a05003 	mov	r5, r3
    83bc:	e5d04000 	ldrb	r4, [r0]
    83c0:	e1a01002 	mov	r1, r2
    83c4:	e1a00004 	mov	r0, r4
    83c8:	ebffff86 	bl	81e8 <pix_sendbyte>
    83cc:	e1a01006 	mov	r1, r6
    83d0:	e1a00004 	mov	r0, r4
    83d4:	ebffff83 	bl	81e8 <pix_sendbyte>
    83d8:	e1a01005 	mov	r1, r5
    83dc:	e1a00004 	mov	r0, r4
    83e0:	ebffff80 	bl	81e8 <pix_sendbyte>
    83e4:	e8bd8070 	pop	{r4, r5, r6, pc}

000083e8 <neopix_fast_clear>:
    83e8:	e92d41f0 	push	{r4, r5, r6, r7, r8, lr}
    83ec:	e1a08000 	mov	r8, r0
    83f0:	e2517000 	subs	r7, r1, #0, 0
    83f4:	0a00000e 	beq	8434 <neopix_fast_clear+0x4c>
    83f8:	e3a06000 	mov	r6, #0, 0
    83fc:	e1a05006 	mov	r5, r6
    8400:	e5d84000 	ldrb	r4, [r8]
    8404:	e1a01005 	mov	r1, r5
    8408:	e1a00004 	mov	r0, r4
    840c:	ebffff75 	bl	81e8 <pix_sendbyte>
    8410:	e1a01005 	mov	r1, r5
    8414:	e1a00004 	mov	r0, r4
    8418:	ebffff72 	bl	81e8 <pix_sendbyte>
    841c:	e1a01005 	mov	r1, r5
    8420:	e1a00004 	mov	r0, r4
    8424:	ebffff6f 	bl	81e8 <pix_sendbyte>
    8428:	e2866001 	add	r6, r6, #1, 0
    842c:	e1570006 	cmp	r7, r6
    8430:	1afffff2 	bne	8400 <neopix_fast_clear+0x18>
    8434:	e1a00008 	mov	r0, r8
    8438:	ebffff97 	bl	829c <neopix_flush>
    843c:	e8bd81f0 	pop	{r4, r5, r6, r7, r8, pc}

00008440 <neopix_clear>:
    8440:	e92d4010 	push	{r4, lr}
    8444:	e5901004 	ldr	r1, [r0, #4]
    8448:	ebffffe6 	bl	83e8 <neopix_fast_clear>
    844c:	e8bd8010 	pop	{r4, pc}

00008450 <neopix_write>:
    8450:	e590c004 	ldr	ip, [r0, #4]
    8454:	e15c0001 	cmp	ip, r1
    8458:	312fff1e 	bxcc	lr
    845c:	e0811081 	add	r1, r1, r1, lsl #1
    8460:	e0800001 	add	r0, r0, r1
    8464:	e5c02008 	strb	r2, [r0, #8]
    8468:	e5c03009 	strb	r3, [r0, #9]
    846c:	e5dd3000 	ldrb	r3, [sp]
    8470:	e5c0300a 	strb	r3, [r0, #10]
    8474:	e12fff1e 	bx	lr

00008478 <memset>:
    8478:	e0802002 	add	r2, r0, r2
    847c:	e1a03000 	mov	r3, r0
    8480:	e1530002 	cmp	r3, r2
    8484:	212fff1e 	bxcs	lr
    8488:	e4c31001 	strb	r1, [r3], #1
    848c:	eafffffb 	b	8480 <memset+0x8>

00008490 <printk>:
    8490:	e92d000f 	push	{r0, r1, r2, r3}
    8494:	e92d4030 	push	{r4, r5, lr}
    8498:	e24dd00c 	sub	sp, sp, #12, 0
    849c:	e28d301c 	add	r3, sp, #28, 0
    84a0:	e58d3004 	str	r3, [sp, #4]
    84a4:	e59f5034 	ldr	r5, [pc, #52]	; 84e0 <printk+0x50>
    84a8:	e59d2018 	ldr	r2, [sp, #24]
    84ac:	e3a01b01 	mov	r1, #1024	; 0x400
    84b0:	e1a00005 	mov	r0, r5
    84b4:	eb0000ba 	bl	87a4 <va_printk>
    84b8:	e1a04000 	mov	r4, r0
    84bc:	e59f3020 	ldr	r3, [pc, #32]	; 84e4 <printk+0x54>
    84c0:	e5933000 	ldr	r3, [r3]
    84c4:	e1a00005 	mov	r0, r5
    84c8:	e12fff33 	blx	r3
    84cc:	e1a00004 	mov	r0, r4
    84d0:	e28dd00c 	add	sp, sp, #12, 0
    84d4:	e8bd4030 	pop	{r4, r5, lr}
    84d8:	e28dd010 	add	sp, sp, #16, 0
    84dc:	e12fff1e 	bx	lr
    84e0:	00009974 	andeq	r9, r0, r4, ror r9
    84e4:	00009960 	andeq	r9, r0, r0, ror #18

000084e8 <internal_putk>:
    84e8:	e92d4010 	push	{r4, lr}
    84ec:	e1a04000 	mov	r4, r0
    84f0:	e5d40000 	ldrb	r0, [r4]
    84f4:	e3500000 	cmp	r0, #0, 0
    84f8:	0a000004 	beq	8510 <internal_putk+0x28>
    84fc:	e59f3014 	ldr	r3, [pc, #20]	; 8518 <internal_putk+0x30>
    8500:	e5933000 	ldr	r3, [r3]
    8504:	e12fff33 	blx	r3
    8508:	e2844001 	add	r4, r4, #1, 0
    850c:	eafffff7 	b	84f0 <internal_putk+0x8>
    8510:	e3a00001 	mov	r0, #1, 0
    8514:	e8bd8010 	pop	{r4, pc}
    8518:	00009970 	andeq	r9, r0, r0, ror r9

0000851c <isdigit>:
    851c:	e2400030 	sub	r0, r0, #48, 0	; 0x30
    8520:	e3500009 	cmp	r0, #9, 0
    8524:	83a00000 	movhi	r0, #0, 0
    8528:	93a00001 	movls	r0, #1, 0
    852c:	e12fff1e 	bx	lr

00008530 <pad>:
    8530:	e0401001 	sub	r1, r0, r1
    8534:	e1510002 	cmp	r1, r2
    8538:	b3a03020 	movlt	r3, #32, 0
    853c:	b4c03001 	strblt	r3, [r0], #1
    8540:	b2811001 	addlt	r1, r1, #1, 0
    8544:	bafffffa 	blt	8534 <pad+0x4>
    8548:	e3a03000 	mov	r3, #0, 0
    854c:	e5c03000 	strb	r3, [r0]
    8550:	e12fff1e 	bx	lr

00008554 <reverse>:
    8554:	e042c003 	sub	ip, r2, r3
    8558:	e28cc001 	add	ip, ip, #1, 0
    855c:	e15c0001 	cmp	ip, r1
    8560:	c04cc001 	subgt	ip, ip, r1
    8564:	c083300c 	addgt	r3, r3, ip
    8568:	e2421001 	sub	r1, r2, #1, 0
    856c:	e1a02000 	mov	r2, r0
    8570:	e1510003 	cmp	r1, r3
    8574:	2451c001 	ldrbcs	ip, [r1], #-1
    8578:	24c2c001 	strbcs	ip, [r2], #1
    857c:	2afffffb 	bcs	8570 <reverse+0x1c>
    8580:	e3a03000 	mov	r3, #0, 0
    8584:	e5c23000 	strb	r3, [r2]
    8588:	e12fff1e 	bx	lr

0000858c <emit>:
    858c:	e92d40f0 	push	{r4, r5, r6, r7, lr}
    8590:	e24dd04c 	sub	sp, sp, #76, 0	; 0x4c
    8594:	e1a05001 	mov	r5, r1
    8598:	e1a04002 	mov	r4, r2
    859c:	e59d2060 	ldr	r2, [sp, #96]	; 0x60
    85a0:	e1520004 	cmp	r2, r4
    85a4:	c2442001 	subgt	r2, r4, #1, 0
    85a8:	e1a0c003 	mov	ip, r3
    85ac:	e2400002 	sub	r0, r0, #2, 0
    85b0:	e350000e 	cmp	r0, #14, 0
    85b4:	979ff100 	ldrls	pc, [pc, r0, lsl #2]
    85b8:	ea000050 	b	8700 <emit+0x174>
    85bc:	000086d8 	ldrdeq	r8, [r0], -r8	; <UNPREDICTABLE>
    85c0:	00008700 	andeq	r8, r0, r0, lsl #14
    85c4:	00008700 	andeq	r8, r0, r0, lsl #14
    85c8:	00008700 	andeq	r8, r0, r0, lsl #14
    85cc:	00008700 	andeq	r8, r0, r0, lsl #14
    85d0:	00008700 	andeq	r8, r0, r0, lsl #14
    85d4:	000086cc 	andeq	r8, r0, ip, asr #13
    85d8:	00008700 	andeq	r8, r0, r0, lsl #14
    85dc:	000085f8 	strdeq	r8, [r0], -r8	; <UNPREDICTABLE>
    85e0:	00008700 	andeq	r8, r0, r0, lsl #14
    85e4:	00008700 	andeq	r8, r0, r0, lsl #14
    85e8:	00008700 	andeq	r8, r0, r0, lsl #14
    85ec:	00008700 	andeq	r8, r0, r0, lsl #14
    85f0:	00008700 	andeq	r8, r0, r0, lsl #14
    85f4:	00008670 	andeq	r8, r0, r0, ror r6
    85f8:	e59d1064 	ldr	r1, [sp, #100]	; 0x64
    85fc:	e2511000 	subs	r1, r1, #0, 0
    8600:	13a01001 	movne	r1, #1, 0
    8604:	e0111fa3 	ands	r1, r1, r3, lsr #31
    8608:	0a000016 	beq	8668 <emit+0xdc>
    860c:	e263c000 	rsb	ip, r3, #0, 0
    8610:	e3a06001 	mov	r6, #1, 0
    8614:	e28d0008 	add	r0, sp, #8, 0
    8618:	e59f3100 	ldr	r3, [pc, #256]	; 8720 <emit+0x194>
    861c:	e0831c93 	umull	r1, r3, r3, ip
    8620:	e1a031a3 	lsr	r3, r3, #3
    8624:	e1a0e003 	mov	lr, r3
    8628:	e0833103 	add	r3, r3, r3, lsl #2
    862c:	e04c3083 	sub	r3, ip, r3, lsl #1
    8630:	e1a01000 	mov	r1, r0
    8634:	e2800001 	add	r0, r0, #1, 0
    8638:	e59f70e4 	ldr	r7, [pc, #228]	; 8724 <emit+0x198>
    863c:	e7d73003 	ldrb	r3, [r7, r3]
    8640:	e5c13000 	strb	r3, [r1]
    8644:	e1a0300c 	mov	r3, ip
    8648:	e1a0c00e 	mov	ip, lr
    864c:	e3530009 	cmp	r3, #9, 0
    8650:	8afffff0 	bhi	8618 <emit+0x8c>
    8654:	e3560000 	cmp	r6, #0, 0
    8658:	13a0302d 	movne	r3, #45, 0	; 0x2d
    865c:	15c03000 	strbne	r3, [r0]
    8660:	12810002 	addne	r0, r1, #2, 0
    8664:	ea00000f 	b	86a8 <emit+0x11c>
    8668:	e3a06000 	mov	r6, #0, 0
    866c:	eaffffe8 	b	8614 <emit+0x88>
    8670:	e28d1008 	add	r1, sp, #8, 0
    8674:	e20c000f 	and	r0, ip, #15, 0
    8678:	e59fe0a8 	ldr	lr, [pc, #168]	; 8728 <emit+0x19c>
    867c:	e7de0000 	ldrb	r0, [lr, r0]
    8680:	e5c10000 	strb	r0, [r1]
    8684:	e2811001 	add	r1, r1, #1, 0
    8688:	e35c000f 	cmp	ip, #15, 0
    868c:	e1a0c22c 	lsr	ip, ip, #4
    8690:	8afffff7 	bhi	8674 <emit+0xe8>
    8694:	e1a00001 	mov	r0, r1
    8698:	e3a03078 	mov	r3, #120, 0	; 0x78
    869c:	e4c03002 	strb	r3, [r0], #2
    86a0:	e3a03030 	mov	r3, #48, 0	; 0x30
    86a4:	e5c13001 	strb	r3, [r1, #1]
    86a8:	e28d1008 	add	r1, sp, #8, 0
    86ac:	ebffff9f 	bl	8530 <pad>
    86b0:	e1a02000 	mov	r2, r0
    86b4:	e28d3008 	add	r3, sp, #8, 0
    86b8:	e1a01004 	mov	r1, r4
    86bc:	e1a00005 	mov	r0, r5
    86c0:	ebffffa3 	bl	8554 <reverse>
    86c4:	e28dd04c 	add	sp, sp, #76, 0	; 0x4c
    86c8:	e8bd80f0 	pop	{r4, r5, r6, r7, pc}
    86cc:	e5cd3008 	strb	r3, [sp, #8]
    86d0:	e28d0009 	add	r0, sp, #9, 0
    86d4:	eafffff3 	b	86a8 <emit+0x11c>
    86d8:	e28d0008 	add	r0, sp, #8, 0
    86dc:	e20c1001 	and	r1, ip, #1, 0
    86e0:	e59fe044 	ldr	lr, [pc, #68]	; 872c <emit+0x1a0>
    86e4:	e7de1001 	ldrb	r1, [lr, r1]
    86e8:	e5c01000 	strb	r1, [r0]
    86ec:	e2800001 	add	r0, r0, #1, 0
    86f0:	e35c0001 	cmp	ip, #1, 0
    86f4:	e1a0c0ac 	lsr	ip, ip, #1
    86f8:	8afffff7 	bhi	86dc <emit+0x150>
    86fc:	eaffffe9 	b	86a8 <emit+0x11c>
    8700:	e59f3028 	ldr	r3, [pc, #40]	; 8730 <emit+0x1a4>
    8704:	e58d3000 	str	r3, [sp]
    8708:	e3a03079 	mov	r3, #121, 0	; 0x79
    870c:	e59f2020 	ldr	r2, [pc, #32]	; 8734 <emit+0x1a8>
    8710:	e59f1020 	ldr	r1, [pc, #32]	; 8738 <emit+0x1ac>
    8714:	e59f0020 	ldr	r0, [pc, #32]	; 873c <emit+0x1b0>
    8718:	ebffff5c 	bl	8490 <printk>
    871c:	eb000156 	bl	8c7c <clean_reboot>
    8720:	cccccccd 	stclgt	12, cr12, [ip], {205}	; 0xcd
    8724:	00009608 	andeq	r9, r0, r8, lsl #12
    8728:	00009614 	andeq	r9, r0, r4, lsl r6
    872c:	00009628 	andeq	r9, r0, r8, lsr #12
    8730:	00009604 	andeq	r9, r0, r4, lsl #12
    8734:	00009734 	andeq	r9, r0, r4, lsr r7
    8738:	000095dc 	ldrdeq	r9, [r0], -ip
    873c:	000095f0 	strdeq	r9, [r0], -r0

00008740 <rpi_set_output>:
    8740:	e3500000 	cmp	r0, #0, 0
    8744:	0a000006 	beq	8764 <rpi_set_output+0x24>
    8748:	e59f303c 	ldr	r3, [pc, #60]	; 878c <rpi_set_output+0x4c>
    874c:	e5830000 	str	r0, [r3]
    8750:	e3510000 	cmp	r1, #0, 0
    8754:	012fff1e 	bxeq	lr
    8758:	e59f3030 	ldr	r3, [pc, #48]	; 8790 <rpi_set_output+0x50>
    875c:	e5831000 	str	r1, [r3]
    8760:	e12fff1e 	bx	lr
    8764:	e52de004 	push	{lr}		; (str lr, [sp, #-4]!)
    8768:	e24dd00c 	sub	sp, sp, #12, 0
    876c:	e59f3020 	ldr	r3, [pc, #32]	; 8794 <rpi_set_output+0x54>
    8770:	e58d3000 	str	r3, [sp]
    8774:	e3a03020 	mov	r3, #32, 0
    8778:	e59f2018 	ldr	r2, [pc, #24]	; 8798 <rpi_set_output+0x58>
    877c:	e59f1018 	ldr	r1, [pc, #24]	; 879c <rpi_set_output+0x5c>
    8780:	e59f0018 	ldr	r0, [pc, #24]	; 87a0 <rpi_set_output+0x60>
    8784:	ebffff41 	bl	8490 <printk>
    8788:	eb00013b 	bl	8c7c <clean_reboot>
    878c:	00009970 	andeq	r9, r0, r0, ror r9
    8790:	00009960 	andeq	r9, r0, r0, ror #18
    8794:	0000962c 	andeq	r9, r0, ip, lsr #12
    8798:	0000973c 	andeq	r9, r0, ip, lsr r7
    879c:	000095dc 	ldrdeq	r9, [r0], -ip
    87a0:	000095f0 	strdeq	r9, [r0], -r0

000087a4 <va_printk>:
    87a4:	e92d4ff0 	push	{r4, r5, r6, r7, r8, r9, sl, fp, lr}
    87a8:	e24ddf45 	sub	sp, sp, #276	; 0x114
    87ac:	e1a09000 	mov	r9, r0
    87b0:	e58d2008 	str	r2, [sp, #8]
    87b4:	e58d300c 	str	r3, [sp, #12]
    87b8:	e2411001 	sub	r1, r1, #1, 0
    87bc:	e0808001 	add	r8, r0, r1
    87c0:	e3a03000 	mov	r3, #0, 0
    87c4:	e5c03000 	strb	r3, [r0]
    87c8:	e1a04000 	mov	r4, r0
    87cc:	e1a06002 	mov	r6, r2
    87d0:	ea000001 	b	87dc <va_printk+0x38>
    87d4:	e2866001 	add	r6, r6, #1, 0
    87d8:	e4c43001 	strb	r3, [r4], #1
    87dc:	e5d63000 	ldrb	r3, [r6]
    87e0:	e3530000 	cmp	r3, #0, 0
    87e4:	0a000108 	beq	8c0c <va_printk+0x468>
    87e8:	e1540008 	cmp	r4, r8
    87ec:	2a000106 	bcs	8c0c <va_printk+0x468>
    87f0:	e3530025 	cmp	r3, #37, 0	; 0x25
    87f4:	1afffff6 	bne	87d4 <va_printk+0x30>
    87f8:	e5d62001 	ldrb	r2, [r6, #1]
    87fc:	e3520025 	cmp	r2, #37, 0	; 0x25
    8800:	04c43001 	strbeq	r3, [r4], #1
    8804:	02866002 	addeq	r6, r6, #2, 0
    8808:	0afffff3 	beq	87dc <va_printk+0x38>
    880c:	e2866001 	add	r6, r6, #1, 0
    8810:	e3a05000 	mov	r5, #0, 0
    8814:	e5d67000 	ldrb	r7, [r6]
    8818:	e1a0a007 	mov	sl, r7
    881c:	e1a00007 	mov	r0, r7
    8820:	ebffff3d 	bl	851c <isdigit>
    8824:	e3500000 	cmp	r0, #0, 0
    8828:	0a000004 	beq	8840 <va_printk+0x9c>
    882c:	e0855105 	add	r5, r5, r5, lsl #2
    8830:	e0875085 	add	r5, r7, r5, lsl #1
    8834:	e2455030 	sub	r5, r5, #48, 0	; 0x30
    8838:	e2866001 	add	r6, r6, #1, 0
    883c:	eafffff4 	b	8814 <va_printk+0x70>
    8840:	e355001f 	cmp	r5, #31, 0
    8844:	8a00001a 	bhi	88b4 <va_printk+0x110>
    8848:	e2477062 	sub	r7, r7, #98, 0	; 0x62
    884c:	e3570016 	cmp	r7, #22, 0
    8850:	979ff107 	ldrls	pc, [pc, r7, lsl #2]
    8854:	ea0000d4 	b	8bac <va_printk+0x408>
    8858:	00008b30 	andeq	r8, r0, r0, lsr fp
    885c:	00008b78 	andeq	r8, r0, r8, ror fp
    8860:	00008a90 	muleq	r0, r0, sl
    8864:	00008bac 	andeq	r8, r0, ip, lsr #23
    8868:	00008a78 	andeq	r8, r0, r8, ror sl
    886c:	00008bac 	andeq	r8, r0, ip, lsr #23
    8870:	00008bac 	andeq	r8, r0, ip, lsr #23
    8874:	00008bac 	andeq	r8, r0, ip, lsr #23
    8878:	00008bac 	andeq	r8, r0, ip, lsr #23
    887c:	00008bac 	andeq	r8, r0, ip, lsr #23
    8880:	000088d4 	ldrdeq	r8, [r0], -r4
    8884:	00008bac 	andeq	r8, r0, ip, lsr #23
    8888:	00008bac 	andeq	r8, r0, ip, lsr #23
    888c:	00008bac 	andeq	r8, r0, ip, lsr #23
    8890:	00008afc 	strdeq	r8, [r0], -ip
    8894:	00008bac 	andeq	r8, r0, ip, lsr #23
    8898:	00008bac 	andeq	r8, r0, ip, lsr #23
    889c:	00008b64 	andeq	r8, r0, r4, ror #22
    88a0:	00008bac 	andeq	r8, r0, ip, lsr #23
    88a4:	00008ac8 	andeq	r8, r0, r8, asr #21
    88a8:	00008bac 	andeq	r8, r0, ip, lsr #23
    88ac:	00008bac 	andeq	r8, r0, ip, lsr #23
    88b0:	00008afc 	strdeq	r8, [r0], -ip
    88b4:	e59f3364 	ldr	r3, [pc, #868]	; 8c20 <va_printk+0x47c>
    88b8:	e58d3000 	str	r3, [sp]
    88bc:	e3a03098 	mov	r3, #152, 0	; 0x98
    88c0:	e59f235c 	ldr	r2, [pc, #860]	; 8c24 <va_printk+0x480>
    88c4:	e59f135c 	ldr	r1, [pc, #860]	; 8c28 <va_printk+0x484>
    88c8:	e59f035c 	ldr	r0, [pc, #860]	; 8c2c <va_printk+0x488>
    88cc:	ebfffeef 	bl	8490 <printk>
    88d0:	eb0000e9 	bl	8c7c <clean_reboot>
    88d4:	e3a02003 	mov	r2, #3, 0
    88d8:	e59f1350 	ldr	r1, [pc, #848]	; 8c30 <va_printk+0x48c>
    88dc:	e1a00006 	mov	r0, r6
    88e0:	eb00031f 	bl	9564 <strncmp>
    88e4:	e3500000 	cmp	r0, #0, 0
    88e8:	0a000005 	beq	8904 <va_printk+0x160>
    88ec:	e3a02003 	mov	r2, #3, 0
    88f0:	e59f133c 	ldr	r1, [pc, #828]	; 8c34 <va_printk+0x490>
    88f4:	e1a00006 	mov	r0, r6
    88f8:	eb000319 	bl	9564 <strncmp>
    88fc:	e3500000 	cmp	r0, #0, 0
    8900:	1a000033 	bne	89d4 <va_printk+0x230>
    8904:	e286b002 	add	fp, r6, #2, 0
    8908:	e59d300c 	ldr	r3, [sp, #12]
    890c:	e2833007 	add	r3, r3, #7, 0
    8910:	e3c33007 	bic	r3, r3, #7, 0
    8914:	e2832008 	add	r2, r3, #8, 0
    8918:	e58d200c 	str	r2, [sp, #12]
    891c:	e593a000 	ldr	sl, [r3]
    8920:	e5937004 	ldr	r7, [r3, #4]
    8924:	e1a01007 	mov	r1, r7
    8928:	e59f0308 	ldr	r0, [pc, #776]	; 8c38 <va_printk+0x494>
    892c:	ebfffed7 	bl	8490 <printk>
    8930:	e1a0100a 	mov	r1, sl
    8934:	e59f0300 	ldr	r0, [pc, #768]	; 8c3c <va_printk+0x498>
    8938:	ebfffed4 	bl	8490 <printk>
    893c:	e3a02003 	mov	r2, #3, 0
    8940:	e59f12e8 	ldr	r1, [pc, #744]	; 8c30 <va_printk+0x48c>
    8944:	e1a00006 	mov	r0, r6
    8948:	eb000305 	bl	9564 <strncmp>
    894c:	e3500000 	cmp	r0, #0, 0
    8950:	0a000027 	beq	89f4 <va_printk+0x250>
    8954:	e3a02003 	mov	r2, #3, 0
    8958:	e59f12d4 	ldr	r1, [pc, #724]	; 8c34 <va_printk+0x490>
    895c:	e1a00006 	mov	r0, r6
    8960:	eb0002ff 	bl	9564 <strncmp>
    8964:	e3500000 	cmp	r0, #0, 0
    8968:	1a00003b 	bne	8a5c <va_printk+0x2b8>
    896c:	e3a06000 	mov	r6, #0, 0
    8970:	e58d6004 	str	r6, [sp, #4]
    8974:	e58d5000 	str	r5, [sp]
    8978:	e1a03007 	mov	r3, r7
    897c:	e3a02080 	mov	r2, #128, 0	; 0x80
    8980:	e28d1010 	add	r1, sp, #16, 0
    8984:	e3a0000a 	mov	r0, #10, 0
    8988:	ebfffeff 	bl	858c <emit>
    898c:	e1a07000 	mov	r7, r0
    8990:	e58d6004 	str	r6, [sp, #4]
    8994:	e58d5000 	str	r5, [sp]
    8998:	e1a0300a 	mov	r3, sl
    899c:	e3a02080 	mov	r2, #128, 0	; 0x80
    89a0:	e28d1090 	add	r1, sp, #144, 0	; 0x90
    89a4:	e3a0000a 	mov	r0, #10, 0
    89a8:	ebfffef7 	bl	858c <emit>
    89ac:	e59f128c 	ldr	r1, [pc, #652]	; 8c40 <va_printk+0x49c>
    89b0:	e28d0010 	add	r0, sp, #16, 0
    89b4:	eb0002d7 	bl	9518 <strcmp>
    89b8:	e1500006 	cmp	r0, r6
    89bc:	1a000021 	bne	8a48 <va_printk+0x2a4>
    89c0:	e28d1090 	add	r1, sp, #144, 0	; 0x90
    89c4:	e28d0010 	add	r0, sp, #16, 0
    89c8:	eb0002dd 	bl	9544 <strcpy>
    89cc:	e1a0600b 	mov	r6, fp
    89d0:	ea00003a 	b	8ac0 <va_printk+0x31c>
    89d4:	e59f3268 	ldr	r3, [pc, #616]	; 8c44 <va_printk+0x4a0>
    89d8:	e58d3000 	str	r3, [sp]
    89dc:	e3a0309f 	mov	r3, #159, 0	; 0x9f
    89e0:	e59f223c 	ldr	r2, [pc, #572]	; 8c24 <va_printk+0x480>
    89e4:	e59f123c 	ldr	r1, [pc, #572]	; 8c28 <va_printk+0x484>
    89e8:	e59f023c 	ldr	r0, [pc, #572]	; 8c2c <va_printk+0x488>
    89ec:	ebfffea7 	bl	8490 <printk>
    89f0:	eb0000a1 	bl	8c7c <clean_reboot>
    89f4:	e3a06000 	mov	r6, #0, 0
    89f8:	e58d6004 	str	r6, [sp, #4]
    89fc:	e58d5000 	str	r5, [sp]
    8a00:	e1a03007 	mov	r3, r7
    8a04:	e3a02080 	mov	r2, #128, 0	; 0x80
    8a08:	e28d1010 	add	r1, sp, #16, 0
    8a0c:	e3a00010 	mov	r0, #16, 0
    8a10:	ebfffedd 	bl	858c <emit>
    8a14:	e1a07000 	mov	r7, r0
    8a18:	e58d6004 	str	r6, [sp, #4]
    8a1c:	e58d5000 	str	r5, [sp]
    8a20:	e1a0300a 	mov	r3, sl
    8a24:	e3a02080 	mov	r2, #128, 0	; 0x80
    8a28:	e28d1090 	add	r1, sp, #144, 0	; 0x90
    8a2c:	e3a00010 	mov	r0, #16, 0
    8a30:	ebfffed5 	bl	858c <emit>
    8a34:	e28d1092 	add	r1, sp, #146, 0	; 0x92
    8a38:	e28d0010 	add	r0, sp, #16, 0
    8a3c:	eb0002a8 	bl	94e4 <strcat>
    8a40:	e1a0600b 	mov	r6, fp
    8a44:	ea00001d 	b	8ac0 <va_printk+0x31c>
    8a48:	e28d1090 	add	r1, sp, #144, 0	; 0x90
    8a4c:	e28d0010 	add	r0, sp, #16, 0
    8a50:	eb0002a3 	bl	94e4 <strcat>
    8a54:	e1a0600b 	mov	r6, fp
    8a58:	ea000018 	b	8ac0 <va_printk+0x31c>
    8a5c:	e58d6000 	str	r6, [sp]
    8a60:	e3a030b6 	mov	r3, #182, 0	; 0xb6
    8a64:	e59f21b8 	ldr	r2, [pc, #440]	; 8c24 <va_printk+0x480>
    8a68:	e59f11b8 	ldr	r1, [pc, #440]	; 8c28 <va_printk+0x484>
    8a6c:	e59f01d4 	ldr	r0, [pc, #468]	; 8c48 <va_printk+0x4a4>
    8a70:	ebfffe86 	bl	8490 <printk>
    8a74:	eb000080 	bl	8c7c <clean_reboot>
    8a78:	e3a030be 	mov	r3, #190, 0	; 0xbe
    8a7c:	e59f21a0 	ldr	r2, [pc, #416]	; 8c24 <va_printk+0x480>
    8a80:	e59f11a0 	ldr	r1, [pc, #416]	; 8c28 <va_printk+0x484>
    8a84:	e59f01c0 	ldr	r0, [pc, #448]	; 8c4c <va_printk+0x4a8>
    8a88:	ebfffe80 	bl	8490 <printk>
    8a8c:	eb00007a 	bl	8c7c <clean_reboot>
    8a90:	e59d300c 	ldr	r3, [sp, #12]
    8a94:	e2832004 	add	r2, r3, #4, 0
    8a98:	e58d200c 	str	r2, [sp, #12]
    8a9c:	e5933000 	ldr	r3, [r3]
    8aa0:	e3a02001 	mov	r2, #1, 0
    8aa4:	e58d2004 	str	r2, [sp, #4]
    8aa8:	e58d5000 	str	r5, [sp]
    8aac:	e3a02080 	mov	r2, #128, 0	; 0x80
    8ab0:	e28d1010 	add	r1, sp, #16, 0
    8ab4:	e3a0000a 	mov	r0, #10, 0
    8ab8:	ebfffeb3 	bl	858c <emit>
    8abc:	e1a07000 	mov	r7, r0
    8ac0:	e2866001 	add	r6, r6, #1, 0
    8ac4:	ea00004a 	b	8bf4 <va_printk+0x450>
    8ac8:	e59d300c 	ldr	r3, [sp, #12]
    8acc:	e2832004 	add	r2, r3, #4, 0
    8ad0:	e58d200c 	str	r2, [sp, #12]
    8ad4:	e5933000 	ldr	r3, [r3]
    8ad8:	e3a02000 	mov	r2, #0, 0
    8adc:	e58d2004 	str	r2, [sp, #4]
    8ae0:	e58d5000 	str	r5, [sp]
    8ae4:	e3a02080 	mov	r2, #128, 0	; 0x80
    8ae8:	e28d1010 	add	r1, sp, #16, 0
    8aec:	e3a0000a 	mov	r0, #10, 0
    8af0:	ebfffea5 	bl	858c <emit>
    8af4:	e1a07000 	mov	r7, r0
    8af8:	eafffff0 	b	8ac0 <va_printk+0x31c>
    8afc:	e59d300c 	ldr	r3, [sp, #12]
    8b00:	e2832004 	add	r2, r3, #4, 0
    8b04:	e58d200c 	str	r2, [sp, #12]
    8b08:	e5933000 	ldr	r3, [r3]
    8b0c:	e3a02000 	mov	r2, #0, 0
    8b10:	e58d2004 	str	r2, [sp, #4]
    8b14:	e58d5000 	str	r5, [sp]
    8b18:	e3a02080 	mov	r2, #128, 0	; 0x80
    8b1c:	e28d1010 	add	r1, sp, #16, 0
    8b20:	e3a00010 	mov	r0, #16, 0
    8b24:	ebfffe98 	bl	858c <emit>
    8b28:	e1a07000 	mov	r7, r0
    8b2c:	eaffffe3 	b	8ac0 <va_printk+0x31c>
    8b30:	e59d300c 	ldr	r3, [sp, #12]
    8b34:	e2832004 	add	r2, r3, #4, 0
    8b38:	e58d200c 	str	r2, [sp, #12]
    8b3c:	e5933000 	ldr	r3, [r3]
    8b40:	e3a02000 	mov	r2, #0, 0
    8b44:	e58d2004 	str	r2, [sp, #4]
    8b48:	e58d5000 	str	r5, [sp]
    8b4c:	e3a02080 	mov	r2, #128, 0	; 0x80
    8b50:	e28d1010 	add	r1, sp, #16, 0
    8b54:	e3a00002 	mov	r0, #2, 0
    8b58:	ebfffe8b 	bl	858c <emit>
    8b5c:	e1a07000 	mov	r7, r0
    8b60:	eaffffd6 	b	8ac0 <va_printk+0x31c>
    8b64:	e59d300c 	ldr	r3, [sp, #12]
    8b68:	e2832004 	add	r2, r3, #4, 0
    8b6c:	e58d200c 	str	r2, [sp, #12]
    8b70:	e5937000 	ldr	r7, [r3]
    8b74:	eaffffd1 	b	8ac0 <va_printk+0x31c>
    8b78:	e59d300c 	ldr	r3, [sp, #12]
    8b7c:	e2832004 	add	r2, r3, #4, 0
    8b80:	e58d200c 	str	r2, [sp, #12]
    8b84:	e5933000 	ldr	r3, [r3]
    8b88:	e3a02000 	mov	r2, #0, 0
    8b8c:	e58d2004 	str	r2, [sp, #4]
    8b90:	e58d5000 	str	r5, [sp]
    8b94:	e3a02080 	mov	r2, #128, 0	; 0x80
    8b98:	e28d1010 	add	r1, sp, #16, 0
    8b9c:	e3a00008 	mov	r0, #8, 0
    8ba0:	ebfffe79 	bl	858c <emit>
    8ba4:	e1a07000 	mov	r7, r0
    8ba8:	eaffffc4 	b	8ac0 <va_printk+0x31c>
    8bac:	e3a03000 	mov	r3, #0, 0
    8bb0:	e5c63001 	strb	r3, [r6, #1]
    8bb4:	e1a0200a 	mov	r2, sl
    8bb8:	e1a0100a 	mov	r1, sl
    8bbc:	e59f008c 	ldr	r0, [pc, #140]	; 8c50 <va_printk+0x4ac>
    8bc0:	ebfffe32 	bl	8490 <printk>
    8bc4:	e59f3088 	ldr	r3, [pc, #136]	; 8c54 <va_printk+0x4b0>
    8bc8:	e5933000 	ldr	r3, [r3]
    8bcc:	e59d0008 	ldr	r0, [sp, #8]
    8bd0:	e12fff33 	blx	r3
    8bd4:	e3a030e2 	mov	r3, #226, 0	; 0xe2
    8bd8:	e59f2044 	ldr	r2, [pc, #68]	; 8c24 <va_printk+0x480>
    8bdc:	e59f1044 	ldr	r1, [pc, #68]	; 8c28 <va_printk+0x484>
    8be0:	e59f0070 	ldr	r0, [pc, #112]	; 8c58 <va_printk+0x4b4>
    8be4:	ebfffe29 	bl	8490 <printk>
    8be8:	eb000023 	bl	8c7c <clean_reboot>
    8bec:	e2877001 	add	r7, r7, #1, 0
    8bf0:	e4c43001 	strb	r3, [r4], #1
    8bf4:	e1540008 	cmp	r4, r8
    8bf8:	2afffef7 	bcs	87dc <va_printk+0x38>
    8bfc:	e5d73000 	ldrb	r3, [r7]
    8c00:	e3530000 	cmp	r3, #0, 0
    8c04:	1afffff8 	bne	8bec <va_printk+0x448>
    8c08:	eafffef3 	b	87dc <va_printk+0x38>
    8c0c:	e3a03000 	mov	r3, #0, 0
    8c10:	e4c43001 	strb	r3, [r4], #1
    8c14:	e0440009 	sub	r0, r4, r9
    8c18:	e28ddf45 	add	sp, sp, #276	; 0x114
    8c1c:	e8bd8ff0 	pop	{r4, r5, r6, r7, r8, r9, sl, fp, pc}
    8c20:	00009634 	andeq	r9, r0, r4, lsr r6
    8c24:	0000974c 	andeq	r9, r0, ip, asr #14
    8c28:	000095dc 	ldrdeq	r9, [r0], -ip
    8c2c:	000095f0 	strdeq	r9, [r0], -r0
    8c30:	00009640 	andeq	r9, r0, r0, asr #12
    8c34:	00009644 	andeq	r9, r0, r4, asr #12
    8c38:	00009648 	andeq	r9, r0, r8, asr #12
    8c3c:	00009650 	andeq	r9, r0, r0, asr r6
    8c40:	00009604 	andeq	r9, r0, r4, lsl #12
    8c44:	00009658 	andeq	r9, r0, r8, asr r6
    8c48:	00009694 	muleq	r0, r4, r6
    8c4c:	000096bc 			; <UNDEFINED> instruction: 0x000096bc
    8c50:	000096e4 	andeq	r9, r0, r4, ror #13
    8c54:	00009960 	andeq	r9, r0, r0, ror #18
    8c58:	00009714 	andeq	r9, r0, r4, lsl r7

00008c5c <enable_cache>:
    8c5c:	ee113f10 	mrc	15, 0, r3, cr1, cr0, {0}
    8c60:	e3833b06 	orr	r3, r3, #6144	; 0x1800
    8c64:	ee013f10 	mcr	15, 0, r3, cr1, cr0, {0}
    8c68:	e12fff1e 	bx	lr

00008c6c <disable_cache>:
    8c6c:	ee113f10 	mrc	15, 0, r3, cr1, cr0, {0}
    8c70:	e3c33b06 	bic	r3, r3, #6144	; 0x1800
    8c74:	ee013f10 	mcr	15, 0, r3, cr1, cr0, {0}
    8c78:	e12fff1e 	bx	lr

00008c7c <clean_reboot>:
    8c7c:	e92d4010 	push	{r4, lr}
    8c80:	e59f3018 	ldr	r3, [pc, #24]	; 8ca0 <clean_reboot+0x24>
    8c84:	e5933000 	ldr	r3, [r3]
    8c88:	e59f0014 	ldr	r0, [pc, #20]	; 8ca4 <clean_reboot+0x28>
    8c8c:	e12fff33 	blx	r3
    8c90:	eb00010a 	bl	90c0 <uart_flush_tx>
    8c94:	e3a0000a 	mov	r0, #10, 0
    8c98:	eb000047 	bl	8dbc <delay_ms>
    8c9c:	eb00001c 	bl	8d14 <rpi_reboot>
    8ca0:	00009960 	andeq	r9, r0, r0, ror #18
    8ca4:	00009758 	andeq	r9, r0, r8, asr r7

00008ca8 <_cstart>:
    8ca8:	e92d4010 	push	{r4, lr}
    8cac:	eb00000c 	bl	8ce4 <custom_loader>
    8cb0:	e59f3024 	ldr	r3, [pc, #36]	; 8cdc <_cstart+0x34>
    8cb4:	e59f2024 	ldr	r2, [pc, #36]	; 8ce0 <_cstart+0x38>
    8cb8:	e1530002 	cmp	r3, r2
    8cbc:	33a02000 	movcc	r2, #0, 0
    8cc0:	34832004 	strcc	r2, [r3], #4
    8cc4:	3afffffa 	bcc	8cb4 <_cstart+0xc>
    8cc8:	eb00009e 	bl	8f48 <uart_init>
    8ccc:	e3a03001 	mov	r3, #1, 0
    8cd0:	ee0f3f1c 	mcr	15, 0, r3, cr15, cr12, {0}
    8cd4:	ebfffd04 	bl	80ec <notmain>
    8cd8:	ebffffe7 	bl	8c7c <clean_reboot>
    8cdc:	00009974 	andeq	r9, r0, r4, ror r9
    8ce0:	00009d78 	andeq	r9, r0, r8, ror sp

00008ce4 <custom_loader>:
    8ce4:	e12fff1e 	bx	lr

00008ce8 <at_user_level>:
    8ce8:	e10f0000 	mrs	r0, CPSR
    8cec:	e200001f 	and	r0, r0, #31, 0
    8cf0:	e3500010 	cmp	r0, #16, 0
    8cf4:	13a00000 	movne	r0, #0, 0
    8cf8:	03a00001 	moveq	r0, #1, 0
    8cfc:	e12fff1e 	bx	lr

00008d00 <set_user_level>:
    8d00:	e10f3000 	mrs	r3, CPSR
    8d04:	e3c3301f 	bic	r3, r3, #31, 0
    8d08:	e3833010 	orr	r3, r3, #16, 0
    8d0c:	e129f003 	msr	CPSR_fc, r3
    8d10:	e12fff1e 	bx	lr

00008d14 <rpi_reboot>:
    8d14:	e92d4010 	push	{r4, lr}
    8d18:	ebfffff2 	bl	8ce8 <at_user_level>
    8d1c:	e3500000 	cmp	r0, #0, 0
    8d20:	1a00000a 	bne	8d50 <rpi_reboot+0x3c>
    8d24:	eb000219 	bl	9590 <reboot_callout>
    8d28:	eb0000e4 	bl	90c0 <uart_flush_tx>
    8d2c:	e3a0000a 	mov	r0, #10, 0
    8d30:	eb000021 	bl	8dbc <delay_ms>
    8d34:	e59f101c 	ldr	r1, [pc, #28]	; 8d58 <rpi_reboot+0x44>
    8d38:	e59f001c 	ldr	r0, [pc, #28]	; 8d5c <rpi_reboot+0x48>
    8d3c:	ebfffcb8 	bl	8024 <PUT32>
    8d40:	e59f1018 	ldr	r1, [pc, #24]	; 8d60 <rpi_reboot+0x4c>
    8d44:	e59f0018 	ldr	r0, [pc, #24]	; 8d64 <rpi_reboot+0x50>
    8d48:	ebfffcb5 	bl	8024 <PUT32>
    8d4c:	eafffffe 	b	8d4c <rpi_reboot+0x38>
    8d50:	ebffffea 	bl	8d00 <set_user_level>
    8d54:	eafffff2 	b	8d24 <rpi_reboot+0x10>
    8d58:	5a000001 	bpl	8d64 <rpi_reboot+0x50>
    8d5c:	20100024 	andscs	r0, r0, r4, lsr #32
    8d60:	5a000020 	bpl	8de8 <delay_sec+0x14>
    8d64:	2010001c 	andscs	r0, r0, ip, lsl r0

00008d68 <timer_get_usec_raw>:
    8d68:	e92d4010 	push	{r4, lr}
    8d6c:	e59f0004 	ldr	r0, [pc, #4]	; 8d78 <timer_get_usec_raw+0x10>
    8d70:	ebfffcad 	bl	802c <GET32>
    8d74:	e8bd8010 	pop	{r4, pc}
    8d78:	20003004 	andcs	r3, r0, r4

00008d7c <timer_get_usec>:
    8d7c:	e92d4010 	push	{r4, lr}
    8d80:	eb000203 	bl	9594 <dev_barrier>
    8d84:	ebfffff7 	bl	8d68 <timer_get_usec_raw>
    8d88:	e1a04000 	mov	r4, r0
    8d8c:	eb000200 	bl	9594 <dev_barrier>
    8d90:	e1a00004 	mov	r0, r4
    8d94:	e8bd8010 	pop	{r4, pc}

00008d98 <delay_us>:
    8d98:	e92d4070 	push	{r4, r5, r6, lr}
    8d9c:	e1a05000 	mov	r5, r0
    8da0:	ebfffff5 	bl	8d7c <timer_get_usec>
    8da4:	e1a04000 	mov	r4, r0
    8da8:	ebfffff3 	bl	8d7c <timer_get_usec>
    8dac:	e0400004 	sub	r0, r0, r4
    8db0:	e1500005 	cmp	r0, r5
    8db4:	3afffffb 	bcc	8da8 <delay_us+0x10>
    8db8:	e8bd8070 	pop	{r4, r5, r6, pc}

00008dbc <delay_ms>:
    8dbc:	e92d4010 	push	{r4, lr}
    8dc0:	e0603280 	rsb	r3, r0, r0, lsl #5
    8dc4:	e0800103 	add	r0, r0, r3, lsl #2
    8dc8:	e1a00180 	lsl	r0, r0, #3
    8dcc:	ebfffff1 	bl	8d98 <delay_us>
    8dd0:	e8bd8010 	pop	{r4, pc}

00008dd4 <delay_sec>:
    8dd4:	e92d4010 	push	{r4, lr}
    8dd8:	e0603280 	rsb	r3, r0, r0, lsl #5
    8ddc:	e0800103 	add	r0, r0, r3, lsl #2
    8de0:	e1a00180 	lsl	r0, r0, #3
    8de4:	ebfffff4 	bl	8dbc <delay_ms>
    8de8:	e8bd8010 	pop	{r4, pc}

00008dec <gpio_set_function>:
    8dec:	e350001f 	cmp	r0, #31, 0
    8df0:	812fff1e 	bxhi	lr
    8df4:	e92d4070 	push	{r4, r5, r6, lr}
    8df8:	e1a05001 	mov	r5, r1
    8dfc:	e3d13007 	bics	r3, r1, #7, 0
    8e00:	18bd8070 	popne	{r4, r5, r6, pc}
    8e04:	e59f3040 	ldr	r3, [pc, #64]	; 8e4c <gpio_set_function+0x60>
    8e08:	e0832093 	umull	r2, r3, r3, r0
    8e0c:	e1a031a3 	lsr	r3, r3, #3
    8e10:	e1a02003 	mov	r2, r3
    8e14:	e0833103 	add	r3, r3, r3, lsl #2
    8e18:	e0403083 	sub	r3, r0, r3, lsl #1
    8e1c:	e0834083 	add	r4, r3, r3, lsl #1
    8e20:	e2820302 	add	r0, r2, #134217728	; 0x8000000
    8e24:	e2800702 	add	r0, r0, #524288	; 0x80000
    8e28:	e1a06100 	lsl	r6, r0, #2
    8e2c:	e1a00006 	mov	r0, r6
    8e30:	ebfffc7d 	bl	802c <GET32>
    8e34:	e3a01007 	mov	r1, #7, 0
    8e38:	e1c01411 	bic	r1, r0, r1, lsl r4
    8e3c:	e1811415 	orr	r1, r1, r5, lsl r4
    8e40:	e1a00006 	mov	r0, r6
    8e44:	ebfffc76 	bl	8024 <PUT32>
    8e48:	e8bd8070 	pop	{r4, r5, r6, pc}
    8e4c:	cccccccd 	stclgt	12, cr12, [ip], {205}	; 0xcd

00008e50 <gpio_set_output>:
    8e50:	e92d4010 	push	{r4, lr}
    8e54:	e3a01001 	mov	r1, #1, 0
    8e58:	ebffffe3 	bl	8dec <gpio_set_function>
    8e5c:	e8bd8010 	pop	{r4, pc}

00008e60 <gpio_set_on>:
    8e60:	e350001f 	cmp	r0, #31, 0
    8e64:	812fff1e 	bxhi	lr
    8e68:	e92d4010 	push	{r4, lr}
    8e6c:	e3a01001 	mov	r1, #1, 0
    8e70:	e1a01011 	lsl	r1, r1, r0
    8e74:	e59f0004 	ldr	r0, [pc, #4]	; 8e80 <gpio_set_on+0x20>
    8e78:	ebfffc69 	bl	8024 <PUT32>
    8e7c:	e8bd8010 	pop	{r4, pc}
    8e80:	2020001c 	eorcs	r0, r0, ip, lsl r0

00008e84 <gpio_set_off>:
    8e84:	e350001f 	cmp	r0, #31, 0
    8e88:	812fff1e 	bxhi	lr
    8e8c:	e92d4010 	push	{r4, lr}
    8e90:	e3a01001 	mov	r1, #1, 0
    8e94:	e1a01011 	lsl	r1, r1, r0
    8e98:	e59f0004 	ldr	r0, [pc, #4]	; 8ea4 <gpio_set_off+0x20>
    8e9c:	ebfffc60 	bl	8024 <PUT32>
    8ea0:	e8bd8010 	pop	{r4, pc}
    8ea4:	20200028 	eorcs	r0, r0, r8, lsr #32

00008ea8 <gpio_set_input>:
    8ea8:	e92d4010 	push	{r4, lr}
    8eac:	e3a01000 	mov	r1, #0, 0
    8eb0:	ebffffcd 	bl	8dec <gpio_set_function>
    8eb4:	e8bd8010 	pop	{r4, pc}

00008eb8 <gpio_write>:
    8eb8:	e92d4010 	push	{r4, lr}
    8ebc:	e3510000 	cmp	r1, #0, 0
    8ec0:	0a000001 	beq	8ecc <gpio_write+0x14>
    8ec4:	ebffffe5 	bl	8e60 <gpio_set_on>
    8ec8:	e8bd8010 	pop	{r4, pc}
    8ecc:	ebffffec 	bl	8e84 <gpio_set_off>
    8ed0:	e8bd8010 	pop	{r4, pc}

00008ed4 <gpio_read>:
    8ed4:	e350001f 	cmp	r0, #31, 0
    8ed8:	8a000007 	bhi	8efc <gpio_read+0x28>
    8edc:	e92d4010 	push	{r4, lr}
    8ee0:	e200401f 	and	r4, r0, #31, 0
    8ee4:	e59f3018 	ldr	r3, [pc, #24]	; 8f04 <gpio_read+0x30>
    8ee8:	e08302a0 	add	r0, r3, r0, lsr #5
    8eec:	ebfffc4e 	bl	802c <GET32>
    8ef0:	e1a00430 	lsr	r0, r0, r4
    8ef4:	e2000001 	and	r0, r0, #1, 0
    8ef8:	e8bd8010 	pop	{r4, pc}
    8efc:	e3e00000 	mvn	r0, #0, 0
    8f00:	e12fff1e 	bx	lr
    8f04:	20200034 	eorcs	r0, r0, r4, lsr r0

00008f08 <and_in32>:
    8f08:	e92d4070 	push	{r4, r5, r6, lr}
    8f0c:	e1a04000 	mov	r4, r0
    8f10:	e1a05001 	mov	r5, r1
    8f14:	ebfffc44 	bl	802c <GET32>
    8f18:	e0001005 	and	r1, r0, r5
    8f1c:	e1a00004 	mov	r0, r4
    8f20:	ebfffc3f 	bl	8024 <PUT32>
    8f24:	e8bd8070 	pop	{r4, r5, r6, pc}

00008f28 <or_in32>:
    8f28:	e92d4070 	push	{r4, r5, r6, lr}
    8f2c:	e1a04000 	mov	r4, r0
    8f30:	e1a05001 	mov	r5, r1
    8f34:	ebfffc3c 	bl	802c <GET32>
    8f38:	e1801005 	orr	r1, r0, r5
    8f3c:	e1a00004 	mov	r0, r4
    8f40:	ebfffc37 	bl	8024 <PUT32>
    8f44:	e8bd8070 	pop	{r4, r5, r6, pc}

00008f48 <uart_init>:
    8f48:	e92d4010 	push	{r4, lr}
    8f4c:	e3a01002 	mov	r1, #2, 0
    8f50:	e3a0000e 	mov	r0, #14, 0
    8f54:	ebffffa4 	bl	8dec <gpio_set_function>
    8f58:	e3a01002 	mov	r1, #2, 0
    8f5c:	e3a0000f 	mov	r0, #15, 0
    8f60:	ebffffa1 	bl	8dec <gpio_set_function>
    8f64:	eb00018a 	bl	9594 <dev_barrier>
    8f68:	e3a01001 	mov	r1, #1, 0
    8f6c:	e59f0064 	ldr	r0, [pc, #100]	; 8fd8 <uart_init+0x90>
    8f70:	ebffffec 	bl	8f28 <or_in32>
    8f74:	eb000186 	bl	9594 <dev_barrier>
    8f78:	e59f405c 	ldr	r4, [pc, #92]	; 8fdc <uart_init+0x94>
    8f7c:	e3a01000 	mov	r1, #0, 0
    8f80:	e1a00004 	mov	r0, r4
    8f84:	ebfffc26 	bl	8024 <PUT32>
    8f88:	e3a01000 	mov	r1, #0, 0
    8f8c:	e59f004c 	ldr	r0, [pc, #76]	; 8fe0 <uart_init+0x98>
    8f90:	ebfffc23 	bl	8024 <PUT32>
    8f94:	e3a01003 	mov	r1, #3, 0
    8f98:	e59f0044 	ldr	r0, [pc, #68]	; 8fe4 <uart_init+0x9c>
    8f9c:	ebfffc20 	bl	8024 <PUT32>
    8fa0:	e3a01000 	mov	r1, #0, 0
    8fa4:	e59f003c 	ldr	r0, [pc, #60]	; 8fe8 <uart_init+0xa0>
    8fa8:	ebfffc1d 	bl	8024 <PUT32>
    8fac:	e3a010c7 	mov	r1, #199, 0	; 0xc7
    8fb0:	e59f0034 	ldr	r0, [pc, #52]	; 8fec <uart_init+0xa4>
    8fb4:	ebfffc1a 	bl	8024 <PUT32>
    8fb8:	e59f1030 	ldr	r1, [pc, #48]	; 8ff0 <uart_init+0xa8>
    8fbc:	e59f0030 	ldr	r0, [pc, #48]	; 8ff4 <uart_init+0xac>
    8fc0:	ebfffc17 	bl	8024 <PUT32>
    8fc4:	e3a01003 	mov	r1, #3, 0
    8fc8:	e1a00004 	mov	r0, r4
    8fcc:	ebfffc14 	bl	8024 <PUT32>
    8fd0:	eb00016f 	bl	9594 <dev_barrier>
    8fd4:	e8bd8010 	pop	{r4, pc}
    8fd8:	20215004 	eorcs	r5, r1, r4
    8fdc:	20215060 	eorcs	r5, r1, r0, rrx
    8fe0:	20215044 	eorcs	r5, r1, r4, asr #32
    8fe4:	2021504c 	eorcs	r5, r1, ip, asr #32
    8fe8:	20215050 	eorcs	r5, r1, r0, asr r0
    8fec:	20215048 	eorcs	r5, r1, r8, asr #32
    8ff0:	0000010e 	andeq	r0, r0, lr, lsl #2
    8ff4:	20215068 	eorcs	r5, r1, r8, rrx

00008ff8 <uart_can_getc>:
    8ff8:	e92d4010 	push	{r4, lr}
    8ffc:	e59f0008 	ldr	r0, [pc, #8]	; 900c <uart_can_getc+0x14>
    9000:	ebfffc09 	bl	802c <GET32>
    9004:	e2000001 	and	r0, r0, #1, 0
    9008:	e8bd8010 	pop	{r4, pc}
    900c:	20215064 	eorcs	r5, r1, r4, rrx

00009010 <uart_can_putc>:
    9010:	e92d4010 	push	{r4, lr}
    9014:	e59f0010 	ldr	r0, [pc, #16]	; 902c <uart_can_putc+0x1c>
    9018:	ebfffc03 	bl	802c <GET32>
    901c:	e3100002 	tst	r0, #2, 0
    9020:	13a00001 	movne	r0, #1, 0
    9024:	03a00000 	moveq	r0, #0, 0
    9028:	e8bd8010 	pop	{r4, pc}
    902c:	20215064 	eorcs	r5, r1, r4, rrx

00009030 <uart_getc>:
    9030:	e92d4010 	push	{r4, lr}
    9034:	eb000156 	bl	9594 <dev_barrier>
    9038:	ebffffee 	bl	8ff8 <uart_can_getc>
    903c:	e3500000 	cmp	r0, #0, 0
    9040:	0afffffc 	beq	9038 <uart_getc+0x8>
    9044:	e59f0010 	ldr	r0, [pc, #16]	; 905c <uart_getc+0x2c>
    9048:	ebfffbf7 	bl	802c <GET32>
    904c:	e6ef4070 	uxtb	r4, r0
    9050:	eb00014f 	bl	9594 <dev_barrier>
    9054:	e1a00004 	mov	r0, r4
    9058:	e8bd8010 	pop	{r4, pc}
    905c:	20215040 	eorcs	r5, r1, r0, asr #32

00009060 <uart_putc>:
    9060:	e92d4010 	push	{r4, lr}
    9064:	e1a04000 	mov	r4, r0
    9068:	eb000149 	bl	9594 <dev_barrier>
    906c:	ebffffe7 	bl	9010 <uart_can_putc>
    9070:	e3500000 	cmp	r0, #0, 0
    9074:	0afffffc 	beq	906c <uart_putc+0xc>
    9078:	e6ef1074 	uxtb	r1, r4
    907c:	e59f0008 	ldr	r0, [pc, #8]	; 908c <uart_putc+0x2c>
    9080:	ebfffbe7 	bl	8024 <PUT32>
    9084:	eb000142 	bl	9594 <dev_barrier>
    9088:	e8bd8010 	pop	{r4, pc}
    908c:	20215040 	eorcs	r5, r1, r0, asr #32

00009090 <uart_has_data>:
    9090:	e92d4010 	push	{r4, lr}
    9094:	eb00013e 	bl	9594 <dev_barrier>
    9098:	ebffffd6 	bl	8ff8 <uart_can_getc>
    909c:	e8bd8010 	pop	{r4, pc}

000090a0 <uart_tx_is_empty>:
    90a0:	e92d4010 	push	{r4, lr}
    90a4:	eb00013a 	bl	9594 <dev_barrier>
    90a8:	e59f000c 	ldr	r0, [pc, #12]	; 90bc <uart_tx_is_empty+0x1c>
    90ac:	ebfffbde 	bl	802c <GET32>
    90b0:	e1a004a0 	lsr	r0, r0, #9
    90b4:	e2000001 	and	r0, r0, #1, 0
    90b8:	e8bd8010 	pop	{r4, pc}
    90bc:	20215064 	eorcs	r5, r1, r4, rrx

000090c0 <uart_flush_tx>:
    90c0:	e92d4010 	push	{r4, lr}
    90c4:	ebfffff5 	bl	90a0 <uart_tx_is_empty>
    90c8:	e3500000 	cmp	r0, #0, 0
    90cc:	0afffffc 	beq	90c4 <uart_flush_tx+0x4>
    90d0:	e8bd8010 	pop	{r4, pc}

000090d4 <uart_disable>:
    90d4:	e92d4010 	push	{r4, lr}
    90d8:	ebfffff8 	bl	90c0 <uart_flush_tx>
    90dc:	eb00012c 	bl	9594 <dev_barrier>
    90e0:	e3e01001 	mvn	r1, #1, 0
    90e4:	e59f0008 	ldr	r0, [pc, #8]	; 90f4 <uart_disable+0x20>
    90e8:	ebffff86 	bl	8f08 <and_in32>
    90ec:	eb000128 	bl	9594 <dev_barrier>
    90f0:	e8bd8010 	pop	{r4, pc}
    90f4:	20215004 	eorcs	r5, r1, r4

000090f8 <kmalloc_heap_end>:
    90f8:	e59f3004 	ldr	r3, [pc, #4]	; 9104 <kmalloc_heap_end+0xc>
    90fc:	e5930000 	ldr	r0, [r3]
    9100:	e12fff1e 	bx	lr
    9104:	00009964 	andeq	r9, r0, r4, ror #18

00009108 <kmalloc_heap_start>:
    9108:	e59f3004 	ldr	r3, [pc, #4]	; 9114 <kmalloc_heap_start+0xc>
    910c:	e5930004 	ldr	r0, [r3, #4]
    9110:	e12fff1e 	bx	lr
    9114:	00009964 	andeq	r9, r0, r4, ror #18

00009118 <kmalloc_heap_ptr>:
    9118:	e59f3004 	ldr	r3, [pc, #4]	; 9124 <kmalloc_heap_ptr+0xc>
    911c:	e5930008 	ldr	r0, [r3, #8]
    9120:	e12fff1e 	bx	lr
    9124:	00009964 	andeq	r9, r0, r4, ror #18

00009128 <kmalloc_init_set_start>:
    9128:	e52de004 	push	{lr}		; (str lr, [sp, #-4]!)
    912c:	e24dd00c 	sub	sp, sp, #12, 0
    9130:	e3510000 	cmp	r1, #0, 0
    9134:	0a00000a 	beq	9164 <kmalloc_init_set_start+0x3c>
    9138:	e59f306c 	ldr	r3, [pc, #108]	; 91ac <kmalloc_init_set_start+0x84>
    913c:	e5933008 	ldr	r3, [r3, #8]
    9140:	e1530000 	cmp	r3, r0
    9144:	8a00000e 	bhi	9184 <kmalloc_init_set_start+0x5c>
    9148:	e59f305c 	ldr	r3, [pc, #92]	; 91ac <kmalloc_init_set_start+0x84>
    914c:	e5830008 	str	r0, [r3, #8]
    9150:	e5830004 	str	r0, [r3, #4]
    9154:	e0800001 	add	r0, r0, r1
    9158:	e5830000 	str	r0, [r3]
    915c:	e28dd00c 	add	sp, sp, #12, 0
    9160:	e49df004 	pop	{pc}		; (ldr pc, [sp], #4)
    9164:	e59f3044 	ldr	r3, [pc, #68]	; 91b0 <kmalloc_init_set_start+0x88>
    9168:	e58d3000 	str	r3, [sp]
    916c:	e3a03030 	mov	r3, #48, 0	; 0x30
    9170:	e59f203c 	ldr	r2, [pc, #60]	; 91b4 <kmalloc_init_set_start+0x8c>
    9174:	e59f103c 	ldr	r1, [pc, #60]	; 91b8 <kmalloc_init_set_start+0x90>
    9178:	e59f003c 	ldr	r0, [pc, #60]	; 91bc <kmalloc_init_set_start+0x94>
    917c:	ebfffcc3 	bl	8490 <printk>
    9180:	ebfffebd 	bl	8c7c <clean_reboot>
    9184:	e59f3020 	ldr	r3, [pc, #32]	; 91ac <kmalloc_init_set_start+0x84>
    9188:	e5933000 	ldr	r3, [r3]
    918c:	e58d3004 	str	r3, [sp, #4]
    9190:	e58d0000 	str	r0, [sp]
    9194:	e3a03034 	mov	r3, #52, 0	; 0x34
    9198:	e59f2014 	ldr	r2, [pc, #20]	; 91b4 <kmalloc_init_set_start+0x8c>
    919c:	e59f1014 	ldr	r1, [pc, #20]	; 91b8 <kmalloc_init_set_start+0x90>
    91a0:	e59f0018 	ldr	r0, [pc, #24]	; 91c0 <kmalloc_init_set_start+0x98>
    91a4:	ebfffcb9 	bl	8490 <printk>
    91a8:	ebfffeb3 	bl	8c7c <clean_reboot>
    91ac:	00009964 	andeq	r9, r0, r4, ror #18
    91b0:	00009770 	andeq	r9, r0, r0, ror r7
    91b4:	000098fc 	strdeq	r9, [r0], -ip
    91b8:	00009764 	andeq	r9, r0, r4, ror #14
    91bc:	000095f0 	strdeq	r9, [r0], -r0
    91c0:	0000977c 	andeq	r9, r0, ip, ror r7

000091c4 <kmalloc_init>:
    91c4:	e92d4010 	push	{r4, lr}
    91c8:	e59f303c 	ldr	r3, [pc, #60]	; 920c <kmalloc_init+0x48>
    91cc:	e5933000 	ldr	r3, [r3]
    91d0:	e3530000 	cmp	r3, #0, 0
    91d4:	1a000006 	bne	91f4 <kmalloc_init+0x30>
    91d8:	e59f302c 	ldr	r3, [pc, #44]	; 920c <kmalloc_init+0x48>
    91dc:	e3a02001 	mov	r2, #1, 0
    91e0:	e5832000 	str	r2, [r3]
    91e4:	e3a01201 	mov	r1, #268435456	; 0x10000000
    91e8:	e3a00601 	mov	r0, #1048576	; 0x100000
    91ec:	ebffffcd 	bl	9128 <kmalloc_init_set_start>
    91f0:	e8bd8010 	pop	{r4, pc}
    91f4:	e3a03040 	mov	r3, #64, 0	; 0x40
    91f8:	e59f2010 	ldr	r2, [pc, #16]	; 9210 <kmalloc_init+0x4c>
    91fc:	e59f1010 	ldr	r1, [pc, #16]	; 9214 <kmalloc_init+0x50>
    9200:	e59f0010 	ldr	r0, [pc, #16]	; 9218 <kmalloc_init+0x54>
    9204:	ebfffca1 	bl	8490 <printk>
    9208:	ebfffe9b 	bl	8c7c <clean_reboot>
    920c:	00009d74 	andeq	r9, r0, r4, ror sp
    9210:	00009914 	andeq	r9, r0, r4, lsl r9
    9214:	00009764 	andeq	r9, r0, r4, ror #14
    9218:	000097c0 	andeq	r9, r0, r0, asr #15

0000921c <kmalloc_notzero>:
    921c:	e52de004 	push	{lr}		; (str lr, [sp, #-4]!)
    9220:	e24dd00c 	sub	sp, sp, #12, 0
    9224:	e3500000 	cmp	r0, #0, 0
    9228:	0a00000a 	beq	9258 <kmalloc_notzero+0x3c>
    922c:	e2800007 	add	r0, r0, #7, 0
    9230:	e3c03007 	bic	r3, r0, #7, 0
    9234:	e59f2060 	ldr	r2, [pc, #96]	; 929c <kmalloc_notzero+0x80>
    9238:	e5920008 	ldr	r0, [r2, #8]
    923c:	e0801003 	add	r1, r0, r3
    9240:	e5821008 	str	r1, [r2, #8]
    9244:	e5922000 	ldr	r2, [r2]
    9248:	e1510002 	cmp	r1, r2
    924c:	8a000009 	bhi	9278 <kmalloc_notzero+0x5c>
    9250:	e28dd00c 	add	sp, sp, #12, 0
    9254:	e49df004 	pop	{pc}		; (ldr pc, [sp], #4)
    9258:	e59f3040 	ldr	r3, [pc, #64]	; 92a0 <kmalloc_notzero+0x84>
    925c:	e58d3000 	str	r3, [sp]
    9260:	e3a03048 	mov	r3, #72, 0	; 0x48
    9264:	e59f2038 	ldr	r2, [pc, #56]	; 92a4 <kmalloc_notzero+0x88>
    9268:	e59f1038 	ldr	r1, [pc, #56]	; 92a8 <kmalloc_notzero+0x8c>
    926c:	e59f0038 	ldr	r0, [pc, #56]	; 92ac <kmalloc_notzero+0x90>
    9270:	ebfffc86 	bl	8490 <printk>
    9274:	ebfffe80 	bl	8c7c <clean_reboot>
    9278:	e0422000 	sub	r2, r2, r0
    927c:	e58d2004 	str	r2, [sp, #4]
    9280:	e58d3000 	str	r3, [sp]
    9284:	e3a0304e 	mov	r3, #78, 0	; 0x4e
    9288:	e59f2014 	ldr	r2, [pc, #20]	; 92a4 <kmalloc_notzero+0x88>
    928c:	e59f1014 	ldr	r1, [pc, #20]	; 92a8 <kmalloc_notzero+0x8c>
    9290:	e59f0018 	ldr	r0, [pc, #24]	; 92b0 <kmalloc_notzero+0x94>
    9294:	ebfffc7d 	bl	8490 <printk>
    9298:	ebfffe77 	bl	8c7c <clean_reboot>
    929c:	00009964 	andeq	r9, r0, r4, ror #18
    92a0:	00009774 	andeq	r9, r0, r4, ror r7
    92a4:	00009924 	andeq	r9, r0, r4, lsr #18
    92a8:	00009764 	andeq	r9, r0, r4, ror #14
    92ac:	000095f0 	strdeq	r9, [r0], -r0
    92b0:	000097f0 	strdeq	r9, [r0], -r0

000092b4 <kmalloc>:
    92b4:	e92d4030 	push	{r4, r5, lr}
    92b8:	e24dd00c 	sub	sp, sp, #12, 0
    92bc:	e2504000 	subs	r4, r0, #0, 0
    92c0:	0a000008 	beq	92e8 <kmalloc+0x34>
    92c4:	e1a00004 	mov	r0, r4
    92c8:	ebffffd3 	bl	921c <kmalloc_notzero>
    92cc:	e1a05000 	mov	r5, r0
    92d0:	e1a02004 	mov	r2, r4
    92d4:	e3a01000 	mov	r1, #0, 0
    92d8:	ebfffc66 	bl	8478 <memset>
    92dc:	e1a00005 	mov	r0, r5
    92e0:	e28dd00c 	add	sp, sp, #12, 0
    92e4:	e8bd8030 	pop	{r4, r5, pc}
    92e8:	e59f3018 	ldr	r3, [pc, #24]	; 9308 <kmalloc+0x54>
    92ec:	e58d3000 	str	r3, [sp]
    92f0:	e3a03054 	mov	r3, #84, 0	; 0x54
    92f4:	e59f2010 	ldr	r2, [pc, #16]	; 930c <kmalloc+0x58>
    92f8:	e59f1010 	ldr	r1, [pc, #16]	; 9310 <kmalloc+0x5c>
    92fc:	e59f0010 	ldr	r0, [pc, #16]	; 9314 <kmalloc+0x60>
    9300:	ebfffc62 	bl	8490 <printk>
    9304:	ebfffe5c 	bl	8c7c <clean_reboot>
    9308:	00009774 	andeq	r9, r0, r4, ror r7
    930c:	00009934 	andeq	r9, r0, r4, lsr r9
    9310:	00009764 	andeq	r9, r0, r4, ror #14
    9314:	000095f0 	strdeq	r9, [r0], -r0

00009318 <kmalloc_aligned>:
    9318:	e52de004 	push	{lr}		; (str lr, [sp, #-4]!)
    931c:	e24dd00c 	sub	sp, sp, #12, 0
    9320:	e3500000 	cmp	r0, #0, 0
    9324:	0a000014 	beq	937c <kmalloc_aligned+0x64>
    9328:	e2613000 	rsb	r3, r1, #0, 0
    932c:	e1d13003 	bics	r3, r1, r3
    9330:	1a000019 	bne	939c <kmalloc_aligned+0x84>
    9334:	e3510008 	cmp	r1, #8, 0
    9338:	33a01008 	movcc	r1, #8, 0
    933c:	e59f30c0 	ldr	r3, [pc, #192]	; 9404 <kmalloc_aligned+0xec>
    9340:	e5932008 	ldr	r2, [r3, #8]
    9344:	e2613000 	rsb	r3, r1, #0, 0
    9348:	e1d1c003 	bics	ip, r1, r3
    934c:	1a00001b 	bne	93c0 <kmalloc_aligned+0xa8>
    9350:	e0822001 	add	r2, r2, r1
    9354:	e2422001 	sub	r2, r2, #1, 0
    9358:	e0033002 	and	r3, r3, r2
    935c:	e2411001 	sub	r1, r1, #1, 0
    9360:	e1110003 	tst	r1, r3
    9364:	1a00001d 	bne	93e0 <kmalloc_aligned+0xc8>
    9368:	e59f2094 	ldr	r2, [pc, #148]	; 9404 <kmalloc_aligned+0xec>
    936c:	e5823008 	str	r3, [r2, #8]
    9370:	ebffffcf 	bl	92b4 <kmalloc>
    9374:	e28dd00c 	add	sp, sp, #12, 0
    9378:	e49df004 	pop	{pc}		; (ldr pc, [sp], #4)
    937c:	e59f3084 	ldr	r3, [pc, #132]	; 9408 <kmalloc_aligned+0xf0>
    9380:	e58d3000 	str	r3, [sp]
    9384:	e3a0305f 	mov	r3, #95, 0	; 0x5f
    9388:	e59f207c 	ldr	r2, [pc, #124]	; 940c <kmalloc_aligned+0xf4>
    938c:	e59f107c 	ldr	r1, [pc, #124]	; 9410 <kmalloc_aligned+0xf8>
    9390:	e59f007c 	ldr	r0, [pc, #124]	; 9414 <kmalloc_aligned+0xfc>
    9394:	ebfffc3d 	bl	8490 <printk>
    9398:	ebfffe37 	bl	8c7c <clean_reboot>
    939c:	eb000046 	bl	94bc <rpi_reset_putc>
    93a0:	e59f3070 	ldr	r3, [pc, #112]	; 9418 <kmalloc_aligned+0x100>
    93a4:	e58d3000 	str	r3, [sp]
    93a8:	e3a03060 	mov	r3, #96, 0	; 0x60
    93ac:	e59f2058 	ldr	r2, [pc, #88]	; 940c <kmalloc_aligned+0xf4>
    93b0:	e59f1058 	ldr	r1, [pc, #88]	; 9410 <kmalloc_aligned+0xf8>
    93b4:	e59f0060 	ldr	r0, [pc, #96]	; 941c <kmalloc_aligned+0x104>
    93b8:	ebfffc34 	bl	8490 <printk>
    93bc:	ebfffe2e 	bl	8c7c <clean_reboot>
    93c0:	e59f3058 	ldr	r3, [pc, #88]	; 9420 <kmalloc_aligned+0x108>
    93c4:	e58d3000 	str	r3, [sp]
    93c8:	e3a03011 	mov	r3, #17, 0
    93cc:	e59f2050 	ldr	r2, [pc, #80]	; 9424 <kmalloc_aligned+0x10c>
    93d0:	e59f1038 	ldr	r1, [pc, #56]	; 9410 <kmalloc_aligned+0xf8>
    93d4:	e59f0038 	ldr	r0, [pc, #56]	; 9414 <kmalloc_aligned+0xfc>
    93d8:	ebfffc2c 	bl	8490 <printk>
    93dc:	ebfffe26 	bl	8c7c <clean_reboot>
    93e0:	eb000035 	bl	94bc <rpi_reset_putc>
    93e4:	e59f303c 	ldr	r3, [pc, #60]	; 9428 <kmalloc_aligned+0x110>
    93e8:	e58d3000 	str	r3, [sp]
    93ec:	e3a03068 	mov	r3, #104, 0	; 0x68
    93f0:	e59f2014 	ldr	r2, [pc, #20]	; 940c <kmalloc_aligned+0xf4>
    93f4:	e59f1014 	ldr	r1, [pc, #20]	; 9410 <kmalloc_aligned+0xf8>
    93f8:	e59f002c 	ldr	r0, [pc, #44]	; 942c <kmalloc_aligned+0x114>
    93fc:	ebfffc23 	bl	8490 <printk>
    9400:	ebfffe1d 	bl	8c7c <clean_reboot>
    9404:	00009964 	andeq	r9, r0, r4, ror #18
    9408:	00009774 	andeq	r9, r0, r4, ror r7
    940c:	0000993c 	andeq	r9, r0, ip, lsr r9
    9410:	00009764 	andeq	r9, r0, r4, ror #14
    9414:	000095f0 	strdeq	r9, [r0], -r0
    9418:	00009864 	andeq	r9, r0, r4, ror #16
    941c:	00009830 	andeq	r9, r0, r0, lsr r8
    9420:	00009878 	andeq	r9, r0, r8, ror r8
    9424:	0000994c 	andeq	r9, r0, ip, asr #18
    9428:	000098b0 			; <UNDEFINED> instruction: 0x000098b0
    942c:	00009884 	andeq	r9, r0, r4, lsl #17

00009430 <kfree>:
    9430:	e12fff1e 	bx	lr

00009434 <kfree_all>:
    9434:	e59f3008 	ldr	r3, [pc, #8]	; 9444 <kfree_all+0x10>
    9438:	e5932004 	ldr	r2, [r3, #4]
    943c:	e5832008 	str	r2, [r3, #8]
    9440:	e12fff1e 	bx	lr
    9444:	00009964 	andeq	r9, r0, r4, ror #18

00009448 <kfree_pop>:
    9448:	e59f3048 	ldr	r3, [pc, #72]	; 9498 <kfree_pop+0x50>
    944c:	e5933004 	ldr	r3, [r3, #4]
    9450:	e1530000 	cmp	r3, r0
    9454:	8a000006 	bhi	9474 <kfree_pop+0x2c>
    9458:	e59f3038 	ldr	r3, [pc, #56]	; 9498 <kfree_pop+0x50>
    945c:	e5933000 	ldr	r3, [r3]
    9460:	e1530000 	cmp	r3, r0
    9464:	3a000002 	bcc	9474 <kfree_pop+0x2c>
    9468:	e59f3028 	ldr	r3, [pc, #40]	; 9498 <kfree_pop+0x50>
    946c:	e5830008 	str	r0, [r3, #8]
    9470:	e12fff1e 	bx	lr
    9474:	e52de004 	push	{lr}		; (str lr, [sp, #-4]!)
    9478:	e24dd00c 	sub	sp, sp, #12, 0
    947c:	e58d0000 	str	r0, [sp]
    9480:	e3a03077 	mov	r3, #119, 0	; 0x77
    9484:	e59f2010 	ldr	r2, [pc, #16]	; 949c <kfree_pop+0x54>
    9488:	e59f1010 	ldr	r1, [pc, #16]	; 94a0 <kfree_pop+0x58>
    948c:	e59f0010 	ldr	r0, [pc, #16]	; 94a4 <kfree_pop+0x5c>
    9490:	ebfffbfe 	bl	8490 <printk>
    9494:	ebfffdf8 	bl	8c7c <clean_reboot>
    9498:	00009964 	andeq	r9, r0, r4, ror #18
    949c:	00009954 	andeq	r9, r0, r4, asr r9
    94a0:	00009764 	andeq	r9, r0, r4, ror #14
    94a4:	000098cc 	andeq	r9, r0, ip, asr #17

000094a8 <internal_putchar>:
    94a8:	e92d4010 	push	{r4, lr}
    94ac:	e1a04000 	mov	r4, r0
    94b0:	ebfffeea 	bl	9060 <uart_putc>
    94b4:	e1a00004 	mov	r0, r4
    94b8:	e8bd8010 	pop	{r4, pc}

000094bc <rpi_reset_putc>:
    94bc:	e59f3008 	ldr	r3, [pc, #8]	; 94cc <rpi_reset_putc+0x10>
    94c0:	e59f2008 	ldr	r2, [pc, #8]	; 94d0 <rpi_reset_putc+0x14>
    94c4:	e5832000 	str	r2, [r3]
    94c8:	e12fff1e 	bx	lr
    94cc:	00009970 	andeq	r9, r0, r0, ror r9
    94d0:	000094a8 	andeq	r9, r0, r8, lsr #9

000094d4 <rpi_set_putc>:
    94d4:	e59f3004 	ldr	r3, [pc, #4]	; 94e0 <rpi_set_putc+0xc>
    94d8:	e5830000 	str	r0, [r3]
    94dc:	e12fff1e 	bx	lr
    94e0:	00009970 	andeq	r9, r0, r0, ror r9

000094e4 <strcat>:
    94e4:	e1a02000 	mov	r2, r0
    94e8:	e1a03002 	mov	r3, r2
    94ec:	e2822001 	add	r2, r2, #1, 0
    94f0:	e5d3c000 	ldrb	ip, [r3]
    94f4:	e35c0000 	cmp	ip, #0, 0
    94f8:	1afffffa 	bne	94e8 <strcat+0x4>
    94fc:	e2433001 	sub	r3, r3, #1, 0
    9500:	e5d12000 	ldrb	r2, [r1]
    9504:	e2811001 	add	r1, r1, #1, 0
    9508:	e5e32001 	strb	r2, [r3, #1]!
    950c:	e3520000 	cmp	r2, #0, 0
    9510:	1afffffa 	bne	9500 <strcat+0x1c>
    9514:	e12fff1e 	bx	lr

00009518 <strcmp>:
    9518:	e5d03000 	ldrb	r3, [r0]
    951c:	e3530000 	cmp	r3, #0, 0
    9520:	0a000004 	beq	9538 <strcmp+0x20>
    9524:	e5d12000 	ldrb	r2, [r1]
    9528:	e1530002 	cmp	r3, r2
    952c:	02800001 	addeq	r0, r0, #1, 0
    9530:	02811001 	addeq	r1, r1, #1, 0
    9534:	0afffff7 	beq	9518 <strcmp>
    9538:	e5d10000 	ldrb	r0, [r1]
    953c:	e0430000 	sub	r0, r3, r0
    9540:	e12fff1e 	bx	lr

00009544 <strcpy>:
    9544:	e1a0c000 	mov	ip, r0
    9548:	e5d12000 	ldrb	r2, [r1]
    954c:	e2811001 	add	r1, r1, #1, 0
    9550:	e5cc2000 	strb	r2, [ip]
    9554:	e28cc001 	add	ip, ip, #1, 0
    9558:	e3520000 	cmp	r2, #0, 0
    955c:	1afffff9 	bne	9548 <strcpy+0x4>
    9560:	e12fff1e 	bx	lr

00009564 <strncmp>:
    9564:	e3520000 	cmp	r2, #0, 0
    9568:	e2422001 	sub	r2, r2, #1, 0
    956c:	0a000005 	beq	9588 <strncmp+0x24>
    9570:	e4d03001 	ldrb	r3, [r0], #1
    9574:	e4d1c001 	ldrb	ip, [r1], #1
    9578:	e153000c 	cmp	r3, ip
    957c:	0afffff8 	beq	9564 <strncmp>
    9580:	e043000c 	sub	r0, r3, ip
    9584:	e12fff1e 	bx	lr
    9588:	e3a00000 	mov	r0, #0, 0
    958c:	e12fff1e 	bx	lr

00009590 <reboot_callout>:
    9590:	e12fff1e 	bx	lr

00009594 <dev_barrier>:
    9594:	ea000002 	b	95a4 <dsb>

00009598 <dmb>:
    9598:	e3a00000 	mov	r0, #0, 0
    959c:	ee070fba 	mcr	15, 0, r0, cr7, cr10, {5}
    95a0:	e12fff1e 	bx	lr

000095a4 <dsb>:
    95a4:	ee070f9a 	mcr	15, 0, r0, cr7, cr10, {4}
    95a8:	e12fff1e 	bx	lr

000095ac <__code_end__>:
    95ac:	00000000 	andeq	r0, r0, r0

Disassembly of section .rodata:

000095b0 <__FUNCTION__.4008-0x184>:
    95b0:	74746573 	ldrbtvc	r6, [r4], #-1395	; 0xfffffa8d
    95b4:	20676e69 	rsbcs	r6, r7, r9, ror #28
    95b8:	65756c62 	ldrbvs	r6, [r5, #-3170]!	; 0xfffff39e
    95bc:	0000000a 	andeq	r0, r0, sl
    95c0:	20746573 	rsbscs	r6, r4, r3, ror r5
    95c4:	2066666f 	rsbcs	r6, r6, pc, ror #12
    95c8:	20646e61 	rsbcs	r6, r4, r1, ror #28
    95cc:	73756c66 	cmnvc	r5, #26112	; 0x6600
    95d0:	00000a68 	andeq	r0, r0, r8, ror #20
    95d4:	656e6f64 	strbvs	r6, [lr, #-3940]!	; 0xfffff09c
    95d8:	0000000a 	andeq	r0, r0, sl
    95dc:	696c2f2e 	stmdbvs	ip!, {r1, r2, r3, r5, r8, r9, sl, fp, sp}^
    95e0:	762f6362 	strtvc	r6, [pc], -r2, ror #6
    95e4:	72702d61 	rsbsvc	r2, r0, #6208	; 0x1840
    95e8:	6b746e69 	blvs	1d24f94 <__bss_end__+0x1d1b21c>
    95ec:	0000632e 	andeq	r6, r0, lr, lsr #6
    95f0:	494e4150 	stmdbmi	lr, {r4, r6, r8, lr}^
    95f4:	73253a43 			; <UNDEFINED> instruction: 0x73253a43
    95f8:	3a73253a 	bcc	1cd2ae8 <__bss_end__+0x1cc8d70>
    95fc:	253a6425 	ldrcs	r6, [sl, #-1061]!	; 0xfffffbdb
    9600:	00000a73 	andeq	r0, r0, r3, ror sl
    9604:	00000030 	andeq	r0, r0, r0, lsr r0
    9608:	33323130 	teqcc	r2, #12
    960c:	37363534 			; <UNDEFINED> instruction: 0x37363534
    9610:	00003938 	andeq	r3, r0, r8, lsr r9
    9614:	33323130 	teqcc	r2, #12
    9618:	37363534 			; <UNDEFINED> instruction: 0x37363534
    961c:	62613938 	rsbvs	r3, r1, #56, 18	; 0xe0000
    9620:	66656463 	strbtvs	r6, [r5], -r3, ror #8
    9624:	00000000 	andeq	r0, r0, r0
    9628:	00003130 	andeq	r3, r0, r0, lsr r1
    962c:	63747570 	cmnvs	r4, #112, 10	; 0x1c000000
    9630:	0070665f 	rsbseq	r6, r0, pc, asr r6
    9634:	74646977 	strbtvc	r6, [r4], #-2423	; 0xfffff689
    9638:	203c2068 	eorscs	r2, ip, r8, rrx
    963c:	00003233 	andeq	r3, r0, r3, lsr r2
    9640:	00786c6c 	rsbseq	r6, r8, ip, ror #24
    9644:	00646c6c 	rsbeq	r6, r4, ip, ror #24
    9648:	253d3078 	ldrcs	r3, [sp, #-120]!	; 0xffffff88
    964c:	00000a78 	andeq	r0, r0, r8, ror sl
    9650:	253d3178 	ldrcs	r3, [sp, #-376]!	; 0xfffffe88
    9654:	00000a78 	andeq	r0, r0, r8, ror sl
    9658:	6e727473 	mrcvs	4, 3, r7, cr2, cr3, {3}
    965c:	28706d63 	ldmdacs	r0!, {r0, r1, r5, r6, r8, sl, fp, sp, lr}^
    9660:	202c7974 	eorcs	r7, ip, r4, ror r9
    9664:	786c6c22 	stmdavc	ip!, {r1, r5, sl, fp, sp, lr}^
    9668:	33202c22 			; <UNDEFINED> instruction: 0x33202c22
    966c:	3d3d2029 	ldccc	0, cr2, [sp, #-164]!	; 0xffffff5c
    9670:	7c203020 	stcvc	0, cr3, [r0], #-128	; 0xffffff80
    9674:	7473207c 	ldrbtvc	r2, [r3], #-124	; 0xffffff84
    9678:	6d636e72 	stclvs	14, cr6, [r3, #-456]!	; 0xfffffe38
    967c:	79742870 	ldmdbvc	r4!, {r4, r5, r6, fp, sp}^
    9680:	6c22202c 	stcvs	0, cr2, [r2], #-176	; 0xffffff50
    9684:	2c22646c 	cfstrscs	mvf6, [r2], #-432	; 0xfffffe50
    9688:	20293320 	eorcs	r3, r9, r0, lsr #6
    968c:	30203d3d 	eorcc	r3, r0, sp, lsr sp
    9690:	00000000 	andeq	r0, r0, r0
    9694:	494e4150 	stmdbmi	lr, {r4, r6, r8, lr}^
    9698:	73253a43 			; <UNDEFINED> instruction: 0x73253a43
    969c:	3a73253a 	bcc	1cd2b8c <__bss_end__+0x1cc8e14>
    96a0:	693a6425 	ldmdbvs	sl!, {r0, r2, r5, sl, sp, lr}
    96a4:	736f706d 	cmnvc	pc, #109, 0	; 0x6d
    96a8:	6c626973 			; <UNDEFINED> instruction: 0x6c626973
    96ac:	66203a65 	strtvs	r3, [r0], -r5, ror #20
    96b0:	3c3d746d 	cfldrscc	mvf7, [sp], #-436	; 0xfffffe4c
    96b4:	0a3e7325 	beq	fa6350 <__bss_end__+0xf9c5d8>
    96b8:	0000000a 	andeq	r0, r0, sl
    96bc:	494e4150 	stmdbmi	lr, {r4, r6, r8, lr}^
    96c0:	73253a43 			; <UNDEFINED> instruction: 0x73253a43
    96c4:	3a73253a 	bcc	1cd2bb4 <__bss_end__+0x1cc8e3c>
    96c8:	663a6425 	ldrtvs	r6, [sl], -r5, lsr #8
    96cc:	74616f6c 	strbtvc	r6, [r1], #-3948	; 0xfffff094
    96d0:	746f6e20 	strbtvc	r6, [pc], #-3616	; 96d8 <__code_end__+0x12c>
    96d4:	616e6520 	cmnvs	lr, r0, lsr #10
    96d8:	64656c62 	strbtvs	r6, [r5], #-3170	; 0xfffff39e
    96dc:	0a212121 	beq	851b68 <__bss_end__+0x847df0>
    96e0:	00000000 	andeq	r0, r0, r0
    96e4:	6e697270 	mcrvs	2, 3, r7, cr9, cr0, {3}
    96e8:	203a6b74 	eorscs	r6, sl, r4, ror fp
    96ec:	20746f6e 	rsbscs	r6, r4, lr, ror #30
    96f0:	646e6168 	strbtvs	r6, [lr], #-360	; 0xfffffe98
    96f4:	676e696c 	strbvs	r6, [lr, -ip, ror #18]!
    96f8:	65707320 	ldrbvs	r7, [r0, #-800]!	; 0xfffffce0
    96fc:	69666963 	stmdbvs	r6!, {r0, r1, r5, r6, r8, fp, sp, lr}^
    9700:	27207265 	strcs	r7, [r0, -r5, ror #4]!
    9704:	20276325 	eorcs	r6, r7, r5, lsr #6
    9708:	63736128 	cmnvs	r3, #10
    970c:	253d6969 	ldrcs	r6, [sp, #-2409]!	; 0xfffff697
    9710:	000a2964 	andeq	r2, sl, r4, ror #18
    9714:	494e4150 	stmdbmi	lr, {r4, r6, r8, lr}^
    9718:	73253a43 			; <UNDEFINED> instruction: 0x73253a43
    971c:	3a73253a 	bcc	1cd2c0c <__bss_end__+0x1cc8e94>
    9720:	703a6425 	eorsvc	r6, sl, r5, lsr #8
    9724:	746e6972 	strbtvc	r6, [lr], #-2418	; 0xfffff68e
    9728:	7265206b 	rsbvc	r2, r5, #107, 0	; 0x6b
    972c:	0a726f72 	beq	1ca54fc <__bss_end__+0x1c9b784>
    9730:	0000000a 	andeq	r0, r0, sl

00009734 <__FUNCTION__.4008>:
    9734:	74696d65 	strbtvc	r6, [r9], #-3429	; 0xfffff29b
    9738:	00000000 	andeq	r0, r0, r0

0000973c <__FUNCTION__.3956>:
    973c:	5f697072 	svcpl	0x00697072
    9740:	5f746573 	svcpl	0x00746573
    9744:	7074756f 	rsbsvc	r7, r4, pc, ror #10
    9748:	00007475 	andeq	r7, r0, r5, ror r4

0000974c <__FUNCTION__.4034>:
    974c:	705f6176 	subsvc	r6, pc, r6, ror r1	; <UNPREDICTABLE>
    9750:	746e6972 	strbtvc	r6, [lr], #-2418	; 0xfffff68e
    9754:	0000006b 	andeq	r0, r0, fp, rrx
    9758:	454e4f44 	strbmi	r4, [lr, #-3908]	; 0xfffff0bc
    975c:	0a212121 	beq	851be8 <__bss_end__+0x847e70>
    9760:	00000000 	andeq	r0, r0, r0
    9764:	6c616d6b 	stclvs	13, cr6, [r1], #-428	; 0xfffffe54
    9768:	2e636f6c 	cdpcs	15, 6, cr6, cr3, cr12, {3}
    976c:	00000063 	andeq	r0, r0, r3, rrx
    9770:	5f78616d 	svcpl	0x0078616d
    9774:	7479626e 	ldrbtvc	r6, [r9], #-622	; 0xfffffd92
    9778:	00007365 	andeq	r7, r0, r5, ror #6
    977c:	494e4150 	stmdbmi	lr, {r4, r6, r8, lr}^
    9780:	73253a43 			; <UNDEFINED> instruction: 0x73253a43
    9784:	3a73253a 	bcc	1cd2c74 <__bss_end__+0x1cc8efc>
    9788:	733a6425 	teqvc	sl, #620756992	; 0x25000000
    978c:	69747465 	ldmdbvs	r4!, {r0, r2, r5, r6, sl, ip, sp, lr}^
    9790:	6820676e 	stmdavs	r0!, {r1, r2, r3, r5, r6, r8, r9, sl, sp, lr}
    9794:	20706165 	rsbscs	r6, r0, r5, ror #2
    9798:	25206f74 	strcs	r6, [r0, #-3956]!	; 0xfffff08c
    979c:	77203a70 			; <UNDEFINED> instruction: 0x77203a70
    97a0:	206c6c69 	rsbcs	r6, ip, r9, ror #24
    97a4:	20746968 	rsbscs	r6, r4, r8, ror #18
    97a8:	20656874 	rsbcs	r6, r5, r4, ror r8
    97ac:	20646c6f 	rsbcs	r6, r4, pc, ror #24
    97b0:	70616568 	rsbvc	r6, r1, r8, ror #10
    97b4:	20746120 	rsbscs	r6, r4, r0, lsr #2
    97b8:	0a0a7025 	beq	2a5854 <__bss_end__+0x29badc>
    97bc:	00000000 	andeq	r0, r0, r0
    97c0:	494e4150 	stmdbmi	lr, {r4, r6, r8, lr}^
    97c4:	73253a43 			; <UNDEFINED> instruction: 0x73253a43
    97c8:	3a73253a 	bcc	1cd2cb8 <__bss_end__+0x1cc8f40>
    97cc:	613a6425 	teqvs	sl, r5, lsr #8
    97d0:	6165726c 	cmnvs	r5, ip, ror #4
    97d4:	63207964 			; <UNDEFINED> instruction: 0x63207964
    97d8:	656c6c61 	strbvs	r6, [ip, #-3169]!	; 0xfffff39f
    97dc:	6d6b2064 	stclvs	0, cr2, [fp, #-400]!	; 0xfffffe70
    97e0:	6f6c6c61 	svcvs	0x006c6c61
    97e4:	6e695f63 	cdpvs	15, 6, cr5, cr9, cr3, {3}
    97e8:	0a0a7469 	beq	2a6994 <__bss_end__+0x29cc1c>
    97ec:	00000000 	andeq	r0, r0, r0
    97f0:	494e4150 	stmdbmi	lr, {r4, r6, r8, lr}^
    97f4:	73253a43 			; <UNDEFINED> instruction: 0x73253a43
    97f8:	3a73253a 	bcc	1cd2ce8 <__bss_end__+0x1cc8f70>
    97fc:	253a6425 	ldrcs	r6, [sl, #-1061]!	; 0xfffffbdb
    9800:	626e2064 	rsbvs	r2, lr, #100, 0	; 0x64
    9804:	73657479 	cmnvc	r5, #2030043136	; 0x79000000
    9808:	63786520 	cmnvs	r8, #32, 10	; 0x8000000
    980c:	65646565 	strbvs	r6, [r4, #-1381]!	; 0xfffffa9b
    9810:	69732064 	ldmdbvs	r3!, {r2, r5, r6, sp}^
    9814:	6f20657a 	svcvs	0x0020657a
    9818:	65682066 	strbvs	r2, [r8, #-102]!	; 0xffffff9a
    981c:	62207061 	eorvs	r7, r0, #97, 0	; 0x61
    9820:	75252079 	strvc	r2, [r5, #-121]!	; 0xffffff87
    9824:	79626e20 	stmdbvc	r2!, {r5, r9, sl, fp, sp, lr}^
    9828:	0a736574 	beq	1ce2e00 <__bss_end__+0x1cd9088>
    982c:	0000000a 	andeq	r0, r0, sl
    9830:	4f525245 	svcmi	0x00525245
    9834:	73253a52 			; <UNDEFINED> instruction: 0x73253a52
    9838:	3a73253a 	bcc	1cd2d28 <__bss_end__+0x1cc8fb0>
    983c:	203a6425 	eorscs	r6, sl, r5, lsr #8
    9840:	534c4146 	movtpl	r4, #49478	; 0xc146
    9844:	253c2845 	ldrcs	r2, [ip, #-2117]!	; 0xfffff7bb
    9848:	3a293e73 	bcc	a5921c <__bss_end__+0xa4f4a4>
    984c:	73736120 	cmnvc	r3, #8
    9850:	6e696d75 	mcrvs	13, 3, r6, cr9, cr5, {3}
    9854:	6f702067 	svcvs	0x00702067
    9858:	20726577 	rsbscs	r6, r2, r7, ror r5
    985c:	7420666f 	strtvc	r6, [r0], #-1647	; 0xfffff991
    9860:	000a6f77 	andeq	r6, sl, r7, ror pc
    9864:	705f7369 	subsvc	r7, pc, r9, ror #6
    9868:	2832776f 	ldmdacs	r2!, {r0, r1, r2, r3, r5, r6, r8, r9, sl, ip, sp, lr}
    986c:	67696c61 	strbvs	r6, [r9, -r1, ror #24]!
    9870:	6e656d6e 	cdpvs	13, 6, cr6, cr5, cr14, {3}
    9874:	00002974 	andeq	r2, r0, r4, ror r9
    9878:	705f7369 	subsvc	r7, pc, r9, ror #6
    987c:	2832776f 	ldmdacs	r2!, {r0, r1, r2, r3, r5, r6, r8, r9, sl, ip, sp, lr}
    9880:	0000296e 	andeq	r2, r0, lr, ror #18
    9884:	4f525245 	svcmi	0x00525245
    9888:	73253a52 			; <UNDEFINED> instruction: 0x73253a52
    988c:	3a73253a 	bcc	1cd2d7c <__bss_end__+0x1cc9004>
    9890:	203a6425 	eorscs	r6, sl, r5, lsr #8
    9894:	534c4146 	movtpl	r4, #49478	; 0xc146
    9898:	253c2845 	ldrcs	r2, [ip, #-2117]!	; 0xfffff7bb
    989c:	3a293e73 	bcc	a59270 <__bss_end__+0xa4f4f8>
    98a0:	706d6920 	rsbvc	r6, sp, r0, lsr #18
    98a4:	6973736f 	ldmdbvs	r3!, {r0, r1, r2, r3, r5, r6, r8, r9, ip, sp, lr}^
    98a8:	0a656c62 	beq	1964a38 <__bss_end__+0x195acc0>
    98ac:	00000000 	andeq	r0, r0, r0
    98b0:	615f7369 	cmpvs	pc, r9, ror #6
    98b4:	6e67696c 	vnmulvs.f16	s13, s14, s25	; <UNPREDICTABLE>
    98b8:	68286465 	stmdavs	r8!, {r0, r2, r5, r6, sl, sp, lr}
    98bc:	6c61202c 	stclvs	0, cr2, [r1], #-176	; 0xffffff50
    98c0:	6d6e6769 	stclvs	7, cr6, [lr, #-420]!	; 0xfffffe5c
    98c4:	29746e65 	ldmdbcs	r4!, {r0, r2, r5, r6, r9, sl, fp, sp, lr}^
    98c8:	00000000 	andeq	r0, r0, r0
    98cc:	494e4150 	stmdbmi	lr, {r4, r6, r8, lr}^
    98d0:	73253a43 			; <UNDEFINED> instruction: 0x73253a43
    98d4:	3a73253a 	bcc	1cd2dc4 <__bss_end__+0x1cc904c>
    98d8:	703a6425 	eorsvc	r6, sl, r5, lsr #8
    98dc:	746e696f 	strbtvc	r6, [lr], #-2415	; 0xfffff691
    98e0:	25207265 	strcs	r7, [r0, #-613]!	; 0xfffffd9b
    98e4:	61772070 	cmnvs	r7, r0, ror r0
    98e8:	656e2073 	strbvs	r2, [lr, #-115]!	; 0xffffff8d
    98ec:	20726576 	rsbscs	r6, r2, r6, ror r5
    98f0:	6f6c6c61 	svcvs	0x006c6c61
    98f4:	65746163 	ldrbvs	r6, [r4, #-355]!	; 0xfffffe9d
    98f8:	000a0a64 	andeq	r0, sl, r4, ror #20

000098fc <__FUNCTION__.7>:
    98fc:	6c616d6b 	stclvs	13, cr6, [r1], #-428	; 0xfffffe54
    9900:	5f636f6c 	svcpl	0x00636f6c
    9904:	74696e69 	strbtvc	r6, [r9], #-3689	; 0xfffff197
    9908:	7465735f 	strbtvc	r7, [r5], #-863	; 0xfffffca1
    990c:	6174735f 	cmnvs	r4, pc, asr r3
    9910:	00007472 	andeq	r7, r0, r2, ror r4

00009914 <__FUNCTION__.5>:
    9914:	6c616d6b 	stclvs	13, cr6, [r1], #-428	; 0xfffffe54
    9918:	5f636f6c 	svcpl	0x00636f6c
    991c:	74696e69 	strbtvc	r6, [r9], #-3689	; 0xfffff197
    9920:	00000000 	andeq	r0, r0, r0

00009924 <__FUNCTION__.4>:
    9924:	6c616d6b 	stclvs	13, cr6, [r1], #-428	; 0xfffffe54
    9928:	5f636f6c 	svcpl	0x00636f6c
    992c:	7a746f6e 	bvc	1d256ec <__bss_end__+0x1d1b974>
    9930:	006f7265 	rsbeq	r7, pc, r5, ror #4

00009934 <__FUNCTION__.2>:
    9934:	6c616d6b 	stclvs	13, cr6, [r1], #-428	; 0xfffffe54
    9938:	00636f6c 	rsbeq	r6, r3, ip, ror #30

0000993c <__FUNCTION__.1>:
    993c:	6c616d6b 	stclvs	13, cr6, [r1], #-428	; 0xfffffe54
    9940:	5f636f6c 	svcpl	0x00636f6c
    9944:	67696c61 	strbvs	r6, [r9, -r1, ror #24]!
    9948:	0064656e 	rsbeq	r6, r4, lr, ror #10

0000994c <__FUNCTION__.3>:
    994c:	6e756f72 	mrcvs	15, 3, r6, cr5, cr2, {3}
    9950:	00707564 	rsbseq	r7, r0, r4, ror #10

00009954 <__FUNCTION__.0>:
    9954:	6572666b 	ldrbvs	r6, [r2, #-1643]!	; 0xfffff995
    9958:	6f705f65 	svcvs	0x00705f65
    995c:	Address 0x000000000000995c is out of bounds.


Disassembly of section .data:

00009960 <putk>:
    9960:	000084e8 	andeq	r8, r0, r8, ror #9

00009964 <heap_end>:
    9964:	00209d78 	eoreq	r9, r0, r8, ror sp

00009968 <heap_start>:
    9968:	00009d78 	andeq	r9, r0, r8, ror sp

0000996c <heap>:
    996c:	00009d78 	andeq	r9, r0, r8, ror sp

00009970 <rpi_putchar>:
    9970:	000094a8 	andeq	r9, r0, r8, lsr #9

Disassembly of section .bss:

00009974 <__bss_start__>:
	...

00009d74 <init_p.6>:
    9d74:	00000000 	andeq	r0, r0, r0

Disassembly of section .ARM.attributes:

00000000 <.ARM.attributes>:
   0:	00002a41 	andeq	r2, r0, r1, asr #20
   4:	61656100 	cmnvs	r5, r0, lsl #2
   8:	01006962 	tsteq	r0, r2, ror #18
   c:	00000020 	andeq	r0, r0, r0, lsr #32
  10:	4b5a3605 	blmi	168d82c <__bss_end__+0x1683ab4>
  14:	08070600 	stmdaeq	r7, {r9, sl}
  18:	12010901 	andne	r0, r1, #16384	; 0x4000
  1c:	15011404 	strne	r1, [r1, #-1028]	; 0xfffffbfc
  20:	18031701 	stmdane	r3, {r0, r8, r9, sl, ip}
  24:	22011a01 	andcs	r1, r1, #4096	; 0x1000
  28:	Address 0x0000000000000028 is out of bounds.


Disassembly of section .comment:

00000000 <.comment>:
   0:	3a434347 	bcc	10d0d24 <__bss_end__+0x10c6fac>
   4:	4e472820 	cdpmi	8, 4, cr2, cr7, cr0, {1}
   8:	6f542055 	svcvs	0x00542055
   c:	20736c6f 	rsbscs	r6, r3, pc, ror #24
  10:	20726f66 	rsbscs	r6, r2, r6, ror #30
  14:	206d7241 	rsbcs	r7, sp, r1, asr #4
  18:	65626d45 	strbvs	r6, [r2, #-3397]!	; 0xfffff2bb
  1c:	64656464 	strbtvs	r6, [r5], #-1124	; 0xfffffb9c
  20:	6f725020 	svcvs	0x00725020
  24:	73736563 	cmnvc	r3, #415236096	; 0x18c00000
  28:	2073726f 	rsbscs	r7, r3, pc, ror #4
  2c:	30322d39 	eorscc	r2, r2, r9, lsr sp
  30:	712d3931 			; <UNDEFINED> instruction: 0x712d3931
  34:	616d2d34 	cmnvs	sp, r4, lsr sp
  38:	29726f6a 	ldmdbcs	r2!, {r1, r3, r5, r6, r8, r9, sl, fp, sp, lr}^
  3c:	322e3920 	eorcc	r3, lr, #32, 18	; 0x80000
  40:	3220312e 	eorcc	r3, r0, #-2147483637	; 0x8000000b
  44:	31393130 	teqcc	r9, r0, lsr r1
  48:	20353230 	eorscs	r3, r5, r0, lsr r2
  4c:	6c657228 	sfmvs	f7, 2, [r5], #-160	; 0xffffff60
  50:	65736165 	ldrbvs	r6, [r3, #-357]!	; 0xfffffe9b
  54:	415b2029 	cmpmi	fp, r9, lsr #32
  58:	612f4d52 			; <UNDEFINED> instruction: 0x612f4d52
  5c:	392d6d72 	pushcc	{r1, r4, r5, r6, r8, sl, fp, sp, lr}
  60:	6172622d 	cmnvs	r2, sp, lsr #4
  64:	2068636e 	rsbcs	r6, r8, lr, ror #6
  68:	69766572 	ldmdbvs	r6!, {r1, r4, r5, r6, r8, sl, sp, lr}^
  6c:	6e6f6973 			; <UNDEFINED> instruction: 0x6e6f6973
  70:	37373220 	ldrcc	r3, [r7, -r0, lsr #4]!
  74:	5d393935 			; <UNDEFINED> instruction: 0x5d393935
  78:	43434700 	movtmi	r4, #14080	; 0x3700
  7c:	4728203a 			; <UNDEFINED> instruction: 0x4728203a
  80:	4120554e 			; <UNDEFINED> instruction: 0x4120554e
  84:	45206d72 	strmi	r6, [r0, #-3442]!	; 0xfffff28e
  88:	6465626d 	strbtvs	r6, [r5], #-621	; 0xfffffd93
  8c:	20646564 	rsbcs	r6, r4, r4, ror #10
  90:	6c6f6f54 	stclvs	15, cr6, [pc], #-336	; ffffff48 <__bss_end__+0xffff61d0>
  94:	69616863 	stmdbvs	r1!, {r0, r1, r5, r6, fp, sp, lr}^
  98:	3031206e 	eorscc	r2, r1, lr, rrx
  9c:	322d332e 	eorcc	r3, sp, #-1207959552	; 0xb8000000
  a0:	2e313230 	mrccs	2, 1, r3, cr1, cr0, {1}
  a4:	20293031 	eorcs	r3, r9, r1, lsr r0
  a8:	332e3031 			; <UNDEFINED> instruction: 0x332e3031
  ac:	3220312e 	eorcc	r3, r0, #-2147483637	; 0x8000000b
  b0:	30313230 	eorscc	r3, r1, r0, lsr r2
  b4:	20343238 	eorscs	r3, r4, r8, lsr r2
  b8:	6c657228 	sfmvs	f7, 2, [r5], #-160	; 0xffffff60
  bc:	65736165 	ldrbvs	r6, [r3, #-357]!	; 0xfffffe9b
  c0:	Address 0x00000000000000c0 is out of bounds.


Disassembly of section .debug_info:

00000000 <.debug_info>:
       0:	00000b77 	andeq	r0, r0, r7, ror fp
       4:	00000004 	andeq	r0, r0, r4
       8:	01040000 	mrseq	r0, (UNDEF: 4)
       c:	0000019a 	muleq	r0, sl, r1
      10:	0000d90c 	andeq	sp, r0, ip, lsl #18
      14:	00003b00 	andeq	r3, r0, r0, lsl #22
      18:	00803800 	addeq	r3, r0, r0, lsl #16
      1c:	0001b000 	andeq	fp, r1, r0
      20:	00000000 	andeq	r0, r0, r0
      24:	05040200 	streq	r0, [r4, #-512]	; 0xfffffe00
      28:	00746e69 	rsbseq	r6, r4, r9, ror #28
      2c:	32070403 	andcc	r0, r7, #50331648	; 0x3000000
      30:	04000001 	streq	r0, [r0], #-1
      34:	0000002c 	andeq	r0, r0, ip, lsr #32
      38:	12060103 	andne	r0, r6, #-1073741824	; 0xc0000000
      3c:	03000001 	movweq	r0, #1
      40:	00100502 	andseq	r0, r0, r2, lsl #10
      44:	04030000 	streq	r0, [r3], #-0
      48:	0000c305 	andeq	ip, r0, r5, lsl #6
      4c:	05080300 	streq	r0, [r8, #-768]	; 0xfffffd00
      50:	000000be 	strheq	r0, [r0], -lr
      54:	00017b05 	andeq	r7, r1, r5, lsl #22
      58:	182e0500 	stmdane	lr!, {r8, sl}
      5c:	00000060 	andeq	r0, r0, r0, rrx
      60:	10080103 	andne	r0, r8, r3, lsl #2
      64:	03000001 	movweq	r0, #1
      68:	01470702 	cmpeq	r7, r2, lsl #14
      6c:	04030000 	streq	r0, [r3], #-0
      70:	00012d07 	andeq	r2, r1, r7, lsl #26
      74:	07080300 	streq	r0, [r8, -r0, lsl #6]
      78:	00000128 	andeq	r0, r0, r8, lsr #2
      7c:	00002506 	andeq	r2, r0, r6, lsl #10
      80:	00008b00 	andeq	r8, r0, r0, lsl #22
      84:	00250700 	eoreq	r0, r5, r0, lsl #14
      88:	08000000 	stmdaeq	r0, {}	; <UNPREDICTABLE>
      8c:	0000001f 	andeq	r0, r0, pc, lsl r0
      90:	970e1c03 	strls	r1, [lr, -r3, lsl #24]
      94:	09000000 	stmdbeq	r0, {}	; <UNPREDICTABLE>
      98:	00007c04 	andeq	r7, r0, r4, lsl #24
      9c:	00250600 	eoreq	r0, r5, r0, lsl #12
      a0:	00ac0000 	adceq	r0, ip, r0
      a4:	ac070000 	stcge	0, cr0, [r7], {-0}
      a8:	00000000 	andeq	r0, r0, r0
      ac:	00b90409 	adcseq	r0, r9, r9, lsl #8
      b0:	01030000 	mrseq	r0, (UNDEF: 3)
      b4:	00011908 	andeq	r1, r1, r8, lsl #18
      b8:	00b20400 	adcseq	r0, r2, r0, lsl #8
      bc:	5f080000 	svcpl	0x00080000
      c0:	03000004 	movweq	r0, #4
      c4:	00ca0e21 	sbceq	r0, sl, r1, lsr #28
      c8:	04090000 	streq	r0, [r9], #-0
      cc:	0000009d 	muleq	r0, sp, r0
      d0:	6702070a 	strvs	r0, [r2, -sl, lsl #14]
      d4:	01000000 	mrseq	r0, (UNDEF: 0)
      d8:	01000a4b 	tsteq	r0, fp, asr #20
      dc:	540b0000 	strpl	r0, [fp], #-0
      e0:	76004831 			; <UNDEFINED> instruction: 0x76004831
      e4:	30540c02 	subscc	r0, r4, r2, lsl #24
      e8:	0cf50048 	ldcleq	0, cr0, [r5], #288	; 0x120
      ec:	004c3154 	subeq	r3, ip, r4, asr r1
      f0:	30540bf5 	ldrshcc	r0, [r4], #-181	; 0xffffff4b
      f4:	0276004c 	rsbseq	r0, r6, #76, 0	; 0x4c
      f8:	0001940d 	andeq	r9, r1, sp, lsl #8
      fc:	00a41000 	adceq	r1, r4, r0
     100:	0000cc0e 	andeq	ip, r0, lr, lsl #24
     104:	179c0100 	ldrne	r0, [ip, r0, lsl #2]
     108:	00000033 	andeq	r0, r0, r3, lsr r0
     10c:	01070a10 	tsteq	r7, r0, lsl sl
     110:	00000060 	andeq	r0, r0, r0, rrx
     114:	22060b02 	andcs	r0, r6, #2048	; 0x800
     118:	0f000001 	svceq	0x00000001
     11c:	0000016a 	andeq	r0, r0, sl, ror #2
     120:	3f100015 	svccc	0x00100015
     124:	02000001 	andeq	r0, r0, #1, 0
     128:	80ec060d 	rschi	r0, ip, sp, lsl #12
     12c:	00fc0000 	rscseq	r0, ip, r0
     130:	9c010000 	stcls	0, cr0, [r1], {-0}
     134:	0000050e 	andeq	r0, r0, lr, lsl #10
     138:	00017811 	andeq	r7, r1, r1, lsl r8
     13c:	0004de00 	andeq	sp, r4, r0, lsl #28
     140:	00691200 	rsbeq	r1, r9, r0, lsl #4
     144:	2c121702 	ldccs	7, cr1, [r2], {2}
     148:	08000000 	stmdaeq	r0, {}	; <UNPREDICTABLE>
     14c:	00000000 	andeq	r0, r0, r0
     150:	13000000 	movwne	r0, #0
     154:	0000050e 	andeq	r0, r0, lr, lsl #10
     158:	00008120 	andeq	r8, r0, r0, lsr #2
     15c:	0001b001 	andeq	fp, r1, r1
     160:	09190200 	ldmdbeq	r9, {r9}
     164:	000001e7 	andeq	r0, r0, r7, ror #3
     168:	00053b14 	andeq	r3, r5, r4, lsl fp
     16c:	00004b00 	andeq	r4, r0, r0, lsl #22
     170:	00004900 	andeq	r4, r0, r0, lsl #18
     174:	05311400 	ldreq	r1, [r1, #-1024]!	; 0xfffffc00
     178:	00620000 	rsbeq	r0, r2, r0
     17c:	00600000 	rsbeq	r0, r0, r0
     180:	27140000 	ldrcs	r0, [r4, -r0]
     184:	62000005 	andvs	r0, r0, #5, 0
     188:	60000000 	andvs	r0, r0, r0
     18c:	14000000 	strne	r0, [r0], #-0
     190:	0000051b 	andeq	r0, r0, fp, lsl r5
     194:	00000078 	andeq	r0, r0, r8, ror r0
     198:	00000076 	andeq	r0, r0, r6, ror r0
     19c:	00812c15 	addeq	r2, r1, r5, lsl ip
     1a0:	00054600 	andeq	r4, r5, r0, lsl #12
     1a4:	0001b600 	andeq	fp, r1, r0, lsl #12
     1a8:	50011600 	andpl	r1, r1, r0, lsl #12
     1ac:	16007502 	strne	r7, [r0], -r2, lsl #10
     1b0:	76025101 	strvc	r5, [r2], -r1, lsl #2
     1b4:	38150000 	ldmdacc	r5, {}	; <UNPREDICTABLE>
     1b8:	46000081 	strmi	r0, [r0], -r1, lsl #1
     1bc:	d0000005 	andle	r0, r0, r5
     1c0:	16000001 	strne	r0, [r0], -r1
     1c4:	75025001 	strvc	r5, [r2, #-1]
     1c8:	51011600 	tstpl	r1, r0, lsl #12
     1cc:	00007602 	andeq	r7, r0, r2, lsl #12
     1d0:	00814417 	addeq	r4, r1, r7, lsl r4
     1d4:	00054600 	andeq	r4, r5, r0, lsl #12
     1d8:	50011600 	andpl	r1, r1, r0, lsl #12
     1dc:	16007502 	strne	r7, [r0], -r2, lsl #10
     1e0:	09025101 	stmdbeq	r2, {r0, r8, ip, lr}
     1e4:	130000ff 	movwne	r0, #255	; 0xff
     1e8:	000009bc 			; <UNDEFINED> instruction: 0x000009bc
     1ec:	00008144 	andeq	r8, r0, r4, asr #2
     1f0:	0001c802 	andeq	ip, r1, r2, lsl #16
     1f4:	091a0200 	ldmdbeq	sl, {r9}
     1f8:	000002ef 	andeq	r0, r0, pc, ror #5
     1fc:	0009c914 	andeq	ip, r9, r4, lsl r9
     200:	00008e00 	andeq	r8, r0, r0, lsl #28
     204:	00008c00 	andeq	r8, r0, r0, lsl #24
     208:	09d61800 	ldmibeq	r6, {fp, ip}^
     20c:	81440000 	mrshi	r0, (UNDEF: 68)
     210:	f0040000 			; <UNDEFINED> instruction: 0xf0040000
     214:	01000001 	tsteq	r0, r1
     218:	e31405cf 	tst	r4, #868220928	; 0x33c00000
     21c:	a4000009 	strge	r0, [r0], #-9
     220:	a2000000 	andge	r0, r0, #0, 0
     224:	18000000 	stmdane	r0, {}	; <UNPREDICTABLE>
     228:	00000a58 	andeq	r0, r0, r8, asr sl
     22c:	00008144 	andeq	r8, r0, r4, asr #2
     230:	00021006 	andeq	r1, r2, r6
     234:	05c60100 	strbeq	r0, [r6, #256]	; 0x100
     238:	000a7114 	andeq	r7, sl, r4, lsl r1
     23c:	0000ba00 	andeq	fp, r0, r0, lsl #20
     240:	0000b800 	andeq	fp, r0, r0, lsl #16
     244:	0a651400 	beq	194524c <__bss_end__+0x193b4d4>
     248:	00d20000 	sbcseq	r0, r2, r0
     24c:	00d00000 	sbcseq	r0, r0, r0
     250:	10190000 	andsne	r0, r9, r0
     254:	1a000002 	bne	264 <__code_start__-0x7d9c>
     258:	00000a7d 	andeq	r0, r0, sp, ror sl
     25c:	000000e8 	andeq	r0, r0, r8, ror #1
     260:	000000e6 	andeq	r0, r0, r6, ror #1
     264:	000b1613 	andeq	r1, fp, r3, lsl r6
     268:	00814c00 	addeq	r4, r1, r0, lsl #24
     26c:	02280100 	eoreq	r0, r8, #0
     270:	af010000 	svcge	0x00010000
     274:	00028705 	andeq	r8, r2, r5, lsl #14
     278:	0b231400 	bleq	8c5280 <__bss_end__+0x8bb508>
     27c:	00fd0000 	rscseq	r0, sp, r0
     280:	00fb0000 	rscseq	r0, fp, r0
     284:	1b000000 	blne	28c <__code_start__-0x7d74>
     288:	00000ad8 	ldrdeq	r0, [r0], -r8
     28c:	00000240 	andeq	r0, r0, r0, asr #4
     290:	d005b001 	andle	fp, r5, r1
     294:	1c000002 	stcne	0, cr0, [r0], {2}
     298:	00000af1 	strdeq	r0, [r0], -r1
     29c:	000ae51c 	andeq	lr, sl, ip, lsl r5
     2a0:	02401900 	subeq	r1, r0, #0, 18
     2a4:	fd1a0000 	ldc2	0, cr0, [sl, #-0]
     2a8:	1300000a 	movwne	r0, #10
     2ac:	11000001 	tstne	r0, r1
     2b0:	1d000001 	stcne	0, cr0, [r0, #-4]
     2b4:	00000b07 	andeq	r0, r0, r7, lsl #22
     2b8:	00008154 	andeq	r8, r0, r4, asr r1
     2bc:	00000004 	andeq	r0, r0, r4
     2c0:	000b081a 	andeq	r0, fp, sl, lsl r8
     2c4:	00012800 	andeq	r2, r1, r0, lsl #16
     2c8:	00012600 	andeq	r2, r1, r0, lsl #12
     2cc:	00000000 	andeq	r0, r0, r0
     2d0:	000a891d 	andeq	r8, sl, sp, lsl r9
     2d4:	00814400 	addeq	r4, r1, r0, lsl #8
     2d8:	00000400 	andeq	r0, r0, r0, lsl #8
     2dc:	0a8a1a00 	beq	fe286ae4 <__bss_end__+0xfe27cd6c>
     2e0:	013f0000 	teqeq	pc, r0
     2e4:	013b0000 	teqeq	fp, r0
     2e8:	00000000 	andeq	r0, r0, r0
     2ec:	1e000000 	cdpne	0, 0, cr0, cr0, cr0, {0}
     2f0:	0000050e 	andeq	r0, r0, lr, lsl #10
     2f4:	00008174 	andeq	r8, r0, r4, ror r1
     2f8:	00817401 	addeq	r7, r1, r1, lsl #8
     2fc:	00002400 	andeq	r2, r0, r0, lsl #8
     300:	09280200 	stmdbeq	r8!, {r9}
     304:	00000387 	andeq	r0, r0, r7, lsl #7
     308:	00053b14 	andeq	r3, r5, r4, lsl fp
     30c:	00016100 	andeq	r6, r1, r0, lsl #2
     310:	00015f00 	andeq	r5, r1, r0, lsl #30
     314:	05311400 	ldreq	r1, [r1, #-1024]!	; 0xfffffc00
     318:	01610000 	cmneq	r1, r0
     31c:	015f0000 	cmpeq	pc, r0
     320:	27140000 	ldrcs	r0, [r4, -r0]
     324:	61000005 	tstvs	r0, r5
     328:	5f000001 	svcpl	0x00000001
     32c:	14000001 	strne	r0, [r0], #-1
     330:	0000051b 	andeq	r0, r0, fp, lsl r5
     334:	00000177 	andeq	r0, r0, r7, ror r1
     338:	00000175 	andeq	r0, r0, r5, ror r1
     33c:	00818015 	addeq	r8, r1, r5, lsl r0
     340:	00054600 	andeq	r4, r5, r0, lsl #12
     344:	00035600 	andeq	r5, r3, r0, lsl #12
     348:	50011600 	andpl	r1, r1, r0, lsl #12
     34c:	16007502 	strne	r7, [r0], -r2, lsl #10
     350:	76025101 	strvc	r5, [r2], -r1, lsl #2
     354:	8c150000 	ldchi	0, cr0, [r5], {-0}
     358:	46000081 	strmi	r0, [r0], -r1, lsl #1
     35c:	70000005 	andvc	r0, r0, r5
     360:	16000003 	strne	r0, [r0], -r3
     364:	75025001 	strvc	r5, [r2, #-1]
     368:	51011600 	tstpl	r1, r0, lsl #12
     36c:	00007602 	andeq	r7, r0, r2, lsl #12
     370:	00819817 	addeq	r9, r1, r7, lsl r8
     374:	00054600 	andeq	r4, r5, r0, lsl #12
     378:	50011600 	andpl	r1, r1, r0, lsl #12
     37c:	16007502 	strne	r7, [r0], -r2, lsl #10
     380:	76025101 	strvc	r5, [r2], -r1, lsl #2
     384:	13000000 	movwne	r0, #0
     388:	000009bc 			; <UNDEFINED> instruction: 0x000009bc
     38c:	00008198 	muleq	r0, r8, r1
     390:	00025802 	andeq	r5, r2, r2, lsl #16
     394:	09290200 	stmdbeq	r9!, {r9}
     398:	0000048f 	andeq	r0, r0, pc, lsl #9
     39c:	0009c914 	andeq	ip, r9, r4, lsl r9
     3a0:	00018d00 	andeq	r8, r1, r0, lsl #26
     3a4:	00018b00 	andeq	r8, r1, r0, lsl #22
     3a8:	09d61800 	ldmibeq	r6, {fp, ip}^
     3ac:	81980000 	orrshi	r0, r8, r0
     3b0:	60040000 	andvs	r0, r4, r0
     3b4:	01000002 	tsteq	r0, r2
     3b8:	e31405cf 	tst	r4, #868220928	; 0x33c00000
     3bc:	a3000009 	movwge	r0, #9
     3c0:	a1000001 	tstge	r0, r1
     3c4:	1f000001 	svcne	0x00000001
     3c8:	00000a58 	andeq	r0, r0, r8, asr sl
     3cc:	00008198 	muleq	r0, r8, r1
     3d0:	00819806 	addeq	r9, r1, r6, lsl #16
     3d4:	00002000 	andeq	r2, r0, r0
     3d8:	05c60100 	strbeq	r0, [r6, #256]	; 0x100
     3dc:	000a7114 	andeq	r7, sl, r4, lsl r1
     3e0:	0001b900 	andeq	fp, r1, r0, lsl #18
     3e4:	0001b700 	andeq	fp, r1, r0, lsl #14
     3e8:	0a651400 	beq	19453f0 <__bss_end__+0x193b678>
     3ec:	01d10000 	bicseq	r0, r1, r0
     3f0:	01cf0000 	biceq	r0, pc, r0
     3f4:	7d1a0000 	ldcvc	0, cr0, [sl, #-0]
     3f8:	e700000a 	str	r0, [r0, -sl]
     3fc:	e5000001 	str	r0, [r0, #-1]
     400:	20000001 	andcs	r0, r0, r1
     404:	00000a89 	andeq	r0, r0, r9, lsl #21
     408:	00008198 	muleq	r0, r8, r1
     40c:	00000004 	andeq	r0, r0, r4
     410:	00000422 	andeq	r0, r0, r2, lsr #8
     414:	000a8a1a 	andeq	r8, sl, sl, lsl sl
     418:	0001fe00 	andeq	pc, r1, r0, lsl #28
     41c:	0001fa00 	andeq	pc, r1, r0, lsl #20
     420:	161e0000 	ldrne	r0, [lr], -r0
     424:	a000000b 	andge	r0, r0, fp
     428:	01000081 	smlabbeq	r0, r1, r0, r0
     42c:	000081a0 	andeq	r8, r0, r0, lsr #3
     430:	00000008 	andeq	r0, r0, r8
     434:	4905af01 	stmdbmi	r5, {r0, r8, r9, sl, fp, sp, pc}
     438:	14000004 	strne	r0, [r0], #-4
     43c:	00000b23 	andeq	r0, r0, r3, lsr #22
     440:	00000220 	andeq	r0, r0, r0, lsr #4
     444:	0000021e 	andeq	r0, r0, lr, lsl r2
     448:	0ad82100 	beq	ff608850 <__bss_end__+0xff5fead8>
     44c:	81a80000 			; <UNDEFINED> instruction: 0x81a80000
     450:	00100000 	andseq	r0, r0, r0
     454:	b0010000 	andlt	r0, r1, r0
     458:	0af11c05 	beq	ffc47474 <__bss_end__+0xffc3d6fc>
     45c:	e51c0000 	ldr	r0, [ip, #-0]
     460:	1a00000a 	bne	490 <__code_start__-0x7b70>
     464:	00000afd 	strdeq	r0, [r0], -sp
     468:	00000236 	andeq	r0, r0, r6, lsr r2
     46c:	00000234 	andeq	r0, r0, r4, lsr r2
     470:	000b071d 	andeq	r0, fp, sp, lsl r7
     474:	0081a800 	addeq	sl, r1, r0, lsl #16
     478:	00000400 	andeq	r0, r0, r0, lsl #8
     47c:	0b081a00 	bleq	206c84 <__bss_end__+0x1fcf0c>
     480:	024b0000 	subeq	r0, fp, #0, 0
     484:	02490000 	subeq	r0, r9, #0, 0
     488:	00000000 	andeq	r0, r0, r0
     48c:	15000000 	strne	r0, [r0, #-0]
     490:	00008120 	andeq	r8, r0, r0, lsr #2
     494:	00000b4a 	andeq	r0, r0, sl, asr #22
     498:	000004a3 	andeq	r0, r0, r3, lsr #9
     49c:	02500116 	subseq	r0, r0, #-2147483643	; 0x80000005
     4a0:	1500007a 	strne	r0, [r0, #-122]	; 0xffffff86
     4a4:	0000816c 	andeq	r8, r0, ip, ror #2
     4a8:	00000b56 	andeq	r0, r0, r6, asr fp
     4ac:	000004b8 			; <UNDEFINED> instruction: 0x000004b8
     4b0:	03500116 	cmpeq	r0, #-2147483643	; 0x80000005
     4b4:	0003e80a 	andeq	lr, r3, sl, lsl #16
     4b8:	00817415 	addeq	r7, r1, r5, lsl r4
     4bc:	000b4a00 	andeq	r4, fp, r0, lsl #20
     4c0:	0004cc00 	andeq	ip, r4, r0, lsl #24
     4c4:	50011600 	andpl	r1, r1, r0, lsl #12
     4c8:	00007902 	andeq	r7, r0, r2, lsl #18
     4cc:	0081c017 	addeq	ip, r1, r7, lsl r0
     4d0:	000b5600 	andeq	r5, fp, r0, lsl #12
     4d4:	50011600 	andpl	r1, r1, r0, lsl #12
     4d8:	03e80a03 	mvneq	r0, #12288	; 0x3000
     4dc:	f4220000 	vld4.8	{d0-d3}, [r2], r0
     4e0:	62000080 	andvs	r0, r0, #128, 0	; 0x80
     4e4:	1500000b 	strne	r0, [r0, #-11]
     4e8:	000080fc 	strdeq	r8, [r0], -ip
     4ec:	00000b6e 	andeq	r0, r0, lr, ror #22
     4f0:	000004fa 	strdeq	r0, [r0], -sl
     4f4:	01500116 	cmpeq	r0, r6, lsl r1
     4f8:	d0170045 	andsle	r0, r7, r5, asr #32
     4fc:	4a000081 	bmi	708 <__code_start__-0x78f8>
     500:	1600000b 	strne	r0, [r0], -fp
     504:	03055001 	movweq	r5, #20481	; 0x5001
     508:	000095d4 	ldrdeq	r9, [r0], -r4
     50c:	e3230000 			; <UNDEFINED> instruction: 0xe3230000
     510:	01000002 	tsteq	r0, r2
     514:	460314f0 			; <UNDEFINED> instruction: 0x460314f0
     518:	24000005 	strcs	r0, [r0], #-5
     51c:	006e6970 	rsbeq	r6, lr, r0, ror r9
     520:	2c2bf001 	stccs	0, cr15, [fp], #-4
     524:	24000000 	strcs	r0, [r0], #-0
     528:	f0010072 			; <UNDEFINED> instruction: 0xf0010072
     52c:	00005438 	andeq	r5, r0, r8, lsr r4
     530:	00672400 	rsbeq	r2, r7, r0, lsl #8
     534:	5443f001 	strbpl	pc, [r3], #-1	; <UNPREDICTABLE>
     538:	24000000 	strcs	r0, [r0], #-0
     53c:	f0010062 			; <UNDEFINED> instruction: 0xf0010062
     540:	0000544e 	andeq	r5, r0, lr, asr #8
     544:	03250000 			; <UNDEFINED> instruction: 0x03250000
     548:	01000001 	tsteq	r0, r1
     54c:	80380de3 	eorshi	r0, r8, r3, ror #27
     550:	00b40000 	adcseq	r0, r4, r0
     554:	9c010000 	stcls	0, cr0, [r1], {-0}
     558:	0000097a 	andeq	r0, r0, sl, ror r9
     55c:	6e697026 	cdpvs	0, 6, cr7, cr9, cr6, {1}
     560:	23e30100 	mvncs	r0, #0
     564:	0000002c 	andeq	r0, r0, ip, lsr #32
     568:	00000262 	andeq	r0, r0, r2, ror #4
     56c:	0000025e 	andeq	r0, r0, lr, asr r2
     570:	01006227 	tsteq	r0, r7, lsr #4
     574:	005430e3 	subseq	r3, r4, r3, ror #1
     578:	51010000 	mrspl	r0, (UNDEF: 1)
     57c:	00000019 	andeq	r0, r0, r9, lsl r0
     580:	006a1200 	rsbeq	r1, sl, r0, lsl #4
     584:	2c13e401 	cfldrscs	mvf14, [r3], {1}
     588:	8b000000 	blhi	590 <__code_start__-0x7a70>
     58c:	83000002 	movwhi	r0, #2
     590:	19000002 	stmdbne	r0, {r1}
     594:	00000030 	andeq	r0, r0, r0, lsr r0
     598:	01006912 	tsteq	r0, r2, lsl r9
     59c:	002c12e6 	eoreq	r1, ip, r6, ror #5
     5a0:	02d20000 	sbcseq	r0, r2, #0, 0
     5a4:	02cc0000 	sbceq	r0, ip, #0, 0
     5a8:	7a180000 	bvc	6005b0 <__bss_end__+0x5f6838>
     5ac:	8c000009 	stchi	0, cr0, [r0], {9}
     5b0:	02000080 	andeq	r0, r0, #128, 0	; 0x80
     5b4:	00000068 	andeq	r0, r0, r8, rrx
     5b8:	1409ea01 	strne	lr, [r9], #-2561	; 0xfffff5ff
     5bc:	00000993 	muleq	r0, r3, r9
     5c0:	00000301 	andeq	r0, r0, r1, lsl #6
     5c4:	000002fd 	strdeq	r0, [r0], -sp
     5c8:	00098714 	andeq	r8, r9, r4, lsl r7
     5cc:	00033700 	andeq	r3, r3, r0, lsl #14
     5d0:	00033300 	andeq	r3, r3, r0, lsl #6
     5d4:	00681900 	rsbeq	r1, r8, r0, lsl #18
     5d8:	3e130000 	cdpcc	0, 1, cr0, cr3, cr0, {0}
     5dc:	a800000a 	stmdage	r0, {r1, r3}
     5e0:	02000080 	andeq	r0, r0, #128, 0	; 0x80
     5e4:	000000a8 	andeq	r0, r0, r8, lsr #1
     5e8:	c309d901 	movwgt	sp, #39169	; 0x9901
     5ec:	14000006 	strne	r0, [r0], #-6
     5f0:	00000a4b 	andeq	r0, r0, fp, asr #20
     5f4:	0000035d 	andeq	r0, r0, sp, asr r3
     5f8:	0000035b 	andeq	r0, r0, fp, asr r3
     5fc:	000a9818 	andeq	r9, sl, r8, lsl r8
     600:	0080a800 	addeq	sl, r0, r0, lsl #16
     604:	00c80400 	sbceq	r0, r8, r0, lsl #8
     608:	b5010000 	strlt	r0, [r1, #-0]
     60c:	0ab11405 	beq	fec45628 <__bss_end__+0xfec3b8b0>
     610:	03750000 	cmneq	r5, #0, 0
     614:	03730000 	cmneq	r3, #0, 0
     618:	a5140000 	ldrge	r0, [r4, #-0]
     61c:	8d00000a 	stchi	0, cr0, [r0, #-40]	; 0xffffffd8
     620:	8b000003 	blhi	634 <__code_start__-0x79cc>
     624:	19000003 	stmdbne	r0, {r0, r1}
     628:	000000c8 	andeq	r0, r0, r8, asr #1
     62c:	000abd1a 	andeq	fp, sl, sl, lsl sp
     630:	0003a500 	andeq	sl, r3, r0, lsl #10
     634:	0003a300 	andeq	sl, r3, r0, lsl #6
     638:	0b301300 	bleq	c05240 <__bss_end__+0xbfb4c8>
     63c:	80b00000 	adcshi	r0, r0, r0
     640:	e0010000 	and	r0, r1, r0
     644:	01000000 	mrseq	r0, (UNDEF: 0)
     648:	065c05a6 	ldrbeq	r0, [ip], -r6, lsr #11
     64c:	3d140000 	ldccc	0, cr0, [r4, #-0]
     650:	ba00000b 	blt	684 <__code_start__-0x797c>
     654:	b8000003 	stmdalt	r0, {r0, r1}
     658:	00000003 	andeq	r0, r0, r3
     65c:	000ad81b 	andeq	sp, sl, fp, lsl r8
     660:	0000f800 	andeq	pc, r0, r0, lsl #16
     664:	05a70100 	streq	r0, [r7, #256]!	; 0x100
     668:	000006a5 	andeq	r0, r0, r5, lsr #13
     66c:	000af11c 	andeq	pc, sl, ip, lsl r1	; <UNPREDICTABLE>
     670:	0ae51c00 	beq	ff947678 <__bss_end__+0xff93d900>
     674:	f8190000 			; <UNDEFINED> instruction: 0xf8190000
     678:	1a000000 	bne	680 <__code_start__-0x7980>
     67c:	00000afd 	strdeq	r0, [r0], -sp
     680:	000003d2 	ldrdeq	r0, [r0], -r2
     684:	000003d0 	ldrdeq	r0, [r0], -r0	; <UNPREDICTABLE>
     688:	000b071d 	andeq	r0, fp, sp, lsl r7
     68c:	0080b400 	addeq	fp, r0, r0, lsl #8
     690:	00000400 	andeq	r0, r0, r0, lsl #8
     694:	0b081a00 	bleq	206e9c <__bss_end__+0x1fd124>
     698:	03e70000 	mvneq	r0, #0, 0
     69c:	03e50000 	mvneq	r0, #0, 0
     6a0:	00000000 	andeq	r0, r0, r0
     6a4:	0ac91d00 	beq	ff247aac <__bss_end__+0xff23dd34>
     6a8:	80a80000 	adchi	r0, r8, r0
     6ac:	00040000 	andeq	r0, r4, r0
     6b0:	ca1a0000 	bgt	6806b8 <__bss_end__+0x676940>
     6b4:	fe00000a 	cdp2	0, 0, cr0, cr0, cr10, {0}
     6b8:	fa000003 	blx	6cc <__code_start__-0x7934>
     6bc:	00000003 	andeq	r0, r0, r3
     6c0:	13000000 	movwne	r0, #0
     6c4:	00000a24 	andeq	r0, r0, r4, lsr #20
     6c8:	00008098 	muleq	r0, r8, r0
     6cc:	00011001 	andeq	r1, r1, r1
     6d0:	09d60100 	ldmibeq	r6, {r8}^
     6d4:	000007ae 	andeq	r0, r0, lr, lsr #15
     6d8:	000a3114 	andeq	r3, sl, r4, lsl r1
     6dc:	00042200 	andeq	r2, r4, r0, lsl #4
     6e0:	00041e00 	andeq	r1, r4, r0, lsl #28
     6e4:	0a981800 	beq	fe6066ec <__bss_end__+0xfe5fc974>
     6e8:	80980000 	addshi	r0, r8, r0
     6ec:	30030000 	andcc	r0, r3, r0
     6f0:	01000001 	tsteq	r0, r1
     6f4:	b11405ba 			; <UNDEFINED> instruction: 0xb11405ba
     6f8:	4a00000a 	bmi	728 <__code_start__-0x78d8>
     6fc:	46000004 	strmi	r0, [r0], -r4
     700:	14000004 	strne	r0, [r0], #-4
     704:	00000aa5 	andeq	r0, r0, r5, lsr #21
     708:	00000470 	andeq	r0, r0, r0, ror r4
     70c:	0000046c 	andeq	r0, r0, ip, ror #8
     710:	00013019 	andeq	r3, r1, r9, lsl r0
     714:	0abd1a00 	beq	fef46f1c <__bss_end__+0xfef3d1a4>
     718:	04980000 	ldreq	r0, [r8], #0
     71c:	04940000 	ldreq	r0, [r4], #0
     720:	d8280000 	stmdale	r8!, {}	; <UNPREDICTABLE>
     724:	5400000a 	strpl	r0, [r0], #-10
     728:	10000080 	andne	r0, r0, r0, lsl #1
     72c:	01000000 	mrseq	r0, (UNDEF: 0)
     730:	076905a7 	strbeq	r0, [r9, -r7, lsr #11]!
     734:	f11c0000 			; <UNDEFINED> instruction: 0xf11c0000
     738:	1c00000a 	stcne	0, cr0, [r0], {10}
     73c:	00000ae5 	andeq	r0, r0, r5, ror #21
     740:	000afd1a 	andeq	pc, sl, sl, lsl sp	; <UNPREDICTABLE>
     744:	0004b800 	andeq	fp, r4, r0, lsl #16
     748:	0004b600 	andeq	fp, r4, r0, lsl #12
     74c:	0b071d00 	bleq	1c7b54 <__bss_end__+0x1bdddc>
     750:	80540000 	subshi	r0, r4, r0
     754:	00040000 	andeq	r0, r4, r0
     758:	081a0000 	ldmdaeq	sl, {}	; <UNPREDICTABLE>
     75c:	cd00000b 	stcgt	0, cr0, [r0, #-44]	; 0xffffffd4
     760:	cb000004 	blgt	778 <__code_start__-0x7888>
     764:	00000004 	andeq	r0, r0, r4
     768:	0ac92000 	beq	ff248770 <__bss_end__+0xff23e9f8>
     76c:	80980000 	addshi	r0, r8, r0
     770:	00040000 	andeq	r0, r4, r0
     774:	07880000 	streq	r0, [r8, r0]
     778:	ca1a0000 	bgt	680780 <__bss_end__+0x676a08>
     77c:	e600000a 	str	r0, [r0], -sl
     780:	e0000004 	and	r0, r0, r4
     784:	00000004 	andeq	r0, r0, r4
     788:	000b301f 	andeq	r3, fp, pc, lsl r0
     78c:	0080a000 	addeq	sl, r0, r0
     790:	80a00100 	adchi	r0, r0, r0, lsl #2
     794:	00080000 	andeq	r0, r8, r0
     798:	a6010000 	strge	r0, [r1], -r0
     79c:	0b3d1405 	bleq	f457b8 <__bss_end__+0xf3ba40>
     7a0:	05150000 	ldreq	r0, [r5, #-0]
     7a4:	05130000 	ldreq	r0, [r3, #-0]
     7a8:	00000000 	andeq	r0, r0, r0
     7ac:	f0130000 			; <UNDEFINED> instruction: 0xf0130000
     7b0:	64000009 	strvs	r0, [r0], #-9
     7b4:	02000080 	andeq	r0, r0, #128, 0	; 0x80
     7b8:	00000148 	andeq	r0, r0, r8, asr #2
     7bc:	9709d701 	strls	sp, [r9, -r1, lsl #14]
     7c0:	14000008 	strne	r0, [r0], #-8
     7c4:	000009fd 	strdeq	r0, [r0], -sp
     7c8:	0000052d 	andeq	r0, r0, sp, lsr #10
     7cc:	0000052b 	andeq	r0, r0, fp, lsr #10
     7d0:	000a581f 	andeq	r5, sl, pc, lsl r8
     7d4:	00806400 	addeq	r6, r0, r0, lsl #8
     7d8:	80640400 	rsbhi	r0, r4, r0, lsl #8
     7dc:	001c0000 	andseq	r0, ip, r0
     7e0:	c2010000 	andgt	r0, r1, #0, 0
     7e4:	0a711405 	beq	1c45800 <__bss_end__+0x1c3ba88>
     7e8:	05450000 	strbeq	r0, [r5, #-0]
     7ec:	05430000 	strbeq	r0, [r3, #-0]
     7f0:	65140000 	ldrvs	r0, [r4, #-0]
     7f4:	5d00000a 	stcpl	0, cr0, [r0, #-40]	; 0xffffffd8
     7f8:	5b000005 	blpl	814 <__code_start__-0x77ec>
     7fc:	1a000005 	bne	818 <__code_start__-0x77e8>
     800:	00000a7d 	andeq	r0, r0, sp, ror sl
     804:	00000575 	andeq	r0, r0, r5, ror r5
     808:	00000573 	andeq	r0, r0, r3, ror r5
     80c:	000a8920 	andeq	r8, sl, r0, lsr #18
     810:	00806400 	addeq	r6, r0, r0, lsl #8
     814:	00000400 	andeq	r0, r0, r0, lsl #8
     818:	00082b00 	andeq	r2, r8, r0, lsl #22
     81c:	0a8a1a00 	beq	fe287024 <__bss_end__+0xfe27d2ac>
     820:	058c0000 	streq	r0, [ip]
     824:	05880000 	streq	r0, [r8]
     828:	1e000000 	cdpne	0, 0, cr0, cr0, cr0, {0}
     82c:	00000b16 	andeq	r0, r0, r6, lsl fp
     830:	0000806c 	andeq	r8, r0, ip, rrx
     834:	00806c01 	addeq	r6, r0, r1, lsl #24
     838:	00000400 	andeq	r0, r0, r0, lsl #8
     83c:	05af0100 	streq	r0, [pc, #256]!	; 944 <__code_start__-0x76bc>
     840:	00000852 	andeq	r0, r0, r2, asr r8
     844:	000b2314 	andeq	r2, fp, r4, lsl r3
     848:	0005ae00 	andeq	sl, r5, r0, lsl #28
     84c:	0005ac00 	andeq	sl, r5, r0, lsl #24
     850:	d8210000 	stmdale	r1!, {}	; <UNPREDICTABLE>
     854:	7000000a 	andvc	r0, r0, sl
     858:	10000080 	andne	r0, r0, r0, lsl #1
     85c:	01000000 	mrseq	r0, (UNDEF: 0)
     860:	f11c05b0 			; <UNDEFINED> instruction: 0xf11c05b0
     864:	1c00000a 	stcne	0, cr0, [r0], {10}
     868:	00000ae5 	andeq	r0, r0, r5, ror #21
     86c:	000afd1a 	andeq	pc, sl, sl, lsl sp	; <UNPREDICTABLE>
     870:	0005c600 	andeq	ip, r5, r0, lsl #12
     874:	0005c400 	andeq	ip, r5, r0, lsl #8
     878:	0b071d00 	bleq	1c7c80 <__bss_end__+0x1bdf08>
     87c:	80700000 	rsbshi	r0, r0, r0
     880:	00040000 	andeq	r0, r4, r0
     884:	081a0000 	ldmdaeq	sl, {}	; <UNPREDICTABLE>
     888:	db00000b 	blle	8bc <__code_start__-0x7744>
     88c:	d9000005 	stmdble	r0, {r0, r2}
     890:	00000005 	andeq	r0, r0, r5
     894:	18000000 	stmdane	r0, {}	; <UNPREDICTABLE>
     898:	00000a0a 	andeq	r0, r0, sl, lsl #20
     89c:	000080c4 	andeq	r8, r0, r4, asr #1
     8a0:	00016002 	andeq	r6, r1, r2
     8a4:	09da0100 	ldmibeq	sl, {r8}^
     8a8:	000a1714 	andeq	r1, sl, r4, lsl r7
     8ac:	0005f000 	andeq	pc, r5, r0
     8b0:	0005ee00 	andeq	lr, r5, r0, lsl #28
     8b4:	0a581f00 	beq	16084bc <__bss_end__+0x15fe744>
     8b8:	80c40000 	sbchi	r0, r4, r0
     8bc:	c4040000 	strgt	r0, [r4], #-0
     8c0:	28000080 	stmdacs	r0, {r7}
     8c4:	01000000 	mrseq	r0, (UNDEF: 0)
     8c8:	712905be 			; <UNDEFINED> instruction: 0x712905be
     8cc:	e500000a 	str	r0, [r0, #-10]
     8d0:	000a6514 	andeq	r6, sl, r4, lsl r5
     8d4:	00060800 	andeq	r0, r6, r0, lsl #16
     8d8:	00060600 	andeq	r0, r6, r0, lsl #12
     8dc:	0a7d1a00 	beq	1f470e4 <__bss_end__+0x1f3d36c>
     8e0:	06200000 	strteq	r0, [r0], -r0
     8e4:	061e0000 	ldreq	r0, [lr], -r0
     8e8:	89200000 	stmdbhi	r0!, {}	; <UNPREDICTABLE>
     8ec:	c400000a 	strgt	r0, [r0], #-10
     8f0:	04000080 	streq	r0, [r0], #-128	; 0xffffff80
     8f4:	09000000 	stmdbeq	r0, {}	; <UNPREDICTABLE>
     8f8:	1a000009 	bne	924 <__code_start__-0x76dc>
     8fc:	00000a8a 	andeq	r0, r0, sl, lsl #21
     900:	00000637 	andeq	r0, r0, r7, lsr r6
     904:	00000633 	andeq	r0, r0, r3, lsr r6
     908:	0b161e00 	bleq	588110 <__bss_end__+0x57e398>
     90c:	80cc0000 	sbchi	r0, ip, r0
     910:	cc010000 	stcgt	0, cr0, [r1], {-0}
     914:	04000080 	streq	r0, [r0], #-128	; 0xffffff80
     918:	01000000 	mrseq	r0, (UNDEF: 0)
     91c:	093005af 	ldmdbeq	r0!, {r0, r1, r2, r3, r5, r7, r8, sl}
     920:	23140000 	tstcs	r4, #0, 0
     924:	5900000b 	stmdbpl	r0, {r0, r1, r3}
     928:	57000006 	strpl	r0, [r0, -r6]
     92c:	00000006 	andeq	r0, r0, r6
     930:	000ad821 	andeq	sp, sl, r1, lsr #16
     934:	0080d000 	addeq	sp, r0, r0
     938:	00001c00 	andeq	r1, r0, r0, lsl #24
     93c:	05b00100 	ldreq	r0, [r0, #256]!	; 0x100
     940:	000af11c 	andeq	pc, sl, ip, lsl r1	; <UNPREDICTABLE>
     944:	0ae51c00 	beq	ff94794c <__bss_end__+0xff93dbd4>
     948:	fd1a0000 	ldc2	0, cr0, [sl, #-0]
     94c:	7100000a 	tstvc	r0, sl
     950:	6f000006 	svcvs	0x00000006
     954:	1d000006 	stcne	0, cr0, [r0, #-24]	; 0xffffffe8
     958:	00000b07 	andeq	r0, r0, r7, lsl #22
     95c:	000080d0 	ldrdeq	r8, [r0], -r0
     960:	00000004 	andeq	r0, r0, r4
     964:	000b081a 	andeq	r0, fp, sl, lsl r8
     968:	00068600 	andeq	r8, r6, r0, lsl #12
     96c:	00068400 	andeq	r8, r6, r0, lsl #8
	...
     978:	a4230000 	strtge	r0, [r3], #-0
     97c:	01000000 	mrseq	r0, (UNDEF: 0)
     980:	a70314d3 			; <UNDEFINED> instruction: 0xa70314d3
     984:	24000009 	strcs	r0, [r0], #-9
     988:	006e6970 	rsbeq	r6, lr, r0, ror r9
     98c:	2c29d301 	stccs	3, cr13, [r9], #-4
     990:	24000000 	strcs	r0, [r0], #-0
     994:	d3010062 	movwle	r0, #4194	; 0x1062
     998:	00005436 	andeq	r5, r0, r6, lsr r4
     99c:	00e32a00 	rsceq	r2, r3, r0, lsl #20
     9a0:	09b70000 	ldmibeq	r7!, {}	; <UNPREDICTABLE>
     9a4:	2b000000 	blcs	9ac <__code_start__-0x7654>
     9a8:	000000b9 	strheq	r0, [r0], -r9
     9ac:	000009b7 			; <UNDEFINED> instruction: 0x000009b7
     9b0:	00002c2c 	andeq	r2, r0, ip, lsr #24
     9b4:	04000b00 	streq	r0, [r0], #-2816	; 0xfffff500
     9b8:	000009a7 	andeq	r0, r0, r7, lsr #19
     9bc:	00026e23 	andeq	r6, r2, r3, lsr #28
     9c0:	14ce0100 	strbne	r0, [lr], #256	; 0x100
     9c4:	0009d603 	andeq	sp, r9, r3, lsl #12
     9c8:	69702400 	ldmdbvs	r0!, {sl, sp}^
     9cc:	ce01006e 	cdpgt	0, 0, cr0, cr1, cr14, {3}
     9d0:	00002c27 	andeq	r2, r0, r7, lsr #24
     9d4:	9d230000 	stcls	0, cr0, [r3, #-0]
     9d8:	01000000 	mrseq	r0, (UNDEF: 0)
     9dc:	f00314c5 			; <UNDEFINED> instruction: 0xf00314c5
     9e0:	24000009 	strcs	r0, [r0], #-9
     9e4:	006e6970 	rsbeq	r6, lr, r0, ror r9
     9e8:	2c24c501 	cfstr32cs	mvfx12, [r4], #-4
     9ec:	00000000 	andeq	r0, r0, r0
     9f0:	6c30742d 	cfldrsvs	mvf7, [r0], #-180	; 0xffffff4c
     9f4:	14c10100 	strbne	r0, [r1], #256	; 0x100
     9f8:	000a0a03 	andeq	r0, sl, r3, lsl #20
     9fc:	69702400 	ldmdbvs	r0!, {sl, sp}^
     a00:	c101006e 	tstgt	r1, lr, rrx
     a04:	00002c21 	andeq	r2, r0, r1, lsr #24
     a08:	742d0000 	strtvc	r0, [sp], #-0
     a0c:	01006c31 	tsteq	r0, r1, lsr ip
     a10:	240314bd 	strcs	r1, [r3], #-1213	; 0xfffffb43
     a14:	2400000a 	strcs	r0, [r0], #-10
     a18:	006e6970 	rsbeq	r6, lr, r0, ror r9
     a1c:	2c21bd01 	stccs	13, cr11, [r1], #-4
     a20:	00000000 	andeq	r0, r0, r0
     a24:	6830742d 	ldmdavs	r0!, {r0, r2, r3, r5, sl, ip, sp, lr}
     a28:	14b90100 	ldrtne	r0, [r9], #256	; 0x100
     a2c:	000a3e03 	andeq	r3, sl, r3, lsl #28
     a30:	69702400 	ldmdbvs	r0!, {sl, sp}^
     a34:	b901006e 	stmdblt	r1, {r1, r2, r3, r5, r6}
     a38:	00002c21 	andeq	r2, r0, r1, lsr #24
     a3c:	742d0000 	strtvc	r0, [sp], #-0
     a40:	01006831 	tsteq	r0, r1, lsr r8
     a44:	580314b4 	stmdapl	r3, {r2, r4, r5, r7, sl, ip}
     a48:	2400000a 	strcs	r0, [r0], #-10
     a4c:	006e6970 	rsbeq	r6, lr, r0, ror r9
     a50:	2c21b401 	cfstrscs	mvf11, [r1], #-4
     a54:	00000000 	andeq	r0, r0, r0
     a58:	00000023 	andeq	r0, r0, r3, lsr #32
     a5c:	14ac0100 	strtne	r0, [ip], #256	; 0x100
     a60:	000a9803 	andeq	r9, sl, r3, lsl #16
     a64:	69702400 	ldmdbvs	r0!, {sl, sp}^
     a68:	ac01006e 	stcge	0, cr0, [r1], {110}	; 0x6e
     a6c:	00002c25 	andeq	r2, r0, r5, lsr #24
     a70:	00b62e00 	adcseq	r2, r6, r0, lsl #28
     a74:	ac010000 	stcge	0, cr0, [r1], {-0}
     a78:	00002c33 	andeq	r2, r0, r3, lsr ip
     a7c:	011e2f00 	tsteq	lr, r0, lsl #30
     a80:	ae010000 	cdpge	0, 0, cr0, cr1, cr0, {0}
     a84:	00002c0e 	andeq	r2, r0, lr, lsl #24
     a88:	1a2f3000 	bne	bcca90 <__bss_end__+0xbc2d18>
     a8c:	01000000 	mrseq	r0, (UNDEF: 0)
     a90:	002c1aae 	eoreq	r1, ip, lr, lsr #21
     a94:	00000000 	andeq	r0, r0, r0
     a98:	00000823 	andeq	r0, r0, r3, lsr #16
     a9c:	14a20100 	strtne	r0, [r2], #256	; 0x100
     aa0:	000ad803 	andeq	sp, sl, r3, lsl #16
     aa4:	69702400 	ldmdbvs	r0!, {sl, sp}^
     aa8:	a201006e 	andge	r0, r1, #110, 0	; 0x6e
     aac:	00002c25 	andeq	r2, r0, r5, lsr #24
     ab0:	00b62e00 	adcseq	r2, r6, r0, lsl #28
     ab4:	a2010000 	andge	r0, r1, #0, 0
     ab8:	00002c33 	andeq	r2, r0, r3, lsr ip
     abc:	011e2f00 	tsteq	lr, r0, lsl #30
     ac0:	a4010000 	strge	r0, [r1], #-0
     ac4:	00002c0e 	andeq	r2, r0, lr, lsl #24
     ac8:	1a2f3000 	bne	bccad0 <__bss_end__+0xbc2d58>
     acc:	01000000 	mrseq	r0, (UNDEF: 0)
     ad0:	002c1aa4 	eoreq	r1, ip, r4, lsr #21
     ad4:	00000000 	andeq	r0, r0, r0
     ad8:	0000b023 	andeq	fp, r0, r3, lsr #32
     adc:	14880100 	strne	r0, [r8], #256	; 0x100
     ae0:	000b1603 	andeq	r1, fp, r3, lsl #12
     ae4:	011e2e00 	tsteq	lr, r0, lsl #28
     ae8:	88010000 	stmdahi	r1, {}	; <UNPREDICTABLE>
     aec:	00002c2b 	andeq	r2, r0, fp, lsr #24
     af0:	00fd2e00 	rscseq	r2, sp, r0, lsl #28
     af4:	88010000 	stmdahi	r1, {}	; <UNPREDICTABLE>
     af8:	00002c3f 	andeq	r2, r0, pc, lsr ip
     afc:	00633100 	rsbeq	r3, r3, r0, lsl #2
     b00:	2c0e8901 			; <UNDEFINED> instruction: 0x2c0e8901
     b04:	30000000 	andcc	r0, r0, r0
     b08:	00001a2f 	andeq	r1, r0, pc, lsr #20
     b0c:	128a0100 	addne	r0, sl, #0
     b10:	0000002c 	andeq	r0, r0, ip, lsr #32
     b14:	83230000 			; <UNDEFINED> instruction: 0x83230000
     b18:	01000001 	tsteq	r0, r1
     b1c:	30031482 	andcc	r1, r3, r2, lsl #9
     b20:	2400000b 	strcs	r0, [r0], #-11
     b24:	006e6970 	rsbeq	r6, lr, r0, ror r9
     b28:	2c2e8201 	sfmcs	f0, 1, [lr], #-4
     b2c:	00000000 	andeq	r0, r0, r0
     b30:	00015a23 	andeq	r5, r1, r3, lsr #20
     b34:	147e0100 	ldrbtne	r0, [lr], #-256	; 0xffffff00
     b38:	000b4a03 	andeq	r4, fp, r3, lsl #20
     b3c:	69702400 	ldmdbvs	r0!, {sl, sp}^
     b40:	7e01006e 	cdpvc	0, 0, cr0, cr1, cr14, {3}
     b44:	00002c2d 	andeq	r2, r0, sp, lsr #24
     b48:	21320000 	teqcs	r2, r0
     b4c:	21000004 	tstcs	r0, r4
     b50:	03000004 	movweq	r0, #4
     b54:	72320628 	eorsvc	r0, r2, #40, 12	; 0x2800000
     b58:	72000001 	andvc	r0, r0, #1, 0
     b5c:	03000001 	movweq	r0, #1
     b60:	f0320658 			; <UNDEFINED> instruction: 0xf0320658
     b64:	f0000000 			; <UNDEFINED> instruction: 0xf0000000
     b68:	03000000 	movweq	r0, #0
     b6c:	2b3206a5 	blcs	c82608 <__bss_end__+0xc78890>
     b70:	2b000000 	blcs	b78 <__code_start__-0x7488>
     b74:	04000000 	streq	r0, [r0], #-0
     b78:	2a00061d 	bcs	23f4 <__code_start__-0x5c0c>
     b7c:	0400000d 	streq	r0, [r0], #-13
     b80:	0002c800 	andeq	ip, r2, r0, lsl #16
     b84:	9a010400 	bls	41b8c <__bss_end__+0x37e14>
     b88:	0c000001 	stceq	0, cr0, [r0], {1}
     b8c:	000002c7 	andeq	r0, r0, r7, asr #5
     b90:	0000003b 	andeq	r0, r0, fp, lsr r0
     b94:	000081e8 	andeq	r8, r0, r8, ror #3
     b98:	00000290 	muleq	r0, r0, r2
     b9c:	00000496 	muleq	r0, r6, r4
     ba0:	69050402 	stmdbvs	r5, {r1, sl}
     ba4:	0300746e 	movweq	r7, #1134	; 0x46e
     ba8:	01320704 	teqeq	r2, r4, lsl #14
     bac:	2c040000 	stccs	0, cr0, [r4], {-0}
     bb0:	03000000 	movweq	r0, #0
     bb4:	01120601 	tsteq	r2, r1, lsl #12
     bb8:	02030000 	andeq	r0, r3, #0, 0
     bbc:	00001005 	andeq	r1, r0, r5
     bc0:	05040300 	streq	r0, [r4, #-768]	; 0xfffffd00
     bc4:	000000c3 	andeq	r0, r0, r3, asr #1
     bc8:	be050803 	cdplt	8, 0, cr0, cr5, cr3, {0}
     bcc:	05000000 	streq	r0, [r0, #-0]
     bd0:	0000017b 	andeq	r0, r0, fp, ror r1
     bd4:	60182e03 	andsvs	r2, r8, r3, lsl #28
     bd8:	03000000 	movweq	r0, #0
     bdc:	01100801 	tsteq	r0, r1, lsl #16
     be0:	02030000 	andeq	r0, r3, #0, 0
     be4:	00014707 	andeq	r4, r1, r7, lsl #14
     be8:	02a50500 	adceq	r0, r5, #0, 10
     bec:	34030000 	strcc	r0, [r3], #-0
     bf0:	00007a19 	andeq	r7, r0, r9, lsl sl
     bf4:	07040300 	streq	r0, [r4, -r0, lsl #6]
     bf8:	0000012d 	andeq	r0, r0, sp, lsr #2
     bfc:	28070803 	stmdacs	r7, {r0, r1, fp}
     c00:	06000001 	streq	r0, [r0], -r1
     c04:	00000025 	andeq	r0, r0, r5, lsr #32
     c08:	00000097 	muleq	r0, r7, r0
     c0c:	00002507 	andeq	r2, r0, r7, lsl #10
     c10:	1f080000 	svcne	0x00080000
     c14:	04000000 	streq	r0, [r0], #-0
     c18:	00a30e1c 	adceq	r0, r3, ip, lsl lr
     c1c:	04090000 	streq	r0, [r9], #-0
     c20:	00000088 	andeq	r0, r0, r8, lsl #1
     c24:	00002506 	andeq	r2, r0, r6, lsl #10
     c28:	0000b800 	andeq	fp, r0, r0, lsl #16
     c2c:	00b80700 	adcseq	r0, r8, r0, lsl #14
     c30:	09000000 	stmdbeq	r0, {}	; <UNPREDICTABLE>
     c34:	0000c504 	andeq	ip, r0, r4, lsl #10
     c38:	08010300 	stmdaeq	r1, {r8, r9}
     c3c:	00000119 	andeq	r0, r0, r9, lsl r1
     c40:	0000be04 	andeq	fp, r0, r4, lsl #28
     c44:	045f0800 	ldrbeq	r0, [pc], #-2048	; c4c <__code_start__-0x73b4>
     c48:	21040000 	mrscs	r0, (UNDEF: 4)
     c4c:	0000d60e 	andeq	sp, r0, lr, lsl #12
     c50:	a9040900 	stmdbge	r4, {r8, fp}
     c54:	05000000 	streq	r0, [r0, #-0]
     c58:	000002d2 	ldrdeq	r0, [r0], -r2
     c5c:	e81c0305 	ldmda	ip, {r0, r2, r8, r9}
     c60:	09000000 	stmdbeq	r0, {}	; <UNPREDICTABLE>
     c64:	0000ee04 	andeq	lr, r0, r4, lsl #28
     c68:	02600a00 	rsbeq	r0, r0, #0, 20
     c6c:	02080000 	andeq	r0, r8, #0, 0
     c70:	01230816 			; <UNDEFINED> instruction: 0x01230816
     c74:	700b0000 	andvc	r0, fp, r0
     c78:	02006e69 	andeq	r6, r0, #1680	; 0x690
     c7c:	00540d17 	subseq	r0, r4, r7, lsl sp
     c80:	0c000000 	stceq	0, cr0, [r0], {-0}
     c84:	000002ae 	andeq	r0, r0, lr, lsr #5
     c88:	6e0e1802 	cdpvs	8, 0, cr1, cr14, cr2, {0}
     c8c:	04000000 	streq	r0, [r0], #-0
     c90:	0002590c 	andeq	r5, r2, ip, lsl #18
     c94:	161b0200 	ldrne	r0, [fp], -r0, lsl #4
     c98:	0000018f 	andeq	r0, r0, pc, lsl #3
     c9c:	070d0008 	streq	r0, [sp, -r8]
     ca0:	00006702 	andeq	r6, r0, r2, lsl #14
     ca4:	0a4b0100 	beq	12c10ac <__bss_end__+0x12b7334>
     ca8:	00000153 	andeq	r0, r0, r3, asr r1
     cac:	4831540e 	ldmdami	r1!, {r1, r2, r3, sl, ip, lr}
     cb0:	0f027600 	svceq	0x00027600
     cb4:	00483054 	subeq	r3, r8, r4, asr r0
     cb8:	31540ff5 	ldrshcc	r0, [r4, #-245]	; 0xffffff0b
     cbc:	0ef5004c 	cdpeq	0, 15, cr0, cr5, cr12, {2}
     cc0:	004c3054 	subeq	r3, ip, r4, asr r0
     cc4:	94100276 	ldrls	r0, [r0], #-630	; 0xfffffd8a
     cc8:	10000001 	andne	r0, r0, r1
     ccc:	cc1100a4 	ldcgt	0, cr0, [r1], {164}	; 0xa4
     cd0:	01000000 	mrseq	r0, (UNDEF: 0)
     cd4:	0033179c 	mlaseq	r3, ip, r7, r1
     cd8:	0a100000 	beq	400ce0 <__bss_end__+0x3f6f68>
     cdc:	0000024f 	andeq	r0, r0, pc, asr #4
     ce0:	08100203 	ldmdaeq	r0, {r0, r1, r9}
     ce4:	0000018f 	andeq	r0, r0, pc, lsl #3
     ce8:	0200720b 	andeq	r7, r0, #-1342177280	; 0xb0000000
     cec:	00540d11 	subseq	r0, r4, r1, lsl sp
     cf0:	0b000000 	bleq	cf8 <__code_start__-0x7308>
     cf4:	11020067 	tstne	r2, r7, rrx
     cf8:	0000540f 	andeq	r5, r0, pc, lsl #8
     cfc:	620b0100 	andvs	r0, fp, #0
     d00:	11110200 	tstne	r1, r0, lsl #4
     d04:	00000054 	andeq	r0, r0, r4, asr r0
     d08:	60120002 	andsvs	r0, r2, r2
     d0c:	9e000001 	cdpls	0, 0, cr0, cr0, cr1, {0}
     d10:	13000001 	movwne	r0, #1
     d14:	0000002c 	andeq	r0, r0, ip, lsr #32
     d18:	028c1400 	addeq	r1, ip, #0, 8
     d1c:	4b020000 	blmi	80d24 <__bss_end__+0x76fac>
     d20:	00845006 	addeq	r5, r4, r6
     d24:	00002800 	andeq	r2, r0, r0, lsl #16
     d28:	069c0100 	ldreq	r0, [ip], r0, lsl #2
     d2c:	15000002 	strne	r0, [r0, #-2]
     d30:	4b020068 	blmi	80ed8 <__bss_end__+0x77160>
     d34:	0000dc19 	andeq	sp, r0, r9, lsl ip
     d38:	00069d00 	andeq	r9, r6, r0, lsl #26
     d3c:	00069900 	andeq	r9, r6, r0, lsl #18
     d40:	6f701500 	svcvs	0x00701500
     d44:	4b020073 	blmi	80f18 <__bss_end__+0x771a0>
     d48:	00006e25 	andeq	r6, r0, r5, lsr #28
     d4c:	0006c200 	andeq	ip, r6, r0, lsl #4
     d50:	0006be00 	andeq	fp, r6, r0, lsl #28
     d54:	00721600 	rsbseq	r1, r2, r0, lsl #12
     d58:	54324b02 	ldrtpl	r4, [r2], #-2818	; 0xfffff4fe
     d5c:	01000000 	mrseq	r0, (UNDEF: 0)
     d60:	00671552 	rsbeq	r1, r7, r2, asr r5
     d64:	543d4b02 	ldrtpl	r4, [sp], #-2818	; 0xfffff4fe
     d68:	e7000000 	str	r0, [r0, -r0]
     d6c:	e3000006 	movw	r0, #6
     d70:	16000006 	strne	r0, [r0], -r6
     d74:	4b020062 	blmi	80f04 <__bss_end__+0x7718c>
     d78:	00005448 	andeq	r5, r0, r8, asr #8
     d7c:	00910200 	addseq	r0, r1, r0, lsl #4
     d80:	02781400 	rsbseq	r1, r8, #0, 8
     d84:	46020000 	strmi	r0, [r2], -r0
     d88:	00844006 	addeq	r4, r4, r6
     d8c:	00001000 	andeq	r1, r0, r0
     d90:	409c0100 	addsmi	r0, ip, r0, lsl #2
     d94:	15000002 	strne	r0, [r0, #-2]
     d98:	46020068 	strmi	r0, [r2], -r8, rrx
     d9c:	0000dc19 	andeq	sp, r0, r9, lsl ip
     da0:	00070a00 	andeq	r0, r7, r0, lsl #20
     da4:	00070600 	andeq	r0, r7, r0, lsl #12
     da8:	844c1700 	strbhi	r1, [ip], #-1792	; 0xfffff900
     dac:	02400000 	subeq	r0, r0, #0, 0
     db0:	01180000 	tsteq	r8, r0
     db4:	01f30350 	mvnseq	r0, r0, asr r3
     db8:	14000050 	strne	r0, [r0], #-80	; 0xffffffb0
     dbc:	000002b5 			; <UNDEFINED> instruction: 0x000002b5
     dc0:	e8064002 	stmda	r6, {r1, lr}
     dc4:	58000083 	stmdapl	r0, {r0, r1, r7}
     dc8:	01000000 	mrseq	r0, (UNDEF: 0)
     dcc:	00033b9c 	muleq	r3, ip, fp
     dd0:	00681500 	rsbeq	r1, r8, r0, lsl #10
     dd4:	dc1e4002 	ldcle	0, cr4, [lr], {2}
     dd8:	2f000000 	svccs	0x00000000
     ddc:	2b000007 	blcs	e00 <__code_start__-0x7200>
     de0:	15000007 	strne	r0, [r0, #-7]
     de4:	4002006e 	andmi	r0, r2, lr, rrx
     de8:	00002c2a 	andeq	r2, r0, sl, lsr #24
     dec:	00075100 	andeq	r5, r7, r0, lsl #2
     df0:	00074d00 	andeq	r4, r7, r0, lsl #26
     df4:	83f01900 	mvnshi	r1, #0, 18
     df8:	00440000 	subeq	r0, r4, r0
     dfc:	032a0000 			; <UNDEFINED> instruction: 0x032a0000
     e00:	691a0000 	ldmdbvs	sl, {}	; <UNPREDICTABLE>
     e04:	0d410200 	sfmeq	f0, 2, [r1, #-0]
     e08:	00000025 	andeq	r0, r0, r5, lsr #32
     e0c:	00000773 	andeq	r0, r0, r3, ror r7
     e10:	0000076f 	andeq	r0, r0, pc, ror #14
     e14:	0006cd1b 	andeq	ip, r6, fp, lsl sp
     e18:	00840400 	addeq	r0, r4, r0, lsl #8
     e1c:	04300000 	ldrteq	r0, [r0], #-0
     e20:	42020000 	andmi	r0, r2, #0, 0
     e24:	06fa1c09 	ldrbteq	r1, [sl], r9, lsl #24
     e28:	07940000 	ldreq	r0, [r4, r0]
     e2c:	07920000 	ldreq	r0, [r2, r0]
     e30:	f01c0000 			; <UNDEFINED> instruction: 0xf01c0000
     e34:	94000006 	strls	r0, [r0], #-6
     e38:	92000007 	andls	r0, r0, #7, 0
     e3c:	1c000007 	stcne	0, cr0, [r0], {7}
     e40:	000006e6 	andeq	r0, r0, r6, ror #13
     e44:	00000794 	muleq	r0, r4, r7
     e48:	00000792 	muleq	r0, r2, r7
     e4c:	0006da1c 	andeq	sp, r6, ip, lsl sl
     e50:	0007aa00 	andeq	sl, r7, r0, lsl #20
     e54:	0007a800 	andeq	sl, r7, r0, lsl #16
     e58:	84101d00 	ldrhi	r1, [r0], #-3328	; 0xfffff300
     e5c:	07050000 	streq	r0, [r5, -r0]
     e60:	02f80000 	rscseq	r0, r8, #0, 0
     e64:	01180000 	tsteq	r8, r0
     e68:	00740250 	rsbseq	r0, r4, r0, asr r2
     e6c:	02510118 	subseq	r0, r1, #6
     e70:	1d000075 	stcne	0, cr0, [r0, #-468]	; 0xfffffe2c
     e74:	0000841c 	andeq	r8, r0, ip, lsl r4
     e78:	00000705 	andeq	r0, r0, r5, lsl #14
     e7c:	00000312 	andeq	r0, r0, r2, lsl r3
     e80:	02500118 	subseq	r0, r0, #6
     e84:	01180074 	tsteq	r8, r4, ror r0
     e88:	00750251 	rsbseq	r0, r5, r1, asr r2
     e8c:	84281700 	strthi	r1, [r8], #-1792	; 0xfffff900
     e90:	07050000 	streq	r0, [r5, -r0]
     e94:	01180000 	tsteq	r8, r0
     e98:	00740250 	rsbseq	r0, r4, r0, asr r2
     e9c:	02510118 	subseq	r0, r1, #6
     ea0:	00000075 	andeq	r0, r0, r5, ror r0
     ea4:	843c1700 	ldrthi	r1, [ip], #-1792	; 0xfffff900
     ea8:	04d40000 	ldrbeq	r0, [r4], #0
     eac:	01180000 	tsteq	r8, r0
     eb0:	00780250 	rsbseq	r0, r8, r0, asr r2
     eb4:	e0140000 	ands	r0, r4, r0
     eb8:	02000002 	andeq	r0, r0, #2, 0
     ebc:	83b0063b 	movshi	r0, #61865984	; 0x3b00000
     ec0:	00380000 	eorseq	r0, r8, r0
     ec4:	9c010000 	stcls	0, cr0, [r1], {-0}
     ec8:	00000428 	andeq	r0, r0, r8, lsr #8
     ecc:	02006815 	andeq	r6, r0, #1376256	; 0x150000
     ed0:	00dc1d3b 	sbcseq	r1, ip, fp, lsr sp
     ed4:	07c10000 	strbeq	r0, [r1, r0]
     ed8:	07bd0000 	ldreq	r0, [sp, r0]!
     edc:	72150000 	andsvc	r0, r5, #0, 0
     ee0:	283b0200 	ldmdacs	fp!, {r9}
     ee4:	00000054 	andeq	r0, r0, r4, asr r0
     ee8:	000007e6 	andeq	r0, r0, r6, ror #15
     eec:	000007e2 	andeq	r0, r0, r2, ror #15
     ef0:	02006715 	andeq	r6, r0, #5505024	; 0x540000
     ef4:	0054333b 	subseq	r3, r4, fp, lsr r3
     ef8:	080b0000 	stmdaeq	fp, {}	; <UNPREDICTABLE>
     efc:	08070000 	stmdaeq	r7, {}	; <UNPREDICTABLE>
     f00:	62150000 	andsvs	r0, r5, #0, 0
     f04:	3e3b0200 	cdpcc	2, 3, cr0, cr11, cr0, {0}
     f08:	00000054 	andeq	r0, r0, r4, asr r0
     f0c:	00000830 	andeq	r0, r0, r0, lsr r8
     f10:	0000082c 	andeq	r0, r0, ip, lsr #16
     f14:	0006cd1e 	andeq	ip, r6, lr, lsl sp
     f18:	0083c000 	addeq	ip, r3, r0
     f1c:	83c00000 	bichi	r0, r0, #0, 0
     f20:	00240000 	eoreq	r0, r4, r0
     f24:	3c020000 	stccc	0, cr0, [r2], {-0}
     f28:	06fa1c05 	ldrbteq	r1, [sl], r5, lsl #24
     f2c:	08530000 	ldmdaeq	r3, {}^	; <UNPREDICTABLE>
     f30:	08510000 	ldmdaeq	r1, {}^	; <UNPREDICTABLE>
     f34:	f01c0000 			; <UNDEFINED> instruction: 0xf01c0000
     f38:	6a000006 	bvs	f58 <__code_start__-0x70a8>
     f3c:	66000008 	strvs	r0, [r0], -r8
     f40:	1c000008 	stcne	0, cr0, [r0], {8}
     f44:	000006e6 	andeq	r0, r0, r6, ror #13
     f48:	0000088d 	andeq	r0, r0, sp, lsl #17
     f4c:	0000088b 	andeq	r0, r0, fp, lsl #17
     f50:	0006da1c 	andeq	sp, r6, ip, lsl sl
     f54:	0008a200 	andeq	sl, r8, r0, lsl #4
     f58:	0008a000 	andeq	sl, r8, r0
     f5c:	83cc1d00 	bichi	r1, ip, #0, 26
     f60:	07050000 	streq	r0, [r5, -r0]
     f64:	03f60000 	mvnseq	r0, #0, 0
     f68:	01180000 	tsteq	r8, r0
     f6c:	00740250 	rsbseq	r0, r4, r0, asr r2
     f70:	83d81d00 	bicshi	r1, r8, #0, 26
     f74:	07050000 	streq	r0, [r5, -r0]
     f78:	04100000 	ldreq	r0, [r0], #-0
     f7c:	01180000 	tsteq	r8, r0
     f80:	00740250 	rsbseq	r0, r4, r0, asr r2
     f84:	02510118 	subseq	r0, r1, #6
     f88:	17000076 	smlsdxne	r0, r6, r0, r0
     f8c:	000083e4 	andeq	r8, r0, r4, ror #7
     f90:	00000705 	andeq	r0, r0, r5, lsl #14
     f94:	02500118 	subseq	r0, r0, #6
     f98:	01180074 	tsteq	r8, r4, ror r0
     f9c:	00750251 	rsbseq	r0, r5, r1, asr r2
     fa0:	1f000000 	svcne	0x00000000
     fa4:	00000299 	muleq	r0, r9, r2
     fa8:	dc072e02 	stcle	14, cr2, [r7], {2}
     fac:	6c000000 	stcvs	0, cr0, [r0], {-0}
     fb0:	44000083 	strmi	r0, [r0], #-131	; 0xffffff7d
     fb4:	01000000 	mrseq	r0, (UNDEF: 0)
     fb8:	0004d49c 	muleq	r4, ip, r4
     fbc:	69701500 	ldmdbvs	r0!, {r8, sl, ip}^
     fc0:	2e02006e 	cdpcs	0, 0, cr0, cr2, cr14, {3}
     fc4:	0000541b 	andeq	r5, r0, fp, lsl r4
     fc8:	0008b900 	andeq	fp, r8, r0, lsl #18
     fcc:	0008b500 	andeq	fp, r8, r0, lsl #10
     fd0:	02ae2000 	adceq	r2, lr, #0, 0
     fd4:	2e020000 	cdpcs	0, 0, cr0, cr2, cr0, {0}
     fd8:	00002c29 	andeq	r2, r0, r9, lsr #24
     fdc:	0008de00 	andeq	sp, r8, r0, lsl #28
     fe0:	0008da00 	andeq	sp, r8, r0, lsl #20
     fe4:	00681a00 	rsbeq	r1, r8, r0, lsl #20
     fe8:	dc0b2f02 	stcle	15, cr2, [fp], {2}
     fec:	00000000 	andeq	r0, r0, r0
     ff0:	fc000009 	stc2	0, cr0, [r0], {9}
     ff4:	21000008 	tstcs	r0, r8
     ff8:	000009b9 			; <UNDEFINED> instruction: 0x000009b9
     ffc:	2c0e3002 	stccs	0, cr3, [lr], {2}
    1000:	20000000 	andcs	r0, r0, r0
    1004:	1e000009 	cdpne	0, 0, cr0, cr0, cr9, {0}
    1008:	1d000009 	stcne	0, cr0, [r0, #-36]	; 0xffffffdc
    100c:	00008388 	andeq	r8, r0, r8, lsl #7
    1010:	00000d09 	andeq	r0, r0, r9, lsl #26
    1014:	000004a4 	andeq	r0, r0, r4, lsr #9
    1018:	02500118 	subseq	r0, r0, #6
    101c:	1d000077 	stcne	0, cr0, [r0, #-476]	; 0xfffffe24
    1020:	00008398 	muleq	r0, r8, r3
    1024:	00000d15 	andeq	r0, r0, r5, lsl sp
    1028:	000004c3 	andeq	r0, r0, r3, asr #9
    102c:	02500118 	subseq	r0, r0, #6
    1030:	01180074 	tsteq	r8, r4, ror r0
    1034:	18300151 	ldmdane	r0!, {r0, r4, r6, r8}
    1038:	77025201 	strvc	r5, [r2, -r1, lsl #4]
    103c:	a8170000 	ldmdage	r7, {}	; <UNPREDICTABLE>
    1040:	21000083 	smlabbcs	r0, r3, r0, r0
    1044:	1800000d 	stmdane	r0, {r0, r2, r3}
    1048:	76025001 	strvc	r5, [r2], -r1
    104c:	14000000 	strne	r0, [r0], #-0
    1050:	0000026b 	andeq	r0, r0, fp, ror #4
    1054:	9c061e02 	stcls	14, cr1, [r6], {2}
    1058:	d0000082 	andle	r0, r0, r2, lsl #1
    105c:	01000000 	mrseq	r0, (UNDEF: 0)
    1060:	0006cd9c 	muleq	r6, ip, sp
    1064:	00681500 	rsbeq	r1, r8, r0, lsl #10
    1068:	dc191e02 	ldcle	14, cr1, [r9], {2}
    106c:	3b000000 	blcc	1074 <__code_start__-0x6f8c>
    1070:	33000009 	movwcc	r0, #9
    1074:	19000009 	stmdbne	r0, {r0, r3}
    1078:	000082a4 	andeq	r8, r0, r4, lsr #5
    107c:	00000058 	andeq	r0, r0, r8, asr r0
    1080:	000005aa 	andeq	r0, r0, sl, lsr #11
    1084:	0200691a 	andeq	r6, r0, #425984	; 0x68000
    1088:	002c1321 	eoreq	r1, ip, r1, lsr #6
    108c:	09760000 	ldmdbeq	r6!, {}^	; <UNPREDICTABLE>
    1090:	09720000 	ldmdbeq	r2!, {}^	; <UNPREDICTABLE>
    1094:	cd1e0000 	ldcgt	0, cr0, [lr, #-0]
    1098:	c4000006 	strgt	r0, [r0], #-6
    109c:	00000082 	andeq	r0, r0, r2, lsl #1
    10a0:	000082c4 	andeq	r8, r0, r4, asr #5
    10a4:	00000024 	andeq	r0, r0, r4, lsr #32
    10a8:	1c092202 	sfmne	f2, 4, [r9], {2}
    10ac:	000006fa 	strdeq	r0, [r0], -sl
    10b0:	00000997 	muleq	r0, r7, r9
    10b4:	00000995 	muleq	r0, r5, r9
    10b8:	0006f01c 	andeq	pc, r6, ip, lsl r0	; <UNPREDICTABLE>
    10bc:	0009ac00 	andeq	sl, r9, r0, lsl #24
    10c0:	0009aa00 	andeq	sl, r9, r0, lsl #20
    10c4:	06e61c00 	strbteq	r1, [r6], r0, lsl #24
    10c8:	09c20000 	stmibeq	r2, {}^	; <UNPREDICTABLE>
    10cc:	09c00000 	stmibeq	r0, {}^	; <UNPREDICTABLE>
    10d0:	da1c0000 	ble	7010d8 <__bss_end__+0x6f7360>
    10d4:	d7000006 	strle	r0, [r0, -r6]
    10d8:	d5000009 	strle	r0, [r0, #-9]
    10dc:	1d000009 	stcne	0, cr0, [r0, #-36]	; 0xffffffdc
    10e0:	000082d0 	ldrdeq	r8, [r0], -r0
    10e4:	00000705 	andeq	r0, r0, r5, lsl #14
    10e8:	00000578 	andeq	r0, r0, r8, ror r5
    10ec:	02500118 	subseq	r0, r0, #6
    10f0:	1d000076 	stcne	0, cr0, [r0, #-472]	; 0xfffffe28
    10f4:	000082dc 	ldrdeq	r8, [r0], -ip
    10f8:	00000705 	andeq	r0, r0, r5, lsl #14
    10fc:	00000592 	muleq	r0, r2, r5
    1100:	02500118 	subseq	r0, r0, #6
    1104:	01180076 	tsteq	r8, r6, ror r0
    1108:	00790251 	rsbseq	r0, r9, r1, asr r2
    110c:	82e81700 	rschi	r1, r8, #0, 14
    1110:	07050000 	streq	r0, [r5, -r0]
    1114:	01180000 	tsteq	r8, r0
    1118:	00760250 	rsbseq	r0, r6, r0, asr r2
    111c:	02510118 	subseq	r0, r1, #6
    1120:	00000078 	andeq	r0, r0, r8, ror r0
    1124:	832c1900 			; <UNDEFINED> instruction: 0x832c1900
    1128:	00400000 	subeq	r0, r0, r0
    112c:	05ca0000 	strbeq	r0, [sl]
    1130:	691a0000 	ldmdbvs	sl, {}	; <UNPREDICTABLE>
    1134:	13270200 			; <UNDEFINED> instruction: 0x13270200
    1138:	0000002c 	andeq	r0, r0, ip, lsr #32
    113c:	000009ec 	andeq	r0, r0, ip, ror #19
    1140:	000009ea 	andeq	r0, r0, sl, ror #19
    1144:	0b7b1b00 	bleq	1ec7d4c <__bss_end__+0x1ebdfd4>
    1148:	82fc0000 	rscshi	r0, ip, #0, 0
    114c:	f0020000 			; <UNDEFINED> instruction: 0xf0020000
    1150:	02000003 	andeq	r0, r0, #3, 0
    1154:	881c0525 	ldmdahi	ip, {r0, r2, r5, r8, sl}
    1158:	0600000b 	streq	r0, [r0], -fp
    115c:	0000000a 	andeq	r0, r0, sl
    1160:	1b00000a 	blne	1190 <__code_start__-0x6e70>
    1164:	00000b95 	muleq	r0, r5, fp
    1168:	000082fc 	strdeq	r8, [r0], -ip
    116c:	0003f804 	andeq	pc, r3, r4, lsl #16
    1170:	05cf0100 	strbeq	r0, [pc, #256]	; 1278 <__code_start__-0x6d88>
    1174:	000ba21c 	andeq	sl, fp, ip, lsl r2
    1178:	000a4300 	andeq	r4, sl, r0, lsl #6
    117c:	000a3d00 	andeq	r3, sl, r0, lsl #26
    1180:	0c171b00 			; <UNDEFINED> instruction: 0x0c171b00
    1184:	82fc0000 	rscshi	r0, ip, #0, 0
    1188:	00060000 	andeq	r0, r6, r0
    118c:	01000004 	tsteq	r0, r4
    1190:	301c05c6 	andscc	r0, ip, r6, asr #11
    1194:	7c00000c 	stcvc	0, cr0, [r0], {12}
    1198:	7a00000a 	bvc	11c8 <__code_start__-0x6e38>
    119c:	1c00000a 	stcne	0, cr0, [r0], {10}
    11a0:	00000c24 	andeq	r0, r0, r4, lsr #24
    11a4:	00000a98 	muleq	r0, r8, sl
    11a8:	00000a92 	muleq	r0, r2, sl
    11ac:	00040022 	andeq	r0, r4, r2, lsr #32
    11b0:	0c3c2300 	ldceq	3, cr2, [ip], #-0
    11b4:	0ad10000 	beq	ff4411bc <__bss_end__+0xff437444>
    11b8:	0acf0000 	beq	ff3c11c0 <__bss_end__+0xff3b7448>
    11bc:	48240000 	stmdami	r4!, {}	; <UNPREDICTABLE>
    11c0:	fc00000c 	stc2	0, cr0, [r0], {12}
    11c4:	04000082 	streq	r0, [r0], #-130	; 0xffffff7e
    11c8:	62000000 	andvs	r0, r0, #0, 0
    11cc:	23000006 	movwcs	r0, #6
    11d0:	00000c49 	andeq	r0, r0, r9, asr #24
    11d4:	00000ae8 	andeq	r0, r0, r8, ror #21
    11d8:	00000ae4 	andeq	r0, r0, r4, ror #21
    11dc:	0cd52500 	cfldr64eq	mvdx2, [r5], {0}
    11e0:	83040000 	movwhi	r0, #16384	; 0x4000
    11e4:	18010000 	stmdane	r1, {}	; <UNPREDICTABLE>
    11e8:	01000004 	tsteq	r0, r4
    11ec:	068505af 	streq	r0, [r5], pc, lsr #11
    11f0:	e21c0000 	ands	r0, ip, #0, 0
    11f4:	0e00000c 	cdpeq	0, 0, cr0, cr0, cr12, {0}
    11f8:	0800000b 	stmdaeq	r0, {r0, r1, r3}
    11fc:	0000000b 	andeq	r0, r0, fp
    1200:	000c9726 	andeq	r9, ip, r6, lsr #14
    1204:	00831800 	addeq	r1, r3, r0, lsl #16
    1208:	00001400 	andeq	r1, r0, r0, lsl #8
    120c:	05b00100 	ldreq	r0, [r0, #256]!	; 0x100
    1210:	000cb027 	andeq	fp, ip, r7, lsr #32
    1214:	0ca42700 	stceq	7, cr2, [r4]
    1218:	bc230000 	stclt	0, cr0, [r3], #-0
    121c:	4700000c 	strmi	r0, [r0, -ip]
    1220:	4500000b 	strmi	r0, [r0, #-11]
    1224:	2800000b 	stmdacs	r0, {r0, r1, r3}
    1228:	00000cc6 	andeq	r0, r0, r6, asr #25
    122c:	0000831c 	andeq	r8, r0, ip, lsl r3
    1230:	00000004 	andeq	r0, r0, r4
    1234:	000cc723 	andeq	ip, ip, r3, lsr #14
    1238:	000b5c00 	andeq	r5, fp, r0, lsl #24
    123c:	000b5a00 	andeq	r5, fp, r0, lsl #20
	...
    1248:	0002e329 	andeq	lr, r2, r9, lsr #6
    124c:	14f00100 	ldrbtne	r0, [r0], #256	; 0x100
    1250:	00070503 	andeq	r0, r7, r3, lsl #10
    1254:	69702a00 	ldmdbvs	r0!, {r9, fp, sp}^
    1258:	f001006e 			; <UNDEFINED> instruction: 0xf001006e
    125c:	00002c2b 	andeq	r2, r0, fp, lsr #24
    1260:	00722a00 	rsbseq	r2, r2, r0, lsl #20
    1264:	5438f001 	ldrtpl	pc, [r8], #-1	; <UNPREDICTABLE>
    1268:	2a000000 	bcs	1270 <__code_start__-0x6d90>
    126c:	f0010067 			; <UNDEFINED> instruction: 0xf0010067
    1270:	00005443 	andeq	r5, r0, r3, asr #8
    1274:	00622a00 	rsbeq	r2, r2, r0, lsl #20
    1278:	544ef001 	strbpl	pc, [lr], #-1	; <UNPREDICTABLE>
    127c:	00000000 	andeq	r0, r0, r0
    1280:	0001032b 	andeq	r0, r1, fp, lsr #6
    1284:	0de30100 	stfeqe	f0, [r3]
    1288:	000081e8 	andeq	r8, r0, r8, ror #3
    128c:	000000b4 	strheq	r0, [r0], -r4
    1290:	0b399c01 	bleq	e6829c <__bss_end__+0xe5e524>
    1294:	70150000 	andsvc	r0, r5, r0
    1298:	01006e69 	tsteq	r0, r9, ror #28
    129c:	002c23e3 	eoreq	r2, ip, r3, ror #7
    12a0:	0b730000 	bleq	1cc12a8 <__bss_end__+0x1cb7530>
    12a4:	0b6f0000 	bleq	1bc12ac <__bss_end__+0x1bb7534>
    12a8:	62160000 	andsvs	r0, r6, #0, 0
    12ac:	30e30100 	rsccc	r0, r3, r0, lsl #2
    12b0:	00000054 	andeq	r0, r0, r4, asr r0
    12b4:	78225101 	stmdavc	r2!, {r0, r8, ip, lr}
    12b8:	1a000002 	bne	12c8 <__code_start__-0x6d38>
    12bc:	e401006a 	str	r0, [r1], #-106	; 0xffffff96
    12c0:	00002c13 	andeq	r2, r0, r3, lsl ip
    12c4:	000b9c00 	andeq	r9, fp, r0, lsl #24
    12c8:	000b9400 	andeq	r9, fp, r0, lsl #8
    12cc:	02a82200 	adceq	r2, r8, #0, 4
    12d0:	691a0000 	ldmdbvs	sl, {}	; <UNPREDICTABLE>
    12d4:	12e60100 	rscne	r0, r6, #0
    12d8:	0000002c 	andeq	r0, r0, ip, lsr #32
    12dc:	00000be3 	andeq	r0, r0, r3, ror #23
    12e0:	00000bdd 	ldrdeq	r0, [r0], -sp
    12e4:	000b391b 	andeq	r3, fp, fp, lsl r9
    12e8:	00823c00 	addeq	r3, r2, r0, lsl #24
    12ec:	02e00200 	rsceq	r0, r0, #0, 4
    12f0:	ea010000 	b	412f8 <__bss_end__+0x37580>
    12f4:	0b521c09 	bleq	1488320 <__bss_end__+0x147e5a8>
    12f8:	0c120000 	ldceq	0, cr0, [r2], {-0}
    12fc:	0c0e0000 	stceq	0, cr0, [lr], {-0}
    1300:	461c0000 	ldrmi	r0, [ip], -r0
    1304:	4800000b 	stmdami	r0, {r0, r1, r3}
    1308:	4400000c 	strmi	r0, [r0], #-12
    130c:	2200000c 	andcs	r0, r0, #12, 0
    1310:	000002e0 	andeq	r0, r0, r0, ror #5
    1314:	000bfd25 	andeq	pc, fp, r5, lsr #26
    1318:	00825800 	addeq	r5, r2, r0, lsl #16
    131c:	03200200 	nopeq	{0}	; <UNPREDICTABLE>
    1320:	d9010000 	stmdble	r1, {}	; <UNPREDICTABLE>
    1324:	00088209 	andeq	r8, r8, r9, lsl #4
    1328:	0c0a1c00 	stceq	12, cr1, [sl], {-0}
    132c:	0c6e0000 	stcleq	0, cr0, [lr], #-0
    1330:	0c6c0000 	stcleq	0, cr0, [ip], #-0
    1334:	571b0000 	ldrpl	r0, [fp, -r0]
    1338:	5800000c 	stmdapl	r0, {r2, r3}
    133c:	04000082 	streq	r0, [r0], #-130	; 0xffffff7e
    1340:	00000340 	andeq	r0, r0, r0, asr #6
    1344:	1c05b501 	cfstr32ne	mvfx11, [r5], {1}
    1348:	00000c70 	andeq	r0, r0, r0, ror ip
    134c:	00000c86 	andeq	r0, r0, r6, lsl #25
    1350:	00000c84 	andeq	r0, r0, r4, lsl #25
    1354:	000c641c 	andeq	r6, ip, ip, lsl r4
    1358:	000c9e00 	andeq	r9, ip, r0, lsl #28
    135c:	000c9c00 	andeq	r9, ip, r0, lsl #24
    1360:	03402200 	movteq	r2, #512	; 0x200
    1364:	7c230000 	stcvc	0, cr0, [r3], #-0
    1368:	b600000c 	strlt	r0, [r0], -ip
    136c:	b400000c 	strlt	r0, [r0], #-12
    1370:	2500000c 	strcs	r0, [r0, #-12]
    1374:	00000cef 	andeq	r0, r0, pc, ror #25
    1378:	00008260 	andeq	r8, r0, r0, ror #4
    137c:	00035801 	andeq	r5, r3, r1, lsl #16
    1380:	05a60100 	streq	r0, [r6, #256]!	; 0x100
    1384:	0000081b 	andeq	r0, r0, fp, lsl r8
    1388:	000cfc1c 	andeq	pc, ip, ip, lsl ip	; <UNPREDICTABLE>
    138c:	000ccb00 	andeq	ip, ip, r0, lsl #22
    1390:	000cc900 	andeq	ip, ip, r0, lsl #18
    1394:	972c0000 	strls	r0, [ip, -r0]!
    1398:	7000000c 	andvc	r0, r0, ip
    139c:	01000003 	tsteq	r0, r3
    13a0:	086405a7 	stmdaeq	r4!, {r0, r1, r2, r5, r7, r8, sl}^
    13a4:	b0270000 	eorlt	r0, r7, r0
    13a8:	2700000c 	strcs	r0, [r0, -ip]
    13ac:	00000ca4 	andeq	r0, r0, r4, lsr #25
    13b0:	00037022 	andeq	r7, r3, r2, lsr #32
    13b4:	0cbc2300 	ldceq	3, cr2, [ip]
    13b8:	0ce30000 	stcleq	0, cr0, [r3]
    13bc:	0ce10000 	stcleq	0, cr0, [r1]
    13c0:	c6280000 	strtgt	r0, [r8], -r0
    13c4:	6400000c 	strvs	r0, [r0], #-12
    13c8:	04000082 	streq	r0, [r0], #-130	; 0xffffff7e
    13cc:	23000000 	movwcs	r0, #0
    13d0:	00000cc7 	andeq	r0, r0, r7, asr #25
    13d4:	00000cf8 	strdeq	r0, [r0], -r8
    13d8:	00000cf6 	strdeq	r0, [r0], -r6
    13dc:	28000000 	stmdacs	r0, {}	; <UNPREDICTABLE>
    13e0:	00000c88 	andeq	r0, r0, r8, lsl #25
    13e4:	00008258 	andeq	r8, r0, r8, asr r2
    13e8:	00000004 	andeq	r0, r0, r4
    13ec:	000c8923 	andeq	r8, ip, r3, lsr #18
    13f0:	000d0f00 	andeq	r0, sp, r0, lsl #30
    13f4:	000d0b00 	andeq	r0, sp, r0, lsl #22
    13f8:	00000000 	andeq	r0, r0, r0
    13fc:	0be32500 	bleq	ff8ca804 <__bss_end__+0xff8c0a8c>
    1400:	82480000 	subhi	r0, r8, #0, 0
    1404:	88010000 	stmdahi	r1, {}	; <UNPREDICTABLE>
    1408:	01000003 	tsteq	r0, r3
    140c:	096d09d6 	stmdbeq	sp!, {r1, r2, r4, r6, r7, r8, fp}^
    1410:	f01c0000 			; <UNDEFINED> instruction: 0xf01c0000
    1414:	3300000b 	movwcc	r0, #11
    1418:	2f00000d 	svccs	0x0000000d
    141c:	1b00000d 	blne	1458 <__code_start__-0x6ba8>
    1420:	00000c57 	andeq	r0, r0, r7, asr ip
    1424:	00008248 	andeq	r8, r0, r8, asr #4
    1428:	0003a803 	andeq	sl, r3, r3, lsl #16
    142c:	05ba0100 	ldreq	r0, [sl, #256]!	; 0x100
    1430:	000c701c 	andeq	r7, ip, ip, lsl r0
    1434:	000d5b00 	andeq	r5, sp, r0, lsl #22
    1438:	000d5700 	andeq	r5, sp, r0, lsl #14
    143c:	0c641c00 	stcleq	12, cr1, [r4], #-0
    1440:	0d810000 	stceq	0, cr0, [r1]
    1444:	0d7d0000 	ldcleq	0, cr0, [sp, #-0]
    1448:	a8220000 	stmdage	r2!, {}	; <UNPREDICTABLE>
    144c:	23000003 	movwcs	r0, #3
    1450:	00000c7c 	andeq	r0, r0, ip, ror ip
    1454:	00000da9 	andeq	r0, r0, r9, lsr #27
    1458:	00000da5 	andeq	r0, r0, r5, lsr #27
    145c:	000c972d 	andeq	r9, ip, sp, lsr #14
    1460:	00820400 	addeq	r0, r2, r0, lsl #8
    1464:	00001000 	andeq	r1, r0, r0
    1468:	05a70100 	streq	r0, [r7, #256]!	; 0x100
    146c:	00000928 	andeq	r0, r0, r8, lsr #18
    1470:	000cb027 	andeq	fp, ip, r7, lsr #32
    1474:	0ca42700 	stceq	7, cr2, [r4]
    1478:	bc230000 	stclt	0, cr0, [r3], #-0
    147c:	c900000c 	stmdbgt	r0, {r2, r3}
    1480:	c700000d 	strgt	r0, [r0, -sp]
    1484:	2800000d 	stmdacs	r0, {r0, r2, r3}
    1488:	00000cc6 	andeq	r0, r0, r6, asr #25
    148c:	00008204 	andeq	r8, r0, r4, lsl #4
    1490:	00000004 	andeq	r0, r0, r4
    1494:	000cc723 	andeq	ip, ip, r3, lsr #14
    1498:	000dde00 	andeq	sp, sp, r0, lsl #28
    149c:	000ddc00 	andeq	sp, sp, r0, lsl #24
    14a0:	24000000 	strcs	r0, [r0], #-0
    14a4:	00000c88 	andeq	r0, r0, r8, lsl #25
    14a8:	00008248 	andeq	r8, r0, r8, asr #4
    14ac:	00000004 	andeq	r0, r0, r4
    14b0:	00000947 	andeq	r0, r0, r7, asr #18
    14b4:	000c8923 	andeq	r8, ip, r3, lsr #18
    14b8:	000df700 	andeq	pc, sp, r0, lsl #14
    14bc:	000df100 	andeq	pc, sp, r0, lsl #2
    14c0:	ef1e0000 	svc	0x001e0000
    14c4:	5000000c 	andpl	r0, r0, ip
    14c8:	01000082 	smlabbeq	r0, r2, r0, r0
    14cc:	00008250 	andeq	r8, r0, r0, asr r2
    14d0:	00000008 	andeq	r0, r0, r8
    14d4:	1c05a601 	stcne	6, cr10, [r5], {1}
    14d8:	00000cfc 	strdeq	r0, [r0], -ip
    14dc:	00000e26 	andeq	r0, r0, r6, lsr #28
    14e0:	00000e24 	andeq	r0, r0, r4, lsr #28
    14e4:	00000000 	andeq	r0, r0, r0
    14e8:	000baf25 	andeq	sl, fp, r5, lsr #30
    14ec:	00821400 	addeq	r1, r2, r0, lsl #8
    14f0:	03c00200 	biceq	r0, r0, #0, 4
    14f4:	d7010000 	strle	r0, [r1, -r0]
    14f8:	000a5609 	andeq	r5, sl, r9, lsl #12
    14fc:	0bbc1c00 	bleq	fef08504 <__bss_end__+0xfeefe78c>
    1500:	0e3e0000 	cdpeq	0, 3, cr0, cr14, cr0, {0}
    1504:	0e3c0000 	cdpeq	0, 3, cr0, cr12, cr0, {0}
    1508:	171e0000 	ldrne	r0, [lr, -r0]
    150c:	1400000c 	strne	r0, [r0], #-12
    1510:	04000082 	streq	r0, [r0], #-130	; 0xffffff7e
    1514:	00008214 	andeq	r8, r0, r4, lsl r2
    1518:	0000001c 	andeq	r0, r0, ip, lsl r0
    151c:	1c05c201 	sfmne	f4, 1, [r5], {1}
    1520:	00000c30 	andeq	r0, r0, r0, lsr ip
    1524:	00000e56 	andeq	r0, r0, r6, asr lr
    1528:	00000e54 	andeq	r0, r0, r4, asr lr
    152c:	000c241c 	andeq	r2, ip, ip, lsl r4
    1530:	000e6e00 	andeq	r6, lr, r0, lsl #28
    1534:	000e6c00 	andeq	r6, lr, r0, lsl #24
    1538:	0c3c2300 	ldceq	3, cr2, [ip], #-0
    153c:	0e860000 	cdpeq	0, 8, cr0, cr6, cr0, {0}
    1540:	0e840000 	cdpeq	0, 8, cr0, cr4, cr0, {0}
    1544:	48240000 	stmdami	r4!, {}	; <UNPREDICTABLE>
    1548:	1400000c 	strne	r0, [r0], #-12
    154c:	04000082 	streq	r0, [r0], #-130	; 0xffffff7e
    1550:	ea000000 	b	1558 <__code_start__-0x6aa8>
    1554:	23000009 	movwcs	r0, #9
    1558:	00000c49 	andeq	r0, r0, r9, asr #24
    155c:	00000e9d 	muleq	r0, sp, lr
    1560:	00000e99 	muleq	r0, r9, lr
    1564:	0cd52e00 	ldcleq	14, cr2, [r5], {0}
    1568:	821c0000 	andshi	r0, ip, #0, 0
    156c:	1c010000 	stcne	0, cr0, [r1], {-0}
    1570:	04000082 	streq	r0, [r0], #-130	; 0xffffff7e
    1574:	01000000 	mrseq	r0, (UNDEF: 0)
    1578:	0a1105af 	beq	442c3c <__bss_end__+0x438ec4>
    157c:	e21c0000 	ands	r0, ip, #0, 0
    1580:	bf00000c 	svclt	0x0000000c
    1584:	bd00000e 	stclt	0, cr0, [r0, #-56]	; 0xffffffc8
    1588:	0000000e 	andeq	r0, r0, lr
    158c:	000c9726 	andeq	r9, ip, r6, lsr #14
    1590:	00822000 	addeq	r2, r2, r0
    1594:	00001000 	andeq	r1, r0, r0
    1598:	05b00100 	ldreq	r0, [r0, #256]!	; 0x100
    159c:	000cb027 	andeq	fp, ip, r7, lsr #32
    15a0:	0ca42700 	stceq	7, cr2, [r4]
    15a4:	bc230000 	stclt	0, cr0, [r3], #-0
    15a8:	d700000c 	strle	r0, [r0, -ip]
    15ac:	d500000e 	strle	r0, [r0, #-14]
    15b0:	2800000e 	stmdacs	r0, {r1, r2, r3}
    15b4:	00000cc6 	andeq	r0, r0, r6, asr #25
    15b8:	00008220 	andeq	r8, r0, r0, lsr #4
    15bc:	00000004 	andeq	r0, r0, r4
    15c0:	000cc723 	andeq	ip, ip, r3, lsr #14
    15c4:	000eec00 	andeq	lr, lr, r0, lsl #24
    15c8:	000eea00 	andeq	lr, lr, r0, lsl #20
    15cc:	00000000 	andeq	r0, r0, r0
    15d0:	0bc91b00 	bleq	ff2481d8 <__bss_end__+0xff23e460>
    15d4:	82740000 	rsbshi	r0, r4, #0, 0
    15d8:	d8020000 	stmdale	r2, {}	; <UNPREDICTABLE>
    15dc:	01000003 	tsteq	r0, r3
    15e0:	d61c09da 			; <UNDEFINED> instruction: 0xd61c09da
    15e4:	0100000b 	tsteq	r0, fp
    15e8:	ff00000f 			; <UNDEFINED> instruction: 0xff00000f
    15ec:	1e00000e 	cdpne	0, 0, cr0, cr0, cr14, {0}
    15f0:	00000c17 	andeq	r0, r0, r7, lsl ip
    15f4:	00008274 	andeq	r8, r0, r4, ror r2
    15f8:	00827404 	addeq	r7, r2, r4, lsl #8
    15fc:	00002800 	andeq	r2, r0, r0, lsl #16
    1600:	05be0100 	ldreq	r0, [lr, #256]!	; 0x100
    1604:	000c302f 	andeq	r3, ip, pc, lsr #32
    1608:	241ce500 	ldrcs	lr, [ip], #-1280	; 0xfffffb00
    160c:	1900000c 	stmdbne	r0, {r2, r3}
    1610:	1700000f 	strne	r0, [r0, -pc]
    1614:	2300000f 	movwcs	r0, #15
    1618:	00000c3c 	andeq	r0, r0, ip, lsr ip
    161c:	00000f31 	andeq	r0, r0, r1, lsr pc
    1620:	00000f2f 	andeq	r0, r0, pc, lsr #30
    1624:	000c4824 	andeq	r4, ip, r4, lsr #16
    1628:	00827400 	addeq	r7, r2, r0, lsl #8
    162c:	00000400 	andeq	r0, r0, r0, lsl #8
    1630:	000ac800 	andeq	ip, sl, r0, lsl #16
    1634:	0c492300 	mcrreq	3, 0, r2, r9, cr0
    1638:	0f480000 	svceq	0x00480000
    163c:	0f440000 	svceq	0x00440000
    1640:	2e000000 	cdpcs	0, 0, cr0, cr0, cr0, {0}
    1644:	00000cd5 	ldrdeq	r0, [r0], -r5
    1648:	0000827c 	andeq	r8, r0, ip, ror r2
    164c:	00827c01 	addeq	r7, r2, r1, lsl #24
    1650:	00000400 	andeq	r0, r0, r0, lsl #8
    1654:	05af0100 	streq	r0, [pc, #256]!	; 175c <__code_start__-0x68a4>
    1658:	00000aef 	andeq	r0, r0, pc, ror #21
    165c:	000ce21c 	andeq	lr, ip, ip, lsl r2
    1660:	000f6a00 	andeq	r6, pc, r0, lsl #20
    1664:	000f6800 	andeq	r6, pc, r0, lsl #16
    1668:	97260000 	strls	r0, [r6, -r0]!
    166c:	8000000c 	andhi	r0, r0, ip
    1670:	1c000082 	stcne	0, cr0, [r0], {130}	; 0x82
    1674:	01000000 	mrseq	r0, (UNDEF: 0)
    1678:	b02705b0 	strhtlt	r0, [r7], -r0
    167c:	2700000c 	strcs	r0, [r0, -ip]
    1680:	00000ca4 	andeq	r0, r0, r4, lsr #25
    1684:	000cbc23 	andeq	fp, ip, r3, lsr #24
    1688:	000f8200 	andeq	r8, pc, r0, lsl #4
    168c:	000f8000 	andeq	r8, pc, r0
    1690:	0cc62800 	stcleq	8, cr2, [r6], {0}
    1694:	82800000 	addhi	r0, r0, #0, 0
    1698:	00040000 	andeq	r0, r4, r0
    169c:	c7230000 	strgt	r0, [r3, -r0]!
    16a0:	9700000c 	strls	r0, [r0, -ip]
    16a4:	9500000f 	strls	r0, [r0, #-15]
    16a8:	0000000f 	andeq	r0, r0, pc
	...
    16b4:	0000a429 	andeq	sl, r0, r9, lsr #8
    16b8:	14d30100 	ldrbne	r0, [r3], #256	; 0x100
    16bc:	000b6603 	andeq	r6, fp, r3, lsl #12
    16c0:	69702a00 	ldmdbvs	r0!, {r9, fp, sp}^
    16c4:	d301006e 	movwle	r0, #4206	; 0x106e
    16c8:	00002c29 	andeq	r2, r0, r9, lsr #24
    16cc:	00622a00 	rsbeq	r2, r2, r0, lsl #20
    16d0:	5436d301 	ldrtpl	sp, [r6], #-769	; 0xfffffcff
    16d4:	30000000 	andcc	r0, r0, r0
    16d8:	000000e3 	andeq	r0, r0, r3, ror #1
    16dc:	00000b76 	andeq	r0, r0, r6, ror fp
    16e0:	00c51200 	sbceq	r1, r5, r0, lsl #4
    16e4:	0b760000 	bleq	1d816ec <__bss_end__+0x1d77974>
    16e8:	2c310000 	ldccs	0, cr0, [r1], #-0
    16ec:	0b000000 	bleq	16f4 <__code_start__-0x690c>
    16f0:	0b660400 	bleq	19826f8 <__bss_end__+0x1978980>
    16f4:	6e290000 	cdpvs	0, 2, cr0, cr9, cr0, {0}
    16f8:	01000002 	tsteq	r0, r2
    16fc:	950314ce 	strls	r1, [r3, #-1230]	; 0xfffffb32
    1700:	2a00000b 	bcs	1734 <__code_start__-0x68cc>
    1704:	006e6970 	rsbeq	r6, lr, r0, ror r9
    1708:	2c27ce01 	stccs	14, cr12, [r7], #-4
    170c:	00000000 	andeq	r0, r0, r0
    1710:	00009d29 	andeq	r9, r0, r9, lsr #26
    1714:	14c50100 	strbne	r0, [r5], #256	; 0x100
    1718:	000baf03 	andeq	sl, fp, r3, lsl #30
    171c:	69702a00 	ldmdbvs	r0!, {r9, fp, sp}^
    1720:	c501006e 	strgt	r0, [r1, #-110]	; 0xffffff92
    1724:	00002c24 	andeq	r2, r0, r4, lsr #24
    1728:	74320000 	ldrtvc	r0, [r2], #-0
    172c:	01006c30 	tsteq	r0, r0, lsr ip
    1730:	c90314c1 	stmdbgt	r3, {r0, r6, r7, sl, ip}
    1734:	2a00000b 	bcs	1768 <__code_start__-0x6898>
    1738:	006e6970 	rsbeq	r6, lr, r0, ror r9
    173c:	2c21c101 	stfcsd	f4, [r1], #-4
    1740:	00000000 	andeq	r0, r0, r0
    1744:	6c317432 	cfldrsvs	mvf7, [r1], #-200	; 0xffffff38
    1748:	14bd0100 	ldrtne	r0, [sp], #256	; 0x100
    174c:	000be303 	andeq	lr, fp, r3, lsl #6
    1750:	69702a00 	ldmdbvs	r0!, {r9, fp, sp}^
    1754:	bd01006e 	stclt	0, cr0, [r1, #-440]	; 0xfffffe48
    1758:	00002c21 	andeq	r2, r0, r1, lsr #24
    175c:	74320000 	ldrtvc	r0, [r2], #-0
    1760:	01006830 	tsteq	r0, r0, lsr r8
    1764:	fd0314b9 	stc2	4, cr1, [r3, #-740]	; 0xfffffd1c
    1768:	2a00000b 	bcs	179c <__code_start__-0x6864>
    176c:	006e6970 	rsbeq	r6, lr, r0, ror r9
    1770:	2c21b901 			; <UNDEFINED> instruction: 0x2c21b901
    1774:	00000000 	andeq	r0, r0, r0
    1778:	68317432 	ldmdavs	r1!, {r1, r4, r5, sl, ip, sp, lr}
    177c:	14b40100 	ldrtne	r0, [r4], #256	; 0x100
    1780:	000c1703 	andeq	r1, ip, r3, lsl #14
    1784:	69702a00 	ldmdbvs	r0!, {r9, fp, sp}^
    1788:	b401006e 	strlt	r0, [r1], #-110	; 0xffffff92
    178c:	00002c21 	andeq	r2, r0, r1, lsr #24
    1790:	00290000 	eoreq	r0, r9, r0
    1794:	01000000 	mrseq	r0, (UNDEF: 0)
    1798:	570314ac 	strpl	r1, [r3, -ip, lsr #9]
    179c:	2a00000c 	bcs	17d4 <__code_start__-0x682c>
    17a0:	006e6970 	rsbeq	r6, lr, r0, ror r9
    17a4:	2c25ac01 	stccs	12, cr10, [r5], #-4
    17a8:	33000000 	movwcc	r0, #0
    17ac:	000000b6 	strheq	r0, [r0], -r6
    17b0:	2c33ac01 	ldccs	12, cr10, [r3], #-4
    17b4:	34000000 	strcc	r0, [r0], #-0
    17b8:	0000011e 	andeq	r0, r0, lr, lsl r1
    17bc:	2c0eae01 	stccs	14, cr10, [lr], {1}
    17c0:	35000000 	strcc	r0, [r0, #-0]
    17c4:	00001a34 	andeq	r1, r0, r4, lsr sl
    17c8:	1aae0100 	bne	feb81bd0 <__bss_end__+0xfeb77e58>
    17cc:	0000002c 	andeq	r0, r0, ip, lsr #32
    17d0:	08290000 	stmdaeq	r9!, {}	; <UNPREDICTABLE>
    17d4:	01000000 	mrseq	r0, (UNDEF: 0)
    17d8:	970314a2 	strls	r1, [r3, -r2, lsr #9]
    17dc:	2a00000c 	bcs	1814 <__code_start__-0x67ec>
    17e0:	006e6970 	rsbeq	r6, lr, r0, ror r9
    17e4:	2c25a201 	sfmcs	f2, 1, [r5], #-4
    17e8:	33000000 	movwcc	r0, #0
    17ec:	000000b6 	strheq	r0, [r0], -r6
    17f0:	2c33a201 	lfmcs	f2, 1, [r3], #-4
    17f4:	34000000 	strcc	r0, [r0], #-0
    17f8:	0000011e 	andeq	r0, r0, lr, lsl r1
    17fc:	2c0ea401 	cfstrscs	mvf10, [lr], {1}
    1800:	35000000 	strcc	r0, [r0, #-0]
    1804:	00001a34 	andeq	r1, r0, r4, lsr sl
    1808:	1aa40100 	bne	fe901c10 <__bss_end__+0xfe8f7e98>
    180c:	0000002c 	andeq	r0, r0, ip, lsr #32
    1810:	b0290000 	eorlt	r0, r9, r0
    1814:	01000000 	mrseq	r0, (UNDEF: 0)
    1818:	d5031488 	strle	r1, [r3, #-1160]	; 0xfffffb78
    181c:	3300000c 	movwcc	r0, #12
    1820:	0000011e 	andeq	r0, r0, lr, lsl r1
    1824:	2c2b8801 	stccs	8, cr8, [fp], #-4
    1828:	33000000 	movwcc	r0, #0
    182c:	000000fd 	strdeq	r0, [r0], -sp
    1830:	2c3f8801 	ldccs	8, cr8, [pc], #-4	; 1834 <__code_start__-0x67cc>
    1834:	36000000 	strcc	r0, [r0], -r0
    1838:	89010063 	stmdbhi	r1, {r0, r1, r5, r6}
    183c:	00002c0e 	andeq	r2, r0, lr, lsl #24
    1840:	1a343500 	bne	d0ec48 <__bss_end__+0xd04ed0>
    1844:	01000000 	mrseq	r0, (UNDEF: 0)
    1848:	002c128a 	eoreq	r1, ip, sl, lsl #5
    184c:	00000000 	andeq	r0, r0, r0
    1850:	00018329 	andeq	r8, r1, r9, lsr #6
    1854:	14820100 	strne	r0, [r2], #256	; 0x100
    1858:	000cef03 	andeq	lr, ip, r3, lsl #30
    185c:	69702a00 	ldmdbvs	r0!, {r9, fp, sp}^
    1860:	8201006e 	andhi	r0, r1, #110, 0	; 0x6e
    1864:	00002c2e 	andeq	r2, r0, lr, lsr #24
    1868:	5a290000 	bpl	a41870 <__bss_end__+0xa37af8>
    186c:	01000001 	tsteq	r0, r1
    1870:	0903147e 	stmdbeq	r3, {r1, r2, r3, r4, r5, r6, sl, ip}
    1874:	2a00000d 	bcs	18b0 <__code_start__-0x6750>
    1878:	006e6970 	rsbeq	r6, lr, r0, ror r9
    187c:	2c2d7e01 	stccs	14, cr7, [sp], #-4
    1880:	00000000 	andeq	r0, r0, r0
    1884:	0002d837 	andeq	sp, r2, r7, lsr r8
    1888:	0002d800 	andeq	sp, r2, r0, lsl #16
    188c:	077c0400 	ldrbeq	r0, [ip, -r0, lsl #8]!
    1890:	00028537 	andeq	r8, r2, r7, lsr r5
    1894:	00028500 	andeq	r8, r2, r0, lsl #10
    1898:	07f70400 	ldrbeq	r0, [r7, r0, lsl #8]!
    189c:	00002b37 	andeq	r2, r0, r7, lsr fp
    18a0:	00002b00 	andeq	r2, r0, r0, lsl #22
    18a4:	061d0600 	ldreq	r0, [sp], -r0, lsl #12
    18a8:	00013a00 	andeq	r3, r1, r0, lsl #20
    18ac:	fe000400 	cdp2	4, 0, cr0, cr0, cr0, {0}
    18b0:	04000005 	streq	r0, [r0], #-5
    18b4:	0002f101 	andeq	pc, r2, r1, lsl #2
    18b8:	04090c00 	streq	r0, [r9], #-3072	; 0xfffff400
    18bc:	03c20000 	biceq	r0, r2, #0, 0
    18c0:	84780000 	ldrbthi	r0, [r8], #-0
    18c4:	00180000 	andseq	r0, r8, r0
    18c8:	097c0000 	ldmdbeq	ip!, {}^	; <UNPREDICTABLE>
    18cc:	04020000 	streq	r0, [r2], #-0
    18d0:	746e6905 	strbtvc	r6, [lr], #-2309	; 0xfffff6fb
    18d4:	03bb0300 			; <UNDEFINED> instruction: 0x03bb0300
    18d8:	d1030000 	mrsle	r0, (UNDEF: 3)
    18dc:	00003817 	andeq	r3, r0, r7, lsl r8
    18e0:	07040400 	streq	r0, [r4, -r0, lsl #8]
    18e4:	00000132 	andeq	r0, r0, r2, lsr r1
    18e8:	12060104 	andne	r0, r6, #1
    18ec:	04000001 	streq	r0, [r0], #-1
    18f0:	00100502 	andseq	r0, r0, r2, lsl #10
    18f4:	04040000 	streq	r0, [r4], #-0
    18f8:	0000c305 	andeq	ip, r0, r5, lsl #6
    18fc:	05080400 	streq	r0, [r8, #-1024]	; 0xfffffc00
    1900:	000000be 	strheq	r0, [r0], -lr
    1904:	10080104 	andne	r0, r8, r4, lsl #2
    1908:	04000001 	streq	r0, [r0], #-1
    190c:	01470702 	cmpeq	r7, r2, lsl #14
    1910:	04040000 	streq	r0, [r4], #-0
    1914:	00012d07 	andeq	r2, r1, r7, lsl #26
    1918:	07080400 	streq	r0, [r8, -r0, lsl #8]
    191c:	00000128 	andeq	r0, r0, r8, lsr #2
    1920:	00002505 	andeq	r2, r0, r5, lsl #10
    1924:	00008600 	andeq	r8, r0, r0, lsl #12
    1928:	00250600 	eoreq	r0, r5, r0, lsl #12
    192c:	07000000 	streq	r0, [r0, -r0]
    1930:	0000001f 	andeq	r0, r0, pc, lsl r0
    1934:	920e1c02 	andls	r1, lr, #512	; 0x200
    1938:	08000000 	stmdaeq	r0, {}	; <UNPREDICTABLE>
    193c:	00007704 	andeq	r7, r0, r4, lsl #14
    1940:	00250500 	eoreq	r0, r5, r0, lsl #10
    1944:	00a70000 	adceq	r0, r7, r0
    1948:	a7060000 	strge	r0, [r6, -r0]
    194c:	00000000 	andeq	r0, r0, r0
    1950:	00b40408 	adcseq	r0, r4, r8, lsl #8
    1954:	01040000 	mrseq	r0, (UNDEF: 4)
    1958:	00011908 	andeq	r1, r1, r8, lsl #18
    195c:	00ad0900 	adceq	r0, sp, r0, lsl #18
    1960:	5f070000 	svcpl	0x00070000
    1964:	02000004 	andeq	r0, r0, #4, 0
    1968:	00c50e21 	sbceq	r0, r5, r1, lsr #28
    196c:	04080000 	streq	r0, [r8], #-0
    1970:	00000098 	muleq	r0, r8, r0
    1974:	0002850a 	andeq	r8, r2, sl, lsl #10
    1978:	07040100 	streq	r0, [r4, -r0, lsl #2]
    197c:	00000135 	andeq	r0, r0, r5, lsr r1
    1980:	00008478 	andeq	r8, r0, r8, ror r4
    1984:	00000018 	andeq	r0, r0, r8, lsl r0
    1988:	01359c01 	teqeq	r5, r1, lsl #24
    198c:	5f0b0000 	svcpl	0x000b0000
    1990:	04010070 	streq	r0, [r1], #-112	; 0xffffff90
    1994:	00013514 	andeq	r3, r1, r4, lsl r5
    1998:	0b500100 	bleq	1401da0 <__bss_end__+0x13f8028>
    199c:	04010063 	streq	r0, [r1], #-99	; 0xffffff9d
    19a0:	0000251c 	andeq	r2, r0, ip, lsl r5
    19a4:	0c510100 	ldfeqe	f0, [r1], {-0}
    19a8:	0401006e 	streq	r0, [r1], #-110	; 0xffffff92
    19ac:	00002c26 	andeq	r2, r0, r6, lsr #24
    19b0:	000fae00 	andeq	sl, pc, r0, lsl #28
    19b4:	000faa00 	andeq	sl, pc, r0, lsl #20
    19b8:	00700d00 	rsbseq	r0, r0, r0, lsl #26
    19bc:	370b0501 	strcc	r0, [fp, -r1, lsl #10]
    19c0:	d7000001 	strle	r0, [r0, -r1]
    19c4:	cf00000f 	svcgt	0x0000000f
    19c8:	0d00000f 	stceq	0, cr0, [r0, #-60]	; 0xffffffc4
    19cc:	05010065 	streq	r0, [r1, #-101]	; 0xffffff9b
    19d0:	00013714 	andeq	r3, r1, r4, lsl r7
    19d4:	00100f00 	andseq	r0, r0, r0, lsl #30
    19d8:	00100d00 	andseq	r0, r0, r0, lsl #26
    19dc:	040e0000 	streq	r0, [lr], #-0
    19e0:	00ad0408 	adceq	r0, sp, r8, lsl #8
    19e4:	9d000000 	stcls	0, cr0, [r0, #-0]
    19e8:	04000001 	streq	r0, [r0], #-1
    19ec:	0006ca00 	andeq	ip, r6, r0, lsl #20
    19f0:	f1010400 			; <UNDEFINED> instruction: 0xf1010400
    19f4:	0c000002 	stceq	0, cr0, [r0], {2}
    19f8:	0000043c 	andeq	r0, r0, ip, lsr r4
    19fc:	000003c2 	andeq	r0, r0, r2, asr #7
    1a00:	00008490 	muleq	r0, r0, r4
    1a04:	00000058 	andeq	r0, r0, r8, asr r0
    1a08:	00000a93 	muleq	r0, r3, sl
    1a0c:	00042802 	andeq	r2, r4, r2, lsl #16
    1a10:	1b280200 	blne	a02218 <__bss_end__+0x9f84a0>
    1a14:	00000031 	andeq	r0, r0, r1, lsr r0
    1a18:	00044c03 	andeq	r4, r4, r3, lsl #24
    1a1c:	00040400 	andeq	r0, r4, r0, lsl #8
    1a20:	00000048 	andeq	r0, r0, r8, asr #32
    1a24:	00043704 	andeq	r3, r4, r4, lsl #14
    1a28:	00004800 	andeq	r4, r0, r0, lsl #16
    1a2c:	05000000 	streq	r0, [r0, #-0]
    1a30:	044e0204 	strbeq	r0, [lr], #-516	; 0xfffffdfc
    1a34:	63020000 	movwvs	r0, #8192	; 0x2000
    1a38:	00002518 	andeq	r2, r0, r8, lsl r5
    1a3c:	05040600 	streq	r0, [r4, #-1536]	; 0xfffffa00
    1a40:	00746e69 	rsbseq	r6, r4, r9, ror #28
    1a44:	32070407 	andcc	r0, r7, #117440512	; 0x7000000
    1a48:	07000001 	streq	r0, [r0, -r1]
    1a4c:	01120601 	tsteq	r2, r1, lsl #12
    1a50:	02070000 	andeq	r0, r7, #0, 0
    1a54:	00001005 	andeq	r1, r0, r5
    1a58:	05040700 	streq	r0, [r4, #-1792]	; 0xfffff900
    1a5c:	000000c3 	andeq	r0, r0, r3, asr #1
    1a60:	be050807 	cdplt	8, 0, cr0, cr5, cr7, {0}
    1a64:	07000000 	streq	r0, [r0, -r0]
    1a68:	01100801 	tsteq	r0, r1, lsl #16
    1a6c:	02070000 	andeq	r0, r7, #0, 0
    1a70:	00014707 	andeq	r4, r1, r7, lsl #14
    1a74:	07040700 	streq	r0, [r4, -r0, lsl #14]
    1a78:	0000012d 	andeq	r0, r0, sp, lsr #2
    1a7c:	28070807 	stmdacs	r7, {r0, r1, r2, fp}
    1a80:	08000001 	stmdaeq	r0, {r0}
    1a84:	00000056 	andeq	r0, r0, r6, asr r0
    1a88:	000000ab 	andeq	r0, r0, fp, lsr #1
    1a8c:	00005609 	andeq	r5, r0, r9, lsl #12
    1a90:	1f0a0000 	svcne	0x000a0000
    1a94:	03000000 	movweq	r0, #0
    1a98:	00b70e1c 	adcseq	r0, r7, ip, lsl lr
    1a9c:	040b0000 	streq	r0, [fp], #-0
    1aa0:	0000009c 	muleq	r0, ip, r0
    1aa4:	00005608 	andeq	r5, r0, r8, lsl #12
    1aa8:	0000cc00 	andeq	ip, r0, r0, lsl #24
    1aac:	00cc0900 	sbceq	r0, ip, r0, lsl #18
    1ab0:	0b000000 	bleq	1ab8 <__code_start__-0x6548>
    1ab4:	0000d904 	andeq	sp, r0, r4, lsl #18
    1ab8:	08010700 	stmdaeq	r1, {r8, r9, sl}
    1abc:	00000119 	andeq	r0, r0, r9, lsl r1
    1ac0:	0000d20c 	andeq	sp, r0, ip, lsl #4
    1ac4:	045f0a00 	ldrbeq	r0, [pc], #-2560	; 1acc <__code_start__-0x6534>
    1ac8:	21030000 	mrscs	r0, (UNDEF: 3)
    1acc:	0000ea0e 	andeq	lr, r0, lr, lsl #20
    1ad0:	bd040b00 	vstrlt	d0, [r4, #-0]
    1ad4:	0d000000 	stceq	0, cr0, [r0, #-0]
    1ad8:	00000421 	andeq	r0, r0, r1, lsr #8
    1adc:	56050601 	strpl	r0, [r5], -r1, lsl #12
    1ae0:	90000000 	andls	r0, r0, r0
    1ae4:	58000084 	stmdapl	r0, {r2, r7}
    1ae8:	01000000 	mrseq	r0, (UNDEF: 0)
    1aec:	0001839c 	muleq	r1, ip, r3
    1af0:	6d660e00 	stclvs	14, cr0, [r6, #-0]
    1af4:	06010074 			; <UNDEFINED> instruction: 0x06010074
    1af8:	0000cc18 	andeq	ip, r0, r8, lsl ip
    1afc:	70910200 	addsvc	r0, r1, r0, lsl #4
    1b00:	7562100f 	strbvc	r1, [r2, #-15]!
    1b04:	08010066 	stmdaeq	r1, {r1, r2, r5, r6}
    1b08:	00018311 	andeq	r8, r1, r1, lsl r3
    1b0c:	74030500 	strvc	r0, [r3], #-1280	; 0xfffffb00
    1b10:	11000099 	swpne	r0, r9, [r0]	; <UNPREDICTABLE>
    1b14:	00000419 	andeq	r0, r0, r9, lsl r4
    1b18:	4a0d0901 	bmi	343f24 <__bss_end__+0x33a1ac>
    1b1c:	02000000 	andeq	r0, r0, #0, 0
    1b20:	73125c91 	tstvc	r2, #37120	; 0x9100
    1b24:	0c01007a 	stceq	0, cr0, [r1], {122}	; 0x7a
    1b28:	0000560d 	andeq	r5, r0, sp, lsl #12
    1b2c:	00102800 	andseq	r2, r0, r0, lsl #16
    1b30:	00102200 	andseq	r2, r0, r0, lsl #4
    1b34:	84b81300 	ldrthi	r1, [r8], #768	; 0x300
    1b38:	01940000 	orrseq	r0, r4, r0
    1b3c:	01760000 	cmneq	r6, r0
    1b40:	01140000 	tsteq	r4, r0
    1b44:	00750250 	rsbseq	r0, r5, r0, asr r2
    1b48:	03510114 	cmpeq	r1, #5
    1b4c:	1404000a 	strne	r0, [r4], #-10
    1b50:	91035201 	tstls	r3, r1, lsl #4
    1b54:	01140648 	tsteq	r4, r8, asr #12
    1b58:	4c910253 	lfmmi	f0, 4, [r1], {83}	; 0x53
    1b5c:	84cc1500 	strbhi	r1, [ip], #1280	; 0x500
    1b60:	01140000 	tsteq	r4, r0
    1b64:	00750250 	rsbseq	r0, r5, r0, asr r2
    1b68:	d2160000 	andsle	r0, r6, #0, 0
    1b6c:	94000000 	strls	r0, [r0], #-0
    1b70:	17000001 	strne	r0, [r0, -r1]
    1b74:	0000005d 	andeq	r0, r0, sp, asr r0
    1b78:	180003ff 	stmdane	r0, {r0, r1, r2, r3, r4, r5, r6, r7, r8, r9}
    1b7c:	0000041e 	andeq	r0, r0, lr, lsl r4
    1b80:	0000041e 	andeq	r0, r0, lr, lsl r4
    1b84:	00050205 	andeq	r0, r5, r5, lsl #4
    1b88:	000000f3 	strdeq	r0, [r0], -r3
    1b8c:	080c0004 	stmdaeq	ip, {r2}
    1b90:	01040000 	mrseq	r0, (UNDEF: 4)
    1b94:	000002f1 	strdeq	r0, [r0], -r1
    1b98:	0004640c 	andeq	r6, r4, ip, lsl #8
    1b9c:	0003c200 	andeq	ip, r3, r0, lsl #4
    1ba0:	0084e800 	addeq	lr, r4, r0, lsl #16
    1ba4:	00003400 	andeq	r3, r0, r0, lsl #8
    1ba8:	000bc900 	andeq	ip, fp, r0, lsl #18
    1bac:	05040200 	streq	r0, [r4, #-512]	; 0xfffffe00
    1bb0:	00746e69 	rsbseq	r6, r4, r9, ror #28
    1bb4:	32070403 	andcc	r0, r7, #50331648	; 0x3000000
    1bb8:	03000001 	movweq	r0, #1
    1bbc:	01120601 	tsteq	r2, r1, lsl #12
    1bc0:	02030000 	andeq	r0, r3, #0, 0
    1bc4:	00001005 	andeq	r1, r0, r5
    1bc8:	05040300 	streq	r0, [r4, #-768]	; 0xfffffd00
    1bcc:	000000c3 	andeq	r0, r0, r3, asr #1
    1bd0:	be050803 	cdplt	8, 0, cr0, cr5, cr3, {0}
    1bd4:	03000000 	movweq	r0, #0
    1bd8:	01100801 	tsteq	r0, r1, lsl #16
    1bdc:	02030000 	andeq	r0, r3, #0, 0
    1be0:	00014707 	andeq	r4, r1, r7, lsl #14
    1be4:	07040300 	streq	r0, [r4, -r0, lsl #6]
    1be8:	0000012d 	andeq	r0, r0, sp, lsr #2
    1bec:	28070803 	stmdacs	r7, {r0, r1, fp}
    1bf0:	04000001 	streq	r0, [r0], #-1
    1bf4:	00000025 	andeq	r0, r0, r5, lsr #32
    1bf8:	0000007a 	andeq	r0, r0, sl, ror r0
    1bfc:	00002505 	andeq	r2, r0, r5, lsl #10
    1c00:	1f060000 	svcne	0x00060000
    1c04:	02000000 	andeq	r0, r0, #0, 0
    1c08:	00860e1c 	addeq	r0, r6, ip, lsl lr
    1c0c:	04070000 	streq	r0, [r7], #-0
    1c10:	0000006b 	andeq	r0, r0, fp, rrx
    1c14:	00002504 	andeq	r2, r0, r4, lsl #10
    1c18:	00009b00 	andeq	r9, r0, r0, lsl #22
    1c1c:	009b0500 	addseq	r0, fp, r0, lsl #10
    1c20:	07000000 	streq	r0, [r0, -r0]
    1c24:	0000a804 	andeq	sl, r0, r4, lsl #16
    1c28:	08010300 	stmdaeq	r1, {r8, r9}
    1c2c:	00000119 	andeq	r0, r0, r9, lsl r1
    1c30:	0000a108 	andeq	sl, r0, r8, lsl #2
    1c34:	045f0600 	ldrbeq	r0, [pc], #-1536	; 1c3c <__code_start__-0x63c4>
    1c38:	21020000 	mrscs	r0, (UNDEF: 2)
    1c3c:	0000b90e 	andeq	fp, r0, lr, lsl #18
    1c40:	8c040700 	stchi	7, cr0, [r4], {-0}
    1c44:	09000000 	stmdbeq	r0, {}	; <UNPREDICTABLE>
    1c48:	000000ad 	andeq	r0, r0, sp, lsr #1
    1c4c:	05070c01 	streq	r0, [r7, #-3073]	; 0xfffff3ff
    1c50:	00996003 	addseq	r6, r9, r3
    1c54:	04560a00 	ldrbeq	r0, [r6], #-2560	; 0xfffff600
    1c58:	04010000 	streq	r0, [r1], #-0
    1c5c:	00002505 	andeq	r2, r0, r5, lsl #10
    1c60:	0084e800 	addeq	lr, r4, r0, lsl #16
    1c64:	00003400 	andeq	r3, r0, r0, lsl #8
    1c68:	0b9c0100 	bleq	fe702070 <__bss_end__+0xfe6f82f8>
    1c6c:	04010070 	streq	r0, [r1], #-112	; 0xffffff90
    1c70:	00009b1f 	andeq	r9, r0, pc, lsl fp
    1c74:	00105500 	andseq	r5, r0, r0, lsl #10
    1c78:	00105100 	andseq	r5, r0, r0, lsl #2
    1c7c:	d7000000 	strle	r0, [r0, -r0]
    1c80:	0400000a 	streq	r0, [r0], #-10
    1c84:	0008aa00 	andeq	sl, r8, r0, lsl #20
    1c88:	f1010400 			; <UNDEFINED> instruction: 0xf1010400
    1c8c:	0c000002 	stceq	0, cr0, [r0], {2}
    1c90:	00000483 	andeq	r0, r0, r3, lsl #9
    1c94:	000003c2 	andeq	r0, r0, r2, asr #7
    1c98:	0000851c 	andeq	r8, r0, ip, lsl r5
    1c9c:	00000740 	andeq	r0, r0, r0, asr #14
    1ca0:	00000c97 	muleq	r0, r7, ip
    1ca4:	69050402 	stmdbvs	r5, {r1, sl}
    1ca8:	0300746e 	movweq	r7, #1134	; 0x46e
    1cac:	01320704 	teqeq	r2, r4, lsl #14
    1cb0:	01030000 	mrseq	r0, (UNDEF: 3)
    1cb4:	00011206 	andeq	r1, r1, r6, lsl #4
    1cb8:	05020300 	streq	r0, [r2, #-768]	; 0xfffffd00
    1cbc:	00000010 	andeq	r0, r0, r0, lsl r0
    1cc0:	c3050403 	movwgt	r0, #21507	; 0x5403
    1cc4:	03000000 	movweq	r0, #0
    1cc8:	00be0508 	adcseq	r0, lr, r8, lsl #10
    1ccc:	01030000 	mrseq	r0, (UNDEF: 3)
    1cd0:	00011008 	andeq	r1, r1, r8
    1cd4:	07020300 	streq	r0, [r2, -r0, lsl #6]
    1cd8:	00000147 	andeq	r0, r0, r7, asr #2
    1cdc:	0002a504 	andeq	sl, r2, r4, lsl #10
    1ce0:	19340200 	ldmdbne	r4!, {r9}
    1ce4:	00000069 	andeq	r0, r0, r9, rrx
    1ce8:	2d070403 	cfstrscs	mvf0, [r7, #-12]
    1cec:	04000001 	streq	r0, [r0], #-1
    1cf0:	0000047a 	andeq	r0, r0, sl, ror r4
    1cf4:	7c193702 	ldcvc	7, cr3, [r9], {2}
    1cf8:	03000000 	movweq	r0, #0
    1cfc:	01280708 			; <UNDEFINED> instruction: 0x01280708
    1d00:	25050000 	strcs	r0, [r5, #-0]
    1d04:	92000000 	andls	r0, r0, #0, 0
    1d08:	06000000 	streq	r0, [r0], -r0
    1d0c:	00000025 	andeq	r0, r0, r5, lsr #32
    1d10:	001f0700 	andseq	r0, pc, r0, lsl #14
    1d14:	1c030000 	stcne	0, cr0, [r3], {-0}
    1d18:	00009e0e 	andeq	r9, r0, lr, lsl #28
    1d1c:	83040800 	movwhi	r0, #18432	; 0x4800
    1d20:	05000000 	streq	r0, [r0, #-0]
    1d24:	00000025 	andeq	r0, r0, r5, lsr #32
    1d28:	000000b3 	strheq	r0, [r0], -r3
    1d2c:	0000b306 	andeq	fp, r0, r6, lsl #6
    1d30:	04080000 	streq	r0, [r8], #-0
    1d34:	000000c0 	andeq	r0, r0, r0, asr #1
    1d38:	19080103 	stmdbne	r8, {r0, r1, r8}
    1d3c:	09000001 	stmdbeq	r0, {r0}
    1d40:	000000b9 	strheq	r0, [r0], -r9
    1d44:	00045f07 	andeq	r5, r4, r7, lsl #30
    1d48:	0e210300 	cdpeq	3, 2, cr0, cr1, cr0, {0}
    1d4c:	000000d1 	ldrdeq	r0, [r0], -r1
    1d50:	00a40408 	adceq	r0, r4, r8, lsl #8
    1d54:	96070000 	strls	r0, [r7], -r0
    1d58:	04000004 	streq	r0, [r0], #-4
    1d5c:	00b90d0b 	adcseq	r0, r9, fp, lsl #26
    1d60:	21070000 	mrscs	r0, (UNDEF: 7)
    1d64:	04000005 	streq	r0, [r0], #-5
    1d68:	00b90d0c 	adcseq	r0, r9, ip, lsl #26
    1d6c:	a5070000 	strge	r0, [r7, #-0]
    1d70:	04000004 	streq	r0, [r0], #-4
    1d74:	00b90d0d 	adcseq	r0, r9, sp, lsl #26
    1d78:	db070000 	blle	1c1d80 <__bss_end__+0x1b8008>
    1d7c:	04000004 	streq	r0, [r0], #-4
    1d80:	00b90d0e 	adcseq	r0, r9, lr, lsl #26
    1d84:	51070000 	mrspl	r0, (UNDEF: 7)
    1d88:	04000005 	streq	r0, [r0], #-5
    1d8c:	00b90d0f 	adcseq	r0, r9, pc, lsl #26
    1d90:	c6070000 	strgt	r0, [r7], -r0
    1d94:	04000004 	streq	r0, [r0], #-4
    1d98:	00b90d10 	adcseq	r0, r9, r0, lsl sp
    1d9c:	60070000 	andvs	r0, r7, r0
    1da0:	04000005 	streq	r0, [r0], #-5
    1da4:	00b90d11 	adcseq	r0, r9, r1, lsl sp
    1da8:	e7070000 	str	r0, [r7, -r0]
    1dac:	04000004 	streq	r0, [r0], #-4
    1db0:	00b90d12 	adcseq	r0, r9, r2, lsl sp
    1db4:	28040000 	stmdacs	r4, {}	; <UNPREDICTABLE>
    1db8:	05000004 	streq	r0, [r0, #-4]
    1dbc:	01431b28 	cmpeq	r3, r8, lsr #22
    1dc0:	4c0a0000 	stcmi	0, cr0, [sl], {-0}
    1dc4:	04000004 	streq	r0, [r0], #-4
    1dc8:	015a0006 	cmpeq	sl, r6
    1dcc:	370b0000 	strcc	r0, [fp, -r0]
    1dd0:	5a000004 	bpl	1de8 <__code_start__-0x6218>
    1dd4:	00000001 	andeq	r0, r0, r1
    1dd8:	04040c00 	streq	r0, [r4], #-3072	; 0xfffff400
    1ddc:	0000044e 	andeq	r0, r0, lr, asr #8
    1de0:	37186305 	ldrcc	r6, [r8, -r5, lsl #6]
    1de4:	0d000001 	stceq	0, cr0, [r0, #-4]
    1de8:	0000041e 	andeq	r0, r0, lr, lsl r4
    1dec:	25058101 	strcs	r8, [r5, #-257]	; 0xfffffeff
    1df0:	a4000000 	strge	r0, [r0], #-0
    1df4:	b8000087 	stmdalt	r0, {r0, r1, r2, r7}
    1df8:	01000004 	tsteq	r0, r4
    1dfc:	0007179c 	muleq	r7, ip, r7
    1e00:	75620e00 	strbvc	r0, [r2, #-3584]!	; 0xfffff200
    1e04:	81010066 	tsthi	r1, r6, rrx
    1e08:	00071715 	andeq	r1, r7, r5, lsl r7
    1e0c:	00107900 	andseq	r7, r0, r0, lsl #18
    1e10:	00107300 	andseq	r7, r0, r0, lsl #6
    1e14:	006e0e00 	rsbeq	r0, lr, r0, lsl #28
    1e18:	251e8101 	ldrcs	r8, [lr, #-257]	; 0xfffffeff
    1e1c:	ab000000 	blge	1e24 <__code_start__-0x61dc>
    1e20:	a5000010 	strge	r0, [r0, #-16]
    1e24:	0e000010 	mcreq	0, 0, r0, cr0, cr0, {0}
    1e28:	00746d66 	rsbseq	r6, r4, r6, ror #26
    1e2c:	b32d8101 			; <UNDEFINED> instruction: 0xb32d8101
    1e30:	e5000000 	str	r0, [r0, #-0]
    1e34:	d9000010 	stmdble	r0, {r4}
    1e38:	0f000010 	svceq	0x00000010
    1e3c:	00000419 	andeq	r0, r0, r9, lsl r4
    1e40:	5c3a8101 	ldfpld	f0, [sl], #-4
    1e44:	03000001 	movweq	r0, #1
    1e48:	107dd491 			; <UNDEFINED> instruction: 0x107dd491
    1e4c:	82010070 	andhi	r0, r1, #112, 0	; 0x70
    1e50:	00071708 	andeq	r1, r7, r8, lsl #14
    1e54:	00114300 	andseq	r4, r1, r0, lsl #6
    1e58:	00112f00 	andseq	r2, r1, r0, lsl #30
    1e5c:	00651000 	rsbeq	r1, r5, r0
    1e60:	17128201 	ldrne	r8, [r2, -r1, lsl #4]
    1e64:	c5000007 	strgt	r0, [r0, #-7]
    1e68:	c1000011 	tstgt	r0, r1, lsl r0
    1e6c:	10000011 	andne	r0, r0, r1, lsl r0
    1e70:	01003078 	tsteq	r0, r8, ror r0
    1e74:	005d0e83 	subseq	r0, sp, r3, lsl #29
    1e78:	11f20000 	mvnsne	r0, r0
    1e7c:	11ec0000 	mvnne	r0, r0
    1e80:	78100000 	ldmdavc	r0, {}	; <UNPREDICTABLE>
    1e84:	83010031 	movwhi	r0, #4145	; 0x1031
    1e88:	00005d11 	andeq	r5, r0, r1, lsl sp
    1e8c:	00121f00 	andseq	r1, r2, r0, lsl #30
    1e90:	00121b00 	andseq	r1, r2, r0, lsl #22
    1e94:	05051100 	streq	r1, [r5, #-256]	; 0xffffff00
    1e98:	86010000 	strhi	r0, [r1], -r0
    1e9c:	0000b311 	andeq	fp, r0, r1, lsl r3
    1ea0:	00124100 	andseq	r4, r2, r0, lsl #2
    1ea4:	00123d00 	andseq	r3, r2, r0, lsl #26
    1ea8:	00e31200 	rsceq	r1, r3, r0, lsl #4
    1eac:	072d0000 	streq	r0, [sp, -r0]!
    1eb0:	03050000 	movweq	r0, #20480	; 0x5000
    1eb4:	0000974c 	andeq	r9, r0, ip, asr #14
    1eb8:	00880c13 	addeq	r0, r8, r3, lsl ip
    1ebc:	00040000 	andeq	r0, r4, r0
    1ec0:	00731000 	rsbseq	r1, r3, r0
    1ec4:	170a9101 	strne	r9, [sl, -r1, lsl #2]
    1ec8:	77000007 	strvc	r0, [r0, -r7]
    1ecc:	61000012 	tstvs	r0, r2, lsl r0
    1ed0:	14000012 	strne	r0, [r0], #-18	; 0xffffffee
    1ed4:	006d756e 	rsbeq	r7, sp, lr, ror #10
    1ed8:	320d9101 	andcc	r9, sp, #1073741824	; 0x40000000
    1edc:	03000007 	movweq	r0, #7
    1ee0:	157dd891 	ldrbne	sp, [sp, #-2193]!	; 0xfffff76f
    1ee4:	0000051c 	andeq	r0, r0, ip, lsl r5
    1ee8:	32179101 	andscc	r9, r7, #1073741824	; 0x40000000
    1eec:	03000007 	movweq	r0, #7
    1ef0:	117ed891 			; <UNDEFINED> instruction: 0x117ed891
    1ef4:	000004b3 			; <UNDEFINED> instruction: 0x000004b3
    1ef8:	2c0d9201 	sfmcs	f1, 1, [sp], {1}
    1efc:	fe000000 	cdp2	0, 0, cr0, cr0, cr0, {0}
    1f00:	f8000012 			; <UNDEFINED> instruction: 0xf8000012
    1f04:	16000012 			; <UNDEFINED> instruction: 0x16000012
    1f08:	000088d4 	ldrdeq	r8, [r0], -r4
    1f0c:	000001a4 	andeq	r0, r0, r4, lsr #3
    1f10:	00000539 	andeq	r0, r0, r9, lsr r5
    1f14:	00797410 	rsbseq	r7, r9, r0, lsl r4
    1f18:	b31d9e01 	tstlt	sp, #1, 28
    1f1c:	32000000 	andcc	r0, r0, #0, 0
    1f20:	28000013 	stmdacs	r0, {r0, r1, r4}
    1f24:	17000013 	smladne	r0, r3, r0, r0
    1f28:	01007878 	tsteq	r0, r8, ror r8
    1f2c:	00701aa2 	rsbseq	r1, r0, r2, lsr #21
    1f30:	e4180000 	ldr	r0, [r8], #-0
    1f34:	92000088 	andls	r0, r0, #136, 0	; 0x88
    1f38:	d500000a 	strle	r0, [r0, #-10]
    1f3c:	19000002 	stmdbne	r0, {r1}
    1f40:	76025001 	strvc	r5, [r2], -r1
    1f44:	51011900 	tstpl	r1, r0, lsl #18
    1f48:	96400305 	strbls	r0, [r0], -r5, lsl #6
    1f4c:	01190000 	tsteq	r9, r0
    1f50:	00330152 	eorseq	r0, r3, r2, asr r1
    1f54:	0088fc18 	addeq	pc, r8, r8, lsl ip	; <UNPREDICTABLE>
    1f58:	000a9200 	andeq	r9, sl, r0, lsl #4
    1f5c:	0002f700 	andeq	pc, r2, r0, lsl #14
    1f60:	50011900 	andpl	r1, r1, r0, lsl #18
    1f64:	19007602 	stmdbne	r0, {r1, r9, sl, ip, sp, lr}
    1f68:	03055101 	movweq	r5, #20737	; 0x5101
    1f6c:	00009644 	andeq	r9, r0, r4, asr #12
    1f70:	01520119 	cmpeq	r2, r9, lsl r1
    1f74:	30180033 	andscc	r0, r8, r3, lsr r0
    1f78:	9e000089 	cdpls	0, 0, cr0, cr0, cr9, {4}
    1f7c:	1400000a 	strne	r0, [r0], #-10
    1f80:	19000003 	stmdbne	r0, {r0, r1}
    1f84:	03055001 	movweq	r5, #20481	; 0x5001
    1f88:	00009648 	andeq	r9, r0, r8, asr #12
    1f8c:	02510119 	subseq	r0, r1, #1073741830	; 0x40000006
    1f90:	18000077 	stmdane	r0, {r0, r1, r2, r4, r5, r6}
    1f94:	0000893c 	andeq	r8, r0, ip, lsr r9
    1f98:	00000a9e 	muleq	r0, lr, sl
    1f9c:	00000331 	andeq	r0, r0, r1, lsr r3
    1fa0:	05500119 	ldrbeq	r0, [r0, #-281]	; 0xfffffee7
    1fa4:	00965003 	addseq	r5, r6, r3
    1fa8:	51011900 	tstpl	r1, r0, lsl #18
    1fac:	00007a02 	andeq	r7, r0, r2, lsl #20
    1fb0:	00894c18 	addeq	r4, r9, r8, lsl ip
    1fb4:	000a9200 	andeq	r9, sl, r0, lsl #4
    1fb8:	00035300 	andeq	r5, r3, r0, lsl #6
    1fbc:	50011900 	andpl	r1, r1, r0, lsl #18
    1fc0:	19007602 	stmdbne	r0, {r1, r9, sl, ip, sp, lr}
    1fc4:	03055101 	movweq	r5, #20737	; 0x5101
    1fc8:	00009640 	andeq	r9, r0, r0, asr #12
    1fcc:	01520119 	cmpeq	r2, r9, lsl r1
    1fd0:	64180033 	ldrvs	r0, [r8], #-51	; 0xffffffcd
    1fd4:	92000089 	andls	r0, r0, #137, 0	; 0x89
    1fd8:	7500000a 	strvc	r0, [r0, #-10]
    1fdc:	19000003 	stmdbne	r0, {r0, r1}
    1fe0:	76025001 	strvc	r5, [r2], -r1
    1fe4:	51011900 	tstpl	r1, r0, lsl #18
    1fe8:	96440305 	strbls	r0, [r4], -r5, lsl #6
    1fec:	01190000 	tsteq	r9, r0
    1ff0:	00330152 	eorseq	r0, r3, r2, asr r1
    1ff4:	00898c18 	addeq	r8, r9, r8, lsl ip
    1ff8:	00074200 	andeq	r4, r7, r0, lsl #4
    1ffc:	0003a900 	andeq	sl, r3, r0, lsl #18
    2000:	50011900 	andpl	r1, r1, r0, lsl #18
    2004:	01193a01 	tsteq	r9, r1, lsl #20
    2008:	d0910351 	addsle	r0, r1, r1, asr r3
    200c:	5201197d 	andpl	r1, r1, #2048000	; 0x1f4000
    2010:	19800802 	stmibne	r0, {r1, fp}
    2014:	77025301 	strvc	r5, [r2, -r1, lsl #6]
    2018:	7d021900 	vstrvc.16	s2, [r2, #-0]	; <UNPREDICTABLE>
    201c:	00750200 	rsbseq	r0, r5, r0, lsl #4
    2020:	047d0219 	ldrbteq	r0, [sp], #-537	; 0xfffffde7
    2024:	00007602 	andeq	r7, r0, r2, lsl #12
    2028:	0089ac18 	addeq	sl, r9, r8, lsl ip
    202c:	00074200 	andeq	r4, r7, r0, lsl #4
    2030:	0003dd00 	andeq	sp, r3, r0, lsl #26
    2034:	50011900 	andpl	r1, r1, r0, lsl #18
    2038:	01193a01 	tsteq	r9, r1, lsl #20
    203c:	d0910351 	addsle	r0, r1, r1, asr r3
    2040:	5201197e 	andpl	r1, r1, #2064384	; 0x1f8000
    2044:	19800802 	stmibne	r0, {r1, fp}
    2048:	7a025301 	bvc	96c54 <__bss_end__+0x8cedc>
    204c:	7d021900 	vstrvc.16	s2, [r2, #-0]	; <UNPREDICTABLE>
    2050:	00750200 	rsbseq	r0, r5, r0, lsl #4
    2054:	047d0219 	ldrbteq	r0, [sp], #-537	; 0xfffffde7
    2058:	00007602 	andeq	r7, r0, r2, lsl #12
    205c:	0089b818 	addeq	fp, r9, r8, lsl r8
    2060:	000aaa00 	andeq	sl, sl, r0, lsl #20
    2064:	0003fb00 	andeq	pc, r3, r0, lsl #22
    2068:	50011900 	andpl	r1, r1, r0, lsl #18
    206c:	7dd09103 	ldfvcp	f1, [r0, #12]
    2070:	05510119 	ldrbeq	r0, [r1, #-281]	; 0xfffffee7
    2074:	00960403 	addseq	r0, r6, r3, lsl #8
    2078:	cc180000 	ldcgt	0, cr0, [r8], {-0}
    207c:	b6000089 	strlt	r0, [r0], -r9, lsl #1
    2080:	1700000a 	strne	r0, [r0, -sl]
    2084:	19000004 	stmdbne	r0, {r2}
    2088:	91035001 	tstls	r3, r1
    208c:	01197dd0 			; <UNDEFINED> instruction: 0x01197dd0
    2090:	d0910351 	addsle	r0, r1, r1, asr r3
    2094:	f018007e 			; <UNDEFINED> instruction: 0xf018007e
    2098:	9e000089 	cdpls	0, 0, cr0, cr0, cr9, {4}
    209c:	5000000a 	andpl	r0, r0, sl
    20a0:	19000004 	stmdbne	r0, {r2}
    20a4:	03055001 	movweq	r5, #20481	; 0x5001
    20a8:	000095f0 	strdeq	r9, [r0], -r0
    20ac:	05510119 	ldrbeq	r0, [r1, #-281]	; 0xfffffee7
    20b0:	0095dc03 	addseq	sp, r5, r3, lsl #24
    20b4:	52011900 	andpl	r1, r1, #0, 18
    20b8:	974c0305 	strbls	r0, [ip, -r5, lsl #6]
    20bc:	01190000 	tsteq	r9, r0
    20c0:	9f080253 	svcls	0x00080253
    20c4:	007d0219 	rsbseq	r0, sp, r9, lsl r2
    20c8:	96580305 	ldrbls	r0, [r8], -r5, lsl #6
    20cc:	1a000000 	bne	20d4 <__code_start__-0x5f2c>
    20d0:	000089f4 	strdeq	r8, [r0], -r4
    20d4:	00000ac2 	andeq	r0, r0, r2, asr #21
    20d8:	008a1418 	addeq	r1, sl, r8, lsl r4
    20dc:	00074200 	andeq	r4, r7, r0, lsl #4
    20e0:	00048d00 	andeq	r8, r4, r0, lsl #26
    20e4:	50011900 	andpl	r1, r1, r0, lsl #18
    20e8:	01194001 	tsteq	r9, r1
    20ec:	d0910351 	addsle	r0, r1, r1, asr r3
    20f0:	5201197d 	andpl	r1, r1, #2048000	; 0x1f4000
    20f4:	19800802 	stmibne	r0, {r1, fp}
    20f8:	77025301 	strvc	r5, [r2, -r1, lsl #6]
    20fc:	7d021900 	vstrvc.16	s2, [r2, #-0]	; <UNPREDICTABLE>
    2100:	00750200 	rsbseq	r0, r5, r0, lsl #4
    2104:	047d0219 	ldrbteq	r0, [sp], #-537	; 0xfffffde7
    2108:	00007602 	andeq	r7, r0, r2, lsl #12
    210c:	008a3418 	addeq	r3, sl, r8, lsl r4
    2110:	00074200 	andeq	r4, r7, r0, lsl #4
    2114:	0004c100 	andeq	ip, r4, r0, lsl #2
    2118:	50011900 	andpl	r1, r1, r0, lsl #18
    211c:	01194001 	tsteq	r9, r1
    2120:	d0910351 	addsle	r0, r1, r1, asr r3
    2124:	5201197e 	andpl	r1, r1, #2064384	; 0x1f8000
    2128:	19800802 	stmibne	r0, {r1, fp}
    212c:	7a025301 	bvc	96d38 <__bss_end__+0x8cfc0>
    2130:	7d021900 	vstrvc.16	s2, [r2, #-0]	; <UNPREDICTABLE>
    2134:	00750200 	rsbseq	r0, r5, r0, lsl #4
    2138:	047d0219 	ldrbteq	r0, [sp], #-537	; 0xfffffde7
    213c:	00007602 	andeq	r7, r0, r2, lsl #12
    2140:	008a4018 	addeq	r4, sl, r8, lsl r0
    2144:	000ace00 	andeq	ip, sl, r0, lsl #28
    2148:	0004dd00 	andeq	sp, r4, r0, lsl #26
    214c:	50011900 	andpl	r1, r1, r0, lsl #18
    2150:	7dd09103 	ldfvcp	f1, [r0, #12]
    2154:	03510119 	cmpeq	r1, #1073741830	; 0x40000006
    2158:	007ed291 			; <UNDEFINED> instruction: 0x007ed291
    215c:	008a5418 	addeq	r5, sl, r8, lsl r4
    2160:	000ace00 	andeq	ip, sl, r0, lsl #28
    2164:	0004f900 	andeq	pc, r4, r0, lsl #18
    2168:	50011900 	andpl	r1, r1, r0, lsl #18
    216c:	7dd09103 	ldfvcp	f1, [r0, #12]
    2170:	03510119 	cmpeq	r1, #1073741830	; 0x40000006
    2174:	007ed091 			; <UNDEFINED> instruction: 0x007ed091
    2178:	008a7418 	addeq	r7, sl, r8, lsl r4
    217c:	000a9e00 	andeq	r9, sl, r0, lsl #28
    2180:	00052f00 	andeq	r2, r5, r0, lsl #30
    2184:	50011900 	andpl	r1, r1, r0, lsl #18
    2188:	96940305 	ldrls	r0, [r4], r5, lsl #6
    218c:	01190000 	tsteq	r9, r0
    2190:	dc030551 	cfstr32le	mvfx0, [r3], {81}	; 0x51
    2194:	19000095 	stmdbne	r0, {r0, r2, r4, r7}
    2198:	03055201 	movweq	r5, #20993	; 0x5201
    219c:	0000974c 	andeq	r9, r0, ip, asr #14
    21a0:	02530119 	subseq	r0, r3, #1073741830	; 0x40000006
    21a4:	0219b608 	andseq	fp, r9, #8, 12	; 0x800000
    21a8:	7602007d 			; <UNDEFINED> instruction: 0x7602007d
    21ac:	781a0000 	ldmdavc	sl, {}	; <UNPREDICTABLE>
    21b0:	c200008a 	andgt	r0, r0, #138, 0	; 0x8a
    21b4:	0000000a 	andeq	r0, r0, sl
    21b8:	00882418 	addeq	r2, r8, r8, lsl r4
    21bc:	0009c000 	andeq	ip, r9, r0
    21c0:	00054d00 	andeq	r4, r5, r0, lsl #26
    21c4:	50011900 	andpl	r1, r1, r0, lsl #18
    21c8:	00007702 	andeq	r7, r0, r2, lsl #14
    21cc:	0088d018 	addeq	sp, r8, r8, lsl r0
    21d0:	000a9e00 	andeq	r9, sl, r0, lsl #28
    21d4:	00058600 	andeq	r8, r5, r0, lsl #12
    21d8:	50011900 	andpl	r1, r1, r0, lsl #18
    21dc:	95f00305 	ldrbls	r0, [r0, #773]!	; 0x305
    21e0:	01190000 	tsteq	r9, r0
    21e4:	dc030551 	cfstr32le	mvfx0, [r3], {81}	; 0x51
    21e8:	19000095 	stmdbne	r0, {r0, r2, r4, r7}
    21ec:	03055201 	movweq	r5, #20993	; 0x5201
    21f0:	0000974c 	andeq	r9, r0, ip, asr #14
    21f4:	02530119 	subseq	r0, r3, #1073741830	; 0x40000006
    21f8:	02199808 	andseq	r9, r9, #8, 16	; 0x80000
    21fc:	0305007d 	movweq	r0, #20605	; 0x507d
    2200:	00009634 	andeq	r9, r0, r4, lsr r6
    2204:	88d41a00 	ldmhi	r4, {r9, fp, ip}^
    2208:	0ac20000 	beq	ff082210 <__bss_end__+0xff078498>
    220c:	8c180000 	ldchi	0, cr0, [r8], {-0}
    2210:	9e00008a 	cdpls	0, 0, cr0, cr0, cr10, {4}
    2214:	be00000a 	cdplt	0, 0, cr0, cr0, cr10, {0}
    2218:	19000005 	stmdbne	r0, {r0, r2}
    221c:	03055001 	movweq	r5, #20481	; 0x5001
    2220:	000096bc 			; <UNDEFINED> instruction: 0x000096bc
    2224:	05510119 	ldrbeq	r0, [r1, #-281]	; 0xfffffee7
    2228:	0095dc03 	addseq	sp, r5, r3, lsl #24
    222c:	52011900 	andpl	r1, r1, #0, 18
    2230:	974c0305 	strbls	r0, [ip, -r5, lsl #6]
    2234:	01190000 	tsteq	r9, r0
    2238:	be080253 	mcrlt	2, 0, r0, cr8, cr3, {2}
    223c:	8a901a00 	bhi	fe408a44 <__bss_end__+0xfe3feccc>
    2240:	0ac20000 	beq	ff082248 <__bss_end__+0xff0784d0>
    2244:	bc180000 	ldclt	0, cr0, [r8], {-0}
    2248:	4200008a 	andmi	r0, r0, #138, 0	; 0x8a
    224c:	f4000007 	vst4.8	{d0-d3}, [r0], r7
    2250:	19000005 	stmdbne	r0, {r0, r2}
    2254:	3a015001 	bcc	56260 <__bss_end__+0x4c4e8>
    2258:	03510119 	cmpeq	r1, #1073741830	; 0x40000006
    225c:	197dd091 	ldmdbne	sp!, {r0, r4, r7, ip, lr, pc}^
    2260:	08025201 	stmdaeq	r2, {r0, r9, ip, lr}
    2264:	7d021980 	vstrvc.16	s2, [r2, #-256]	; 0xffffff00	; <UNPREDICTABLE>
    2268:	00750200 	rsbseq	r0, r5, r0, lsl #4
    226c:	047d0219 	ldrbteq	r0, [sp], #-537	; 0xfffffde7
    2270:	18003101 	stmdane	r0, {r0, r8, ip, sp}
    2274:	00008af4 	strdeq	r8, [r0], -r4
    2278:	00000742 	andeq	r0, r0, r2, asr #14
    227c:	00000621 	andeq	r0, r0, r1, lsr #12
    2280:	01500119 	cmpeq	r0, r9, lsl r1
    2284:	5101193a 	tstpl	r1, sl, lsr r9
    2288:	7dd09103 	ldfvcp	f1, [r0, #12]
    228c:	02520119 	subseq	r0, r2, #1073741830	; 0x40000006
    2290:	02198008 	andseq	r8, r9, #8, 0
    2294:	7502007d 	strvc	r0, [r2, #-125]	; 0xffffff83
    2298:	7d021900 	vstrvc.16	s2, [r2, #-0]	; <UNPREDICTABLE>
    229c:	00300104 	eorseq	r0, r0, r4, lsl #2
    22a0:	008b2818 	addeq	r2, fp, r8, lsl r8
    22a4:	00074200 	andeq	r4, r7, r0, lsl #4
    22a8:	00064e00 	andeq	r4, r6, r0, lsl #28
    22ac:	50011900 	andpl	r1, r1, r0, lsl #18
    22b0:	01194001 	tsteq	r9, r1
    22b4:	d0910351 	addsle	r0, r1, r1, asr r3
    22b8:	5201197d 	andpl	r1, r1, #2048000	; 0x1f4000
    22bc:	19800802 	stmibne	r0, {r1, fp}
    22c0:	02007d02 	andeq	r7, r0, #128	; 0x80
    22c4:	02190075 	andseq	r0, r9, #117, 0	; 0x75
    22c8:	3001047d 	andcc	r0, r1, sp, ror r4
    22cc:	8b5c1800 	blhi	17082d4 <__bss_end__+0x16fe55c>
    22d0:	07420000 	strbeq	r0, [r2, -r0]
    22d4:	067b0000 	ldrbteq	r0, [fp], -r0
    22d8:	01190000 	tsteq	r9, r0
    22dc:	19320150 	ldmdbne	r2!, {r4, r6, r8}
    22e0:	91035101 	tstls	r3, r1, lsl #2
    22e4:	01197dd0 			; <UNDEFINED> instruction: 0x01197dd0
    22e8:	80080252 	andhi	r0, r8, r2, asr r2
    22ec:	007d0219 	rsbseq	r0, sp, r9, lsl r2
    22f0:	19007502 	stmdbne	r0, {r1, r8, sl, ip, sp, lr}
    22f4:	01047d02 	tsteq	r4, r2, lsl #26
    22f8:	a4180030 	ldrge	r0, [r8], #-48	; 0xffffffd0
    22fc:	4200008b 	andmi	r0, r0, #139, 0	; 0x8b
    2300:	a8000007 	stmdage	r0, {r0, r1, r2}
    2304:	19000006 	stmdbne	r0, {r1, r2}
    2308:	38015001 	stmdacc	r1, {r0, ip, lr}
    230c:	03510119 	cmpeq	r1, #1073741830	; 0x40000006
    2310:	197dd091 	ldmdbne	sp!, {r0, r4, r7, ip, lr, pc}^
    2314:	08025201 	stmdaeq	r2, {r0, r9, ip, lr}
    2318:	7d021980 	vstrvc.16	s2, [r2, #-256]	; 0xffffff00	; <UNPREDICTABLE>
    231c:	00750200 	rsbseq	r0, r5, r0, lsl #4
    2320:	047d0219 	ldrbteq	r0, [sp], #-537	; 0xfffffde7
    2324:	18003001 	stmdane	r0, {r0, ip, sp}
    2328:	00008bc4 	andeq	r8, r0, r4, asr #23
    232c:	00000a9e 	muleq	r0, lr, sl
    2330:	000006cb 	andeq	r0, r0, fp, asr #13
    2334:	05500119 	ldrbeq	r0, [r0, #-281]	; 0xfffffee7
    2338:	0096e403 	addseq	lr, r6, r3, lsl #8
    233c:	51011900 	tstpl	r1, r0, lsl #18
    2340:	19007a02 	stmdbne	r0, {r1, r9, fp, ip, sp, lr}
    2344:	7a025201 	bvc	96b50 <__bss_end__+0x8cdd8>
    2348:	d41b0000 	ldrle	r0, [fp], #-0
    234c:	dd00008b 	stcle	0, cr0, [r0, #-556]	; 0xfffffdd4
    2350:	19000006 	stmdbne	r0, {r1, r2}
    2354:	91045001 	tstls	r4, r1
    2358:	00067dc8 	andeq	r7, r6, r8, asr #27
    235c:	008be818 	addeq	lr, fp, r8, lsl r8
    2360:	000a9e00 	andeq	r9, sl, r0, lsl #28
    2364:	00070c00 	andeq	r0, r7, r0, lsl #24
    2368:	50011900 	andpl	r1, r1, r0, lsl #18
    236c:	97140305 	ldrls	r0, [r4, -r5, lsl #6]
    2370:	01190000 	tsteq	r9, r0
    2374:	dc030551 	cfstr32le	mvfx0, [r3], {81}	; 0x51
    2378:	19000095 	stmdbne	r0, {r0, r2, r4, r7}
    237c:	03055201 	movweq	r5, #20993	; 0x5201
    2380:	0000974c 	andeq	r9, r0, ip, asr #14
    2384:	02530119 	subseq	r0, r3, #1073741830	; 0x40000006
    2388:	1a00e208 	bne	3abb0 <__bss_end__+0x30e38>
    238c:	00008bec 	andeq	r8, r0, ip, ror #23
    2390:	00000ac2 	andeq	r0, r0, r2, asr #21
    2394:	04080000 	streq	r0, [r8], #-0
    2398:	000000b9 	strheq	r0, [r0], -r9
    239c:	0000c01c 	andeq	ip, r0, ip, lsl r0
    23a0:	00072d00 	andeq	r2, r7, r0, lsl #26
    23a4:	002c1d00 	eoreq	r1, ip, r0, lsl #26
    23a8:	00090000 	andeq	r0, r9, r0
    23ac:	00071d09 	andeq	r1, r7, r9, lsl #26
    23b0:	00b91c00 	adcseq	r1, r9, r0, lsl #24
    23b4:	07420000 	strbeq	r0, [r2, -r0]
    23b8:	2c1d0000 	ldccs	0, cr0, [sp], {-0}
    23bc:	7f000000 	svcvc	0x00000000
    23c0:	052e1e00 	streq	r1, [lr, #-3584]!	; 0xfffff200
    23c4:	49010000 	stmdbmi	r1, {}	; <UNPREDICTABLE>
    23c8:	00071701 	andeq	r1, r7, r1, lsl #14
    23cc:	00858c00 	addeq	r8, r5, r0, lsl #24
    23d0:	0001b400 	andeq	fp, r1, r0, lsl #8
    23d4:	ab9c0100 	blge	fe7027dc <__bss_end__+0xfe6f8a64>
    23d8:	1f000008 	svcne	0x00000008
    23dc:	00000575 	andeq	r0, r0, r5, ror r5
    23e0:	2c0f4901 			; <UNDEFINED> instruction: 0x2c0f4901
    23e4:	7b000000 	blvc	23ec <__code_start__-0x5c14>
    23e8:	75000013 	strvc	r0, [r0, #-19]	; 0xffffffed
    23ec:	0e000013 	mcreq	0, 0, r0, cr0, cr3, {0}
    23f0:	00747364 	rsbseq	r7, r4, r4, ror #6
    23f4:	171b4901 	ldrne	r4, [fp, -r1, lsl #18]
    23f8:	b9000007 	stmdblt	r0, {r0, r1, r2}
    23fc:	a9000013 	stmdbge	r0, {r0, r1, r4}
    2400:	0e000013 	mcreq	0, 0, r0, cr0, cr3, {0}
    2404:	4901006e 	stmdbmi	r1, {r1, r2, r3, r5, r6}
    2408:	00002524 	andeq	r2, r0, r4, lsr #10
    240c:	00141d00 	andseq	r1, r4, r0, lsl #26
    2410:	00141900 	andseq	r1, r4, r0, lsl #18
    2414:	61760e00 	cmnvs	r6, r0, lsl #28
    2418:	4901006c 	stmdbmi	r1, {r2, r3, r5, r6}
    241c:	0000252b 	andeq	r2, r0, fp, lsr #10
    2420:	00144700 	andseq	r4, r4, r0, lsl #14
    2424:	00143b00 	andseq	r3, r4, r0, lsl #22
    2428:	04b31f00 	ldrteq	r1, [r3], #3840	; 0xf00
    242c:	49010000 	stmdbmi	r1, {}	; <UNPREDICTABLE>
    2430:	00002534 	andeq	r2, r0, r4, lsr r5
    2434:	00149d00 	andseq	r9, r4, r0, lsl #26
    2438:	00149700 	andseq	r9, r4, r0, lsl #14
    243c:	057a0f00 	ldrbeq	r0, [sl, #-3840]!	; 0xfffff100
    2440:	49010000 	stmdbmi	r1, {}	; <UNPREDICTABLE>
    2444:	0000253f 	andeq	r2, r0, pc, lsr r5
    2448:	04910200 	ldreq	r0, [r1], #512	; 0x200
    244c:	66756214 			; <UNDEFINED> instruction: 0x66756214
    2450:	074e0100 	strbeq	r0, [lr, -r0, lsl #2]
    2454:	000008ab 	andeq	r0, r0, fp, lsr #17
    2458:	7fa89103 	svcvc	0x00a89103
    245c:	01007010 	tsteq	r0, r0, lsl r0
    2460:	0717114e 	ldreq	r1, [r7, -lr, asr #2]
    2464:	14e70000 	strbtne	r0, [r7], #0
    2468:	14c70000 	strbne	r0, [r7], #0
    246c:	75100000 	ldrvc	r0, [r0, #-0]
    2470:	0b4f0100 	bleq	13c2878 <__bss_end__+0x13b8b00>
    2474:	0000002c 	andeq	r0, r0, ip, lsr #32
    2478:	000015cd 	andeq	r1, r0, sp, asr #11
    247c:	000015b9 			; <UNDEFINED> instruction: 0x000015b9
    2480:	0000e312 	andeq	lr, r0, r2, lsl r3
    2484:	0008cb00 	andeq	ip, r8, r0, lsl #22
    2488:	34030500 	strcc	r0, [r3], #-1280	; 0xfffffb00
    248c:	16000097 			; <UNDEFINED> instruction: 0x16000097
    2490:	000085f8 	strdeq	r8, [r0], -r8	; <UNPREDICTABLE>
    2494:	00000078 	andeq	r0, r0, r8, ror r0
    2498:	00000832 	andeq	r0, r0, r2, lsr r8
    249c:	00051611 	andeq	r1, r5, r1, lsl r6
    24a0:	0d540100 	ldfeqe	f0, [r4, #-0]
    24a4:	0000002c 	andeq	r0, r0, ip, lsr #32
    24a8:	0000164e 	andeq	r1, r0, lr, asr #12
    24ac:	00001646 	andeq	r1, r0, r6, asr #12
    24b0:	86b01800 	ldrthi	r1, [r0], r0, lsl #16
    24b4:	095d0000 	ldmdbeq	sp, {}^	; <UNPREDICTABLE>
    24b8:	08470000 	stmdaeq	r7, {}^	; <UNPREDICTABLE>
    24bc:	01190000 	tsteq	r9, r0
    24c0:	a0910351 	addsge	r0, r1, r1, asr r3
    24c4:	c418007f 	ldrgt	r0, [r8], #-127	; 0xffffff81
    24c8:	d0000086 	andle	r0, r0, r6, lsl #1
    24cc:	68000008 	stmdavs	r0, {r3}
    24d0:	19000008 	stmdbne	r0, {r3}
    24d4:	75025001 	strvc	r5, [r2, #-1]
    24d8:	51011900 	tstpl	r1, r0, lsl #18
    24dc:	19007402 	stmdbne	r0, {r1, sl, ip, sp, lr}
    24e0:	91035301 	tstls	r3, r1, lsl #6
    24e4:	18007fa0 	stmdane	r0, {r5, r7, r8, r9, sl, fp, ip, sp, lr}
    24e8:	0000871c 	andeq	r8, r0, ip, lsl r7
    24ec:	00000a9e 	muleq	r0, lr, sl
    24f0:	000008a1 	andeq	r0, r0, r1, lsr #17
    24f4:	05500119 	ldrbeq	r0, [r0, #-281]	; 0xfffffee7
    24f8:	0095f003 	addseq	pc, r5, r3
    24fc:	51011900 	tstpl	r1, r0, lsl #18
    2500:	95dc0305 	ldrbls	r0, [ip, #773]	; 0x305
    2504:	01190000 	tsteq	r9, r0
    2508:	34030552 	strcc	r0, [r3], #-1362	; 0xfffffaae
    250c:	19000097 	stmdbne	r0, {r0, r1, r2, r4, r7}
    2510:	08025301 	stmdaeq	r2, {r0, r8, r9, ip, lr}
    2514:	7d021979 	vstrvc.16	s2, [r2, #-242]	; 0xffffff0e	; <UNPREDICTABLE>
    2518:	04030500 	streq	r0, [r3], #-1280	; 0xfffffb00
    251c:	00000096 	muleq	r0, r6, r0
    2520:	0087201a 	addeq	r2, r7, sl, lsl r0
    2524:	000ac200 	andeq	ip, sl, r0, lsl #4
    2528:	b91c0000 	ldmdblt	ip, {}	; <UNPREDICTABLE>
    252c:	bb000000 	bllt	2534 <__code_start__-0x5acc>
    2530:	1d000008 	stcne	0, cr0, [r0, #-32]	; 0xffffffe0
    2534:	0000002c 	andeq	r0, r0, ip, lsr #32
    2538:	c01c003f 	andsgt	r0, ip, pc, lsr r0
    253c:	cb000000 	blgt	2544 <__code_start__-0x5abc>
    2540:	1d000008 	stcne	0, cr0, [r0, #-32]	; 0xffffffe0
    2544:	0000002c 	andeq	r0, r0, ip, lsr #32
    2548:	bb090004 	bllt	242560 <__bss_end__+0x2387e8>
    254c:	1e000008 	cdpne	0, 0, cr0, cr0, cr8, {0}
    2550:	0000053b 	andeq	r0, r0, fp, lsr r5
    2554:	170e3801 	strne	r3, [lr, -r1, lsl #16]
    2558:	54000007 	strpl	r0, [r0], #-7
    255c:	38000085 	stmdacc	r0, {r0, r2, r7}
    2560:	01000000 	mrseq	r0, (UNDEF: 0)
    2564:	00095d9c 	muleq	r9, ip, sp
    2568:	73640e00 	cmnvc	r4, #0, 28
    256c:	38010074 	stmdacc	r1, {r2, r4, r5, r6}
    2570:	0007171c 	andeq	r1, r7, ip, lsl r7
    2574:	00168f00 	andseq	r8, r6, r0, lsl #30
    2578:	00168500 	andseq	r8, r6, r0, lsl #10
    257c:	006e0e00 	rsbeq	r0, lr, r0, lsl #28
    2580:	25253801 	strcs	r3, [r5, #-2049]!	; 0xfffff7ff
    2584:	d6000000 	strle	r0, [r0], -r0
    2588:	d2000016 	andle	r0, r0, #22, 0
    258c:	0e000016 	mcreq	0, 0, r0, cr0, cr6, {0}
    2590:	38010070 	stmdacc	r1, {r4, r5, r6}
    2594:	0007172e 	andeq	r1, r7, lr, lsr #14
    2598:	0016ff00 	andseq	pc, r6, r0, lsl #30
    259c:	0016f700 	andseq	pc, r6, r0, lsl #14
    25a0:	09af1f00 	stmibeq	pc!, {r8, r9, sl, fp, ip}	; <UNPREDICTABLE>
    25a4:	38010000 	stmdacc	r1, {}	; <UNPREDICTABLE>
    25a8:	00071737 	andeq	r1, r7, r7, lsr r7
    25ac:	00173900 	andseq	r3, r7, r0, lsl #18
    25b0:	00173500 	andseq	r3, r7, r0, lsl #10
    25b4:	656c1000 	strbvs	r1, [ip, #-0]!
    25b8:	3a01006e 	bcc	42778 <__bss_end__+0x38a00>
    25bc:	00002506 	andeq	r2, r0, r6, lsl #10
    25c0:	00175f00 	andseq	r5, r7, r0, lsl #30
    25c4:	00175700 	andseq	r5, r7, r0, lsl #14
    25c8:	00731000 	rsbseq	r1, r3, r0
    25cc:	17083e01 	strne	r3, [r8, -r1, lsl #28]
    25d0:	ad000007 	stcge	0, cr0, [r0, #-28]	; 0xffffffe4
    25d4:	ab000017 	blge	2638 <__code_start__-0x59c8>
    25d8:	00000017 	andeq	r0, r0, r7, lsl r0
    25dc:	64617020 	strbtvs	r7, [r1], #-32	; 0xffffffe0
    25e0:	0e2e0100 	sufeqe	f0, f6, f0
    25e4:	00000717 	andeq	r0, r0, r7, lsl r7
    25e8:	00008530 	andeq	r8, r0, r0, lsr r5
    25ec:	00000024 	andeq	r0, r0, r4, lsr #32
    25f0:	09c09c01 	stmibeq	r0, {r0, sl, fp, ip, pc}^
    25f4:	700e0000 	andvc	r0, lr, r0
    25f8:	182e0100 	stmdane	lr!, {r8}
    25fc:	00000717 	andeq	r0, r0, r7, lsl r7
    2600:	000017c6 	andeq	r1, r0, r6, asr #15
    2604:	000017c0 	andeq	r1, r0, r0, asr #15
    2608:	0005751f 	andeq	r7, r5, pc, lsl r5
    260c:	222e0100 	eorcs	r0, lr, #0
    2610:	00000717 	andeq	r0, r0, r7, lsl r7
    2614:	000017f5 	strdeq	r1, [r0], -r5
    2618:	000017f1 	strdeq	r1, [r0], -r1	; <UNPREDICTABLE>
    261c:	0004b30f 	andeq	fp, r4, pc, lsl #6
    2620:	2c2e0100 	stfcss	f0, [lr], #-0
    2624:	00000025 	andeq	r0, r0, r5, lsr #32
    2628:	6c105201 	lfmvs	f5, 4, [r0], {1}
    262c:	01006e65 	tsteq	r0, r5, ror #28
    2630:	0025062f 	eoreq	r0, r5, pc, lsr #12
    2634:	18180000 	ldmdane	r8, {}	; <UNPREDICTABLE>
    2638:	18160000 	ldmdane	r6, {}	; <UNPREDICTABLE>
    263c:	1e000000 	cdpne	0, 0, cr0, cr0, cr0, {0}
    2640:	00000472 	andeq	r0, r0, r2, ror r4
    2644:	250c2701 	strcs	r2, [ip, #-1793]	; 0xfffff8ff
    2648:	1c000000 	stcne	0, cr0, [r0], {-0}
    264c:	14000085 	strne	r0, [r0], #-133	; 0xffffff7b
    2650:	01000000 	mrseq	r0, (UNDEF: 0)
    2654:	0009ed9c 	muleq	r9, ip, sp
    2658:	00630e00 	rsbeq	r0, r3, r0, lsl #28
    265c:	25182701 	ldrcs	r2, [r8, #-1793]	; 0xfffff8ff
    2660:	31000000 	mrscc	r0, (UNDEF: 0)
    2664:	2b000018 	blcs	26cc <__code_start__-0x5934>
    2668:	00000018 	andeq	r0, r0, r8, lsl r0
    266c:	0004f621 	andeq	pc, r4, r1, lsr #12
    2670:	061f0100 	ldreq	r0, [pc], -r0, lsl #2
    2674:	00008740 	andeq	r8, r0, r0, asr #14
    2678:	00000064 	andeq	r0, r0, r4, rrx
    267c:	0a7d9c01 	beq	1f69688 <__bss_end__+0x1f5f910>
    2680:	d31f0000 	tstle	pc, #0, 0
    2684:	01000004 	tsteq	r0, r4
    2688:	009e1b1f 	addseq	r1, lr, pc, lsl fp
    268c:	18630000 	stmdane	r3!, {}^	; <UNPREDICTABLE>
    2690:	185f0000 	ldmdane	pc, {}^	; <UNPREDICTABLE>
    2694:	331f0000 	tstcc	pc, #0, 0
    2698:	01000005 	tsteq	r0, r5
    269c:	00d1301f 	sbcseq	r3, r1, pc, lsl r0
    26a0:	18880000 	stmne	r8, {}	; <UNPREDICTABLE>
    26a4:	18840000 	stmne	r4, {}	; <UNPREDICTABLE>
    26a8:	e3120000 	tst	r2, #0, 0
    26ac:	8d000000 	stchi	0, cr0, [r0, #-0]
    26b0:	0500000a 	streq	r0, [r0, #-10]
    26b4:	00973c03 	addseq	r3, r7, r3, lsl #24
    26b8:	87881800 	strhi	r1, [r8, r0, lsl #16]
    26bc:	0a9e0000 	beq	fe7826c4 <__bss_end__+0xfe77894c>
    26c0:	0a730000 	beq	1cc26c8 <__bss_end__+0x1cb8950>
    26c4:	01190000 	tsteq	r9, r0
    26c8:	f0030550 			; <UNDEFINED> instruction: 0xf0030550
    26cc:	19000095 	stmdbne	r0, {r0, r2, r4, r7}
    26d0:	03055101 	movweq	r5, #20737	; 0x5101
    26d4:	000095dc 	ldrdeq	r9, [r0], -ip
    26d8:	05520119 	ldrbeq	r0, [r2, #-281]	; 0xfffffee7
    26dc:	00973c03 	addseq	r3, r7, r3, lsl #24
    26e0:	53011900 	movwpl	r1, #6400	; 0x1900
    26e4:	19200802 	stmdbne	r0!, {r1, fp}
    26e8:	05007d02 	streq	r7, [r0, #-3330]	; 0xfffff2fe
    26ec:	00962c03 	addseq	r2, r6, r3, lsl #24
    26f0:	8c1a0000 	ldchi	0, cr0, [sl], {-0}
    26f4:	c2000087 	andgt	r0, r0, #135, 0	; 0x87
    26f8:	0000000a 	andeq	r0, r0, sl
    26fc:	0000c01c 	andeq	ip, r0, ip, lsl r0
    2700:	000a8d00 	andeq	r8, sl, r0, lsl #26
    2704:	002c1d00 	eoreq	r1, ip, r0, lsl #26
    2708:	000e0000 	andeq	r0, lr, r0
    270c:	000a7d09 	andeq	r7, sl, r9, lsl #26
    2710:	056d2200 	strbeq	r2, [sp, #-512]!	; 0xfffffe00
    2714:	056d0000 	strbeq	r0, [sp, #-0]!
    2718:	f0030000 			; <UNDEFINED> instruction: 0xf0030000
    271c:	04212205 	strteq	r2, [r1], #-517	; 0xfffffdfb
    2720:	04210000 	strteq	r0, [r1], #-0
    2724:	28030000 	stmdacs	r3, {}	; <UNPREDICTABLE>
    2728:	054a2206 	strbeq	r2, [sl, #-518]	; 0xfffffdfa
    272c:	054a0000 	strbeq	r0, [sl, #-0]
    2730:	ef030000 	svc	0x00030000
    2734:	050f2205 	streq	r2, [pc, #-517]	; 2537 <__code_start__-0x5ac9>
    2738:	050f0000 	streq	r0, [pc, #-0]	; 2740 <__code_start__-0x58c0>
    273c:	f2030000 	vhadd.s8	d0, d3, d0
    2740:	04b92207 	ldrteq	r2, [r9], #519	; 0x207
    2744:	04b90000 	ldrteq	r0, [r9], #0
    2748:	6e030000 	cdpvs	0, 0, cr0, cr3, cr0, {0}
    274c:	05432206 	strbeq	r2, [r3, #-518]	; 0xfffffdfa
    2750:	05430000 	strbeq	r0, [r3, #-0]
    2754:	f3030000 	vhadd.u8	d0, d3, d0
    2758:	010a0007 	tsteq	sl, r7
    275c:	00040000 	andeq	r0, r4, r0
    2760:	00000ab4 			; <UNDEFINED> instruction: 0x00000ab4
    2764:	02f10104 	rscseq	r0, r1, #1
    2768:	910c0000 	mrsls	r0, (UNDEF: 12)
    276c:	c2000005 	andgt	r0, r0, #5, 0
    2770:	48000003 	stmdami	r0, {r0, r1}
    2774:	00000004 	andeq	r0, r0, r4
    2778:	b7000000 	strlt	r0, [r0, -r0]
    277c:	02000012 	andeq	r0, r0, #18, 0
    2780:	6e690504 	cdpvs	5, 6, cr0, cr9, cr4, {0}
    2784:	04030074 	streq	r0, [r3], #-116	; 0xffffff8c
    2788:	00013207 	andeq	r3, r1, r7, lsl #4
    278c:	06010300 	streq	r0, [r1], -r0, lsl #6
    2790:	00000112 	andeq	r0, r0, r2, lsl r1
    2794:	10050203 	andne	r0, r5, r3, lsl #4
    2798:	03000000 	movweq	r0, #0
    279c:	00c30504 	sbceq	r0, r3, r4, lsl #10
    27a0:	08030000 	stmdaeq	r3, {}	; <UNPREDICTABLE>
    27a4:	0000be05 	andeq	fp, r0, r5, lsl #28
    27a8:	08010300 	stmdaeq	r1, {r8, r9}
    27ac:	00000110 	andeq	r0, r0, r0, lsl r1
    27b0:	47070203 	strmi	r0, [r7, -r3, lsl #4]
    27b4:	03000001 	movweq	r0, #1
    27b8:	012d0704 			; <UNDEFINED> instruction: 0x012d0704
    27bc:	08030000 	stmdaeq	r3, {}	; <UNPREDICTABLE>
    27c0:	00012807 	andeq	r2, r1, r7, lsl #16
    27c4:	00250400 	eoreq	r0, r5, r0, lsl #8
    27c8:	007a0000 	rsbseq	r0, sl, r0
    27cc:	25050000 	strcs	r0, [r5, #-0]
    27d0:	00000000 	andeq	r0, r0, r0
    27d4:	00001f06 	andeq	r1, r0, r6, lsl #30
    27d8:	0e1c0200 	cdpeq	2, 1, cr0, cr12, cr0, {0}
    27dc:	00000086 	andeq	r0, r0, r6, lsl #1
    27e0:	006b0407 	rsbeq	r0, fp, r7, lsl #8
    27e4:	25040000 	strcs	r0, [r4, #-0]
    27e8:	9b000000 	blls	27f0 <__code_start__-0x5810>
    27ec:	05000000 	streq	r0, [r0, #-0]
    27f0:	0000009b 	muleq	r0, fp, r0
    27f4:	a8040700 	stmdage	r4, {r8, r9, sl}
    27f8:	03000000 	movweq	r0, #0
    27fc:	01190801 	tsteq	r9, r1, lsl #16
    2800:	a1080000 	mrsge	r0, (UNDEF: 8)
    2804:	06000000 	streq	r0, [r0], -r0
    2808:	0000045f 	andeq	r0, r0, pc, asr r4
    280c:	b90e2102 	stmdblt	lr, {r1, r8, sp}
    2810:	07000000 	streq	r0, [r0, -r0]
    2814:	00008c04 	andeq	r8, r0, r4, lsl #24
    2818:	05830900 	streq	r0, [r3, #2304]	; 0x900
    281c:	0c010000 	stceq	0, cr0, [r1], {-0}
    2820:	008c6c06 	addeq	r6, ip, r6, lsl #24
    2824:	00001000 	andeq	r1, r0, r0
    2828:	e89c0100 	ldm	ip, {r8}
    282c:	0a000000 	beq	2834 <__code_start__-0x57cc>
    2830:	0d010072 	stceq	0, cr0, [r1, #-456]	; 0xfffffe38
    2834:	00002c0e 	andeq	r2, r0, lr, lsl #24
    2838:	0018af00 	andseq	sl, r8, r0, lsl #30
    283c:	0018a900 	andseq	sl, r8, r0, lsl #18
    2840:	f00b0000 			; <UNDEFINED> instruction: 0xf00b0000
    2844:	01000000 	mrseq	r0, (UNDEF: 0)
    2848:	8c5c0603 	mrrchi	6, 0, r0, ip, cr3
    284c:	00100000 	andseq	r0, r0, r0
    2850:	9c010000 	stcls	0, cr0, [r1], {-0}
    2854:	0100720a 	tsteq	r0, sl, lsl #4
    2858:	002c0e04 	eoreq	r0, ip, r4, lsl #28
    285c:	18e40000 	stmiane	r4!, {}^	; <UNPREDICTABLE>
    2860:	18de0000 	ldmne	lr, {}^	; <UNPREDICTABLE>
    2864:	00000000 	andeq	r0, r0, r0
    2868:	0000012f 	andeq	r0, r0, pc, lsr #2
    286c:	0b5d0004 	bleq	1742884 <__bss_end__+0x1738b0c>
    2870:	01040000 	mrseq	r0, (UNDEF: 4)
    2874:	000002f1 	strdeq	r0, [r0], -r1
    2878:	0005b00c 	andeq	fp, r5, ip
    287c:	0003c200 	andeq	ip, r3, r0, lsl #4
    2880:	008c7c00 	addeq	r7, ip, r0, lsl #24
    2884:	00002c00 	andeq	r2, r0, r0, lsl #24
    2888:	00137e00 	andseq	r7, r3, r0, lsl #28
    288c:	05040200 	streq	r0, [r4, #-512]	; 0xfffffe00
    2890:	00746e69 	rsbseq	r6, r4, r9, ror #28
    2894:	32070403 	andcc	r0, r7, #50331648	; 0x3000000
    2898:	03000001 	movweq	r0, #1
    289c:	01120601 	tsteq	r2, r1, lsl #12
    28a0:	02030000 	andeq	r0, r3, #0, 0
    28a4:	00001005 	andeq	r1, r0, r5
    28a8:	05040300 	streq	r0, [r4, #-768]	; 0xfffffd00
    28ac:	000000c3 	andeq	r0, r0, r3, asr #1
    28b0:	be050803 	cdplt	8, 0, cr0, cr5, cr3, {0}
    28b4:	03000000 	movweq	r0, #0
    28b8:	01100801 	tsteq	r0, r1, lsl #16
    28bc:	02030000 	andeq	r0, r3, #0, 0
    28c0:	00014707 	andeq	r4, r1, r7, lsl #14
    28c4:	07040300 	streq	r0, [r4, -r0, lsl #6]
    28c8:	0000012d 	andeq	r0, r0, sp, lsr #2
    28cc:	28070803 	stmdacs	r7, {r0, r1, fp}
    28d0:	04000001 	streq	r0, [r0], #-1
    28d4:	00000025 	andeq	r0, r0, r5, lsr #32
    28d8:	0000007a 	andeq	r0, r0, sl, ror r0
    28dc:	00002505 	andeq	r2, r0, r5, lsl #10
    28e0:	1f060000 	svcne	0x00060000
    28e4:	02000000 	andeq	r0, r0, #0, 0
    28e8:	00860e1c 	addeq	r0, r6, ip, lsl lr
    28ec:	04070000 	streq	r0, [r7], #-0
    28f0:	0000006b 	andeq	r0, r0, fp, rrx
    28f4:	00002504 	andeq	r2, r0, r4, lsl #10
    28f8:	00009b00 	andeq	r9, r0, r0, lsl #22
    28fc:	009b0500 	addseq	r0, fp, r0, lsl #10
    2900:	07000000 	streq	r0, [r0, -r0]
    2904:	0000a804 	andeq	sl, r0, r4, lsl #16
    2908:	08010300 	stmdaeq	r1, {r8, r9}
    290c:	00000119 	andeq	r0, r0, r9, lsl r1
    2910:	0000a108 	andeq	sl, r0, r8, lsl #2
    2914:	045f0600 	ldrbeq	r0, [pc], #-1536	; 291c <__code_start__-0x56e4>
    2918:	21020000 	mrscs	r0, (UNDEF: 2)
    291c:	0000b90e 	andeq	fp, r0, lr, lsl #18
    2920:	8c040700 	stchi	7, cr0, [r4], {-0}
    2924:	09000000 	stmdbeq	r0, {}	; <UNPREDICTABLE>
    2928:	000004b9 			; <UNDEFINED> instruction: 0x000004b9
    292c:	7c060401 	cfstrsvc	mvf0, [r6], {1}
    2930:	2c00008c 	stccs	0, cr0, [r0], {140}	; 0x8c
    2934:	01000000 	mrseq	r0, (UNDEF: 0)
    2938:	00010e9c 	muleq	r1, ip, lr
    293c:	8c900a00 	vldmiahi	r0, {s0-s-1}
    2940:	00e80000 	rsceq	r0, r8, r0
    2944:	010b0000 	mrseq	r0, (UNDEF: 11)
    2948:	58030550 	stmdapl	r3, {r4, r6, r8, sl}
    294c:	00000097 	muleq	r0, r7, r0
    2950:	008c940c 	addeq	r9, ip, ip, lsl #8
    2954:	00010e00 	andeq	r0, r1, r0, lsl #28
    2958:	8c9c0d00 	ldchi	13, cr0, [ip], {0}
    295c:	011a0000 	tsteq	sl, r0
    2960:	01040000 	mrseq	r0, (UNDEF: 4)
    2964:	010b0000 	mrseq	r0, (UNDEF: 11)
    2968:	003a0150 	eorseq	r0, sl, r0, asr r1
    296c:	008ca00c 	addeq	sl, ip, ip
    2970:	00012600 	andeq	r2, r1, r0, lsl #12
    2974:	cb0e0000 	blgt	38297c <__bss_end__+0x378c04>
    2978:	cb000005 	blgt	2994 <__code_start__-0x566c>
    297c:	02000005 	andeq	r0, r0, #5, 0
    2980:	720e064d 	andvc	r0, lr, #80740352	; 0x4d00000
    2984:	72000001 	andvc	r0, r0, #1, 0
    2988:	02000001 	andeq	r0, r0, #1, 0
    298c:	a50e0658 	strge	r0, [lr, #-1624]	; 0xfffff9a8
    2990:	a5000005 	strge	r0, [r0, #-5]
    2994:	02000005 	andeq	r0, r0, #5, 0
    2998:	8900066b 	stmdbhi	r0, {r0, r1, r3, r5, r6, r9, sl}
    299c:	04000001 	streq	r0, [r0], #-1
    29a0:	000c1d00 	andeq	r1, ip, r0, lsl #26
    29a4:	f1010400 			; <UNDEFINED> instruction: 0xf1010400
    29a8:	0c000002 	stceq	0, cr0, [r0], {2}
    29ac:	00000601 	andeq	r0, r0, r1, lsl #12
    29b0:	000003c2 	andeq	r0, r0, r2, asr #7
    29b4:	00008ca8 	andeq	r8, r0, r8, lsr #25
    29b8:	0000003c 	andeq	r0, r0, ip, lsr r0
    29bc:	00001426 	andeq	r1, r0, r6, lsr #8
    29c0:	69050402 	stmdbvs	r5, {r1, sl}
    29c4:	0300746e 	movweq	r7, #1134	; 0x46e
    29c8:	01320704 	teqeq	r2, r4, lsl #14
    29cc:	01030000 	mrseq	r0, (UNDEF: 3)
    29d0:	00011206 	andeq	r1, r1, r6, lsl #4
    29d4:	05020300 	streq	r0, [r2, #-768]	; 0xfffffd00
    29d8:	00000010 	andeq	r0, r0, r0, lsl r0
    29dc:	c3050403 	movwgt	r0, #21507	; 0x5403
    29e0:	03000000 	movweq	r0, #0
    29e4:	00be0508 	adcseq	r0, lr, r8, lsl #10
    29e8:	01030000 	mrseq	r0, (UNDEF: 3)
    29ec:	00011008 	andeq	r1, r1, r8
    29f0:	07020300 	streq	r0, [r2, -r0, lsl #6]
    29f4:	00000147 	andeq	r0, r0, r7, asr #2
    29f8:	2d070403 	cfstrscs	mvf0, [r7, #-12]
    29fc:	03000001 	movweq	r0, #1
    2a00:	01280708 			; <UNDEFINED> instruction: 0x01280708
    2a04:	25040000 	strcs	r0, [r4, #-0]
    2a08:	7a000000 	bvc	2a10 <__code_start__-0x55f0>
    2a0c:	05000000 	streq	r0, [r0, #-0]
    2a10:	00000025 	andeq	r0, r0, r5, lsr #32
    2a14:	001f0600 	andseq	r0, pc, r0, lsl #12
    2a18:	1c020000 	stcne	0, cr0, [r2], {-0}
    2a1c:	0000860e 	andeq	r8, r0, lr, lsl #12
    2a20:	6b040700 	blvs	104628 <__bss_end__+0xfa8b0>
    2a24:	04000000 	streq	r0, [r0], #-0
    2a28:	00000025 	andeq	r0, r0, r5, lsr #32
    2a2c:	0000009b 	muleq	r0, fp, r0
    2a30:	00009b05 	andeq	r9, r0, r5, lsl #22
    2a34:	04070000 	streq	r0, [r7], #-0
    2a38:	000000a8 	andeq	r0, r0, r8, lsr #1
    2a3c:	19080103 	stmdbne	r8, {r0, r1, r8}
    2a40:	08000001 	stmdaeq	r0, {r0}
    2a44:	000000a1 	andeq	r0, r0, r1, lsr #1
    2a48:	00045f06 	andeq	r5, r4, r6, lsl #30
    2a4c:	0e210200 	cdpeq	2, 2, cr0, cr1, cr0, {0}
    2a50:	000000b9 	strheq	r0, [r0], -r9
    2a54:	008c0407 	addeq	r0, ip, r7, lsl #8
    2a58:	d9090000 	stmdble	r9, {}	; <UNPREDICTABLE>
    2a5c:	01000005 	tsteq	r0, r5
    2a60:	8ca80604 	stchi	6, cr0, [r8], #16
    2a64:	003c0000 	eorseq	r0, ip, r0
    2a68:	9c010000 	stcls	0, cr0, [r1], {-0}
    2a6c:	00000154 	andeq	r0, r0, r4, asr r1
    2a70:	0004a506 	andeq	sl, r4, r6, lsl #10
    2a74:	10050100 	andne	r0, r5, r0, lsl #2
    2a78:	00000025 	andeq	r0, r0, r5, lsr #32
    2a7c:	0004db06 	andeq	sp, r4, r6, lsl #22
    2a80:	1f050100 	svcne	0x00050100
    2a84:	00000025 	andeq	r0, r0, r5, lsr #32
    2a88:	00013f0a 	andeq	r3, r1, sl, lsl #30
    2a8c:	07060100 	streq	r0, [r6, -r0, lsl #2]
    2a90:	7373620b 	cmnvc	r3, #-1342177280	; 0xb0000000
    2a94:	0a0a0100 	beq	282e9c <__bss_end__+0x279124>
    2a98:	00000154 	andeq	r0, r0, r4, asr r1
    2a9c:	00001919 	andeq	r1, r0, r9, lsl r9
    2aa0:	00001913 	andeq	r1, r0, r3, lsl r9
    2aa4:	0005e10c 	andeq	lr, r5, ip, lsl #2
    2aa8:	0a0b0100 	beq	2c2eb0 <__bss_end__+0x2b9138>
    2aac:	00000154 	andeq	r0, r0, r4, asr r1
    2ab0:	008ccc0d 	addeq	ip, ip, sp, lsl #24
    2ab4:	00000800 	andeq	r0, r0, r0, lsl #16
    2ab8:	00012f00 	andeq	r2, r1, r0, lsl #30
    2abc:	6e690e00 	cdpvs	14, 6, cr0, cr9, cr0, {0}
    2ac0:	05140100 	ldreq	r0, [r4, #-256]	; 0xffffff00
    2ac4:	0000002c 	andeq	r0, r0, ip, lsr #32
    2ac8:	b00f0001 	andlt	r0, pc, r1
    2acc:	5a00008c 	bpl	2d04 <__code_start__-0x52fc>
    2ad0:	0f000001 	svceq	0x00000001
    2ad4:	00008ccc 	andeq	r8, r0, ip, asr #25
    2ad8:	00000167 	andeq	r0, r0, r7, ror #2
    2adc:	008cd80f 	addeq	sp, ip, pc, lsl #16
    2ae0:	00017300 	andeq	r7, r1, r0, lsl #6
    2ae4:	8cdc0f00 	ldclhi	15, cr0, [ip], {0}
    2ae8:	01800000 	orreq	r0, r0, r0
    2aec:	07000000 	streq	r0, [r0, -r0]
    2af0:	00002504 	andeq	r2, r0, r4, lsl #10
    2af4:	05f31000 	ldrbeq	r1, [r3, #0]!
    2af8:	05f30000 	ldrbeq	r0, [r3, #0]!
    2afc:	36020000 	strcc	r0, [r2], -r0
    2b00:	e9110601 	ldmdb	r1, {r0, r9, sl}
    2b04:	e9000005 	stmdb	r0, {r0, r2}
    2b08:	02000005 	andeq	r0, r0, #5, 0
    2b0c:	3f10063b 	svccc	0x0010063b
    2b10:	3f000001 	svccc	0x00000001
    2b14:	02000001 	andeq	r0, r0, #1, 0
    2b18:	1106010a 	tstne	r6, sl, lsl #2
    2b1c:	000004b9 			; <UNDEFINED> instruction: 0x000004b9
    2b20:	000004b9 			; <UNDEFINED> instruction: 0x000004b9
    2b24:	00066e02 	andeq	r6, r6, r2, lsl #28
    2b28:	000000ce 	andeq	r0, r0, lr, asr #1
    2b2c:	0d190004 	ldceq	0, cr0, [r9, #-16]
    2b30:	01040000 	mrseq	r0, (UNDEF: 4)
    2b34:	000002f1 	strdeq	r0, [r0], -r1
    2b38:	0006160c 	andeq	r1, r6, ip, lsl #12
    2b3c:	0003c200 	andeq	ip, r3, r0, lsl #4
    2b40:	008ce400 	addeq	lr, ip, r0, lsl #8
    2b44:	00000400 	andeq	r0, r0, r0, lsl #8
    2b48:	0014e800 	andseq	lr, r4, r0, lsl #16
    2b4c:	05040200 	streq	r0, [r4, #-512]	; 0xfffffe00
    2b50:	00746e69 	rsbseq	r6, r4, r9, ror #28
    2b54:	32070403 	andcc	r0, r7, #50331648	; 0x3000000
    2b58:	03000001 	movweq	r0, #1
    2b5c:	01120601 	tsteq	r2, r1, lsl #12
    2b60:	02030000 	andeq	r0, r3, #0, 0
    2b64:	00001005 	andeq	r1, r0, r5
    2b68:	05040300 	streq	r0, [r4, #-768]	; 0xfffffd00
    2b6c:	000000c3 	andeq	r0, r0, r3, asr #1
    2b70:	be050803 	cdplt	8, 0, cr0, cr5, cr3, {0}
    2b74:	03000000 	movweq	r0, #0
    2b78:	01100801 	tsteq	r0, r1, lsl #16
    2b7c:	02030000 	andeq	r0, r3, #0, 0
    2b80:	00014707 	andeq	r4, r1, r7, lsl #14
    2b84:	07040300 	streq	r0, [r4, -r0, lsl #6]
    2b88:	0000012d 	andeq	r0, r0, sp, lsr #2
    2b8c:	28070803 	stmdacs	r7, {r0, r1, fp}
    2b90:	04000001 	streq	r0, [r0], #-1
    2b94:	00000025 	andeq	r0, r0, r5, lsr #32
    2b98:	0000007a 	andeq	r0, r0, sl, ror r0
    2b9c:	00002505 	andeq	r2, r0, r5, lsl #10
    2ba0:	1f060000 	svcne	0x00060000
    2ba4:	02000000 	andeq	r0, r0, #0, 0
    2ba8:	00860e1c 	addeq	r0, r6, ip, lsl lr
    2bac:	04070000 	streq	r0, [r7], #-0
    2bb0:	0000006b 	andeq	r0, r0, fp, rrx
    2bb4:	00002504 	andeq	r2, r0, r4, lsl #10
    2bb8:	00009b00 	andeq	r9, r0, r0, lsl #22
    2bbc:	009b0500 	addseq	r0, fp, r0, lsl #10
    2bc0:	07000000 	streq	r0, [r0, -r0]
    2bc4:	0000a804 	andeq	sl, r0, r4, lsl #16
    2bc8:	08010300 	stmdaeq	r1, {r8, r9}
    2bcc:	00000119 	andeq	r0, r0, r9, lsl r1
    2bd0:	0000a108 	andeq	sl, r0, r8, lsl #2
    2bd4:	045f0600 	ldrbeq	r0, [pc], #-1536	; 2bdc <__code_start__-0x5424>
    2bd8:	21020000 	mrscs	r0, (UNDEF: 2)
    2bdc:	0000b90e 	andeq	fp, r0, lr, lsl #18
    2be0:	8c040700 	stchi	7, cr0, [r4], {-0}
    2be4:	09000000 	stmdbeq	r0, {}	; <UNPREDICTABLE>
    2be8:	000005f3 	strdeq	r0, [r0], -r3
    2bec:	e4060401 	str	r0, [r6], #-1025	; 0xfffffbff
    2bf0:	0400008c 	streq	r0, [r0], #-140	; 0xffffff74
    2bf4:	01000000 	mrseq	r0, (UNDEF: 0)
    2bf8:	0236009c 	eorseq	r0, r6, #156, 0	; 0x9c
    2bfc:	00040000 	andeq	r0, r4, r0
    2c00:	00000d92 	muleq	r0, r2, sp
    2c04:	02f10104 	rscseq	r0, r1, #1
    2c08:	5e0c0000 	cdppl	0, 0, cr0, cr12, cr0, {0}
    2c0c:	c2000006 	andgt	r0, r0, #6, 0
    2c10:	58000003 	stmdapl	r0, {r0, r1}
    2c14:	00000004 	andeq	r0, r0, r4
    2c18:	8e000000 	cdphi	0, 0, cr0, cr0, cr0, {0}
    2c1c:	02000015 	andeq	r0, r0, #21, 0
    2c20:	6e690504 	cdpvs	5, 6, cr0, cr9, cr4, {0}
    2c24:	25030074 	strcs	r0, [r3, #-116]	; 0xffffff8c
    2c28:	04000000 	streq	r0, [r0], #-0
    2c2c:	01320704 	teqeq	r2, r4, lsl #14
    2c30:	01040000 	mrseq	r0, (UNDEF: 4)
    2c34:	00011206 	andeq	r1, r1, r6, lsl #4
    2c38:	05020400 	streq	r0, [r2, #-1024]	; 0xfffffc00
    2c3c:	00000010 	andeq	r0, r0, r0, lsl r0
    2c40:	c3050404 	movwgt	r0, #21508	; 0x5404
    2c44:	04000000 	streq	r0, [r0], #-0
    2c48:	00be0508 	adcseq	r0, lr, r8, lsl #10
    2c4c:	01040000 	mrseq	r0, (UNDEF: 4)
    2c50:	00011008 	andeq	r1, r1, r8
    2c54:	07020400 	streq	r0, [r2, -r0, lsl #8]
    2c58:	00000147 	andeq	r0, r0, r7, asr #2
    2c5c:	2d070404 	cfstrscs	mvf0, [r7, #-16]
    2c60:	04000001 	streq	r0, [r0], #-1
    2c64:	01280708 			; <UNDEFINED> instruction: 0x01280708
    2c68:	25050000 	strcs	r0, [r5, #-0]
    2c6c:	7f000000 	svcvc	0x00000000
    2c70:	06000000 	streq	r0, [r0], -r0
    2c74:	00000025 	andeq	r0, r0, r5, lsr #32
    2c78:	001f0700 	andseq	r0, pc, r0, lsl #14
    2c7c:	1c020000 	stcne	0, cr0, [r2], {-0}
    2c80:	00008b0e 	andeq	r8, r0, lr, lsl #22
    2c84:	70040800 	andvc	r0, r4, r0, lsl #16
    2c88:	05000000 	streq	r0, [r0, #-0]
    2c8c:	00000025 	andeq	r0, r0, r5, lsr #32
    2c90:	000000a0 	andeq	r0, r0, r0, lsr #1
    2c94:	0000a006 	andeq	sl, r0, r6
    2c98:	04080000 	streq	r0, [r8], #-0
    2c9c:	000000ad 	andeq	r0, r0, sp, lsr #1
    2ca0:	19080104 	stmdbne	r8, {r2, r8}
    2ca4:	03000001 	movweq	r0, #1
    2ca8:	000000a6 	andeq	r0, r0, r6, lsr #1
    2cac:	00045f07 	andeq	r5, r4, r7, lsl #30
    2cb0:	0e210200 	cdpeq	2, 2, cr0, cr1, cr0, {0}
    2cb4:	000000be 	strheq	r0, [r0], -lr
    2cb8:	00910408 	addseq	r0, r1, r8, lsl #8
    2cbc:	82090000 	andhi	r0, r9, #0, 0
    2cc0:	01000006 	tsteq	r0, r6
    2cc4:	0031110d 	eorseq	r1, r1, sp, lsl #2
    2cc8:	a50a0000 	strge	r0, [sl, #-0]
    2ccc:	01000005 	tsteq	r0, r5
    2cd0:	8d14061f 	ldchi	6, cr0, [r4, #-124]	; 0xffffff84
    2cd4:	00540000 	subseq	r0, r4, r0
    2cd8:	9c010000 	stcls	0, cr0, [r1], {-0}
    2cdc:	000001ae 	andeq	r0, r0, lr, lsr #3
    2ce0:	0006a60b 	andeq	sl, r6, fp, lsl #12
    2ce4:	0f2c0100 	svceq	0x002c0100
    2ce8:	0000002c 	andeq	r0, r0, ip, lsr #32
    2cec:	00001946 	andeq	r1, r0, r6, asr #18
    2cf0:	00001944 	andeq	r1, r0, r4, asr #18
    2cf4:	0006410b 	andeq	r4, r6, fp, lsl #2
    2cf8:	0f2d0100 	svceq	0x002d0100
    2cfc:	0000002c 	andeq	r0, r0, ip, lsr #32
    2d00:	00001960 	andeq	r1, r0, r0, ror #18
    2d04:	0000195e 	andeq	r1, r0, lr, asr r9
    2d08:	0006730b 	andeq	r7, r6, fp, lsl #6
    2d0c:	0f2e0100 	svceq	0x002e0100
    2d10:	0000002c 	andeq	r0, r0, ip, lsr #32
    2d14:	0000197a 	andeq	r1, r0, sl, ror r9
    2d18:	00001978 	andeq	r1, r0, r8, ror r9
    2d1c:	00068d0b 	andeq	r8, r6, fp, lsl #26
    2d20:	0f2f0100 	svceq	0x002f0100
    2d24:	0000002c 	andeq	r0, r0, ip, lsr #32
    2d28:	00001993 	muleq	r0, r3, r9
    2d2c:	00001991 	muleq	r0, r1, r9
    2d30:	008d1c0c 	addeq	r1, sp, ip, lsl #24
    2d34:	0001d900 	andeq	sp, r1, r0, lsl #18
    2d38:	8d280c00 	stchi	12, cr0, [r8, #-0]
    2d3c:	02080000 	andeq	r0, r8, #0, 0
    2d40:	2c0c0000 	stccs	0, cr0, [ip], {-0}
    2d44:	1500008d 	strne	r0, [r0, #-141]	; 0xffffff73
    2d48:	0d000002 	stceq	0, cr0, [r0, #-8]
    2d4c:	00008d34 	andeq	r8, r0, r4, lsr sp
    2d50:	00000221 	andeq	r0, r0, r1, lsr #4
    2d54:	00000164 	andeq	r0, r0, r4, ror #2
    2d58:	0150010e 	cmpeq	r0, lr, lsl #2
    2d5c:	400d003a 	andmi	r0, sp, sl, lsr r0
    2d60:	2d00008d 	stccs	0, cr0, [r0, #-564]	; 0xfffffdcc
    2d64:	84000002 	strhi	r0, [r0], #-2
    2d68:	0e000001 	cdpeq	0, 0, cr0, cr0, cr1, {0}
    2d6c:	0c055001 	stceq	0, cr5, [r5], {1}
    2d70:	20100024 	andscs	r0, r0, r4, lsr #32
    2d74:	0551010e 	ldrbeq	r0, [r1, #-270]	; 0xfffffef2
    2d78:	0000010c 	andeq	r0, r0, ip, lsl #2
    2d7c:	4c0d005a 	stcmi	0, cr0, [sp], {90}	; 0x5a
    2d80:	2d00008d 	stccs	0, cr0, [r0, #-564]	; 0xfffffdcc
    2d84:	a4000002 	strge	r0, [r0], #-2
    2d88:	0e000001 	cdpeq	0, 0, cr0, cr0, cr1, {0}
    2d8c:	0c055001 	stceq	0, cr5, [r5], {1}
    2d90:	2010001c 	andscs	r0, r0, ip, lsl r0
    2d94:	0551010e 	ldrbeq	r0, [r1, #-270]	; 0xfffffef2
    2d98:	0000200c 	andeq	r2, r0, ip
    2d9c:	540c005a 	strpl	r0, [ip], #-90	; 0xffffffa6
    2da0:	ae00008d 	cdpge	0, 0, cr0, cr0, cr13, {4}
    2da4:	00000001 	andeq	r0, r0, r1
    2da8:	00064f0f 	andeq	r4, r6, pc, lsl #30
    2dac:	06170100 	ldreq	r0, [r7], -r0, lsl #2
    2db0:	00008d00 	andeq	r8, r0, r0, lsl #26
    2db4:	00000014 	andeq	r0, r0, r4, lsl r0
    2db8:	01d99c01 	bicseq	r9, r9, r1, lsl #24
    2dbc:	ae0b0000 	cdpge	0, 0, cr0, cr11, cr0, {0}
    2dc0:	01000006 	tsteq	r0, r6
    2dc4:	00310e18 	eorseq	r0, r1, r8, lsl lr
    2dc8:	19ae0000 	stmibne	lr!, {}	; <UNPREDICTABLE>
    2dcc:	19a80000 	stmibne	r8!, {}	; <UNPREDICTABLE>
    2dd0:	10000000 	andne	r0, r0, r0
    2dd4:	0000067f 	andeq	r0, r0, pc, ror r6
    2dd8:	25050e01 	strcs	r0, [r5, #-3585]	; 0xfffff1ff
    2ddc:	e8000000 	stmda	r0, {}	; <UNPREDICTABLE>
    2de0:	1800008c 	stmdane	r0, {r2, r3, r7}
    2de4:	01000000 	mrseq	r0, (UNDEF: 0)
    2de8:	0002089c 	muleq	r2, ip, r8
    2dec:	06ae0b00 	strteq	r0, [lr], r0, lsl #22
    2df0:	0f010000 	svceq	0x00010000
    2df4:	0000310e 	andeq	r3, r0, lr, lsl #2
    2df8:	0019dc00 	andseq	sp, r9, r0, lsl #24
    2dfc:	0019d800 	andseq	sp, r9, r0, lsl #16
    2e00:	32110000 	andscc	r0, r1, #0, 0
    2e04:	32000006 	andcc	r0, r0, #6, 0
    2e08:	02000006 	andeq	r0, r0, #6, 0
    2e0c:	1206013b 	andne	r0, r6, #-1073741810	; 0xc000000e
    2e10:	000005cb 	andeq	r0, r0, fp, asr #11
    2e14:	000005cb 	andeq	r0, r0, fp, asr #11
    2e18:	12064d02 	andne	r4, r6, #128	; 0x80
    2e1c:	00000172 	andeq	r0, r0, r2, ror r1
    2e20:	00000172 	andeq	r0, r0, r2, ror r1
    2e24:	12065802 	andne	r5, r6, #131072	; 0x20000
    2e28:	00000649 	andeq	r0, r0, r9, asr #12
    2e2c:	00000649 	andeq	r0, r0, r9, asr #12
    2e30:	0006b202 	andeq	fp, r6, r2, lsl #4
    2e34:	0000024d 	andeq	r0, r0, sp, asr #4
    2e38:	0eb70004 	cdpeq	0, 11, cr0, cr7, cr4, {0}
    2e3c:	01040000 	mrseq	r0, (UNDEF: 4)
    2e40:	000002f1 	strdeq	r0, [r0], -r1
    2e44:	0006c90c 	andeq	ip, r6, ip, lsl #18
    2e48:	0003c200 	andeq	ip, r3, r0, lsl #4
    2e4c:	008d6800 	addeq	r6, sp, r0, lsl #16
    2e50:	00008400 	andeq	r8, r0, r0, lsl #8
    2e54:	00168400 	andseq	r8, r6, r0, lsl #8
    2e58:	05040200 	streq	r0, [r4, #-512]	; 0xfffffe00
    2e5c:	00746e69 	rsbseq	r6, r4, r9, ror #28
    2e60:	32070403 	andcc	r0, r7, #50331648	; 0x3000000
    2e64:	03000001 	movweq	r0, #1
    2e68:	01120601 	tsteq	r2, r1, lsl #12
    2e6c:	02030000 	andeq	r0, r3, #0, 0
    2e70:	00001005 	andeq	r1, r0, r5
    2e74:	05040300 	streq	r0, [r4, #-768]	; 0xfffffd00
    2e78:	000000c3 	andeq	r0, r0, r3, asr #1
    2e7c:	be050803 	cdplt	8, 0, cr0, cr5, cr3, {0}
    2e80:	03000000 	movweq	r0, #0
    2e84:	01100801 	tsteq	r0, r1, lsl #16
    2e88:	02030000 	andeq	r0, r3, #0, 0
    2e8c:	00014707 	andeq	r4, r1, r7, lsl #14
    2e90:	07040300 	streq	r0, [r4, -r0, lsl #6]
    2e94:	0000012d 	andeq	r0, r0, sp, lsr #2
    2e98:	28070803 	stmdacs	r7, {r0, r1, fp}
    2e9c:	04000001 	streq	r0, [r0], #-1
    2ea0:	00000025 	andeq	r0, r0, r5, lsr #32
    2ea4:	0000007a 	andeq	r0, r0, sl, ror r0
    2ea8:	00002505 	andeq	r2, r0, r5, lsl #10
    2eac:	1f060000 	svcne	0x00060000
    2eb0:	02000000 	andeq	r0, r0, #0, 0
    2eb4:	00860e1c 	addeq	r0, r6, ip, lsl lr
    2eb8:	04070000 	streq	r0, [r7], #-0
    2ebc:	0000006b 	andeq	r0, r0, fp, rrx
    2ec0:	00002504 	andeq	r2, r0, r4, lsl #10
    2ec4:	00009b00 	andeq	r9, r0, r0, lsl #22
    2ec8:	009b0500 	addseq	r0, fp, r0, lsl #10
    2ecc:	07000000 	streq	r0, [r0, -r0]
    2ed0:	0000a804 	andeq	sl, r0, r4, lsl #16
    2ed4:	08010300 	stmdaeq	r1, {r8, r9}
    2ed8:	00000119 	andeq	r0, r0, r9, lsl r1
    2edc:	0000a108 	andeq	sl, r0, r8, lsl #2
    2ee0:	045f0600 	ldrbeq	r0, [pc], #-1536	; 2ee8 <__code_start__-0x5118>
    2ee4:	21020000 	mrscs	r0, (UNDEF: 2)
    2ee8:	0000b90e 	andeq	fp, r0, lr, lsl #18
    2eec:	8c040700 	stchi	7, cr0, [r4], {-0}
    2ef0:	09000000 	stmdbeq	r0, {}	; <UNPREDICTABLE>
    2ef4:	000006bf 			; <UNDEFINED> instruction: 0x000006bf
    2ef8:	d4061e01 	strle	r1, [r6], #-3585	; 0xfffff1ff
    2efc:	1800008d 	stmdane	r0, {r0, r2, r3, r7}
    2f00:	01000000 	mrseq	r0, (UNDEF: 0)
    2f04:	0001099c 	muleq	r1, ip, r9
    2f08:	65730a00 	ldrbvs	r0, [r3, #-2560]!	; 0xfffff600
    2f0c:	1e010063 	cdpne	0, 0, cr0, cr1, cr3, {3}
    2f10:	00002c19 	andeq	r2, r0, r9, lsl ip
    2f14:	0019ff00 	andseq	pc, r9, r0, lsl #30
    2f18:	0019fb00 	andseq	pc, r9, r0, lsl #22
    2f1c:	8de80b00 			; <UNDEFINED> instruction: 0x8de80b00
    2f20:	01090000 	mrseq	r0, (UNDEF: 9)
    2f24:	010c0000 	mrseq	r0, (UNDEF: 12)
    2f28:	01f31150 	mvnseq	r1, r0, asr r1
    2f2c:	f3243550 	vqrshl.u32	<illegal reg q1.5>, q0, q2
    2f30:	321c5001 	andscc	r5, ip, #1, 0
    2f34:	5001f324 	andpl	pc, r1, r4, lsr #6
    2f38:	00243322 	eoreq	r3, r4, r2, lsr #6
    2f3c:	01720900 	cmneq	r2, r0, lsl #18
    2f40:	1b010000 	blne	42f48 <__bss_end__+0x391d0>
    2f44:	008dbc06 	addeq	fp, sp, r6, lsl #24
    2f48:	00001800 	andeq	r1, r0, r0, lsl #16
    2f4c:	529c0100 	addspl	r0, ip, #0
    2f50:	0a000001 	beq	2f5c <__code_start__-0x50a4>
    2f54:	0100736d 	tsteq	r0, sp, ror #6
    2f58:	002c181b 	eoreq	r1, ip, fp, lsl r8
    2f5c:	1a240000 	bne	902f64 <__bss_end__+0x8f91ec>
    2f60:	1a200000 	bne	802f68 <__bss_end__+0x7f91f0>
    2f64:	d00b0000 	andle	r0, fp, r0
    2f68:	5200008d 	andpl	r0, r0, #141, 0	; 0x8d
    2f6c:	0c000001 	stceq	0, cr0, [r0], {1}
    2f70:	f3115001 	vhadd.u16	d5, d1, d1
    2f74:	24355001 	ldrtcs	r5, [r5], #-1
    2f78:	1c5001f3 	ldfnee	f0, [r0], {243}	; 0xf3
    2f7c:	01f32432 	mvnseq	r2, r2, lsr r4
    2f80:	24332250 	ldrtcs	r2, [r3], #-592	; 0xfffffdb0
    2f84:	f2090000 	vhadd.s8	d0, d9, d0
    2f88:	01000006 	tsteq	r0, r6
    2f8c:	8d980612 	ldchi	6, cr0, [r8, #72]	; 0x48
    2f90:	00240000 	eoreq	r0, r4, r0
    2f94:	9c010000 	stcls	0, cr0, [r1], {-0}
    2f98:	000001c2 	andeq	r0, r0, r2, asr #3
    2f9c:	0073750a 	rsbseq	r7, r3, sl, lsl #10
    2fa0:	2c181201 	lfmcs	f1, 4, [r8], {1}
    2fa4:	49000000 	stmdbmi	r0, {}	; <UNPREDICTABLE>
    2fa8:	4500001a 	strmi	r0, [r0, #-26]	; 0xffffffe6
    2fac:	0d00001a 	stceq	0, cr0, [r0, #-104]	; 0xffffff98
    2fb0:	01006272 	tsteq	r0, r2, ror r2
    2fb4:	002c0e13 	eoreq	r0, ip, r3, lsl lr
    2fb8:	1a690000 	bne	1a42fc0 <__bss_end__+0x1a39248>
    2fbc:	1a670000 	bne	19c2fc4 <__bss_end__+0x19b924c>
    2fc0:	a80e0000 	stmdage	lr, {}	; <UNPREDICTABLE>
    2fc4:	1400008d 	strne	r0, [r0], #-141	; 0xffffff73
    2fc8:	b8000000 	stmdalt	r0, {}	; <UNPREDICTABLE>
    2fcc:	0d000001 	stceq	0, cr0, [r0, #-4]
    2fd0:	01006172 	tsteq	r0, r2, ror r1
    2fd4:	002c1215 	eoreq	r1, ip, r5, lsl r2
    2fd8:	1a7e0000 	bne	1f82fe0 <__bss_end__+0x1f79268>
    2fdc:	1a7c0000 	bne	1f02fe4 <__bss_end__+0x1ef926c>
    2fe0:	ac0f0000 	stcge	0, cr0, [pc], {-0}
    2fe4:	c200008d 	andgt	r0, r0, #141, 0	; 0x8d
    2fe8:	00000001 	andeq	r0, r0, r1
    2fec:	008da40f 	addeq	sl, sp, pc, lsl #8
    2ff0:	0001c200 	andeq	ip, r1, r0, lsl #4
    2ff4:	e3100000 	tst	r0, #0, 0
    2ff8:	01000006 	tsteq	r0, r6
    2ffc:	002c0a09 	eoreq	r0, ip, r9, lsl #20
    3000:	8d7c0000 	ldclhi	0, cr0, [ip, #-0]
    3004:	001c0000 	andseq	r0, ip, r0
    3008:	9c010000 	stcls	0, cr0, [r1], {-0}
    300c:	0000020a 	andeq	r0, r0, sl, lsl #4
    3010:	0100750d 	tsteq	r0, sp, lsl #10
    3014:	002c0e0d 	eoreq	r0, ip, sp, lsl #28
    3018:	1a950000 	bne	fe543020 <__bss_end__+0xfe5392a8>
    301c:	1a910000 	bne	fe443024 <__bss_end__+0xfe4392ac>
    3020:	840f0000 	strhi	r0, [pc], #-0	; 3028 <__code_start__-0x4fd8>
    3024:	3800008d 	stmdacc	r0, {r0, r2, r3, r7}
    3028:	0f000002 	svceq	0x00000002
    302c:	00008d88 	andeq	r8, r0, r8, lsl #27
    3030:	0000020a 	andeq	r0, r0, sl, lsl #4
    3034:	008d900f 	addeq	r9, sp, pc
    3038:	00023800 	andeq	r3, r2, r0, lsl #16
    303c:	fb100000 	blx	403046 <__bss_end__+0x3f92ce>
    3040:	01000006 	tsteq	r0, r6
    3044:	002c0a04 	eoreq	r0, ip, r4, lsl #20
    3048:	8d680000 	stclhi	0, cr0, [r8, #-0]
    304c:	00140000 	andseq	r0, r4, r0
    3050:	9c010000 	stcls	0, cr0, [r1], {-0}
    3054:	00000238 	andeq	r0, r0, r8, lsr r2
    3058:	008d740b 	addeq	r7, sp, fp, lsl #8
    305c:	00024400 	andeq	r4, r2, r0, lsl #8
    3060:	50010c00 	andpl	r0, r1, r0, lsl #24
    3064:	30040c05 	andcc	r0, r4, r5, lsl #24
    3068:	00002000 	andeq	r2, r0, r0
    306c:	0006b311 	andeq	fp, r6, r1, lsl r3
    3070:	0006b300 	andeq	fp, r6, r0, lsl #6
    3074:	06a10200 	strteq	r0, [r1], r0, lsl #4
    3078:	0006dd11 	andeq	sp, r6, r1, lsl sp
    307c:	0006dd00 	andeq	sp, r6, r0, lsl #26
    3080:	0ac70200 	beq	ff1c3888 <__bss_end__+0xff1b9b10>
    3084:	0003a500 	andeq	sl, r3, r0, lsl #10
    3088:	b8000400 	stmdalt	r0, {sl}
    308c:	0400000f 	streq	r0, [r0], #-15
    3090:	0007ff01 	andeq	pc, r7, r1, lsl #30
    3094:	08b00c00 	ldmeq	r0!, {sl, fp}
    3098:	07ac0000 	streq	r0, [ip, r0]!
    309c:	8dec0000 	stclhi	0, cr0, [ip]
    30a0:	011c0000 	tsteq	ip, r0
    30a4:	17810000 	strne	r0, [r1, r0]
    30a8:	04020000 	streq	r0, [r2], #-0
    30ac:	746e6905 	strbtvc	r6, [lr], #-2309	; 0xfffff6fb
    30b0:	07040300 	streq	r0, [r4, -r0, lsl #6]
    30b4:	00000132 	andeq	r0, r0, r2, lsr r1
    30b8:	00002c04 	andeq	r2, r0, r4, lsl #24
    30bc:	06010300 	streq	r0, [r1], -r0, lsl #6
    30c0:	00000112 	andeq	r0, r0, r2, lsl r1
    30c4:	10050203 	andne	r0, r5, r3, lsl #4
    30c8:	03000000 	movweq	r0, #0
    30cc:	00c30504 	sbceq	r0, r3, r4, lsl #10
    30d0:	08030000 	stmdaeq	r3, {}	; <UNPREDICTABLE>
    30d4:	0000be05 	andeq	fp, r0, r5, lsl #28
    30d8:	08010300 	stmdaeq	r1, {r8, r9}
    30dc:	00000110 	andeq	r0, r0, r0, lsl r1
    30e0:	47070203 	strmi	r0, [r7, -r3, lsl #4]
    30e4:	05000001 	streq	r0, [r0, #-1]
    30e8:	000002a5 	andeq	r0, r0, r5, lsr #5
    30ec:	6e193403 	cfmulsvs	mvf3, mvf9, mvf3
    30f0:	03000000 	movweq	r0, #0
    30f4:	012d0704 			; <UNDEFINED> instruction: 0x012d0704
    30f8:	08030000 	stmdaeq	r3, {}	; <UNPREDICTABLE>
    30fc:	00012807 	andeq	r2, r1, r7, lsl #16
    3100:	08010300 	stmdaeq	r1, {r8, r9}
    3104:	00000119 	andeq	r0, r0, r9, lsl r1
    3108:	54010706 	strpl	r0, [r1], #-1798	; 0xfffff8fa
    310c:	04000000 	streq	r0, [r0], #-0
    3110:	00c20e0c 	sbceq	r0, r2, ip, lsl #28
    3114:	b7070000 	strlt	r0, [r7, -r0]
    3118:	00000008 	andeq	r0, r0, r8
    311c:	00072d07 	andeq	r2, r7, r7, lsl #26
    3120:	52070100 	andpl	r0, r7, #0
    3124:	04000007 	streq	r0, [r0], #-7
    3128:	00076107 	andeq	r6, r7, r7, lsl #2
    312c:	70070500 	andvc	r0, r7, r0, lsl #10
    3130:	06000007 	streq	r0, [r0], -r7
    3134:	00077f07 	andeq	r7, r7, r7, lsl #30
    3138:	9c070700 	stcls	7, cr0, [r7], {-0}
    313c:	03000008 	movweq	r0, #8
    3140:	00078e07 	andeq	r8, r7, r7, lsl #28
    3144:	05000200 	streq	r0, [r0, #-512]	; 0xfffffe00
    3148:	000007f3 	strdeq	r0, [r0], -r3
    314c:	83031504 	movwhi	r1, #13572	; 0x3504
    3150:	08000000 	stmdaeq	r0, {}	; <UNPREDICTABLE>
    3154:	00000718 	andeq	r0, r0, r8, lsl r7
    3158:	33171d01 	tstcc	r7, #64	; 0x40
    315c:	1c000000 	stcne	0, cr0, [r0], {-0}
    3160:	08202000 	stmdaeq	r0!, {sp}
    3164:	0000070e 	andeq	r0, r0, lr, lsl #14
    3168:	33171e01 	tstcc	r7, #1, 28
    316c:	28000000 	stmdacs	r0, {}	; <UNPREDICTABLE>
    3170:	08202000 	stmdaeq	r0!, {sp}
    3174:	00000892 	muleq	r0, r2, r8
    3178:	33171f01 	tstcc	r7, #1, 30
    317c:	34000000 	strcc	r0, [r0], #-0
    3180:	09202000 	stmdbeq	r0!, {sp}
    3184:	00000748 	andeq	r0, r0, r8, asr #14
    3188:	25055501 	strcs	r5, [r5, #-1281]	; 0xfffffaff
    318c:	d4000000 	strle	r0, [r0], #-0
    3190:	3400008e 	strcc	r0, [r0], #-142	; 0xffffff72
    3194:	01000000 	mrseq	r0, (UNDEF: 0)
    3198:	00016e9c 	muleq	r1, ip, lr
    319c:	69700a00 	ldmdbvs	r0!, {r9, fp}^
    31a0:	5501006e 	strpl	r0, [r1, #-110]	; 0xffffff92
    31a4:	00002c18 	andeq	r2, r0, r8, lsl ip
    31a8:	001abb00 	andseq	fp, sl, r0, lsl #22
    31ac:	001ab300 	andseq	fp, sl, r0, lsl #6
    31b0:	08ab0b00 	stmiaeq	fp!, {r8, r9, fp}
    31b4:	58010000 	stmdapl	r1, {}	; <UNPREDICTABLE>
    31b8:	00002c0e 	andeq	r2, r0, lr, lsl #24
    31bc:	001afb00 	andseq	pc, sl, r0, lsl #22
    31c0:	001af500 	andseq	pc, sl, r0, lsl #10
    31c4:	666f0c00 	strbtvs	r0, [pc], -r0, lsl #24
    31c8:	59010066 	stmdbpl	r1, {r1, r2, r5, r6}
    31cc:	00002c0e 	andeq	r2, r0, lr, lsl #24
    31d0:	001b3b00 	andseq	r3, fp, r0, lsl #22
    31d4:	001b3900 	andseq	r3, fp, r0, lsl #18
    31d8:	8ef00d00 	cdphi	13, 15, cr0, cr0, cr0, {0}
    31dc:	03900000 	orrseq	r0, r0, #0, 0
    31e0:	010e0000 	mrseq	r0, (UNDEF: 14)
    31e4:	01f30b50 	mvnseq	r0, r0, asr fp
    31e8:	23253550 			; <UNDEFINED> instruction: 0x23253550
    31ec:	818080b4 	strhhi	r8, [r0, r4]
    31f0:	0f000002 	svceq	0x00000002
    31f4:	00000722 	andeq	r0, r0, r2, lsr #14
    31f8:	b8064e01 	stmdalt	r6, {r0, r9, sl, fp, lr}
    31fc:	1c00008e 	stcne	0, cr0, [r0], {142}	; 0x8e
    3200:	01000000 	mrseq	r0, (UNDEF: 0)
    3204:	0001c99c 	muleq	r1, ip, r9
    3208:	69700a00 	ldmdbvs	r0!, {r9, fp}^
    320c:	4e01006e 	cdpmi	0, 0, cr0, cr1, cr14, {3}
    3210:	00002c1a 	andeq	r2, r0, sl, lsl ip
    3214:	001b5600 	andseq	r5, fp, r0, lsl #12
    3218:	001b4e00 	andseq	r4, fp, r0, lsl #28
    321c:	00760a00 	rsbseq	r0, r6, r0, lsl #20
    3220:	2c284e01 	stccs	14, cr4, [r8], #-4
    3224:	98000000 	stmdals	r0, {}	; <UNPREDICTABLE>
    3228:	9000001b 	andls	r0, r0, fp, lsl r0
    322c:	1000001b 	andne	r0, r0, fp, lsl r0
    3230:	00008ec8 	andeq	r8, r0, r8, asr #29
    3234:	00000251 	andeq	r0, r0, r1, asr r2
    3238:	000001bf 			; <UNDEFINED> instruction: 0x000001bf
    323c:	0350010e 	cmpeq	r0, #-2147483645	; 0x80000003
    3240:	005001f3 	ldrsheq	r0, [r0], #-19	; 0xffffffed
    3244:	008ed011 	addeq	sp, lr, r1, lsl r0
    3248:	00020a00 	andeq	r0, r2, r0, lsl #20
    324c:	9d0f0000 	stcls	0, cr0, [pc, #-0]	; 3254 <__code_start__-0x4dac>
    3250:	01000007 	tsteq	r0, r7
    3254:	8ea80649 	cdphi	6, 10, cr0, cr8, cr9, {2}
    3258:	00100000 	andseq	r0, r0, r0
    325c:	9c010000 	stcls	0, cr0, [r1], {-0}
    3260:	0000020a 	andeq	r0, r0, sl, lsl #4
    3264:	6e69700a 	cdpvs	0, 6, cr7, cr9, cr10, {0}
    3268:	1e490100 	dvfnee	f0, f1, f0
    326c:	0000002c 	andeq	r0, r0, ip, lsr #32
    3270:	00001bd6 	ldrdeq	r1, [r0], -r6
    3274:	00001bd2 	ldrdeq	r1, [r0], -r2
    3278:	008eb40d 	addeq	fp, lr, sp, lsl #8
    327c:	0002d900 	andeq	sp, r2, r0, lsl #18
    3280:	50010e00 	andpl	r0, r1, r0, lsl #28
    3284:	5001f303 	andpl	pc, r1, r3, lsl #6
    3288:	0151010e 	cmpeq	r1, lr, lsl #2
    328c:	0f000030 	svceq	0x00000030
    3290:	000007e1 	andeq	r0, r0, r1, ror #15
    3294:	84064201 	strhi	r4, [r6], #-513	; 0xfffffdff
    3298:	2400008e 	strcs	r0, [r0], #-142	; 0xffffff72
    329c:	01000000 	mrseq	r0, (UNDEF: 0)
    32a0:	0002519c 	muleq	r2, ip, r1
    32a4:	69700a00 	ldmdbvs	r0!, {r9, fp}^
    32a8:	4201006e 	andmi	r0, r1, #110, 0	; 0x6e
    32ac:	00002c1c 	andeq	r2, r0, ip, lsl ip
    32b0:	001bfb00 	andseq	pc, fp, r0, lsl #22
    32b4:	001bf700 	andseq	pc, fp, r0, lsl #14
    32b8:	8ea00d00 	cdphi	13, 10, cr0, cr0, cr0, {0}
    32bc:	039c0000 	orrseq	r0, ip, #0, 0
    32c0:	010e0000 	mrseq	r0, (UNDEF: 14)
    32c4:	280c0550 	stmdacs	ip, {r4, r6, r8, sl}
    32c8:	0e202000 	cdpeq	0, 2, cr2, cr0, cr0, {0}
    32cc:	31055101 	tstcc	r5, r1, lsl #2
    32d0:	245001f3 	ldrbcs	r0, [r0], #-499	; 0xfffffe0d
    32d4:	d90f0000 	stmdble	pc, {}	; <UNPREDICTABLE>
    32d8:	01000008 	tsteq	r0, r8
    32dc:	8e60063b 	mcrhi	6, 3, r0, cr0, cr11, {1}
    32e0:	00240000 	eoreq	r0, r4, r0
    32e4:	9c010000 	stcls	0, cr0, [r1], {-0}
    32e8:	00000298 	muleq	r0, r8, r2
    32ec:	6e69700a 	cdpvs	0, 6, cr7, cr9, cr10, {0}
    32f0:	1b3b0100 	blne	ec36f8 <__bss_end__+0xeb9980>
    32f4:	0000002c 	andeq	r0, r0, ip, lsr #32
    32f8:	00001c20 	andeq	r1, r0, r0, lsr #24
    32fc:	00001c1c 	andeq	r1, r0, ip, lsl ip
    3300:	008e7c0d 	addeq	r7, lr, sp, lsl #24
    3304:	00039c00 	andeq	r9, r3, r0, lsl #24
    3308:	50010e00 	andpl	r0, r1, r0, lsl #28
    330c:	001c0c05 	andseq	r0, ip, r5, lsl #24
    3310:	010e2020 	tsteq	lr, r0, lsr #32
    3314:	f3310551 	vqrshl.u64	q0, <illegal reg q0.5>, <illegal reg q0.5>
    3318:	00245001 	eoreq	r5, r4, r1
    331c:	002b0f00 	eoreq	r0, fp, r0, lsl #30
    3320:	36010000 	strcc	r0, [r1], -r0
    3324:	008e5006 	addeq	r5, lr, r6
    3328:	00001000 	andeq	r1, r0, r0
    332c:	d99c0100 	ldmible	ip, {r8}
    3330:	0a000002 	beq	3340 <__code_start__-0x4cc0>
    3334:	006e6970 	rsbeq	r6, lr, r0, ror r9
    3338:	2c1f3601 	ldccs	6, cr3, [pc], {1}
    333c:	45000000 	strmi	r0, [r0, #-0]
    3340:	4100001c 	tstmi	r0, ip, lsl r0
    3344:	0d00001c 	stceq	0, cr0, [r0, #-112]	; 0xffffff90
    3348:	00008e5c 	andeq	r8, r0, ip, asr lr
    334c:	000002d9 	ldrdeq	r0, [r0], -r9
    3350:	0350010e 	cmpeq	r0, #-2147483645	; 0x80000003
    3354:	0e5001f3 	mrceq	1, 2, r0, cr0, cr3, {7}
    3358:	31015101 	tstcc	r1, r1, lsl #2
    335c:	c70f0000 	strgt	r0, [pc, -r0]
    3360:	01000008 	tsteq	r0, r8
    3364:	8dec0628 	stclhi	6, cr0, [ip, #160]!	; 0xa0
    3368:	00640000 	rsbeq	r0, r4, r0
    336c:	9c010000 	stcls	0, cr0, [r1], {-0}
    3370:	00000374 	andeq	r0, r0, r4, ror r3
    3374:	6e69700a 	cdpvs	0, 6, cr7, cr9, cr10, {0}
    3378:	21280100 			; <UNDEFINED> instruction: 0x21280100
    337c:	0000002c 	andeq	r0, r0, ip, lsr #32
    3380:	00001c6a 	andeq	r1, r0, sl, ror #24
    3384:	00001c66 	andeq	r1, r0, r6, ror #24
    3388:	0007ee12 	andeq	lr, r7, r2, lsl lr
    338c:	32280100 	eorcc	r0, r8, #0
    3390:	000000c2 	andeq	r0, r0, r2, asr #1
    3394:	00001c8f 	andeq	r1, r0, pc, lsl #25
    3398:	00001c8b 	andeq	r1, r0, fp, lsl #25
    339c:	66666f0c 	strbtvs	r6, [r6], -ip, lsl #30
    33a0:	0e2d0100 	sufeqe	f0, f5, f0
    33a4:	0000002c 	andeq	r0, r0, ip, lsr #32
    33a8:	00001cb2 			; <UNDEFINED> instruction: 0x00001cb2
    33ac:	00001cb0 			; <UNDEFINED> instruction: 0x00001cb0
    33b0:	0100670c 	tsteq	r0, ip, lsl #14
    33b4:	002c0e2e 	eoreq	r0, ip, lr, lsr #28
    33b8:	1cc70000 	stclne	0, cr0, [r7], {0}
    33bc:	1cc50000 	stclne	0, cr0, [r5], {0}
    33c0:	760c0000 	strvc	r0, [ip], -r0
    33c4:	0e300100 	rsfeqs	f0, f0, f0
    33c8:	0000002c 	andeq	r0, r0, ip, lsr #32
    33cc:	00001ce2 	andeq	r1, r0, r2, ror #25
    33d0:	00001cda 	ldrdeq	r1, [r0], -sl
    33d4:	008e3410 	addeq	r3, lr, r0, lsl r4
    33d8:	00039000 	andeq	r9, r3, r0
    33dc:	00036300 	andeq	r6, r3, r0, lsl #6
    33e0:	50010e00 	andpl	r0, r1, r0, lsl #28
    33e4:	00007602 	andeq	r7, r0, r2, lsl #12
    33e8:	008e480d 	addeq	r4, lr, sp, lsl #16
    33ec:	00039c00 	andeq	r9, r3, r0, lsl #24
    33f0:	50010e00 	andpl	r0, r1, r0, lsl #28
    33f4:	00007602 	andeq	r7, r0, r2, lsl #12
    33f8:	073e1300 	ldreq	r1, [lr, -r0, lsl #6]!
    33fc:	b6020000 	strlt	r0, [r2], -r0
    3400:	00006218 	andeq	r6, r0, r8, lsl r2
    3404:	03900300 	orrseq	r0, r0, #0, 6
    3408:	78140000 	ldmdavc	r4, {}	; <UNPREDICTABLE>
    340c:	2bb60200 	blcs	fed83c14 <__bss_end__+0xfed79e9c>
    3410:	00000062 	andeq	r0, r0, r2, rrx
    3414:	06dd1500 	ldrbeq	r1, [sp], r0, lsl #10
    3418:	06dd0000 	ldrbeq	r0, [sp], r0
    341c:	c7020000 	strgt	r0, [r2, -r0]
    3420:	0649150a 	strbeq	r1, [r9], -sl, lsl #10
    3424:	06490000 	strbeq	r0, [r9], -r0
    3428:	b2020000 	andlt	r0, r2, #0, 0
    342c:	05cd0006 	strbeq	r0, [sp, #6]
    3430:	00040000 	andeq	r0, r4, r0
    3434:	00001115 	andeq	r1, r0, r5, lsl r1
    3438:	07ff0104 	ldrbeq	r0, [pc, r4, lsl #2]!
    343c:	130c0000 	movwne	r0, #49152	; 0xc000
    3440:	ac000009 	stcge	0, cr0, [r0], {9}
    3444:	08000007 	stmdaeq	r0, {r0, r1, r2}
    3448:	f000008f 			; <UNDEFINED> instruction: 0xf000008f
    344c:	40000001 	andmi	r0, r0, r1
    3450:	02000019 	andeq	r0, r0, #25, 0
    3454:	6e690504 	cdpvs	5, 6, cr0, cr9, cr4, {0}
    3458:	04030074 	streq	r0, [r3], #-116	; 0xffffff8c
    345c:	00013207 	andeq	r3, r1, r7, lsl #4
    3460:	002c0400 	eoreq	r0, ip, r0, lsl #8
    3464:	01030000 	mrseq	r0, (UNDEF: 3)
    3468:	00011206 	andeq	r1, r1, r6, lsl #4
    346c:	05020300 	streq	r0, [r2, #-768]	; 0xfffffd00
    3470:	00000010 	andeq	r0, r0, r0, lsl r0
    3474:	c3050403 	movwgt	r0, #21507	; 0x5403
    3478:	03000000 	movweq	r0, #0
    347c:	00be0508 	adcseq	r0, lr, r8, lsl #10
    3480:	01030000 	mrseq	r0, (UNDEF: 3)
    3484:	00011008 	andeq	r1, r1, r8
    3488:	07020300 	streq	r0, [r2, -r0, lsl #6]
    348c:	00000147 	andeq	r0, r0, r7, asr #2
    3490:	0002a505 	andeq	sl, r2, r5, lsl #10
    3494:	19340500 	ldmdbne	r4!, {r8, sl}
    3498:	0000006e 	andeq	r0, r0, lr, rrx
    349c:	2d070403 	cfstrscs	mvf0, [r7, #-12]
    34a0:	03000001 	movweq	r0, #1
    34a4:	01280708 			; <UNDEFINED> instruction: 0x01280708
    34a8:	01030000 	mrseq	r0, (UNDEF: 3)
    34ac:	00011908 	andeq	r1, r1, r8, lsl #18
    34b0:	01070600 	tsteq	r7, r0, lsl #12
    34b4:	00000054 	andeq	r0, r0, r4, asr r0
    34b8:	c20e0c04 	andgt	r0, lr, #4, 24	; 0x400
    34bc:	07000000 	streq	r0, [r0, -r0]
    34c0:	000008b7 			; <UNDEFINED> instruction: 0x000008b7
    34c4:	072d0700 	streq	r0, [sp, -r0, lsl #14]!
    34c8:	07010000 	streq	r0, [r1, -r0]
    34cc:	00000752 	andeq	r0, r0, r2, asr r7
    34d0:	07610704 	strbeq	r0, [r1, -r4, lsl #14]!
    34d4:	07050000 	streq	r0, [r5, -r0]
    34d8:	00000770 	andeq	r0, r0, r0, ror r7
    34dc:	077f0706 	ldrbeq	r0, [pc, -r6, lsl #14]!
    34e0:	07070000 	streq	r0, [r7, -r0]
    34e4:	0000089c 	muleq	r0, ip, r8
    34e8:	078e0703 	streq	r0, [lr, r3, lsl #14]
    34ec:	00020000 	andeq	r0, r2, r0
    34f0:	00090708 	andeq	r0, r9, r8, lsl #14
    34f4:	06022c00 	streq	r2, [r2], -r0, lsl #24
    34f8:	00015e08 	andeq	r5, r1, r8, lsl #28
    34fc:	6f690900 	svcvs	0x00690900
    3500:	09090200 	stmdbeq	r9, {r9}
    3504:	00000033 	andeq	r0, r0, r3, lsr r0
    3508:	65690900 	strbvs	r0, [r9, #-2304]!	; 0xfffff700
    350c:	0a020072 	beq	836dc <__bss_end__+0x79964>
    3510:	00003309 	andeq	r3, r0, r9, lsl #6
    3514:	69090400 	stmdbvs	r9, {sl}
    3518:	02007269 	andeq	r7, r0, #-1879048186	; 0x90000006
    351c:	00330911 	eorseq	r0, r3, r1, lsl r9
    3520:	09080000 	stmdbeq	r8, {}	; <UNPREDICTABLE>
    3524:	0072636c 	rsbseq	r6, r2, ip, ror #6
    3528:	33091302 	movwcc	r1, #37634	; 0x9302
    352c:	0c000000 	stceq	0, cr0, [r0], {-0}
    3530:	72636d09 	rsbvc	r6, r3, #576	; 0x240
    3534:	09140200 	ldmdbeq	r4, {r9}
    3538:	00000033 	andeq	r0, r0, r3, lsr r0
    353c:	736c0910 	cmnvc	ip, #16, 18	; 0x40000
    3540:	15020072 	strne	r0, [r2, #-114]	; 0xffffff8e
    3544:	00003309 	andeq	r3, r0, r9, lsl #6
    3548:	6d091400 	cfstrsvs	mvf1, [r9, #-0]
    354c:	02007273 	andeq	r7, r0, #805306375	; 0x30000007
    3550:	00330916 	eorseq	r0, r3, r6, lsl r9
    3554:	0a180000 	beq	60355c <__bss_end__+0x5f97e4>
    3558:	0000097c 	andeq	r0, r0, ip, ror r9
    355c:	33091702 	movwcc	r1, #38658	; 0x9702
    3560:	1c000000 	stcne	0, cr0, [r0], {-0}
    3564:	0009540a 	andeq	r5, r9, sl, lsl #8
    3568:	091b0200 	ldmdbeq	fp, {r9}
    356c:	00000033 	andeq	r0, r0, r3, lsr r0
    3570:	08f40a20 	ldmeq	r4!, {r5, r9, fp}^
    3574:	1d020000 	stcne	0, cr0, [r2, #-0]
    3578:	00003309 	andeq	r3, r0, r9, lsl #6
    357c:	390a2400 	stmdbcc	sl, {sl, sp}
    3580:	02000009 	andeq	r0, r0, #9, 0
    3584:	0033091e 	eorseq	r0, r3, lr, lsl r9
    3588:	00280000 	eoreq	r0, r8, r0
    358c:	00093e0b 	andeq	r3, r9, fp, lsl #28
    3590:	09080100 	stmdbeq	r8, {r8}
    3594:	00000174 	andeq	r0, r0, r4, ror r1
    3598:	20215004 	eorcs	r5, r1, r4
    359c:	0033040c 	eorseq	r0, r3, ip, lsl #8
    35a0:	6e0d0000 	cdpvs	0, 0, cr0, cr13, cr0, {0}
    35a4:	0b000001 	bleq	35b0 <__code_start__-0x4a50>
    35a8:	00000984 	andeq	r0, r0, r4, lsl #19
    35ac:	8f232901 	svchi	0x00232901
    35b0:	40000001 	andmi	r0, r0, r1
    35b4:	0c202150 	stfeqs	f2, [r0], #-320	; 0xfffffec0
    35b8:	0000c204 	andeq	ip, r0, r4, lsl #4
    35bc:	01890d00 	orreq	r0, r9, r0, lsl #26
    35c0:	cb0e0000 	blgt	3835c8 <__bss_end__+0x379850>
    35c4:	01000005 	tsteq	r0, r5
    35c8:	90c006cc 	sbcls	r0, r0, ip, asr #13
    35cc:	00140000 	andseq	r0, r4, r0
    35d0:	9c010000 	stcls	0, cr0, [r1], {-0}
    35d4:	000001b4 			; <UNDEFINED> instruction: 0x000001b4
    35d8:	0090c80f 	addseq	ip, r0, pc, lsl #16
    35dc:	0001b400 	andeq	fp, r1, r0, lsl #8
    35e0:	28100000 	ldmdacs	r0, {}	; <UNPREDICTABLE>
    35e4:	01000009 	tsteq	r0, r9
    35e8:	002505b6 	strhteq	r0, [r5], -r6
    35ec:	90a00000 	adcls	r0, r0, r0
    35f0:	00200000 	eoreq	r0, r0, r0
    35f4:	9c010000 	stcls	0, cr0, [r1], {-0}
    35f8:	000001eb 	andeq	r0, r0, fp, ror #3
    35fc:	0090a80f 	addseq	sl, r0, pc, lsl #16
    3600:	0005a000 	andeq	sl, r5, r0
    3604:	90b01100 	adcsls	r1, r0, r0, lsl #2
    3608:	05ac0000 	streq	r0, [ip, #0]!
    360c:	01120000 	tsteq	r2, r0
    3610:	640c0550 	strvs	r0, [ip], #-1360	; 0xfffffab0
    3614:	00202150 	eoreq	r2, r0, r0, asr r1
    3618:	09661000 	stmdbeq	r6!, {ip}^
    361c:	b3010000 	movwlt	r0, #4096	; 0x1000
    3620:	00002505 	andeq	r2, r0, r5, lsl #10
    3624:	00909000 	addseq	r9, r0, r0
    3628:	00001000 	andeq	r1, r0, r0
    362c:	189c0100 	ldmne	ip, {r8}
    3630:	0f000002 	svceq	0x00000002
    3634:	00009098 	muleq	r0, r8, r0
    3638:	000005a0 	andeq	r0, r0, r0, lsr #11
    363c:	00909c0f 	addseq	r9, r0, pc, lsl #24
    3640:	00030900 	andeq	r0, r3, r0, lsl #18
    3644:	920e0000 	andls	r0, lr, #0, 0
    3648:	01000009 	tsteq	r0, r9
    364c:	906006ab 	rsbls	r0, r0, fp, lsr #13
    3650:	00300000 	eorseq	r0, r0, r0
    3654:	9c010000 	stcls	0, cr0, [r1], {-0}
    3658:	0000027c 	andeq	r0, r0, ip, ror r2
    365c:	01006313 	tsteq	r0, r3, lsl r3
    3660:	002c19ab 	eoreq	r1, ip, fp, lsr #19
    3664:	1d220000 	stcne	0, cr0, [r2, #-0]
    3668:	1d1e0000 	ldcne	0, cr0, [lr, #-0]
    366c:	6c0f0000 	stcvs	0, cr0, [pc], {-0}
    3670:	a0000090 	mulge	r0, r0, r0
    3674:	0f000005 	svceq	0x00000005
    3678:	00009070 	andeq	r9, r0, r0, ror r0
    367c:	000002db 	ldrdeq	r0, [r0], -fp
    3680:	00908414 	addseq	r8, r0, r4, lsl r4
    3684:	0005b800 	andeq	fp, r5, r0, lsl #16
    3688:	00027200 	andeq	r7, r2, r0, lsl #4
    368c:	50011200 	andpl	r1, r1, r0, lsl #4
    3690:	50400c05 	subpl	r0, r0, r5, lsl #24
    3694:	01122021 	tsteq	r2, r1, lsr #32
    3698:	00740551 	rsbseq	r0, r4, r1, asr r5
    369c:	001aff08 	andseq	pc, sl, r8, lsl #30
    36a0:	0090880f 	addseq	r8, r0, pc, lsl #16
    36a4:	0005a000 	andeq	sl, r5, r0
    36a8:	4a100000 	bmi	4036b0 <__bss_end__+0x3f9938>
    36ac:	01000009 	tsteq	r0, r9
    36b0:	002505a3 	eoreq	r0, r5, r3, lsr #11
    36b4:	90300000 	eorsls	r0, r0, r0
    36b8:	00300000 	eorseq	r0, r0, r0
    36bc:	9c010000 	stcls	0, cr0, [r1], {-0}
    36c0:	000002db 	ldrdeq	r0, [r0], -fp
    36c4:	01006315 	tsteq	r0, r5, lsl r3
    36c8:	002509a7 	eoreq	r0, r5, r7, lsr #19
    36cc:	1d420000 	stclne	0, cr0, [r2, #-0]
    36d0:	1d400000 	stclne	0, cr0, [r0, #-0]
    36d4:	380f0000 	stmdacc	pc, {}	; <UNPREDICTABLE>
    36d8:	a0000090 	mulge	r0, r0, r0
    36dc:	0f000005 	svceq	0x00000005
    36e0:	0000903c 	andeq	r9, r0, ip, lsr r0
    36e4:	00000309 	andeq	r0, r0, r9, lsl #6
    36e8:	00904c14 	addseq	r4, r0, r4, lsl ip
    36ec:	0005ac00 	andeq	sl, r5, r0, lsl #24
    36f0:	0002d100 	andeq	sp, r2, r0, lsl #2
    36f4:	50011200 	andpl	r1, r1, r0, lsl #4
    36f8:	50400c05 	subpl	r0, r0, r5, lsl #24
    36fc:	0f002021 	svceq	0x00002021
    3700:	00009054 	andeq	r9, r0, r4, asr r0
    3704:	000005a0 	andeq	r0, r0, r0, lsr #11
    3708:	091a1000 	ldmdbeq	sl, {ip}
    370c:	94010000 	strls	r0, [r1], #-0
    3710:	00002505 	andeq	r2, r0, r5, lsl #10
    3714:	00901000 	addseq	r1, r0, r0
    3718:	00002000 	andeq	r2, r0, r0
    371c:	099c0100 	ldmibeq	ip, {r8}
    3720:	11000003 	tstne	r0, r3
    3724:	0000901c 	andeq	r9, r0, ip, lsl r0
    3728:	000005ac 	andeq	r0, r0, ip, lsr #11
    372c:	05500112 	ldrbeq	r0, [r0, #-274]	; 0xfffffeee
    3730:	2150640c 	cmpcs	r0, ip, lsl #8
    3734:	10000020 	andne	r0, r0, r0, lsr #32
    3738:	000008f9 	strdeq	r0, [r0], -r9
    373c:	25058b01 	strcs	r8, [r5, #-2817]	; 0xfffff4ff
    3740:	f8000000 			; <UNDEFINED> instruction: 0xf8000000
    3744:	1800008f 	stmdane	r0, {r0, r1, r2, r3, r7}
    3748:	01000000 	mrseq	r0, (UNDEF: 0)
    374c:	0003379c 	muleq	r3, ip, r7
    3750:	90041100 	andls	r1, r4, r0, lsl #2
    3754:	05ac0000 	streq	r0, [ip, #0]!
    3758:	01120000 	tsteq	r2, r0
    375c:	640c0550 	strvs	r0, [ip], #-1360	; 0xfffffab0
    3760:	00202150 	eoreq	r2, r0, r0, asr r1
    3764:	05e90e00 	strbeq	r0, [r9, #3584]!	; 0xe00
    3768:	45010000 	strmi	r0, [r1, #-0]
    376c:	008f4806 	addeq	r4, pc, r6, lsl #16
    3770:	0000b000 	andeq	fp, r0, r0
    3774:	849c0100 	ldrhi	r0, [ip], #256	; 0x100
    3778:	16000004 	strne	r0, [r0], -r4
    377c:	000008eb 	andeq	r0, r0, fp, ror #17
    3780:	620e7e01 	andvs	r7, lr, #1, 28
    3784:	0e000000 	cdpeq	0, 0, cr0, cr0, cr0, {0}
    3788:	8f581401 	svchi	0x00581401
    378c:	05c40000 	strbeq	r0, [r4]
    3790:	03730000 	cmneq	r3, #0, 0
    3794:	01120000 	tsteq	r2, r0
    3798:	123e0150 	eorsne	r0, lr, #20
    379c:	32015101 	andcc	r5, r1, #1073741824	; 0x40000000
    37a0:	8f641400 	svchi	0x00641400
    37a4:	05c40000 	strbeq	r0, [r4]
    37a8:	038b0000 	orreq	r0, fp, #0, 0
    37ac:	01120000 	tsteq	r2, r0
    37b0:	123f0150 	eorsne	r0, pc, #20
    37b4:	32015101 	andcc	r5, r1, #1073741824	; 0x40000000
    37b8:	8f680f00 	svchi	0x00680f00
    37bc:	05a00000 	streq	r0, [r0, #0]!
    37c0:	74140000 	ldrvc	r0, [r4], #-0
    37c4:	3d00008f 	stccc	0, cr0, [r0, #-572]	; 0xfffffdc4
    37c8:	b0000005 	andlt	r0, r0, r5
    37cc:	12000003 	andne	r0, r0, #3, 0
    37d0:	0c055001 	stceq	0, cr5, [r5], {1}
    37d4:	20215004 	eorcs	r5, r1, r4
    37d8:	01510112 	cmpeq	r1, r2, lsl r1
    37dc:	780f0031 	stmdavc	pc, {r0, r4, r5}	; <UNPREDICTABLE>
    37e0:	a000008f 	andge	r0, r0, pc, lsl #1
    37e4:	14000005 	strne	r0, [r0], #-5
    37e8:	00008f88 	andeq	r8, r0, r8, lsl #31
    37ec:	000005b8 			; <UNDEFINED> instruction: 0x000005b8
    37f0:	000003d2 	ldrdeq	r0, [r0], -r2
    37f4:	02500112 	subseq	r0, r0, #-2147483644	; 0x80000004
    37f8:	01120074 	tsteq	r2, r4, ror r0
    37fc:	00300151 	eorseq	r0, r0, r1, asr r1
    3800:	008f9414 	addeq	r9, pc, r4, lsl r4	; <UNPREDICTABLE>
    3804:	0005b800 	andeq	fp, r5, r0, lsl #16
    3808:	0003ee00 	andeq	lr, r3, r0, lsl #28
    380c:	50011200 	andpl	r1, r1, r0, lsl #4
    3810:	50440c05 	subpl	r0, r4, r5, lsl #24
    3814:	01122021 	tsteq	r2, r1, lsr #32
    3818:	00300151 	eorseq	r0, r0, r1, asr r1
    381c:	008fa014 	addeq	sl, pc, r4, lsl r0	; <UNPREDICTABLE>
    3820:	0005b800 	andeq	fp, r5, r0, lsl #16
    3824:	00040a00 	andeq	r0, r4, r0, lsl #20
    3828:	50011200 	andpl	r1, r1, r0, lsl #4
    382c:	504c0c05 	subpl	r0, ip, r5, lsl #24
    3830:	01122021 	tsteq	r2, r1, lsr #32
    3834:	00330151 	eorseq	r0, r3, r1, asr r1
    3838:	008fac14 	addeq	sl, pc, r4, lsl ip	; <UNPREDICTABLE>
    383c:	0005b800 	andeq	fp, r5, r0, lsl #16
    3840:	00042600 	andeq	r2, r4, r0, lsl #12
    3844:	50011200 	andpl	r1, r1, r0, lsl #4
    3848:	50500c05 	subspl	r0, r0, r5, lsl #24
    384c:	01122021 	tsteq	r2, r1, lsr #32
    3850:	00300151 	eorseq	r0, r0, r1, asr r1
    3854:	008fb814 	addeq	fp, pc, r4, lsl r8	; <UNPREDICTABLE>
    3858:	0005b800 	andeq	fp, r5, r0, lsl #16
    385c:	00044300 	andeq	r4, r4, r0, lsl #6
    3860:	50011200 	andpl	r1, r1, r0, lsl #4
    3864:	50480c05 	subpl	r0, r8, r5, lsl #24
    3868:	01122021 	tsteq	r2, r1, lsr #32
    386c:	c7080251 	smlsdgt	r8, r1, r2, r0
    3870:	8fc41400 	svchi	0x00c41400
    3874:	05b80000 	ldreq	r0, [r8, #0]!
    3878:	04610000 	strbteq	r0, [r1], #-0
    387c:	01120000 	tsteq	r2, r0
    3880:	680c0550 	stmdavs	ip, {r4, r6, r8, sl}
    3884:	12202150 	eorne	r2, r0, #20
    3888:	0a035101 	beq	d7c94 <__bss_end__+0xcdf1c>
    388c:	1400010e 	strne	r0, [r0], #-270	; 0xfffffef2
    3890:	00008fd0 	ldrdeq	r8, [r0], -r0
    3894:	000005b8 			; <UNDEFINED> instruction: 0x000005b8
    3898:	0000047a 	andeq	r0, r0, sl, ror r4
    389c:	02500112 	subseq	r0, r0, #-2147483644	; 0x80000004
    38a0:	01120074 	tsteq	r2, r4, ror r0
    38a4:	00330151 	eorseq	r0, r3, r1, asr r1
    38a8:	008fd40f 	addeq	sp, pc, pc, lsl #8
    38ac:	0005a000 	andeq	sl, r5, r0
    38b0:	590e0000 	stmdbpl	lr, {}	; <UNPREDICTABLE>
    38b4:	01000009 	tsteq	r0, r9
    38b8:	90d40635 	sbcsls	r0, r4, r5, lsr r6
    38bc:	00240000 	eoreq	r0, r4, r0
    38c0:	9c010000 	stcls	0, cr0, [r1], {-0}
    38c4:	000004d3 	ldrdeq	r0, [r0], -r3
    38c8:	0090dc0f 	addseq	sp, r0, pc, lsl #24
    38cc:	00019400 	andeq	r9, r1, r0, lsl #8
    38d0:	90e00f00 	rscls	r0, r0, r0, lsl #30
    38d4:	05a00000 	streq	r0, [r0, #0]!
    38d8:	ec140000 	ldc	0, cr0, [r4], {-0}
    38dc:	d3000090 	movwle	r0, #144	; 0x90
    38e0:	c9000004 	stmdbgt	r0, {r2}
    38e4:	12000004 	andne	r0, r0, #4, 0
    38e8:	0c055001 	stceq	0, cr5, [r5], {1}
    38ec:	20215004 	eorcs	r5, r1, r4
    38f0:	02510112 	subseq	r0, r1, #-2147483644	; 0x80000004
    38f4:	0f00fe09 	svceq	0x0000fe09
    38f8:	000090f0 	strdeq	r9, [r0], -r0
    38fc:	000005a0 	andeq	r0, r0, r0, lsr #11
    3900:	09891700 	stmibeq	r9, {r8, r9, sl, ip}
    3904:	31010000 	mrscc	r0, (UNDEF: 1)
    3908:	008f080d 	addeq	r0, pc, sp, lsl #16
    390c:	00002000 	andeq	r2, r0, r0
    3910:	369c0100 	ldrcc	r0, [ip], r0, lsl #2
    3914:	18000005 	stmdane	r0, {r0, r2}
    3918:	000009c1 	andeq	r0, r0, r1, asr #19
    391c:	36253101 	strtcc	r3, [r5], -r1, lsl #2
    3920:	59000005 	stmdbpl	r0, {r0, r2}
    3924:	5500001d 	strpl	r0, [r0, #-29]	; 0xffffffe3
    3928:	1300001d 	movwne	r0, #29
    392c:	006c6176 	rsbeq	r6, ip, r6, ror r1
    3930:	2c343101 	ldfcss	f3, [r4], #-4
    3934:	7b000000 	blvc	393c <__code_start__-0x46c4>
    3938:	7700001d 	smladvc	r0, sp, r0, r0
    393c:	1400001d 	strne	r0, [r0], #-29	; 0xffffffe3
    3940:	00008f18 	andeq	r8, r0, r8, lsl pc
    3944:	000005ac 	andeq	r0, r0, ip, lsr #11
    3948:	00000525 	andeq	r0, r0, r5, lsr #10
    394c:	02500112 	subseq	r0, r0, #-2147483644	; 0x80000004
    3950:	11000074 	tstne	r0, r4, ror r0
    3954:	00008f24 	andeq	r8, r0, r4, lsr #30
    3958:	000005b8 			; <UNDEFINED> instruction: 0x000005b8
    395c:	02500112 	subseq	r0, r0, #-2147483644	; 0x80000004
    3960:	00000074 	andeq	r0, r0, r4, ror r0
    3964:	053c040c 	ldreq	r0, [ip, #-1036]!	; 0xfffffbf4
    3968:	17190000 	ldrne	r0, [r9, -r0]
    396c:	00000974 	andeq	r0, r0, r4, ror r9
    3970:	280d2e01 	stmdacs	sp, {r0, r9, sl, fp, sp}
    3974:	2000008f 	andcs	r0, r0, pc, lsl #1
    3978:	01000000 	mrseq	r0, (UNDEF: 0)
    397c:	0005a09c 	muleq	r5, ip, r0
    3980:	09c11800 	stmibeq	r1, {fp, ip}^
    3984:	2e010000 	cdpcs	0, 0, cr0, cr1, cr0, {0}
    3988:	00053624 	andeq	r3, r5, r4, lsr #12
    398c:	001d9d00 	andseq	r9, sp, r0, lsl #26
    3990:	001d9900 	andseq	r9, sp, r0, lsl #18
    3994:	61761300 	cmnvs	r6, r0, lsl #6
    3998:	2e01006c 	cdpcs	0, 0, cr0, cr1, cr12, {3}
    399c:	00002c33 	andeq	r2, r0, r3, lsr ip
    39a0:	001dbf00 	andseq	fp, sp, r0, lsl #30
    39a4:	001dbb00 	andseq	fp, sp, r0, lsl #22
    39a8:	8f381400 	svchi	0x00381400
    39ac:	05ac0000 	streq	r0, [ip, #0]!
    39b0:	058f0000 	streq	r0, [pc]	; 39b8 <__code_start__-0x4648>
    39b4:	01120000 	tsteq	r2, r0
    39b8:	00740250 	rsbseq	r0, r4, r0, asr r2
    39bc:	8f441100 	svchi	0x00441100
    39c0:	05b80000 	ldreq	r0, [r8, #0]!
    39c4:	01120000 	tsteq	r2, r0
    39c8:	00740250 	rsbseq	r0, r4, r0, asr r2
    39cc:	b31a0000 	tstlt	sl, #0, 0
    39d0:	b3000006 	movwlt	r0, #6
    39d4:	03000006 	movweq	r0, #6
    39d8:	9c1a06a1 	ldcls	6, cr0, [sl], {161}	; 0xa1
    39dc:	9c000009 	stcls	0, cr0, [r0], {9}
    39e0:	03000009 	movweq	r0, #9
    39e4:	e51a0bc8 	ldr	r0, [sl, #-3016]	; 0xfffff438
    39e8:	e5000008 	str	r0, [r0, #-8]
    39ec:	03000008 	movweq	r0, #8
    39f0:	c71a06b3 			; <UNDEFINED> instruction: 0xc71a06b3
    39f4:	c7000008 	strgt	r0, [r0, -r8]
    39f8:	04000008 	streq	r0, [r0], #-8
    39fc:	e9000619 	stmdb	r0, {r0, r3, r4, r9, sl}
    3a00:	04000008 	streq	r0, [r0], #-8
    3a04:	0012ad00 	andseq	sl, r2, r0, lsl #26
    3a08:	ff010400 			; <UNDEFINED> instruction: 0xff010400
    3a0c:	0c000007 	stceq	0, cr0, [r0], {7}
    3a10:	00000a3e 	andeq	r0, r0, lr, lsr sl
    3a14:	000007ac 	andeq	r0, r0, ip, lsr #15
    3a18:	000090f8 	strdeq	r9, [r0], -r8
    3a1c:	000003b0 			; <UNDEFINED> instruction: 0x000003b0
    3a20:	00001b49 	andeq	r1, r0, r9, asr #22
    3a24:	69050402 	stmdbvs	r5, {r1, sl}
    3a28:	0300746e 	movweq	r7, #1134	; 0x46e
    3a2c:	01320704 	teqeq	r2, r4, lsl #14
    3a30:	01030000 	mrseq	r0, (UNDEF: 3)
    3a34:	00011206 	andeq	r1, r1, r6, lsl #4
    3a38:	05020300 	streq	r0, [r2, #-768]	; 0xfffffd00
    3a3c:	00000010 	andeq	r0, r0, r0, lsl r0
    3a40:	c3050403 	movwgt	r0, #21507	; 0x5403
    3a44:	03000000 	movweq	r0, #0
    3a48:	00be0508 	adcseq	r0, lr, r8, lsl #10
    3a4c:	01030000 	mrseq	r0, (UNDEF: 3)
    3a50:	00011008 	andeq	r1, r1, r8
    3a54:	07020300 	streq	r0, [r2, -r0, lsl #6]
    3a58:	00000147 	andeq	r0, r0, r7, asr #2
    3a5c:	0002a504 	andeq	sl, r2, r4, lsl #10
    3a60:	19340300 	ldmdbne	r4!, {r8, r9}
    3a64:	00000069 	andeq	r0, r0, r9, rrx
    3a68:	2d070403 	cfstrscs	mvf0, [r7, #-12]
    3a6c:	03000001 	movweq	r0, #1
    3a70:	01280708 			; <UNDEFINED> instruction: 0x01280708
    3a74:	01030000 	mrseq	r0, (UNDEF: 3)
    3a78:	00011908 	andeq	r1, r1, r8, lsl #18
    3a7c:	00770500 	rsbseq	r0, r7, r0, lsl #10
    3a80:	08030000 	stmdaeq	r3, {}	; <UNPREDICTABLE>
    3a84:	000a6004 	andeq	r6, sl, r4
    3a88:	07040600 	streq	r0, [r4, -r0, lsl #12]
    3a8c:	002c0407 	eoreq	r0, ip, r7, lsl #8
    3a90:	1f010000 	svcne	0x00010000
    3a94:	0000a406 	andeq	sl, r0, r6, lsl #8
    3a98:	09cc0800 	stmibeq	ip, {fp}^
    3a9c:	00000000 	andeq	r0, r0, r0
    3aa0:	09000020 	stmdbeq	r0, {r5}
    3aa4:	000004e7 	andeq	r0, r0, r7, ror #9
    3aa8:	770d2201 	strvc	r2, [sp, -r1, lsl #4]
    3aac:	0a000000 	beq	3ab4 <__code_start__-0x454c>
    3ab0:	000009e7 	andeq	r0, r0, r7, ror #19
    3ab4:	c20e2301 	andgt	r2, lr, #67108864	; 0x4000000
    3ab8:	05000000 	streq	r0, [r0, #-0]
    3abc:	00996c03 	addseq	r6, r9, r3, lsl #24
    3ac0:	77040b00 	strvc	r0, [r4, -r0, lsl #22]
    3ac4:	0a000000 	beq	3acc <__code_start__-0x4534>
    3ac8:	000009aa 	andeq	r0, r0, sl, lsr #19
    3acc:	c20e2401 	andgt	r2, lr, #16777216	; 0x1000000
    3ad0:	05000000 	streq	r0, [r0, #-0]
    3ad4:	00996803 	addseq	r6, r9, r3, lsl #16
    3ad8:	0a1d0a00 	beq	7462e0 <__bss_end__+0x73c568>
    3adc:	25010000 	strcs	r0, [r1, #-0]
    3ae0:	0000c20e 	andeq	ip, r0, lr, lsl #4
    3ae4:	64030500 	strvs	r0, [r3], #-1280	; 0xfffffb00
    3ae8:	0c000099 	stceq	0, cr0, [r0], {153}	; 0x99
    3aec:	000009f3 	strdeq	r0, [r0], -r3
    3af0:	48067501 	stmdami	r6, {r0, r8, sl, ip, sp, lr}
    3af4:	60000094 	mulvs	r0, r4, r0
    3af8:	01000000 	mrseq	r0, (UNDEF: 0)
    3afc:	0001649c 	muleq	r1, ip, r4
    3b00:	00700d00 	rsbseq	r0, r0, r0, lsl #26
    3b04:	8a167501 	bhi	5a0f10 <__bss_end__+0x597198>
    3b08:	e3000000 	movw	r0, #0
    3b0c:	dd00001d 	stcle	0, cr0, [r0, #-116]	; 0xffffff8c
    3b10:	0e00001d 	mcreq	0, 0, r0, cr0, cr13, {0}
    3b14:	000000e3 	andeq	r0, r0, r3, ror #1
    3b18:	00000174 	andeq	r0, r0, r4, ror r1
    3b1c:	99540305 	ldmdbls	r4, {r0, r2, r8, r9}^
    3b20:	940f0000 	strls	r0, [pc], #-0	; 3b28 <__code_start__-0x44d8>
    3b24:	bc000094 	stclt	0, cr0, [r0], {148}	; 0x94
    3b28:	5a000008 	bpl	3b50 <__code_start__-0x44b0>
    3b2c:	10000001 	andne	r0, r0, r1
    3b30:	03055001 	movweq	r5, #20481	; 0x5001
    3b34:	000098cc 	andeq	r9, r0, ip, asr #17
    3b38:	05510110 	ldrbeq	r0, [r1, #-272]	; 0xfffffef0
    3b3c:	00976403 	addseq	r6, r7, r3, lsl #8
    3b40:	52011000 	andpl	r1, r1, #0, 0
    3b44:	99540305 	ldmdbls	r4, {r0, r2, r8, r9}^
    3b48:	01100000 	tsteq	r0, r0
    3b4c:	77080253 	smlsdvc	r8, r3, r2, r0
    3b50:	007d0210 	rsbseq	r0, sp, r0, lsl r2
    3b54:	5001f303 	andpl	pc, r1, r3, lsl #6
    3b58:	94981100 	ldrls	r1, [r8], #256	; 0x100
    3b5c:	08c80000 	stmiaeq	r8, {}^	; <UNPREDICTABLE>
    3b60:	12000000 	andne	r0, r0, #0, 0
    3b64:	0000007e 	andeq	r0, r0, lr, ror r0
    3b68:	00000174 	andeq	r0, r0, r4, ror r1
    3b6c:	00002c13 	andeq	r2, r0, r3, lsl ip
    3b70:	05000900 	streq	r0, [r0, #-2304]	; 0xfffff700
    3b74:	00000164 	andeq	r0, r0, r4, ror #2
    3b78:	0009d514 	andeq	sp, r9, r4, lsl r5
    3b7c:	06720100 	ldrbteq	r0, [r2], -r0, lsl #2
    3b80:	00009434 	andeq	r9, r0, r4, lsr r4
    3b84:	00000014 	andeq	r0, r0, r4, lsl r0
    3b88:	c60c9c01 	strgt	r9, [ip], -r1, lsl #24
    3b8c:	01000009 	tsteq	r0, r9
    3b90:	9430066f 	ldrtls	r0, [r0], #-1647	; 0xfffff991
    3b94:	00040000 	andeq	r0, r4, r0
    3b98:	9c010000 	stcls	0, cr0, [r1], {-0}
    3b9c:	000001ae 	andeq	r0, r0, lr, lsr #3
    3ba0:	01007015 	tsteq	r0, r5, lsl r0
    3ba4:	008a126f 	addeq	r1, sl, pc, ror #4
    3ba8:	50010000 	andpl	r0, r1, r0
    3bac:	0a9e1600 	beq	fe7893b4 <__bss_end__+0xfe77f63c>
    3bb0:	5e010000 	cdppl	0, 0, cr0, cr1, cr0, {0}
    3bb4:	00008a07 	andeq	r8, r0, r7, lsl #20
    3bb8:	00931800 	addseq	r1, r3, r0, lsl #16
    3bbc:	00011800 	andeq	r1, r1, r0, lsl #16
    3bc0:	2c9c0100 	ldfcss	f0, [ip], {0}
    3bc4:	17000004 	strne	r0, [r0, -r4]
    3bc8:	000009b9 			; <UNDEFINED> instruction: 0x000009b9
    3bcc:	2c205e01 	stccs	14, cr5, [r0], #-4
    3bd0:	24000000 	strcs	r0, [r0], #-0
    3bd4:	1000001e 	andne	r0, r0, lr, lsl r0
    3bd8:	1700001e 	smladne	r0, lr, r0, r0
    3bdc:	000009fd 	strdeq	r0, [r0], -sp
    3be0:	2c315e01 	ldccs	14, cr5, [r1], #-4
    3be4:	bd000000 	stclt	0, cr0, [r0, #-0]
    3be8:	a900001e 	stmdbge	r0, {r1, r2, r3, r4}
    3bec:	0e00001e 	mcreq	0, 0, r0, cr0, cr14, {0}
    3bf0:	000000e3 	andeq	r0, r0, r3, ror #1
    3bf4:	0000043c 	andeq	r0, r0, ip, lsr r4
    3bf8:	993c0305 	ldmdbls	ip!, {r0, r2, r8, r9}
    3bfc:	68180000 	ldmdavs	r8, {}	; <UNPREDICTABLE>
    3c00:	0e660100 	poweqs	f0, f6, f0
    3c04:	0000002c 	andeq	r0, r0, ip, lsr #32
    3c08:	00001f73 	andeq	r1, r0, r3, ror pc
    3c0c:	00001f67 	andeq	r1, r0, r7, ror #30
    3c10:	00085419 	andeq	r5, r8, r9, lsl r4
    3c14:	00932800 	addseq	r2, r3, r0, lsl #16
    3c18:	93280400 			; <UNDEFINED> instruction: 0x93280400
    3c1c:	00040000 	andeq	r0, r4, r0
    3c20:	60010000 	andvs	r0, r1, r0
    3c24:	00023805 	andeq	r3, r2, r5, lsl #16
    3c28:	08651a00 	stmdaeq	r5!, {r9, fp, ip}^
    3c2c:	1fc70000 	svcne	0x00c70000
    3c30:	1fc50000 	svcne	0x00c50000
    3c34:	19000000 	stmdbne	r0, {}	; <UNPREDICTABLE>
    3c38:	00000896 	muleq	r0, r6, r8
    3c3c:	00009334 	andeq	r9, r0, r4, lsr r3
    3c40:	00933402 	addseq	r3, r3, r2, lsl #8
    3c44:	00000800 	andeq	r0, r0, r0, lsl #16
    3c48:	11610100 	cmnne	r1, r0, lsl #2
    3c4c:	0000026c 	andeq	r0, r0, ip, ror #4
    3c50:	0008b11a 	andeq	fp, r8, sl, lsl r1
    3c54:	001fdc00 	andseq	sp, pc, r0, lsl #24
    3c58:	001fda00 	andseq	sp, pc, r0, lsl #20
    3c5c:	08a71a00 	stmiaeq	r7!, {r9, fp, ip}
    3c60:	1ff20000 	svcne	0x00f20000
    3c64:	1ff00000 	svcne	0x00f00000	; IMB
    3c68:	1b000000 	blne	3c70 <__code_start__-0x4390>
    3c6c:	0000081f 	andeq	r0, r0, pc, lsl r8
    3c70:	00009344 	andeq	r9, r0, r4, asr #6
    3c74:	00048001 	andeq	r8, r4, r1
    3c78:	09670100 	stmdbeq	r7!, {r8}^
    3c7c:	0000030a 	andeq	r0, r0, sl, lsl #6
    3c80:	00083a1a 	andeq	r3, r8, sl, lsl sl
    3c84:	00200b00 	eoreq	r0, r0, r0, lsl #22
    3c88:	00200500 	eoreq	r0, r0, r0, lsl #10
    3c8c:	08301a00 	ldmdaeq	r0!, {r9, fp, ip}
    3c90:	20520000 	subscs	r0, r2, r0
    3c94:	204a0000 	subcs	r0, sl, r0
    3c98:	801c0000 	andshi	r0, ip, r0
    3c9c:	19000004 	stmdbne	r0, {r2}
    3ca0:	00000854 	andeq	r0, r0, r4, asr r8
    3ca4:	00009344 	andeq	r9, r0, r4, asr #6
    3ca8:	00934404 	addseq	r4, r3, r4, lsl #8
    3cac:	00000400 	andeq	r0, r0, r0, lsl #8
    3cb0:	05110100 	ldreq	r0, [r1, #-256]	; 0xffffff00
    3cb4:	000002c7 	andeq	r0, r0, r7, asr #5
    3cb8:	0008651a 	andeq	r6, r8, sl, lsl r5
    3cbc:	00209000 	eoreq	r9, r0, r0
    3cc0:	00208e00 	eoreq	r8, r0, r0, lsl #28
    3cc4:	dc0f0000 	stcle	0, cr0, [pc], {-0}
    3cc8:	bc000093 	stclt	0, cr0, [r0], {147}	; 0x93
    3ccc:	ff000008 			; <UNDEFINED> instruction: 0xff000008
    3cd0:	10000002 	andne	r0, r0, r2
    3cd4:	03055001 	movweq	r5, #20481	; 0x5001
    3cd8:	000095f0 	strdeq	r9, [r0], -r0
    3cdc:	05510110 	ldrbeq	r0, [r1, #-272]	; 0xfffffef0
    3ce0:	00976403 	addseq	r6, r7, r3, lsl #8
    3ce4:	52011000 	andpl	r1, r1, #0, 0
    3ce8:	994c0305 	stmdbls	ip, {r0, r2, r8, r9}^
    3cec:	01100000 	tsteq	r0, r0
    3cf0:	10410153 	subne	r0, r1, r3, asr r1
    3cf4:	05007d02 	streq	r7, [r0, #-3330]	; 0xfffff2fe
    3cf8:	00987803 	addseq	r7, r8, r3, lsl #16
    3cfc:	e0110000 	ands	r0, r1, r0
    3d00:	c8000093 	stmdagt	r0, {r0, r1, r4, r7}
    3d04:	00000008 	andeq	r0, r0, r8
    3d08:	08701900 	ldmdaeq	r0!, {r8, fp, ip}^
    3d0c:	935c0000 	cmpls	ip, #0, 0
    3d10:	5c030000 	stcpl	0, cr0, [r3], {-0}
    3d14:	04000093 	streq	r0, [r0], #-147	; 0xffffff6d
    3d18:	01000000 	mrseq	r0, (UNDEF: 0)
    3d1c:	033e0568 	teqeq	lr, #104, 10	; 0x1a000000
    3d20:	8b1a0000 	blhi	683d28 <__bss_end__+0x679fb0>
    3d24:	a5000008 	strge	r0, [r0, #-8]
    3d28:	a3000020 	movwge	r0, #32
    3d2c:	1a000020 	bne	3db4 <__code_start__-0x424c>
    3d30:	00000881 	andeq	r0, r0, r1, lsl #17
    3d34:	000020ba 	strheq	r2, [r0], -sl
    3d38:	000020b8 	strheq	r2, [r0], -r8
    3d3c:	93740f00 	cmnls	r4, #0, 30
    3d40:	04410000 	strbeq	r0, [r1], #-0
    3d44:	03530000 	cmpeq	r3, #0, 0
    3d48:	01100000 	tsteq	r0, r0
    3d4c:	01f30350 	mvnseq	r0, r0, asr r3
    3d50:	980f0050 	stmdals	pc, {r4, r6}	; <UNPREDICTABLE>
    3d54:	bc000093 	stclt	0, cr0, [r0], {147}	; 0x93
    3d58:	8c000008 	stchi	0, cr0, [r0], {8}
    3d5c:	10000003 	andne	r0, r0, r3
    3d60:	03055001 	movweq	r5, #20481	; 0x5001
    3d64:	000095f0 	strdeq	r9, [r0], -r0
    3d68:	05510110 	ldrbeq	r0, [r1, #-272]	; 0xfffffef0
    3d6c:	00976403 	addseq	r6, r7, r3, lsl #8
    3d70:	52011000 	andpl	r1, r1, #0, 0
    3d74:	993c0305 	ldmdbls	ip!, {r0, r2, r8, r9}
    3d78:	01100000 	tsteq	r0, r0
    3d7c:	5f080253 	svcpl	0x00080253
    3d80:	007d0210 	rsbseq	r0, sp, r0, lsl r2
    3d84:	97740305 	ldrbls	r0, [r4, -r5, lsl #6]!
    3d88:	11000000 	mrsne	r0, (UNDEF: 0)
    3d8c:	0000939c 	muleq	r0, ip, r3
    3d90:	000008c8 	andeq	r0, r0, r8, asr #17
    3d94:	0093a011 	addseq	sl, r3, r1, lsl r0
    3d98:	0008d400 	andeq	sp, r8, r0, lsl #8
    3d9c:	93bc0f00 			; <UNDEFINED> instruction: 0x93bc0f00
    3da0:	08bc0000 	ldmeq	ip!, {}	; <UNPREDICTABLE>
    3da4:	03d70000 	bicseq	r0, r7, #0, 0
    3da8:	01100000 	tsteq	r0, r0
    3dac:	30030550 	andcc	r0, r3, r0, asr r5
    3db0:	10000098 	mulne	r0, r8, r0
    3db4:	03055101 	movweq	r5, #20737	; 0x5101
    3db8:	00009764 	andeq	r9, r0, r4, ror #14
    3dbc:	05520110 	ldrbeq	r0, [r2, #-272]	; 0xfffffef0
    3dc0:	00993c03 	addseq	r3, r9, r3, lsl #24
    3dc4:	53011000 	movwpl	r1, #4096	; 0x1000
    3dc8:	10600802 	rsbne	r0, r0, r2, lsl #16
    3dcc:	05007d02 	streq	r7, [r0, #-3330]	; 0xfffff2fe
    3dd0:	00986403 	addseq	r6, r8, r3, lsl #8
    3dd4:	c0110000 	andsgt	r0, r1, r0
    3dd8:	c8000093 	stmdagt	r0, {r0, r1, r4, r7}
    3ddc:	11000008 	tstne	r0, r8
    3de0:	000093e4 	andeq	r9, r0, r4, ror #7
    3de4:	000008d4 	ldrdeq	r0, [r0], -r4
    3de8:	0094000f 	addseq	r0, r4, pc
    3dec:	0008bc00 	andeq	fp, r8, r0, lsl #24
    3df0:	00042200 	andeq	r2, r4, r0, lsl #4
    3df4:	50011000 	andpl	r1, r1, r0
    3df8:	98840305 	stmls	r4, {r0, r2, r8, r9}
    3dfc:	01100000 	tsteq	r0, r0
    3e00:	64030551 	strvs	r0, [r3], #-1361	; 0xfffffaaf
    3e04:	10000097 	mulne	r0, r7, r0
    3e08:	03055201 	movweq	r5, #20993	; 0x5201
    3e0c:	0000993c 	andeq	r9, r0, ip, lsr r9
    3e10:	02530110 	subseq	r0, r3, #4
    3e14:	02106808 	andseq	r6, r0, #8, 16	; 0x80000
    3e18:	0305007d 	movweq	r0, #20605	; 0x507d
    3e1c:	000098b0 			; <UNDEFINED> instruction: 0x000098b0
    3e20:	94041100 	strls	r1, [r4], #-256	; 0xffffff00
    3e24:	08c80000 	stmiaeq	r8, {}^	; <UNPREDICTABLE>
    3e28:	12000000 	andne	r0, r0, #0, 0
    3e2c:	0000007e 	andeq	r0, r0, lr, ror r0
    3e30:	0000043c 	andeq	r0, r0, ip, lsr r4
    3e34:	00002c13 	andeq	r2, r0, r3, lsl ip
    3e38:	05000f00 	streq	r0, [r0, #-3840]	; 0xfffff100
    3e3c:	0000042c 	andeq	r0, r0, ip, lsr #8
    3e40:	0002d816 	andeq	sp, r2, r6, lsl r8
    3e44:	07530100 	ldrbeq	r0, [r3, -r0, lsl #2]
    3e48:	0000008a 	andeq	r0, r0, sl, lsl #1
    3e4c:	000092b4 			; <UNDEFINED> instruction: 0x000092b4
    3e50:	00000064 	andeq	r0, r0, r4, rrx
    3e54:	05089c01 	streq	r9, [r8, #-3073]	; 0xfffff3ff
    3e58:	b9170000 	ldmdblt	r7, {}	; <UNPREDICTABLE>
    3e5c:	01000009 	tsteq	r0, r9
    3e60:	002c1853 	eoreq	r1, ip, r3, asr r8
    3e64:	20d50000 	sbcscs	r0, r5, r0
    3e68:	20cd0000 	sbccs	r0, sp, r0
    3e6c:	e30e0000 	movw	r0, #57344	; 0xe000
    3e70:	18000000 	stmdane	r0, {}	; <UNPREDICTABLE>
    3e74:	05000005 	streq	r0, [r0, #-5]
    3e78:	00993403 	addseq	r3, r9, r3, lsl #8
    3e7c:	09c11d00 	stmibeq	r1, {r8, sl, fp, ip}^
    3e80:	55010000 	strpl	r0, [r1, #-0]
    3e84:	00008a0b 	andeq	r8, r0, fp, lsl #20
    3e88:	00210d00 	eoreq	r0, r1, r0, lsl #26
    3e8c:	00210900 	eoreq	r0, r1, r0, lsl #18
    3e90:	92cc0f00 	sbcls	r0, ip, #0, 30
    3e94:	051d0000 	ldreq	r0, [sp, #-0]
    3e98:	04a60000 	strteq	r0, [r6], #0
    3e9c:	01100000 	tsteq	r0, r0
    3ea0:	00740250 	rsbseq	r0, r4, r0, asr r2
    3ea4:	92dc0f00 	sbcsls	r0, ip, #0, 30
    3ea8:	08e00000 	stmiaeq	r0!, {}^	; <UNPREDICTABLE>
    3eac:	04c50000 	strbeq	r0, [r5], #0
    3eb0:	01100000 	tsteq	r0, r0
    3eb4:	00750250 	rsbseq	r0, r5, r0, asr r2
    3eb8:	01510110 	cmpeq	r1, r0, lsl r1
    3ebc:	52011030 	andpl	r1, r1, #48, 0	; 0x30
    3ec0:	00007402 	andeq	r7, r0, r2, lsl #8
    3ec4:	0093040f 	addseq	r0, r3, pc, lsl #8
    3ec8:	0008bc00 	andeq	fp, r8, r0, lsl #24
    3ecc:	0004fe00 	andeq	pc, r4, r0, lsl #28
    3ed0:	50011000 	andpl	r1, r1, r0
    3ed4:	95f00305 	ldrbls	r0, [r0, #773]!	; 0x305
    3ed8:	01100000 	tsteq	r0, r0
    3edc:	64030551 	strvs	r0, [r3], #-1361	; 0xfffffaaf
    3ee0:	10000097 	mulne	r0, r7, r0
    3ee4:	03055201 	movweq	r5, #20993	; 0x5201
    3ee8:	00009934 	andeq	r9, r0, r4, lsr r9
    3eec:	02530110 	subseq	r0, r3, #4
    3ef0:	02105408 	andseq	r5, r0, #8, 8	; 0x8000000
    3ef4:	0305007d 	movweq	r0, #20605	; 0x507d
    3ef8:	00009774 	andeq	r9, r0, r4, ror r7
    3efc:	93081100 	movwls	r1, #33024	; 0x8100
    3f00:	08c80000 	stmiaeq	r8, {}^	; <UNPREDICTABLE>
    3f04:	12000000 	andne	r0, r0, #0, 0
    3f08:	0000007e 	andeq	r0, r0, lr, ror r0
    3f0c:	00000518 	andeq	r0, r0, r8, lsl r5
    3f10:	00002c13 	andeq	r2, r0, r3, lsl ip
    3f14:	05000700 	streq	r0, [r0, #-1792]	; 0xfffff900
    3f18:	00000508 	andeq	r0, r0, r8, lsl #10
    3f1c:	000a2616 	andeq	r2, sl, r6, lsl r6
    3f20:	07470100 	strbeq	r0, [r7, -r0, lsl #2]
    3f24:	0000008a 	andeq	r0, r0, sl, lsl #1
    3f28:	0000921c 	andeq	r9, r0, ip, lsl r2
    3f2c:	00000098 	muleq	r0, r8, r0
    3f30:	062b9c01 	strteq	r9, [fp], -r1, lsl #24
    3f34:	b9170000 	ldmdblt	r7, {}	; <UNPREDICTABLE>
    3f38:	01000009 	tsteq	r0, r9
    3f3c:	002c2047 	eoreq	r2, ip, r7, asr #32
    3f40:	213b0000 	teqcs	fp, r0
    3f44:	212b0000 			; <UNDEFINED> instruction: 0x212b0000
    3f48:	e30e0000 	movw	r0, #57344	; 0xe000
    3f4c:	3c000000 	stccc	0, cr0, [r0], {-0}
    3f50:	05000004 	streq	r0, [r0, #-4]
    3f54:	00992403 	addseq	r2, r9, r3, lsl #8
    3f58:	09c11d00 	stmibeq	r1, {r8, sl, fp, ip}^
    3f5c:	4b010000 	blmi	43f64 <__bss_end__+0x3a1ec>
    3f60:	00008a0b 	andeq	r8, r0, fp, lsl #20
    3f64:	0021af00 	eoreq	sl, r1, r0, lsl #30
    3f68:	0021a900 	eoreq	sl, r1, r0, lsl #18
    3f6c:	081f1b00 	ldmdaeq	pc, {r8, r9, fp, ip}	; <UNPREDICTABLE>
    3f70:	922c0000 	eorls	r0, ip, #0, 0
    3f74:	68030000 	stmdavs	r3, {}	; <UNPREDICTABLE>
    3f78:	01000004 	tsteq	r0, r4
    3f7c:	05a30e49 	streq	r0, [r3, #3657]!	; 0xe49
    3f80:	3a1a0000 	bcc	683f88 <__bss_end__+0x67a210>
    3f84:	de000008 	cdple	0, 0, cr0, cr0, cr8, {0}
    3f88:	dc000021 	stcle	0, cr0, [r0], {33}	; 0x21
    3f8c:	1a000021 	bne	4018 <__code_start__-0x3fe8>
    3f90:	00000830 	andeq	r0, r0, r0, lsr r8
    3f94:	000021f6 	strdeq	r2, [r0], -r6
    3f98:	000021f2 	strdeq	r2, [r0], -r2	; <UNPREDICTABLE>
    3f9c:	0004681e 	andeq	r6, r4, lr, lsl r8
    3fa0:	740f0000 	strvc	r0, [pc], #-0	; 3fa8 <__code_start__-0x4058>
    3fa4:	bc000092 	stclt	0, cr0, [r0], {146}	; 0x92
    3fa8:	dc000008 	stcle	0, cr0, [r0], {8}
    3fac:	10000005 	andne	r0, r0, r5
    3fb0:	03055001 	movweq	r5, #20481	; 0x5001
    3fb4:	000095f0 	strdeq	r9, [r0], -r0
    3fb8:	05510110 	ldrbeq	r0, [r1, #-272]	; 0xfffffef0
    3fbc:	00976403 	addseq	r6, r7, r3, lsl #8
    3fc0:	52011000 	andpl	r1, r1, #0, 0
    3fc4:	99240305 	stmdbls	r4!, {r0, r2, r8, r9}
    3fc8:	01100000 	tsteq	r0, r0
    3fcc:	48080253 	stmdami	r8, {r0, r1, r4, r6, r9}
    3fd0:	007d0210 	rsbseq	r0, sp, r0, lsl r2
    3fd4:	97740305 	ldrbls	r0, [r4, -r5, lsl #6]!
    3fd8:	11000000 	mrsne	r0, (UNDEF: 0)
    3fdc:	00009278 	andeq	r9, r0, r8, ror r2
    3fe0:	000008c8 	andeq	r0, r0, r8, asr #17
    3fe4:	0092980f 	addseq	r9, r2, pc, lsl #16
    3fe8:	0008bc00 	andeq	fp, r8, r0, lsl #24
    3fec:	00062100 	andeq	r2, r6, r0, lsl #2
    3ff0:	50011000 	andpl	r1, r1, r0
    3ff4:	97f00305 	ldrbls	r0, [r0, r5, lsl #6]!
    3ff8:	01100000 	tsteq	r0, r0
    3ffc:	64030551 	strvs	r0, [r3], #-1361	; 0xfffffaaf
    4000:	10000097 	mulne	r0, r7, r0
    4004:	03055201 	movweq	r5, #20993	; 0x5201
    4008:	00009924 	andeq	r9, r0, r4, lsr #18
    400c:	02530110 	subseq	r0, r3, #4
    4010:	02104e08 	andseq	r4, r0, #8, 28	; 0x80
    4014:	f308007d 	vqadd.u8	q0, q4, <illegal reg q14.5>
    4018:	07235001 	streq	r5, [r3, -r1]!
    401c:	001af809 	andseq	pc, sl, r9, lsl #16
    4020:	00929c11 	addseq	r9, r2, r1, lsl ip
    4024:	0008c800 	andeq	ip, r8, r0, lsl #16
    4028:	480c0000 	stmdami	ip, {}	; <UNPREDICTABLE>
    402c:	0100000a 	tsteq	r0, sl
    4030:	91c4063c 	bicls	r0, r4, ip, lsr r6
    4034:	00580000 	subseq	r0, r8, r0
    4038:	9c010000 	stcls	0, cr0, [r1], {-0}
    403c:	000006cf 	andeq	r0, r0, pc, asr #13
    4040:	0009ec0a 	andeq	lr, r9, sl, lsl #24
    4044:	103d0100 	eorsne	r0, sp, r0, lsl #2
    4048:	00000025 	andeq	r0, r0, r5, lsr #32
    404c:	9d740305 	ldclls	3, cr0, [r4, #-20]!	; 0xffffffec
    4050:	e30e0000 	movw	r0, #57344	; 0xe000
    4054:	df000000 	svcle	0x00000000
    4058:	05000006 	streq	r0, [r0, #-6]
    405c:	00991403 	addseq	r1, r9, r3, lsl #8
    4060:	04070700 	streq	r0, [r7], #-1792	; 0xfffff900
    4064:	0000002c 	andeq	r0, r0, ip, lsr #32
    4068:	7a0a4201 	bvc	294874 <__bss_end__+0x28aafc>
    406c:	08000006 	stmdaeq	r0, {r1, r2}
    4070:	00000a0f 	andeq	r0, r0, pc, lsl #20
    4074:	00100000 	andseq	r0, r0, r0
    4078:	91f00f00 	mvnsls	r0, r0, lsl #30
    407c:	06e40000 	strbteq	r0, [r4], r0
    4080:	06960000 	ldreq	r0, [r6], r0
    4084:	01100000 	tsteq	r0, r0
    4088:	40400350 	submi	r0, r0, r0, asr r3
    408c:	51011024 	tstpl	r1, r4, lsr #32
    4090:	24484003 	strbcs	r4, [r8], #-3
    4094:	92080f00 	andls	r0, r8, #0, 30
    4098:	08bc0000 	ldmeq	ip!, {}	; <UNPREDICTABLE>
    409c:	06c50000 	strbeq	r0, [r5], r0
    40a0:	01100000 	tsteq	r0, r0
    40a4:	c0030550 	andgt	r0, r3, r0, asr r5
    40a8:	10000097 	mulne	r0, r7, r0
    40ac:	03055101 	movweq	r5, #20737	; 0x5101
    40b0:	00009764 	andeq	r9, r0, r4, ror #14
    40b4:	05520110 	ldrbeq	r0, [r2, #-272]	; 0xfffffef0
    40b8:	00991403 	addseq	r1, r9, r3, lsl #8
    40bc:	53011000 	movwpl	r1, #4096	; 0x1000
    40c0:	00400802 	subeq	r0, r0, r2, lsl #16
    40c4:	00920c11 	addseq	r0, r2, r1, lsl ip
    40c8:	0008c800 	andeq	ip, r8, r0, lsl #16
    40cc:	7e120000 	cdpvc	0, 1, cr0, cr2, cr0, {0}
    40d0:	df000000 	svcle	0x00000000
    40d4:	13000006 	movwne	r0, #6
    40d8:	0000002c 	andeq	r0, r0, ip, lsr #32
    40dc:	cf05000c 	svcgt	0x0005000c
    40e0:	0c000006 	stceq	0, cr0, [r0], {6}
    40e4:	00000a78 	andeq	r0, r0, r8, ror sl
    40e8:	28062d01 	stmdacs	r6, {r0, r8, sl, fp, sp}
    40ec:	9c000091 	stcls	0, cr0, [r0], {145}	; 0x91
    40f0:	01000000 	mrseq	r0, (UNDEF: 0)
    40f4:	0007c89c 	muleq	r7, ip, r8
    40f8:	09c01700 	stmibeq	r0, {r8, r9, sl, ip}^
    40fc:	2d010000 	stccs	0, cr0, [r1, #-0]
    4100:	00002c26 	andeq	r2, r0, r6, lsr #24
    4104:	00222400 	eoreq	r2, r2, r0, lsl #8
    4108:	00221600 	eoreq	r1, r2, r0, lsl #12
    410c:	09b51700 	ldmibeq	r5!, {r8, r9, sl, ip}
    4110:	2d010000 	stccs	0, cr0, [r1, #-0]
    4114:	00002c36 	andeq	r2, r0, r6, lsr ip
    4118:	00228c00 	eoreq	r8, r2, r0, lsl #24
    411c:	00228400 	eoreq	r8, r2, r0, lsl #8
    4120:	09c11d00 	stmibeq	r1, {r8, sl, fp, ip}^
    4124:	2e010000 	cdpcs	0, 0, cr0, cr1, cr0, {0}
    4128:	0000c20b 	andeq	ip, r0, fp, lsl #4
    412c:	0022d400 	eoreq	sp, r2, r0, lsl #8
    4130:	0022c600 	eoreq	ip, r2, r0, lsl #12
    4134:	00e30e00 	rsceq	r0, r3, r0, lsl #28
    4138:	07d80000 	ldrbeq	r0, [r8, r0]
    413c:	03050000 	movweq	r0, #20480	; 0x5000
    4140:	000098fc 	strdeq	r9, [r0], -ip
    4144:	0091800f 	addseq	r8, r1, pc
    4148:	0008bc00 	andeq	fp, r8, r0, lsl #24
    414c:	00077e00 	andeq	r7, r7, r0, lsl #28
    4150:	50011000 	andpl	r1, r1, r0
    4154:	95f00305 	ldrbls	r0, [r0, #773]!	; 0x305
    4158:	01100000 	tsteq	r0, r0
    415c:	64030551 	strvs	r0, [r3], #-1361	; 0xfffffaaf
    4160:	10000097 	mulne	r0, r7, r0
    4164:	03055201 	movweq	r5, #20993	; 0x5201
    4168:	000098fc 	strdeq	r9, [r0], -ip
    416c:	02530110 	subseq	r0, r3, #4
    4170:	02103008 	andseq	r3, r0, #8, 0
    4174:	0305007d 	movweq	r0, #20605	; 0x507d
    4178:	00009770 	andeq	r9, r0, r0, ror r7
    417c:	91841100 	orrls	r1, r4, r0, lsl #2
    4180:	08c80000 	stmiaeq	r8, {}^	; <UNPREDICTABLE>
    4184:	a80f0000 	stmdage	pc, {}	; <UNPREDICTABLE>
    4188:	bc000091 	stclt	0, cr0, [r0], {145}	; 0x91
    418c:	be000008 	cdplt	0, 0, cr0, cr0, cr8, {0}
    4190:	10000007 	andne	r0, r0, r7
    4194:	03055001 	movweq	r5, #20481	; 0x5001
    4198:	0000977c 	andeq	r9, r0, ip, ror r7
    419c:	05510110 	ldrbeq	r0, [r1, #-272]	; 0xfffffef0
    41a0:	00976403 	addseq	r6, r7, r3, lsl #8
    41a4:	52011000 	andpl	r1, r1, #0, 0
    41a8:	98fc0305 	ldmls	ip!, {r0, r2, r8, r9}^
    41ac:	01100000 	tsteq	r0, r0
    41b0:	34080253 	strcc	r0, [r8], #-595	; 0xfffffdad
    41b4:	007d0210 	rsbseq	r0, sp, r0, lsl r2
    41b8:	5001f303 	andpl	pc, r1, r3, lsl #6
    41bc:	91ac1100 			; <UNDEFINED> instruction: 0x91ac1100
    41c0:	08c80000 	stmiaeq	r8, {}^	; <UNPREDICTABLE>
    41c4:	12000000 	andne	r0, r0, #0, 0
    41c8:	0000007e 	andeq	r0, r0, lr, ror r0
    41cc:	000007d8 	ldrdeq	r0, [r0], -r8
    41d0:	00002c13 	andeq	r2, r0, r3, lsl ip
    41d4:	05001600 	streq	r1, [r0, #-1536]	; 0xfffffa00
    41d8:	000007c8 	andeq	r0, r0, r8, asr #15
    41dc:	000a671f 	andeq	r6, sl, pc, lsl r7
    41e0:	072a0100 	streq	r0, [sl, -r0, lsl #2]!
    41e4:	0000008a 	andeq	r0, r0, sl, lsl #1
    41e8:	00009118 	andeq	r9, r0, r8, lsl r1
    41ec:	00000010 	andeq	r0, r0, r0, lsl r0
    41f0:	a21f9c01 	andsge	r9, pc, #256	; 0x100
    41f4:	01000009 	tsteq	r0, r9
    41f8:	008a0729 	addeq	r0, sl, r9, lsr #14
    41fc:	91080000 	mrsls	r0, (UNDEF: 8)
    4200:	00100000 	andseq	r0, r0, r0
    4204:	9c010000 	stcls	0, cr0, [r1], {-0}
    4208:	000a151f 	andeq	r1, sl, pc, lsl r5
    420c:	07280100 	streq	r0, [r8, -r0, lsl #2]!
    4210:	0000008a 	andeq	r0, r0, sl, lsl #1
    4214:	000090f8 	strdeq	r9, [r0], -r8
    4218:	00000010 	andeq	r0, r0, r0, lsl r0
    421c:	df209c01 	svcle	0x00209c01
    4220:	01000009 	tsteq	r0, r9
    4224:	002c1810 	eoreq	r1, ip, r0, lsl r8
    4228:	54030000 	strpl	r0, [r3], #-0
    422c:	21000008 	tstcs	r0, r8
    4230:	10010078 	andne	r0, r1, r8, ror r0
    4234:	00002c29 	andeq	r2, r0, r9, lsr #24
    4238:	006e2100 	rsbeq	r2, lr, r0, lsl #2
    423c:	2c351001 	ldccs	0, cr1, [r5], #-4
    4240:	0e000000 	cdpeq	0, 0, cr0, cr0, cr0, {0}
    4244:	000000e3 	andeq	r0, r0, r3, ror #1
    4248:	00000518 	andeq	r0, r0, r8, lsl r5
    424c:	994c0305 	stmdbls	ip, {r0, r2, r8, r9}^
    4250:	20000000 	andcs	r0, r0, r0
    4254:	00000a36 	andeq	r0, r0, r6, lsr sl
    4258:	2c180d01 	ldccs	13, cr0, [r8], {1}
    425c:	03000000 	movweq	r0, #0
    4260:	00000870 	andeq	r0, r0, r0, ror r8
    4264:	01007821 	tsteq	r0, r1, lsr #16
    4268:	002c290d 	eoreq	r2, ip, sp, lsl #18
    426c:	20000000 	andcs	r0, r0, r0
    4270:	00000a55 	andeq	r0, r0, r5, asr sl
    4274:	2c180701 	ldccs	7, cr0, [r8], {1}
    4278:	03000000 	movweq	r0, #0
    427c:	00000896 	muleq	r0, r6, r8
    4280:	01007821 	tsteq	r0, r1, lsr #16
    4284:	002c2c07 	eoreq	r2, ip, r7, lsl #24
    4288:	6e210000 	cdpvs	0, 2, cr0, cr1, cr0, {0}
    428c:	38070100 	stmdacc	r7, {r8}
    4290:	0000002c 	andeq	r0, r0, ip, lsr #32
    4294:	0a072000 	beq	1cc29c <__bss_end__+0x1c2524>
    4298:	04010000 	streq	r0, [r1], #-0
    429c:	00005d18 	andeq	r5, r0, r8, lsl sp
    42a0:	08bc0300 	ldmeq	ip!, {r8, r9}
    42a4:	78210000 	stmdavc	r1!, {}	; <UNPREDICTABLE>
    42a8:	29040100 	stmdbcs	r4, {r8}
    42ac:	0000005d 	andeq	r0, r0, sp, asr r0
    42b0:	01007921 	tsteq	r0, r1, lsr #18
    42b4:	005d3504 	subseq	r3, sp, r4, lsl #10
    42b8:	22000000 	andcs	r0, r0, #0, 0
    42bc:	00000421 	andeq	r0, r0, r1, lsr #8
    42c0:	00000421 	andeq	r0, r0, r1, lsr #8
    42c4:	22062802 	andcs	r2, r6, #131072	; 0x20000
    42c8:	000004b9 			; <UNDEFINED> instruction: 0x000004b9
    42cc:	000004b9 			; <UNDEFINED> instruction: 0x000004b9
    42d0:	22066e02 	andcs	r6, r6, #2, 28
    42d4:	00000a8f 	andeq	r0, r0, pc, lsl #21
    42d8:	00000a8f 	andeq	r0, r0, pc, lsl #21
    42dc:	22061d02 	andcs	r1, r6, #128	; 0x80
    42e0:	00000285 	andeq	r0, r0, r5, lsl #5
    42e4:	00000285 	andeq	r0, r0, r5, lsl #5
    42e8:	0007f702 	andeq	pc, r7, r2, lsl #14
    42ec:	00000149 	andeq	r0, r0, r9, asr #2
    42f0:	14d00004 	ldrbne	r0, [r0], #4
    42f4:	01040000 	mrseq	r0, (UNDEF: 4)
    42f8:	000002f1 	strdeq	r0, [r0], -r1
    42fc:	000acc0c 	andeq	ip, sl, ip, lsl #24
    4300:	0003c200 	andeq	ip, r3, r0, lsl #4
    4304:	0094a800 	addseq	sl, r4, r0, lsl #16
    4308:	00003c00 	andeq	r3, r0, r0, lsl #24
    430c:	001ee000 	andseq	lr, lr, r0
    4310:	05040200 	streq	r0, [r4, #-512]	; 0xfffffe00
    4314:	00746e69 	rsbseq	r6, r4, r9, ror #28
    4318:	32070403 	andcc	r0, r7, #50331648	; 0x3000000
    431c:	03000001 	movweq	r0, #1
    4320:	01120601 	tsteq	r2, r1, lsl #12
    4324:	02030000 	andeq	r0, r3, #0, 0
    4328:	00001005 	andeq	r1, r0, r5
    432c:	05040300 	streq	r0, [r4, #-768]	; 0xfffffd00
    4330:	000000c3 	andeq	r0, r0, r3, asr #1
    4334:	be050803 	cdplt	8, 0, cr0, cr5, cr3, {0}
    4338:	03000000 	movweq	r0, #0
    433c:	01100801 	tsteq	r0, r1, lsl #16
    4340:	02030000 	andeq	r0, r3, #0, 0
    4344:	00014707 	andeq	r4, r1, r7, lsl #14
    4348:	07040300 	streq	r0, [r4, -r0, lsl #6]
    434c:	0000012d 	andeq	r0, r0, sp, lsr #2
    4350:	28070803 	stmdacs	r7, {r0, r1, fp}
    4354:	04000001 	streq	r0, [r0], #-1
    4358:	00000025 	andeq	r0, r0, r5, lsr #32
    435c:	0000007a 	andeq	r0, r0, sl, ror r0
    4360:	00002505 	andeq	r2, r0, r5, lsl #10
    4364:	1f060000 	svcne	0x00060000
    4368:	02000000 	andeq	r0, r0, #0, 0
    436c:	00860e1c 	addeq	r0, r6, ip, lsl lr
    4370:	04070000 	streq	r0, [r7], #-0
    4374:	0000006b 	andeq	r0, r0, fp, rrx
    4378:	00002504 	andeq	r2, r0, r4, lsl #10
    437c:	00009b00 	andeq	r9, r0, r0, lsl #22
    4380:	009b0500 	addseq	r0, fp, r0, lsl #10
    4384:	07000000 	streq	r0, [r0, -r0]
    4388:	0000a804 	andeq	sl, r0, r4, lsl #16
    438c:	08010300 	stmdaeq	r1, {r8, r9}
    4390:	00000119 	andeq	r0, r0, r9, lsl r1
    4394:	0000a108 	andeq	sl, r0, r8, lsl #2
    4398:	045f0600 	ldrbeq	r0, [pc], #-1536	; 43a0 <__code_start__-0x3c60>
    439c:	21020000 	mrscs	r0, (UNDEF: 2)
    43a0:	0000b90e 	andeq	fp, r0, lr, lsl #18
    43a4:	8c040700 	stchi	7, cr0, [r4], {-0}
    43a8:	09000000 	stmdbeq	r0, {}	; <UNPREDICTABLE>
    43ac:	0000007a 	andeq	r0, r0, sl, ror r0
    43b0:	05070601 	streq	r0, [r7, #-1537]	; 0xfffff9ff
    43b4:	00997003 	addseq	r7, r9, r3
    43b8:	0abf0a00 	beq	fefc6bc0 <__bss_end__+0xfefbce48>
    43bc:	0b010000 	bleq	443c4 <__bss_end__+0x3a64c>
    43c0:	0094d406 	addseq	sp, r4, r6, lsl #8
    43c4:	00001000 	andeq	r1, r0, r0
    43c8:	f19c0100 			; <UNDEFINED> instruction: 0xf19c0100
    43cc:	0b000000 	bleq	43d4 <__code_start__-0x3c2c>
    43d0:	01007066 	tsteq	r0, r6, rrx
    43d4:	0086190b 	addeq	r1, r6, fp, lsl #18
    43d8:	50010000 	andpl	r0, r1, r0
    43dc:	0a8f0c00 	beq	fe3c73e4 <__bss_end__+0xfe3bd66c>
    43e0:	08010000 	stmdaeq	r1, {}	; <UNPREDICTABLE>
    43e4:	0094bc06 	addseq	fp, r4, r6, lsl #24
    43e8:	00001800 	andeq	r1, r0, r0, lsl #16
    43ec:	0d9c0100 	ldfeqs	f0, [ip]
    43f0:	00000aae 	andeq	r0, r0, lr, lsr #21
    43f4:	250c0301 	strcs	r0, [ip, #-769]	; 0xfffffcff
    43f8:	a8000000 	stmdage	r0, {}	; <UNPREDICTABLE>
    43fc:	14000094 	strne	r0, [r0], #-148	; 0xffffff6c
    4400:	01000000 	mrseq	r0, (UNDEF: 0)
    4404:	0001409c 	muleq	r1, ip, r0
    4408:	00630e00 	rsbeq	r0, r3, r0, lsl #28
    440c:	25210301 	strcs	r0, [r1, #-769]!	; 0xfffffcff
    4410:	38000000 	stmdacc	r0, {}	; <UNPREDICTABLE>
    4414:	34000023 	strcc	r0, [r0], #-35	; 0xffffffdd
    4418:	0f000023 	svceq	0x00000023
    441c:	000094b4 			; <UNDEFINED> instruction: 0x000094b4
    4420:	00000140 	andeq	r0, r0, r0, asr #2
    4424:	02500110 	subseq	r0, r0, #4
    4428:	00000074 	andeq	r0, r0, r4, ror r0
    442c:	00099211 	andeq	r9, r9, r1, lsl r2
    4430:	00099200 	andeq	r9, r9, r0, lsl #4
    4434:	06420200 	strbeq	r0, [r2], -r0, lsl #4
    4438:	00013700 	andeq	r3, r1, r0, lsl #14
    443c:	df000400 	svcle	0x00000400
    4440:	04000015 	streq	r0, [r0], #-21	; 0xffffffeb
    4444:	0002f101 	andeq	pc, r2, r1, lsl #2
    4448:	0ae20c00 	beq	ff887450 <__bss_end__+0xff87d6d8>
    444c:	03c20000 	biceq	r0, r2, #0, 0
    4450:	94e40000 	strbtls	r0, [r4], #0
    4454:	00340000 	eorseq	r0, r4, r0
    4458:	1fa10000 	svcne	0x00a10000
    445c:	04020000 	streq	r0, [r2], #-0
    4460:	746e6905 	strbtvc	r6, [lr], #-2309	; 0xfffff6fb
    4464:	07040300 	streq	r0, [r4, -r0, lsl #6]
    4468:	00000132 	andeq	r0, r0, r2, lsr r1
    446c:	12060103 	andne	r0, r6, #-1073741824	; 0xc0000000
    4470:	03000001 	movweq	r0, #1
    4474:	00100502 	andseq	r0, r0, r2, lsl #10
    4478:	04030000 	streq	r0, [r3], #-0
    447c:	0000c305 	andeq	ip, r0, r5, lsl #6
    4480:	05080300 	streq	r0, [r8, #-768]	; 0xfffffd00
    4484:	000000be 	strheq	r0, [r0], -lr
    4488:	10080103 	andne	r0, r8, r3, lsl #2
    448c:	03000001 	movweq	r0, #1
    4490:	01470702 	cmpeq	r7, r2, lsl #14
    4494:	04030000 	streq	r0, [r3], #-0
    4498:	00012d07 	andeq	r2, r1, r7, lsl #26
    449c:	07080300 	streq	r0, [r8, -r0, lsl #6]
    44a0:	00000128 	andeq	r0, r0, r8, lsr #2
    44a4:	00002504 	andeq	r2, r0, r4, lsl #10
    44a8:	00007a00 	andeq	r7, r0, r0, lsl #20
    44ac:	00250500 	eoreq	r0, r5, r0, lsl #10
    44b0:	06000000 	streq	r0, [r0], -r0
    44b4:	0000001f 	andeq	r0, r0, pc, lsl r0
    44b8:	860e1c02 	strhi	r1, [lr], -r2, lsl #24
    44bc:	07000000 	streq	r0, [r0, -r0]
    44c0:	00006b04 	andeq	r6, r0, r4, lsl #22
    44c4:	00250400 	eoreq	r0, r5, r0, lsl #8
    44c8:	009b0000 	addseq	r0, fp, r0
    44cc:	9b050000 	blls	1444d4 <__bss_end__+0x13a75c>
    44d0:	00000000 	andeq	r0, r0, r0
    44d4:	00a80407 	adceq	r0, r8, r7, lsl #8
    44d8:	01030000 	mrseq	r0, (UNDEF: 3)
    44dc:	00011908 	andeq	r1, r1, r8, lsl #18
    44e0:	00a10800 	adceq	r0, r1, r0, lsl #16
    44e4:	5f060000 	svcpl	0x00060000
    44e8:	02000004 	andeq	r0, r0, #4, 0
    44ec:	00b90e21 	adcseq	r0, r9, r1, lsr #28
    44f0:	04070000 	streq	r0, [r7], #-0
    44f4:	0000008c 	andeq	r0, r0, ip, lsl #1
    44f8:	00054309 	andeq	r4, r5, r9, lsl #6
    44fc:	07040100 	streq	r0, [r4, -r0, lsl #2]
    4500:	00000134 	andeq	r0, r0, r4, lsr r1
    4504:	000094e4 	andeq	r9, r0, r4, ror #9
    4508:	00000034 	andeq	r0, r0, r4, lsr r0
    450c:	01349c01 	teqeq	r4, r1, lsl #24
    4510:	dd0a0000 	stcle	0, cr0, [sl, #-0]
    4514:	0100000a 	tsteq	r0, sl
    4518:	01341504 	teqeq	r4, r4, lsl #10
    451c:	50010000 	andpl	r0, r1, r0
    4520:	6372730b 	cmnvs	r2, #738197504	; 0x2c000000
    4524:	27040100 	strcs	r0, [r4, -r0, lsl #2]
    4528:	0000009b 	muleq	r0, fp, r0
    452c:	0000235a 	andeq	r2, r0, sl, asr r3
    4530:	00002356 	andeq	r2, r0, r6, asr r3
    4534:	0031730c 	eorseq	r7, r1, ip, lsl #6
    4538:	340b0501 	strcc	r0, [fp], #-1281	; 0xfffffaff
    453c:	85000001 	strhi	r0, [r0, #-1]
    4540:	7b000023 	blvc	45d4 <__code_start__-0x3a2c>
    4544:	0c000023 	stceq	0, cr0, [r0], {35}	; 0x23
    4548:	01003273 	tsteq	r0, r3, ror r2
    454c:	009b1106 	addseq	r1, fp, r6, lsl #2
    4550:	23ca0000 	biccs	r0, sl, #0, 0
    4554:	23c60000 	biccs	r0, r6, #0, 0
    4558:	630c0000 	movwvs	r0, #49152	; 0xc000
    455c:	0a070100 	beq	1c4964 <__bss_end__+0x1babec>
    4560:	000000a1 	andeq	r0, r0, r1, lsr #1
    4564:	000023ee 	andeq	r2, r0, lr, ror #7
    4568:	000023ea 	andeq	r2, r0, sl, ror #7
    456c:	a1040700 	tstge	r4, r0, lsl #14
    4570:	00000000 	andeq	r0, r0, r0
    4574:	000000f7 	strdeq	r0, [r0], -r7
    4578:	16950004 	ldrne	r0, [r5], r4
    457c:	01040000 	mrseq	r0, (UNDEF: 4)
    4580:	000002f1 	strdeq	r0, [r0], -r1
    4584:	000af20c 	andeq	pc, sl, ip, lsl #4
    4588:	0003c200 	andeq	ip, r3, r0, lsl #4
    458c:	00951800 	addseq	r1, r5, r0, lsl #16
    4590:	00002c00 	andeq	r2, r0, r0, lsl #24
    4594:	0020ae00 	eoreq	sl, r0, r0, lsl #28
    4598:	05040200 	streq	r0, [r4, #-512]	; 0xfffffe00
    459c:	00746e69 	rsbseq	r6, r4, r9, ror #28
    45a0:	32070403 	andcc	r0, r7, #50331648	; 0x3000000
    45a4:	03000001 	movweq	r0, #1
    45a8:	01120601 	tsteq	r2, r1, lsl #12
    45ac:	02030000 	andeq	r0, r3, #0, 0
    45b0:	00001005 	andeq	r1, r0, r5
    45b4:	05040300 	streq	r0, [r4, #-768]	; 0xfffffd00
    45b8:	000000c3 	andeq	r0, r0, r3, asr #1
    45bc:	be050803 	cdplt	8, 0, cr0, cr5, cr3, {0}
    45c0:	03000000 	movweq	r0, #0
    45c4:	01100801 	tsteq	r0, r1, lsl #16
    45c8:	02030000 	andeq	r0, r3, #0, 0
    45cc:	00014707 	andeq	r4, r1, r7, lsl #14
    45d0:	07040300 	streq	r0, [r4, -r0, lsl #6]
    45d4:	0000012d 	andeq	r0, r0, sp, lsr #2
    45d8:	28070803 	stmdacs	r7, {r0, r1, fp}
    45dc:	04000001 	streq	r0, [r0], #-1
    45e0:	00000025 	andeq	r0, r0, r5, lsr #32
    45e4:	0000007a 	andeq	r0, r0, sl, ror r0
    45e8:	00002505 	andeq	r2, r0, r5, lsl #10
    45ec:	1f060000 	svcne	0x00060000
    45f0:	02000000 	andeq	r0, r0, #0, 0
    45f4:	00860e1c 	addeq	r0, r6, ip, lsl lr
    45f8:	04070000 	streq	r0, [r7], #-0
    45fc:	0000006b 	andeq	r0, r0, fp, rrx
    4600:	00002504 	andeq	r2, r0, r4, lsl #10
    4604:	00009b00 	andeq	r9, r0, r0, lsl #22
    4608:	009b0500 	addseq	r0, fp, r0, lsl #10
    460c:	07000000 	streq	r0, [r0, -r0]
    4610:	0000a804 	andeq	sl, r0, r4, lsl #16
    4614:	08010300 	stmdaeq	r1, {r8, r9}
    4618:	00000119 	andeq	r0, r0, r9, lsl r1
    461c:	0000a108 	andeq	sl, r0, r8, lsl #2
    4620:	045f0600 	ldrbeq	r0, [pc], #-1536	; 4628 <__code_start__-0x39d8>
    4624:	21020000 	mrscs	r0, (UNDEF: 2)
    4628:	0000b90e 	andeq	fp, r0, lr, lsl #18
    462c:	8c040700 	stchi	7, cr0, [r4], {-0}
    4630:	09000000 	stmdbeq	r0, {}	; <UNPREDICTABLE>
    4634:	0000054a 	andeq	r0, r0, sl, asr #10
    4638:	25050301 	strcs	r0, [r5, #-769]	; 0xfffffcff
    463c:	18000000 	stmdane	r0, {}	; <UNPREDICTABLE>
    4640:	2c000095 	stccs	0, cr0, [r0], {149}	; 0x95
    4644:	01000000 	mrseq	r0, (UNDEF: 0)
    4648:	00610a9c 	mlseq	r1, ip, sl, r0
    464c:	9b180301 	blls	605258 <__bss_end__+0x5fb4e0>
    4650:	10000000 	andne	r0, r0, r0
    4654:	0c000024 	stceq	0, cr0, [r0], {36}	; 0x24
    4658:	0a000024 	beq	46f0 <__code_start__-0x3910>
    465c:	03010062 	movweq	r0, #4194	; 0x1062
    4660:	00009b27 	andeq	r9, r0, r7, lsr #22
    4664:	00243200 	eoreq	r3, r4, r0, lsl #4
    4668:	00242e00 	eoreq	r2, r4, r0, lsl #28
    466c:	0f000000 	svceq	0x00000000
    4670:	04000001 	streq	r0, [r0], #-1
    4674:	00172400 	andseq	r2, r7, r0, lsl #8
    4678:	f1010400 			; <UNDEFINED> instruction: 0xf1010400
    467c:	0c000002 	stceq	0, cr0, [r0], {2}
    4680:	00000b02 	andeq	r0, r0, r2, lsl #22
    4684:	000003c2 	andeq	r0, r0, r2, asr #7
    4688:	00009544 	andeq	r9, r0, r4, asr #10
    468c:	00000020 	andeq	r0, r0, r0, lsr #32
    4690:	00002174 	andeq	r2, r0, r4, ror r1
    4694:	69050402 	stmdbvs	r5, {r1, sl}
    4698:	0300746e 	movweq	r7, #1134	; 0x46e
    469c:	01320704 	teqeq	r2, r4, lsl #14
    46a0:	01030000 	mrseq	r0, (UNDEF: 3)
    46a4:	00011206 	andeq	r1, r1, r6, lsl #4
    46a8:	05020300 	streq	r0, [r2, #-768]	; 0xfffffd00
    46ac:	00000010 	andeq	r0, r0, r0, lsl r0
    46b0:	c3050403 	movwgt	r0, #21507	; 0x5403
    46b4:	03000000 	movweq	r0, #0
    46b8:	00be0508 	adcseq	r0, lr, r8, lsl #10
    46bc:	01030000 	mrseq	r0, (UNDEF: 3)
    46c0:	00011008 	andeq	r1, r1, r8
    46c4:	07020300 	streq	r0, [r2, -r0, lsl #6]
    46c8:	00000147 	andeq	r0, r0, r7, asr #2
    46cc:	2d070403 	cfstrscs	mvf0, [r7, #-12]
    46d0:	03000001 	movweq	r0, #1
    46d4:	01280708 			; <UNDEFINED> instruction: 0x01280708
    46d8:	25040000 	strcs	r0, [r4, #-0]
    46dc:	7a000000 	bvc	46e4 <__code_start__-0x391c>
    46e0:	05000000 	streq	r0, [r0, #-0]
    46e4:	00000025 	andeq	r0, r0, r5, lsr #32
    46e8:	001f0600 	andseq	r0, pc, r0, lsl #12
    46ec:	1c020000 	stcne	0, cr0, [r2], {-0}
    46f0:	0000860e 	andeq	r8, r0, lr, lsl #12
    46f4:	6b040700 	blvs	1062fc <__bss_end__+0xfc584>
    46f8:	04000000 	streq	r0, [r0], #-0
    46fc:	00000025 	andeq	r0, r0, r5, lsr #32
    4700:	0000009b 	muleq	r0, fp, r0
    4704:	00009b05 	andeq	r9, r0, r5, lsl #22
    4708:	04070000 	streq	r0, [r7], #-0
    470c:	000000a8 	andeq	r0, r0, r8, lsr #1
    4710:	19080103 	stmdbne	r8, {r0, r1, r8}
    4714:	08000001 	stmdaeq	r0, {r0}
    4718:	000000a1 	andeq	r0, r0, r1, lsr #1
    471c:	00045f06 	andeq	r5, r4, r6, lsl #30
    4720:	0e210200 	cdpeq	2, 2, cr0, cr1, cr0, {0}
    4724:	000000b9 	strheq	r0, [r0], -r9
    4728:	008c0407 	addeq	r0, ip, r7, lsl #8
    472c:	0f090000 	svceq	0x00090000
    4730:	01000005 	tsteq	r0, r5
    4734:	010c0703 	tsteq	ip, r3, lsl #14
    4738:	95440000 	strbls	r0, [r4, #-0]
    473c:	00200000 	eoreq	r0, r0, r0
    4740:	9c010000 	stcls	0, cr0, [r1], {-0}
    4744:	0000010c 	andeq	r0, r0, ip, lsl #2
    4748:	0031730a 	eorseq	r7, r1, sl, lsl #6
    474c:	0c150301 	ldceq	3, cr0, [r5], {1}
    4750:	01000001 	tsteq	r0, r1
    4754:	32730b50 	rsbscc	r0, r3, #80, 22	; 0x14000
    4758:	26030100 	strcs	r0, [r3], -r0, lsl #2
    475c:	0000009b 	muleq	r0, fp, r0
    4760:	00002456 	andeq	r2, r0, r6, asr r4
    4764:	00002450 	andeq	r2, r0, r0, asr r4
    4768:	0100730c 	tsteq	r0, ip, lsl #6
    476c:	010c1404 	tsteq	ip, r4, lsl #8
    4770:	24870000 	strcs	r0, [r7], #0
    4774:	24810000 	strcs	r0, [r1], #0
    4778:	07000000 	streq	r0, [r0, -r0]
    477c:	0000a104 	andeq	sl, r0, r4, lsl #2
    4780:	014e0000 	mrseq	r0, (UNDEF: 78)
    4784:	00040000 	andeq	r0, r4, r0
    4788:	000017da 	ldrdeq	r1, [r0], -sl
    478c:	02f10104 	rscseq	r0, r1, #1
    4790:	120c0000 	andne	r0, ip, #0, 0
    4794:	c200000b 	andgt	r0, r0, #11, 0
    4798:	98000003 	stmdals	r0, {r0, r1}
    479c:	00000004 	andeq	r0, r0, r4
    47a0:	38000000 	stmdacc	r0, {}	; <UNPREDICTABLE>
    47a4:	02000022 	andeq	r0, r0, #34, 0	; 0x22
    47a8:	6e690504 	cdpvs	5, 6, cr0, cr9, cr4, {0}
    47ac:	bb030074 	bllt	c4984 <__bss_end__+0xbac0c>
    47b0:	03000003 	movweq	r0, #3
    47b4:	003817d1 	ldrsbteq	r1, [r8], -r1
    47b8:	04040000 	streq	r0, [r4], #-0
    47bc:	00013207 	andeq	r3, r1, r7, lsl #4
    47c0:	06010400 	streq	r0, [r1], -r0, lsl #8
    47c4:	00000112 	andeq	r0, r0, r2, lsl r1
    47c8:	10050204 	andne	r0, r5, r4, lsl #4
    47cc:	04000000 	streq	r0, [r0], #-0
    47d0:	00c30504 	sbceq	r0, r3, r4, lsl #10
    47d4:	08040000 	stmdaeq	r4, {}	; <UNPREDICTABLE>
    47d8:	0000be05 	andeq	fp, r0, r5, lsl #28
    47dc:	08010400 	stmdaeq	r1, {sl}
    47e0:	00000110 	andeq	r0, r0, r0, lsl r1
    47e4:	00005b05 	andeq	r5, r0, r5, lsl #22
    47e8:	07020400 	streq	r0, [r2, -r0, lsl #8]
    47ec:	00000147 	andeq	r0, r0, r7, asr #2
    47f0:	2d070404 	cfstrscs	mvf0, [r7, #-16]
    47f4:	04000001 	streq	r0, [r0], #-1
    47f8:	01280708 			; <UNDEFINED> instruction: 0x01280708
    47fc:	25060000 	strcs	r0, [r6, #-0]
    4800:	8b000000 	blhi	4808 <__code_start__-0x37f8>
    4804:	07000000 	streq	r0, [r0, -r0]
    4808:	00000025 	andeq	r0, r0, r5, lsr #32
    480c:	001f0800 	andseq	r0, pc, r0, lsl #16
    4810:	1c020000 	stcne	0, cr0, [r2], {-0}
    4814:	0000970e 	andeq	r9, r0, lr, lsl #14
    4818:	7c040900 			; <UNDEFINED> instruction: 0x7c040900
    481c:	06000000 	streq	r0, [r0], -r0
    4820:	00000025 	andeq	r0, r0, r5, lsr #32
    4824:	000000ac 	andeq	r0, r0, ip, lsr #1
    4828:	0000ac07 	andeq	sl, r0, r7, lsl #24
    482c:	04090000 	streq	r0, [r9], #-0
    4830:	000000b9 	strheq	r0, [r0], -r9
    4834:	19080104 	stmdbne	r8, {r2, r8}
    4838:	05000001 	streq	r0, [r0, #-1]
    483c:	000000b2 	strheq	r0, [r0], -r2
    4840:	00045f08 	andeq	r5, r4, r8, lsl #30
    4844:	0e210200 	cdpeq	2, 2, cr0, cr1, cr0, {0}
    4848:	000000ca 	andeq	r0, r0, sl, asr #1
    484c:	009d0409 	addseq	r0, sp, r9, lsl #8
    4850:	6d0a0000 	stcvs	0, cr0, [sl, #-0]
    4854:	01000005 	tsteq	r0, r5
    4858:	00250504 	eoreq	r0, r5, r4, lsl #10
    485c:	95640000 	strbls	r0, [r4, #-0]!
    4860:	002c0000 	eoreq	r0, ip, r0
    4864:	9c010000 	stcls	0, cr0, [r1], {-0}
    4868:	0000014b 	andeq	r0, r0, fp, asr #2
    486c:	31735f0b 	cmncc	r3, fp, lsl #30
    4870:	19040100 	stmdbne	r4, {r8}
    4874:	000000ac 	andeq	r0, r0, ip, lsr #1
    4878:	000024b6 			; <UNDEFINED> instruction: 0x000024b6
    487c:	000024b2 			; <UNDEFINED> instruction: 0x000024b2
    4880:	32735f0b 	rsbscc	r5, r3, #11, 30	; 0x2c
    4884:	2a040100 	bcs	104c8c <__bss_end__+0xfaf14>
    4888:	000000ac 	andeq	r0, r0, ip, lsr #1
    488c:	000024db 	ldrdeq	r2, [r0], -fp
    4890:	000024d7 	ldrdeq	r2, [r0], -r7
    4894:	01006e0b 	tsteq	r0, fp, lsl #28
    4898:	002c3604 	eoreq	r3, ip, r4, lsl #12
    489c:	25020000 	strcs	r0, [r2, #-0]
    48a0:	24fc0000 	ldrbtcs	r0, [ip], #0
    48a4:	730c0000 	movwvc	r0, #49152	; 0xc000
    48a8:	05010031 	streq	r0, [r1, #-49]	; 0xffffffcf
    48ac:	00014b1a 	andeq	r4, r1, sl, lsl fp
    48b0:	00253500 	eoreq	r3, r5, r0, lsl #10
    48b4:	00252d00 	eoreq	r2, r5, r0, lsl #26
    48b8:	32730c00 	rsbscc	r0, r3, #0, 24
    48bc:	2c050100 	stfcss	f0, [r5], {-0}
    48c0:	0000014b 	andeq	r0, r0, fp, asr #2
    48c4:	00002571 	andeq	r2, r0, r1, ror r5
    48c8:	0000256b 	andeq	r2, r0, fp, ror #10
    48cc:	62040900 	andvs	r0, r4, #0, 18
    48d0:	00000000 	andeq	r0, r0, r0
    48d4:	000000ce 	andeq	r0, r0, lr, asr #1
    48d8:	188e0004 	stmne	lr, {r2}
    48dc:	01040000 	mrseq	r0, (UNDEF: 4)
    48e0:	000002f1 	strdeq	r0, [r0], -r1
    48e4:	000b230c 	andeq	r2, fp, ip, lsl #6
    48e8:	0003c200 	andeq	ip, r3, r0, lsl #4
    48ec:	00959000 	addseq	r9, r5, r0
    48f0:	00000400 	andeq	r0, r0, r0, lsl #8
    48f4:	00235c00 	eoreq	r5, r3, r0, lsl #24
    48f8:	05040200 	streq	r0, [r4, #-512]	; 0xfffffe00
    48fc:	00746e69 	rsbseq	r6, r4, r9, ror #28
    4900:	32070403 	andcc	r0, r7, #50331648	; 0x3000000
    4904:	03000001 	movweq	r0, #1
    4908:	01120601 	tsteq	r2, r1, lsl #12
    490c:	02030000 	andeq	r0, r3, #0, 0
    4910:	00001005 	andeq	r1, r0, r5
    4914:	05040300 	streq	r0, [r4, #-768]	; 0xfffffd00
    4918:	000000c3 	andeq	r0, r0, r3, asr #1
    491c:	be050803 	cdplt	8, 0, cr0, cr5, cr3, {0}
    4920:	03000000 	movweq	r0, #0
    4924:	01100801 	tsteq	r0, r1, lsl #16
    4928:	02030000 	andeq	r0, r3, #0, 0
    492c:	00014707 	andeq	r4, r1, r7, lsl #14
    4930:	07040300 	streq	r0, [r4, -r0, lsl #6]
    4934:	0000012d 	andeq	r0, r0, sp, lsr #2
    4938:	28070803 	stmdacs	r7, {r0, r1, fp}
    493c:	04000001 	streq	r0, [r0], #-1
    4940:	00000025 	andeq	r0, r0, r5, lsr #32
    4944:	0000007a 	andeq	r0, r0, sl, ror r0
    4948:	00002505 	andeq	r2, r0, r5, lsl #10
    494c:	1f060000 	svcne	0x00060000
    4950:	02000000 	andeq	r0, r0, #0, 0
    4954:	00860e1c 	addeq	r0, r6, ip, lsl lr
    4958:	04070000 	streq	r0, [r7], #-0
    495c:	0000006b 	andeq	r0, r0, fp, rrx
    4960:	00002504 	andeq	r2, r0, r4, lsl #10
    4964:	00009b00 	andeq	r9, r0, r0, lsl #22
    4968:	009b0500 	addseq	r0, fp, r0, lsl #10
    496c:	07000000 	streq	r0, [r0, -r0]
    4970:	0000a804 	andeq	sl, r0, r4, lsl #16
    4974:	08010300 	stmdaeq	r1, {r8, r9}
    4978:	00000119 	andeq	r0, r0, r9, lsl r1
    497c:	0000a108 	andeq	sl, r0, r8, lsl #2
    4980:	045f0600 	ldrbeq	r0, [pc], #-1536	; 4988 <__code_start__-0x3678>
    4984:	21020000 	mrscs	r0, (UNDEF: 2)
    4988:	0000b90e 	andeq	fp, r0, lr, lsl #18
    498c:	8c040700 	stchi	7, cr0, [r4], {-0}
    4990:	09000000 	stmdbeq	r0, {}	; <UNPREDICTABLE>
    4994:	00000632 	andeq	r0, r0, r2, lsr r6
    4998:	90060301 	andls	r0, r6, r1, lsl #6
    499c:	04000095 	streq	r0, [r0], #-149	; 0xffffff6b
    49a0:	01000000 	mrseq	r0, (UNDEF: 0)
    49a4:	Address 0x00000000000049a4 is out of bounds.


Disassembly of section .debug_abbrev:

00000000 <.debug_abbrev>:
       0:	25011101 	strcs	r1, [r1, #-257]	; 0xfffffeff
       4:	030b130e 	movweq	r1, #45838	; 0xb30e
       8:	110e1b0e 	tstne	lr, lr, lsl #22
       c:	10061201 	andne	r1, r6, r1, lsl #4
      10:	02000017 	andeq	r0, r0, #23, 0
      14:	0b0b0024 	bleq	2c00ac <__bss_end__+0x2b6334>
      18:	08030b3e 	stmdaeq	r3, {r1, r2, r3, r4, r5, r8, r9, fp}
      1c:	24030000 	strcs	r0, [r3], #-0
      20:	3e0b0b00 	vmlacc.f64	d0, d11, d0
      24:	000e030b 	andeq	r0, lr, fp, lsl #6
      28:	00260400 	eoreq	r0, r6, r0, lsl #8
      2c:	00001349 	andeq	r1, r0, r9, asr #6
      30:	03001605 	movweq	r1, #1541	; 0x605
      34:	3b0b3a0e 	blcc	2ce874 <__bss_end__+0x2c4afc>
      38:	490b390b 	stmdbmi	fp, {r0, r1, r3, r8, fp, ip, sp}
      3c:	06000013 			; <UNDEFINED> instruction: 0x06000013
      40:	19270115 	stmdbne	r7!, {r0, r2, r4, r8}
      44:	13011349 	movwne	r1, #4937	; 0x1349
      48:	05070000 	streq	r0, [r7, #-0]
      4c:	00134900 	andseq	r4, r3, r0, lsl #18
      50:	00340800 	eorseq	r0, r4, r0, lsl #16
      54:	0b3a0e03 	bleq	e83868 <__bss_end__+0xe79af0>
      58:	0b390b3b 	bleq	e42d4c <__bss_end__+0xe38fd4>
      5c:	193f1349 	ldmdbne	pc!, {r0, r3, r6, r8, r9, ip}	; <UNPREDICTABLE>
      60:	0000193c 	andeq	r1, r0, ip, lsr r9
      64:	0b000f09 	bleq	3c90 <__code_start__-0x4370>
      68:	0013490b 	andseq	r4, r3, fp, lsl #18
      6c:	01040a00 	tsteq	r4, r0, lsl #20
      70:	0b0b0b3e 	bleq	2c2d70 <__bss_end__+0x2b8ff8>
      74:	0b3a1349 	bleq	e84da0 <__bss_end__+0xe7b028>
      78:	0b390b3b 	bleq	e42d6c <__bss_end__+0xe38ff4>
      7c:	00001301 	andeq	r1, r0, r1, lsl #6
      80:	0300280b 	movweq	r2, #2059	; 0x80b
      84:	00051c08 	andeq	r1, r5, r8, lsl #24
      88:	00280c00 	eoreq	r0, r8, r0, lsl #24
      8c:	0b1c0803 	bleq	7020a0 <__bss_end__+0x6f8328>
      90:	280d0000 	stmdacs	sp, {}	; <UNPREDICTABLE>
      94:	1c0e0300 	stcne	3, cr0, [lr], {-0}
      98:	0e000005 	cdpeq	0, 0, cr0, cr0, cr5, {0}
      9c:	0e030034 	mcreq	0, 0, r0, cr3, cr4, {1}
      a0:	0b3b0b3a 	bleq	ec2d90 <__bss_end__+0xeb9018>
      a4:	13490b39 	movtne	r0, #39737	; 0x9b39
      a8:	00000b1c 	andeq	r0, r0, ip, lsl fp
      ac:	0300280f 	movweq	r2, #2063	; 0x80f
      b0:	000b1c0e 	andeq	r1, fp, lr, lsl #24
      b4:	012e1000 			; <UNDEFINED> instruction: 0x012e1000
      b8:	0e03193f 			; <UNDEFINED> instruction: 0x0e03193f
      bc:	0b3b0b3a 	bleq	ec2dac <__bss_end__+0xeb9034>
      c0:	19270b39 	stmdbne	r7!, {r0, r3, r4, r5, r8, r9, fp}
      c4:	06120111 			; <UNDEFINED> instruction: 0x06120111
      c8:	42971840 	addsmi	r1, r7, #64, 16	; 0x400000
      cc:	00130119 	andseq	r0, r3, r9, lsl r1
      d0:	010b1100 	mrseq	r1, (UNDEF: 27)
      d4:	13011755 	movwne	r1, #5973	; 0x1755
      d8:	34120000 	ldrcc	r0, [r2], #-0
      dc:	3a080300 	bcc	200ce4 <__bss_end__+0x1f6f6c>
      e0:	390b3b0b 	stmdbcc	fp, {r0, r1, r3, r8, r9, fp, ip, sp}
      e4:	0213490b 	andseq	r4, r3, #180224	; 0x2c000
      e8:	1742b717 	smlaldne	fp, r2, r7, r7
      ec:	1d130000 	ldcne	0, cr0, [r3, #-0]
      f0:	52133101 	andspl	r3, r3, #1073741824	; 0x40000000
      f4:	0b42b801 	bleq	10ae100 <__bss_end__+0x10a4388>
      f8:	0b581755 	bleq	1605e54 <__bss_end__+0x15fc0dc>
      fc:	0b570b59 	bleq	15c2e68 <__bss_end__+0x15b90f0>
     100:	00001301 	andeq	r1, r0, r1, lsl #6
     104:	31000514 	tstcc	r0, r4, lsl r5
     108:	b7170213 			; <UNDEFINED> instruction: 0xb7170213
     10c:	00001742 	andeq	r1, r0, r2, asr #14
     110:	01828915 	orreq	r8, r2, r5, lsl r9
     114:	31011101 	tstcc	r1, r1, lsl #2
     118:	00130113 	andseq	r0, r3, r3, lsl r1
     11c:	828a1600 	addhi	r1, sl, #0, 12
     120:	18020001 	stmdane	r2, {r0}
     124:	00184291 	mulseq	r8, r1, r2
     128:	82891700 	addhi	r1, r9, #0, 14
     12c:	01110101 	tsteq	r1, r1, lsl #2
     130:	00001331 	andeq	r1, r0, r1, lsr r3
     134:	31011d18 	tstcc	r1, r8, lsl sp
     138:	b8015213 	stmdalt	r1, {r0, r1, r4, r9, ip, lr}
     13c:	17550b42 	ldrbne	r0, [r5, -r2, asr #22]
     140:	0b590b58 	bleq	1642ea8 <__bss_end__+0x1639130>
     144:	00000b57 	andeq	r0, r0, r7, asr fp
     148:	55010b19 	strpl	r0, [r1, #-2841]	; 0xfffff4e7
     14c:	1a000017 	bne	1b0 <__code_start__-0x7e50>
     150:	13310034 	teqne	r1, #52, 0	; 0x34
     154:	42b71702 	adcsmi	r1, r7, #524288	; 0x80000
     158:	1b000017 	blne	1bc <__code_start__-0x7e44>
     15c:	1331011d 	teqne	r1, #1073741831	; 0x40000007
     160:	0b581755 	bleq	1605ebc <__bss_end__+0x15fc144>
     164:	0b570b59 	bleq	15c2ed0 <__bss_end__+0x15b9158>
     168:	00001301 	andeq	r1, r0, r1, lsl #6
     16c:	3100051c 	tstcc	r0, ip, lsl r5
     170:	1d000013 	stcne	0, cr0, [r0, #-76]	; 0xffffffb4
     174:	1331010b 	teqne	r1, #-1073741822	; 0xc0000002
     178:	06120111 			; <UNDEFINED> instruction: 0x06120111
     17c:	1d1e0000 	ldcne	0, cr0, [lr, #-0]
     180:	52133101 	andspl	r3, r3, #1073741824	; 0x40000000
     184:	0b42b801 	bleq	10ae190 <__bss_end__+0x10a4418>
     188:	06120111 			; <UNDEFINED> instruction: 0x06120111
     18c:	0b590b58 	bleq	1642ef4 <__bss_end__+0x163917c>
     190:	13010b57 	movwne	r0, #6999	; 0x1b57
     194:	1d1f0000 	ldcne	0, cr0, [pc, #-0]	; 19c <__code_start__-0x7e64>
     198:	52133101 	andspl	r3, r3, #1073741824	; 0x40000000
     19c:	0b42b801 	bleq	10ae1a8 <__bss_end__+0x10a4430>
     1a0:	06120111 			; <UNDEFINED> instruction: 0x06120111
     1a4:	0b590b58 	bleq	1642f0c <__bss_end__+0x1639194>
     1a8:	00000b57 	andeq	r0, r0, r7, asr fp
     1ac:	31010b20 	tstcc	r1, r0, lsr #22
     1b0:	12011113 	andne	r1, r1, #-1073741820	; 0xc0000004
     1b4:	00130106 	andseq	r0, r3, r6, lsl #2
     1b8:	011d2100 	tsteq	sp, r0, lsl #2
     1bc:	01111331 	tsteq	r1, r1, lsr r3
     1c0:	0b580612 	bleq	1601a10 <__bss_end__+0x15f7c98>
     1c4:	0b570b59 	bleq	15c2f30 <__bss_end__+0x15b91b8>
     1c8:	89220000 	stmdbhi	r2!, {}	; <UNPREDICTABLE>
     1cc:	11000182 	smlabbne	r0, r2, r1, r0
     1d0:	00133101 	andseq	r3, r3, r1, lsl #2
     1d4:	012e2300 			; <UNDEFINED> instruction: 0x012e2300
     1d8:	0b3a0e03 	bleq	e839ec <__bss_end__+0xe79c74>
     1dc:	0b390b3b 	bleq	e42ed0 <__bss_end__+0xe39158>
     1e0:	0b201927 	bleq	806684 <__bss_end__+0x7fc90c>
     1e4:	00001301 	andeq	r1, r0, r1, lsl #6
     1e8:	03000524 	movweq	r0, #1316	; 0x524
     1ec:	3b0b3a08 	blcc	2cea14 <__bss_end__+0x2c4c9c>
     1f0:	490b390b 	stmdbmi	fp, {r0, r1, r3, r8, fp, ip, sp}
     1f4:	25000013 	strcs	r0, [r0, #-19]	; 0xffffffed
     1f8:	0e03012e 	adfeqsp	f0, f3, #0.5
     1fc:	0b3b0b3a 	bleq	ec2eec <__bss_end__+0xeb9174>
     200:	19270b39 	stmdbne	r7!, {r0, r3, r4, r5, r8, r9, fp}
     204:	06120111 			; <UNDEFINED> instruction: 0x06120111
     208:	42971840 	addsmi	r1, r7, #64, 16	; 0x400000
     20c:	00130119 	andseq	r0, r3, r9, lsl r1
     210:	00052600 	andeq	r2, r5, r0, lsl #12
     214:	0b3a0803 	bleq	e82228 <__bss_end__+0xe784b0>
     218:	0b390b3b 	bleq	e42f0c <__bss_end__+0xe39194>
     21c:	17021349 	strne	r1, [r2, -r9, asr #6]
     220:	001742b7 			; <UNDEFINED> instruction: 0x001742b7
     224:	00052700 	andeq	r2, r5, r0, lsl #14
     228:	0b3a0803 	bleq	e8223c <__bss_end__+0xe784c4>
     22c:	0b390b3b 	bleq	e42f20 <__bss_end__+0xe391a8>
     230:	18021349 	stmdane	r2, {r0, r3, r6, r8, r9, ip}
     234:	1d280000 	stcne	0, cr0, [r8, #-0]
     238:	11133101 	tstne	r3, r1, lsl #2
     23c:	58061201 	stmdapl	r6, {r0, r9, ip}
     240:	570b590b 	strpl	r5, [fp, -fp, lsl #18]
     244:	0013010b 	andseq	r0, r3, fp, lsl #2
     248:	00052900 	andeq	r2, r5, r0, lsl #18
     24c:	0b1c1331 	bleq	704f18 <__bss_end__+0x6fb1a0>
     250:	342a0000 	strtcc	r0, [sl], #-0
     254:	490e0300 	stmdbmi	lr, {r8, r9}
     258:	00193413 	andseq	r3, r9, r3, lsl r4
     25c:	01012b00 	tsteq	r1, r0, lsl #22
     260:	13011349 	movwne	r1, #4937	; 0x1349
     264:	212c0000 			; <UNDEFINED> instruction: 0x212c0000
     268:	2f134900 	svccs	0x00134900
     26c:	2d00000b 	stccs	0, cr0, [r0, #-44]	; 0xffffffd4
     270:	0803012e 	stmdaeq	r3, {r1, r2, r3, r5, r8}
     274:	0b3b0b3a 	bleq	ec2f64 <__bss_end__+0xeb91ec>
     278:	19270b39 	stmdbne	r7!, {r0, r3, r4, r5, r8, r9, fp}
     27c:	13010b20 	movwne	r0, #6944	; 0x1b20
     280:	052e0000 	streq	r0, [lr, #-0]!
     284:	3a0e0300 	bcc	380e8c <__bss_end__+0x377114>
     288:	390b3b0b 	stmdbcc	fp, {r0, r1, r3, r8, r9, fp, ip, sp}
     28c:	0013490b 	andseq	r4, r3, fp, lsl #18
     290:	00342f00 	eorseq	r2, r4, r0, lsl #30
     294:	0b3a0e03 	bleq	e83aa8 <__bss_end__+0xe79d30>
     298:	0b390b3b 	bleq	e42f8c <__bss_end__+0xe39214>
     29c:	00001349 	andeq	r1, r0, r9, asr #6
     2a0:	00010b30 	andeq	r0, r1, r0, lsr fp
     2a4:	00343100 	eorseq	r3, r4, r0, lsl #2
     2a8:	0b3a0803 	bleq	e822bc <__bss_end__+0xe78544>
     2ac:	0b390b3b 	bleq	e42fa0 <__bss_end__+0xe39228>
     2b0:	00001349 	andeq	r1, r0, r9, asr #6
     2b4:	3f002e32 	svccc	0x00002e32
     2b8:	6e193c19 	mrcvs	12, 0, r3, cr9, cr9, {0}
     2bc:	3a0e030e 	bcc	380efc <__bss_end__+0x377184>
     2c0:	390b3b0b 	stmdbcc	fp, {r0, r1, r3, r8, r9, fp, ip, sp}
     2c4:	0000000b 	andeq	r0, r0, fp
     2c8:	25011101 	strcs	r1, [r1, #-257]	; 0xfffffeff
     2cc:	030b130e 	movweq	r1, #45838	; 0xb30e
     2d0:	110e1b0e 	tstne	lr, lr, lsl #22
     2d4:	10061201 	andne	r1, r6, r1, lsl #4
     2d8:	02000017 	andeq	r0, r0, #23, 0
     2dc:	0b0b0024 	bleq	2c0374 <__bss_end__+0x2b65fc>
     2e0:	08030b3e 	stmdaeq	r3, {r1, r2, r3, r4, r5, r8, r9, fp}
     2e4:	24030000 	strcs	r0, [r3], #-0
     2e8:	3e0b0b00 	vmlacc.f64	d0, d11, d0
     2ec:	000e030b 	andeq	r0, lr, fp, lsl #6
     2f0:	00260400 	eoreq	r0, r6, r0, lsl #8
     2f4:	00001349 	andeq	r1, r0, r9, asr #6
     2f8:	03001605 	movweq	r1, #1541	; 0x605
     2fc:	3b0b3a0e 	blcc	2ceb3c <__bss_end__+0x2c4dc4>
     300:	490b390b 	stmdbmi	fp, {r0, r1, r3, r8, fp, ip, sp}
     304:	06000013 			; <UNDEFINED> instruction: 0x06000013
     308:	19270115 	stmdbne	r7!, {r0, r2, r4, r8}
     30c:	13011349 	movwne	r1, #4937	; 0x1349
     310:	05070000 	streq	r0, [r7, #-0]
     314:	00134900 	andseq	r4, r3, r0, lsl #18
     318:	00340800 	eorseq	r0, r4, r0, lsl #16
     31c:	0b3a0e03 	bleq	e83b30 <__bss_end__+0xe79db8>
     320:	0b390b3b 	bleq	e43014 <__bss_end__+0xe3929c>
     324:	193f1349 	ldmdbne	pc!, {r0, r3, r6, r8, r9, ip}	; <UNPREDICTABLE>
     328:	0000193c 	andeq	r1, r0, ip, lsr r9
     32c:	0b000f09 	bleq	3f58 <__code_start__-0x40a8>
     330:	0013490b 	andseq	r4, r3, fp, lsl #18
     334:	01130a00 	tsteq	r3, r0, lsl #20
     338:	0b0b0e03 	bleq	2c3b4c <__bss_end__+0x2b9dd4>
     33c:	0b3b0b3a 	bleq	ec302c <__bss_end__+0xeb92b4>
     340:	13010b39 	movwne	r0, #6969	; 0x1b39
     344:	0d0b0000 	stceq	0, cr0, [fp, #-0]
     348:	3a080300 	bcc	200f50 <__bss_end__+0x1f71d8>
     34c:	390b3b0b 	stmdbcc	fp, {r0, r1, r3, r8, r9, fp, ip, sp}
     350:	3813490b 	ldmdacc	r3, {r0, r1, r3, r8, fp, lr}
     354:	0c00000b 	stceq	0, cr0, [r0], {11}
     358:	0e03000d 	cdpeq	0, 0, cr0, cr3, cr13, {0}
     35c:	0b3b0b3a 	bleq	ec304c <__bss_end__+0xeb92d4>
     360:	13490b39 	movtne	r0, #39737	; 0x9b39
     364:	00000b38 	andeq	r0, r0, r8, lsr fp
     368:	3e01040d 	cdpcc	4, 0, cr0, cr1, cr13, {0}
     36c:	490b0b0b 	stmdbmi	fp, {r0, r1, r3, r8, r9, fp}
     370:	3b0b3a13 	blcc	2cebc4 <__bss_end__+0x2c4e4c>
     374:	010b390b 	tsteq	fp, fp, lsl #18
     378:	0e000013 	mcreq	0, 0, r0, cr0, cr3, {0}
     37c:	08030028 	stmdaeq	r3, {r3, r5}
     380:	0000051c 	andeq	r0, r0, ip, lsl r5
     384:	0300280f 	movweq	r2, #2063	; 0x80f
     388:	000b1c08 	andeq	r1, fp, r8, lsl #24
     38c:	00281000 	eoreq	r1, r8, r0
     390:	051c0e03 	ldreq	r0, [ip, #-3587]	; 0xfffff1fd
     394:	34110000 	ldrcc	r0, [r1], #-0
     398:	3a0e0300 	bcc	380fa0 <__bss_end__+0x377228>
     39c:	390b3b0b 	stmdbcc	fp, {r0, r1, r3, r8, r9, fp, ip, sp}
     3a0:	1c13490b 			; <UNDEFINED> instruction: 0x1c13490b
     3a4:	1200000b 	andne	r0, r0, #11, 0
     3a8:	13490101 	movtne	r0, #37121	; 0x9101
     3ac:	00001301 	andeq	r1, r0, r1, lsl #6
     3b0:	49002113 	stmdbmi	r0, {r0, r1, r4, r8, sp}
     3b4:	14000013 	strne	r0, [r0], #-19	; 0xffffffed
     3b8:	193f012e 	ldmdbne	pc!, {r1, r2, r3, r5, r8}	; <UNPREDICTABLE>
     3bc:	0b3a0e03 	bleq	e83bd0 <__bss_end__+0xe79e58>
     3c0:	0b390b3b 	bleq	e430b4 <__bss_end__+0xe3933c>
     3c4:	01111927 	tsteq	r1, r7, lsr #18
     3c8:	18400612 	stmdane	r0, {r1, r4, r9, sl}^
     3cc:	01194297 			; <UNDEFINED> instruction: 0x01194297
     3d0:	15000013 	strne	r0, [r0, #-19]	; 0xffffffed
     3d4:	08030005 	stmdaeq	r3, {r0, r2}
     3d8:	0b3b0b3a 	bleq	ec30c8 <__bss_end__+0xeb9350>
     3dc:	13490b39 	movtne	r0, #39737	; 0x9b39
     3e0:	42b71702 	adcsmi	r1, r7, #524288	; 0x80000
     3e4:	16000017 			; <UNDEFINED> instruction: 0x16000017
     3e8:	08030005 	stmdaeq	r3, {r0, r2}
     3ec:	0b3b0b3a 	bleq	ec30dc <__bss_end__+0xeb9364>
     3f0:	13490b39 	movtne	r0, #39737	; 0x9b39
     3f4:	00001802 	andeq	r1, r0, r2, lsl #16
     3f8:	01828917 	orreq	r8, r2, r7, lsl r9
     3fc:	31011101 	tstcc	r1, r1, lsl #2
     400:	18000013 	stmdane	r0, {r0, r1, r4}
     404:	0001828a 	andeq	r8, r1, sl, lsl #5
     408:	42911802 	addsmi	r1, r1, #131072	; 0x20000
     40c:	19000018 	stmdbne	r0, {r3, r4}
     410:	0111010b 	tsteq	r1, fp, lsl #2
     414:	13010612 	movwne	r0, #5650	; 0x1612
     418:	341a0000 	ldrcc	r0, [sl], #-0
     41c:	3a080300 	bcc	201024 <__bss_end__+0x1f72ac>
     420:	390b3b0b 	stmdbcc	fp, {r0, r1, r3, r8, r9, fp, ip, sp}
     424:	0213490b 	andseq	r4, r3, #180224	; 0x2c000
     428:	1742b717 	smlaldne	fp, r2, r7, r7
     42c:	1d1b0000 	ldcne	0, cr0, [fp, #-0]
     430:	52133101 	andspl	r3, r3, #1073741824	; 0x40000000
     434:	0b42b801 	bleq	10ae440 <__bss_end__+0x10a46c8>
     438:	0b581755 	bleq	1606194 <__bss_end__+0x15fc41c>
     43c:	0b570b59 	bleq	15c31a8 <__bss_end__+0x15b9430>
     440:	051c0000 	ldreq	r0, [ip, #-0]
     444:	02133100 	andseq	r3, r3, #0
     448:	1742b717 	smlaldne	fp, r2, r7, r7
     44c:	891d0000 	ldmdbhi	sp, {}	; <UNPREDICTABLE>
     450:	11010182 	smlabbne	r1, r2, r1, r0
     454:	01133101 	tsteq	r3, r1, lsl #2
     458:	1e000013 	mcrne	0, 0, r0, cr0, cr3, {0}
     45c:	1331011d 	teqne	r1, #1073741831	; 0x40000007
     460:	42b80152 	adcsmi	r0, r8, #-2147483628	; 0x80000014
     464:	1201110b 	andne	r1, r1, #-1073741822	; 0xc0000002
     468:	590b5806 	stmdbpl	fp, {r1, r2, fp, ip, lr}
     46c:	000b570b 	andeq	r5, fp, fp, lsl #14
     470:	012e1f00 			; <UNDEFINED> instruction: 0x012e1f00
     474:	0e03193f 			; <UNDEFINED> instruction: 0x0e03193f
     478:	0b3b0b3a 	bleq	ec3168 <__bss_end__+0xeb93f0>
     47c:	19270b39 	stmdbne	r7!, {r0, r3, r4, r5, r8, r9, fp}
     480:	01111349 	tsteq	r1, r9, asr #6
     484:	18400612 	stmdane	r0, {r1, r4, r9, sl}^
     488:	01194297 			; <UNDEFINED> instruction: 0x01194297
     48c:	20000013 	andcs	r0, r0, r3, lsl r0
     490:	0e030005 	cdpeq	0, 0, cr0, cr3, cr5, {0}
     494:	0b3b0b3a 	bleq	ec3184 <__bss_end__+0xeb940c>
     498:	13490b39 	movtne	r0, #39737	; 0x9b39
     49c:	42b71702 	adcsmi	r1, r7, #524288	; 0x80000
     4a0:	21000017 	tstcs	r0, r7, lsl r0
     4a4:	0e030034 	mcreq	0, 0, r0, cr3, cr4, {1}
     4a8:	0b3b0b3a 	bleq	ec3198 <__bss_end__+0xeb9420>
     4ac:	13490b39 	movtne	r0, #39737	; 0x9b39
     4b0:	42b71702 	adcsmi	r1, r7, #524288	; 0x80000
     4b4:	22000017 	andcs	r0, r0, #23, 0
     4b8:	1755010b 	ldrbne	r0, [r5, -fp, lsl #2]
     4bc:	34230000 	strtcc	r0, [r3], #-0
     4c0:	02133100 	andseq	r3, r3, #0
     4c4:	1742b717 	smlaldne	fp, r2, r7, r7
     4c8:	0b240000 	bleq	9004d0 <__bss_end__+0x8f6758>
     4cc:	11133101 	tstne	r3, r1, lsl #2
     4d0:	01061201 	tsteq	r6, r1, lsl #4
     4d4:	25000013 	strcs	r0, [r0, #-19]	; 0xffffffed
     4d8:	1331011d 	teqne	r1, #1073741831	; 0x40000007
     4dc:	42b80152 	adcsmi	r0, r8, #-2147483628	; 0x80000014
     4e0:	5817550b 	ldmdapl	r7, {r0, r1, r3, r8, sl, ip, lr}
     4e4:	570b590b 	strpl	r5, [fp, -fp, lsl #18]
     4e8:	0013010b 	andseq	r0, r3, fp, lsl #2
     4ec:	011d2600 	tsteq	sp, r0, lsl #12
     4f0:	01111331 	tsteq	r1, r1, lsr r3
     4f4:	0b580612 	bleq	1601d44 <__bss_end__+0x15f7fcc>
     4f8:	0b570b59 	bleq	15c3264 <__bss_end__+0x15b94ec>
     4fc:	05270000 	streq	r0, [r7, #-0]!
     500:	00133100 	andseq	r3, r3, r0, lsl #2
     504:	010b2800 	tsteq	fp, r0, lsl #16
     508:	01111331 	tsteq	r1, r1, lsr r3
     50c:	00000612 	andeq	r0, r0, r2, lsl r6
     510:	03012e29 	movweq	r2, #7721	; 0x1e29
     514:	3b0b3a0e 	blcc	2ced54 <__bss_end__+0x2c4fdc>
     518:	270b390b 	strcs	r3, [fp, -fp, lsl #18]
     51c:	010b2019 	tsteq	fp, r9, lsl r0
     520:	2a000013 	bcs	574 <__code_start__-0x7a8c>
     524:	08030005 	stmdaeq	r3, {r0, r2}
     528:	0b3b0b3a 	bleq	ec3218 <__bss_end__+0xeb94a0>
     52c:	13490b39 	movtne	r0, #39737	; 0x9b39
     530:	2e2b0000 	cdpcs	0, 2, cr0, cr11, cr0, {0}
     534:	3a0e0301 	bcc	381140 <__bss_end__+0x3773c8>
     538:	390b3b0b 	stmdbcc	fp, {r0, r1, r3, r8, r9, fp, ip, sp}
     53c:	1119270b 	tstne	r9, fp, lsl #14
     540:	40061201 	andmi	r1, r6, r1, lsl #4
     544:	19429718 	stmdbne	r2, {r3, r4, r8, r9, sl, ip, pc}^
     548:	00001301 	andeq	r1, r0, r1, lsl #6
     54c:	31011d2c 	tstcc	r1, ip, lsr #26
     550:	58175513 	ldmdapl	r7, {r0, r1, r4, r8, sl, ip, lr}
     554:	570b590b 	strpl	r5, [fp, -fp, lsl #18]
     558:	0013010b 	andseq	r0, r3, fp, lsl #2
     55c:	011d2d00 	tsteq	sp, r0, lsl #26
     560:	01111331 	tsteq	r1, r1, lsr r3
     564:	0b580612 	bleq	1601db4 <__bss_end__+0x15f803c>
     568:	0b570b59 	bleq	15c32d4 <__bss_end__+0x15b955c>
     56c:	00001301 	andeq	r1, r0, r1, lsl #6
     570:	31011d2e 	tstcc	r1, lr, lsr #26
     574:	b8015213 	stmdalt	r1, {r0, r1, r4, r9, ip, lr}
     578:	01110b42 	tsteq	r1, r2, asr #22
     57c:	0b580612 	bleq	1601dcc <__bss_end__+0x15f8054>
     580:	0b570b59 	bleq	15c32ec <__bss_end__+0x15b9574>
     584:	00001301 	andeq	r1, r0, r1, lsl #6
     588:	3100052f 	tstcc	r0, pc, lsr #10
     58c:	000b1c13 	andeq	r1, fp, r3, lsl ip
     590:	00343000 	eorseq	r3, r4, r0
     594:	13490e03 	movtne	r0, #40451	; 0x9e03
     598:	00001934 	andeq	r1, r0, r4, lsr r9
     59c:	49002131 	stmdbmi	r0, {r0, r4, r5, r8, sp}
     5a0:	000b2f13 	andeq	r2, fp, r3, lsl pc
     5a4:	012e3200 			; <UNDEFINED> instruction: 0x012e3200
     5a8:	0b3a0803 	bleq	e825bc <__bss_end__+0xe78844>
     5ac:	0b390b3b 	bleq	e432a0 <__bss_end__+0xe39528>
     5b0:	0b201927 	bleq	806a54 <__bss_end__+0x7fccdc>
     5b4:	00001301 	andeq	r1, r0, r1, lsl #6
     5b8:	03000533 	movweq	r0, #1331	; 0x533
     5bc:	3b0b3a0e 	blcc	2cedfc <__bss_end__+0x2c5084>
     5c0:	490b390b 	stmdbmi	fp, {r0, r1, r3, r8, fp, ip, sp}
     5c4:	34000013 	strcc	r0, [r0], #-19	; 0xffffffed
     5c8:	0e030034 	mcreq	0, 0, r0, cr3, cr4, {1}
     5cc:	0b3b0b3a 	bleq	ec32bc <__bss_end__+0xeb9544>
     5d0:	13490b39 	movtne	r0, #39737	; 0x9b39
     5d4:	0b350000 	bleq	d405dc <__bss_end__+0xd36864>
     5d8:	36000001 	strcc	r0, [r0], -r1
     5dc:	08030034 	stmdaeq	r3, {r2, r4, r5}
     5e0:	0b3b0b3a 	bleq	ec32d0 <__bss_end__+0xeb9558>
     5e4:	13490b39 	movtne	r0, #39737	; 0x9b39
     5e8:	2e370000 	cdpcs	0, 3, cr0, cr7, cr0, {0}
     5ec:	3c193f00 	ldccc	15, cr3, [r9], {-0}
     5f0:	030e6e19 	movweq	r6, #60953	; 0xee19
     5f4:	3b0b3a0e 	blcc	2cee34 <__bss_end__+0x2c50bc>
     5f8:	000b390b 	andeq	r3, fp, fp, lsl #18
     5fc:	11010000 	mrsne	r0, (UNDEF: 1)
     600:	130e2501 	movwne	r2, #58625	; 0xe501
     604:	1b0e030b 	blne	381238 <__bss_end__+0x3774c0>
     608:	1201110e 	andne	r1, r1, #-2147483645	; 0x80000003
     60c:	00171006 	andseq	r1, r7, r6
     610:	00240200 	eoreq	r0, r4, r0, lsl #4
     614:	0b3e0b0b 	bleq	f83248 <__bss_end__+0xf794d0>
     618:	00000803 	andeq	r0, r0, r3, lsl #16
     61c:	03001603 	movweq	r1, #1539	; 0x603
     620:	3b0b3a0e 	blcc	2cee60 <__bss_end__+0x2c50e8>
     624:	490b390b 	stmdbmi	fp, {r0, r1, r3, r8, fp, ip, sp}
     628:	04000013 	streq	r0, [r0], #-19	; 0xffffffed
     62c:	0b0b0024 	bleq	2c06c4 <__bss_end__+0x2b694c>
     630:	0e030b3e 	vmoveq.16	d3[0], r0
     634:	15050000 	strne	r0, [r5, #-0]
     638:	49192701 	ldmdbmi	r9, {r0, r8, r9, sl, sp}
     63c:	00130113 	andseq	r0, r3, r3, lsl r1
     640:	00050600 	andeq	r0, r5, r0, lsl #12
     644:	00001349 	andeq	r1, r0, r9, asr #6
     648:	03003407 	movweq	r3, #1031	; 0x407
     64c:	3b0b3a0e 	blcc	2cee8c <__bss_end__+0x2c5114>
     650:	490b390b 	stmdbmi	fp, {r0, r1, r3, r8, fp, ip, sp}
     654:	3c193f13 	ldccc	15, cr3, [r9], {19}
     658:	08000019 	stmdaeq	r0, {r0, r3, r4}
     65c:	0b0b000f 	bleq	2c06a0 <__bss_end__+0x2b6928>
     660:	00001349 	andeq	r1, r0, r9, asr #6
     664:	49002609 	stmdbmi	r0, {r0, r3, r9, sl, sp}
     668:	0a000013 	beq	6bc <__code_start__-0x7944>
     66c:	193f012e 	ldmdbne	pc!, {r1, r2, r3, r5, r8}	; <UNPREDICTABLE>
     670:	0b3a0e03 	bleq	e83e84 <__bss_end__+0xe7a10c>
     674:	0b390b3b 	bleq	e43368 <__bss_end__+0xe395f0>
     678:	13491927 	movtne	r1, #39207	; 0x9927
     67c:	06120111 			; <UNDEFINED> instruction: 0x06120111
     680:	42971840 	addsmi	r1, r7, #64, 16	; 0x400000
     684:	00130119 	andseq	r0, r3, r9, lsl r1
     688:	00050b00 	andeq	r0, r5, r0, lsl #22
     68c:	0b3a0803 	bleq	e826a0 <__bss_end__+0xe78928>
     690:	0b390b3b 	bleq	e43384 <__bss_end__+0xe3960c>
     694:	18021349 	stmdane	r2, {r0, r3, r6, r8, r9, ip}
     698:	050c0000 	streq	r0, [ip, #-0]
     69c:	3a080300 	bcc	2012a4 <__bss_end__+0x1f752c>
     6a0:	390b3b0b 	stmdbcc	fp, {r0, r1, r3, r8, r9, fp, ip, sp}
     6a4:	0213490b 	andseq	r4, r3, #180224	; 0x2c000
     6a8:	1742b717 	smlaldne	fp, r2, r7, r7
     6ac:	340d0000 	strcc	r0, [sp], #-0
     6b0:	3a080300 	bcc	2012b8 <__bss_end__+0x1f7540>
     6b4:	390b3b0b 	stmdbcc	fp, {r0, r1, r3, r8, r9, fp, ip, sp}
     6b8:	0213490b 	andseq	r4, r3, #180224	; 0x2c000
     6bc:	1742b717 	smlaldne	fp, r2, r7, r7
     6c0:	0f0e0000 	svceq	0x000e0000
     6c4:	000b0b00 	andeq	r0, fp, r0, lsl #22
     6c8:	11010000 	mrsne	r0, (UNDEF: 1)
     6cc:	130e2501 	movwne	r2, #58625	; 0xe501
     6d0:	1b0e030b 	blne	381304 <__bss_end__+0x37758c>
     6d4:	1201110e 	andne	r1, r1, #-2147483645	; 0x80000003
     6d8:	00171006 	andseq	r1, r7, r6
     6dc:	00160200 	andseq	r0, r6, r0, lsl #4
     6e0:	0b3a0e03 	bleq	e83ef4 <__bss_end__+0xe7a17c>
     6e4:	0b390b3b 	bleq	e433d8 <__bss_end__+0xe39660>
     6e8:	00001349 	andeq	r1, r0, r9, asr #6
     6ec:	03011303 	movweq	r1, #4867	; 0x1303
     6f0:	3a0b0b0e 	bcc	2c3330 <__bss_end__+0x2b95b8>
     6f4:	010b3b0b 	tsteq	fp, fp, lsl #22
     6f8:	04000013 	streq	r0, [r0], #-19	; 0xffffffed
     6fc:	0e03000d 	cdpeq	0, 0, cr0, cr3, cr13, {0}
     700:	0b381349 	bleq	e0542c <__bss_end__+0xdfb6b4>
     704:	00001934 	andeq	r1, r0, r4, lsr r9
     708:	0b000f05 	bleq	4324 <__code_start__-0x3cdc>
     70c:	0600000b 	streq	r0, [r0], -fp
     710:	0b0b0024 	bleq	2c07a8 <__bss_end__+0x2b6a30>
     714:	08030b3e 	stmdaeq	r3, {r1, r2, r3, r4, r5, r8, r9, fp}
     718:	24070000 	strcs	r0, [r7], #-0
     71c:	3e0b0b00 	vmlacc.f64	d0, d11, d0
     720:	000e030b 	andeq	r0, lr, fp, lsl #6
     724:	01150800 	tsteq	r5, r0, lsl #16
     728:	13491927 	movtne	r1, #39207	; 0x9927
     72c:	00001301 	andeq	r1, r0, r1, lsl #6
     730:	49000509 	stmdbmi	r0, {r0, r3, r8, sl}
     734:	0a000013 	beq	788 <__code_start__-0x7878>
     738:	0e030034 	mcreq	0, 0, r0, cr3, cr4, {1}
     73c:	0b3b0b3a 	bleq	ec342c <__bss_end__+0xeb96b4>
     740:	13490b39 	movtne	r0, #39737	; 0x9b39
     744:	193c193f 	ldmdbne	ip!, {r0, r1, r2, r3, r4, r5, r8, fp, ip}
     748:	0f0b0000 	svceq	0x000b0000
     74c:	490b0b00 	stmdbmi	fp, {r8, r9, fp}
     750:	0c000013 	stceq	0, cr0, [r0], {19}
     754:	13490026 	movtne	r0, #36902	; 0x9026
     758:	2e0d0000 	cdpcs	0, 0, cr0, cr13, cr0, {0}
     75c:	03193f01 	tsteq	r9, #1, 30
     760:	3b0b3a0e 	blcc	2cefa0 <__bss_end__+0x2c5228>
     764:	270b390b 	strcs	r3, [fp, -fp, lsl #18]
     768:	11134919 	tstne	r3, r9, lsl r9
     76c:	40061201 	andmi	r1, r6, r1, lsl #4
     770:	19429718 	stmdbne	r2, {r3, r4, r8, r9, sl, ip, pc}^
     774:	00001301 	andeq	r1, r0, r1, lsl #6
     778:	0300050e 	movweq	r0, #1294	; 0x50e
     77c:	3b0b3a08 	blcc	2cefa4 <__bss_end__+0x2c522c>
     780:	490b390b 	stmdbmi	fp, {r0, r1, r3, r8, fp, ip, sp}
     784:	00180213 	andseq	r0, r8, r3, lsl r2
     788:	00180f00 	andseq	r0, r8, r0, lsl #30
     78c:	34100000 	ldrcc	r0, [r0], #-0
     790:	3a080300 	bcc	201398 <__bss_end__+0x1f7620>
     794:	390b3b0b 	stmdbcc	fp, {r0, r1, r3, r8, r9, fp, ip, sp}
     798:	0213490b 	andseq	r4, r3, #180224	; 0x2c000
     79c:	11000018 	tstne	r0, r8, lsl r0
     7a0:	0e030034 	mcreq	0, 0, r0, cr3, cr4, {1}
     7a4:	0b3b0b3a 	bleq	ec3494 <__bss_end__+0xeb971c>
     7a8:	13490b39 	movtne	r0, #39737	; 0x9b39
     7ac:	00001802 	andeq	r1, r0, r2, lsl #16
     7b0:	03003412 	movweq	r3, #1042	; 0x412
     7b4:	3b0b3a08 	blcc	2cefdc <__bss_end__+0x2c5264>
     7b8:	490b390b 	stmdbmi	fp, {r0, r1, r3, r8, fp, ip, sp}
     7bc:	b7170213 			; <UNDEFINED> instruction: 0xb7170213
     7c0:	00001742 	andeq	r1, r0, r2, asr #14
     7c4:	01828913 	orreq	r8, r2, r3, lsl r9
     7c8:	31011101 	tstcc	r1, r1, lsl #2
     7cc:	00130113 	andseq	r0, r3, r3, lsl r1
     7d0:	828a1400 	addhi	r1, sl, #0, 8
     7d4:	18020001 	stmdane	r2, {r0}
     7d8:	00184291 	mulseq	r8, r1, r2
     7dc:	82891500 	addhi	r1, r9, #0, 10
     7e0:	01110101 	tsteq	r1, r1, lsl #2
     7e4:	01160000 	tsteq	r6, r0
     7e8:	01134901 	tsteq	r3, r1, lsl #18
     7ec:	17000013 	smladne	r0, r3, r0, r0
     7f0:	13490021 	movtne	r0, #36897	; 0x9021
     7f4:	0000052f 	andeq	r0, r0, pc, lsr #10
     7f8:	3f002e18 	svccc	0x00002e18
     7fc:	6e193c19 	mrcvs	12, 0, r3, cr9, cr9, {0}
     800:	3a0e030e 	bcc	381440 <__bss_end__+0x3776c8>
     804:	390b3b0b 	stmdbcc	fp, {r0, r1, r3, r8, r9, fp, ip, sp}
     808:	0000000b 	andeq	r0, r0, fp
     80c:	25011101 	strcs	r1, [r1, #-257]	; 0xfffffeff
     810:	030b130e 	movweq	r1, #45838	; 0xb30e
     814:	110e1b0e 	tstne	lr, lr, lsl #22
     818:	10061201 	andne	r1, r6, r1, lsl #4
     81c:	02000017 	andeq	r0, r0, #23, 0
     820:	0b0b0024 	bleq	2c08b8 <__bss_end__+0x2b6b40>
     824:	08030b3e 	stmdaeq	r3, {r1, r2, r3, r4, r5, r8, r9, fp}
     828:	24030000 	strcs	r0, [r3], #-0
     82c:	3e0b0b00 	vmlacc.f64	d0, d11, d0
     830:	000e030b 	andeq	r0, lr, fp, lsl #6
     834:	01150400 	tsteq	r5, r0, lsl #8
     838:	13491927 	movtne	r1, #39207	; 0x9927
     83c:	00001301 	andeq	r1, r0, r1, lsl #6
     840:	49000505 	stmdbmi	r0, {r0, r2, r8, sl}
     844:	06000013 			; <UNDEFINED> instruction: 0x06000013
     848:	0e030034 	mcreq	0, 0, r0, cr3, cr4, {1}
     84c:	0b3b0b3a 	bleq	ec353c <__bss_end__+0xeb97c4>
     850:	13490b39 	movtne	r0, #39737	; 0x9b39
     854:	193c193f 	ldmdbne	ip!, {r0, r1, r2, r3, r4, r5, r8, fp, ip}
     858:	0f070000 	svceq	0x00070000
     85c:	490b0b00 	stmdbmi	fp, {r8, r9, fp}
     860:	08000013 	stmdaeq	r0, {r0, r1, r4}
     864:	13490026 	movtne	r0, #36902	; 0x9026
     868:	34090000 	strcc	r0, [r9], #-0
     86c:	3a134700 	bcc	4d2474 <__bss_end__+0x4c86fc>
     870:	390b3b0b 	stmdbcc	fp, {r0, r1, r3, r8, r9, fp, ip, sp}
     874:	0018020b 	andseq	r0, r8, fp, lsl #4
     878:	012e0a00 			; <UNDEFINED> instruction: 0x012e0a00
     87c:	0e03193f 			; <UNDEFINED> instruction: 0x0e03193f
     880:	0b3b0b3a 	bleq	ec3570 <__bss_end__+0xeb97f8>
     884:	19270b39 	stmdbne	r7!, {r0, r3, r4, r5, r8, r9, fp}
     888:	01111349 	tsteq	r1, r9, asr #6
     88c:	18400612 	stmdane	r0, {r1, r4, r9, sl}^
     890:	00194296 	mulseq	r9, r6, r2
     894:	00050b00 	andeq	r0, r5, r0, lsl #22
     898:	0b3a0803 	bleq	e828ac <__bss_end__+0xe78b34>
     89c:	0b390b3b 	bleq	e43590 <__bss_end__+0xe39818>
     8a0:	17021349 	strne	r1, [r2, -r9, asr #6]
     8a4:	001742b7 			; <UNDEFINED> instruction: 0x001742b7
     8a8:	11010000 	mrsne	r0, (UNDEF: 1)
     8ac:	130e2501 	movwne	r2, #58625	; 0xe501
     8b0:	1b0e030b 	blne	3814e4 <__bss_end__+0x37776c>
     8b4:	1201110e 	andne	r1, r1, #-2147483645	; 0x80000003
     8b8:	00171006 	andseq	r1, r7, r6
     8bc:	00240200 	eoreq	r0, r4, r0, lsl #4
     8c0:	0b3e0b0b 	bleq	f834f4 <__bss_end__+0xf7977c>
     8c4:	00000803 	andeq	r0, r0, r3, lsl #16
     8c8:	0b002403 	bleq	98dc <__FUNCTION__.4034+0x190>
     8cc:	030b3e0b 	movweq	r3, #48651	; 0xbe0b
     8d0:	0400000e 	streq	r0, [r0], #-14
     8d4:	0e030016 	mcreq	0, 0, r0, cr3, cr6, {0}
     8d8:	0b3b0b3a 	bleq	ec35c8 <__bss_end__+0xeb9850>
     8dc:	13490b39 	movtne	r0, #39737	; 0x9b39
     8e0:	15050000 	strne	r0, [r5, #-0]
     8e4:	49192701 	ldmdbmi	r9, {r0, r8, r9, sl, sp}
     8e8:	00130113 	andseq	r0, r3, r3, lsl r1
     8ec:	00050600 	andeq	r0, r5, r0, lsl #12
     8f0:	00001349 	andeq	r1, r0, r9, asr #6
     8f4:	03003407 	movweq	r3, #1031	; 0x407
     8f8:	3b0b3a0e 	blcc	2cf138 <__bss_end__+0x2c53c0>
     8fc:	490b390b 	stmdbmi	fp, {r0, r1, r3, r8, fp, ip, sp}
     900:	3c193f13 	ldccc	15, cr3, [r9], {19}
     904:	08000019 	stmdaeq	r0, {r0, r3, r4}
     908:	0b0b000f 	bleq	2c094c <__bss_end__+0x2b6bd4>
     90c:	00001349 	andeq	r1, r0, r9, asr #6
     910:	49002609 	stmdbmi	r0, {r0, r3, r9, sl, sp}
     914:	0a000013 	beq	968 <__code_start__-0x7698>
     918:	0e030113 	mcreq	1, 0, r0, cr3, cr3, {0}
     91c:	0b3a0b0b 	bleq	e83550 <__bss_end__+0xe797d8>
     920:	13010b3b 	movwne	r0, #6971	; 0x1b3b
     924:	0d0b0000 	stceq	0, cr0, [fp, #-0]
     928:	490e0300 	stmdbmi	lr, {r8, r9}
     92c:	340b3813 	strcc	r3, [fp], #-2067	; 0xfffff7ed
     930:	0c000019 	stceq	0, cr0, [r0], {25}
     934:	0b0b000f 	bleq	2c0978 <__bss_end__+0x2b6c00>
     938:	2e0d0000 	cdpcs	0, 0, cr0, cr13, cr0, {0}
     93c:	03193f01 	tsteq	r9, #1, 30
     940:	3b0b3a0e 	blcc	2cf180 <__bss_end__+0x2c5408>
     944:	270b390b 	strcs	r3, [fp, -fp, lsl #18]
     948:	11134919 	tstne	r3, r9, lsl r9
     94c:	40061201 	andmi	r1, r6, r1, lsl #4
     950:	19429718 	stmdbne	r2, {r3, r4, r8, r9, sl, ip, pc}^
     954:	00001301 	andeq	r1, r0, r1, lsl #6
     958:	0300050e 	movweq	r0, #1294	; 0x50e
     95c:	3b0b3a08 	blcc	2cf184 <__bss_end__+0x2c540c>
     960:	490b390b 	stmdbmi	fp, {r0, r1, r3, r8, fp, ip, sp}
     964:	b7170213 			; <UNDEFINED> instruction: 0xb7170213
     968:	00001742 	andeq	r1, r0, r2, asr #14
     96c:	0300050f 	movweq	r0, #1295	; 0x50f
     970:	3b0b3a0e 	blcc	2cf1b0 <__bss_end__+0x2c5438>
     974:	490b390b 	stmdbmi	fp, {r0, r1, r3, r8, fp, ip, sp}
     978:	00180213 	andseq	r0, r8, r3, lsl r2
     97c:	00341000 	eorseq	r1, r4, r0
     980:	0b3a0803 	bleq	e82994 <__bss_end__+0xe78c1c>
     984:	0b390b3b 	bleq	e43678 <__bss_end__+0xe39900>
     988:	17021349 	strne	r1, [r2, -r9, asr #6]
     98c:	001742b7 			; <UNDEFINED> instruction: 0x001742b7
     990:	00341100 	eorseq	r1, r4, r0, lsl #2
     994:	0b3a0e03 	bleq	e841a8 <__bss_end__+0xe7a430>
     998:	0b390b3b 	bleq	e4368c <__bss_end__+0xe39914>
     99c:	17021349 	strne	r1, [r2, -r9, asr #6]
     9a0:	001742b7 			; <UNDEFINED> instruction: 0x001742b7
     9a4:	00341200 	eorseq	r1, r4, r0, lsl #4
     9a8:	13490e03 	movtne	r0, #40451	; 0x9e03
     9ac:	18021934 	stmdane	r2, {r2, r4, r5, r8, fp, ip}
     9b0:	0b130000 	bleq	4c09b8 <__bss_end__+0x4b6c40>
     9b4:	12011101 	andne	r1, r1, #1073741824	; 0x40000000
     9b8:	14000006 	strne	r0, [r0], #-6
     9bc:	08030034 	stmdaeq	r3, {r2, r4, r5}
     9c0:	0b3b0b3a 	bleq	ec36b0 <__bss_end__+0xeb9938>
     9c4:	13490b39 	movtne	r0, #39737	; 0x9b39
     9c8:	00001802 	andeq	r1, r0, r2, lsl #16
     9cc:	03003415 	movweq	r3, #1045	; 0x415
     9d0:	3b0b3a0e 	blcc	2cf210 <__bss_end__+0x2c5498>
     9d4:	490b390b 	stmdbmi	fp, {r0, r1, r3, r8, fp, ip, sp}
     9d8:	00180213 	andseq	r0, r8, r3, lsl r2
     9dc:	010b1600 	tsteq	fp, r0, lsl #12
     9e0:	06120111 			; <UNDEFINED> instruction: 0x06120111
     9e4:	00001301 	andeq	r1, r0, r1, lsl #6
     9e8:	03003417 	movweq	r3, #1047	; 0x417
     9ec:	3b0b3a08 	blcc	2cf214 <__bss_end__+0x2c549c>
     9f0:	490b390b 	stmdbmi	fp, {r0, r1, r3, r8, fp, ip, sp}
     9f4:	18000013 	stmdane	r0, {r0, r1, r4}
     9f8:	01018289 	smlabbeq	r1, r9, r2, r8
     9fc:	13310111 	teqne	r1, #1073741828	; 0x40000004
     a00:	00001301 	andeq	r1, r0, r1, lsl #6
     a04:	01828a19 	orreq	r8, r2, r9, lsl sl
     a08:	91180200 	tstls	r8, r0, lsl #4
     a0c:	00001842 	andeq	r1, r0, r2, asr #16
     a10:	0182891a 	orreq	r8, r2, sl, lsl r9
     a14:	31011100 	mrscc	r1, (UNDEF: 17)
     a18:	1b000013 	blne	a6c <__code_start__-0x7594>
     a1c:	01018289 	smlabbeq	r1, r9, r2, r8
     a20:	13010111 	movwne	r0, #4369	; 0x1111
     a24:	011c0000 	tsteq	ip, r0
     a28:	01134901 	tsteq	r3, r1, lsl #18
     a2c:	1d000013 	stcne	0, cr0, [r0, #-76]	; 0xffffffb4
     a30:	13490021 	movtne	r0, #36897	; 0x9021
     a34:	00000b2f 	andeq	r0, r0, pc, lsr #22
     a38:	03012e1e 	movweq	r2, #7710	; 0x1e1e
     a3c:	3b0b3a0e 	blcc	2cf27c <__bss_end__+0x2c5504>
     a40:	270b390b 	strcs	r3, [fp, -fp, lsl #18]
     a44:	11134919 	tstne	r3, r9, lsl r9
     a48:	40061201 	andmi	r1, r6, r1, lsl #4
     a4c:	19429718 	stmdbne	r2, {r3, r4, r8, r9, sl, ip, pc}^
     a50:	00001301 	andeq	r1, r0, r1, lsl #6
     a54:	0300051f 	movweq	r0, #1311	; 0x51f
     a58:	3b0b3a0e 	blcc	2cf298 <__bss_end__+0x2c5520>
     a5c:	490b390b 	stmdbmi	fp, {r0, r1, r3, r8, fp, ip, sp}
     a60:	b7170213 			; <UNDEFINED> instruction: 0xb7170213
     a64:	00001742 	andeq	r1, r0, r2, asr #14
     a68:	03012e20 	movweq	r2, #7712	; 0x1e20
     a6c:	3b0b3a08 	blcc	2cf294 <__bss_end__+0x2c551c>
     a70:	270b390b 	strcs	r3, [fp, -fp, lsl #18]
     a74:	11134919 	tstne	r3, r9, lsl r9
     a78:	40061201 	andmi	r1, r6, r1, lsl #4
     a7c:	19429718 	stmdbne	r2, {r3, r4, r8, r9, sl, ip, pc}^
     a80:	00001301 	andeq	r1, r0, r1, lsl #6
     a84:	3f012e21 	svccc	0x00012e21
     a88:	3a0e0319 	bcc	3816f4 <__bss_end__+0x37797c>
     a8c:	390b3b0b 	stmdbcc	fp, {r0, r1, r3, r8, r9, fp, ip, sp}
     a90:	1119270b 	tstne	r9, fp, lsl #14
     a94:	40061201 	andmi	r1, r6, r1, lsl #4
     a98:	19429718 	stmdbne	r2, {r3, r4, r8, r9, sl, ip, pc}^
     a9c:	00001301 	andeq	r1, r0, r1, lsl #6
     aa0:	3f002e22 	svccc	0x00002e22
     aa4:	6e193c19 	mrcvs	12, 0, r3, cr9, cr9, {0}
     aa8:	3a0e030e 	bcc	3816e8 <__bss_end__+0x377970>
     aac:	390b3b0b 	stmdbcc	fp, {r0, r1, r3, r8, r9, fp, ip, sp}
     ab0:	0000000b 	andeq	r0, r0, fp
     ab4:	25011101 	strcs	r1, [r1, #-257]	; 0xfffffeff
     ab8:	030b130e 	movweq	r1, #45838	; 0xb30e
     abc:	550e1b0e 	strpl	r1, [lr, #-2830]	; 0xfffff4f2
     ac0:	10011117 	andne	r1, r1, r7, lsl r1
     ac4:	02000017 	andeq	r0, r0, #23, 0
     ac8:	0b0b0024 	bleq	2c0b60 <__bss_end__+0x2b6de8>
     acc:	08030b3e 	stmdaeq	r3, {r1, r2, r3, r4, r5, r8, r9, fp}
     ad0:	24030000 	strcs	r0, [r3], #-0
     ad4:	3e0b0b00 	vmlacc.f64	d0, d11, d0
     ad8:	000e030b 	andeq	r0, lr, fp, lsl #6
     adc:	01150400 	tsteq	r5, r0, lsl #8
     ae0:	13491927 	movtne	r1, #39207	; 0x9927
     ae4:	00001301 	andeq	r1, r0, r1, lsl #6
     ae8:	49000505 	stmdbmi	r0, {r0, r2, r8, sl}
     aec:	06000013 			; <UNDEFINED> instruction: 0x06000013
     af0:	0e030034 	mcreq	0, 0, r0, cr3, cr4, {1}
     af4:	0b3b0b3a 	bleq	ec37e4 <__bss_end__+0xeb9a6c>
     af8:	13490b39 	movtne	r0, #39737	; 0x9b39
     afc:	193c193f 	ldmdbne	ip!, {r0, r1, r2, r3, r4, r5, r8, fp, ip}
     b00:	0f070000 	svceq	0x00070000
     b04:	490b0b00 	stmdbmi	fp, {r8, r9, fp}
     b08:	08000013 	stmdaeq	r0, {r0, r1, r4}
     b0c:	13490026 	movtne	r0, #36902	; 0x9026
     b10:	2e090000 	cdpcs	0, 0, cr0, cr9, cr0, {0}
     b14:	03193f01 	tsteq	r9, #1, 30
     b18:	3b0b3a0e 	blcc	2cf358 <__bss_end__+0x2c55e0>
     b1c:	270b390b 	strcs	r3, [fp, -fp, lsl #18]
     b20:	12011119 	andne	r1, r1, #1073741830	; 0x40000006
     b24:	97184006 	ldrls	r4, [r8, -r6]
     b28:	13011942 	movwne	r1, #6466	; 0x1942
     b2c:	340a0000 	strcc	r0, [sl], #-0
     b30:	3a080300 	bcc	201738 <__bss_end__+0x1f79c0>
     b34:	390b3b0b 	stmdbcc	fp, {r0, r1, r3, r8, r9, fp, ip, sp}
     b38:	0213490b 	andseq	r4, r3, #180224	; 0x2c000
     b3c:	1742b717 	smlaldne	fp, r2, r7, r7
     b40:	2e0b0000 	cdpcs	0, 0, cr0, cr11, cr0, {0}
     b44:	03193f01 	tsteq	r9, #1, 30
     b48:	3b0b3a0e 	blcc	2cf388 <__bss_end__+0x2c5610>
     b4c:	270b390b 	strcs	r3, [fp, -fp, lsl #18]
     b50:	12011119 	andne	r1, r1, #1073741830	; 0x40000006
     b54:	97184006 	ldrls	r4, [r8, -r6]
     b58:	00001942 	andeq	r1, r0, r2, asr #18
     b5c:	01110100 	tsteq	r1, r0, lsl #2
     b60:	0b130e25 	bleq	4c43fc <__bss_end__+0x4ba684>
     b64:	0e1b0e03 	cdpeq	14, 1, cr0, cr11, cr3, {0}
     b68:	06120111 			; <UNDEFINED> instruction: 0x06120111
     b6c:	00001710 	andeq	r1, r0, r0, lsl r7
     b70:	0b002402 	bleq	9b80 <__data_end__+0x20c>
     b74:	030b3e0b 	movweq	r3, #48651	; 0xbe0b
     b78:	03000008 	movweq	r0, #8
     b7c:	0b0b0024 	bleq	2c0c14 <__bss_end__+0x2b6e9c>
     b80:	0e030b3e 	vmoveq.16	d3[0], r0
     b84:	15040000 	strne	r0, [r4, #-0]
     b88:	49192701 	ldmdbmi	r9, {r0, r8, r9, sl, sp}
     b8c:	00130113 	andseq	r0, r3, r3, lsl r1
     b90:	00050500 	andeq	r0, r5, r0, lsl #10
     b94:	00001349 	andeq	r1, r0, r9, asr #6
     b98:	03003406 	movweq	r3, #1030	; 0x406
     b9c:	3b0b3a0e 	blcc	2cf3dc <__bss_end__+0x2c5664>
     ba0:	490b390b 	stmdbmi	fp, {r0, r1, r3, r8, fp, ip, sp}
     ba4:	3c193f13 	ldccc	15, cr3, [r9], {19}
     ba8:	07000019 	smladeq	r0, r9, r0, r0
     bac:	0b0b000f 	bleq	2c0bf0 <__bss_end__+0x2b6e78>
     bb0:	00001349 	andeq	r1, r0, r9, asr #6
     bb4:	49002608 	stmdbmi	r0, {r3, r9, sl, sp}
     bb8:	09000013 	stmdbeq	r0, {r0, r1, r4}
     bbc:	193f012e 	ldmdbne	pc!, {r1, r2, r3, r5, r8}	; <UNPREDICTABLE>
     bc0:	0b3a0e03 	bleq	e843d4 <__bss_end__+0xe7a65c>
     bc4:	0b390b3b 	bleq	e438b8 <__bss_end__+0xe39b40>
     bc8:	01871927 	orreq	r1, r7, r7, lsr #18
     bcc:	12011119 	andne	r1, r1, #1073741830	; 0x40000006
     bd0:	97184006 	ldrls	r4, [r8, -r6]
     bd4:	13011942 	movwne	r1, #6466	; 0x1942
     bd8:	890a0000 	stmdbhi	sl, {}	; <UNPREDICTABLE>
     bdc:	11010182 	smlabbne	r1, r2, r1, r0
     be0:	00130101 	andseq	r0, r3, r1, lsl #2
     be4:	828a0b00 	addhi	r0, sl, #0, 22
     be8:	18020001 	stmdane	r2, {r0}
     bec:	00184291 	mulseq	r8, r1, r2
     bf0:	82890c00 	addhi	r0, r9, #0, 24
     bf4:	01110001 	tsteq	r1, r1
     bf8:	00001331 	andeq	r1, r0, r1, lsr r3
     bfc:	0182890d 	orreq	r8, r2, sp, lsl #18
     c00:	31011101 	tstcc	r1, r1, lsl #2
     c04:	00130113 	andseq	r0, r3, r3, lsl r1
     c08:	002e0e00 	eoreq	r0, lr, r0, lsl #28
     c0c:	193c193f 	ldmdbne	ip!, {r0, r1, r2, r3, r4, r5, r8, fp, ip}
     c10:	0e030e6e 	cdpeq	14, 0, cr0, cr3, cr14, {3}
     c14:	0b3b0b3a 	bleq	ec3904 <__bss_end__+0xeb9b8c>
     c18:	00000b39 	andeq	r0, r0, r9, lsr fp
     c1c:	01110100 	tsteq	r1, r0, lsl #2
     c20:	0b130e25 	bleq	4c44bc <__bss_end__+0x4ba744>
     c24:	0e1b0e03 	cdpeq	14, 1, cr0, cr11, cr3, {0}
     c28:	06120111 			; <UNDEFINED> instruction: 0x06120111
     c2c:	00001710 	andeq	r1, r0, r0, lsl r7
     c30:	0b002402 	bleq	9c40 <__data_end__+0x2cc>
     c34:	030b3e0b 	movweq	r3, #48651	; 0xbe0b
     c38:	03000008 	movweq	r0, #8
     c3c:	0b0b0024 	bleq	2c0cd4 <__bss_end__+0x2b6f5c>
     c40:	0e030b3e 	vmoveq.16	d3[0], r0
     c44:	15040000 	strne	r0, [r4, #-0]
     c48:	49192701 	ldmdbmi	r9, {r0, r8, r9, sl, sp}
     c4c:	00130113 	andseq	r0, r3, r3, lsl r1
     c50:	00050500 	andeq	r0, r5, r0, lsl #10
     c54:	00001349 	andeq	r1, r0, r9, asr #6
     c58:	03003406 	movweq	r3, #1030	; 0x406
     c5c:	3b0b3a0e 	blcc	2cf49c <__bss_end__+0x2c5724>
     c60:	490b390b 	stmdbmi	fp, {r0, r1, r3, r8, fp, ip, sp}
     c64:	3c193f13 	ldccc	15, cr3, [r9], {19}
     c68:	07000019 	smladeq	r0, r9, r0, r0
     c6c:	0b0b000f 	bleq	2c0cb0 <__bss_end__+0x2b6f38>
     c70:	00001349 	andeq	r1, r0, r9, asr #6
     c74:	49002608 	stmdbmi	r0, {r3, r9, sl, sp}
     c78:	09000013 	stmdbeq	r0, {r0, r1, r4}
     c7c:	193f012e 	ldmdbne	pc!, {r1, r2, r3, r5, r8}	; <UNPREDICTABLE>
     c80:	0b3a0e03 	bleq	e84494 <__bss_end__+0xe7a71c>
     c84:	0b390b3b 	bleq	e43978 <__bss_end__+0xe39c00>
     c88:	06120111 			; <UNDEFINED> instruction: 0x06120111
     c8c:	42971840 	addsmi	r1, r7, #64, 16	; 0x400000
     c90:	00130119 	andseq	r0, r3, r9, lsl r1
     c94:	002e0a00 	eoreq	r0, lr, r0, lsl #20
     c98:	0e03193f 			; <UNDEFINED> instruction: 0x0e03193f
     c9c:	0b3b0b3a 	bleq	ec398c <__bss_end__+0xeb9c14>
     ca0:	19270b39 	stmdbne	r7!, {r0, r3, r4, r5, r8, r9, fp}
     ca4:	0000193c 	andeq	r1, r0, ip, lsr r9
     ca8:	0300340b 	movweq	r3, #1035	; 0x40b
     cac:	3b0b3a08 	blcc	2cf4d4 <__bss_end__+0x2c575c>
     cb0:	490b390b 	stmdbmi	fp, {r0, r1, r3, r8, fp, ip, sp}
     cb4:	b7170213 			; <UNDEFINED> instruction: 0xb7170213
     cb8:	00001742 	andeq	r1, r0, r2, asr #14
     cbc:	0300340c 	movweq	r3, #1036	; 0x40c
     cc0:	3b0b3a0e 	blcc	2cf500 <__bss_end__+0x2c5788>
     cc4:	490b390b 	stmdbmi	fp, {r0, r1, r3, r8, fp, ip, sp}
     cc8:	0d000013 	stceq	0, cr0, [r0, #-76]	; 0xffffffb4
     ccc:	0111010b 	tsteq	r1, fp, lsl #2
     cd0:	13010612 	movwne	r0, #5650	; 0x1612
     cd4:	340e0000 	strcc	r0, [lr], #-0
     cd8:	3a080300 	bcc	2018e0 <__bss_end__+0x1f7b68>
     cdc:	390b3b0b 	stmdbcc	fp, {r0, r1, r3, r8, r9, fp, ip, sp}
     ce0:	1c13490b 			; <UNDEFINED> instruction: 0x1c13490b
     ce4:	0f00000b 	svceq	0x0000000b
     ce8:	00018289 	andeq	r8, r1, r9, lsl #5
     cec:	13310111 	teqne	r1, #1073741828	; 0x40000004
     cf0:	2e100000 	cdpcs	0, 1, cr0, cr0, cr0, {0}
     cf4:	3c193f00 	ldccc	15, cr3, [r9], {-0}
     cf8:	030e6e19 	movweq	r6, #60953	; 0xee19
     cfc:	3b0b3a0e 	blcc	2cf53c <__bss_end__+0x2c57c4>
     d00:	000b3905 	andeq	r3, fp, r5, lsl #18
     d04:	002e1100 	eoreq	r1, lr, r0, lsl #2
     d08:	193c193f 	ldmdbne	ip!, {r0, r1, r2, r3, r4, r5, r8, fp, ip}
     d0c:	0e030e6e 	cdpeq	14, 0, cr0, cr3, cr14, {3}
     d10:	0b3b0b3a 	bleq	ec3a00 <__bss_end__+0xeb9c88>
     d14:	00000b39 	andeq	r0, r0, r9, lsr fp
     d18:	01110100 	tsteq	r1, r0, lsl #2
     d1c:	0b130e25 	bleq	4c45b8 <__bss_end__+0x4ba840>
     d20:	0e1b0e03 	cdpeq	14, 1, cr0, cr11, cr3, {0}
     d24:	06120111 			; <UNDEFINED> instruction: 0x06120111
     d28:	00001710 	andeq	r1, r0, r0, lsl r7
     d2c:	0b002402 	bleq	9d3c <__data_end__+0x3c8>
     d30:	030b3e0b 	movweq	r3, #48651	; 0xbe0b
     d34:	03000008 	movweq	r0, #8
     d38:	0b0b0024 	bleq	2c0dd0 <__bss_end__+0x2b7058>
     d3c:	0e030b3e 	vmoveq.16	d3[0], r0
     d40:	15040000 	strne	r0, [r4, #-0]
     d44:	49192701 	ldmdbmi	r9, {r0, r8, r9, sl, sp}
     d48:	00130113 	andseq	r0, r3, r3, lsl r1
     d4c:	00050500 	andeq	r0, r5, r0, lsl #10
     d50:	00001349 	andeq	r1, r0, r9, asr #6
     d54:	03003406 	movweq	r3, #1030	; 0x406
     d58:	3b0b3a0e 	blcc	2cf598 <__bss_end__+0x2c5820>
     d5c:	490b390b 	stmdbmi	fp, {r0, r1, r3, r8, fp, ip, sp}
     d60:	3c193f13 	ldccc	15, cr3, [r9], {19}
     d64:	07000019 	smladeq	r0, r9, r0, r0
     d68:	0b0b000f 	bleq	2c0dac <__bss_end__+0x2b7034>
     d6c:	00001349 	andeq	r1, r0, r9, asr #6
     d70:	49002608 	stmdbmi	r0, {r3, r9, sl, sp}
     d74:	09000013 	stmdbeq	r0, {r0, r1, r4}
     d78:	193f002e 	ldmdbne	pc!, {r1, r2, r3, r5}	; <UNPREDICTABLE>
     d7c:	0b3a0e03 	bleq	e84590 <__bss_end__+0xe7a818>
     d80:	0b390b3b 	bleq	e43a74 <__bss_end__+0xe39cfc>
     d84:	01111927 	tsteq	r1, r7, lsr #18
     d88:	18400612 	stmdane	r0, {r1, r4, r9, sl}^
     d8c:	00194297 	mulseq	r9, r7, r2
     d90:	11010000 	mrsne	r0, (UNDEF: 1)
     d94:	130e2501 	movwne	r2, #58625	; 0xe501
     d98:	1b0e030b 	blne	3819cc <__bss_end__+0x377c54>
     d9c:	1117550e 	tstne	r7, lr, lsl #10
     da0:	00171001 	andseq	r1, r7, r1
     da4:	00240200 	eoreq	r0, r4, r0, lsl #4
     da8:	0b3e0b0b 	bleq	f839dc <__bss_end__+0xf79c64>
     dac:	00000803 	andeq	r0, r0, r3, lsl #16
     db0:	49002603 	stmdbmi	r0, {r0, r1, r9, sl, sp}
     db4:	04000013 	streq	r0, [r0], #-19	; 0xffffffed
     db8:	0b0b0024 	bleq	2c0e50 <__bss_end__+0x2b70d8>
     dbc:	0e030b3e 	vmoveq.16	d3[0], r0
     dc0:	15050000 	strne	r0, [r5, #-0]
     dc4:	49192701 	ldmdbmi	r9, {r0, r8, r9, sl, sp}
     dc8:	00130113 	andseq	r0, r3, r3, lsl r1
     dcc:	00050600 	andeq	r0, r5, r0, lsl #12
     dd0:	00001349 	andeq	r1, r0, r9, asr #6
     dd4:	03003407 	movweq	r3, #1031	; 0x407
     dd8:	3b0b3a0e 	blcc	2cf618 <__bss_end__+0x2c58a0>
     ddc:	490b390b 	stmdbmi	fp, {r0, r1, r3, r8, fp, ip, sp}
     de0:	3c193f13 	ldccc	15, cr3, [r9], {19}
     de4:	08000019 	stmdaeq	r0, {r0, r3, r4}
     de8:	0b0b000f 	bleq	2c0e2c <__bss_end__+0x2b70b4>
     dec:	00001349 	andeq	r1, r0, r9, asr #6
     df0:	03003409 	movweq	r3, #1033	; 0x409
     df4:	3b0b3a0e 	blcc	2cf634 <__bss_end__+0x2c58bc>
     df8:	490b390b 	stmdbmi	fp, {r0, r1, r3, r8, fp, ip, sp}
     dfc:	0a000013 	beq	e50 <__code_start__-0x71b0>
     e00:	193f012e 	ldmdbne	pc!, {r1, r2, r3, r5, r8}	; <UNPREDICTABLE>
     e04:	0b3a0e03 	bleq	e84618 <__bss_end__+0xe7a8a0>
     e08:	0b390b3b 	bleq	e43afc <__bss_end__+0xe39d84>
     e0c:	01871927 	orreq	r1, r7, r7, lsr #18
     e10:	12011119 	andne	r1, r1, #1073741830	; 0x40000006
     e14:	97184006 	ldrls	r4, [r8, -r6]
     e18:	13011942 	movwne	r1, #6466	; 0x1942
     e1c:	340b0000 	strcc	r0, [fp], #-0
     e20:	3a0e0300 	bcc	381a28 <__bss_end__+0x377cb0>
     e24:	390b3b0b 	stmdbcc	fp, {r0, r1, r3, r8, r9, fp, ip, sp}
     e28:	0213490b 	andseq	r4, r3, #180224	; 0x2c000
     e2c:	1742b717 	smlaldne	fp, r2, r7, r7
     e30:	890c0000 	stmdbhi	ip, {}	; <UNPREDICTABLE>
     e34:	11000182 	smlabbne	r0, r2, r1, r0
     e38:	00133101 	andseq	r3, r3, r1, lsl #2
     e3c:	82890d00 	addhi	r0, r9, #0, 26
     e40:	01110101 	tsteq	r1, r1, lsl #2
     e44:	13011331 	movwne	r1, #4913	; 0x1331
     e48:	8a0e0000 	bhi	380e50 <__bss_end__+0x3770d8>
     e4c:	02000182 	andeq	r0, r0, #-2147483616	; 0x80000020
     e50:	18429118 	stmdane	r2, {r3, r4, r8, ip, pc}^
     e54:	2e0f0000 	cdpcs	0, 0, cr0, cr15, cr0, {0}
     e58:	03193f01 	tsteq	r9, #1, 30
     e5c:	3b0b3a0e 	blcc	2cf69c <__bss_end__+0x2c5924>
     e60:	270b390b 	strcs	r3, [fp, -fp, lsl #18]
     e64:	12011119 	andne	r1, r1, #1073741830	; 0x40000006
     e68:	97184006 	ldrls	r4, [r8, -r6]
     e6c:	13011942 	movwne	r1, #6466	; 0x1942
     e70:	2e100000 	cdpcs	0, 1, cr0, cr0, cr0, {0}
     e74:	03193f01 	tsteq	r9, #1, 30
     e78:	3b0b3a0e 	blcc	2cf6b8 <__bss_end__+0x2c5940>
     e7c:	270b390b 	strcs	r3, [fp, -fp, lsl #18]
     e80:	11134919 	tstne	r3, r9, lsl r9
     e84:	40061201 	andmi	r1, r6, r1, lsl #4
     e88:	19429718 	stmdbne	r2, {r3, r4, r8, r9, sl, ip, pc}^
     e8c:	00001301 	andeq	r1, r0, r1, lsl #6
     e90:	3f002e11 	svccc	0x00002e11
     e94:	6e193c19 	mrcvs	12, 0, r3, cr9, cr9, {0}
     e98:	3a0e030e 	bcc	381ad8 <__bss_end__+0x377d60>
     e9c:	39053b0b 	stmdbcc	r5, {r0, r1, r3, r8, r9, fp, ip, sp}
     ea0:	1200000b 	andne	r0, r0, #11, 0
     ea4:	193f002e 	ldmdbne	pc!, {r1, r2, r3, r5}	; <UNPREDICTABLE>
     ea8:	0e6e193c 			; <UNDEFINED> instruction: 0x0e6e193c
     eac:	0b3a0e03 	bleq	e846c0 <__bss_end__+0xe7a948>
     eb0:	0b390b3b 	bleq	e43ba4 <__bss_end__+0xe39e2c>
     eb4:	01000000 	mrseq	r0, (UNDEF: 0)
     eb8:	0e250111 	mcreq	1, 1, r0, cr5, cr1, {0}
     ebc:	0e030b13 	vmoveq.32	d3[0], r0
     ec0:	01110e1b 	tsteq	r1, fp, lsl lr
     ec4:	17100612 			; <UNDEFINED> instruction: 0x17100612
     ec8:	24020000 	strcs	r0, [r2], #-0
     ecc:	3e0b0b00 	vmlacc.f64	d0, d11, d0
     ed0:	0008030b 	andeq	r0, r8, fp, lsl #6
     ed4:	00240300 	eoreq	r0, r4, r0, lsl #6
     ed8:	0b3e0b0b 	bleq	f83b0c <__bss_end__+0xf79d94>
     edc:	00000e03 	andeq	r0, r0, r3, lsl #28
     ee0:	27011504 	strcs	r1, [r1, -r4, lsl #10]
     ee4:	01134919 	tsteq	r3, r9, lsl r9
     ee8:	05000013 	streq	r0, [r0, #-19]	; 0xffffffed
     eec:	13490005 	movtne	r0, #36869	; 0x9005
     ef0:	34060000 	strcc	r0, [r6], #-0
     ef4:	3a0e0300 	bcc	381afc <__bss_end__+0x377d84>
     ef8:	390b3b0b 	stmdbcc	fp, {r0, r1, r3, r8, r9, fp, ip, sp}
     efc:	3f13490b 	svccc	0x0013490b
     f00:	00193c19 	andseq	r3, r9, r9, lsl ip
     f04:	000f0700 	andeq	r0, pc, r0, lsl #14
     f08:	13490b0b 	movtne	r0, #39691	; 0x9b0b
     f0c:	26080000 	strcs	r0, [r8], -r0
     f10:	00134900 	andseq	r4, r3, r0, lsl #18
     f14:	012e0900 			; <UNDEFINED> instruction: 0x012e0900
     f18:	0e03193f 			; <UNDEFINED> instruction: 0x0e03193f
     f1c:	0b3b0b3a 	bleq	ec3c0c <__bss_end__+0xeb9e94>
     f20:	19270b39 	stmdbne	r7!, {r0, r3, r4, r5, r8, r9, fp}
     f24:	06120111 			; <UNDEFINED> instruction: 0x06120111
     f28:	42971840 	addsmi	r1, r7, #64, 16	; 0x400000
     f2c:	00130119 	andseq	r0, r3, r9, lsl r1
     f30:	00050a00 	andeq	r0, r5, r0, lsl #20
     f34:	0b3a0803 	bleq	e82f48 <__bss_end__+0xe791d0>
     f38:	0b390b3b 	bleq	e43c2c <__bss_end__+0xe39eb4>
     f3c:	17021349 	strne	r1, [r2, -r9, asr #6]
     f40:	001742b7 			; <UNDEFINED> instruction: 0x001742b7
     f44:	82890b00 	addhi	r0, r9, #0, 22
     f48:	01110101 	tsteq	r1, r1, lsl #2
     f4c:	00001331 	andeq	r1, r0, r1, lsr r3
     f50:	01828a0c 	orreq	r8, r2, ip, lsl #20
     f54:	91180200 	tstls	r8, r0, lsl #4
     f58:	00001842 	andeq	r1, r0, r2, asr #16
     f5c:	0300340d 	movweq	r3, #1037	; 0x40d
     f60:	3b0b3a08 	blcc	2cf788 <__bss_end__+0x2c5a10>
     f64:	490b390b 	stmdbmi	fp, {r0, r1, r3, r8, fp, ip, sp}
     f68:	b7170213 			; <UNDEFINED> instruction: 0xb7170213
     f6c:	00001742 	andeq	r1, r0, r2, asr #14
     f70:	11010b0e 	tstne	r1, lr, lsl #22
     f74:	01061201 	tsteq	r6, r1, lsl #4
     f78:	0f000013 	svceq	0x00000013
     f7c:	00018289 	andeq	r8, r1, r9, lsl #5
     f80:	13310111 	teqne	r1, #1073741828	; 0x40000004
     f84:	2e100000 	cdpcs	0, 1, cr0, cr0, cr0, {0}
     f88:	03193f01 	tsteq	r9, #1, 30
     f8c:	3b0b3a0e 	blcc	2cf7cc <__bss_end__+0x2c5a54>
     f90:	270b390b 	strcs	r3, [fp, -fp, lsl #18]
     f94:	11134919 	tstne	r3, r9, lsl r9
     f98:	40061201 	andmi	r1, r6, r1, lsl #4
     f9c:	19429718 	stmdbne	r2, {r3, r4, r8, r9, sl, ip, pc}^
     fa0:	00001301 	andeq	r1, r0, r1, lsl #6
     fa4:	3f002e11 	svccc	0x00002e11
     fa8:	6e193c19 	mrcvs	12, 0, r3, cr9, cr9, {0}
     fac:	3a0e030e 	bcc	381bec <__bss_end__+0x377e74>
     fb0:	390b3b0b 	stmdbcc	fp, {r0, r1, r3, r8, r9, fp, ip, sp}
     fb4:	0000000b 	andeq	r0, r0, fp
     fb8:	25011101 	strcs	r1, [r1, #-257]	; 0xfffffeff
     fbc:	030b130e 	movweq	r1, #45838	; 0xb30e
     fc0:	110e1b0e 	tstne	lr, lr, lsl #22
     fc4:	10061201 	andne	r1, r6, r1, lsl #4
     fc8:	02000017 	andeq	r0, r0, #23, 0
     fcc:	0b0b0024 	bleq	2c1064 <__bss_end__+0x2b72ec>
     fd0:	08030b3e 	stmdaeq	r3, {r1, r2, r3, r4, r5, r8, r9, fp}
     fd4:	24030000 	strcs	r0, [r3], #-0
     fd8:	3e0b0b00 	vmlacc.f64	d0, d11, d0
     fdc:	000e030b 	andeq	r0, lr, fp, lsl #6
     fe0:	00260400 	eoreq	r0, r6, r0, lsl #8
     fe4:	00001349 	andeq	r1, r0, r9, asr #6
     fe8:	03001605 	movweq	r1, #1541	; 0x605
     fec:	3b0b3a0e 	blcc	2cf82c <__bss_end__+0x2c5ab4>
     ff0:	490b390b 	stmdbmi	fp, {r0, r1, r3, r8, fp, ip, sp}
     ff4:	06000013 			; <UNDEFINED> instruction: 0x06000013
     ff8:	0b3e0104 	bleq	f81410 <__bss_end__+0xf77698>
     ffc:	13490b0b 	movtne	r0, #39691	; 0x9b0b
    1000:	0b3b0b3a 	bleq	ec3cf0 <__bss_end__+0xeb9f78>
    1004:	13010b39 	movwne	r0, #6969	; 0x1b39
    1008:	28070000 	stmdacs	r7, {}	; <UNPREDICTABLE>
    100c:	1c0e0300 	stcne	3, cr0, [lr], {-0}
    1010:	0800000b 	stmdaeq	r0, {r0, r1, r3}
    1014:	0e030034 	mcreq	0, 0, r0, cr3, cr4, {1}
    1018:	0b3b0b3a 	bleq	ec3d08 <__bss_end__+0xeb9f90>
    101c:	13490b39 	movtne	r0, #39737	; 0x9b39
    1020:	0000061c 	andeq	r0, r0, ip, lsl r6
    1024:	3f012e09 	svccc	0x00012e09
    1028:	3a0e0319 	bcc	381c94 <__bss_end__+0x377f1c>
    102c:	390b3b0b 	stmdbcc	fp, {r0, r1, r3, r8, r9, fp, ip, sp}
    1030:	4919270b 	ldmdbmi	r9, {r0, r1, r3, r8, r9, sl, sp}
    1034:	12011113 	andne	r1, r1, #-1073741820	; 0xc0000004
    1038:	97184006 	ldrls	r4, [r8, -r6]
    103c:	13011942 	movwne	r1, #6466	; 0x1942
    1040:	050a0000 	streq	r0, [sl, #-0]
    1044:	3a080300 	bcc	201c4c <__bss_end__+0x1f7ed4>
    1048:	390b3b0b 	stmdbcc	fp, {r0, r1, r3, r8, r9, fp, ip, sp}
    104c:	0213490b 	andseq	r4, r3, #180224	; 0x2c000
    1050:	1742b717 	smlaldne	fp, r2, r7, r7
    1054:	340b0000 	strcc	r0, [fp], #-0
    1058:	3a0e0300 	bcc	381c60 <__bss_end__+0x377ee8>
    105c:	390b3b0b 	stmdbcc	fp, {r0, r1, r3, r8, r9, fp, ip, sp}
    1060:	0213490b 	andseq	r4, r3, #180224	; 0x2c000
    1064:	1742b717 	smlaldne	fp, r2, r7, r7
    1068:	340c0000 	strcc	r0, [ip], #-0
    106c:	3a080300 	bcc	201c74 <__bss_end__+0x1f7efc>
    1070:	390b3b0b 	stmdbcc	fp, {r0, r1, r3, r8, r9, fp, ip, sp}
    1074:	0213490b 	andseq	r4, r3, #180224	; 0x2c000
    1078:	1742b717 	smlaldne	fp, r2, r7, r7
    107c:	890d0000 	stmdbhi	sp, {}	; <UNPREDICTABLE>
    1080:	11010182 	smlabbne	r1, r2, r1, r0
    1084:	00133101 	andseq	r3, r3, r1, lsl #2
    1088:	828a0e00 	addhi	r0, sl, #0, 28
    108c:	18020001 	stmdane	r2, {r0}
    1090:	00184291 	mulseq	r8, r1, r2
    1094:	012e0f00 			; <UNDEFINED> instruction: 0x012e0f00
    1098:	0e03193f 			; <UNDEFINED> instruction: 0x0e03193f
    109c:	0b3b0b3a 	bleq	ec3d8c <__bss_end__+0xeba014>
    10a0:	19270b39 	stmdbne	r7!, {r0, r3, r4, r5, r8, r9, fp}
    10a4:	06120111 			; <UNDEFINED> instruction: 0x06120111
    10a8:	42971840 	addsmi	r1, r7, #64, 16	; 0x400000
    10ac:	00130119 	andseq	r0, r3, r9, lsl r1
    10b0:	82891000 	addhi	r1, r9, #0, 0
    10b4:	01110101 	tsteq	r1, r1, lsl #2
    10b8:	13011331 	movwne	r1, #4913	; 0x1331
    10bc:	89110000 	ldmdbhi	r1, {}	; <UNPREDICTABLE>
    10c0:	11000182 	smlabbne	r0, r2, r1, r0
    10c4:	00133101 	andseq	r3, r3, r1, lsl #2
    10c8:	00051200 	andeq	r1, r5, r0, lsl #4
    10cc:	0b3a0e03 	bleq	e848e0 <__bss_end__+0xe7ab68>
    10d0:	0b390b3b 	bleq	e43dc4 <__bss_end__+0xe3a04c>
    10d4:	17021349 	strne	r1, [r2, -r9, asr #6]
    10d8:	001742b7 			; <UNDEFINED> instruction: 0x001742b7
    10dc:	012e1300 			; <UNDEFINED> instruction: 0x012e1300
    10e0:	0b3a0e03 	bleq	e848f4 <__bss_end__+0xe7ab7c>
    10e4:	0b390b3b 	bleq	e43dd8 <__bss_end__+0xe3a060>
    10e8:	13491927 	movtne	r1, #39207	; 0x9927
    10ec:	13010b20 	movwne	r0, #6944	; 0x1b20
    10f0:	05140000 	ldreq	r0, [r4, #-0]
    10f4:	3a080300 	bcc	201cfc <__bss_end__+0x1f7f84>
    10f8:	390b3b0b 	stmdbcc	fp, {r0, r1, r3, r8, r9, fp, ip, sp}
    10fc:	0013490b 	andseq	r4, r3, fp, lsl #18
    1100:	002e1500 	eoreq	r1, lr, r0, lsl #10
    1104:	193c193f 	ldmdbne	ip!, {r0, r1, r2, r3, r4, r5, r8, fp, ip}
    1108:	0e030e6e 	cdpeq	14, 0, cr0, cr3, cr14, {3}
    110c:	0b3b0b3a 	bleq	ec3dfc <__bss_end__+0xeba084>
    1110:	00000b39 	andeq	r0, r0, r9, lsr fp
    1114:	01110100 	tsteq	r1, r0, lsl #2
    1118:	0b130e25 	bleq	4c49b4 <__bss_end__+0x4bac3c>
    111c:	0e1b0e03 	cdpeq	14, 1, cr0, cr11, cr3, {0}
    1120:	06120111 			; <UNDEFINED> instruction: 0x06120111
    1124:	00001710 	andeq	r1, r0, r0, lsl r7
    1128:	0b002402 	bleq	a138 <__bss_end__+0x3c0>
    112c:	030b3e0b 	movweq	r3, #48651	; 0xbe0b
    1130:	03000008 	movweq	r0, #8
    1134:	0b0b0024 	bleq	2c11cc <__bss_end__+0x2b7454>
    1138:	0e030b3e 	vmoveq.16	d3[0], r0
    113c:	35040000 	strcc	r0, [r4, #-0]
    1140:	00134900 	andseq	r4, r3, r0, lsl #18
    1144:	00160500 	andseq	r0, r6, r0, lsl #10
    1148:	0b3a0e03 	bleq	e8495c <__bss_end__+0xe7abe4>
    114c:	0b390b3b 	bleq	e43e40 <__bss_end__+0xe3a0c8>
    1150:	00001349 	andeq	r1, r0, r9, asr #6
    1154:	3e010406 	cdpcc	4, 0, cr0, cr1, cr6, {0}
    1158:	490b0b0b 	stmdbmi	fp, {r0, r1, r3, r8, r9, fp}
    115c:	3b0b3a13 	blcc	2cf9b0 <__bss_end__+0x2c5c38>
    1160:	010b390b 	tsteq	fp, fp, lsl #18
    1164:	07000013 	smladeq	r0, r3, r0, r0
    1168:	0e030028 	cdpeq	0, 0, cr0, cr3, cr8, {1}
    116c:	00000b1c 	andeq	r0, r0, ip, lsl fp
    1170:	03011308 	movweq	r1, #4872	; 0x1308
    1174:	3a0b0b0e 	bcc	2c3db4 <__bss_end__+0x2ba03c>
    1178:	390b3b0b 	stmdbcc	fp, {r0, r1, r3, r8, r9, fp, ip, sp}
    117c:	0013010b 	andseq	r0, r3, fp, lsl #2
    1180:	000d0900 	andeq	r0, sp, r0, lsl #18
    1184:	0b3a0803 	bleq	e83198 <__bss_end__+0xe79420>
    1188:	0b390b3b 	bleq	e43e7c <__bss_end__+0xe3a104>
    118c:	0b381349 	bleq	e05eb8 <__bss_end__+0xdfc140>
    1190:	0d0a0000 	stceq	0, cr0, [sl, #-0]
    1194:	3a0e0300 	bcc	381d9c <__bss_end__+0x378024>
    1198:	390b3b0b 	stmdbcc	fp, {r0, r1, r3, r8, r9, fp, ip, sp}
    119c:	3813490b 	ldmdacc	r3, {r0, r1, r3, r8, fp, lr}
    11a0:	0b00000b 	bleq	11d4 <__code_start__-0x6e2c>
    11a4:	0e030034 	mcreq	0, 0, r0, cr3, cr4, {1}
    11a8:	0b3b0b3a 	bleq	ec3e98 <__bss_end__+0xeba120>
    11ac:	13490b39 	movtne	r0, #39737	; 0x9b39
    11b0:	0000061c 	andeq	r0, r0, ip, lsl r6
    11b4:	0b000f0c 	bleq	4dec <__code_start__-0x3214>
    11b8:	0013490b 	andseq	r4, r3, fp, lsl #18
    11bc:	00260d00 	eoreq	r0, r6, r0, lsl #26
    11c0:	00001349 	andeq	r1, r0, r9, asr #6
    11c4:	3f012e0e 	svccc	0x00012e0e
    11c8:	3a0e0319 	bcc	381e34 <__bss_end__+0x3780bc>
    11cc:	390b3b0b 	stmdbcc	fp, {r0, r1, r3, r8, r9, fp, ip, sp}
    11d0:	1119270b 	tstne	r9, fp, lsl #14
    11d4:	40061201 	andmi	r1, r6, r1, lsl #4
    11d8:	19429718 	stmdbne	r2, {r3, r4, r8, r9, sl, ip, pc}^
    11dc:	00001301 	andeq	r1, r0, r1, lsl #6
    11e0:	0182890f 	orreq	r8, r2, pc, lsl #18
    11e4:	31011100 	mrscc	r1, (UNDEF: 17)
    11e8:	10000013 	andne	r0, r0, r3, lsl r0
    11ec:	193f012e 	ldmdbne	pc!, {r1, r2, r3, r5, r8}	; <UNPREDICTABLE>
    11f0:	0b3a0e03 	bleq	e84a04 <__bss_end__+0xe7ac8c>
    11f4:	0b390b3b 	bleq	e43ee8 <__bss_end__+0xe3a170>
    11f8:	13491927 	movtne	r1, #39207	; 0x9927
    11fc:	06120111 			; <UNDEFINED> instruction: 0x06120111
    1200:	42971840 	addsmi	r1, r7, #64, 16	; 0x400000
    1204:	00130119 	andseq	r0, r3, r9, lsl r1
    1208:	82891100 	addhi	r1, r9, #0
    120c:	01110101 	tsteq	r1, r1, lsl #2
    1210:	00001331 	andeq	r1, r0, r1, lsr r3
    1214:	01828a12 	orreq	r8, r2, r2, lsl sl
    1218:	91180200 	tstls	r8, r0, lsl #4
    121c:	00001842 	andeq	r1, r0, r2, asr #16
    1220:	03000513 	movweq	r0, #1299	; 0x513
    1224:	3b0b3a08 	blcc	2cfa4c <__bss_end__+0x2c5cd4>
    1228:	490b390b 	stmdbmi	fp, {r0, r1, r3, r8, fp, ip, sp}
    122c:	b7170213 			; <UNDEFINED> instruction: 0xb7170213
    1230:	00001742 	andeq	r1, r0, r2, asr #14
    1234:	01828914 	orreq	r8, r2, r4, lsl r9
    1238:	31011101 	tstcc	r1, r1, lsl #2
    123c:	00130113 	andseq	r0, r3, r3, lsl r1
    1240:	00341500 	eorseq	r1, r4, r0, lsl #10
    1244:	0b3a0803 	bleq	e83258 <__bss_end__+0xe794e0>
    1248:	0b390b3b 	bleq	e43f3c <__bss_end__+0xe3a1c4>
    124c:	17021349 	strne	r1, [r2, -r9, asr #6]
    1250:	001742b7 			; <UNDEFINED> instruction: 0x001742b7
    1254:	00341600 	eorseq	r1, r4, r0, lsl #12
    1258:	0b3a0e03 	bleq	e84a6c <__bss_end__+0xe7acf4>
    125c:	0b390b3b 	bleq	e43f50 <__bss_end__+0xe3a1d8>
    1260:	051c1349 	ldreq	r1, [ip, #-841]	; 0xfffffcb7
    1264:	2e170000 	cdpcs	0, 1, cr0, cr7, cr0, {0}
    1268:	3a0e0301 	bcc	381e74 <__bss_end__+0x3780fc>
    126c:	390b3b0b 	stmdbcc	fp, {r0, r1, r3, r8, r9, fp, ip, sp}
    1270:	1119270b 	tstne	r9, fp, lsl #14
    1274:	40061201 	andmi	r1, r6, r1, lsl #4
    1278:	19429718 	stmdbne	r2, {r3, r4, r8, r9, sl, ip, pc}^
    127c:	00001301 	andeq	r1, r0, r1, lsl #6
    1280:	03000518 	movweq	r0, #1304	; 0x518
    1284:	3b0b3a0e 	blcc	2cfac4 <__bss_end__+0x2c5d4c>
    1288:	490b390b 	stmdbmi	fp, {r0, r1, r3, r8, fp, ip, sp}
    128c:	b7170213 			; <UNDEFINED> instruction: 0xb7170213
    1290:	00001742 	andeq	r1, r0, r2, asr #14
    1294:	00003519 	andeq	r3, r0, r9, lsl r5
    1298:	002e1a00 	eoreq	r1, lr, r0, lsl #20
    129c:	193c193f 	ldmdbne	ip!, {r0, r1, r2, r3, r4, r5, r8, fp, ip}
    12a0:	0e030e6e 	cdpeq	14, 0, cr0, cr3, cr14, {3}
    12a4:	0b3b0b3a 	bleq	ec3f94 <__bss_end__+0xeba21c>
    12a8:	00000b39 	andeq	r0, r0, r9, lsr fp
    12ac:	01110100 	tsteq	r1, r0, lsl #2
    12b0:	0b130e25 	bleq	4c4b4c <__bss_end__+0x4badd4>
    12b4:	0e1b0e03 	cdpeq	14, 1, cr0, cr11, cr3, {0}
    12b8:	06120111 			; <UNDEFINED> instruction: 0x06120111
    12bc:	00001710 	andeq	r1, r0, r0, lsl r7
    12c0:	0b002402 	bleq	a2d0 <__bss_end__+0x558>
    12c4:	030b3e0b 	movweq	r3, #48651	; 0xbe0b
    12c8:	03000008 	movweq	r0, #8
    12cc:	0b0b0024 	bleq	2c1364 <__bss_end__+0x2b75ec>
    12d0:	0e030b3e 	vmoveq.16	d3[0], r0
    12d4:	16040000 	strne	r0, [r4], -r0
    12d8:	3a0e0300 	bcc	381ee0 <__bss_end__+0x378168>
    12dc:	390b3b0b 	stmdbcc	fp, {r0, r1, r3, r8, r9, fp, ip, sp}
    12e0:	0013490b 	andseq	r4, r3, fp, lsl #18
    12e4:	00260500 	eoreq	r0, r6, r0, lsl #10
    12e8:	00001349 	andeq	r1, r0, r9, asr #6
    12ec:	0b000f06 	bleq	4f0c <__code_start__-0x30f4>
    12f0:	0700000b 	streq	r0, [r0, -fp]
    12f4:	0b3e0104 	bleq	f8170c <__bss_end__+0xf77994>
    12f8:	13490b0b 	movtne	r0, #39691	; 0x9b0b
    12fc:	0b3b0b3a 	bleq	ec3fec <__bss_end__+0xeba274>
    1300:	13010b39 	movwne	r0, #6969	; 0x1b39
    1304:	28080000 	stmdacs	r8, {}	; <UNPREDICTABLE>
    1308:	1c0e0300 	stcne	3, cr0, [lr], {-0}
    130c:	09000006 	stmdbeq	r0, {r1, r2}
    1310:	0e030034 	mcreq	0, 0, r0, cr3, cr4, {1}
    1314:	0b3b0b3a 	bleq	ec4004 <__bss_end__+0xeba28c>
    1318:	13490b39 	movtne	r0, #39737	; 0x9b39
    131c:	193c193f 	ldmdbne	ip!, {r0, r1, r2, r3, r4, r5, r8, fp, ip}
    1320:	340a0000 	strcc	r0, [sl], #-0
    1324:	3a0e0300 	bcc	381f2c <__bss_end__+0x3781b4>
    1328:	390b3b0b 	stmdbcc	fp, {r0, r1, r3, r8, r9, fp, ip, sp}
    132c:	0213490b 	andseq	r4, r3, #180224	; 0x2c000
    1330:	0b000018 	bleq	1398 <__code_start__-0x6c68>
    1334:	0b0b000f 	bleq	2c1378 <__bss_end__+0x2b7600>
    1338:	00001349 	andeq	r1, r0, r9, asr #6
    133c:	3f012e0c 	svccc	0x00012e0c
    1340:	3a0e0319 	bcc	381fac <__bss_end__+0x378234>
    1344:	390b3b0b 	stmdbcc	fp, {r0, r1, r3, r8, r9, fp, ip, sp}
    1348:	1119270b 	tstne	r9, fp, lsl #14
    134c:	40061201 	andmi	r1, r6, r1, lsl #4
    1350:	19429718 	stmdbne	r2, {r3, r4, r8, r9, sl, ip, pc}^
    1354:	00001301 	andeq	r1, r0, r1, lsl #6
    1358:	0300050d 	movweq	r0, #1293	; 0x50d
    135c:	3b0b3a08 	blcc	2cfb84 <__bss_end__+0x2c5e0c>
    1360:	490b390b 	stmdbmi	fp, {r0, r1, r3, r8, fp, ip, sp}
    1364:	b7170213 			; <UNDEFINED> instruction: 0xb7170213
    1368:	00001742 	andeq	r1, r0, r2, asr #14
    136c:	0300340e 	movweq	r3, #1038	; 0x40e
    1370:	3413490e 	ldrcc	r4, [r3], #-2318	; 0xfffff6f2
    1374:	00180219 	andseq	r0, r8, r9, lsl r2
    1378:	82890f00 	addhi	r0, r9, #0, 30
    137c:	01110101 	tsteq	r1, r1, lsl #2
    1380:	13011331 	movwne	r1, #4913	; 0x1331
    1384:	8a100000 	bhi	40138c <__bss_end__+0x3f7614>
    1388:	02000182 	andeq	r0, r0, #-2147483616	; 0x80000020
    138c:	18429118 	stmdane	r2, {r3, r4, r8, ip, pc}^
    1390:	89110000 	ldmdbhi	r1, {}	; <UNPREDICTABLE>
    1394:	11000182 	smlabbne	r0, r2, r1, r0
    1398:	00133101 	andseq	r3, r3, r1, lsl #2
    139c:	01011200 	mrseq	r1, R9_usr
    13a0:	13011349 	movwne	r1, #4937	; 0x1349
    13a4:	21130000 	tstcs	r3, r0
    13a8:	2f134900 	svccs	0x00134900
    13ac:	1400000b 	strne	r0, [r0], #-11
    13b0:	193f002e 	ldmdbne	pc!, {r1, r2, r3, r5}	; <UNPREDICTABLE>
    13b4:	0b3a0e03 	bleq	e84bc8 <__bss_end__+0xe7ae50>
    13b8:	0b390b3b 	bleq	e440ac <__bss_end__+0xe3a334>
    13bc:	01111927 	tsteq	r1, r7, lsr #18
    13c0:	18400612 	stmdane	r0, {r1, r4, r9, sl}^
    13c4:	00194297 	mulseq	r9, r7, r2
    13c8:	00051500 	andeq	r1, r5, r0, lsl #10
    13cc:	0b3a0803 	bleq	e833e0 <__bss_end__+0xe79668>
    13d0:	0b390b3b 	bleq	e440c4 <__bss_end__+0xe3a34c>
    13d4:	18021349 	stmdane	r2, {r0, r3, r6, r8, r9, ip}
    13d8:	2e160000 	cdpcs	0, 1, cr0, cr6, cr0, {0}
    13dc:	03193f01 	tsteq	r9, #1, 30
    13e0:	3b0b3a0e 	blcc	2cfc20 <__bss_end__+0x2c5ea8>
    13e4:	270b390b 	strcs	r3, [fp, -fp, lsl #18]
    13e8:	11134919 	tstne	r3, r9, lsl r9
    13ec:	40061201 	andmi	r1, r6, r1, lsl #4
    13f0:	19429718 	stmdbne	r2, {r3, r4, r8, r9, sl, ip, pc}^
    13f4:	00001301 	andeq	r1, r0, r1, lsl #6
    13f8:	03000517 	movweq	r0, #1303	; 0x517
    13fc:	3b0b3a0e 	blcc	2cfc3c <__bss_end__+0x2c5ec4>
    1400:	490b390b 	stmdbmi	fp, {r0, r1, r3, r8, fp, ip, sp}
    1404:	b7170213 			; <UNDEFINED> instruction: 0xb7170213
    1408:	00001742 	andeq	r1, r0, r2, asr #14
    140c:	03003418 	movweq	r3, #1048	; 0x418
    1410:	3b0b3a08 	blcc	2cfc38 <__bss_end__+0x2c5ec0>
    1414:	490b390b 	stmdbmi	fp, {r0, r1, r3, r8, fp, ip, sp}
    1418:	b7170213 			; <UNDEFINED> instruction: 0xb7170213
    141c:	00001742 	andeq	r1, r0, r2, asr #14
    1420:	31011d19 	tstcc	r1, r9, lsl sp
    1424:	b8015213 	stmdalt	r1, {r0, r1, r4, r9, ip, lr}
    1428:	01110b42 	tsteq	r1, r2, asr #22
    142c:	0b580612 	bleq	1602c7c <__bss_end__+0x15f8f04>
    1430:	0b570b59 	bleq	15c419c <__bss_end__+0x15ba424>
    1434:	00001301 	andeq	r1, r0, r1, lsl #6
    1438:	3100051a 	tstcc	r0, sl, lsl r5
    143c:	b7170213 			; <UNDEFINED> instruction: 0xb7170213
    1440:	00001742 	andeq	r1, r0, r2, asr #14
    1444:	31011d1b 	tstcc	r1, fp, lsl sp
    1448:	b8015213 	stmdalt	r1, {r0, r1, r4, r9, ip, lr}
    144c:	17550b42 	ldrbne	r0, [r5, -r2, asr #22]
    1450:	0b590b58 	bleq	16441b8 <__bss_end__+0x163a440>
    1454:	13010b57 	movwne	r0, #6999	; 0x1b57
    1458:	0b1c0000 	bleq	701460 <__bss_end__+0x6f76e8>
    145c:	00175501 	andseq	r5, r7, r1, lsl #10
    1460:	00341d00 	eorseq	r1, r4, r0, lsl #26
    1464:	0b3a0e03 	bleq	e84c78 <__bss_end__+0xe7af00>
    1468:	0b390b3b 	bleq	e4415c <__bss_end__+0xe3a3e4>
    146c:	17021349 	strne	r1, [r2, -r9, asr #6]
    1470:	001742b7 			; <UNDEFINED> instruction: 0x001742b7
    1474:	000b1e00 	andeq	r1, fp, r0, lsl #28
    1478:	00001755 	andeq	r1, r0, r5, asr r7
    147c:	3f002e1f 	svccc	0x00002e1f
    1480:	3a0e0319 	bcc	3820ec <__bss_end__+0x378374>
    1484:	390b3b0b 	stmdbcc	fp, {r0, r1, r3, r8, r9, fp, ip, sp}
    1488:	4919270b 	ldmdbmi	r9, {r0, r1, r3, r8, r9, sl, sp}
    148c:	12011113 	andne	r1, r1, #-1073741820	; 0xc0000004
    1490:	97184006 	ldrls	r4, [r8, -r6]
    1494:	00001942 	andeq	r1, r0, r2, asr #18
    1498:	03012e20 	movweq	r2, #7712	; 0x1e20
    149c:	3b0b3a0e 	blcc	2cfcdc <__bss_end__+0x2c5f64>
    14a0:	270b390b 	strcs	r3, [fp, -fp, lsl #18]
    14a4:	20134919 	andscs	r4, r3, r9, lsl r9
    14a8:	0013010b 	andseq	r0, r3, fp, lsl #2
    14ac:	00052100 	andeq	r2, r5, r0, lsl #2
    14b0:	0b3a0803 	bleq	e834c4 <__bss_end__+0xe7974c>
    14b4:	0b390b3b 	bleq	e441a8 <__bss_end__+0xe3a430>
    14b8:	00001349 	andeq	r1, r0, r9, asr #6
    14bc:	3f002e22 	svccc	0x00002e22
    14c0:	6e193c19 	mrcvs	12, 0, r3, cr9, cr9, {0}
    14c4:	3a0e030e 	bcc	382104 <__bss_end__+0x37838c>
    14c8:	390b3b0b 	stmdbcc	fp, {r0, r1, r3, r8, r9, fp, ip, sp}
    14cc:	0000000b 	andeq	r0, r0, fp
    14d0:	25011101 	strcs	r1, [r1, #-257]	; 0xfffffeff
    14d4:	030b130e 	movweq	r1, #45838	; 0xb30e
    14d8:	110e1b0e 	tstne	lr, lr, lsl #22
    14dc:	10061201 	andne	r1, r6, r1, lsl #4
    14e0:	02000017 	andeq	r0, r0, #23, 0
    14e4:	0b0b0024 	bleq	2c157c <__bss_end__+0x2b7804>
    14e8:	08030b3e 	stmdaeq	r3, {r1, r2, r3, r4, r5, r8, r9, fp}
    14ec:	24030000 	strcs	r0, [r3], #-0
    14f0:	3e0b0b00 	vmlacc.f64	d0, d11, d0
    14f4:	000e030b 	andeq	r0, lr, fp, lsl #6
    14f8:	01150400 	tsteq	r5, r0, lsl #8
    14fc:	13491927 	movtne	r1, #39207	; 0x9927
    1500:	00001301 	andeq	r1, r0, r1, lsl #6
    1504:	49000505 	stmdbmi	r0, {r0, r2, r8, sl}
    1508:	06000013 			; <UNDEFINED> instruction: 0x06000013
    150c:	0e030034 	mcreq	0, 0, r0, cr3, cr4, {1}
    1510:	0b3b0b3a 	bleq	ec4200 <__bss_end__+0xeba488>
    1514:	13490b39 	movtne	r0, #39737	; 0x9b39
    1518:	193c193f 	ldmdbne	ip!, {r0, r1, r2, r3, r4, r5, r8, fp, ip}
    151c:	0f070000 	svceq	0x00070000
    1520:	490b0b00 	stmdbmi	fp, {r8, r9, fp}
    1524:	08000013 	stmdaeq	r0, {r0, r1, r4}
    1528:	13490026 	movtne	r0, #36902	; 0x9026
    152c:	34090000 	strcc	r0, [r9], #-0
    1530:	3a134700 	bcc	4d3138 <__bss_end__+0x4c93c0>
    1534:	390b3b0b 	stmdbcc	fp, {r0, r1, r3, r8, r9, fp, ip, sp}
    1538:	0018020b 	andseq	r0, r8, fp, lsl #4
    153c:	012e0a00 			; <UNDEFINED> instruction: 0x012e0a00
    1540:	0e03193f 			; <UNDEFINED> instruction: 0x0e03193f
    1544:	0b3b0b3a 	bleq	ec4234 <__bss_end__+0xeba4bc>
    1548:	19270b39 	stmdbne	r7!, {r0, r3, r4, r5, r8, r9, fp}
    154c:	06120111 			; <UNDEFINED> instruction: 0x06120111
    1550:	42971840 	addsmi	r1, r7, #64, 16	; 0x400000
    1554:	00130119 	andseq	r0, r3, r9, lsl r1
    1558:	00050b00 	andeq	r0, r5, r0, lsl #22
    155c:	0b3a0803 	bleq	e83570 <__bss_end__+0xe797f8>
    1560:	0b390b3b 	bleq	e44254 <__bss_end__+0xe3a4dc>
    1564:	18021349 	stmdane	r2, {r0, r3, r6, r8, r9, ip}
    1568:	2e0c0000 	cdpcs	0, 0, cr0, cr12, cr0, {0}
    156c:	03193f00 	tsteq	r9, #0, 30
    1570:	3b0b3a0e 	blcc	2cfdb0 <__bss_end__+0x2c6038>
    1574:	270b390b 	strcs	r3, [fp, -fp, lsl #18]
    1578:	12011119 	andne	r1, r1, #1073741830	; 0x40000006
    157c:	97184006 	ldrls	r4, [r8, -r6]
    1580:	00001942 	andeq	r1, r0, r2, asr #18
    1584:	03012e0d 	movweq	r2, #7693	; 0x1e0d
    1588:	3b0b3a0e 	blcc	2cfdc8 <__bss_end__+0x2c6050>
    158c:	270b390b 	strcs	r3, [fp, -fp, lsl #18]
    1590:	11134919 	tstne	r3, r9, lsl r9
    1594:	40061201 	andmi	r1, r6, r1, lsl #4
    1598:	19429718 	stmdbne	r2, {r3, r4, r8, r9, sl, ip, pc}^
    159c:	00001301 	andeq	r1, r0, r1, lsl #6
    15a0:	0300050e 	movweq	r0, #1294	; 0x50e
    15a4:	3b0b3a08 	blcc	2cfdcc <__bss_end__+0x2c6054>
    15a8:	490b390b 	stmdbmi	fp, {r0, r1, r3, r8, fp, ip, sp}
    15ac:	b7170213 			; <UNDEFINED> instruction: 0xb7170213
    15b0:	00001742 	andeq	r1, r0, r2, asr #14
    15b4:	0182890f 	orreq	r8, r2, pc, lsl #18
    15b8:	31011101 	tstcc	r1, r1, lsl #2
    15bc:	10000013 	andne	r0, r0, r3, lsl r0
    15c0:	0001828a 	andeq	r8, r1, sl, lsl #5
    15c4:	42911802 	addsmi	r1, r1, #131072	; 0x20000
    15c8:	11000018 	tstne	r0, r8, lsl r0
    15cc:	193f002e 	ldmdbne	pc!, {r1, r2, r3, r5}	; <UNPREDICTABLE>
    15d0:	0e6e193c 			; <UNDEFINED> instruction: 0x0e6e193c
    15d4:	0b3a0e03 	bleq	e84de8 <__bss_end__+0xe7b070>
    15d8:	0b390b3b 	bleq	e442cc <__bss_end__+0xe3a554>
    15dc:	01000000 	mrseq	r0, (UNDEF: 0)
    15e0:	0e250111 	mcreq	1, 1, r0, cr5, cr1, {0}
    15e4:	0e030b13 	vmoveq.32	d3[0], r0
    15e8:	01110e1b 	tsteq	r1, fp, lsl lr
    15ec:	17100612 			; <UNDEFINED> instruction: 0x17100612
    15f0:	24020000 	strcs	r0, [r2], #-0
    15f4:	3e0b0b00 	vmlacc.f64	d0, d11, d0
    15f8:	0008030b 	andeq	r0, r8, fp, lsl #6
    15fc:	00240300 	eoreq	r0, r4, r0, lsl #6
    1600:	0b3e0b0b 	bleq	f84234 <__bss_end__+0xf7a4bc>
    1604:	00000e03 	andeq	r0, r0, r3, lsl #28
    1608:	27011504 	strcs	r1, [r1, -r4, lsl #10]
    160c:	01134919 	tsteq	r3, r9, lsl r9
    1610:	05000013 	streq	r0, [r0, #-19]	; 0xffffffed
    1614:	13490005 	movtne	r0, #36869	; 0x9005
    1618:	34060000 	strcc	r0, [r6], #-0
    161c:	3a0e0300 	bcc	382224 <__bss_end__+0x3784ac>
    1620:	390b3b0b 	stmdbcc	fp, {r0, r1, r3, r8, r9, fp, ip, sp}
    1624:	3f13490b 	svccc	0x0013490b
    1628:	00193c19 	andseq	r3, r9, r9, lsl ip
    162c:	000f0700 	andeq	r0, pc, r0, lsl #14
    1630:	13490b0b 	movtne	r0, #39691	; 0x9b0b
    1634:	26080000 	strcs	r0, [r8], -r0
    1638:	00134900 	andseq	r4, r3, r0, lsl #18
    163c:	012e0900 			; <UNDEFINED> instruction: 0x012e0900
    1640:	0e03193f 			; <UNDEFINED> instruction: 0x0e03193f
    1644:	0b3b0b3a 	bleq	ec4334 <__bss_end__+0xeba5bc>
    1648:	19270b39 	stmdbne	r7!, {r0, r3, r4, r5, r8, r9, fp}
    164c:	01111349 	tsteq	r1, r9, asr #6
    1650:	18400612 	stmdane	r0, {r1, r4, r9, sl}^
    1654:	01194297 			; <UNDEFINED> instruction: 0x01194297
    1658:	0a000013 	beq	16ac <__code_start__-0x6954>
    165c:	0e030005 	cdpeq	0, 0, cr0, cr3, cr5, {0}
    1660:	0b3b0b3a 	bleq	ec4350 <__bss_end__+0xeba5d8>
    1664:	13490b39 	movtne	r0, #39737	; 0x9b39
    1668:	00001802 	andeq	r1, r0, r2, lsl #16
    166c:	0300050b 	movweq	r0, #1291	; 0x50b
    1670:	3b0b3a08 	blcc	2cfe98 <__bss_end__+0x2c6120>
    1674:	490b390b 	stmdbmi	fp, {r0, r1, r3, r8, fp, ip, sp}
    1678:	b7170213 			; <UNDEFINED> instruction: 0xb7170213
    167c:	00001742 	andeq	r1, r0, r2, asr #14
    1680:	0300340c 	movweq	r3, #1036	; 0x40c
    1684:	3b0b3a08 	blcc	2cfeac <__bss_end__+0x2c6134>
    1688:	490b390b 	stmdbmi	fp, {r0, r1, r3, r8, fp, ip, sp}
    168c:	b7170213 			; <UNDEFINED> instruction: 0xb7170213
    1690:	00001742 	andeq	r1, r0, r2, asr #14
    1694:	01110100 	tsteq	r1, r0, lsl #2
    1698:	0b130e25 	bleq	4c4f34 <__bss_end__+0x4bb1bc>
    169c:	0e1b0e03 	cdpeq	14, 1, cr0, cr11, cr3, {0}
    16a0:	06120111 			; <UNDEFINED> instruction: 0x06120111
    16a4:	00001710 	andeq	r1, r0, r0, lsl r7
    16a8:	0b002402 	bleq	a6b8 <__bss_end__+0x940>
    16ac:	030b3e0b 	movweq	r3, #48651	; 0xbe0b
    16b0:	03000008 	movweq	r0, #8
    16b4:	0b0b0024 	bleq	2c174c <__bss_end__+0x2b79d4>
    16b8:	0e030b3e 	vmoveq.16	d3[0], r0
    16bc:	15040000 	strne	r0, [r4, #-0]
    16c0:	49192701 	ldmdbmi	r9, {r0, r8, r9, sl, sp}
    16c4:	00130113 	andseq	r0, r3, r3, lsl r1
    16c8:	00050500 	andeq	r0, r5, r0, lsl #10
    16cc:	00001349 	andeq	r1, r0, r9, asr #6
    16d0:	03003406 	movweq	r3, #1030	; 0x406
    16d4:	3b0b3a0e 	blcc	2cff14 <__bss_end__+0x2c619c>
    16d8:	490b390b 	stmdbmi	fp, {r0, r1, r3, r8, fp, ip, sp}
    16dc:	3c193f13 	ldccc	15, cr3, [r9], {19}
    16e0:	07000019 	smladeq	r0, r9, r0, r0
    16e4:	0b0b000f 	bleq	2c1728 <__bss_end__+0x2b79b0>
    16e8:	00001349 	andeq	r1, r0, r9, asr #6
    16ec:	49002608 	stmdbmi	r0, {r3, r9, sl, sp}
    16f0:	09000013 	stmdbeq	r0, {r0, r1, r4}
    16f4:	193f012e 	ldmdbne	pc!, {r1, r2, r3, r5, r8}	; <UNPREDICTABLE>
    16f8:	0b3a0e03 	bleq	e84f0c <__bss_end__+0xe7b194>
    16fc:	0b390b3b 	bleq	e443f0 <__bss_end__+0xe3a678>
    1700:	13491927 	movtne	r1, #39207	; 0x9927
    1704:	06120111 			; <UNDEFINED> instruction: 0x06120111
    1708:	42971840 	addsmi	r1, r7, #64, 16	; 0x400000
    170c:	0a000019 	beq	1778 <__code_start__-0x6888>
    1710:	08030005 	stmdaeq	r3, {r0, r2}
    1714:	0b3b0b3a 	bleq	ec4404 <__bss_end__+0xeba68c>
    1718:	13490b39 	movtne	r0, #39737	; 0x9b39
    171c:	42b71702 	adcsmi	r1, r7, #524288	; 0x80000
    1720:	00000017 	andeq	r0, r0, r7, lsl r0
    1724:	25011101 	strcs	r1, [r1, #-257]	; 0xfffffeff
    1728:	030b130e 	movweq	r1, #45838	; 0xb30e
    172c:	110e1b0e 	tstne	lr, lr, lsl #22
    1730:	10061201 	andne	r1, r6, r1, lsl #4
    1734:	02000017 	andeq	r0, r0, #23, 0
    1738:	0b0b0024 	bleq	2c17d0 <__bss_end__+0x2b7a58>
    173c:	08030b3e 	stmdaeq	r3, {r1, r2, r3, r4, r5, r8, r9, fp}
    1740:	24030000 	strcs	r0, [r3], #-0
    1744:	3e0b0b00 	vmlacc.f64	d0, d11, d0
    1748:	000e030b 	andeq	r0, lr, fp, lsl #6
    174c:	01150400 	tsteq	r5, r0, lsl #8
    1750:	13491927 	movtne	r1, #39207	; 0x9927
    1754:	00001301 	andeq	r1, r0, r1, lsl #6
    1758:	49000505 	stmdbmi	r0, {r0, r2, r8, sl}
    175c:	06000013 			; <UNDEFINED> instruction: 0x06000013
    1760:	0e030034 	mcreq	0, 0, r0, cr3, cr4, {1}
    1764:	0b3b0b3a 	bleq	ec4454 <__bss_end__+0xeba6dc>
    1768:	13490b39 	movtne	r0, #39737	; 0x9b39
    176c:	193c193f 	ldmdbne	ip!, {r0, r1, r2, r3, r4, r5, r8, fp, ip}
    1770:	0f070000 	svceq	0x00070000
    1774:	490b0b00 	stmdbmi	fp, {r8, r9, fp}
    1778:	08000013 	stmdaeq	r0, {r0, r1, r4}
    177c:	13490026 	movtne	r0, #36902	; 0x9026
    1780:	2e090000 	cdpcs	0, 0, cr0, cr9, cr0, {0}
    1784:	03193f01 	tsteq	r9, #1, 30
    1788:	3b0b3a0e 	blcc	2cffc8 <__bss_end__+0x2c6250>
    178c:	270b390b 	strcs	r3, [fp, -fp, lsl #18]
    1790:	11134919 	tstne	r3, r9, lsl r9
    1794:	40061201 	andmi	r1, r6, r1, lsl #4
    1798:	19429718 	stmdbne	r2, {r3, r4, r8, r9, sl, ip, pc}^
    179c:	00001301 	andeq	r1, r0, r1, lsl #6
    17a0:	0300050a 	movweq	r0, #1290	; 0x50a
    17a4:	3b0b3a08 	blcc	2cffcc <__bss_end__+0x2c6254>
    17a8:	490b390b 	stmdbmi	fp, {r0, r1, r3, r8, fp, ip, sp}
    17ac:	00180213 	andseq	r0, r8, r3, lsl r2
    17b0:	00050b00 	andeq	r0, r5, r0, lsl #22
    17b4:	0b3a0803 	bleq	e837c8 <__bss_end__+0xe79a50>
    17b8:	0b390b3b 	bleq	e444ac <__bss_end__+0xe3a734>
    17bc:	17021349 	strne	r1, [r2, -r9, asr #6]
    17c0:	001742b7 			; <UNDEFINED> instruction: 0x001742b7
    17c4:	00340c00 	eorseq	r0, r4, r0, lsl #24
    17c8:	0b3a0803 	bleq	e837dc <__bss_end__+0xe79a64>
    17cc:	0b390b3b 	bleq	e444c0 <__bss_end__+0xe3a748>
    17d0:	17021349 	strne	r1, [r2, -r9, asr #6]
    17d4:	001742b7 			; <UNDEFINED> instruction: 0x001742b7
    17d8:	11010000 	mrsne	r0, (UNDEF: 1)
    17dc:	130e2501 	movwne	r2, #58625	; 0xe501
    17e0:	1b0e030b 	blne	382414 <__bss_end__+0x37869c>
    17e4:	1117550e 	tstne	r7, lr, lsl #10
    17e8:	00171001 	andseq	r1, r7, r1
    17ec:	00240200 	eoreq	r0, r4, r0, lsl #4
    17f0:	0b3e0b0b 	bleq	f84424 <__bss_end__+0xf7a6ac>
    17f4:	00000803 	andeq	r0, r0, r3, lsl #16
    17f8:	03001603 	movweq	r1, #1539	; 0x603
    17fc:	3b0b3a0e 	blcc	2d003c <__bss_end__+0x2c62c4>
    1800:	490b390b 	stmdbmi	fp, {r0, r1, r3, r8, fp, ip, sp}
    1804:	04000013 	streq	r0, [r0], #-19	; 0xffffffed
    1808:	0b0b0024 	bleq	2c18a0 <__bss_end__+0x2b7b28>
    180c:	0e030b3e 	vmoveq.16	d3[0], r0
    1810:	26050000 	strcs	r0, [r5], -r0
    1814:	00134900 	andseq	r4, r3, r0, lsl #18
    1818:	01150600 	tsteq	r5, r0, lsl #12
    181c:	13491927 	movtne	r1, #39207	; 0x9927
    1820:	00001301 	andeq	r1, r0, r1, lsl #6
    1824:	49000507 	stmdbmi	r0, {r0, r1, r2, r8, sl}
    1828:	08000013 	stmdaeq	r0, {r0, r1, r4}
    182c:	0e030034 	mcreq	0, 0, r0, cr3, cr4, {1}
    1830:	0b3b0b3a 	bleq	ec4520 <__bss_end__+0xeba7a8>
    1834:	13490b39 	movtne	r0, #39737	; 0x9b39
    1838:	193c193f 	ldmdbne	ip!, {r0, r1, r2, r3, r4, r5, r8, fp, ip}
    183c:	0f090000 	svceq	0x00090000
    1840:	490b0b00 	stmdbmi	fp, {r8, r9, fp}
    1844:	0a000013 	beq	1898 <__code_start__-0x6768>
    1848:	193f012e 	ldmdbne	pc!, {r1, r2, r3, r5, r8}	; <UNPREDICTABLE>
    184c:	0b3a0e03 	bleq	e85060 <__bss_end__+0xe7b2e8>
    1850:	0b390b3b 	bleq	e44544 <__bss_end__+0xe3a7cc>
    1854:	13491927 	movtne	r1, #39207	; 0x9927
    1858:	06120111 			; <UNDEFINED> instruction: 0x06120111
    185c:	42971840 	addsmi	r1, r7, #64, 16	; 0x400000
    1860:	00130119 	andseq	r0, r3, r9, lsl r1
    1864:	00050b00 	andeq	r0, r5, r0, lsl #22
    1868:	0b3a0803 	bleq	e8387c <__bss_end__+0xe79b04>
    186c:	0b390b3b 	bleq	e44560 <__bss_end__+0xe3a7e8>
    1870:	17021349 	strne	r1, [r2, -r9, asr #6]
    1874:	001742b7 			; <UNDEFINED> instruction: 0x001742b7
    1878:	00340c00 	eorseq	r0, r4, r0, lsl #24
    187c:	0b3a0803 	bleq	e83890 <__bss_end__+0xe79b18>
    1880:	0b390b3b 	bleq	e44574 <__bss_end__+0xe3a7fc>
    1884:	17021349 	strne	r1, [r2, -r9, asr #6]
    1888:	001742b7 			; <UNDEFINED> instruction: 0x001742b7
    188c:	11010000 	mrsne	r0, (UNDEF: 1)
    1890:	130e2501 	movwne	r2, #58625	; 0xe501
    1894:	1b0e030b 	blne	3824c8 <__bss_end__+0x378750>
    1898:	1201110e 	andne	r1, r1, #-2147483645	; 0x80000003
    189c:	00171006 	andseq	r1, r7, r6
    18a0:	00240200 	eoreq	r0, r4, r0, lsl #4
    18a4:	0b3e0b0b 	bleq	f844d8 <__bss_end__+0xf7a760>
    18a8:	00000803 	andeq	r0, r0, r3, lsl #16
    18ac:	0b002403 	bleq	a8c0 <__bss_end__+0xb48>
    18b0:	030b3e0b 	movweq	r3, #48651	; 0xbe0b
    18b4:	0400000e 	streq	r0, [r0], #-14
    18b8:	19270115 	stmdbne	r7!, {r0, r2, r4, r8}
    18bc:	13011349 	movwne	r1, #4937	; 0x1349
    18c0:	05050000 	streq	r0, [r5, #-0]
    18c4:	00134900 	andseq	r4, r3, r0, lsl #18
    18c8:	00340600 	eorseq	r0, r4, r0, lsl #12
    18cc:	0b3a0e03 	bleq	e850e0 <__bss_end__+0xe7b368>
    18d0:	0b390b3b 	bleq	e445c4 <__bss_end__+0xe3a84c>
    18d4:	193f1349 	ldmdbne	pc!, {r0, r3, r6, r8, r9, ip}	; <UNPREDICTABLE>
    18d8:	0000193c 	andeq	r1, r0, ip, lsr r9
    18dc:	0b000f07 	bleq	5500 <__code_start__-0x2b00>
    18e0:	0013490b 	andseq	r4, r3, fp, lsl #18
    18e4:	00260800 	eoreq	r0, r6, r0, lsl #16
    18e8:	00001349 	andeq	r1, r0, r9, asr #6
    18ec:	3f002e09 	svccc	0x00002e09
    18f0:	3a0e0319 	bcc	38255c <__bss_end__+0x3787e4>
    18f4:	390b3b0b 	stmdbcc	fp, {r0, r1, r3, r8, r9, fp, ip, sp}
    18f8:	1119270b 	tstne	r9, fp, lsl #14
    18fc:	40061201 	andmi	r1, r6, r1, lsl #4
    1900:	19429718 	stmdbne	r2, {r3, r4, r8, r9, sl, ip, pc}^
    1904:	Address 0x0000000000001904 is out of bounds.


Disassembly of section .debug_loc:

00000000 <.debug_loc>:
       0:	01000002 	tsteq	r0, r2
       4:	00000001 	andeq	r0, r0, r1
       8:	000000c4 	andeq	r0, r0, r4, asr #1
       c:	000000e0 	andeq	r0, r0, r0, ror #1
      10:	9f300002 	svcls	0x00300002
      14:	000000e0 	andeq	r0, r0, r0, ror #1
      18:	00000188 	andeq	r0, r0, r8, lsl #3
      1c:	77320005 	ldrvc	r0, [r2, -r5]!
      20:	889f1c00 	ldmhi	pc, {sl, fp, ip}	; <UNPREDICTABLE>
      24:	8c000001 	stchi	0, cr0, [r0], {1}
      28:	05000001 	streq	r0, [r0, #-1]
      2c:	00773300 	rsbseq	r3, r7, r0, lsl #6
      30:	018c9f1c 	orreq	r9, ip, ip, lsl pc
      34:	01b00000 	movseq	r0, r0
      38:	00050000 	andeq	r0, r5, r0
      3c:	1c007732 	stcne	7, cr7, [r0], {50}	; 0x32
      40:	0000009f 	muleq	r0, pc, r0	; <UNPREDICTABLE>
      44:	00000000 	andeq	r0, r0, r0
      48:	e8000100 	stmda	r0, {r8}
      4c:	0c000000 	stceq	0, cr0, [r0], {-0}
      50:	03000001 	movweq	r0, #1
      54:	9fff0900 	svcls	0x00ff0900
	...
      60:	00e80001 	rsceq	r0, r8, r1
      64:	010c0000 	mrseq	r0, (UNDEF: 12)
      68:	00020000 	andeq	r0, r2, r0
      6c:	00009f30 	andeq	r9, r0, r0, lsr pc
      70:	00000000 	andeq	r0, r0, r0
      74:	00010000 	andeq	r0, r1, r0
      78:	000000e8 	andeq	r0, r0, r8, ror #1
      7c:	0000010c 	andeq	r0, r0, ip, lsl #2
      80:	9f450002 	svcls	0x00450002
	...
      8c:	010c0002 	tsteq	ip, r2
      90:	012c0000 			; <UNDEFINED> instruction: 0x012c0000
      94:	00020000 	andeq	r0, r2, r0
      98:	00009f45 	andeq	r9, r0, r5, asr #30
      9c:	00000000 	andeq	r0, r0, r0
      a0:	00040000 	andeq	r0, r4, r0
      a4:	0000010c 	andeq	r0, r0, ip, lsl #2
      a8:	0000012c 	andeq	r0, r0, ip, lsr #2
      ac:	9f450002 	svcls	0x00450002
	...
      b8:	010c0006 	tsteq	ip, r6
      bc:	012c0000 			; <UNDEFINED> instruction: 0x012c0000
      c0:	00040000 	andeq	r0, r4, r0
      c4:	9fa4100a 	svcls	0x00a4100a
	...
      d0:	010c0006 	tsteq	ip, r6
      d4:	012c0000 			; <UNDEFINED> instruction: 0x012c0000
      d8:	00020000 	andeq	r0, r2, r0
      dc:	00009f45 	andeq	r9, r0, r5, asr #30
	...
      e8:	00000114 	andeq	r0, r0, r4, lsl r1
      ec:	0000012c 	andeq	r0, r0, ip, lsr #2
      f0:	00520001 	subseq	r0, r2, r1
      f4:	00000000 	andeq	r0, r0, r0
      f8:	01000000 	mrseq	r0, (UNDEF: 0)
      fc:	00011400 	andeq	r1, r1, r0, lsl #8
     100:	00011c00 	andeq	r1, r1, r0, lsl #24
     104:	45000200 	strmi	r0, [r0, #-512]	; 0xfffffe00
     108:	0000009f 	muleq	r0, pc, r0	; <UNPREDICTABLE>
     10c:	00000000 	andeq	r0, r0, r0
     110:	20000100 	andcs	r0, r0, r0, lsl #2
     114:	24000001 	strcs	r0, [r0], #-1
     118:	01000001 	tsteq	r0, r1
     11c:	00005300 	andeq	r5, r0, r0, lsl #6
	...
     128:	00000120 	andeq	r0, r0, r0, lsr #2
     12c:	00000124 	andeq	r0, r0, r4, lsr #2
     130:	00530001 	subseq	r0, r3, r1
	...
     13c:	10000000 	andne	r0, r0, r0
     140:	14000001 	strne	r0, [r0], #-1
     144:	01000001 	tsteq	r0, r1
     148:	01145200 	tsteq	r4, r0, lsl #4
     14c:	012c0000 			; <UNDEFINED> instruction: 0x012c0000
     150:	00030000 	andeq	r0, r3, r0
     154:	009f1072 	addseq	r1, pc, r2, ror r0	; <UNPREDICTABLE>
     158:	00000000 	andeq	r0, r0, r0
     15c:	01000000 	mrseq	r0, (UNDEF: 0)
     160:	00013c00 	andeq	r3, r1, r0, lsl #24
     164:	00016000 	andeq	r6, r1, r0
     168:	30000200 	andcc	r0, r0, r0, lsl #4
     16c:	0000009f 	muleq	r0, pc, r0	; <UNPREDICTABLE>
     170:	00000000 	andeq	r0, r0, r0
     174:	3c000100 	stfccs	f0, [r0], {-0}
     178:	60000001 	andvs	r0, r0, r1
     17c:	02000001 	andeq	r0, r0, #1, 0
     180:	009f4500 	addseq	r4, pc, r0, lsl #10
     184:	00000000 	andeq	r0, r0, r0
     188:	02000000 	andeq	r0, r0, #0, 0
     18c:	00016000 	andeq	r6, r1, r0
     190:	00018000 	andeq	r8, r1, r0
     194:	45000200 	strmi	r0, [r0, #-512]	; 0xfffffe00
     198:	0000009f 	muleq	r0, pc, r0	; <UNPREDICTABLE>
     19c:	00000000 	andeq	r0, r0, r0
     1a0:	60000400 	andvs	r0, r0, r0, lsl #8
     1a4:	80000001 	andhi	r0, r0, r1
     1a8:	02000001 	andeq	r0, r0, #1, 0
     1ac:	009f4500 	addseq	r4, pc, r0, lsl #10
     1b0:	00000000 	andeq	r0, r0, r0
     1b4:	06000000 	streq	r0, [r0], -r0
     1b8:	00016000 	andeq	r6, r1, r0
     1bc:	00018000 	andeq	r8, r1, r0
     1c0:	0a000400 	beq	11c8 <__code_start__-0x6e38>
     1c4:	009fa410 	addseq	sl, pc, r0, lsl r4	; <UNPREDICTABLE>
     1c8:	00000000 	andeq	r0, r0, r0
     1cc:	06000000 	streq	r0, [r0], -r0
     1d0:	00016000 	andeq	r6, r1, r0
     1d4:	00018000 	andeq	r8, r1, r0
     1d8:	45000200 	strmi	r0, [r0, #-512]	; 0xfffffe00
     1dc:	0000009f 	muleq	r0, pc, r0	; <UNPREDICTABLE>
     1e0:	00000000 	andeq	r0, r0, r0
     1e4:	68000000 	stmdavs	r0, {}	; <UNPREDICTABLE>
     1e8:	80000001 	andhi	r0, r0, r1
     1ec:	01000001 	tsteq	r0, r1
     1f0:	00005200 	andeq	r5, r0, r0, lsl #4
	...
     1fc:	01640000 	cmneq	r4, r0
     200:	01680000 	cmneq	r8, r0
     204:	00010000 	andeq	r0, r1, r0
     208:	00016852 	andeq	r6, r1, r2, asr r8
     20c:	00018000 	andeq	r8, r1, r0
     210:	72000300 	andvc	r0, r0, #0, 6
     214:	00009f10 	andeq	r9, r0, r0, lsl pc
     218:	00000000 	andeq	r0, r0, r0
     21c:	00010000 	andeq	r0, r1, r0
     220:	00000168 	andeq	r0, r0, r8, ror #2
     224:	00000170 	andeq	r0, r0, r0, ror r1
     228:	9f450002 	svcls	0x00450002
	...
     234:	01740001 	cmneq	r4, r1
     238:	01780000 	cmneq	r8, r0
     23c:	00010000 	andeq	r0, r1, r0
     240:	00000053 	andeq	r0, r0, r3, asr r0
     244:	00000000 	andeq	r0, r0, r0
     248:	74000000 	strvc	r0, [r0], #-0
     24c:	78000001 	stmdavc	r0, {r0}
     250:	01000001 	tsteq	r0, r1
     254:	00005300 	andeq	r5, r0, r0, lsl #6
	...
     264:	000c0000 	andeq	r0, ip, r0
     268:	00010000 	andeq	r0, r1, r0
     26c:	00000c50 	andeq	r0, r0, r0, asr ip
     270:	0000b400 	andeq	fp, r0, r0, lsl #8
     274:	f3000400 	vshl.u8	d0, d0, d0
     278:	009f5001 	addseq	r5, pc, r1
     27c:	00000000 	andeq	r0, r0, r0
     280:	02000000 	andeq	r0, r0, #0, 0
     284:	02020000 	andeq	r0, r2, #0, 0
     288:	04000000 	streq	r0, [r0], #-0
     28c:	1c000000 	stcne	0, cr0, [r0], {-0}
     290:	02000000 	andeq	r0, r0, #0, 0
     294:	1c9f3000 	ldcne	0, cr3, [pc], {0}
     298:	48000000 	stmdami	r0, {}	; <UNPREDICTABLE>
     29c:	05000000 	streq	r0, [r0, #-0]
     2a0:	00723700 	rsbseq	r3, r2, r0, lsl #14
     2a4:	00489f1c 	subeq	r9, r8, ip, lsl pc
     2a8:	004c0000 	subeq	r0, ip, r0
     2ac:	00050000 	andeq	r0, r5, r0
     2b0:	1c007238 	sfmne	f7, 4, [r0], {56}	; 0x38
     2b4:	00004c9f 	muleq	r0, pc, ip	; <UNPREDICTABLE>
     2b8:	0000b400 	andeq	fp, r0, r0, lsl #8
     2bc:	37000500 	strcc	r0, [r0, -r0, lsl #10]
     2c0:	9f1c0072 	svcls	0x001c0072
	...
     2d0:	001c0001 	andseq	r0, ip, r1
     2d4:	004c0000 	subeq	r0, ip, r0
     2d8:	00010000 	andeq	r0, r1, r0
     2dc:	00004c52 	andeq	r4, r0, r2, asr ip
     2e0:	00005400 	andeq	r5, r0, r0, lsl #8
     2e4:	72000300 	andvc	r0, r0, #0, 6
     2e8:	00549f01 	subseq	r9, r4, r1, lsl #30
     2ec:	00b40000 	adcseq	r0, r4, r0
     2f0:	00010000 	andeq	r0, r1, r0
     2f4:	00000052 	andeq	r0, r0, r2, asr r0
     2f8:	00000000 	andeq	r0, r0, r0
     2fc:	02000000 	andeq	r0, r0, #0, 0
     300:	00001c00 	andeq	r1, r0, r0, lsl #24
     304:	00004800 	andeq	r4, r0, r0, lsl #16
     308:	71000b00 	tstvc	r0, r0, lsl #22
     30c:	1aff0800 	bne	fffc2314 <__bss_end__+0xfffb859c>
     310:	31260072 			; <UNDEFINED> instruction: 0x31260072
     314:	00549f1a 	subseq	r9, r4, sl, lsl pc
     318:	00b40000 	adcseq	r0, r4, r0
     31c:	000b0000 	andeq	r0, fp, r0
     320:	ff080071 			; <UNDEFINED> instruction: 0xff080071
     324:	2600721a 			; <UNDEFINED> instruction: 0x2600721a
     328:	009f1a31 	addseq	r1, pc, r1, lsr sl	; <UNPREDICTABLE>
	...
     334:	1c000200 	sfmne	f0, 4, [r0], {-0}
     338:	48000000 	stmdami	r0, {}	; <UNPREDICTABLE>
     33c:	04000000 	streq	r0, [r0], #-0
     340:	5001f300 	andpl	pc, r1, r0, lsl #6
     344:	0000549f 	muleq	r0, pc, r4	; <UNPREDICTABLE>
     348:	0000b400 	andeq	fp, r0, r0, lsl #8
     34c:	f3000400 	vshl.u8	d0, d0, d0
     350:	009f5001 	addseq	r5, pc, r1
     354:	00000000 	andeq	r0, r0, r0
     358:	02000000 	andeq	r0, r0, #0, 0
     35c:	00007000 	andeq	r7, r0, r0
     360:	00008c00 	andeq	r8, r0, r0, lsl #24
     364:	f3000400 	vshl.u8	d0, d0, d0
     368:	009f5001 	addseq	r5, pc, r1
     36c:	00000000 	andeq	r0, r0, r0
     370:	04000000 	streq	r0, [r0], #-0
     374:	00007000 	andeq	r7, r0, r0
     378:	00008c00 	andeq	r8, r0, r0, lsl #24
     37c:	0a000400 	beq	1384 <__code_start__-0x6c7c>
     380:	009f0266 	addseq	r0, pc, r6, ror #4
     384:	00000000 	andeq	r0, r0, r0
     388:	04000000 	streq	r0, [r0], #-0
     38c:	00007000 	andeq	r7, r0, r0
     390:	00008c00 	andeq	r8, r0, r0, lsl #24
     394:	f3000400 	vshl.u8	d0, d0, d0
     398:	009f5001 	addseq	r5, pc, r1
	...
     3a4:	00007800 	andeq	r7, r0, r0, lsl #16
     3a8:	00008c00 	andeq	r8, r0, r0, lsl #24
     3ac:	5c000100 	stfpls	f0, [r0], {-0}
	...
     3b8:	00780001 	rsbseq	r0, r8, r1
     3bc:	007c0000 	rsbseq	r0, ip, r0
     3c0:	00040000 	andeq	r0, r4, r0
     3c4:	9f5001f3 	svcls	0x005001f3
	...
     3d0:	00800001 	addeq	r0, r0, r1
     3d4:	00840000 	addeq	r0, r4, r0
     3d8:	00010000 	andeq	r0, r1, r0
     3dc:	00000053 	andeq	r0, r0, r3, asr r0
     3e0:	00000000 	andeq	r0, r0, r0
     3e4:	80000000 	andhi	r0, r0, r0
     3e8:	84000000 	strhi	r0, [r0], #-0
     3ec:	01000000 	mrseq	r0, (UNDEF: 0)
     3f0:	00005300 	andeq	r5, r0, r0, lsl #6
	...
     3fc:	00740000 	rsbseq	r0, r4, r0
     400:	00780000 	rsbseq	r0, r8, r0
     404:	00010000 	andeq	r0, r1, r0
     408:	0000785c 	andeq	r7, r0, ip, asr r8
     40c:	00008c00 	andeq	r8, r0, r0, lsl #24
     410:	7c000300 	stcvc	3, cr0, [r0], {-0}
     414:	00009f10 	andeq	r9, r0, r0, lsl pc
	...
     420:	001c0001 	andseq	r0, ip, r1
     424:	002c0000 	eoreq	r0, ip, r0
     428:	00040000 	andeq	r0, r4, r0
     42c:	9f5001f3 	svcls	0x005001f3
     430:	00000060 	andeq	r0, r0, r0, rrx
     434:	00000070 	andeq	r0, r0, r0, ror r0
     438:	01f30004 	mvnseq	r0, r4
     43c:	00009f50 	andeq	r9, r0, r0, asr pc
	...
     448:	001c0003 	andseq	r0, ip, r3
     44c:	002c0000 	eoreq	r0, ip, r0
     450:	00030000 	andeq	r0, r3, r0
     454:	609fe508 	addsvs	lr, pc, r8, lsl #10
     458:	70000000 	andvc	r0, r0, r0
     45c:	03000000 	movweq	r0, #0
     460:	9fe50800 	svcls	0x00e50800
	...
     46c:	00030000 	andeq	r0, r3, r0
     470:	0000001c 	andeq	r0, r0, ip, lsl r0
     474:	0000002c 	andeq	r0, r0, ip, lsr #32
     478:	01f30004 	mvnseq	r0, r4
     47c:	00609f50 	rsbeq	r9, r0, r0, asr pc
     480:	00700000 	rsbseq	r0, r0, r0
     484:	00040000 	andeq	r0, r4, r0
     488:	9f5001f3 	svcls	0x005001f3
	...
     498:	0000001c 	andeq	r0, r0, ip, lsl r0
     49c:	0000002c 	andeq	r0, r0, ip, lsr #32
     4a0:	685c0001 	ldmdavs	ip, {r0}^
     4a4:	70000000 	andvc	r0, r0, r0
     4a8:	01000000 	mrseq	r0, (UNDEF: 0)
     4ac:	00005c00 	andeq	r5, r0, r0, lsl #24
     4b0:	00000000 	andeq	r0, r0, r0
     4b4:	00010000 	andeq	r0, r1, r0
     4b8:	00000020 	andeq	r0, r0, r0, lsr #32
     4bc:	00000024 	andeq	r0, r0, r4, lsr #32
     4c0:	00530001 	subseq	r0, r3, r1
	...
     4cc:	00002000 	andeq	r2, r0, r0
     4d0:	00002400 	andeq	r2, r0, r0, lsl #8
     4d4:	53000100 	movwpl	r0, #256	; 0x100
	...
     4e4:	001c0000 	andseq	r0, ip, r0
     4e8:	002c0000 	eoreq	r0, ip, r0
     4ec:	00030000 	andeq	r0, r3, r0
     4f0:	649f107c 	ldrvs	r1, [pc], #124	; 4f8 <__code_start__-0x7b08>
     4f4:	68000000 	stmdavs	r0, {}	; <UNPREDICTABLE>
     4f8:	01000000 	mrseq	r0, (UNDEF: 0)
     4fc:	00685c00 	rsbeq	r5, r8, r0, lsl #24
     500:	00700000 	rsbseq	r0, r0, r0
     504:	00030000 	andeq	r0, r3, r0
     508:	009f107c 	addseq	r1, pc, ip, ror r0	; <UNPREDICTABLE>
     50c:	00000000 	andeq	r0, r0, r0
     510:	01000000 	mrseq	r0, (UNDEF: 0)
     514:	00006800 	andeq	r6, r0, r0, lsl #16
     518:	00007000 	andeq	r7, r0, r0
     51c:	f3000400 	vshl.u8	d0, d0, d0
     520:	009f5001 	addseq	r5, pc, r1
     524:	00000000 	andeq	r0, r0, r0
     528:	02000000 	andeq	r0, r0, #0, 0
     52c:	00002c00 	andeq	r2, r0, r0, lsl #24
     530:	00004800 	andeq	r4, r0, r0, lsl #16
     534:	f3000400 	vshl.u8	d0, d0, d0
     538:	009f5001 	addseq	r5, pc, r1
     53c:	00000000 	andeq	r0, r0, r0
     540:	04000000 	streq	r0, [r0], #-0
     544:	00002c00 	andeq	r2, r0, r0, lsl #24
     548:	00004800 	andeq	r4, r0, r0, lsl #16
     54c:	0a000400 	beq	1554 <__code_start__-0x6aac>
     550:	009f0266 	addseq	r0, pc, r6, ror #4
     554:	00000000 	andeq	r0, r0, r0
     558:	04000000 	streq	r0, [r0], #-0
     55c:	00002c00 	andeq	r2, r0, r0, lsl #24
     560:	00004800 	andeq	r4, r0, r0, lsl #16
     564:	f3000400 	vshl.u8	d0, d0, d0
     568:	009f5001 	addseq	r5, pc, r1
	...
     574:	00003400 	andeq	r3, r0, r0, lsl #8
     578:	00004800 	andeq	r4, r0, r0, lsl #16
     57c:	5c000100 	stfpls	f0, [r0], {-0}
	...
     58c:	00000030 	andeq	r0, r0, r0, lsr r0
     590:	00000034 	andeq	r0, r0, r4, lsr r0
     594:	345c0001 	ldrbcc	r0, [ip], #-1
     598:	48000000 	stmdami	r0, {}	; <UNPREDICTABLE>
     59c:	03000000 	movweq	r0, #0
     5a0:	9f107c00 	svcls	0x00107c00
	...
     5ac:	00340001 	eorseq	r0, r4, r1
     5b0:	00380000 	eorseq	r0, r8, r0
     5b4:	00040000 	andeq	r0, r4, r0
     5b8:	9f5001f3 	svcls	0x005001f3
	...
     5c4:	003c0001 	eorseq	r0, ip, r1
     5c8:	00400000 	subeq	r0, r0, r0
     5cc:	00010000 	andeq	r0, r1, r0
     5d0:	00000053 	andeq	r0, r0, r3, asr r0
     5d4:	00000000 	andeq	r0, r0, r0
     5d8:	3c000000 	stccc	0, cr0, [r0], {-0}
     5dc:	40000000 	andmi	r0, r0, r0
     5e0:	01000000 	mrseq	r0, (UNDEF: 0)
     5e4:	00005300 	andeq	r5, r0, r0, lsl #6
     5e8:	00000000 	andeq	r0, r0, r0
     5ec:	00020000 	andeq	r0, r2, r0
     5f0:	0000008c 	andeq	r0, r0, ip, lsl #1
     5f4:	000000b4 	strheq	r0, [r0], -r4
     5f8:	01f30004 	mvnseq	r0, r4
     5fc:	00009f50 	andeq	r9, r0, r0, asr pc
     600:	00000000 	andeq	r0, r0, r0
     604:	00040000 	andeq	r0, r4, r0
     608:	0000008c 	andeq	r0, r0, ip, lsl #1
     60c:	000000b4 	strheq	r0, [r0], -r4
     610:	01f30004 	mvnseq	r0, r4
     614:	00009f50 	andeq	r9, r0, r0, asr pc
	...
     620:	00000094 	muleq	r0, r4, r0
     624:	000000b4 	strheq	r0, [r0], -r4
     628:	005c0001 	subseq	r0, ip, r1
	...
     634:	90000000 	andls	r0, r0, r0
     638:	94000000 	strls	r0, [r0], #-0
     63c:	01000000 	mrseq	r0, (UNDEF: 0)
     640:	00945c00 	addseq	r5, r4, r0, lsl #24
     644:	00b40000 	adcseq	r0, r4, r0
     648:	00030000 	andeq	r0, r3, r0
     64c:	009f107c 	addseq	r1, pc, ip, ror r0	; <UNPREDICTABLE>
     650:	00000000 	andeq	r0, r0, r0
     654:	01000000 	mrseq	r0, (UNDEF: 0)
     658:	00009400 	andeq	r9, r0, r0, lsl #8
     65c:	00009800 	andeq	r9, r0, r0, lsl #16
     660:	f3000400 	vshl.u8	d0, d0, d0
     664:	009f5001 	addseq	r5, pc, r1
     668:	00000000 	andeq	r0, r0, r0
     66c:	01000000 	mrseq	r0, (UNDEF: 0)
     670:	00009c00 	andeq	r9, r0, r0, lsl #24
     674:	0000a000 	andeq	sl, r0, r0
     678:	53000100 	movwpl	r0, #256	; 0x100
	...
     684:	009c0000 	addseq	r0, ip, r0
     688:	00a00000 	adceq	r0, r0, r0
     68c:	00010000 	andeq	r0, r1, r0
     690:	00000053 	andeq	r0, r0, r3, asr r0
	...
     69c:	00026800 	andeq	r6, r2, r0, lsl #16
     6a0:	00027c00 	andeq	r7, r2, r0, lsl #24
     6a4:	50000100 	andpl	r0, r0, r0, lsl #2
     6a8:	0000027c 	andeq	r0, r0, ip, ror r2
     6ac:	00000290 	muleq	r0, r0, r2
     6b0:	01f30004 	mvnseq	r0, r4
     6b4:	00009f50 	andeq	r9, r0, r0, asr pc
	...
     6c0:	02680000 	rsbeq	r0, r8, #0, 0
     6c4:	02780000 	rsbseq	r0, r8, #0, 0
     6c8:	00010000 	andeq	r0, r1, r0
     6cc:	00027851 	andeq	r7, r2, r1, asr r8
     6d0:	00029000 	andeq	r9, r2, r0
     6d4:	f3000400 	vshl.u8	d0, d0, d0
     6d8:	009f5101 	addseq	r5, pc, r1, lsl #2
	...
     6e4:	68000000 	stmdavs	r0, {}	; <UNPREDICTABLE>
     6e8:	88000002 	stmdahi	r0, {r1}
     6ec:	01000002 	tsteq	r0, r2
     6f0:	02885300 	addeq	r5, r8, #0, 6
     6f4:	02900000 	addseq	r0, r0, #0, 0
     6f8:	00020000 	andeq	r0, r2, r0
     6fc:	00000970 	andeq	r0, r0, r0, ror r9
	...
     708:	02580000 	subseq	r0, r8, #0, 0
     70c:	02630000 	rsbeq	r0, r3, #0, 0
     710:	00010000 	andeq	r0, r1, r0
     714:	00026350 	andeq	r6, r2, r0, asr r3
     718:	00026800 	andeq	r6, r2, r0, lsl #16
     71c:	f3000400 	vshl.u8	d0, d0, d0
     720:	009f5001 	addseq	r5, pc, r1
	...
     730:	18000002 	stmdane	r0, {r1}
     734:	01000002 	tsteq	r0, r2
     738:	02185000 	andseq	r5, r8, #0, 0
     73c:	02580000 	subseq	r0, r8, #0, 0
     740:	00010000 	andeq	r0, r1, r0
     744:	00000058 	andeq	r0, r0, r8, asr r0
	...
     750:	00020000 	andeq	r0, r2, r0
     754:	00021800 	andeq	r1, r2, r0, lsl #16
     758:	51000100 	mrspl	r0, (UNDEF: 16)
     75c:	00000218 	andeq	r0, r0, r8, lsl r2
     760:	00000258 	andeq	r0, r0, r8, asr r2
     764:	00570001 	subseq	r0, r7, r1
     768:	00000000 	andeq	r0, r0, r0
     76c:	02000000 	andeq	r0, r0, #0, 0
     770:	08000000 	stmdaeq	r0, {}	; <UNPREDICTABLE>
     774:	18000002 	stmdane	r0, {r1}
     778:	02000002 	andeq	r0, r0, #2, 0
     77c:	189f3000 	ldmne	pc, {ip, sp}	; <UNPREDICTABLE>
     780:	4c000002 	stcmi	0, cr0, [r0], {2}
     784:	01000002 	tsteq	r0, r2
     788:	00005600 	andeq	r5, r0, r0, lsl #12
	...
     794:	0000021c 	andeq	r0, r0, ip, lsl r2
     798:	00000240 	andeq	r0, r0, r0, asr #4
     79c:	9f300002 	svcls	0x00300002
	...
     7a8:	021c0000 	andseq	r0, ip, #0, 0
     7ac:	02400000 	subeq	r0, r0, #0, 0
     7b0:	00010000 	andeq	r0, r1, r0
     7b4:	00000054 	andeq	r0, r0, r4, asr r0
	...
     7c0:	0001c800 	andeq	ip, r1, r0, lsl #16
     7c4:	0001e000 	andeq	lr, r1, r0
     7c8:	50000100 	andpl	r0, r0, r0, lsl #2
     7cc:	000001e0 	andeq	r0, r0, r0, ror #3
     7d0:	00000200 	andeq	r0, r0, r0, lsl #4
     7d4:	01f30004 	mvnseq	r0, r4
     7d8:	00009f50 	andeq	r9, r0, r0, asr pc
	...
     7e4:	01c80000 	biceq	r0, r8, r0
     7e8:	01dc0000 	bicseq	r0, ip, r0
     7ec:	00010000 	andeq	r0, r1, r0
     7f0:	0001dc51 	andeq	sp, r1, r1, asr ip
     7f4:	00020000 	andeq	r0, r2, r0
     7f8:	f3000400 	vshl.u8	d0, d0, d0
     7fc:	009f5101 	addseq	r5, pc, r1, lsl #2
	...
     808:	c8000000 	stmdagt	r0, {}	; <UNPREDICTABLE>
     80c:	e3000001 	movw	r0, #1
     810:	01000001 	tsteq	r0, r1
     814:	01e35200 	mvneq	r5, r0, lsl #4
     818:	02000000 	andeq	r0, r0, #0, 0
     81c:	00040000 	andeq	r0, r4, r0
     820:	9f5201f3 	svcls	0x005201f3
	...
     830:	000001c8 	andeq	r0, r0, r8, asr #3
     834:	000001e3 	andeq	r0, r0, r3, ror #3
     838:	e3530001 	cmp	r3, #1, 0
     83c:	00000001 	andeq	r0, r0, r1
     840:	04000002 	streq	r0, [r0], #-2
     844:	5301f300 	movwpl	pc, #4864	; 0x1300	; <UNPREDICTABLE>
     848:	0000009f 	muleq	r0, pc, r0	; <UNPREDICTABLE>
     84c:	00000000 	andeq	r0, r0, r0
     850:	d8000000 	stmdale	r0, {}	; <UNPREDICTABLE>
     854:	fc000001 	stc2	0, cr0, [r0], {1}
     858:	01000001 	tsteq	r0, r1
     85c:	00005500 	andeq	r5, r0, r0, lsl #10
	...
     868:	01d80000 	bicseq	r0, r8, r0
     86c:	01e30000 	mvneq	r0, r0
     870:	00010000 	andeq	r0, r1, r0
     874:	0001e352 	andeq	lr, r1, r2, asr r3
     878:	0001fc00 	andeq	pc, r1, r0, lsl #24
     87c:	f3000400 	vshl.u8	d0, d0, d0
     880:	009f5201 	addseq	r5, pc, r1, lsl #4
	...
     88c:	0001d800 	andeq	sp, r1, r0, lsl #16
     890:	0001fc00 	andeq	pc, r1, r0, lsl #24
     894:	56000100 	strpl	r0, [r0], -r0, lsl #2
	...
     8a0:	01d80000 	bicseq	r0, r8, r0
     8a4:	01fc0000 	mvnseq	r0, r0
     8a8:	00010000 	andeq	r0, r1, r0
     8ac:	00000054 	andeq	r0, r0, r4, asr r0
	...
     8b8:	00018400 	andeq	r8, r1, r0, lsl #8
     8bc:	00019c00 	andeq	r9, r1, r0, lsl #24
     8c0:	50000100 	andpl	r0, r0, r0, lsl #2
     8c4:	0000019c 	muleq	r0, ip, r1
     8c8:	000001c8 	andeq	r0, r0, r8, asr #3
     8cc:	01f30004 	mvnseq	r0, r4
     8d0:	00009f50 	andeq	r9, r0, r0, asr pc
	...
     8dc:	01840000 	orreq	r0, r4, r0
     8e0:	019f0000 	orrseq	r0, pc, r0
     8e4:	00010000 	andeq	r0, r1, r0
     8e8:	00019f51 	andeq	r9, r1, r1, asr pc
     8ec:	0001c800 	andeq	ip, r1, r0, lsl #16
     8f0:	55000100 	strpl	r0, [r0, #-256]	; 0xffffff00
	...
     900:	000001a4 	andeq	r0, r0, r4, lsr #3
     904:	000001af 	andeq	r0, r0, pc, lsr #3
     908:	af500001 	svcge	0x00500001
     90c:	c8000001 	stmdagt	r0, {r0}
     910:	01000001 	tsteq	r0, r1
     914:	00005400 	andeq	r5, r0, r0, lsl #8
	...
     920:	00000198 	muleq	r0, r8, r1
     924:	000001c8 	andeq	r0, r0, r8, asr #3
     928:	00570001 	subseq	r0, r7, r1
	...
     938:	b4000000 	strlt	r0, [r0], #-0
     93c:	d0000000 	andle	r0, r0, r0
     940:	01000000 	mrseq	r0, (UNDEF: 0)
     944:	00d05000 	sbcseq	r5, r0, r0
     948:	015c0000 	cmpeq	ip, r0
     94c:	00010000 	andeq	r0, r1, r0
     950:	00015c55 	andeq	r5, r1, r5, asr ip
     954:	00016000 	andeq	r6, r1, r0
     958:	53000100 	movwpl	r0, #256	; 0x100
     95c:	00000160 	andeq	r0, r0, r0, ror #2
     960:	00000184 	andeq	r0, r0, r4, lsl #3
     964:	01f30004 	mvnseq	r0, r4
     968:	00009f50 	andeq	r9, r0, r0, asr pc
     96c:	00000000 	andeq	r0, r0, r0
     970:	00020000 	andeq	r0, r2, r0
     974:	00bc0000 	adcseq	r0, ip, r0
     978:	00d00000 	sbcseq	r0, r0, r0
     97c:	00020000 	andeq	r0, r2, r0
     980:	00d09f30 	sbcseq	r9, r0, r0, lsr pc
     984:	01140000 	tsteq	r4, r0
     988:	00010000 	andeq	r0, r1, r0
     98c:	00000057 	andeq	r0, r0, r7, asr r0
     990:	00000000 	andeq	r0, r0, r0
     994:	dc000000 	stcle	0, cr0, [r0], {-0}
     998:	00000000 	andeq	r0, r0, r0
     99c:	01000001 	tsteq	r0, r1
     9a0:	00005800 	andeq	r5, r0, r0, lsl #16
	...
     9ac:	000000dc 	ldrdeq	r0, [r0], -ip
     9b0:	000000e7 	andeq	r0, r0, r7, ror #1
     9b4:	09740002 	ldmdbeq	r4!, {r1}^
	...
     9c0:	00dc0000 	sbcseq	r0, ip, r0
     9c4:	01000000 	mrseq	r0, (UNDEF: 0)
     9c8:	00010000 	andeq	r0, r1, r0
     9cc:	00000059 	andeq	r0, r0, r9, asr r0
     9d0:	00000000 	andeq	r0, r0, r0
     9d4:	dc000000 	stcle	0, cr0, [r0], {-0}
     9d8:	00000000 	andeq	r0, r0, r0
     9dc:	01000001 	tsteq	r0, r1
     9e0:	00005600 	andeq	r5, r0, r0, lsl #12
	...
     9ec:	00000144 	andeq	r0, r0, r4, asr #2
     9f0:	00000160 	andeq	r0, r0, r0, ror #2
     9f4:	9f300002 	svcls	0x00300002
	...
     a00:	00000002 	andeq	r0, r0, r2
     a04:	01140000 	tsteq	r4, r0
     a08:	01200000 			; <UNDEFINED> instruction: 0x01200000
     a0c:	00080000 	andeq	r0, r8, r0
     a10:	01940075 	orrseq	r0, r4, r5, ror r0
     a14:	9f1aff08 	svcls	0x001aff08
     a18:	00000120 	andeq	r0, r0, r0, lsr #2
     a1c:	0000012c 	andeq	r0, r0, ip, lsr #2
     a20:	2c510001 	mrrccs	0, 0, r0, r1, cr1
     a24:	30000001 	andcc	r0, r0, r1
     a28:	08000001 	stmdaeq	r0, {r0}
     a2c:	94007500 	strls	r7, [r0], #-1280	; 0xfffffb00
     a30:	1aff0801 	bne	fffc2a3c <__bss_end__+0xfffb8cc4>
     a34:	0000009f 	muleq	r0, pc, r0	; <UNPREDICTABLE>
     a38:	00000000 	andeq	r0, r0, r0
     a3c:	00000400 	andeq	r0, r0, r0, lsl #8
     a40:	14000000 	strne	r0, [r0], #-0
     a44:	20000001 	andcs	r0, r0, r1
     a48:	08000001 	stmdaeq	r0, {r0}
     a4c:	94007500 	strls	r7, [r0], #-1280	; 0xfffffb00
     a50:	1aff0801 	bne	fffc2a5c <__bss_end__+0xfffb8ce4>
     a54:	0001209f 	muleq	r1, pc, r0	; <UNPREDICTABLE>
     a58:	00012c00 	andeq	r2, r1, r0, lsl #24
     a5c:	51000100 	mrspl	r0, (UNDEF: 16)
     a60:	0000012c 	andeq	r0, r0, ip, lsr #2
     a64:	00000130 	andeq	r0, r0, r0, lsr r1
     a68:	00750008 	rsbseq	r0, r5, r8
     a6c:	ff080194 			; <UNDEFINED> instruction: 0xff080194
     a70:	00009f1a 	andeq	r9, r0, sl, lsl pc
     a74:	00000000 	andeq	r0, r0, r0
     a78:	00060000 	andeq	r0, r6, r0
     a7c:	00000114 	andeq	r0, r0, r4, lsl r1
     a80:	00000144 	andeq	r0, r0, r4, asr #2
     a84:	100a0004 	andne	r0, sl, r4
     a88:	00009fa4 	andeq	r9, r0, r4, lsr #31
     a8c:	00000000 	andeq	r0, r0, r0
     a90:	00060000 	andeq	r0, r6, r0
     a94:	00000000 	andeq	r0, r0, r0
     a98:	00000114 	andeq	r0, r0, r4, lsl r1
     a9c:	00000120 	andeq	r0, r0, r0, lsr #2
     aa0:	00750008 	rsbseq	r0, r5, r8
     aa4:	ff080194 			; <UNDEFINED> instruction: 0xff080194
     aa8:	01209f1a 			; <UNDEFINED> instruction: 0x01209f1a
     aac:	012c0000 			; <UNDEFINED> instruction: 0x012c0000
     ab0:	00010000 	andeq	r0, r1, r0
     ab4:	00012c51 	andeq	r2, r1, r1, asr ip
     ab8:	00013000 	andeq	r3, r1, r0
     abc:	75000800 	strvc	r0, [r0, #-2048]	; 0xfffff800
     ac0:	08019400 	stmdaeq	r1, {sl, ip, pc}
     ac4:	009f1aff 			; <UNDEFINED> instruction: 0x009f1aff
	...
     ad0:	00011c00 	andeq	r1, r1, r0, lsl #24
     ad4:	00014400 	andeq	r4, r1, r0, lsl #8
     ad8:	52000100 	andpl	r0, r0, #0
	...
     ae8:	00000118 	andeq	r0, r0, r8, lsl r1
     aec:	0000011c 	andeq	r0, r0, ip, lsl r1
     af0:	1c520001 	mrrcne	0, 0, r0, r2, cr1
     af4:	44000001 	strmi	r0, [r0], #-1
     af8:	03000001 	movweq	r0, #1
     afc:	9f107200 	svcls	0x00107200
	...
     b08:	00000001 	andeq	r0, r0, r1
     b0c:	011c0000 	tsteq	ip, r0
     b10:	01200000 			; <UNDEFINED> instruction: 0x01200000
     b14:	00080000 	andeq	r0, r8, r0
     b18:	01940075 	orrseq	r0, r4, r5, ror r0
     b1c:	9f1aff08 	svcls	0x001aff08
     b20:	00000120 	andeq	r0, r0, r0, lsr #2
     b24:	0000012c 	andeq	r0, r0, ip, lsr #2
     b28:	2c510001 	mrrccs	0, 0, r0, r1, cr1
     b2c:	30000001 	andcc	r0, r0, r1
     b30:	08000001 	stmdaeq	r0, {r0}
     b34:	94007500 	strls	r7, [r0], #-1280	; 0xfffffb00
     b38:	1aff0801 	bne	fffc2b44 <__bss_end__+0xfffb8dcc>
     b3c:	0000009f 	muleq	r0, pc, r0	; <UNPREDICTABLE>
     b40:	00000000 	andeq	r0, r0, r0
     b44:	38000100 	stmdacc	r0, {r8}
     b48:	3c000001 	stccc	0, cr0, [r0], {1}
     b4c:	01000001 	tsteq	r0, r1
     b50:	00005300 	andeq	r5, r0, r0, lsl #6
	...
     b5c:	00000138 	andeq	r0, r0, r8, lsr r1
     b60:	0000013c 	andeq	r0, r0, ip, lsr r1
     b64:	00530001 	subseq	r0, r3, r1
	...
     b74:	0c000000 	stceq	0, cr0, [r0], {-0}
     b78:	01000000 	mrseq	r0, (UNDEF: 0)
     b7c:	000c5000 	andeq	r5, ip, r0
     b80:	00b40000 	adcseq	r0, r4, r0
     b84:	00040000 	andeq	r0, r4, r0
     b88:	9f5001f3 	svcls	0x005001f3
	...
     b94:	02000002 	andeq	r0, r0, #2, 0
     b98:	00000002 	andeq	r0, r0, r2
     b9c:	00000004 	andeq	r0, r0, r4
     ba0:	0000001c 	andeq	r0, r0, ip, lsl r0
     ba4:	9f300002 	svcls	0x00300002
     ba8:	0000001c 	andeq	r0, r0, ip, lsl r0
     bac:	00000048 	andeq	r0, r0, r8, asr #32
     bb0:	72370005 	eorsvc	r0, r7, #5, 0
     bb4:	489f1c00 	ldmmi	pc, {sl, fp, ip}	; <UNPREDICTABLE>
     bb8:	4c000000 	stcmi	0, cr0, [r0], {-0}
     bbc:	05000000 	streq	r0, [r0, #-0]
     bc0:	00723800 	rsbseq	r3, r2, r0, lsl #16
     bc4:	004c9f1c 	subeq	r9, ip, ip, lsl pc
     bc8:	00b40000 	adcseq	r0, r4, r0
     bcc:	00050000 	andeq	r0, r5, r0
     bd0:	1c007237 	sfmne	f7, 4, [r0], {55}	; 0x37
     bd4:	0000009f 	muleq	r0, pc, r0	; <UNPREDICTABLE>
	...
     be0:	1c000100 	stfnes	f0, [r0], {-0}
     be4:	4c000000 	stcmi	0, cr0, [r0], {-0}
     be8:	01000000 	mrseq	r0, (UNDEF: 0)
     bec:	004c5200 	subeq	r5, ip, r0, lsl #4
     bf0:	00540000 	subseq	r0, r4, r0
     bf4:	00030000 	andeq	r0, r3, r0
     bf8:	549f0172 	ldrpl	r0, [pc], #370	; c00 <__code_start__-0x7400>
     bfc:	b4000000 	strlt	r0, [r0], #-0
     c00:	01000000 	mrseq	r0, (UNDEF: 0)
     c04:	00005200 	andeq	r5, r0, r0, lsl #4
	...
     c10:	001c0002 	andseq	r0, ip, r2
     c14:	00480000 	subeq	r0, r8, r0
     c18:	000b0000 	andeq	r0, fp, r0
     c1c:	ff080071 			; <UNDEFINED> instruction: 0xff080071
     c20:	2600721a 			; <UNDEFINED> instruction: 0x2600721a
     c24:	549f1a31 	ldrpl	r1, [pc], #2609	; c2c <__code_start__-0x73d4>
     c28:	b4000000 	strlt	r0, [r0], #-0
     c2c:	0b000000 	bleq	c34 <__code_start__-0x73cc>
     c30:	08007100 	stmdaeq	r0, {r8, ip, sp, lr}
     c34:	00721aff 	ldrshteq	r1, [r2], #-175	; 0xffffff51
     c38:	9f1a3126 	svcls	0x001a3126
	...
     c44:	00020000 	andeq	r0, r2, r0
     c48:	0000001c 	andeq	r0, r0, ip, lsl r0
     c4c:	00000048 	andeq	r0, r0, r8, asr #32
     c50:	01f30004 	mvnseq	r0, r4
     c54:	00549f50 	subseq	r9, r4, r0, asr pc
     c58:	00b40000 	adcseq	r0, r4, r0
     c5c:	00040000 	andeq	r0, r4, r0
     c60:	9f5001f3 	svcls	0x005001f3
	...
     c6c:	00700002 	rsbseq	r0, r0, r2
     c70:	008c0000 	addeq	r0, ip, r0
     c74:	00040000 	andeq	r0, r4, r0
     c78:	9f5001f3 	svcls	0x005001f3
	...
     c84:	00700004 	rsbseq	r0, r0, r4
     c88:	008c0000 	addeq	r0, ip, r0
     c8c:	00040000 	andeq	r0, r4, r0
     c90:	9f02660a 	svcls	0x0002660a
	...
     c9c:	00700004 	rsbseq	r0, r0, r4
     ca0:	008c0000 	addeq	r0, ip, r0
     ca4:	00040000 	andeq	r0, r4, r0
     ca8:	9f5001f3 	svcls	0x005001f3
	...
     cb4:	00780000 	rsbseq	r0, r8, r0
     cb8:	008c0000 	addeq	r0, ip, r0
     cbc:	00010000 	andeq	r0, r1, r0
     cc0:	0000005c 	andeq	r0, r0, ip, asr r0
     cc4:	00000000 	andeq	r0, r0, r0
     cc8:	78000100 	stmdavc	r0, {r8}
     ccc:	7c000000 	stcvc	0, cr0, [r0], {-0}
     cd0:	04000000 	streq	r0, [r0], #-0
     cd4:	5001f300 	andpl	pc, r1, r0, lsl #6
     cd8:	0000009f 	muleq	r0, pc, r0	; <UNPREDICTABLE>
     cdc:	00000000 	andeq	r0, r0, r0
     ce0:	80000100 	andhi	r0, r0, r0, lsl #2
     ce4:	84000000 	strhi	r0, [r0], #-0
     ce8:	01000000 	mrseq	r0, (UNDEF: 0)
     cec:	00005300 	andeq	r5, r0, r0, lsl #6
	...
     cf8:	00000080 	andeq	r0, r0, r0, lsl #1
     cfc:	00000084 	andeq	r0, r0, r4, lsl #1
     d00:	00530001 	subseq	r0, r3, r1
	...
     d0c:	74000000 	strvc	r0, [r0], #-0
     d10:	78000000 	stmdavc	r0, {}	; <UNPREDICTABLE>
     d14:	01000000 	mrseq	r0, (UNDEF: 0)
     d18:	00785c00 	rsbseq	r5, r8, r0, lsl #24
     d1c:	008c0000 	addeq	r0, ip, r0
     d20:	00030000 	andeq	r0, r3, r0
     d24:	009f107c 	addseq	r1, pc, ip, ror r0	; <UNPREDICTABLE>
	...
     d30:	1c000100 	stfnes	f0, [r0], {-0}
     d34:	2c000000 	stccs	0, cr0, [r0], {-0}
     d38:	04000000 	streq	r0, [r0], #-0
     d3c:	5001f300 	andpl	pc, r1, r0, lsl #6
     d40:	0000609f 	muleq	r0, pc, r0	; <UNPREDICTABLE>
     d44:	00007000 	andeq	r7, r0, r0
     d48:	f3000400 	vshl.u8	d0, d0, d0
     d4c:	009f5001 	addseq	r5, pc, r1
	...
     d58:	1c000300 	stcne	3, cr0, [r0], {-0}
     d5c:	2c000000 	stccs	0, cr0, [r0], {-0}
     d60:	03000000 	movweq	r0, #0
     d64:	9fe50800 	svcls	0x00e50800
     d68:	00000060 	andeq	r0, r0, r0, rrx
     d6c:	00000070 	andeq	r0, r0, r0, ror r0
     d70:	e5080003 	str	r0, [r8, #-3]
     d74:	0000009f 	muleq	r0, pc, r0	; <UNPREDICTABLE>
     d78:	00000000 	andeq	r0, r0, r0
     d7c:	03000000 	movweq	r0, #0
     d80:	00001c00 	andeq	r1, r0, r0, lsl #24
     d84:	00002c00 	andeq	r2, r0, r0, lsl #24
     d88:	f3000400 	vshl.u8	d0, d0, d0
     d8c:	609f5001 	addsvs	r5, pc, r1
     d90:	70000000 	andvc	r0, r0, r0
     d94:	04000000 	streq	r0, [r0], #-0
     d98:	5001f300 	andpl	pc, r1, r0, lsl #6
     d9c:	0000009f 	muleq	r0, pc, r0	; <UNPREDICTABLE>
	...
     da8:	00001c00 	andeq	r1, r0, r0, lsl #24
     dac:	00002c00 	andeq	r2, r0, r0, lsl #24
     db0:	5c000100 	stfpls	f0, [r0], {-0}
     db4:	00000068 	andeq	r0, r0, r8, rrx
     db8:	00000070 	andeq	r0, r0, r0, ror r0
     dbc:	005c0001 	subseq	r0, ip, r1
     dc0:	00000000 	andeq	r0, r0, r0
     dc4:	01000000 	mrseq	r0, (UNDEF: 0)
     dc8:	00002000 	andeq	r2, r0, r0
     dcc:	00002400 	andeq	r2, r0, r0, lsl #8
     dd0:	53000100 	movwpl	r0, #256	; 0x100
	...
     ddc:	00200000 	eoreq	r0, r0, r0
     de0:	00240000 	eoreq	r0, r4, r0
     de4:	00010000 	andeq	r0, r1, r0
     de8:	00000053 	andeq	r0, r0, r3, asr r0
	...
     df4:	1c000000 	stcne	0, cr0, [r0], {-0}
     df8:	2c000000 	stccs	0, cr0, [r0], {-0}
     dfc:	03000000 	movweq	r0, #0
     e00:	9f107c00 	svcls	0x00107c00
     e04:	00000064 	andeq	r0, r0, r4, rrx
     e08:	00000068 	andeq	r0, r0, r8, rrx
     e0c:	685c0001 	ldmdavs	ip, {r0}^
     e10:	70000000 	andvc	r0, r0, r0
     e14:	03000000 	movweq	r0, #0
     e18:	9f107c00 	svcls	0x00107c00
	...
     e24:	00680001 	rsbeq	r0, r8, r1
     e28:	00700000 	rsbseq	r0, r0, r0
     e2c:	00040000 	andeq	r0, r4, r0
     e30:	9f5001f3 	svcls	0x005001f3
	...
     e3c:	002c0002 	eoreq	r0, ip, r2
     e40:	00480000 	subeq	r0, r8, r0
     e44:	00040000 	andeq	r0, r4, r0
     e48:	9f5001f3 	svcls	0x005001f3
	...
     e54:	002c0004 	eoreq	r0, ip, r4
     e58:	00480000 	subeq	r0, r8, r0
     e5c:	00040000 	andeq	r0, r4, r0
     e60:	9f02660a 	svcls	0x0002660a
	...
     e6c:	002c0004 	eoreq	r0, ip, r4
     e70:	00480000 	subeq	r0, r8, r0
     e74:	00040000 	andeq	r0, r4, r0
     e78:	9f5001f3 	svcls	0x005001f3
	...
     e84:	00340000 	eorseq	r0, r4, r0
     e88:	00480000 	subeq	r0, r8, r0
     e8c:	00010000 	andeq	r0, r1, r0
     e90:	0000005c 	andeq	r0, r0, ip, asr r0
	...
     e9c:	00003000 	andeq	r3, r0, r0
     ea0:	00003400 	andeq	r3, r0, r0, lsl #8
     ea4:	5c000100 	stfpls	f0, [r0], {-0}
     ea8:	00000034 	andeq	r0, r0, r4, lsr r0
     eac:	00000048 	andeq	r0, r0, r8, asr #32
     eb0:	107c0003 	rsbsne	r0, ip, r3
     eb4:	0000009f 	muleq	r0, pc, r0	; <UNPREDICTABLE>
     eb8:	00000000 	andeq	r0, r0, r0
     ebc:	34000100 	strcc	r0, [r0], #-256	; 0xffffff00
     ec0:	38000000 	stmdacc	r0, {}	; <UNPREDICTABLE>
     ec4:	04000000 	streq	r0, [r0], #-0
     ec8:	5001f300 	andpl	pc, r1, r0, lsl #6
     ecc:	0000009f 	muleq	r0, pc, r0	; <UNPREDICTABLE>
     ed0:	00000000 	andeq	r0, r0, r0
     ed4:	3c000100 	stfccs	f0, [r0], {-0}
     ed8:	40000000 	andmi	r0, r0, r0
     edc:	01000000 	mrseq	r0, (UNDEF: 0)
     ee0:	00005300 	andeq	r5, r0, r0, lsl #6
	...
     eec:	0000003c 	andeq	r0, r0, ip, lsr r0
     ef0:	00000040 	andeq	r0, r0, r0, asr #32
     ef4:	00530001 	subseq	r0, r3, r1
     ef8:	00000000 	andeq	r0, r0, r0
     efc:	02000000 	andeq	r0, r0, #0, 0
     f00:	00008c00 	andeq	r8, r0, r0, lsl #24
     f04:	0000b400 	andeq	fp, r0, r0, lsl #8
     f08:	f3000400 	vshl.u8	d0, d0, d0
     f0c:	009f5001 	addseq	r5, pc, r1
     f10:	00000000 	andeq	r0, r0, r0
     f14:	04000000 	streq	r0, [r0], #-0
     f18:	00008c00 	andeq	r8, r0, r0, lsl #24
     f1c:	0000b400 	andeq	fp, r0, r0, lsl #8
     f20:	f3000400 	vshl.u8	d0, d0, d0
     f24:	009f5001 	addseq	r5, pc, r1
	...
     f30:	00009400 	andeq	r9, r0, r0, lsl #8
     f34:	0000b400 	andeq	fp, r0, r0, lsl #8
     f38:	5c000100 	stfpls	f0, [r0], {-0}
	...
     f48:	00000090 	muleq	r0, r0, r0
     f4c:	00000094 	muleq	r0, r4, r0
     f50:	945c0001 	ldrbls	r0, [ip], #-1
     f54:	b4000000 	strlt	r0, [r0], #-0
     f58:	03000000 	movweq	r0, #0
     f5c:	9f107c00 	svcls	0x00107c00
	...
     f68:	00940001 	addseq	r0, r4, r1
     f6c:	00980000 	addseq	r0, r8, r0
     f70:	00040000 	andeq	r0, r4, r0
     f74:	9f5001f3 	svcls	0x005001f3
	...
     f80:	009c0001 	addseq	r0, ip, r1
     f84:	00a00000 	adceq	r0, r0, r0
     f88:	00010000 	andeq	r0, r1, r0
     f8c:	00000053 	andeq	r0, r0, r3, asr r0
     f90:	00000000 	andeq	r0, r0, r0
     f94:	9c000000 	stcls	0, cr0, [r0], {-0}
     f98:	a0000000 	andge	r0, r0, r0
     f9c:	01000000 	mrseq	r0, (UNDEF: 0)
     fa0:	00005300 	andeq	r5, r0, r0, lsl #6
	...
     fb0:	00040000 	andeq	r0, r4, r0
     fb4:	00010000 	andeq	r0, r1, r0
     fb8:	00000452 	andeq	r0, r0, r2, asr r4
     fbc:	00001800 	andeq	r1, r0, r0, lsl #16
     fc0:	f3000400 	vshl.u8	d0, d0, d0
     fc4:	009f5201 	addseq	r5, pc, r1, lsl #4
     fc8:	00000000 	andeq	r0, r0, r0
     fcc:	02000000 	andeq	r0, r0, #0, 0
     fd0:	01010000 	mrseq	r0, (UNDEF: 1)
     fd4:	00000000 	andeq	r0, r0, r0
     fd8:	08000000 	stmdaeq	r0, {}	; <UNPREDICTABLE>
     fdc:	01000000 	mrseq	r0, (UNDEF: 0)
     fe0:	00085000 	andeq	r5, r8, r0
     fe4:	00100000 	andseq	r0, r0, r0
     fe8:	00010000 	andeq	r0, r1, r0
     fec:	00001053 	andeq	r1, r0, r3, asr r0
     ff0:	00001400 	andeq	r1, r0, r0, lsl #8
     ff4:	73000300 	movwvc	r0, #768	; 0x300
     ff8:	00149f01 	andseq	r9, r4, r1, lsl #30
     ffc:	00180000 	andseq	r0, r8, r0
    1000:	00010000 	andeq	r0, r1, r0
    1004:	00000053 	andeq	r0, r0, r3, asr r0
    1008:	00000000 	andeq	r0, r0, r0
    100c:	04000000 	streq	r0, [r0], #-0
    1010:	18000000 	stmdane	r0, {}	; <UNPREDICTABLE>
    1014:	01000000 	mrseq	r0, (UNDEF: 0)
    1018:	00005200 	andeq	r5, r0, r0, lsl #4
	...
    1028:	0000002c 	andeq	r0, r0, ip, lsr #32
    102c:	00000038 	andeq	r0, r0, r8, lsr r0
    1030:	38500001 	ldmdacc	r0, {r0}^
    1034:	48000000 	stmdami	r0, {}	; <UNPREDICTABLE>
    1038:	01000000 	mrseq	r0, (UNDEF: 0)
    103c:	00485400 	subeq	r5, r8, r0, lsl #8
    1040:	00580000 	subseq	r0, r8, r0
    1044:	00010000 	andeq	r0, r1, r0
    1048:	00000050 	andeq	r0, r0, r0, asr r0
    104c:	00000000 	andeq	r0, r0, r0
    1050:	01010000 	mrseq	r0, (UNDEF: 1)
    1054:	00000000 	andeq	r0, r0, r0
    1058:	00000800 	andeq	r0, r0, r0, lsl #16
    105c:	50000100 	andpl	r0, r0, r0, lsl #2
    1060:	00000008 	andeq	r0, r0, r8
    1064:	00000034 	andeq	r0, r0, r4, lsr r0
    1068:	00540001 	subseq	r0, r4, r1
	...
    1078:	00028800 	andeq	r8, r2, r0, lsl #16
    107c:	0002b800 	andeq	fp, r2, r0, lsl #16
    1080:	50000100 	andpl	r0, r0, r0, lsl #2
    1084:	000002b8 			; <UNDEFINED> instruction: 0x000002b8
    1088:	00000704 	andeq	r0, r0, r4, lsl #14
    108c:	04590001 	ldrbeq	r0, [r9], #-1
    1090:	40000007 	andmi	r0, r0, r7
    1094:	04000007 	streq	r0, [r0], #-7
    1098:	5001f300 	andpl	pc, r1, r0, lsl #6
    109c:	0000009f 	muleq	r0, pc, r0	; <UNPREDICTABLE>
	...
    10a8:	88000000 	stmdahi	r0, {}	; <UNPREDICTABLE>
    10ac:	a0000002 	andge	r0, r0, r2
    10b0:	01000002 	tsteq	r0, r2
    10b4:	02a05100 	adceq	r5, r0, #0
    10b8:	02b80000 	adcseq	r0, r8, #0, 0
    10bc:	00030000 	andeq	r0, r3, r0
    10c0:	b89f0171 	ldmlt	pc, {r0, r4, r5, r6, r8}	; <UNPREDICTABLE>
    10c4:	40000002 	andmi	r0, r0, r2
    10c8:	04000007 	streq	r0, [r0], #-7
    10cc:	5101f300 	mrspl	pc, SP_irq	; <UNPREDICTABLE>
    10d0:	0000009f 	muleq	r0, pc, r0	; <UNPREDICTABLE>
	...
    10e4:	00028800 	andeq	r8, r2, r0, lsl #16
    10e8:	0002b800 	andeq	fp, r2, r0, lsl #16
    10ec:	52000100 	andpl	r0, r0, #0
    10f0:	000002b8 			; <UNDEFINED> instruction: 0x000002b8
    10f4:	000003ec 	andeq	r0, r0, ip, ror #7
    10f8:	ec560001 	mrrc	0, 0, r0, r6, cr1
    10fc:	b8000003 	stmdalt	r0, {r0, r1}
    1100:	01000004 	tsteq	r0, r4
    1104:	04b85b00 	ldrteq	r5, [r8], #2816	; 0xb00
    1108:	04d80000 	ldrbeq	r0, [r8], #0
    110c:	00010000 	andeq	r0, r1, r0
    1110:	0004d856 	andeq	sp, r4, r6, asr r8
    1114:	00055c00 	andeq	r5, r5, r0, lsl #24
    1118:	5b000100 	blpl	1520 <__code_start__-0x6ae0>
    111c:	0000055c 	andeq	r0, r0, ip, asr r5
    1120:	00000704 	andeq	r0, r0, r4, lsl #14
    1124:	00560001 	subseq	r0, r6, r1
    1128:	00000000 	andeq	r0, r0, r0
    112c:	01000000 	mrseq	r0, (UNDEF: 0)
    1130:	00000000 	andeq	r0, r0, r0
    1134:	01010000 	mrseq	r0, (UNDEF: 1)
    1138:	00000000 	andeq	r0, r0, r0
    113c:	02020000 	andeq	r0, r2, #0, 0
    1140:	9c000000 	stcls	0, cr0, [r0], {-0}
    1144:	b8000002 	stmdalt	r0, {r1}
    1148:	01000002 	tsteq	r0, r2
    114c:	02b85000 	adcseq	r5, r8, #0, 0
    1150:	02bc0000 	adcseq	r0, ip, #0, 0
    1154:	00010000 	andeq	r0, r1, r0
    1158:	0002bc54 	andeq	fp, r2, r4, asr ip
    115c:	0002c000 	andeq	ip, r2, r0
    1160:	74000300 	strvc	r0, [r0], #-768	; 0xfffffd00
    1164:	02c09f01 	sbceq	r9, r0, #1, 30
    1168:	02e40000 	rsceq	r0, r4, #0, 0
    116c:	00010000 	andeq	r0, r1, r0
    1170:	0002e454 	andeq	lr, r2, r4, asr r4
    1174:	0002e800 	andeq	lr, r2, r0, lsl #16
    1178:	74000300 	strvc	r0, [r0], #-768	; 0xfffffd00
    117c:	02e89f01 	rsceq	r9, r8, #1, 30
    1180:	06d40000 	ldrbeq	r0, [r4], r0
    1184:	00010000 	andeq	r0, r1, r0
    1188:	0006d454 	andeq	sp, r6, r4, asr r4
    118c:	0006d800 	andeq	sp, r6, r0, lsl #16
    1190:	74000300 	strvc	r0, [r0], #-768	; 0xfffffd00
    1194:	06d89f01 	ldrbeq	r9, [r8], r1, lsl #30
    1198:	06f00000 	ldrbteq	r0, [r0], r0
    119c:	00010000 	andeq	r0, r1, r0
    11a0:	0006f054 	andeq	pc, r6, r4, asr r0	; <UNPREDICTABLE>
    11a4:	0006f800 	andeq	pc, r6, r0, lsl #16
    11a8:	74000300 	strvc	r0, [r0], #-768	; 0xfffffd00
    11ac:	06f89f01 	ldrbteq	r9, [r8], r1, lsl #30
    11b0:	07040000 	streq	r0, [r4, -r0]
    11b4:	00010000 	andeq	r0, r1, r0
    11b8:	00000054 	andeq	r0, r0, r4, asr r0
	...
    11c4:	0002a400 	andeq	sl, r2, r0, lsl #8
    11c8:	00070400 	andeq	r0, r7, r0, lsl #8
    11cc:	58000100 	stmdapl	r0, {r8}
    11d0:	00000704 	andeq	r0, r0, r4, lsl #14
    11d4:	00000740 	andeq	r0, r0, r0, asr #14
    11d8:	01f3000a 	mvnseq	r0, sl
    11dc:	5001f351 	andpl	pc, r1, r1, asr r3	; <UNPREDICTABLE>
    11e0:	9f1c3122 	svcls	0x001c3122
	...
    11ec:	00000001 	andeq	r0, r0, r1
    11f0:	04080000 	streq	r0, [r8], #-0
    11f4:	04740000 	ldrbteq	r0, [r4], #-0
    11f8:	00010000 	andeq	r0, r1, r0
    11fc:	0004d857 	andeq	sp, r4, r7, asr r8
    1200:	0004fc00 	andeq	pc, r4, r0, lsl #24
    1204:	57000100 	strpl	r0, [r0, -r0, lsl #2]
    1208:	00000540 	andeq	r0, r0, r0, asr #10
    120c:	0000055c 	andeq	r0, r0, ip, asr r5
    1210:	00570001 	subseq	r0, r7, r1
    1214:	00000000 	andeq	r0, r0, r0
    1218:	02000000 	andeq	r0, r0, #0, 0
    121c:	08000000 	stmdaeq	r0, {}	; <UNPREDICTABLE>
    1220:	b8000004 	stmdalt	r0, {r2}
    1224:	01000004 	tsteq	r0, r4
    1228:	04d85a00 	ldrbeq	r5, [r8], #2560	; 0xa00
    122c:	055c0000 	ldrbeq	r0, [ip, #-0]
    1230:	00010000 	andeq	r0, r1, r0
    1234:	0000005a 	andeq	r0, r0, sl, asr r0
    1238:	00000000 	andeq	r0, r0, r0
    123c:	00000100 	andeq	r0, r0, r0, lsl #2
    1240:	0002ac00 	andeq	sl, r2, r0, lsl #24
    1244:	0002b800 	andeq	fp, r2, r0, lsl #16
    1248:	52000100 	andpl	r0, r0, #0
    124c:	000002b8 			; <UNDEFINED> instruction: 0x000002b8
    1250:	00000740 	andeq	r0, r0, r0, asr #14
    1254:	c8910003 	ldmgt	r1, {r0, r1}
    1258:	0000007d 	andeq	r0, r0, sp, ror r0
	...
    1268:	01010000 	mrseq	r0, (UNDEF: 1)
	...
    1274:	74000000 	strvc	r0, [r0], #-0
    1278:	8c000004 	stchi	0, cr0, [r0], {4}
    127c:	01000004 	tsteq	r0, r4
    1280:	048c5000 	streq	r5, [ip], #0
    1284:	04b80000 	ldrteq	r0, [r8], #0
    1288:	00010000 	andeq	r0, r1, r0
    128c:	0004fc57 	andeq	pc, r4, r7, asr ip	; <UNPREDICTABLE>
    1290:	00051400 	andeq	r1, r5, r0, lsl #8
    1294:	50000100 	andpl	r0, r0, r0, lsl #2
    1298:	00000514 	andeq	r0, r0, r4, lsl r5
    129c:	00000540 	andeq	r0, r0, r0, asr #10
    12a0:	a4570001 	ldrbge	r0, [r7], #-1
    12a4:	a4000005 	strge	r0, [r0], #-5
    12a8:	01000005 	tsteq	r0, r5
    12ac:	05a45000 	streq	r5, [r4, #0]!
    12b0:	05ac0000 	streq	r0, [ip, #0]!
    12b4:	00010000 	andeq	r0, r1, r0
    12b8:	0005dc57 	andeq	sp, r5, r7, asr ip
    12bc:	0005e000 	andeq	lr, r5, r0
    12c0:	50000100 	andpl	r0, r0, r0, lsl #2
    12c4:	00000610 	andeq	r0, r0, r0, lsl r6
    12c8:	00000614 	andeq	r0, r0, r4, lsl r6
    12cc:	44500001 	ldrbmi	r0, [r0], #-1
    12d0:	48000006 	stmdami	r0, {r1, r2}
    12d4:	01000006 	tsteq	r0, r6
    12d8:	068c5000 	streq	r5, [ip], r0
    12dc:	06900000 	ldreq	r0, [r0], r0
    12e0:	00010000 	andeq	r0, r1, r0
    12e4:	0006d050 	andeq	sp, r6, r0, asr r0
    12e8:	0006f000 	andeq	pc, r6, r0
    12ec:	57000100 	strpl	r0, [r0, -r0, lsl #2]
	...
    12f8:	00000002 	andeq	r0, r0, r2
    12fc:	02f40000 	rscseq	r0, r4, #0, 0
    1300:	02f80000 	rscseq	r0, r8, #0, 0
    1304:	00020000 	andeq	r0, r2, r0
    1308:	02f89f30 	rscseq	r9, r8, #48, 30	; 0xc0
    130c:	03140000 	tsteq	r4, #0, 0
    1310:	00010000 	andeq	r0, r1, r0
    1314:	00031c55 	andeq	r1, r3, r5, asr ip
    1318:	0006f000 	andeq	pc, r6, r0
    131c:	55000100 	strpl	r0, [r0, #-256]	; 0xffffff00
	...
    1328:	00000001 	andeq	r0, r0, r1
    132c:	00000000 	andeq	r0, r0, r0
    1330:	03b80000 			; <UNDEFINED> instruction: 0x03b80000
    1334:	04540000 	ldrbeq	r0, [r4], #-0
    1338:	00010000 	andeq	r0, r1, r0
    133c:	00045456 	andeq	r5, r4, r6, asr r4
    1340:	0004b800 	andeq	fp, r4, r0, lsl #16
    1344:	7b000300 	blvc	1f4c <__code_start__-0x60b4>
    1348:	04b89f7e 	ldrteq	r9, [r8], #3966	; 0xf7e
    134c:	04dc0000 	ldrbeq	r0, [ip], #0
    1350:	00010000 	andeq	r0, r1, r0
    1354:	0004dc56 	andeq	sp, r4, r6, asr ip
    1358:	00054000 	andeq	r4, r5, r0
    135c:	7b000300 	blvc	1f64 <__code_start__-0x609c>
    1360:	05409f7e 	strbeq	r9, [r0, #-3966]	; 0xfffff082
    1364:	055c0000 	ldrbeq	r0, [ip, #-0]
    1368:	00010000 	andeq	r0, r1, r0
    136c:	00000056 	andeq	r0, r0, r6, asr r0
	...
    1378:	70000000 	andvc	r0, r0, r0
    137c:	94000000 	strls	r0, [r0], #-0
    1380:	01000000 	mrseq	r0, (UNDEF: 0)
    1384:	00945000 	addseq	r5, r4, r0
    1388:	00fc0000 	rscseq	r0, ip, r0
    138c:	00030000 	andeq	r0, r3, r0
    1390:	fc9f0270 	ldc2	2, cr0, [pc], {112}	; 0x70
    1394:	24000000 	strcs	r0, [r0], #-0
    1398:	04000002 	streq	r0, [r0], #-2
    139c:	5001f300 	andpl	pc, r1, r0, lsl #6
    13a0:	0000009f 	muleq	r0, pc, r0	; <UNPREDICTABLE>
	...
    13b8:	00007000 	andeq	r7, r0, r0
    13bc:	0000e000 	andeq	lr, r0, r0
    13c0:	51000100 	mrspl	r0, (UNDEF: 16)
    13c4:	000000e0 	andeq	r0, r0, r0, ror #1
    13c8:	00000154 	andeq	r0, r0, r4, asr r1
    13cc:	54550001 	ldrbpl	r0, [r5], #-1
    13d0:	58000001 	stmdapl	r0, {r0}
    13d4:	01000001 	tsteq	r0, r1
    13d8:	01585100 	cmpeq	r8, r0, lsl #2
    13dc:	01b00000 	movseq	r0, r0
    13e0:	00010000 	andeq	r0, r1, r0
    13e4:	0001b055 	andeq	fp, r1, r5, asr r0
    13e8:	0001c000 	andeq	ip, r1, r0
    13ec:	51000100 	mrspl	r0, (UNDEF: 16)
    13f0:	000001c0 	andeq	r0, r0, r0, asr #3
    13f4:	000001e4 	andeq	r0, r0, r4, ror #3
    13f8:	e4550001 	ldrb	r0, [r5], #-1
    13fc:	f8000001 			; <UNDEFINED> instruction: 0xf8000001
    1400:	01000001 	tsteq	r0, r1
    1404:	01f85100 	mvnseq	r5, r0, lsl #2
    1408:	02240000 	eoreq	r0, r4, #0, 0
    140c:	00010000 	andeq	r0, r1, r0
    1410:	00000055 	andeq	r0, r0, r5, asr r0
	...
    141c:	00007000 	andeq	r7, r0, r0
    1420:	00008400 	andeq	r8, r0, r0, lsl #8
    1424:	52000100 	andpl	r0, r0, #0
    1428:	00000084 	andeq	r0, r0, r4, lsl #1
    142c:	00000224 	andeq	r0, r0, r4, lsr #4
    1430:	00540001 	subseq	r0, r4, r1
	...
    1440:	00000001 	andeq	r0, r0, r1
    1444:	70000000 	andvc	r0, r0, r0
    1448:	f4000000 	vst4.8	{d0-d3}, [r0], r0
    144c:	01000000 	mrseq	r0, (UNDEF: 0)
    1450:	014c5300 	mrseq	r5, SPSR_mon
    1454:	01800000 	orreq	r0, r0, r0
    1458:	00010000 	andeq	r0, r1, r0
    145c:	00018053 	andeq	r8, r1, r3, asr r0
    1460:	00018c00 	andeq	r8, r1, r0, lsl #24
    1464:	f3000400 	vshl.u8	d0, d0, d0
    1468:	b09f5301 	addslt	r5, pc, r1, lsl #6
    146c:	e8000001 	stmda	r0, {r0}
    1470:	01000001 	tsteq	r0, r1
    1474:	01e85300 	mvneq	r5, r0, lsl #6
    1478:	01ff0000 	mvnseq	r0, r0
    147c:	00010000 	andeq	r0, r1, r0
    1480:	0001ff5c 	andeq	pc, r1, ip, asr pc	; <UNPREDICTABLE>
    1484:	00022400 	andeq	r2, r2, r0, lsl #8
    1488:	f3000400 	vshl.u8	d0, d0, d0
    148c:	009f5301 	addseq	r5, pc, r1, lsl #6
	...
    149c:	00007000 	andeq	r7, r0, r0
    14a0:	00008c00 	andeq	r8, r0, r0, lsl #24
    14a4:	91000200 	mrsls	r0, R8_usr
    14a8:	00008c00 	andeq	r8, r0, r0, lsl #24
    14ac:	00019300 	andeq	r9, r1, r0, lsl #6
    14b0:	52000100 	andpl	r0, r0, #0
    14b4:	000001b0 			; <UNDEFINED> instruction: 0x000001b0
    14b8:	000001f4 	strdeq	r0, [r0], -r4
    14bc:	00520001 	subseq	r0, r2, r1
    14c0:	00000000 	andeq	r0, r0, r0
    14c4:	01000000 	mrseq	r0, (UNDEF: 0)
    14c8:	01010000 	mrseq	r0, (UNDEF: 1)
	...
    14d4:	01010101 	tsteq	r1, r1, lsl #2
    14d8:	01010000 	mrseq	r0, (UNDEF: 1)
	...
    14e4:	8c000000 	stchi	0, cr0, [r0], {-0}
    14e8:	fc000000 	stc2	0, cr0, [r0], {-0}
    14ec:	04000000 	streq	r0, [r0], #-0
    14f0:	7fa09100 	svcvc	0x00a09100
    14f4:	0000fc9f 	muleq	r0, pc, ip	; <UNPREDICTABLE>
    14f8:	00013c00 	andeq	r3, r1, r0, lsl #24
    14fc:	50000100 	andpl	r0, r0, r0, lsl #2
    1500:	0000013c 	andeq	r0, r0, ip, lsr r1
    1504:	00000148 	andeq	r0, r0, r8, asr #2
    1508:	02710003 	rsbseq	r0, r1, #3, 0
    150c:	0001489f 	muleq	r1, pc, r8	; <UNPREDICTABLE>
    1510:	00014c00 	andeq	r4, r1, r0, lsl #24
    1514:	50000100 	andpl	r0, r0, r0, lsl #2
    1518:	0000014c 	andeq	r0, r0, ip, asr #2
    151c:	00000158 	andeq	r0, r0, r8, asr r1
    1520:	a0910004 	addsge	r0, r1, r4
    1524:	01589f7f 	cmpeq	r8, pc, ror pc
    1528:	016c0000 	cmneq	ip, r0
    152c:	00010000 	andeq	r0, r1, r0
    1530:	00016c51 	andeq	r6, r1, r1, asr ip
    1534:	00017800 	andeq	r7, r1, r0, lsl #16
    1538:	71000300 	mrsvc	r0, LR_irq
    153c:	01789f7f 	cmneq	r8, pc, ror pc
    1540:	01840000 	orreq	r0, r4, r0
    1544:	00030000 	andeq	r0, r3, r0
    1548:	849f0171 	ldrhi	r0, [pc], #369	; 1550 <__code_start__-0x6ab0>
    154c:	93000001 	movwls	r0, #1
    1550:	01000001 	tsteq	r0, r1
    1554:	01b05000 	movseq	r5, r0
    1558:	01b00000 	movseq	r0, r0
    155c:	00040000 	andeq	r0, r4, r0
    1560:	9f7fa091 	svcls	0x007fa091
    1564:	000001b0 			; <UNDEFINED> instruction: 0x000001b0
    1568:	000001b8 			; <UNDEFINED> instruction: 0x000001b8
    156c:	a1910004 	orrsge	r0, r1, r4
    1570:	01b89f7f 			; <UNDEFINED> instruction: 0x01b89f7f
    1574:	01bc0000 			; <UNDEFINED> instruction: 0x01bc0000
    1578:	00010000 	andeq	r0, r1, r0
    157c:	0001bc50 	andeq	fp, r1, r0, asr ip
    1580:	0001c000 	andeq	ip, r1, r0
    1584:	91000400 	tstls	r0, r0, lsl #8
    1588:	c09f7fa0 	addsgt	r7, pc, r0, lsr #31
    158c:	d4000001 	strle	r0, [r0], #-1
    1590:	01000001 	tsteq	r0, r1
    1594:	01d45000 	bicseq	r5, r4, r0
    1598:	01e40000 	mvneq	r0, r0
    159c:	00030000 	andeq	r0, r3, r0
    15a0:	e49f7f70 	ldr	r7, [pc], #3952	; 15a8 <__code_start__-0x6a58>
    15a4:	24000001 	strcs	r0, [r0], #-1
    15a8:	04000002 	streq	r0, [r0], #-2
    15ac:	7fa09100 	svcvc	0x00a09100
    15b0:	0000009f 	muleq	r0, pc, r0	; <UNPREDICTABLE>
	...
    15bc:	00000101 	andeq	r0, r0, r1, lsl #2
	...
    15cc:	00009000 	andeq	r9, r0, r0
    15d0:	0000dc00 	andeq	sp, r0, r0, lsl #24
    15d4:	5c000100 	stfpls	f0, [r0], {-0}
    15d8:	000000dc 	ldrdeq	r0, [r0], -ip
    15dc:	000000f4 	strdeq	r0, [r0], -r4
    15e0:	f4530001 			; <UNDEFINED> instruction: 0xf4530001
    15e4:	4c000000 	stcmi	0, cr0, [r0], {-0}
    15e8:	01000001 	tsteq	r0, r1
    15ec:	014c5c00 	cmpeq	ip, r0, lsl #24
    15f0:	01580000 	cmpeq	r8, r0
    15f4:	00010000 	andeq	r0, r1, r0
    15f8:	00015853 	andeq	r5, r1, r3, asr r8
    15fc:	00017400 	andeq	r7, r1, r0, lsl #8
    1600:	5c000100 	stfpls	f0, [r0], {-0}
    1604:	000001b0 			; <UNDEFINED> instruction: 0x000001b0
    1608:	000001c0 	andeq	r0, r0, r0, asr #3
    160c:	c0530001 	subsgt	r0, r3, r1
    1610:	dc000001 	stcle	0, cr0, [r0], {1}
    1614:	01000001 	tsteq	r0, r1
    1618:	01e45c00 	mvneq	r5, r0, lsl #24
    161c:	01e80000 	mvneq	r0, r0
    1620:	00010000 	andeq	r0, r1, r0
    1624:	0001e853 	andeq	lr, r1, r3, asr r8
    1628:	0001ff00 	andeq	pc, r1, r0, lsl #30
    162c:	5c000100 	stfpls	f0, [r0], {-0}
    1630:	000001ff 	strdeq	r0, [r0], -pc	; <UNPREDICTABLE>
    1634:	00000224 	andeq	r0, r0, r4, lsr #4
    1638:	01f30004 	mvnseq	r0, r4
    163c:	00009f53 	andeq	r9, r0, r3, asr pc
    1640:	00000000 	andeq	r0, r0, r0
    1644:	01010000 	mrseq	r0, (UNDEF: 1)
    1648:	00000001 	andeq	r0, r0, r1
    164c:	00dc0000 	sbcseq	r0, ip, r0
    1650:	00f00000 	rscseq	r0, r0, r0
    1654:	00020000 	andeq	r0, r2, r0
    1658:	00f09f30 	rscseq	r9, r0, r0, lsr pc
    165c:	00f80000 	rscseq	r0, r8, r0
    1660:	00020000 	andeq	r0, r2, r0
    1664:	00fc9f31 	rscseq	r9, ip, r1, lsr pc
    1668:	014c0000 	mrseq	r0, (UNDEF: 76)
    166c:	00010000 	andeq	r0, r1, r0
    1670:	00014c56 	andeq	r4, r1, r6, asr ip
    1674:	00015400 	andeq	r5, r1, r0, lsl #8
    1678:	30000200 	andcc	r0, r0, r0, lsl #4
    167c:	0000009f 	muleq	r0, pc, r0	; <UNPREDICTABLE>
	...
    1688:	00000101 	andeq	r0, r0, r1, lsl #2
    168c:	38000101 	stmdacc	r0, {r0, r8}
    1690:	54000000 	strpl	r0, [r0], #-0
    1694:	01000000 	mrseq	r0, (UNDEF: 0)
    1698:	00545000 	subseq	r5, r4, r0
    169c:	00580000 	subseq	r0, r8, r0
    16a0:	00010000 	andeq	r0, r1, r0
    16a4:	00005852 	andeq	r5, r0, r2, asr r8
    16a8:	00006000 	andeq	r6, r0, r0
    16ac:	72000300 	andvc	r0, r0, #0, 6
    16b0:	00609f01 	rsbeq	r9, r0, r1, lsl #30
    16b4:	00640000 	rsbeq	r0, r4, r0
    16b8:	00010000 	andeq	r0, r1, r0
    16bc:	00006452 	andeq	r6, r0, r2, asr r4
    16c0:	00007000 	andeq	r7, r0, r0
    16c4:	72000300 	andvc	r0, r0, #0, 6
    16c8:	00009f01 	andeq	r9, r0, r1, lsl #30
	...
    16d4:	00380000 	eorseq	r0, r8, r0
    16d8:	00500000 	subseq	r0, r0, r0
    16dc:	00010000 	andeq	r0, r1, r0
    16e0:	00005051 	andeq	r5, r0, r1, asr r0
    16e4:	00007000 	andeq	r7, r0, r0
    16e8:	f3000400 	vshl.u8	d0, d0, d0
    16ec:	009f5101 	addseq	r5, pc, r1, lsl #2
	...
    16fc:	38000101 	stmdacc	r0, {r0, r8}
    1700:	50000000 	andpl	r0, r0, r0
    1704:	01000000 	mrseq	r0, (UNDEF: 0)
    1708:	00505200 	subseq	r5, r0, r0, lsl #4
    170c:	005c0000 	subseq	r0, ip, r0
    1710:	00010000 	andeq	r0, r1, r0
    1714:	00005c51 	andeq	r5, r0, r1, asr ip
    1718:	00006000 	andeq	r6, r0, r0
    171c:	71000300 	mrsvc	r0, LR_irq
    1720:	00609f01 	rsbeq	r9, r0, r1, lsl #30
    1724:	00700000 	rsbseq	r0, r0, r0
    1728:	00010000 	andeq	r0, r1, r0
    172c:	00000051 	andeq	r0, r0, r1, asr r0
	...
    1738:	00003800 	andeq	r3, r0, r0, lsl #16
    173c:	00004c00 	andeq	r4, r0, r0, lsl #24
    1740:	53000100 	movwpl	r0, #256	; 0x100
    1744:	0000004c 	andeq	r0, r0, ip, asr #32
    1748:	00000068 	andeq	r0, r0, r8, rrx
    174c:	00530001 	subseq	r0, r3, r1
	...
    175c:	40000000 	andmi	r0, r0, r0
    1760:	48000000 	stmdami	r0, {}	; <UNPREDICTABLE>
    1764:	01000000 	mrseq	r0, (UNDEF: 0)
    1768:	00485c00 	subeq	r5, r8, r0, lsl #24
    176c:	004c0000 	subeq	r0, ip, r0
    1770:	00080000 	andeq	r0, r8, r0
    1774:	00730072 	rsbseq	r0, r3, r2, ror r0
    1778:	9f01231c 	svcls	0x0001231c
    177c:	0000004c 	andeq	r0, r0, ip, asr #32
    1780:	00000054 	andeq	r0, r0, r4, asr r0
    1784:	00720009 	rsbseq	r0, r2, r9
    1788:	1c5301f3 	ldfnee	f0, [r3], {243}	; 0xf3
    178c:	549f0123 	ldrpl	r0, [pc], #291	; 1794 <__code_start__-0x686c>
    1790:	70000000 	andvc	r0, r0, r0
    1794:	0a000000 	beq	179c <__code_start__-0x6864>
    1798:	5201f300 	andpl	pc, r1, #0, 6
    179c:	1c5301f3 	ldfnee	f0, [r3], {243}	; 0xf3
    17a0:	009f0123 	addseq	r0, pc, r3, lsr #2
    17a4:	00000000 	andeq	r0, r0, r0
    17a8:	01000000 	mrseq	r0, (UNDEF: 0)
    17ac:	00004c00 	andeq	r4, r0, r0, lsl #24
    17b0:	00007000 	andeq	r7, r0, r0
    17b4:	50000100 	andpl	r0, r0, r0, lsl #2
	...
    17c0:	00010100 	andeq	r0, r1, r0, lsl #2
    17c4:	00140000 	andseq	r0, r4, r0
    17c8:	001c0000 	andseq	r0, ip, r0
    17cc:	00010000 	andeq	r0, r1, r0
    17d0:	00001c50 	andeq	r1, r0, r0, asr ip
    17d4:	00002400 	andeq	r2, r0, r0, lsl #8
    17d8:	70000300 	andvc	r0, r0, r0, lsl #6
    17dc:	00249f01 	eoreq	r9, r4, r1, lsl #30
    17e0:	00380000 	eorseq	r0, r8, r0
    17e4:	00010000 	andeq	r0, r1, r0
    17e8:	00000050 	andeq	r0, r0, r0, asr r0
	...
    17f4:	00001400 	andeq	r1, r0, r0, lsl #8
    17f8:	00001800 	andeq	r1, r0, r0, lsl #16
    17fc:	51000100 	mrspl	r0, (UNDEF: 16)
    1800:	00000018 	andeq	r0, r0, r8, lsl r0
    1804:	00000038 	andeq	r0, r0, r8, lsr r0
    1808:	01f30004 	mvnseq	r0, r4
    180c:	00009f51 	andeq	r9, r0, r1, asr pc
	...
    1818:	00000018 	andeq	r0, r0, r8, lsl r0
    181c:	00000038 	andeq	r0, r0, r8, lsr r0
    1820:	00510001 	subseq	r0, r1, r1
	...
    1834:	00000400 	andeq	r0, r0, r0, lsl #8
    1838:	50000100 	andpl	r0, r0, r0, lsl #2
    183c:	00000004 	andeq	r0, r0, r4
    1840:	0000000c 	andeq	r0, r0, ip
    1844:	30700003 	rsbscc	r0, r0, r3
    1848:	00000c9f 	muleq	r0, pc, ip	; <UNPREDICTABLE>
    184c:	00001400 	andeq	r1, r0, r0, lsl #8
    1850:	f3000400 	vshl.u8	d0, d0, d0
    1854:	009f5001 	addseq	r5, pc, r1
	...
    1860:	24000000 	strcs	r0, [r0], #-0
    1864:	68000002 	stmdavs	r0, {r1}
    1868:	01000002 	tsteq	r0, r2
    186c:	02685000 	rsbeq	r5, r8, #0, 0
    1870:	02880000 	addeq	r0, r8, #0, 0
    1874:	00040000 	andeq	r0, r4, r0
    1878:	9f5001f3 	svcls	0x005001f3
	...
    1888:	00000224 	andeq	r0, r0, r4, lsr #4
    188c:	00000264 	andeq	r0, r0, r4, ror #4
    1890:	64510001 	ldrbvs	r0, [r1], #-1
    1894:	88000002 	stmdahi	r0, {r1}
    1898:	04000002 	streq	r0, [r0], #-2
    189c:	5101f300 	mrspl	pc, SP_irq	; <UNPREDICTABLE>
    18a0:	0000009f 	muleq	r0, pc, r0	; <UNPREDICTABLE>
    18a4:	00000000 	andeq	r0, r0, r0
    18a8:	01010000 	mrseq	r0, (UNDEF: 1)
    18ac:	70000000 	andvc	r0, r0, r0
    18b0:	7000008c 	andvc	r0, r0, ip, lsl #1
    18b4:	0100008c 	smlabbeq	r0, ip, r0, r0
    18b8:	8c705300 	ldclhi	3, cr5, [r0], #-0
    18bc:	8c740000 	ldclhi	0, cr0, [r4], #-0
    18c0:	00070000 	andeq	r0, r7, r0
    18c4:	ff0b0073 			; <UNDEFINED> instruction: 0xff0b0073
    18c8:	749f1aef 	ldrvc	r1, [pc], #2799	; 18d0 <__code_start__-0x6730>
    18cc:	7c00008c 	stcvc	0, cr0, [r0], {140}	; 0x8c
    18d0:	0100008c 	smlabbeq	r0, ip, r0, r0
    18d4:	00005300 	andeq	r5, r0, r0, lsl #6
    18d8:	00000000 	andeq	r0, r0, r0
    18dc:	01000000 	mrseq	r0, (UNDEF: 0)
    18e0:	00000001 	andeq	r0, r0, r1
    18e4:	00008c60 	andeq	r8, r0, r0, ror #24
    18e8:	00008c60 	andeq	r8, r0, r0, ror #24
    18ec:	60530001 	subsvs	r0, r3, r1
    18f0:	6400008c 	strvs	r0, [r0], #-140	; 0xffffff74
    18f4:	0700008c 	streq	r0, [r0, -ip, lsl #1]
    18f8:	0a007300 	beq	1e500 <__bss_end__+0x14788>
    18fc:	9f211000 	svcls	0x00211000
    1900:	00008c64 	andeq	r8, r0, r4, ror #24
    1904:	00008c6c 	andeq	r8, r0, ip, ror #24
    1908:	00530001 	subseq	r0, r3, r1
	...
    1914:	00000101 	andeq	r0, r0, r1, lsl #2
    1918:	00000c00 	andeq	r0, r0, r0, lsl #24
    191c:	00001400 	andeq	r1, r0, r0, lsl #8
    1920:	53000100 	movwpl	r0, #256	; 0x100
    1924:	00000014 	andeq	r0, r0, r4, lsl r0
    1928:	0000001c 	andeq	r0, r0, ip, lsl r0
    192c:	04730003 	ldrbteq	r0, [r3], #-3
    1930:	00001c9f 	muleq	r0, pc, ip	; <UNPREDICTABLE>
    1934:	00002300 	andeq	r2, r0, r0, lsl #6
    1938:	53000100 	movwpl	r0, #256	; 0x100
	...
    1944:	8d340001 	ldchi	0, cr0, [r4, #-4]!
    1948:	8d500000 	ldclhi	0, cr0, [r0, #-0]
    194c:	00060000 	andeq	r0, r6, r0
    1950:	10001c0c 	andne	r1, r0, ip, lsl #24
    1954:	00009f20 	andeq	r9, r0, r0, lsr #30
    1958:	00000000 	andeq	r0, r0, r0
    195c:	00020000 	andeq	r0, r2, r0
    1960:	00008d34 	andeq	r8, r0, r4, lsr sp
    1964:	00008d50 	andeq	r8, r0, r0, asr sp
    1968:	240c0006 	strcs	r0, [ip], #-6
    196c:	9f201000 	svcls	0x00201000
	...
    1978:	8d340003 	ldchi	0, cr0, [r4, #-12]!
    197c:	8d500000 	ldclhi	0, cr0, [r0, #-0]
    1980:	00050000 	andeq	r0, r5, r0
    1984:	2447b408 	strbcs	fp, [r7], #-1032	; 0xfffffbf8
    1988:	0000009f 	muleq	r0, pc, r0	; <UNPREDICTABLE>
    198c:	00000000 	andeq	r0, r0, r0
    1990:	34000400 	strcc	r0, [r0], #-1024	; 0xfffffc00
    1994:	5000008d 	andpl	r0, r0, sp, lsl #1
    1998:	0300008d 	movweq	r0, #141	; 0x8d
    199c:	9f200800 	svcls	0x00200800
	...
    19a8:	00000002 	andeq	r0, r0, r2
    19ac:	8d000000 	stchi	0, cr0, [r0, #-0]
    19b0:	8d040000 	stchi	0, cr0, [r4, #-0]
    19b4:	00020000 	andeq	r0, r2, r0
    19b8:	8d049f30 	stchi	15, cr9, [r4, #-192]	; 0xffffff40
    19bc:	8d080000 	stchi	0, cr0, [r8, #-0]
    19c0:	00010000 	andeq	r0, r1, r0
    19c4:	008d0c53 	addeq	r0, sp, r3, asr ip
    19c8:	008d1400 	addeq	r1, sp, r0, lsl #8
    19cc:	53000100 	movwpl	r0, #256	; 0x100
	...
    19d8:	00000002 	andeq	r0, r0, r2
    19dc:	00008ce8 	andeq	r8, r0, r8, ror #25
    19e0:	00008cec 	andeq	r8, r0, ip, ror #25
    19e4:	9f300002 	svcls	0x00300002
    19e8:	00008cec 	andeq	r8, r0, ip, ror #25
    19ec:	00008cf0 	strdeq	r8, [r0], -r0
    19f0:	00500001 	subseq	r0, r0, r1
	...
    19fc:	6c000000 	stcvs	0, cr0, [r0], {-0}
    1a00:	78000000 	stmdavc	r0, {}	; <UNPREDICTABLE>
    1a04:	01000000 	mrseq	r0, (UNDEF: 0)
    1a08:	00785000 	rsbseq	r5, r8, r0
    1a0c:	00840000 	addeq	r0, r4, r0
    1a10:	00040000 	andeq	r0, r4, r0
    1a14:	9f5001f3 	svcls	0x005001f3
	...
    1a24:	00000054 	andeq	r0, r0, r4, asr r0
    1a28:	00000060 	andeq	r0, r0, r0, rrx
    1a2c:	60500001 	subsvs	r0, r0, r1
    1a30:	6c000000 	stcvs	0, cr0, [r0], {-0}
    1a34:	04000000 	streq	r0, [r0], #-0
    1a38:	5001f300 	andpl	pc, r1, r0, lsl #6
    1a3c:	0000009f 	muleq	r0, pc, r0	; <UNPREDICTABLE>
	...
    1a48:	00003000 	andeq	r3, r0, r0
    1a4c:	00003b00 	andeq	r3, r0, r0, lsl #22
    1a50:	50000100 	andpl	r0, r0, r0, lsl #2
    1a54:	0000003b 	andeq	r0, r0, fp, lsr r0
    1a58:	00000054 	andeq	r0, r0, r4, asr r0
    1a5c:	00550001 	subseq	r0, r5, r1
	...
    1a68:	00004000 	andeq	r4, r0, r0
    1a6c:	00005400 	andeq	r5, r0, r0, lsl #8
    1a70:	54000100 	strpl	r0, [r0], #-256	; 0xffffff00
	...
    1a7c:	00440000 	subeq	r0, r4, r0
    1a80:	00480000 	subeq	r0, r8, r0
    1a84:	00010000 	andeq	r0, r1, r0
    1a88:	00000050 	andeq	r0, r0, r0, asr r0
	...
    1a94:	00002400 	andeq	r2, r0, r0, lsl #8
    1a98:	00002700 	andeq	r2, r0, r0, lsl #14
    1a9c:	50000100 	andpl	r0, r0, r0, lsl #2
    1aa0:	00000027 	andeq	r0, r0, r7, lsr #32
    1aa4:	00000030 	andeq	r0, r0, r0, lsr r0
    1aa8:	00540001 	subseq	r0, r4, r1
	...
    1ab8:	e8000000 	stmda	r0, {}	; <UNPREDICTABLE>
    1abc:	00000000 	andeq	r0, r0, r0
    1ac0:	01000001 	tsteq	r0, r1
    1ac4:	01005000 	mrseq	r5, (UNDEF: 0)
    1ac8:	01100000 	tsteq	r0, r0
    1acc:	00040000 	andeq	r0, r4, r0
    1ad0:	9f5001f3 	svcls	0x005001f3
    1ad4:	00000110 	andeq	r0, r0, r0, lsl r1
    1ad8:	00000114 	andeq	r0, r0, r4, lsl r1
    1adc:	14500001 	ldrbne	r0, [r0], #-1
    1ae0:	1c000001 	stcne	0, cr0, [r0], {1}
    1ae4:	04000001 	streq	r0, [r0], #-1
    1ae8:	5001f300 	andpl	pc, r1, r0, lsl #6
    1aec:	0000009f 	muleq	r0, pc, r0	; <UNPREDICTABLE>
    1af0:	00000000 	andeq	r0, r0, r0
    1af4:	00000100 	andeq	r0, r0, r0, lsl #2
    1af8:	f4000000 	vst4.8	{d0-d3}, [r0], r0
    1afc:	00000000 	andeq	r0, r0, r0
    1b00:	0b000001 	bleq	1b0c <__code_start__-0x64f4>
    1b04:	35007000 	strcc	r7, [r0, #-0]
    1b08:	80b42325 	adcshi	r2, r4, r5, lsr #6
    1b0c:	9f028180 	svcls	0x00028180
    1b10:	00000100 	andeq	r0, r0, r0, lsl #2
    1b14:	00000103 	andeq	r0, r0, r3, lsl #2
    1b18:	03500001 	cmpeq	r0, #1, 0
    1b1c:	10000001 	andne	r0, r0, r1
    1b20:	0c000001 	stceq	0, cr0, [r0], {1}
    1b24:	5001f300 	andpl	pc, r1, r0, lsl #6
    1b28:	b4232535 	strtlt	r2, [r3], #-1333	; 0xfffffacb
    1b2c:	02818080 	addeq	r8, r1, #128, 0	; 0x80
    1b30:	0000009f 	muleq	r0, pc, r0	; <UNPREDICTABLE>
    1b34:	00000000 	andeq	r0, r0, r0
    1b38:	f8000000 			; <UNDEFINED> instruction: 0xf8000000
    1b3c:	10000000 	andne	r0, r0, r0
    1b40:	01000001 	tsteq	r0, r1
    1b44:	00005400 	andeq	r5, r0, r0, lsl #8
	...
    1b54:	00cc0000 	sbceq	r0, ip, r0
    1b58:	00db0000 	sbcseq	r0, fp, r0
    1b5c:	00010000 	andeq	r0, r1, r0
    1b60:	0000db50 	andeq	sp, r0, r0, asr fp
    1b64:	0000e000 	andeq	lr, r0, r0
    1b68:	f3000400 	vshl.u8	d0, d0, d0
    1b6c:	e09f5001 	adds	r5, pc, r1
    1b70:	e3000000 	movw	r0, #0
    1b74:	01000000 	mrseq	r0, (UNDEF: 0)
    1b78:	00e35000 	rsceq	r5, r3, r0
    1b7c:	00e80000 	rsceq	r0, r8, r0
    1b80:	00040000 	andeq	r0, r4, r0
    1b84:	9f5001f3 	svcls	0x005001f3
	...
    1b98:	000000cc 	andeq	r0, r0, ip, asr #1
    1b9c:	000000db 	ldrdeq	r0, [r0], -fp
    1ba0:	db510001 	blle	1441bac <__bss_end__+0x1437e34>
    1ba4:	e0000000 	and	r0, r0, r0
    1ba8:	04000000 	streq	r0, [r0], #-0
    1bac:	5101f300 	mrspl	pc, SP_irq	; <UNPREDICTABLE>
    1bb0:	0000e09f 	muleq	r0, pc, r0	; <UNPREDICTABLE>
    1bb4:	0000e300 	andeq	lr, r0, r0, lsl #6
    1bb8:	51000100 	mrspl	r0, (UNDEF: 16)
    1bbc:	000000e3 	andeq	r0, r0, r3, ror #1
    1bc0:	000000e8 	andeq	r0, r0, r8, ror #1
    1bc4:	01f30004 	mvnseq	r0, r4
    1bc8:	00009f51 	andeq	r9, r0, r1, asr pc
	...
    1bd4:	00bc0000 	adcseq	r0, ip, r0
    1bd8:	00c70000 	sbceq	r0, r7, r0
    1bdc:	00010000 	andeq	r0, r1, r0
    1be0:	0000c750 	andeq	ip, r0, r0, asr r7
    1be4:	0000cc00 	andeq	ip, r0, r0, lsl #24
    1be8:	f3000400 	vshl.u8	d0, d0, d0
    1bec:	009f5001 	addseq	r5, pc, r1
	...
    1bf8:	98000000 	stmdals	r0, {}	; <UNPREDICTABLE>
    1bfc:	b0000000 	andlt	r0, r0, r0
    1c00:	01000000 	mrseq	r0, (UNDEF: 0)
    1c04:	00b05000 	adcseq	r5, r0, r0
    1c08:	00bc0000 	adcseq	r0, ip, r0
    1c0c:	00040000 	andeq	r0, r4, r0
    1c10:	9f5001f3 	svcls	0x005001f3
	...
    1c20:	00000074 	andeq	r0, r0, r4, ror r0
    1c24:	0000008c 	andeq	r0, r0, ip, lsl #1
    1c28:	8c500001 	mrrchi	0, 0, r0, r0, cr1	; <UNPREDICTABLE>
    1c2c:	98000000 	stmdals	r0, {}	; <UNPREDICTABLE>
    1c30:	04000000 	streq	r0, [r0], #-0
    1c34:	5001f300 	andpl	pc, r1, r0, lsl #6
    1c38:	0000009f 	muleq	r0, pc, r0	; <UNPREDICTABLE>
	...
    1c44:	00006400 	andeq	r6, r0, r0, lsl #8
    1c48:	00006f00 	andeq	r6, r0, r0, lsl #30
    1c4c:	50000100 	andpl	r0, r0, r0, lsl #2
    1c50:	0000006f 	andeq	r0, r0, pc, rrx
    1c54:	00000074 	andeq	r0, r0, r4, ror r0
    1c58:	01f30004 	mvnseq	r0, r4
    1c5c:	00009f50 	andeq	r9, r0, r0, asr pc
	...
    1c6c:	00380000 	eorseq	r0, r8, r0
    1c70:	00010000 	andeq	r0, r1, r0
    1c74:	00003850 	andeq	r3, r0, r0, asr r8
    1c78:	00006400 	andeq	r6, r0, r0, lsl #8
    1c7c:	f3000400 	vshl.u8	d0, d0, d0
    1c80:	009f5001 	addseq	r5, pc, r1
	...
    1c90:	47000000 	strmi	r0, [r0, -r0]
    1c94:	01000000 	mrseq	r0, (UNDEF: 0)
    1c98:	00475100 	subeq	r5, r7, r0, lsl #2
    1c9c:	00640000 	rsbeq	r0, r4, r0
    1ca0:	00040000 	andeq	r0, r4, r0
    1ca4:	9f5101f3 	svcls	0x005101f3
	...
    1cb0:	00340000 	eorseq	r0, r4, r0
    1cb4:	00640000 	rsbeq	r0, r4, r0
    1cb8:	00010000 	andeq	r0, r1, r0
    1cbc:	00000054 	andeq	r0, r0, r4, asr r0
    1cc0:	00000000 	andeq	r0, r0, r0
    1cc4:	40000000 	andmi	r0, r0, r0
    1cc8:	64000000 	strvs	r0, [r0], #-0
    1ccc:	01000000 	mrseq	r0, (UNDEF: 0)
    1cd0:	00005600 	andeq	r5, r0, r0, lsl #12
	...
    1cdc:	00010100 	andeq	r0, r1, r0, lsl #2
    1ce0:	00480000 	subeq	r0, r8, r0
    1ce4:	00500000 	subseq	r0, r0, r0
    1ce8:	00010000 	andeq	r0, r1, r0
    1cec:	00005050 	andeq	r5, r0, r0, asr r0
    1cf0:	00005000 	andeq	r5, r0, r0
    1cf4:	51000100 	mrspl	r0, (UNDEF: 16)
    1cf8:	00000050 	andeq	r0, r0, r0, asr r0
    1cfc:	00000054 	andeq	r0, r0, r4, asr r0
    1d00:	00750009 	rsbseq	r0, r5, r9
    1d04:	71240074 			; <UNDEFINED> instruction: 0x71240074
    1d08:	549f2100 	ldrpl	r2, [pc], #256	; 1d10 <__code_start__-0x62f0>
    1d0c:	5b000000 	blpl	1d14 <__code_start__-0x62ec>
    1d10:	01000000 	mrseq	r0, (UNDEF: 0)
    1d14:	00005100 	andeq	r5, r0, r0, lsl #2
	...
    1d20:	01580000 	cmpeq	r8, r0
    1d24:	01630000 	cmneq	r3, r0
    1d28:	00010000 	andeq	r0, r1, r0
    1d2c:	00016350 	andeq	r6, r1, r0, asr r3
    1d30:	00018800 	andeq	r8, r1, r0, lsl #16
    1d34:	54000100 	strpl	r0, [r0], #-256	; 0xffffff00
	...
    1d40:	01480000 	mrseq	r0, (UNDEF: 72)
    1d44:	01580000 	cmpeq	r8, r0
    1d48:	00010000 	andeq	r0, r1, r0
    1d4c:	00000054 	andeq	r0, r0, r4, asr r0
	...
    1d5c:	00000f00 	andeq	r0, r0, r0, lsl #30
    1d60:	50000100 	andpl	r0, r0, r0, lsl #2
    1d64:	0000000f 	andeq	r0, r0, pc
    1d68:	00000020 	andeq	r0, r0, r0, lsr #32
    1d6c:	00540001 	subseq	r0, r4, r1
	...
    1d7c:	0f000000 	svceq	0x00000000
    1d80:	01000000 	mrseq	r0, (UNDEF: 0)
    1d84:	000f5100 	andeq	r5, pc, r0, lsl #2
    1d88:	00200000 	eoreq	r0, r0, r0
    1d8c:	00010000 	andeq	r0, r1, r0
    1d90:	00000055 	andeq	r0, r0, r5, asr r0
	...
    1d9c:	00002000 	andeq	r2, r0, r0
    1da0:	00002f00 	andeq	r2, r0, r0, lsl #30
    1da4:	50000100 	andpl	r0, r0, r0, lsl #2
    1da8:	0000002f 	andeq	r0, r0, pc, lsr #32
    1dac:	00000040 	andeq	r0, r0, r0, asr #32
    1db0:	00540001 	subseq	r0, r4, r1
	...
    1dbc:	20000000 	andcs	r0, r0, r0
    1dc0:	2f000000 	svccs	0x00000000
    1dc4:	01000000 	mrseq	r0, (UNDEF: 0)
    1dc8:	002f5100 	eoreq	r5, pc, r0, lsl #2
    1dcc:	00400000 	subeq	r0, r0, r0
    1dd0:	00010000 	andeq	r0, r1, r0
    1dd4:	00000055 	andeq	r0, r0, r5, asr r0
	...
    1de0:	50000000 	andpl	r0, r0, r0
    1de4:	98000003 	stmdals	r0, {r0, r1}
    1de8:	01000003 	tsteq	r0, r3
    1dec:	03985000 	orrseq	r5, r8, #0, 0
    1df0:	039b0000 	orrseq	r0, fp, #0, 0
    1df4:	00020000 	andeq	r0, r2, r0
    1df8:	039b6891 	orrseq	r6, fp, #9502720	; 0x910000
    1dfc:	03b00000 	movseq	r0, #0, 0
    1e00:	00040000 	andeq	r0, r4, r0
    1e04:	9f5001f3 	svcls	0x005001f3
	...
    1e24:	00000220 	andeq	r0, r0, r0, lsr #4
    1e28:	0000027b 	andeq	r0, r0, fp, ror r2
    1e2c:	7b500001 	blvc	1401e38 <__bss_end__+0x13f80c0>
    1e30:	84000002 	strhi	r0, [r0], #-2
    1e34:	04000002 	streq	r0, [r0], #-2
    1e38:	5001f300 	andpl	pc, r1, r0, lsl #6
    1e3c:	0002849f 	muleq	r2, pc, r4	; <UNPREDICTABLE>
    1e40:	00029c00 	andeq	r9, r2, r0, lsl #24
    1e44:	50000100 	andpl	r0, r0, r0, lsl #2
    1e48:	0000029c 	muleq	r0, ip, r2
    1e4c:	000002a4 	andeq	r0, r0, r4, lsr #5
    1e50:	01f30004 	mvnseq	r0, r4
    1e54:	02a49f50 	adceq	r9, r4, #80, 30	; 0x140
    1e58:	02a70000 	adceq	r0, r7, #0, 0
    1e5c:	00010000 	andeq	r0, r1, r0
    1e60:	0002a750 	andeq	sl, r2, r0, asr r7
    1e64:	0002c800 	andeq	ip, r2, r0, lsl #16
    1e68:	f3000400 	vshl.u8	d0, d0, d0
    1e6c:	c89f5001 	ldmgt	pc, {r0, ip, lr}	; <UNPREDICTABLE>
    1e70:	e0000002 	and	r0, r0, r2
    1e74:	01000002 	tsteq	r0, r2
    1e78:	02e05000 	rsceq	r5, r0, #0, 0
    1e7c:	02e80000 	rsceq	r0, r8, #0, 0
    1e80:	00040000 	andeq	r0, r4, r0
    1e84:	9f5001f3 	svcls	0x005001f3
    1e88:	000002e8 	andeq	r0, r0, r8, ror #5
    1e8c:	000002eb 	andeq	r0, r0, fp, ror #5
    1e90:	eb500001 	bl	1401e9c <__bss_end__+0x13f8124>
    1e94:	38000002 	stmdacc	r0, {r1}
    1e98:	04000003 	streq	r0, [r0], #-3
    1e9c:	5001f300 	andpl	pc, r1, r0, lsl #6
    1ea0:	0000009f 	muleq	r0, pc, r0	; <UNPREDICTABLE>
	...
    1ebc:	00022000 	andeq	r2, r2, r0
    1ec0:	00024400 	andeq	r4, r2, r0, lsl #8
    1ec4:	51000100 	mrspl	r0, (UNDEF: 16)
    1ec8:	00000244 	andeq	r0, r0, r4, asr #4
    1ecc:	00000268 	andeq	r0, r0, r8, ror #4
    1ed0:	68510001 	ldmdavs	r1, {r0}^
    1ed4:	7b000002 	blvc	1ee4 <__code_start__-0x611c>
    1ed8:	03000002 	movweq	r0, #2
    1edc:	9f017100 	svcls	0x00017100
    1ee0:	0000027b 	andeq	r0, r0, fp, ror r2
    1ee4:	00000284 	andeq	r0, r0, r4, lsl #5
    1ee8:	f3380017 	vqadd.u64	d0, d8, d7
    1eec:	01f35101 	mvnseq	r5, r1, lsl #2
    1ef0:	244b4051 	strbcs	r4, [fp], #-81	; 0xffffffaf
    1ef4:	00080c22 	andeq	r0, r8, r2, lsr #24
    1ef8:	282d8000 	stmdacs	sp!, {pc}
    1efc:	13160001 	tstne	r6, #1, 0
    1f00:	0002849f 	muleq	r2, pc, r4	; <UNPREDICTABLE>
    1f04:	00029800 	andeq	r9, r2, r0, lsl #16
    1f08:	51000100 	mrspl	r0, (UNDEF: 16)
    1f0c:	00000298 	muleq	r0, r8, r2
    1f10:	000002a4 	andeq	r0, r0, r4, lsr #5
    1f14:	01f30004 	mvnseq	r0, r4
    1f18:	02a49f51 	adceq	r9, r4, #324	; 0x144
    1f1c:	02a70000 	adceq	r0, r7, #0, 0
    1f20:	00010000 	andeq	r0, r1, r0
    1f24:	0002a751 	andeq	sl, r2, r1, asr r7
    1f28:	0002c800 	andeq	ip, r2, r0, lsl #16
    1f2c:	f3000400 	vshl.u8	d0, d0, d0
    1f30:	c89f5101 	ldmgt	pc, {r0, r8, ip, lr}	; <UNPREDICTABLE>
    1f34:	dc000002 	stcle	0, cr0, [r0], {2}
    1f38:	01000002 	tsteq	r0, r2
    1f3c:	02dc5100 	sbcseq	r5, ip, #0
    1f40:	03380000 	teqeq	r8, #0, 0
    1f44:	00170000 	andseq	r0, r7, r0
    1f48:	5101f338 	tstpl	r1, r8, lsr r3	; <UNPREDICTABLE>
    1f4c:	405101f3 	ldrshmi	r0, [r1], #-19	; 0xffffffed
    1f50:	0c22244b 	cfstrseq	mvf2, [r2], #-300	; 0xfffffed4
    1f54:	80000008 	andhi	r0, r0, r8
    1f58:	0001282d 	andeq	r2, r1, sp, lsr #16
    1f5c:	009f1316 	addseq	r1, pc, r6, lsl r3	; <UNPREDICTABLE>
	...
    1f70:	4c000000 	stcmi	0, cr0, [r0], {-0}
    1f74:	5c000002 	stcpl	0, cr0, [r0], {2}
    1f78:	01000002 	tsteq	r0, r2
    1f7c:	025c5200 	subseq	r5, ip, #0, 4
    1f80:	02640000 	rsbeq	r0, r4, #0, 0
    1f84:	00050000 	andeq	r0, r5, r0
    1f88:	00996c03 	addseq	r6, r9, r3, lsl #24
    1f8c:	00026400 	andeq	r6, r2, r0, lsl #8
    1f90:	00027b00 	andeq	r7, r2, r0, lsl #22
    1f94:	53000100 	movwpl	r0, #256	; 0x100
    1f98:	000002c8 	andeq	r0, r0, r8, asr #5
    1f9c:	000002d8 	ldrdeq	r0, [r0], -r8
    1fa0:	d8520001 	ldmdale	r2, {r0}^
    1fa4:	e3000002 	movw	r0, #2
    1fa8:	05000002 	streq	r0, [r0, #-2]
    1fac:	996c0300 	stmdbls	ip!, {r8, r9}^
    1fb0:	02e80000 	rsceq	r0, r8, #0, 0
    1fb4:	02eb0000 	rsceq	r0, fp, #0, 0
    1fb8:	00010000 	andeq	r0, r1, r0
    1fbc:	00000053 	andeq	r0, r0, r3, asr r0
    1fc0:	00000000 	andeq	r0, r0, r0
    1fc4:	30000400 	andcc	r0, r0, r0, lsl #8
    1fc8:	34000002 	strcc	r0, [r0], #-2
    1fcc:	01000002 	tsteq	r0, r2
    1fd0:	00005100 	andeq	r5, r0, r0, lsl #2
    1fd4:	00000000 	andeq	r0, r0, r0
    1fd8:	00020000 	andeq	r0, r2, r0
    1fdc:	0000023c 	andeq	r0, r0, ip, lsr r2
    1fe0:	00000244 	andeq	r0, r0, r4, asr #4
    1fe4:	9f380002 	svcls	0x00380002
	...
    1ff0:	023c0002 	eorseq	r0, ip, #2, 0
    1ff4:	02440000 	subeq	r0, r4, #0, 0
    1ff8:	00010000 	andeq	r0, r1, r0
    1ffc:	00000051 	andeq	r0, r0, r1, asr r0
    2000:	00000000 	andeq	r0, r0, r0
    2004:	00000100 	andeq	r0, r0, r0, lsl #2
    2008:	4c000000 	stcmi	0, cr0, [r0], {-0}
    200c:	64000002 	strvs	r0, [r0], #-2
    2010:	01000002 	tsteq	r0, r2
    2014:	02c85100 	sbceq	r5, r8, #0
    2018:	02dc0000 	sbcseq	r0, ip, #0, 0
    201c:	00010000 	andeq	r0, r1, r0
    2020:	0002dc51 	andeq	sp, r2, r1, asr ip
    2024:	0002e800 	andeq	lr, r2, r0, lsl #16
    2028:	38001700 	stmdacc	r0, {r8, r9, sl, ip}
    202c:	f35101f3 	vbsl	q8, <illegal reg q8.5>, <illegal reg q9.5>
    2030:	4b405101 	blmi	101643c <__bss_end__+0x100c6c4>
    2034:	080c2224 	stmdaeq	ip, {r2, r5, r9, sp}
    2038:	2d800000 	stccs	0, cr0, [r0]
    203c:	16000128 	strne	r0, [r0], -r8, lsr #2
    2040:	00009f13 	andeq	r9, r0, r3, lsl pc
    2044:	00000000 	andeq	r0, r0, r0
    2048:	00010000 	andeq	r0, r1, r0
    204c:	00000000 	andeq	r0, r0, r0
    2050:	024c0000 	subeq	r0, ip, #0, 0
    2054:	025c0000 	subseq	r0, ip, #0, 0
    2058:	00010000 	andeq	r0, r1, r0
    205c:	00025c52 	andeq	r5, r2, r2, asr ip
    2060:	00026400 	andeq	r6, r2, r0, lsl #8
    2064:	03000500 	movweq	r0, #1280	; 0x500
    2068:	0000996c 	andeq	r9, r0, ip, ror #18
    206c:	000002c8 	andeq	r0, r0, r8, asr #5
    2070:	000002d8 	ldrdeq	r0, [r0], -r8
    2074:	d8520001 	ldmdale	r2, {r0}^
    2078:	e3000002 	movw	r0, #2
    207c:	05000002 	streq	r0, [r0, #-2]
    2080:	996c0300 	stmdbls	ip!, {r8, r9}^
	...
    208c:	00040000 	andeq	r0, r4, r0
    2090:	0000024c 	andeq	r0, r0, ip, asr #4
    2094:	00000250 	andeq	r0, r0, r0, asr r2
    2098:	00510001 	subseq	r0, r1, r1
    209c:	00000000 	andeq	r0, r0, r0
    20a0:	03000000 	movweq	r0, #0
    20a4:	00026400 	andeq	r6, r2, r0, lsl #8
    20a8:	00026800 	andeq	r6, r2, r0, lsl #16
    20ac:	51000100 	mrspl	r0, (UNDEF: 16)
	...
    20b8:	02640003 	rsbeq	r0, r4, #3, 0
    20bc:	02680000 	rsbeq	r0, r8, #0, 0
    20c0:	00010000 	andeq	r0, r1, r0
    20c4:	00000053 	andeq	r0, r0, r3, asr r0
	...
    20d4:	0001bc00 	andeq	fp, r1, r0, lsl #24
    20d8:	0001d300 	andeq	sp, r1, r0, lsl #6
    20dc:	50000100 	andpl	r0, r0, r0, lsl #2
    20e0:	000001d3 	ldrdeq	r0, [r0], -r3
    20e4:	000001f0 	strdeq	r0, [r0], -r0	; <UNPREDICTABLE>
    20e8:	f0540001 			; <UNDEFINED> instruction: 0xf0540001
    20ec:	08000001 	stmdaeq	r0, {r0}
    20f0:	01000002 	tsteq	r0, r2
    20f4:	02085000 	andeq	r5, r8, #0, 0
    20f8:	02200000 	eoreq	r0, r0, #0, 0
    20fc:	00010000 	andeq	r0, r1, r0
    2100:	00000054 	andeq	r0, r0, r4, asr r0
	...
    210c:	0001d800 	andeq	sp, r1, r0, lsl #16
    2110:	0001e300 	andeq	lr, r1, r0, lsl #6
    2114:	50000100 	andpl	r0, r0, r0, lsl #2
    2118:	000001e3 	andeq	r0, r0, r3, ror #3
    211c:	000001f0 	strdeq	r0, [r0], -r0	; <UNPREDICTABLE>
    2120:	00550001 	subseq	r0, r5, r1
	...
    2138:	24000000 	strcs	r0, [r0], #-0
    213c:	38000001 	stmdacc	r0, {r0}
    2140:	01000001 	tsteq	r0, r1
    2144:	01385000 	teqeq	r8, r0
    2148:	013c0000 	teqeq	ip, r0
    214c:	00030000 	andeq	r0, r3, r0
    2150:	3c9f7970 			; <UNDEFINED> instruction: 0x3c9f7970
    2154:	60000001 	andvs	r0, r0, r1
    2158:	01000001 	tsteq	r0, r1
    215c:	01605300 	cmneq	r0, r0, lsl #6
    2160:	01780000 	cmneq	r8, r0
    2164:	00010000 	andeq	r0, r1, r0
    2168:	00017850 	andeq	r7, r1, r0, asr r8
    216c:	00018000 	andeq	r8, r1, r0
    2170:	f3000400 	vshl.u8	d0, d0, d0
    2174:	809f5001 	addshi	r5, pc, r1
    2178:	90000001 	andls	r0, r0, r1
    217c:	01000001 	tsteq	r0, r1
    2180:	01905300 	orrseq	r5, r0, r0, lsl #6
    2184:	019f0000 	orrseq	r0, pc, r0
    2188:	00020000 	andeq	r0, r2, r0
    218c:	019f6891 			; <UNDEFINED> instruction: 0x019f6891
    2190:	01bc0000 			; <UNDEFINED> instruction: 0x01bc0000
    2194:	00090000 	andeq	r0, r9, r0
    2198:	235001f3 	cmpcs	r0, #-1073741764	; 0xc000003c
    219c:	1af80907 	bne	ffe045c0 <__bss_end__+0xffdfa848>
    21a0:	0000009f 	muleq	r0, pc, r0	; <UNPREDICTABLE>
	...
    21ac:	44000000 	strmi	r0, [r0], #-0
    21b0:	60000001 	andvs	r0, r0, r1
    21b4:	01000001 	tsteq	r0, r1
    21b8:	01805000 	orreq	r5, r0, r0
    21bc:	019c0000 	orrseq	r0, ip, r0
    21c0:	00010000 	andeq	r0, r1, r0
    21c4:	00019c50 	andeq	r9, r1, r0, asr ip
    21c8:	00019f00 	andeq	r9, r1, r0, lsl #30
    21cc:	03000500 	movweq	r0, #1280	; 0x500
    21d0:	0000996c 	andeq	r9, r0, ip, ror #18
	...
    21dc:	01340003 	teqeq	r4, r3
    21e0:	013c0000 	teqeq	ip, r0
    21e4:	00020000 	andeq	r0, r2, r0
    21e8:	00009f38 	andeq	r9, r0, r8, lsr pc
    21ec:	00000000 	andeq	r0, r0, r0
    21f0:	00030000 	andeq	r0, r3, r0
    21f4:	01340000 	teqeq	r4, r0
    21f8:	01380000 	teqeq	r8, r0
    21fc:	00010000 	andeq	r0, r1, r0
    2200:	00013850 	andeq	r3, r1, r0, asr r8
    2204:	00013c00 	andeq	r3, r1, r0, lsl #24
    2208:	70000300 	andvc	r0, r0, r0, lsl #6
    220c:	00009f79 	andeq	r9, r0, r9, ror pc
	...
    2224:	00000030 	andeq	r0, r0, r0, lsr r0
    2228:	00000060 	andeq	r0, r0, r0, rrx
    222c:	60500001 	subsvs	r0, r0, r1
    2230:	6c000000 	stcvs	0, cr0, [r0], {-0}
    2234:	05000000 	streq	r0, [r0, #-0]
    2238:	996c0300 	stmdbls	ip!, {r8, r9}^
    223c:	006c0000 	rsbeq	r0, ip, r0
    2240:	00840000 	addeq	r0, r4, r0
    2244:	00010000 	andeq	r0, r1, r0
    2248:	00008450 	andeq	r8, r0, r0, asr r4
    224c:	00008c00 	andeq	r8, r0, r0, lsl #24
    2250:	f3000400 	vshl.u8	d0, d0, d0
    2254:	8c9f5001 	ldchi	0, cr5, [pc], {1}
    2258:	ac000000 	stcge	0, cr0, [r0], {-0}
    225c:	01000000 	mrseq	r0, (UNDEF: 0)
    2260:	00ac5000 	adceq	r5, ip, r0
    2264:	00af0000 	adceq	r0, pc, r0
    2268:	00020000 	andeq	r0, r2, r0
    226c:	00af6891 	umlaleq	r6, pc, r1, r8	; <UNPREDICTABLE>
    2270:	00cc0000 	sbceq	r0, ip, r0
    2274:	00040000 	andeq	r0, r4, r0
    2278:	9f5001f3 	svcls	0x005001f3
	...
    228c:	00000030 	andeq	r0, r0, r0, lsr r0
    2290:	00000080 	andeq	r0, r0, r0, lsl #1
    2294:	80510001 	subshi	r0, r1, r1
    2298:	8c000000 	stchi	0, cr0, [r0], {-0}
    229c:	04000000 	streq	r0, [r0], #-0
    22a0:	5101f300 	mrspl	pc, SP_irq	; <UNPREDICTABLE>
    22a4:	00008c9f 	muleq	r0, pc, ip	; <UNPREDICTABLE>
    22a8:	0000a800 	andeq	sl, r0, r0, lsl #16
    22ac:	51000100 	mrspl	r0, (UNDEF: 16)
    22b0:	000000a8 	andeq	r0, r0, r8, lsr #1
    22b4:	000000cc 	andeq	r0, r0, ip, asr #1
    22b8:	01f30004 	mvnseq	r0, r4
    22bc:	00009f51 	andeq	r9, r0, r1, asr pc
    22c0:	00000000 	andeq	r0, r0, r0
    22c4:	00010000 	andeq	r0, r1, r0
	...
    22d4:	00000038 	andeq	r0, r0, r8, lsr r0
    22d8:	00000060 	andeq	r0, r0, r0, rrx
    22dc:	60500001 	subsvs	r0, r0, r1
    22e0:	6c000000 	stcvs	0, cr0, [r0], {-0}
    22e4:	05000000 	streq	r0, [r0, #-0]
    22e8:	996c0300 	stmdbls	ip!, {r8, r9}^
    22ec:	006c0000 	rsbeq	r0, ip, r0
    22f0:	00840000 	addeq	r0, r4, r0
    22f4:	00010000 	andeq	r0, r1, r0
    22f8:	00008450 	andeq	r8, r0, r0, asr r4
    22fc:	00008c00 	andeq	r8, r0, r0, lsl #24
    2300:	f3000400 	vshl.u8	d0, d0, d0
    2304:	8c9f5001 	ldchi	0, cr5, [pc], {1}
    2308:	ac000000 	stcge	0, cr0, [r0], {-0}
    230c:	01000000 	mrseq	r0, (UNDEF: 0)
    2310:	00ac5000 	adceq	r5, ip, r0
    2314:	00af0000 	adceq	r0, pc, r0
    2318:	00020000 	andeq	r0, r2, r0
    231c:	00af6891 	umlaleq	r6, pc, r1, r8	; <UNPREDICTABLE>
    2320:	00cc0000 	sbceq	r0, ip, r0
    2324:	00040000 	andeq	r0, r4, r0
    2328:	9f5001f3 	svcls	0x005001f3
	...
    233c:	0000000b 	andeq	r0, r0, fp
    2340:	0b500001 	bleq	140234c <__bss_end__+0x13f85d4>
    2344:	14000000 	strne	r0, [r0], #-0
    2348:	01000000 	mrseq	r0, (UNDEF: 0)
    234c:	00005400 	andeq	r5, r0, r0, lsl #8
	...
    235c:	001c0000 	andseq	r0, ip, r0
    2360:	00010000 	andeq	r0, r1, r0
    2364:	00001c51 	andeq	r1, r0, r1, asr ip
    2368:	00003400 	andeq	r3, r0, r0, lsl #8
    236c:	f3000400 	vshl.u8	d0, d0, d0
    2370:	009f5101 	addseq	r5, pc, r1, lsl #2
    2374:	00000000 	andeq	r0, r0, r0
    2378:	02000000 	andeq	r0, r0, #0, 0
    237c:	00000000 	andeq	r0, r0, r0
    2380:	00000101 	andeq	r0, r0, r1, lsl #2
    2384:	00000000 	andeq	r0, r0, r0
    2388:	00000400 	andeq	r0, r0, r0, lsl #8
    238c:	50000100 	andpl	r0, r0, r0, lsl #2
    2390:	00000004 	andeq	r0, r0, r4
    2394:	0000001c 	andeq	r0, r0, ip, lsl r0
    2398:	1c520001 	mrrcne	0, 0, r0, r2, cr1
    239c:	24000000 	strcs	r0, [r0], #-0
    23a0:	01000000 	mrseq	r0, (UNDEF: 0)
    23a4:	00245300 	eoreq	r5, r4, r0, lsl #6
    23a8:	00280000 	eoreq	r0, r8, r0
    23ac:	00030000 	andeq	r0, r3, r0
    23b0:	289f0173 	ldmcs	pc, {r0, r1, r4, r5, r6, r8}	; <UNPREDICTABLE>
    23b4:	34000000 	strcc	r0, [r0], #-0
    23b8:	01000000 	mrseq	r0, (UNDEF: 0)
    23bc:	00005300 	andeq	r5, r0, r0, lsl #6
    23c0:	00000000 	andeq	r0, r0, r0
    23c4:	00030000 	andeq	r0, r3, r0
    23c8:	00000000 	andeq	r0, r0, r0
    23cc:	00240000 	eoreq	r0, r4, r0
    23d0:	00010000 	andeq	r0, r1, r0
    23d4:	00002451 	andeq	r2, r0, r1, asr r4
    23d8:	00003400 	andeq	r3, r0, r0, lsl #8
    23dc:	71000300 	mrsvc	r0, LR_irq
    23e0:	00009f7f 	andeq	r9, r0, pc, ror pc
	...
    23ec:	00100000 	andseq	r0, r0, r0
    23f0:	001c0000 	andseq	r0, ip, r0
    23f4:	00010000 	andeq	r0, r1, r0
    23f8:	0000245c 	andeq	r2, r0, ip, asr r4
    23fc:	00003400 	andeq	r3, r0, r0, lsl #8
    2400:	52000100 	andpl	r0, r0, #0
	...
    2414:	00000018 	andeq	r0, r0, r8, lsl r0
    2418:	18500001 	ldmdane	r0, {r0}^
    241c:	24000000 	strcs	r0, [r0], #-0
    2420:	01000000 	mrseq	r0, (UNDEF: 0)
    2424:	00005000 	andeq	r5, r0, r0
	...
    2434:	001c0000 	andseq	r0, ip, r0
    2438:	00010000 	andeq	r0, r1, r0
    243c:	00001c51 	andeq	r1, r0, r1, asr ip
    2440:	00002c00 	andeq	r2, r0, r0, lsl #24
    2444:	51000100 	mrspl	r0, (UNDEF: 16)
	...
    2458:	00040000 	andeq	r0, r4, r0
    245c:	00010000 	andeq	r0, r1, r0
    2460:	00000451 	andeq	r0, r0, r1, asr r4
    2464:	00000c00 	andeq	r0, r0, r0, lsl #24
    2468:	51000100 	mrspl	r0, (UNDEF: 16)
    246c:	0000000c 	andeq	r0, r0, ip
    2470:	00000020 	andeq	r0, r0, r0, lsr #32
    2474:	7f710003 	svcvc	0x00710003
    2478:	0000009f 	muleq	r0, pc, r0	; <UNPREDICTABLE>
    247c:	00000000 	andeq	r0, r0, r0
    2480:	00000200 	andeq	r0, r0, r0, lsl #4
    2484:	00000000 	andeq	r0, r0, r0
    2488:	04000000 	streq	r0, [r0], #-0
    248c:	01000000 	mrseq	r0, (UNDEF: 0)
    2490:	00045000 	andeq	r5, r4, r0
    2494:	00140000 	andseq	r0, r4, r0
    2498:	00010000 	andeq	r0, r1, r0
    249c:	0000145c 	andeq	r1, r0, ip, asr r4
    24a0:	00002000 	andeq	r2, r0, r0
    24a4:	7c000300 	stcvc	3, cr0, [r0], {-0}
    24a8:	00009f7f 	andeq	r9, r0, pc, ror pc
    24ac:	00000000 	andeq	r0, r0, r0
    24b0:	03000000 	movweq	r0, #0
    24b4:	95640003 	strbls	r0, [r4, #-3]!
    24b8:	95640000 	strbls	r0, [r4, #-0]!
    24bc:	00010000 	andeq	r0, r1, r0
    24c0:	00956450 	addseq	r6, r5, r0, asr r4
    24c4:	00959000 	addseq	r9, r5, r0
    24c8:	f3000400 	vshl.u8	d0, d0, d0
    24cc:	009f5001 	addseq	r5, pc, r1
	...
    24d8:	64000303 	strvs	r0, [r0], #-771	; 0xfffffcfd
    24dc:	64000095 	strvs	r0, [r0], #-149	; 0xffffff6b
    24e0:	01000095 	swpeq	r0, r5, [r0]	; <UNPREDICTABLE>
    24e4:	95645100 	strbls	r5, [r4, #-256]!	; 0xffffff00
    24e8:	95900000 	ldrls	r0, [r0]
    24ec:	00040000 	andeq	r0, r4, r0
    24f0:	9f5101f3 	svcls	0x005101f3
	...
    24fc:	00030300 	andeq	r0, r3, r0, lsl #6
    2500:	95640000 	strbls	r0, [r4, #-0]!
    2504:	95640000 	strbls	r0, [r4, #-0]!
    2508:	00010000 	andeq	r0, r1, r0
    250c:	00956452 	addseq	r6, r5, r2, asr r4
    2510:	00956c00 	addseq	r6, r5, r0, lsl #24
    2514:	52000100 	andpl	r0, r0, #0
    2518:	0000956c 	andeq	r9, r0, ip, ror #10
    251c:	00009590 	muleq	r0, r0, r5
    2520:	01720003 	cmneq	r2, r3
    2524:	0000009f 	muleq	r0, pc, r0	; <UNPREDICTABLE>
    2528:	00000000 	andeq	r0, r0, r0
    252c:	01010200 	mrseq	r0, R9_usr
    2530:	00000000 	andeq	r0, r0, r0
    2534:	00956400 	addseq	r6, r5, r0, lsl #8
    2538:	00957000 	addseq	r7, r5, r0
    253c:	50000100 	andpl	r0, r0, r0, lsl #2
    2540:	00009570 	andeq	r9, r0, r0, ror r5
    2544:	00009574 	andeq	r9, r0, r4, ror r5
    2548:	01700003 	cmneq	r0, r3
    254c:	0095749f 	umullseq	r7, r5, pc, r4	; <UNPREDICTABLE>
    2550:	00958400 	addseq	r8, r5, r0, lsl #8
    2554:	50000100 	andpl	r0, r0, r0, lsl #2
    2558:	00009588 	andeq	r9, r0, r8, lsl #11
    255c:	0000958c 	andeq	r9, r0, ip, lsl #11
    2560:	00500001 	subseq	r0, r0, r1
    2564:	00000000 	andeq	r0, r0, r0
    2568:	02000000 	andeq	r0, r0, #0, 0
    256c:	00000000 	andeq	r0, r0, r0
    2570:	00956400 	addseq	r6, r5, r0, lsl #8
    2574:	00957400 	addseq	r7, r5, r0, lsl #8
    2578:	51000100 	mrspl	r0, (UNDEF: 16)
    257c:	00009574 	andeq	r9, r0, r4, ror r5
    2580:	00009578 	andeq	r9, r0, r8, ror r5
    2584:	01710003 	cmneq	r1, r3
    2588:	0095789f 	umullseq	r7, r5, pc, r8	; <UNPREDICTABLE>
    258c:	00959000 	addseq	r9, r5, r0
    2590:	51000100 	mrspl	r0, (UNDEF: 16)
	...

Disassembly of section .debug_aranges:

00000000 <.debug_aranges>:
   0:	0000001c 	andeq	r0, r0, ip, lsl r0
   4:	00000002 	andeq	r0, r0, r2
   8:	00040000 	andeq	r0, r4, r0
   c:	00000000 	andeq	r0, r0, r0
  10:	00008038 	andeq	r8, r0, r8, lsr r0
  14:	000001b0 			; <UNDEFINED> instruction: 0x000001b0
	...
  20:	0000001c 	andeq	r0, r0, ip, lsl r0
  24:	0b7b0002 	bleq	1ec0034 <__bss_end__+0x1eb62bc>
  28:	00040000 	andeq	r0, r4, r0
  2c:	00000000 	andeq	r0, r0, r0
  30:	000081e8 	andeq	r8, r0, r8, ror #3
  34:	00000290 	muleq	r0, r0, r2
	...
  40:	0000001c 	andeq	r0, r0, ip, lsl r0
  44:	18a90002 	stmiane	r9!, {r1}
  48:	00040000 	andeq	r0, r4, r0
  4c:	00000000 	andeq	r0, r0, r0
  50:	00008478 	andeq	r8, r0, r8, ror r4
  54:	00000018 	andeq	r0, r0, r8, lsl r0
	...
  60:	0000001c 	andeq	r0, r0, ip, lsl r0
  64:	19e70002 	stmibne	r7!, {r1}^
  68:	00040000 	andeq	r0, r4, r0
  6c:	00000000 	andeq	r0, r0, r0
  70:	00008490 	muleq	r0, r0, r4
  74:	00000058 	andeq	r0, r0, r8, asr r0
	...
  80:	0000001c 	andeq	r0, r0, ip, lsl r0
  84:	1b880002 	blne	fe200094 <__bss_end__+0xfe1f631c>
  88:	00040000 	andeq	r0, r4, r0
  8c:	00000000 	andeq	r0, r0, r0
  90:	000084e8 	andeq	r8, r0, r8, ror #9
  94:	00000034 	andeq	r0, r0, r4, lsr r0
	...
  a0:	0000001c 	andeq	r0, r0, ip, lsl r0
  a4:	1c7f0002 	ldclne	0, cr0, [pc], #-8	; a4 <__code_start__-0x7f5c>
  a8:	00040000 	andeq	r0, r4, r0
  ac:	00000000 	andeq	r0, r0, r0
  b0:	0000851c 	andeq	r8, r0, ip, lsl r5
  b4:	00000740 	andeq	r0, r0, r0, asr #14
	...
  c0:	0000001c 	andeq	r0, r0, ip, lsl r0
  c4:	275a0002 	ldrbcs	r0, [sl, -r2]
  c8:	00040000 	andeq	r0, r4, r0
  cc:	00000000 	andeq	r0, r0, r0
  d0:	00008c5c 	andeq	r8, r0, ip, asr ip
  d4:	00000020 	andeq	r0, r0, r0, lsr #32
	...
  e0:	0000001c 	andeq	r0, r0, ip, lsl r0
  e4:	28680002 	stmdacs	r8!, {r1}^
  e8:	00040000 	andeq	r0, r4, r0
  ec:	00000000 	andeq	r0, r0, r0
  f0:	00008c7c 	andeq	r8, r0, ip, ror ip
  f4:	0000002c 	andeq	r0, r0, ip, lsr #32
	...
 100:	0000001c 	andeq	r0, r0, ip, lsl r0
 104:	299b0002 	ldmibcs	fp, {r1}
 108:	00040000 	andeq	r0, r4, r0
 10c:	00000000 	andeq	r0, r0, r0
 110:	00008ca8 	andeq	r8, r0, r8, lsr #25
 114:	0000003c 	andeq	r0, r0, ip, lsr r0
	...
 120:	0000001c 	andeq	r0, r0, ip, lsl r0
 124:	2b280002 	blcs	a00134 <__bss_end__+0x9f63bc>
 128:	00040000 	andeq	r0, r4, r0
 12c:	00000000 	andeq	r0, r0, r0
 130:	00008ce4 	andeq	r8, r0, r4, ror #25
 134:	00000004 	andeq	r0, r0, r4
	...
 140:	0000001c 	andeq	r0, r0, ip, lsl r0
 144:	2bfa0002 	blcs	ffe80154 <__bss_end__+0xffe763dc>
 148:	00040000 	andeq	r0, r4, r0
 14c:	00000000 	andeq	r0, r0, r0
 150:	00008ce8 	andeq	r8, r0, r8, ror #25
 154:	00000080 	andeq	r0, r0, r0, lsl #1
	...
 160:	0000001c 	andeq	r0, r0, ip, lsl r0
 164:	2e340002 	cdpcs	0, 3, cr0, cr4, cr2, {0}
 168:	00040000 	andeq	r0, r4, r0
 16c:	00000000 	andeq	r0, r0, r0
 170:	00008d68 	andeq	r8, r0, r8, ror #26
 174:	00000084 	andeq	r0, r0, r4, lsl #1
	...
 180:	0000001c 	andeq	r0, r0, ip, lsl r0
 184:	30850002 	addcc	r0, r5, r2
 188:	00040000 	andeq	r0, r4, r0
 18c:	00000000 	andeq	r0, r0, r0
 190:	00008dec 	andeq	r8, r0, ip, ror #27
 194:	0000011c 	andeq	r0, r0, ip, lsl r1
	...
 1a0:	0000001c 	andeq	r0, r0, ip, lsl r0
 1a4:	342e0002 	strtcc	r0, [lr], #-2
 1a8:	00040000 	andeq	r0, r4, r0
 1ac:	00000000 	andeq	r0, r0, r0
 1b0:	00008f08 	andeq	r8, r0, r8, lsl #30
 1b4:	000001f0 	strdeq	r0, [r0], -r0	; <UNPREDICTABLE>
	...
 1c0:	0000001c 	andeq	r0, r0, ip, lsl r0
 1c4:	39ff0002 	ldmibcc	pc!, {r1}^	; <UNPREDICTABLE>
 1c8:	00040000 	andeq	r0, r4, r0
 1cc:	00000000 	andeq	r0, r0, r0
 1d0:	000090f8 	strdeq	r9, [r0], -r8
 1d4:	000003b0 			; <UNDEFINED> instruction: 0x000003b0
	...
 1e0:	0000001c 	andeq	r0, r0, ip, lsl r0
 1e4:	42ec0002 	rscmi	r0, ip, #2, 0
 1e8:	00040000 	andeq	r0, r4, r0
 1ec:	00000000 	andeq	r0, r0, r0
 1f0:	000094a8 	andeq	r9, r0, r8, lsr #9
 1f4:	0000003c 	andeq	r0, r0, ip, lsr r0
	...
 200:	0000001c 	andeq	r0, r0, ip, lsl r0
 204:	44390002 	ldrtmi	r0, [r9], #-2
 208:	00040000 	andeq	r0, r4, r0
 20c:	00000000 	andeq	r0, r0, r0
 210:	000094e4 	andeq	r9, r0, r4, ror #9
 214:	00000034 	andeq	r0, r0, r4, lsr r0
	...
 220:	0000001c 	andeq	r0, r0, ip, lsl r0
 224:	45740002 	ldrbmi	r0, [r4, #-2]!
 228:	00040000 	andeq	r0, r4, r0
 22c:	00000000 	andeq	r0, r0, r0
 230:	00009518 	andeq	r9, r0, r8, lsl r5
 234:	0000002c 	andeq	r0, r0, ip, lsr #32
	...
 240:	0000001c 	andeq	r0, r0, ip, lsl r0
 244:	466f0002 	strbtmi	r0, [pc], -r2
 248:	00040000 	andeq	r0, r4, r0
 24c:	00000000 	andeq	r0, r0, r0
 250:	00009544 	andeq	r9, r0, r4, asr #10
 254:	00000020 	andeq	r0, r0, r0, lsr #32
	...
 260:	0000001c 	andeq	r0, r0, ip, lsl r0
 264:	47820002 	strmi	r0, [r2, r2]
 268:	00040000 	andeq	r0, r4, r0
 26c:	00000000 	andeq	r0, r0, r0
 270:	00009564 	andeq	r9, r0, r4, ror #10
 274:	0000002c 	andeq	r0, r0, ip, lsr #32
	...
 280:	0000001c 	andeq	r0, r0, ip, lsl r0
 284:	48d40002 	ldmmi	r4, {r1}^
 288:	00040000 	andeq	r0, r4, r0
 28c:	00000000 	andeq	r0, r0, r0
 290:	00009590 	muleq	r0, r0, r5
 294:	00000004 	andeq	r0, r0, r4
	...

Disassembly of section .debug_ranges:

00000000 <.debug_ranges>:
   0:	00000004 	andeq	r0, r0, r4
   4:	0000002c 	andeq	r0, r0, ip, lsr #32
   8:	0000002c 	andeq	r0, r0, ip, lsr #32
   c:	00000060 	andeq	r0, r0, r0, rrx
  10:	00000060 	andeq	r0, r0, r0, rrx
  14:	00000070 	andeq	r0, r0, r0, ror r0
  18:	00000070 	andeq	r0, r0, r0, ror r0
  1c:	0000008c 	andeq	r0, r0, ip, lsl #1
  20:	0000008c 	andeq	r0, r0, ip, lsl #1
  24:	000000b4 	strheq	r0, [r0], -r4
	...
  30:	00000004 	andeq	r0, r0, r4
  34:	0000002c 	andeq	r0, r0, ip, lsr #32
  38:	0000002c 	andeq	r0, r0, ip, lsr #32
  3c:	00000048 	andeq	r0, r0, r8, asr #32
  40:	00000054 	andeq	r0, r0, r4, asr r0
  44:	00000060 	andeq	r0, r0, r0, rrx
  48:	00000060 	andeq	r0, r0, r0, rrx
  4c:	00000070 	andeq	r0, r0, r0, ror r0
  50:	00000070 	andeq	r0, r0, r0, ror r0
  54:	0000008c 	andeq	r0, r0, ip, lsl #1
  58:	0000008c 	andeq	r0, r0, ip, lsl #1
  5c:	000000b4 	strheq	r0, [r0], -r4
	...
  68:	00000004 	andeq	r0, r0, r4
  6c:	0000002c 	andeq	r0, r0, ip, lsr #32
  70:	0000002c 	andeq	r0, r0, ip, lsr #32
  74:	00000048 	andeq	r0, r0, r8, asr #32
  78:	00000054 	andeq	r0, r0, r4, asr r0
  7c:	00000054 	andeq	r0, r0, r4, asr r0
  80:	00000058 	andeq	r0, r0, r8, asr r0
  84:	00000060 	andeq	r0, r0, r0, rrx
  88:	00000060 	andeq	r0, r0, r0, rrx
  8c:	00000070 	andeq	r0, r0, r0, ror r0
  90:	00000070 	andeq	r0, r0, r0, ror r0
  94:	0000008c 	andeq	r0, r0, ip, lsl #1
  98:	0000008c 	andeq	r0, r0, ip, lsl #1
  9c:	000000b4 	strheq	r0, [r0], -r4
	...
  a8:	00000004 	andeq	r0, r0, r4
  ac:	0000001c 	andeq	r0, r0, ip, lsl r0
  b0:	00000070 	andeq	r0, r0, r0, ror r0
  b4:	00000070 	andeq	r0, r0, r0, ror r0
  b8:	00000070 	andeq	r0, r0, r0, ror r0
  bc:	0000008c 	andeq	r0, r0, ip, lsl #1
	...
  c8:	00000004 	andeq	r0, r0, r4
  cc:	0000001c 	andeq	r0, r0, ip, lsl r0
  d0:	00000070 	andeq	r0, r0, r0, ror r0
  d4:	0000008c 	andeq	r0, r0, ip, lsl #1
	...
  e0:	00000004 	andeq	r0, r0, r4
  e4:	00000014 	andeq	r0, r0, r4, lsl r0
  e8:	00000078 	andeq	r0, r0, r8, ror r0
  ec:	0000007c 	andeq	r0, r0, ip, ror r0
	...
  f8:	00000014 	andeq	r0, r0, r4, lsl r0
  fc:	0000001c 	andeq	r0, r0, ip, lsl r0
 100:	0000007c 	andeq	r0, r0, ip, ror r0
 104:	0000008c 	andeq	r0, r0, ip, lsl #1
	...
 110:	0000001c 	andeq	r0, r0, ip, lsl r0
 114:	0000002c 	andeq	r0, r0, ip, lsr #32
 118:	00000060 	andeq	r0, r0, r0, rrx
 11c:	00000060 	andeq	r0, r0, r0, rrx
 120:	00000060 	andeq	r0, r0, r0, rrx
 124:	00000070 	andeq	r0, r0, r0, ror r0
	...
 130:	0000001c 	andeq	r0, r0, ip, lsl r0
 134:	0000002c 	andeq	r0, r0, ip, lsr #32
 138:	00000060 	andeq	r0, r0, r0, rrx
 13c:	00000070 	andeq	r0, r0, r0, ror r0
	...
 148:	0000002c 	andeq	r0, r0, ip, lsr #32
 14c:	0000002c 	andeq	r0, r0, ip, lsr #32
 150:	0000002c 	andeq	r0, r0, ip, lsr #32
 154:	00000048 	andeq	r0, r0, r8, asr #32
	...
 160:	0000008c 	andeq	r0, r0, ip, lsl #1
 164:	0000008c 	andeq	r0, r0, ip, lsl #1
 168:	0000008c 	andeq	r0, r0, ip, lsl #1
 16c:	000000b4 	strheq	r0, [r0], -r4
	...
 178:	000000c4 	andeq	r0, r0, r4, asr #1
 17c:	000000c4 	andeq	r0, r0, r4, asr #1
 180:	000000c8 	andeq	r0, r0, r8, asr #1
 184:	0000010c 	andeq	r0, r0, ip, lsl #2
 188:	0000010c 	andeq	r0, r0, ip, lsl #2
 18c:	0000010c 	andeq	r0, r0, ip, lsl #2
 190:	0000010c 	andeq	r0, r0, ip, lsl #2
 194:	00000160 	andeq	r0, r0, r0, ror #2
 198:	00000160 	andeq	r0, r0, r0, ror #2
 19c:	00000160 	andeq	r0, r0, r0, ror #2
 1a0:	00000160 	andeq	r0, r0, r0, ror #2
 1a4:	00000190 	muleq	r0, r0, r1
	...
 1b0:	000000cc 	andeq	r0, r0, ip, asr #1
 1b4:	000000d4 	ldrdeq	r0, [r0], -r4
 1b8:	000000e8 	andeq	r0, r0, r8, ror #1
 1bc:	0000010c 	andeq	r0, r0, ip, lsl #2
	...
 1c8:	000000d4 	ldrdeq	r0, [r0], -r4
 1cc:	000000dc 	ldrdeq	r0, [r0], -ip
 1d0:	0000010c 	andeq	r0, r0, ip, lsl #2
 1d4:	0000010c 	andeq	r0, r0, ip, lsl #2
 1d8:	0000010c 	andeq	r0, r0, ip, lsl #2
 1dc:	0000010c 	andeq	r0, r0, ip, lsl #2
 1e0:	0000010c 	andeq	r0, r0, ip, lsl #2
 1e4:	0000012c 	andeq	r0, r0, ip, lsr #2
	...
 1f0:	000000d4 	ldrdeq	r0, [r0], -r4
 1f4:	000000dc 	ldrdeq	r0, [r0], -ip
 1f8:	0000010c 	andeq	r0, r0, ip, lsl #2
 1fc:	0000010c 	andeq	r0, r0, ip, lsl #2
 200:	0000010c 	andeq	r0, r0, ip, lsl #2
 204:	0000012c 	andeq	r0, r0, ip, lsr #2
	...
 210:	000000d4 	ldrdeq	r0, [r0], -r4
 214:	000000dc 	ldrdeq	r0, [r0], -ip
 218:	0000010c 	andeq	r0, r0, ip, lsl #2
 21c:	0000012c 	andeq	r0, r0, ip, lsr #2
	...
 228:	000000d4 	ldrdeq	r0, [r0], -r4
 22c:	000000d8 	ldrdeq	r0, [r0], -r8
 230:	00000114 	andeq	r0, r0, r4, lsl r1
 234:	0000011c 	andeq	r0, r0, ip, lsl r1
	...
 240:	000000d8 	ldrdeq	r0, [r0], -r8
 244:	000000dc 	ldrdeq	r0, [r0], -ip
 248:	0000011c 	andeq	r0, r0, ip, lsl r1
 24c:	0000012c 	andeq	r0, r0, ip, lsr #2
	...
 258:	00000160 	andeq	r0, r0, r0, ror #2
 25c:	00000160 	andeq	r0, r0, r0, ror #2
 260:	00000160 	andeq	r0, r0, r0, ror #2
 264:	00000160 	andeq	r0, r0, r0, ror #2
 268:	00000160 	andeq	r0, r0, r0, ror #2
 26c:	00000180 	andeq	r0, r0, r0, lsl #3
	...
 278:	00000004 	andeq	r0, r0, r4
 27c:	0000002c 	andeq	r0, r0, ip, lsr #32
 280:	0000002c 	andeq	r0, r0, ip, lsr #32
 284:	00000060 	andeq	r0, r0, r0, rrx
 288:	00000060 	andeq	r0, r0, r0, rrx
 28c:	00000070 	andeq	r0, r0, r0, ror r0
 290:	00000070 	andeq	r0, r0, r0, ror r0
 294:	0000008c 	andeq	r0, r0, ip, lsl #1
 298:	0000008c 	andeq	r0, r0, ip, lsl #1
 29c:	000000b4 	strheq	r0, [r0], -r4
	...
 2a8:	00000004 	andeq	r0, r0, r4
 2ac:	0000002c 	andeq	r0, r0, ip, lsr #32
 2b0:	0000002c 	andeq	r0, r0, ip, lsr #32
 2b4:	00000048 	andeq	r0, r0, r8, asr #32
 2b8:	00000054 	andeq	r0, r0, r4, asr r0
 2bc:	00000060 	andeq	r0, r0, r0, rrx
 2c0:	00000060 	andeq	r0, r0, r0, rrx
 2c4:	00000070 	andeq	r0, r0, r0, ror r0
 2c8:	00000070 	andeq	r0, r0, r0, ror r0
 2cc:	0000008c 	andeq	r0, r0, ip, lsl #1
 2d0:	0000008c 	andeq	r0, r0, ip, lsl #1
 2d4:	000000b4 	strheq	r0, [r0], -r4
	...
 2e0:	00000004 	andeq	r0, r0, r4
 2e4:	0000002c 	andeq	r0, r0, ip, lsr #32
 2e8:	0000002c 	andeq	r0, r0, ip, lsr #32
 2ec:	00000048 	andeq	r0, r0, r8, asr #32
 2f0:	00000054 	andeq	r0, r0, r4, asr r0
 2f4:	00000054 	andeq	r0, r0, r4, asr r0
 2f8:	00000058 	andeq	r0, r0, r8, asr r0
 2fc:	00000060 	andeq	r0, r0, r0, rrx
 300:	00000060 	andeq	r0, r0, r0, rrx
 304:	00000070 	andeq	r0, r0, r0, ror r0
 308:	00000070 	andeq	r0, r0, r0, ror r0
 30c:	0000008c 	andeq	r0, r0, ip, lsl #1
 310:	0000008c 	andeq	r0, r0, ip, lsl #1
 314:	000000b4 	strheq	r0, [r0], -r4
	...
 320:	00000004 	andeq	r0, r0, r4
 324:	0000001c 	andeq	r0, r0, ip, lsl r0
 328:	00000070 	andeq	r0, r0, r0, ror r0
 32c:	00000070 	andeq	r0, r0, r0, ror r0
 330:	00000070 	andeq	r0, r0, r0, ror r0
 334:	0000008c 	andeq	r0, r0, ip, lsl #1
	...
 340:	00000004 	andeq	r0, r0, r4
 344:	0000001c 	andeq	r0, r0, ip, lsl r0
 348:	00000070 	andeq	r0, r0, r0, ror r0
 34c:	0000008c 	andeq	r0, r0, ip, lsl #1
	...
 358:	00000004 	andeq	r0, r0, r4
 35c:	00000014 	andeq	r0, r0, r4, lsl r0
 360:	00000078 	andeq	r0, r0, r8, ror r0
 364:	0000007c 	andeq	r0, r0, ip, ror r0
	...
 370:	00000014 	andeq	r0, r0, r4, lsl r0
 374:	0000001c 	andeq	r0, r0, ip, lsl r0
 378:	0000007c 	andeq	r0, r0, ip, ror r0
 37c:	0000008c 	andeq	r0, r0, ip, lsl #1
	...
 388:	0000001c 	andeq	r0, r0, ip, lsl r0
 38c:	0000002c 	andeq	r0, r0, ip, lsr #32
 390:	00000060 	andeq	r0, r0, r0, rrx
 394:	00000060 	andeq	r0, r0, r0, rrx
 398:	00000060 	andeq	r0, r0, r0, rrx
 39c:	00000070 	andeq	r0, r0, r0, ror r0
	...
 3a8:	0000001c 	andeq	r0, r0, ip, lsl r0
 3ac:	0000002c 	andeq	r0, r0, ip, lsr #32
 3b0:	00000060 	andeq	r0, r0, r0, rrx
 3b4:	00000070 	andeq	r0, r0, r0, ror r0
	...
 3c0:	0000002c 	andeq	r0, r0, ip, lsr #32
 3c4:	0000002c 	andeq	r0, r0, ip, lsr #32
 3c8:	0000002c 	andeq	r0, r0, ip, lsr #32
 3cc:	00000048 	andeq	r0, r0, r8, asr #32
	...
 3d8:	0000008c 	andeq	r0, r0, ip, lsl #1
 3dc:	0000008c 	andeq	r0, r0, ip, lsl #1
 3e0:	0000008c 	andeq	r0, r0, ip, lsl #1
 3e4:	000000b4 	strheq	r0, [r0], -r4
	...
 3f0:	00000114 	andeq	r0, r0, r4, lsl r1
 3f4:	00000114 	andeq	r0, r0, r4, lsl r1
 3f8:	00000114 	andeq	r0, r0, r4, lsl r1
 3fc:	00000114 	andeq	r0, r0, r4, lsl r1
 400:	00000114 	andeq	r0, r0, r4, lsl r1
 404:	0000011c 	andeq	r0, r0, ip, lsl r1
 408:	00000120 	andeq	r0, r0, r0, lsr #2
 40c:	00000144 	andeq	r0, r0, r4, asr #2
	...
 418:	0000011c 	andeq	r0, r0, ip, lsl r1
 41c:	0000011c 	andeq	r0, r0, ip, lsl r1
 420:	00000120 	andeq	r0, r0, r0, lsr #2
 424:	00000130 	andeq	r0, r0, r0, lsr r1
	...
 430:	00000214 	andeq	r0, r0, r4, lsl r2
 434:	00000218 	andeq	r0, r0, r8, lsl r2
 438:	0000021c 	andeq	r0, r0, ip, lsl r2
 43c:	00000240 	andeq	r0, r0, r0, asr #4
	...
 448:	00008c5c 	andeq	r8, r0, ip, asr ip
 44c:	00008c7c 	andeq	r8, r0, ip, ror ip
	...
 458:	00008ce8 	andeq	r8, r0, r8, ror #25
 45c:	00008d68 	andeq	r8, r0, r8, ror #26
	...
 468:	00000134 	andeq	r0, r0, r4, lsr r1
 46c:	00000134 	andeq	r0, r0, r4, lsr r1
 470:	00000134 	andeq	r0, r0, r4, lsr r1
 474:	0000013c 	andeq	r0, r0, ip, lsr r1
	...
 480:	0000024c 	andeq	r0, r0, ip, asr #4
 484:	00000264 	andeq	r0, r0, r4, ror #4
 488:	000002c8 	andeq	r0, r0, r8, asr #5
 48c:	000002e8 	andeq	r0, r0, r8, ror #5
	...
 498:	00009564 	andeq	r9, r0, r4, ror #10
 49c:	00009590 	muleq	r0, r0, r5
	...

Disassembly of section .debug_line:

00000000 <.debug_line>:
       0:	00000492 	muleq	r0, r2, r4
       4:	00f80003 	rscseq	r0, r8, r3
       8:	01020000 	mrseq	r0, (UNDEF: 2)
       c:	000d0efb 	strdeq	r0, [sp], -fp
      10:	01010101 	tsteq	r1, r1, lsl #2
      14:	01000000 	mrseq	r0, (UNDEF: 0)
      18:	2f010000 	svccs	0x00010000
      1c:	72657355 	rsbvc	r7, r5, #1409286145	; 0x54000001
      20:	72652f73 	rsbvc	r2, r5, #460	; 0x1cc
      24:	65626369 	strbvs	r6, [r2, #-873]!	; 0xfffffc97
      28:	442f7261 	strtmi	r7, [pc], #-609	; 30 <__code_start__-0x7fd0>
      2c:	6d75636f 	ldclvs	3, cr6, [r5, #-444]!	; 0xfffffe44
      30:	73746e65 	cmnvc	r4, #1616	; 0x650
      34:	3153432f 	cmpcc	r3, pc, lsr #6
      38:	2f453034 	svccs	0x00453034
      3c:	34317363 	ldrtcc	r7, [r1], #-867	; 0xfffffc9d
      40:	662d4530 			; <UNDEFINED> instruction: 0x662d4530
      44:	6c616e69 	stclvs	14, cr6, [r1], #-420	; 0xfffffe5c
      48:	6f72702d 	svcvs	0x0072702d
      4c:	7463656a 	strbtvc	r6, [r3], #-1386	; 0xfffffa96
      50:	62696c2f 	rsbvs	r6, r9, #12032	; 0x2f00
      54:	34322d73 	ldrtcc	r2, [r2], #-3443	; 0xfffff28d
      58:	2f786c30 	svccs	0x00786c30
      5c:	7062696c 	rsbvc	r6, r2, ip, ror #18
      60:	6e692f69 	cdpvs	15, 6, cr2, cr9, cr9, {3}
      64:	64756c63 	ldrbtvs	r6, [r5], #-3171	; 0xfffff39d
      68:	752f0065 	strvc	r0, [pc, #-101]!	; b <__code_start__-0x7ff5>
      6c:	6c2f7273 	sfmvs	f7, 4, [pc], #-460	; fffffea8 <__bss_end__+0xffff6130>
      70:	6c61636f 	stclvs	3, cr6, [r1], #-444	; 0xfffffe44
      74:	6c65432f 	stclvs	3, cr4, [r5], #-188	; 0xffffff44
      78:	2f72616c 	svccs	0x0072616c
      7c:	2d6d7261 	sfmcs	f7, 2, [sp, #-388]!	; 0xfffffe7c
      80:	656e6f6e 	strbvs	r6, [lr, #-3950]!	; 0xfffff092
      84:	6261652d 	rsbvs	r6, r1, #188743680	; 0xb400000
      88:	65742d69 	ldrbvs	r2, [r4, #-3433]!	; 0xfffff297
      8c:	392f7473 	stmdbcc	pc!, {r0, r1, r4, r5, r6, sl, ip, sp, lr}	; <UNPREDICTABLE>
      90:	3130322d 	teqcc	r0, sp, lsr #4
      94:	2d347139 	ldfcss	f7, [r4, #-228]!	; 0xffffff1c
      98:	30317363 	eorscc	r7, r1, r3, ror #6
      9c:	6c2f6537 	cfstr32vs	mvfx6, [pc], #-220	; ffffffc8 <__bss_end__+0xffff6250>
      a0:	672f6269 	strvs	r6, [pc, -r9, ror #4]!
      a4:	612f6363 			; <UNDEFINED> instruction: 0x612f6363
      a8:	6e2d6d72 	mcrvs	13, 1, r6, cr13, cr2, {3}
      ac:	2d656e6f 	stclcs	14, cr6, [r5, #-444]!	; 0xfffffe44
      b0:	69626165 	stmdbvs	r2!, {r0, r2, r5, r6, r8, sp, lr}^
      b4:	322e392f 	eorcc	r3, lr, #770048	; 0xbc000
      b8:	692f312e 	stmdbvs	pc!, {r1, r2, r3, r5, r8, ip, sp}	; <UNPREDICTABLE>
      bc:	756c636e 	strbvc	r6, [ip, #-878]!	; 0xfffffc92
      c0:	00006564 	andeq	r6, r0, r4, ror #10
      c4:	38325357 	ldmdacc	r2!, {r0, r1, r2, r4, r6, r8, r9, ip, lr}
      c8:	2e423231 	mcrcs	2, 2, r3, cr2, cr1, {1}
      cc:	00000068 	andeq	r0, r0, r8, rrx
      d0:	622d3100 	eorvs	r3, sp, #0
      d4:	6b6e696c 	blvs	1b9a68c <__bss_end__+0x1b90914>
      d8:	0000632e 	andeq	r6, r0, lr, lsr #6
      dc:	70720000 	rsbsvc	r0, r2, r0
      e0:	00682e69 	rsbeq	r2, r8, r9, ror #28
      e4:	67000001 	strvs	r0, [r0, -r1]
      e8:	2e6f6970 			; <UNDEFINED> instruction: 0x2e6f6970
      ec:	00010068 	andeq	r0, r1, r8, rrx
      f0:	64747300 	ldrbtvs	r7, [r4], #-768	; 0xfffffd00
      f4:	2d746e69 	ldclcs	14, cr6, [r4, #-420]!	; 0xfffffe5c
      f8:	2e636367 	cdpcs	3, 6, cr6, cr3, cr7, {3}
      fc:	00020068 	andeq	r0, r2, r8, rrx
     100:	33050000 	movwcc	r0, #20480	; 0x5000
     104:	38020500 	stmdacc	r2, {r8, sl}
     108:	03000080 	movweq	r0, #128	; 0x80
     10c:	060101e2 	streq	r0, [r1], -r2, ror #3
     110:	06050501 	streq	r0, [r5], -r1, lsl #10
     114:	010a052f 	tsteq	sl, pc, lsr #10
     118:	05011a05 	streq	r1, [r1, #-2565]	; 0xfffff5fb
     11c:	9c03062b 	stcls	6, cr0, [r3], {43}	; 0x2b
     120:	054a017f 	strbeq	r0, [sl, #-383]	; 0xfffffe81
     124:	0b052e26 	bleq	14b9c4 <__bss_end__+0x141c4c>
     128:	4a2e0a03 	bmi	b8293c <__bss_end__+0xb78bc4>
     12c:	01063905 	tsteq	r6, r5, lsl #18
     130:	05010b05 	streq	r0, [r1, #-2821]	; 0xfffff4fb
     134:	2e010112 	mcrcs	1, 0, r0, cr1, cr2, {0}
     138:	24050106 	strcs	r0, [r5], #-262	; 0xfffffefa
     13c:	2e0b0501 	cfsh32cs	mvfx0, mvfx11, #1
     140:	0609054a 	streq	r0, [r9], -sl, asr #10
     144:	0100cd03 	tsteq	r0, r3, lsl #26
     148:	6a031405 	bvs	c5164 <__bss_end__+0xbb3ec>
     14c:	13050501 	movwne	r0, #21761	; 0x5501
     150:	6a031405 	bvs	c516c <__bss_end__+0xbb3f4>
     154:	14050501 	strne	r0, [r5], #-1281	; 0xfffffaff
     158:	01011a05 	tsteq	r1, r5, lsl #20
     15c:	060e052e 	streq	r0, [lr], -lr, lsr #10
     160:	06050501 	streq	r0, [r5], -r1, lsl #10
     164:	0314052f 	tsteq	r4, #197132288	; 0xbc00000
     168:	05050153 	streq	r0, [r5, #-339]	; 0xfffffead
     16c:	06260514 			; <UNDEFINED> instruction: 0x06260514
     170:	39052e01 	stmdbcc	r5, {r0, r9, sl, fp, sp}
     174:	0b051806 	bleq	146194 <__bss_end__+0x13c41c>
     178:	01120501 	tsteq	r2, r1, lsl #10
     17c:	01062e01 	tsteq	r6, r1, lsl #28
     180:	05012405 	streq	r2, [r1, #-1029]	; 0xfffffbfb
     184:	054a2e0b 	strbeq	r2, [sl, #-3595]	; 0xfffff1f5
     188:	da030621 	ble	c1a14 <__bss_end__+0xb7c9c>
     18c:	1a050100 	bne	140594 <__bss_end__+0x13681c>
     190:	06050501 	streq	r0, [r5], -r1, lsl #10
     194:	0009052e 	andeq	r0, r9, lr, lsr #10
     198:	06030402 	streq	r0, [r3], -r2, lsl #8
     19c:	0402004c 	streq	r0, [r2], #-76	; 0xffffffb4
     1a0:	14051603 	strne	r1, [r5], #-1539	; 0xfffff9fd
     1a4:	03040200 	movweq	r0, #16896	; 0x4200
     1a8:	05016903 	streq	r6, [r1, #-2307]	; 0xfffff6fd
     1ac:	04020005 	streq	r0, [r2], #-5
     1b0:	02001303 	andeq	r1, r0, #201326592	; 0xc000000
     1b4:	00010304 	andeq	r0, r1, r4, lsl #6
     1b8:	01030402 	tsteq	r3, r2, lsl #8
     1bc:	03040200 	movweq	r0, #16896	; 0x4200
     1c0:	04020001 	streq	r0, [r2], #-1
     1c4:	1d051303 	stcne	3, cr1, [r5, #-12]
     1c8:	03040200 	movweq	r0, #16896	; 0x4200
     1cc:	01150306 	tsteq	r5, r6, lsl #6
     1d0:	02000805 	andeq	r0, r0, #327680	; 0x50000
     1d4:	6b030304 	blvs	c0dec <__bss_end__+0xb7074>
     1d8:	0609052e 	streq	r0, [r9], -lr, lsr #10
     1dc:	0314054b 	tsteq	r4, #314572800	; 0x12c00000
     1e0:	05050163 	streq	r0, [r5, #-355]	; 0xfffffe9d
     1e4:	03140513 	tsteq	r4, #79691776	; 0x4c00000
     1e8:	05050168 	streq	r0, [r5, #-360]	; 0xfffffe98
     1ec:	011a0514 	tsteq	sl, r4, lsl r5
     1f0:	0e052e01 	cdpeq	14, 0, cr2, cr5, cr1, {0}
     1f4:	05050106 	streq	r0, [r5, #-262]	; 0xfffffefa
     1f8:	14053006 	strne	r3, [r5], #-6
     1fc:	05015803 	streq	r5, [r1, #-2051]	; 0xfffff7fd
     200:	26051405 	strcs	r1, [r5], -r5, lsl #8
     204:	01050106 	tsteq	r5, r6, lsl #2
     208:	09052e2f 	stmdbeq	r5, {r0, r1, r2, r3, r5, r9, sl, fp, sp}
     20c:	00d80306 	sbcseq	r0, r8, r6, lsl #6
     210:	03140501 	tsteq	r4, #4194304	; 0x400000
     214:	0505015b 	streq	r0, [r5, #-347]	; 0xfffffea5
     218:	03140513 	tsteq	r4, #79691776	; 0x4c00000
     21c:	0505016d 	streq	r0, [r5, #-365]	; 0xfffffe93
     220:	011a0514 	tsteq	sl, r4, lsl r5
     224:	0e052e01 	cdpeq	14, 0, cr2, cr5, cr1, {0}
     228:	05050106 	streq	r0, [r5, #-262]	; 0xfffffefa
     22c:	14053006 	strne	r3, [r5], #-6
     230:	05015803 	streq	r5, [r1, #-2051]	; 0xfffff7fd
     234:	26051405 	strcs	r1, [r5], -r5, lsl #8
     238:	052e0106 	streq	r0, [lr, #-262]!	; 0xfffffefa
     23c:	0a030639 	beq	c1b28 <__bss_end__+0xb7db0>
     240:	010b0501 	tsteq	fp, r1, lsl #10
     244:	01011205 	tsteq	r1, r5, lsl #4
     248:	0501062e 	streq	r0, [r1, #-1582]	; 0xfffff9d2
     24c:	0b050124 	bleq	1406e4 <__bss_end__+0x13696c>
     250:	09054a2e 	stmdbeq	r5, {r1, r2, r3, r5, r9, fp, lr}
     254:	00d00306 	sbcseq	r0, r0, r6, lsl #6
     258:	03140501 	tsteq	r4, #4194304	; 0x400000
     25c:	05050163 	streq	r0, [r5, #-355]	; 0xfffffe9d
     260:	03140513 	tsteq	r4, #79691776	; 0x4c00000
     264:	0505016e 	streq	r0, [r5, #-366]	; 0xfffffe92
     268:	011a0514 	tsteq	sl, r4, lsl r5
     26c:	0e052e01 	cdpeq	14, 0, cr2, cr5, cr1, {0}
     270:	05050106 	streq	r0, [r5, #-262]	; 0xfffffefa
     274:	14052f06 	strne	r2, [r5], #-3846	; 0xfffff0fa
     278:	05015303 	streq	r5, [r1, #-771]	; 0xfffffcfd
     27c:	26051405 	strcs	r1, [r5], -r5, lsl #8
     280:	052e0106 	streq	r0, [lr, #-262]!	; 0xfffffefa
     284:	05180639 	ldreq	r0, [r8, #-1593]	; 0xfffff9c7
     288:	1205010b 	andne	r0, r5, #-1073741822	; 0xc0000002
     28c:	062e0101 	strteq	r0, [lr], -r1, lsl #2
     290:	01240501 			; <UNDEFINED> instruction: 0x01240501
     294:	042e0b05 	strteq	r0, [lr], #-2821	; 0xfffff4fb
     298:	06140502 	ldreq	r0, [r4], -r2, lsl #10
     29c:	9e7f8303 	cdpls	3, 7, cr8, cr15, cr3, {0}
     2a0:	2f310505 	svccs	0x00310505
     2a4:	01090550 	tsteq	r9, r0, asr r5
     2a8:	05011905 	streq	r1, [r1, #-2309]	; 0xfffff6fb
     2ac:	7a030605 	bvc	c1ac8 <__bss_end__+0xb7d50>
     2b0:	35090501 	strcc	r0, [r9, #-1281]	; 0xfffffaff
     2b4:	05050104 	streq	r0, [r5, #-260]	; 0xfffffefc
     2b8:	2e01dd03 	cdpcs	13, 0, cr13, cr1, cr3, {0}
     2bc:	8f032605 	svchi	0x00032605
     2c0:	0b054a7f 	bleq	152cc4 <__bss_end__+0x148f4c>
     2c4:	05020434 	streq	r0, [r2, #-1076]	; 0xfffffbcc
     2c8:	7f9d0309 	svcvc	0x009d0309
     2cc:	0402002e 	streq	r0, [r2], #-46	; 0xffffffd2
     2d0:	71030603 	tstvc	r3, r3, lsl #12
     2d4:	0402002e 	streq	r0, [r2], #-46	; 0xffffffd2
     2d8:	01044b03 	tsteq	r4, r3, lsl #22
     2dc:	02001405 	andeq	r1, r0, #83886080	; 0x5000000
     2e0:	d7030304 	strle	r0, [r3, -r4, lsl #6]
     2e4:	05050101 	streq	r0, [r5, #-257]	; 0xfffffeff
     2e8:	03040200 	movweq	r0, #16896	; 0x4200
     2ec:	04020017 	streq	r0, [r2], #-23	; 0xffffffe9
     2f0:	02006803 	andeq	r6, r0, #196608	; 0x30000
     2f4:	00680304 	rsbeq	r0, r8, r4, lsl #6
     2f8:	06030402 	streq	r0, [r3], -r2, lsl #8
     2fc:	05020466 	streq	r0, [r2, #-1126]	; 0xfffffb9a
     300:	04020009 	streq	r0, [r2], #-9
     304:	a1030603 	tstge	r3, r3, lsl #12
     308:	0104017e 	tsteq	r4, lr, ror r1
     30c:	02001405 	andeq	r1, r0, #83886080	; 0x5000000
     310:	b4030304 	strlt	r0, [r3], #-772	; 0xfffffcfc
     314:	05050101 	streq	r0, [r5, #-257]	; 0xfffffeff
     318:	03040200 	movweq	r0, #16896	; 0x4200
     31c:	00140513 	andseq	r0, r4, r3, lsl r5
     320:	03030402 	movweq	r0, #13314	; 0x3402
     324:	05050176 	streq	r0, [r5, #-374]	; 0xfffffe8a
     328:	03040200 	movweq	r0, #16896	; 0x4200
     32c:	00140513 	andseq	r0, r4, r3, lsl r5
     330:	03030402 	movweq	r0, #13314	; 0x3402
     334:	05050166 	streq	r0, [r5, #-358]	; 0xfffffe9a
     338:	03040200 	movweq	r0, #16896	; 0x4200
     33c:	001a0514 	andseq	r0, sl, r4, lsl r5
     340:	01030402 	tsteq	r3, r2, lsl #8
     344:	03040200 	movweq	r0, #16896	; 0x4200
     348:	04020001 	streq	r0, [r2], #-1
     34c:	0e052e03 	cdpeq	14, 0, cr2, cr5, cr3, {0}
     350:	03040200 	movweq	r0, #16896	; 0x4200
     354:	05050106 	streq	r0, [r5, #-262]	; 0xfffffefa
     358:	03040200 	movweq	r0, #16896	; 0x4200
     35c:	14052f06 	strne	r2, [r5], #-3846	; 0xfffff0fa
     360:	03040200 	movweq	r0, #16896	; 0x4200
     364:	05015303 	streq	r5, [r1, #-771]	; 0xfffffcfd
     368:	04020005 	streq	r0, [r2], #-5
     36c:	26051403 	strcs	r1, [r5], -r3, lsl #8
     370:	03040200 	movweq	r0, #16896	; 0x4200
     374:	02000106 	andeq	r0, r0, #-2147483647	; 0x80000001
     378:	054a0304 	strbeq	r0, [sl, #-772]	; 0xfffffcfc
     37c:	05180639 	ldreq	r0, [r8, #-1593]	; 0xfffff9c7
     380:	1205010b 	andne	r0, r5, #-1073741822	; 0xc0000002
     384:	062e0101 	strteq	r0, [lr], -r1, lsl #2
     388:	01240501 			; <UNDEFINED> instruction: 0x01240501
     38c:	4a2e0b05 	bmi	b82fa8 <__bss_end__+0xb79230>
     390:	09050204 	stmdbeq	r5, {r2, r9}
     394:	03040200 	movweq	r0, #16896	; 0x4200
     398:	7f910306 	svcvc	0x00910306
     39c:	04020001 	streq	r0, [r2], #-1
     3a0:	4a0c0303 	bmi	300fb4 <__bss_end__+0x2f723c>
     3a4:	03040200 	movweq	r0, #16896	; 0x4200
     3a8:	0501044b 	streq	r0, [r1, #-1099]	; 0xfffffbb5
     3ac:	04020014 	streq	r0, [r2], #-20	; 0xffffffec
     3b0:	01c80303 	biceq	r0, r8, r3, lsl #6
     3b4:	00050501 	andeq	r0, r5, r1, lsl #10
     3b8:	17030402 	strne	r0, [r3, -r2, lsl #8]
     3bc:	03040200 	movweq	r0, #16896	; 0x4200
     3c0:	04020068 	streq	r0, [r2], #-104	; 0xffffff98
     3c4:	02006803 	andeq	r6, r0, #196608	; 0x30000
     3c8:	66060304 	strvs	r0, [r6], -r4, lsl #6
     3cc:	09050204 	stmdbeq	r5, {r2, r9}
     3d0:	03040200 	movweq	r0, #16896	; 0x4200
     3d4:	7eb00306 	cdpvc	3, 11, cr0, cr0, cr6, {0}
     3d8:	05010401 	streq	r0, [r1, #-1025]	; 0xfffffbff
     3dc:	04020014 	streq	r0, [r2], #-20	; 0xffffffec
     3e0:	01a50303 			; <UNDEFINED> instruction: 0x01a50303
     3e4:	00050501 	andeq	r0, r5, r1, lsl #10
     3e8:	13030402 	movwne	r0, #13314	; 0x3402
     3ec:	02001405 	andeq	r1, r0, #83886080	; 0x5000000
     3f0:	76030304 	strvc	r0, [r3], -r4, lsl #6
     3f4:	00050501 	andeq	r0, r5, r1, lsl #10
     3f8:	13030402 	movwne	r0, #13314	; 0x3402
     3fc:	02001405 	andeq	r1, r0, #83886080	; 0x5000000
     400:	66030304 	strvs	r0, [r3], -r4, lsl #6
     404:	00050501 	andeq	r0, r5, r1, lsl #10
     408:	14030402 	strne	r0, [r3], #-1026	; 0xfffffbfe
     40c:	02001a05 	andeq	r1, r0, #20480	; 0x5000
     410:	00010304 	andeq	r0, r1, r4, lsl #6
     414:	01030402 	tsteq	r3, r2, lsl #8
     418:	03040200 	movweq	r0, #16896	; 0x4200
     41c:	000e052e 	andeq	r0, lr, lr, lsr #10
     420:	06030402 	streq	r0, [r3], -r2, lsl #8
     424:	00050501 	andeq	r0, r5, r1, lsl #10
     428:	06030402 	streq	r0, [r3], -r2, lsl #8
     42c:	0014052f 	andseq	r0, r4, pc, lsr #10
     430:	03030402 	movweq	r0, #13314	; 0x3402
     434:	05050153 	streq	r0, [r5, #-339]	; 0xfffffead
     438:	03040200 	movweq	r0, #16896	; 0x4200
     43c:	00260514 	eoreq	r0, r6, r4, lsl r5
     440:	06030402 	streq	r0, [r3], -r2, lsl #8
     444:	04020001 	streq	r0, [r2], #-1
     448:	39054a03 	stmdbcc	r5, {r0, r1, r9, fp, lr}
     44c:	0b051806 	bleq	14646c <__bss_end__+0x13c6f4>
     450:	01120501 	tsteq	r2, r1, lsl #10
     454:	01062e01 	tsteq	r6, r1, lsl #28
     458:	05012405 	streq	r2, [r1, #-1029]	; 0xfffffbfb
     45c:	044a2e0b 	strbeq	r2, [sl], #-3595	; 0xfffff1f5
     460:	00090502 	andeq	r0, r9, r2, lsl #10
     464:	06030402 	streq	r0, [r3], -r2, lsl #8
     468:	017fa003 	cmneq	pc, r3
     46c:	02002005 	andeq	r2, r0, #5, 0
     470:	6d030304 	stcvs	3, cr0, [r3, #-16]
     474:	0019054a 	andseq	r0, r9, sl, asr #10
     478:	01030402 	tsteq	r3, r2, lsl #8
     47c:	02000505 	andeq	r0, r0, #20971520	; 0x1400000
     480:	01060304 	tsteq	r6, r4, lsl #6
     484:	03040200 	movweq	r0, #16896	; 0x4200
     488:	1503062e 	strne	r0, [r3, #-1582]	; 0xfffff9d2
     48c:	0601052e 	streq	r0, [r1], -lr, lsr #10
     490:	000c024b 	andeq	r0, ip, fp, asr #4
     494:	04e20101 	strbteq	r0, [r2], #257	; 0x101
     498:	00030000 	andeq	r0, r3, r0
     49c:	00000107 	andeq	r0, r0, r7, lsl #2
     4a0:	0efb0102 	cdpeq	1, 15, cr0, cr11, cr2, {0}
     4a4:	0101000d 	tsteq	r1, sp
     4a8:	00000101 	andeq	r0, r0, r1, lsl #2
     4ac:	00000100 	andeq	r0, r0, r0, lsl #2
     4b0:	73752f01 	cmnvc	r5, #1, 30
     4b4:	6f6c2f72 	svcvs	0x006c2f72
     4b8:	2f6c6163 	svccs	0x006c6163
     4bc:	6c6c6543 	cfstr64vs	mvdx6, [ip], #-268	; 0xfffffef4
     4c0:	612f7261 			; <UNDEFINED> instruction: 0x612f7261
     4c4:	6e2d6d72 	mcrvs	13, 1, r6, cr13, cr2, {3}
     4c8:	2d656e6f 	stclcs	14, cr6, [r5, #-444]!	; 0xfffffe44
     4cc:	69626165 	stmdbvs	r2!, {r0, r2, r5, r6, r8, sp, lr}^
     4d0:	7365742d 	cmnvc	r5, #754974720	; 0x2d000000
     4d4:	2d392f74 	ldccs	15, cr2, [r9, #-464]!	; 0xfffffe30
     4d8:	39313032 	ldmdbcc	r1!, {r1, r4, r5, ip, sp}
     4dc:	632d3471 			; <UNDEFINED> instruction: 0x632d3471
     4e0:	37303173 			; <UNDEFINED> instruction: 0x37303173
     4e4:	696c2f65 	stmdbvs	ip!, {r0, r2, r5, r6, r8, r9, sl, fp, sp}^
     4e8:	63672f62 	cmnvs	r7, #392	; 0x188
     4ec:	72612f63 	rsbvc	r2, r1, #396	; 0x18c
     4f0:	6f6e2d6d 	svcvs	0x006e2d6d
     4f4:	652d656e 	strvs	r6, [sp, #-1390]!	; 0xfffffa92
     4f8:	2f696261 	svccs	0x00696261
     4fc:	2e322e39 	mrccs	14, 1, r2, cr2, cr9, {1}
     500:	6e692f31 	mcrvs	15, 3, r2, cr9, cr1, {1}
     504:	64756c63 	ldrbtvs	r6, [r5], #-3171	; 0xfffff39d
     508:	552f0065 	strpl	r0, [pc, #-101]!	; 4ab <__code_start__-0x7b55>
     50c:	73726573 	cmnvc	r2, #482344960	; 0x1cc00000
     510:	6972652f 	ldmdbvs	r2!, {r0, r1, r2, r3, r5, r8, sl, sp, lr}^
     514:	61656263 	cmnvs	r5, r3, ror #4
     518:	6f442f72 	svcvs	0x00442f72
     51c:	656d7563 	strbvs	r7, [sp, #-1379]!	; 0xfffffa9d
     520:	2f73746e 	svccs	0x0073746e
     524:	34315343 	ldrtcc	r5, [r1], #-835	; 0xfffffcbd
     528:	632f4530 			; <UNDEFINED> instruction: 0x632f4530
     52c:	30343173 	eorscc	r3, r4, r3, ror r1
     530:	69662d45 	stmdbvs	r6!, {r0, r2, r6, r8, sl, fp, sp}^
     534:	2d6c616e 	stfcse	f6, [ip, #-440]!	; 0xfffffe48
     538:	6a6f7270 	bvs	1bdcf00 <__bss_end__+0x1bd3188>
     53c:	2f746365 	svccs	0x00746365
     540:	7362696c 	cmnvc	r2, #108, 18	; 0x1b0000
     544:	3034322d 	eorscc	r3, r4, sp, lsr #4
     548:	6c2f786c 	stcvs	8, cr7, [pc], #-432	; 3a0 <__code_start__-0x7c60>
     54c:	69706269 	ldmdbvs	r0!, {r0, r3, r5, r6, r9, sp, lr}^
     550:	636e692f 	cmnvs	lr, #770048	; 0xbc000
     554:	6564756c 	strbvs	r7, [r4, #-1388]!	; 0xfffffa94
     558:	53570000 	cmppl	r7, #0, 0
     55c:	32313832 	eorscc	r3, r1, #3276800	; 0x320000
     560:	00682e42 	rsbeq	r2, r8, r2, asr #28
     564:	6e000000 	cdpvs	0, 0, cr0, cr0, cr0, {0}
     568:	69706f65 	ldmdbvs	r0!, {r0, r2, r5, r6, r8, r9, sl, fp, sp, lr}^
     56c:	2e6c6578 	mcrcs	5, 3, r6, cr12, cr8, {3}
     570:	00000063 	andeq	r0, r0, r3, rrx
     574:	64747300 	ldrbtvs	r7, [r4], #-768	; 0xfffffd00
     578:	2d746e69 	ldclcs	14, cr6, [r4, #-420]!	; 0xfffffe5c
     57c:	2e636367 	cdpcs	3, 6, cr6, cr3, cr7, {3}
     580:	00010068 	andeq	r0, r1, r8, rrx
     584:	69707200 	ldmdbvs	r0!, {r9, ip, sp, lr}^
     588:	0200682e 	andeq	r6, r0, #3014656	; 0x2e0000
     58c:	656e0000 	strbvs	r0, [lr, #-0]!
     590:	7869706f 	stmdavc	r9!, {r0, r1, r2, r3, r5, r6, ip, sp, lr}^
     594:	682e6c65 	stmdavs	lr!, {r0, r2, r5, r6, sl, fp, sp, lr}
     598:	00000000 	andeq	r0, r0, r0
     59c:	6f697067 	svcvs	0x00697067
     5a0:	0200682e 	andeq	r6, r0, #3014656	; 0x2e0000
     5a4:	05000000 	streq	r0, [r0, #-0]
     5a8:	02050033 	andeq	r0, r5, #51, 0	; 0x33
     5ac:	000081e8 	andeq	r8, r0, r8, ror #3
     5b0:	0101e203 	tsteq	r1, r3, lsl #4
     5b4:	05050106 	streq	r0, [r5, #-262]	; 0xfffffefa
     5b8:	0a052f06 	beq	14c1d8 <__bss_end__+0x142460>
     5bc:	011a0501 	tsteq	sl, r1, lsl #10
     5c0:	03062b05 	movweq	r2, #27397	; 0x6b05
     5c4:	4a017f9c 	bmi	6043c <__bss_end__+0x566c4>
     5c8:	052e2605 	streq	r2, [lr, #-1541]!	; 0xfffff9fb
     5cc:	2e0a030b 	cdpcs	3, 0, cr0, cr10, cr11, {0}
     5d0:	0639054a 	ldrteq	r0, [r9], -sl, asr #10
     5d4:	010b0501 	tsteq	fp, r1, lsl #10
     5d8:	01011205 	tsteq	r1, r5, lsl #4
     5dc:	0501062e 	streq	r0, [r1, #-1582]	; 0xfffff9d2
     5e0:	0b050124 	bleq	140a78 <__bss_end__+0x136d00>
     5e4:	09054a2e 	stmdbeq	r5, {r1, r2, r3, r5, r9, fp, lr}
     5e8:	00cd0306 	sbceq	r0, sp, r6, lsl #6
     5ec:	03140501 	tsteq	r4, #4194304	; 0x400000
     5f0:	0505016a 	streq	r0, [r5, #-362]	; 0xfffffe96
     5f4:	03140513 	tsteq	r4, #79691776	; 0x4c00000
     5f8:	0505016a 	streq	r0, [r5, #-362]	; 0xfffffe96
     5fc:	011a0514 	tsteq	sl, r4, lsl r5
     600:	0e052e01 	cdpeq	14, 0, cr2, cr5, cr1, {0}
     604:	05050106 	streq	r0, [r5, #-262]	; 0xfffffefa
     608:	14052f06 	strne	r2, [r5], #-3846	; 0xfffff0fa
     60c:	05015303 	streq	r5, [r1, #-771]	; 0xfffffcfd
     610:	26051405 	strcs	r1, [r5], -r5, lsl #8
     614:	052e0106 	streq	r0, [lr, #-262]!	; 0xfffffefa
     618:	05180639 	ldreq	r0, [r8, #-1593]	; 0xfffff9c7
     61c:	1205010b 	andne	r0, r5, #-1073741822	; 0xc0000002
     620:	062e0101 	strteq	r0, [lr], -r1, lsl #2
     624:	01240501 			; <UNDEFINED> instruction: 0x01240501
     628:	4a2e0b05 	bmi	b83244 <__bss_end__+0xb794cc>
     62c:	03062105 	movweq	r2, #24837	; 0x6105
     630:	050100da 	streq	r0, [r1, #-218]	; 0xffffff26
     634:	0505011a 	streq	r0, [r5, #-282]	; 0xfffffee6
     638:	09052e06 	stmdbeq	r5, {r1, r2, r9, sl, fp, sp}
     63c:	03040200 	movweq	r0, #16896	; 0x4200
     640:	02004c06 	andeq	r4, r0, #1536	; 0x600
     644:	05160304 	ldreq	r0, [r6, #-772]	; 0xfffffcfc
     648:	04020014 	streq	r0, [r2], #-20	; 0xffffffec
     64c:	01690303 	cmneq	r9, r3, lsl #6
     650:	02000505 	andeq	r0, r0, #20971520	; 0x1400000
     654:	00130304 	andseq	r0, r3, r4, lsl #6
     658:	01030402 	tsteq	r3, r2, lsl #8
     65c:	03040200 	movweq	r0, #16896	; 0x4200
     660:	04020001 	streq	r0, [r2], #-1
     664:	02000103 	andeq	r0, r0, #-1073741824	; 0xc0000000
     668:	05130304 	ldreq	r0, [r3, #-772]	; 0xfffffcfc
     66c:	0402001d 	streq	r0, [r2], #-29	; 0xffffffe3
     670:	15030603 	strne	r0, [r3, #-1539]	; 0xfffff9fd
     674:	00080501 	andeq	r0, r8, r1, lsl #10
     678:	03030402 	movweq	r0, #13314	; 0x3402
     67c:	09052e6b 	stmdbeq	r5, {r0, r1, r3, r5, r6, r9, sl, fp, sp}
     680:	14054b06 	strne	r4, [r5], #-2822	; 0xfffff4fa
     684:	05016303 	streq	r6, [r1, #-771]	; 0xfffffcfd
     688:	14051305 	strne	r1, [r5], #-773	; 0xfffffcfb
     68c:	05016803 	streq	r6, [r1, #-2051]	; 0xfffff7fd
     690:	1a051405 	bne	1456ac <__bss_end__+0x13b934>
     694:	052e0101 	streq	r0, [lr, #-257]!	; 0xfffffeff
     698:	0501060e 	streq	r0, [r1, #-1550]	; 0xfffff9f2
     69c:	05300605 	ldreq	r0, [r0, #-1541]!	; 0xfffff9fb
     6a0:	01580314 	cmpeq	r8, r4, lsl r3
     6a4:	05140505 	ldreq	r0, [r4, #-1285]	; 0xfffffafb
     6a8:	05010626 	streq	r0, [r1, #-1574]	; 0xfffff9da
     6ac:	052e2f01 	streq	r2, [lr, #-3841]!	; 0xfffff0ff
     6b0:	d8030609 	stmdale	r3, {r0, r3, r9, sl}
     6b4:	14050100 	strne	r0, [r5], #-256	; 0xffffff00
     6b8:	05015b03 	streq	r5, [r1, #-2819]	; 0xfffff4fd
     6bc:	14051305 	strne	r1, [r5], #-773	; 0xfffffcfb
     6c0:	05016d03 	streq	r6, [r1, #-3331]	; 0xfffff2fd
     6c4:	1a051405 	bne	1456e0 <__bss_end__+0x13b968>
     6c8:	052e0101 	streq	r0, [lr, #-257]!	; 0xfffffeff
     6cc:	0501060e 	streq	r0, [r1, #-1550]	; 0xfffff9f2
     6d0:	05300605 	ldreq	r0, [r0, #-1541]!	; 0xfffff9fb
     6d4:	01580314 	cmpeq	r8, r4, lsl r3
     6d8:	05140505 	ldreq	r0, [r4, #-1285]	; 0xfffffafb
     6dc:	2e010626 	cfmadd32cs	mvax1, mvfx0, mvfx1, mvfx6
     6e0:	03063905 	movweq	r3, #26885	; 0x6905
     6e4:	0b05010a 	bleq	140b14 <__bss_end__+0x136d9c>
     6e8:	01120501 	tsteq	r2, r1, lsl #10
     6ec:	01062e01 	tsteq	r6, r1, lsl #28
     6f0:	05012405 	streq	r2, [r1, #-1029]	; 0xfffffbfb
     6f4:	054a2e0b 	strbeq	r2, [sl, #-3595]	; 0xfffff1f5
     6f8:	d0030609 	andle	r0, r3, r9, lsl #12
     6fc:	14050100 	strne	r0, [r5], #-256	; 0xffffff00
     700:	05016303 	streq	r6, [r1, #-771]	; 0xfffffcfd
     704:	14051305 	strne	r1, [r5], #-773	; 0xfffffcfb
     708:	05016e03 	streq	r6, [r1, #-3587]	; 0xfffff1fd
     70c:	1a051405 	bne	145728 <__bss_end__+0x13b9b0>
     710:	052e0101 	streq	r0, [lr, #-257]!	; 0xfffffeff
     714:	0501060e 	streq	r0, [r1, #-1550]	; 0xfffff9f2
     718:	052f0605 	streq	r0, [pc, #-1541]!	; 11b <__code_start__-0x7ee5>
     71c:	01530314 	cmpeq	r3, r4, lsl r3
     720:	05140505 	ldreq	r0, [r4, #-1285]	; 0xfffffafb
     724:	2e010626 	cfmadd32cs	mvax1, mvfx0, mvfx1, mvfx6
     728:	18063905 	stmdane	r6, {r0, r2, r8, fp, ip, sp}
     72c:	05010b05 	streq	r0, [r1, #-2821]	; 0xfffff4fb
     730:	2e010112 	mcrcs	1, 0, r0, cr1, cr2, {0}
     734:	24050106 	strcs	r0, [r5], #-262	; 0xfffffefa
     738:	2e0b0501 	cfsh32cs	mvfx0, mvfx11, #1
     73c:	1c050204 	sfmne	f0, 4, [r5], {4}
     740:	7f940306 	svcvc	0x00940306
     744:	0501069e 	streq	r0, [r1, #-1694]	; 0xfffff962
     748:	054d0605 	strbeq	r0, [sp, #-1541]	; 0xfffff9fb
     74c:	1a05010a 	bne	140b7c <__bss_end__+0x136e04>
     750:	06050501 	streq	r0, [r5], -r1, lsl #10
     754:	82130501 	andshi	r0, r3, #4194304	; 0x400000
     758:	02000905 	andeq	r0, r0, #81920	; 0x14000
     75c:	2f060304 	svccs	0x00060304
     760:	14050104 	strne	r0, [r5], #-260	; 0xfffffefc
     764:	03040200 	movweq	r0, #16896	; 0x4200
     768:	6601ce03 	strvs	ip, [r1], -r3, lsl #28
     76c:	02000505 	andeq	r0, r0, #20971520	; 0x1400000
     770:	00170304 	andseq	r0, r7, r4, lsl #6
     774:	68030402 	stmdavs	r3, {r1, sl}
     778:	03040200 	movweq	r0, #16896	; 0x4200
     77c:	04020068 	streq	r0, [r2], #-104	; 0xffffff98
     780:	04660603 	strbteq	r0, [r6], #-1539	; 0xfffff9fd
     784:	00290502 	eoreq	r0, r9, r2, lsl #10
     788:	06030402 	streq	r0, [r3], -r2, lsl #8
     78c:	017ea803 	cmneq	lr, r3, lsl #16
     790:	02002a05 	andeq	r2, r0, #20480	; 0x5000
     794:	01060304 	tsteq	r6, r4, lsl #6
     798:	02001a05 	andeq	r1, r0, #20480	; 0x5000
     79c:	2e060304 	cdpcs	3, 0, cr0, cr6, cr4, {0}
     7a0:	02000505 	andeq	r0, r0, #20971520	; 0x1400000
     7a4:	2e060304 	cdpcs	3, 0, cr0, cr6, cr4, {0}
     7a8:	03040200 	movweq	r0, #16896	; 0x4200
     7ac:	04160666 	ldreq	r0, [r6], #-1638	; 0xfffff99a
     7b0:	03140501 	tsteq	r4, #4194304	; 0x400000
     7b4:	050101a9 	streq	r0, [r1, #-425]	; 0xfffffe57
     7b8:	14051305 	strne	r1, [r5], #-773	; 0xfffffcfb
     7bc:	05017603 	streq	r7, [r1, #-1539]	; 0xfffff9fd
     7c0:	14051305 	strne	r1, [r5], #-773	; 0xfffffcfb
     7c4:	05016603 	streq	r6, [r1, #-1539]	; 0xfffff9fd
     7c8:	1a051405 	bne	1457e4 <__bss_end__+0x13ba6c>
     7cc:	052e0101 	streq	r0, [lr, #-257]!	; 0xfffffeff
     7d0:	0501060e 	streq	r0, [r1, #-1550]	; 0xfffff9f2
     7d4:	052f0605 	streq	r0, [pc, #-1541]!	; 1d7 <__code_start__-0x7e29>
     7d8:	01530314 	cmpeq	r3, r4, lsl r3
     7dc:	04140505 	ldreq	r0, [r4], #-1285	; 0xfffffafb
     7e0:	a1030602 	tstge	r3, r2, lsl #12
     7e4:	0104017f 	tsteq	r4, pc, ror r1
     7e8:	df032b05 	svcle	0x00032b05
     7ec:	26052e00 	strcs	r2, [r5], -r0, lsl #28
     7f0:	052e2e4a 	streq	r2, [lr, #-3658]!	; 0xfffff1b6
     7f4:	3905180b 	stmdbcc	r5, {r0, r1, r3, fp, ip}
     7f8:	0b052e06 	bleq	14c018 <__bss_end__+0x1422a0>
     7fc:	01120501 	tsteq	r2, r1, lsl #10
     800:	01062e01 	tsteq	r6, r1, lsl #28
     804:	05012405 	streq	r2, [r1, #-1029]	; 0xfffffbfb
     808:	044a2e0b 	strbeq	r2, [sl], #-3595	; 0xfffff1f5
     80c:	061a0502 	ldreq	r0, [sl], -r2, lsl #10
     810:	017f9d03 	cmneq	pc, r3, lsl #26
     814:	01061f05 	tsteq	r6, r5, lsl #30
     818:	052e0505 	streq	r0, [lr, #-1285]!	; 0xfffffafb
     81c:	09059f18 	stmdbeq	r5, {r3, r4, r8, r9, sl, fp, ip, pc}
     820:	03040200 	movweq	r0, #16896	; 0x4200
     824:	18052e06 	stmdane	r5, {r1, r2, r9, sl, fp, sp}
     828:	03040200 	movweq	r0, #16896	; 0x4200
     82c:	09050106 	stmdbeq	r5, {r1, r2, r8}
     830:	03040200 	movweq	r0, #16896	; 0x4200
     834:	18052f06 	stmdane	r5, {r1, r2, r8, r9, sl, fp, sp}
     838:	03040200 	movweq	r0, #16896	; 0x4200
     83c:	09050106 	stmdbeq	r5, {r1, r2, r8}
     840:	03040200 	movweq	r0, #16896	; 0x4200
     844:	18052f06 	stmdane	r5, {r1, r2, r8, r9, sl, fp, sp}
     848:	03040200 	movweq	r0, #16896	; 0x4200
     84c:	29050106 	stmdbcs	r5, {r1, r2, r8}
     850:	03040200 	movweq	r0, #16896	; 0x4200
     854:	1a052b06 	bne	14b474 <__bss_end__+0x1416fc>
     858:	03040200 	movweq	r0, #16896	; 0x4200
     85c:	00050501 	andeq	r0, r5, r1, lsl #10
     860:	06030402 	streq	r0, [r3], -r2, lsl #8
     864:	0631052e 	ldrteq	r0, [r1], -lr, lsr #10
     868:	050106a5 	streq	r0, [r1, #-1701]	; 0xfffff95b
     86c:	13670605 	cmnne	r7, #5242880	; 0x500000
     870:	01063705 	tsteq	r6, r5, lsl #14
     874:	052e0e05 	streq	r0, [lr, #-3589]!	; 0xfffff1fb
     878:	052f0605 	streq	r0, [pc, #-1541]!	; 27b <__code_start__-0x7d85>
     87c:	2e010609 	cfmadd32cs	mvax0, mvfx0, mvfx1, mvfx9
     880:	0605052e 	streq	r0, [r5], -lr, lsr #10
     884:	0f05682f 	svceq	0x0005682f
     888:	05050106 	streq	r0, [r5, #-262]	; 0xfffffefa
     88c:	0c052f06 	stceq	15, cr2, [r5], {6}
     890:	05050106 	streq	r0, [r5, #-262]	; 0xfffffefa
     894:	054b2f06 	strbeq	r2, [fp, #-3846]	; 0xfffff0fa
     898:	05130601 	ldreq	r0, [r3, #-1537]	; 0xfffff9ff
     89c:	064d0641 	strbeq	r0, [sp], -r1, asr #12
     8a0:	06050501 	streq	r0, [r5], -r1, lsl #10
     8a4:	05010467 	streq	r0, [r1, #-1127]	; 0xfffffb99
     8a8:	01b40314 			; <UNDEFINED> instruction: 0x01b40314
     8ac:	1705052e 	strne	r0, [r5, -lr, lsr #10]
     8b0:	062e2e06 	strteq	r2, [lr], -r6, lsl #28
     8b4:	66066830 			; <UNDEFINED> instruction: 0x66066830
     8b8:	01050204 	tsteq	r5, r4, lsl #4
     8bc:	017ec403 	cmneq	lr, r3, lsl #8
     8c0:	31062d05 	tstcc	r6, r5, lsl #26
     8c4:	05050106 	streq	r0, [r5, #-262]	; 0xfffffefa
     8c8:	09054b06 	stmdbeq	r5, {r1, r2, r8, r9, fp, lr}
     8cc:	01140501 	tsteq	r4, r1, lsl #10
     8d0:	01060505 	tsteq	r6, r5, lsl #10
     8d4:	044a0d05 	strbeq	r0, [sl], #-3333	; 0xfffff2fb
     8d8:	03050501 	movweq	r0, #21761	; 0x5501
     8dc:	2e2e01b4 	mcrcs	1, 1, r0, cr14, cr4, {5}
     8e0:	09050204 	stmdbeq	r5, {r2, r9}
     8e4:	03040200 	movweq	r0, #16896	; 0x4200
     8e8:	7ecd0306 	cdpvc	3, 12, cr0, cr13, cr6, {0}
     8ec:	05010401 	streq	r0, [r1, #-1025]	; 0xfffffbff
     8f0:	04020014 	streq	r0, [r2], #-20	; 0xffffffec
     8f4:	01ae0303 			; <UNDEFINED> instruction: 0x01ae0303
     8f8:	0005052e 	andeq	r0, r5, lr, lsr #10
     8fc:	17030402 	strne	r0, [r3, -r2, lsl #8]
     900:	03040200 	movweq	r0, #16896	; 0x4200
     904:	04020068 	streq	r0, [r2], #-104	; 0xffffff98
     908:	02006803 	andeq	r6, r0, #196608	; 0x30000
     90c:	66060304 	strvs	r0, [r6], -r4, lsl #6
     910:	1b050204 	blne	141128 <__bss_end__+0x1373b0>
     914:	03040200 	movweq	r0, #16896	; 0x4200
     918:	7ec80306 	cdpvc	3, 12, cr0, cr8, cr6, {0}
     91c:	001c0501 	andseq	r0, ip, r1, lsl #10
     920:	06030402 	streq	r0, [r3], -r2, lsl #8
     924:	00140501 	andseq	r0, r4, r1, lsl #10
     928:	06030402 	streq	r0, [r3], -r2, lsl #8
     92c:	0005052e 	andeq	r0, r5, lr, lsr #10
     930:	06030402 	streq	r0, [r3], -r2, lsl #8
     934:	04020001 	streq	r0, [r2], #-1
     938:	14064a03 	strne	r4, [r6], #-2563	; 0xfffff5fd
     93c:	4b060105 	blmi	180d58 <__bss_end__+0x176fe0>
     940:	30061c05 	andcc	r1, r6, r5, lsl #24
     944:	05050106 	streq	r0, [r5, #-262]	; 0xfffffefa
     948:	01052f06 	tsteq	r5, r6, lsl #30
     94c:	4b054b06 	blmi	15356c <__bss_end__+0x1497f4>
     950:	05053106 	streq	r3, [r5, #-262]	; 0xfffffefa
     954:	06080515 			; <UNDEFINED> instruction: 0x06080515
     958:	06050501 	streq	r0, [r5], -r1, lsl #10
     95c:	06160567 	ldreq	r0, [r6], -r7, ror #10
     960:	052e2e01 	streq	r2, [lr, #-3585]!	; 0xfffff1ff
     964:	052f0605 	streq	r0, [pc, #-1541]!	; 367 <__code_start__-0x7c99>
     968:	05010616 	streq	r0, [r1, #-1558]	; 0xfffff9ea
     96c:	052f0605 	streq	r0, [pc, #-1541]!	; 36f <__code_start__-0x7c91>
     970:	2e010616 	mcrcs	6, 0, r0, cr1, cr6, {0}
     974:	022f0105 	eoreq	r0, pc, #1073741825	; 0x40000001
     978:	01010002 	tsteq	r1, r2
     97c:	00000113 	andeq	r0, r0, r3, lsl r1
     980:	00e30003 	rsceq	r0, r3, r3
     984:	01020000 	mrseq	r0, (UNDEF: 2)
     988:	000d0efb 	strdeq	r0, [sp], -fp
     98c:	01010101 	tsteq	r1, r1, lsl #2
     990:	01000000 	mrseq	r0, (UNDEF: 0)
     994:	2e010000 	cdpcs	0, 0, cr0, cr1, cr0, {0}
     998:	62696c2f 	rsbvs	r6, r9, #12032	; 0x2f00
     99c:	552f0063 	strpl	r0, [pc, #-99]!	; 941 <__code_start__-0x76bf>
     9a0:	73726573 	cmnvc	r2, #482344960	; 0x1cc00000
     9a4:	6972652f 	ldmdbvs	r2!, {r0, r1, r2, r3, r5, r8, sl, sp, lr}^
     9a8:	61656263 	cmnvs	r5, r3, ror #4
     9ac:	6f442f72 	svcvs	0x00442f72
     9b0:	656d7563 	strbvs	r7, [sp, #-1379]!	; 0xfffffa9d
     9b4:	2f73746e 	svccs	0x0073746e
     9b8:	34315343 	ldrtcc	r5, [r1], #-835	; 0xfffffcbd
     9bc:	632f4530 			; <UNDEFINED> instruction: 0x632f4530
     9c0:	30343173 	eorscc	r3, r4, r3, ror r1
     9c4:	69662d45 	stmdbvs	r6!, {r0, r2, r6, r8, sl, fp, sp}^
     9c8:	2d6c616e 	stfcse	f6, [ip, #-440]!	; 0xfffffe48
     9cc:	6a6f7270 	bvs	1bdd394 <__bss_end__+0x1bd361c>
     9d0:	2f746365 	svccs	0x00746365
     9d4:	7362696c 	cmnvc	r2, #108, 18	; 0x1b0000
     9d8:	3034322d 	eorscc	r3, r4, sp, lsr #4
     9dc:	6c2f786c 	stcvs	8, cr7, [pc], #-432	; 834 <__code_start__-0x77cc>
     9e0:	69706269 	ldmdbvs	r0!, {r0, r3, r5, r6, r9, sp, lr}^
     9e4:	636e692f 	cmnvs	lr, #770048	; 0xbc000
     9e8:	6564756c 	strbvs	r7, [r4, #-1388]!	; 0xfffffa94
     9ec:	73752f00 	cmnvc	r5, #0, 30
     9f0:	6f6c2f72 	svcvs	0x006c2f72
     9f4:	2f6c6163 	svccs	0x006c6163
     9f8:	6c6c6543 	cfstr64vs	mvdx6, [ip], #-268	; 0xfffffef4
     9fc:	612f7261 			; <UNDEFINED> instruction: 0x612f7261
     a00:	6e2d6d72 	mcrvs	13, 1, r6, cr13, cr2, {3}
     a04:	2d656e6f 	stclcs	14, cr6, [r5, #-444]!	; 0xfffffe44
     a08:	69626165 	stmdbvs	r2!, {r0, r2, r5, r6, r8, sp, lr}^
     a0c:	7365742d 	cmnvc	r5, #754974720	; 0x2d000000
     a10:	2d392f74 	ldccs	15, cr2, [r9, #-464]!	; 0xfffffe30
     a14:	39313032 	ldmdbcc	r1!, {r1, r4, r5, ip, sp}
     a18:	632d3471 			; <UNDEFINED> instruction: 0x632d3471
     a1c:	37303173 			; <UNDEFINED> instruction: 0x37303173
     a20:	696c2f65 	stmdbvs	ip!, {r0, r2, r5, r6, r8, r9, sl, fp, sp}^
     a24:	63672f62 	cmnvs	r7, #392	; 0x188
     a28:	72612f63 	rsbvc	r2, r1, #396	; 0x18c
     a2c:	6f6e2d6d 	svcvs	0x006e2d6d
     a30:	652d656e 	strvs	r6, [sp, #-1390]!	; 0xfffffa92
     a34:	2f696261 	svccs	0x00696261
     a38:	2e322e39 	mrccs	14, 1, r2, cr2, cr9, {1}
     a3c:	6e692f31 	mcrvs	15, 3, r2, cr9, cr1, {1}
     a40:	64756c63 	ldrbtvs	r6, [r5], #-3171	; 0xfffff39d
     a44:	6d000065 	stcvs	0, cr0, [r0, #-404]	; 0xfffffe6c
     a48:	65736d65 	ldrbvs	r6, [r3, #-3429]!	; 0xfffff29b
     a4c:	00632e74 	rsbeq	r2, r3, r4, ror lr
     a50:	72000001 	andvc	r0, r0, #1, 0
     a54:	682e6970 	stmdavs	lr!, {r4, r5, r6, r8, fp, sp, lr}
     a58:	00000200 	andeq	r0, r0, r0, lsl #4
     a5c:	64647473 	strbtvs	r7, [r4], #-1139	; 0xfffffb8d
     a60:	682e6665 	stmdavs	lr!, {r0, r2, r5, r6, r9, sl, sp, lr}
     a64:	00000300 	andeq	r0, r0, r0, lsl #6
     a68:	00290500 	eoreq	r0, r9, r0, lsl #10
     a6c:	84780205 	ldrbthi	r0, [r8], #-517	; 0xfffffdfb
     a70:	05150000 	ldreq	r0, [r5, #-0]
     a74:	14051305 	strne	r1, [r5], #-773	; 0xfffffcfb
     a78:	05050106 	streq	r0, [r5, #-262]	; 0xfffffefa
     a7c:	0b053006 	bleq	14ca9c <__bss_end__+0x142d24>
     a80:	0a051006 	beq	144aa0 <__bss_end__+0x13ad28>
     a84:	09053006 	stmdbeq	r5, {r1, r2, ip, sp}
     a88:	060e054b 	streq	r0, [lr], -fp, asr #10
     a8c:	02022e01 	andeq	r2, r2, #1, 28
     a90:	32010100 	andcc	r0, r1, #0
     a94:	03000001 	movweq	r0, #1
     a98:	00010000 	andeq	r0, r1, r0
     a9c:	fb010200 	blx	412a6 <__bss_end__+0x3752e>
     aa0:	01000d0e 	tsteq	r0, lr, lsl #26
     aa4:	00010101 	andeq	r0, r1, r1, lsl #2
     aa8:	00010000 	andeq	r0, r1, r0
     aac:	2f2e0100 	svccs	0x002e0100
     ab0:	6362696c 	cmnvs	r2, #108, 18	; 0x1b0000
     ab4:	73752f00 	cmnvc	r5, #0, 30
     ab8:	6f6c2f72 	svcvs	0x006c2f72
     abc:	2f6c6163 	svccs	0x006c6163
     ac0:	6c6c6543 	cfstr64vs	mvdx6, [ip], #-268	; 0xfffffef4
     ac4:	612f7261 			; <UNDEFINED> instruction: 0x612f7261
     ac8:	6e2d6d72 	mcrvs	13, 1, r6, cr13, cr2, {3}
     acc:	2d656e6f 	stclcs	14, cr6, [r5, #-444]!	; 0xfffffe44
     ad0:	69626165 	stmdbvs	r2!, {r0, r2, r5, r6, r8, sp, lr}^
     ad4:	7365742d 	cmnvc	r5, #754974720	; 0x2d000000
     ad8:	2d392f74 	ldccs	15, cr2, [r9, #-464]!	; 0xfffffe30
     adc:	39313032 	ldmdbcc	r1!, {r1, r4, r5, ip, sp}
     ae0:	632d3471 			; <UNDEFINED> instruction: 0x632d3471
     ae4:	37303173 			; <UNDEFINED> instruction: 0x37303173
     ae8:	696c2f65 	stmdbvs	ip!, {r0, r2, r5, r6, r8, r9, sl, fp, sp}^
     aec:	63672f62 	cmnvs	r7, #392	; 0x188
     af0:	72612f63 	rsbvc	r2, r1, #396	; 0x18c
     af4:	6f6e2d6d 	svcvs	0x006e2d6d
     af8:	652d656e 	strvs	r6, [sp, #-1390]!	; 0xfffffa92
     afc:	2f696261 	svccs	0x00696261
     b00:	2e322e39 	mrccs	14, 1, r2, cr2, cr9, {1}
     b04:	6e692f31 	mcrvs	15, 3, r2, cr9, cr1, {1}
     b08:	64756c63 	ldrbtvs	r6, [r5], #-3171	; 0xfffff39d
     b0c:	552f0065 	strpl	r0, [pc, #-101]!	; aaf <__code_start__-0x7551>
     b10:	73726573 	cmnvc	r2, #482344960	; 0x1cc00000
     b14:	6972652f 	ldmdbvs	r2!, {r0, r1, r2, r3, r5, r8, sl, sp, lr}^
     b18:	61656263 	cmnvs	r5, r3, ror #4
     b1c:	6f442f72 	svcvs	0x00442f72
     b20:	656d7563 	strbvs	r7, [sp, #-1379]!	; 0xfffffa9d
     b24:	2f73746e 	svccs	0x0073746e
     b28:	34315343 	ldrtcc	r5, [r1], #-835	; 0xfffffcbd
     b2c:	632f4530 			; <UNDEFINED> instruction: 0x632f4530
     b30:	30343173 	eorscc	r3, r4, r3, ror r1
     b34:	69662d45 	stmdbvs	r6!, {r0, r2, r6, r8, sl, fp, sp}^
     b38:	2d6c616e 	stfcse	f6, [ip, #-440]!	; 0xfffffe48
     b3c:	6a6f7270 	bvs	1bdd504 <__bss_end__+0x1bd378c>
     b40:	2f746365 	svccs	0x00746365
     b44:	7362696c 	cmnvc	r2, #108, 18	; 0x1b0000
     b48:	3034322d 	eorscc	r3, r4, sp, lsr #4
     b4c:	6c2f786c 	stcvs	8, cr7, [pc], #-432	; 9a4 <__code_start__-0x765c>
     b50:	69706269 	ldmdbvs	r0!, {r0, r3, r5, r6, r9, sp, lr}^
     b54:	636e692f 	cmnvs	lr, #770048	; 0xbc000
     b58:	6564756c 	strbvs	r7, [r4, #-1388]!	; 0xfffffa94
     b5c:	72700000 	rsbsvc	r0, r0, #0, 0
     b60:	6b746e69 	blvs	1d1c50c <__bss_end__+0x1d12794>
     b64:	0100632e 	tsteq	r0, lr, lsr #6
     b68:	74730000 	ldrbtvc	r0, [r3], #-0
     b6c:	67726164 	ldrbvs	r6, [r2, -r4, ror #2]!
     b70:	0200682e 	andeq	r6, r0, #3014656	; 0x2e0000
     b74:	70720000 	rsbsvc	r0, r2, r0
     b78:	00682e69 	rsbeq	r2, r8, r9, ror #28
     b7c:	3c000003 	stccc	0, cr0, [r0], {3}
     b80:	6c697562 	cfstr64vs	mvdx7, [r9], #-392	; 0xfffffe78
     b84:	6e692d74 	mcrvs	13, 3, r2, cr9, cr4, {3}
     b88:	0000003e 	andeq	r0, r0, lr, lsr r0
     b8c:	2d617600 	stclcs	6, cr7, [r1, #-0]
     b90:	6e697270 	mcrvs	2, 3, r7, cr9, cr0, {3}
     b94:	682e6b74 	stmdavs	lr!, {r2, r4, r5, r6, r8, r9, fp, sp, lr}
     b98:	00000100 	andeq	r0, r0, r0, lsl #2
     b9c:	00220500 	eoreq	r0, r2, r0, lsl #10
     ba0:	84900205 	ldrhi	r0, [r0], #517	; 0x205
     ba4:	06170000 	ldreq	r0, [r7], -r0
     ba8:	06050501 	streq	r0, [r5], -r1, lsl #10
     bac:	05141368 	ldreq	r1, [r4, #-872]	; 0xfffffc98
     bb0:	12054b09 	andne	r4, r5, #9216	; 0x2400
     bb4:	05050106 	streq	r0, [r5, #-262]	; 0xfffffefa
     bb8:	0616bb06 	ldreq	fp, [r6], -r6, lsl #22
     bbc:	05340666 	ldreq	r0, [r4, #-1638]!	; 0xfffff99a
     bc0:	66130601 	ldrvs	r0, [r3], -r1, lsl #12
     bc4:	01000802 	tsteq	r0, r2, lsl #16
     bc8:	0000ca01 	andeq	ip, r0, r1, lsl #20
     bcc:	7c000300 	stcvc	3, cr0, [r0], {-0}
     bd0:	02000000 	andeq	r0, r0, #0, 0
     bd4:	0d0efb01 	vstreq	d15, [lr, #-4]
     bd8:	01010100 	mrseq	r0, (UNDEF: 17)
     bdc:	00000001 	andeq	r0, r0, r1
     be0:	01000001 	tsteq	r0, r1
     be4:	696c2f2e 	stmdbvs	ip!, {r1, r2, r3, r5, r8, r9, sl, fp, sp}^
     be8:	2f006362 	svccs	0x00006362
     bec:	72657355 	rsbvc	r7, r5, #1409286145	; 0x54000001
     bf0:	72652f73 	rsbvc	r2, r5, #460	; 0x1cc
     bf4:	65626369 	strbvs	r6, [r2, #-873]!	; 0xfffffc97
     bf8:	442f7261 	strtmi	r7, [pc], #-609	; c00 <__code_start__-0x7400>
     bfc:	6d75636f 	ldclvs	3, cr6, [r5, #-444]!	; 0xfffffe44
     c00:	73746e65 	cmnvc	r4, #1616	; 0x650
     c04:	3153432f 	cmpcc	r3, pc, lsr #6
     c08:	2f453034 	svccs	0x00453034
     c0c:	34317363 	ldrtcc	r7, [r1], #-867	; 0xfffffc9d
     c10:	662d4530 			; <UNDEFINED> instruction: 0x662d4530
     c14:	6c616e69 	stclvs	14, cr6, [r1], #-420	; 0xfffffe5c
     c18:	6f72702d 	svcvs	0x0072702d
     c1c:	7463656a 	strbtvc	r6, [r3], #-1386	; 0xfffffa96
     c20:	62696c2f 	rsbvs	r6, r9, #12032	; 0x2f00
     c24:	34322d73 	ldrtcc	r2, [r2], #-3443	; 0xfffff28d
     c28:	2f786c30 	svccs	0x00786c30
     c2c:	7062696c 	rsbvc	r6, r2, ip, ror #18
     c30:	6e692f69 	cdpvs	15, 6, cr2, cr9, cr9, {3}
     c34:	64756c63 	ldrbtvs	r6, [r5], #-3171	; 0xfffff39d
     c38:	70000065 	andvc	r0, r0, r5, rrx
     c3c:	2e6b7475 	mcrcs	4, 3, r7, cr11, cr5, {3}
     c40:	00010063 	andeq	r0, r1, r3, rrx
     c44:	69707200 	ldmdbvs	r0!, {r9, ip, sp, lr}^
     c48:	0200682e 	andeq	r6, r0, #3014656	; 0x2e0000
     c4c:	05000000 	streq	r0, [r0, #-0]
     c50:	02050022 	andeq	r0, r5, #34, 0	; 0x22
     c54:	000084e8 	andeq	r8, r0, r8, ror #9
     c58:	05010615 	streq	r0, [r1, #-1557]	; 0xfffff9eb
     c5c:	054b0605 	strbeq	r0, [fp, #-1541]	; 0xfffff9fb
     c60:	0402000b 	streq	r0, [r2], #-11
     c64:	05050101 	streq	r0, [r5, #-257]	; 0xfffffeff
     c68:	01040200 	mrseq	r0, R12_usr
     c6c:	09052e06 	stmdbeq	r5, {r1, r2, r9, sl, fp, sp}
     c70:	02040200 	andeq	r0, r4, #0, 4
     c74:	0f054b06 	svceq	0x00054b06
     c78:	02040200 	andeq	r0, r4, #0, 4
     c7c:	00100565 	andseq	r0, r0, r5, ror #10
     c80:	06020402 	streq	r0, [r2], -r2, lsl #8
     c84:	04020001 	streq	r0, [r2], #-1
     c88:	05052e02 	streq	r2, [r5, #-3586]	; 0xfffff1fe
     c8c:	01053206 	tsteq	r5, r6, lsl #4
     c90:	06021306 	streq	r1, [r2], -r6, lsl #6
     c94:	1c010100 	stfnes	f0, [r1], {-0}
     c98:	03000006 	movweq	r0, #6
     c9c:	00011600 	andeq	r1, r1, r0, lsl #12
     ca0:	fb010200 	blx	414aa <__bss_end__+0x37732>
     ca4:	01000d0e 	tsteq	r0, lr, lsl #26
     ca8:	00010101 	andeq	r0, r1, r1, lsl #2
     cac:	00010000 	andeq	r0, r1, r0
     cb0:	2f2e0100 	svccs	0x002e0100
     cb4:	6362696c 	cmnvs	r2, #108, 18	; 0x1b0000
     cb8:	73752f00 	cmnvc	r5, #0, 30
     cbc:	6f6c2f72 	svcvs	0x006c2f72
     cc0:	2f6c6163 	svccs	0x006c6163
     cc4:	6c6c6543 	cfstr64vs	mvdx6, [ip], #-268	; 0xfffffef4
     cc8:	612f7261 			; <UNDEFINED> instruction: 0x612f7261
     ccc:	6e2d6d72 	mcrvs	13, 1, r6, cr13, cr2, {3}
     cd0:	2d656e6f 	stclcs	14, cr6, [r5, #-444]!	; 0xfffffe44
     cd4:	69626165 	stmdbvs	r2!, {r0, r2, r5, r6, r8, sp, lr}^
     cd8:	7365742d 	cmnvc	r5, #754974720	; 0x2d000000
     cdc:	2d392f74 	ldccs	15, cr2, [r9, #-464]!	; 0xfffffe30
     ce0:	39313032 	ldmdbcc	r1!, {r1, r4, r5, ip, sp}
     ce4:	632d3471 			; <UNDEFINED> instruction: 0x632d3471
     ce8:	37303173 			; <UNDEFINED> instruction: 0x37303173
     cec:	696c2f65 	stmdbvs	ip!, {r0, r2, r5, r6, r8, r9, sl, fp, sp}^
     cf0:	63672f62 	cmnvs	r7, #392	; 0x188
     cf4:	72612f63 	rsbvc	r2, r1, #396	; 0x18c
     cf8:	6f6e2d6d 	svcvs	0x006e2d6d
     cfc:	652d656e 	strvs	r6, [sp, #-1390]!	; 0xfffffa92
     d00:	2f696261 	svccs	0x00696261
     d04:	2e322e39 	mrccs	14, 1, r2, cr2, cr9, {1}
     d08:	6e692f31 	mcrvs	15, 3, r2, cr9, cr1, {1}
     d0c:	64756c63 	ldrbtvs	r6, [r5], #-3171	; 0xfffff39d
     d10:	552f0065 	strpl	r0, [pc, #-101]!	; cb3 <__code_start__-0x734d>
     d14:	73726573 	cmnvc	r2, #482344960	; 0x1cc00000
     d18:	6972652f 	ldmdbvs	r2!, {r0, r1, r2, r3, r5, r8, sl, sp, lr}^
     d1c:	61656263 	cmnvs	r5, r3, ror #4
     d20:	6f442f72 	svcvs	0x00442f72
     d24:	656d7563 	strbvs	r7, [sp, #-1379]!	; 0xfffffa9d
     d28:	2f73746e 	svccs	0x0073746e
     d2c:	34315343 	ldrtcc	r5, [r1], #-835	; 0xfffffcbd
     d30:	632f4530 			; <UNDEFINED> instruction: 0x632f4530
     d34:	30343173 	eorscc	r3, r4, r3, ror r1
     d38:	69662d45 	stmdbvs	r6!, {r0, r2, r6, r8, sl, fp, sp}^
     d3c:	2d6c616e 	stfcse	f6, [ip, #-440]!	; 0xfffffe48
     d40:	6a6f7270 	bvs	1bdd708 <__bss_end__+0x1bd3990>
     d44:	2f746365 	svccs	0x00746365
     d48:	7362696c 	cmnvc	r2, #108, 18	; 0x1b0000
     d4c:	3034322d 	eorscc	r3, r4, sp, lsr #4
     d50:	6c2f786c 	stcvs	8, cr7, [pc], #-432	; ba8 <__code_start__-0x7458>
     d54:	69706269 	ldmdbvs	r0!, {r0, r3, r5, r6, r9, sp, lr}^
     d58:	636e692f 	cmnvs	lr, #770048	; 0xbc000
     d5c:	6564756c 	strbvs	r7, [r4, #-1388]!	; 0xfffffa94
     d60:	61760000 	cmnvs	r6, r0
     d64:	6972702d 	ldmdbvs	r2!, {r0, r2, r3, r5, ip, sp, lr}^
     d68:	2e6b746e 	cdpcs	4, 6, cr7, cr11, cr14, {3}
     d6c:	00010063 	andeq	r0, r1, r3, rrx
     d70:	64747300 	ldrbtvs	r7, [r4], #-768	; 0xfffffd00
     d74:	2d746e69 	ldclcs	14, cr6, [r4, #-420]!	; 0xfffffe5c
     d78:	2e636367 	cdpcs	3, 6, cr6, cr3, cr7, {3}
     d7c:	00020068 	andeq	r0, r2, r8, rrx
     d80:	69707200 	ldmdbvs	r0!, {r9, ip, sp, lr}^
     d84:	0300682e 	movweq	r6, #2094	; 0x82e
     d88:	70720000 	rsbsvc	r0, r2, r0
     d8c:	6e692d69 	cdpvs	13, 6, cr2, cr9, cr9, {3}
     d90:	6e726574 	mrcvs	5, 3, r6, cr2, cr4, {3}
     d94:	682e6c61 	stmdavs	lr!, {r0, r5, r6, sl, fp, sp, lr}
     d98:	00000300 	andeq	r0, r0, r0, lsl #6
     d9c:	61647473 	smcvs	18243	; 0x4743
     da0:	682e6772 	stmdavs	lr!, {r1, r4, r5, r6, r8, r9, sl, sp, lr}
     da4:	00000200 	andeq	r0, r0, r0, lsl #4
     da8:	6975623c 	ldmdbvs	r5!, {r2, r3, r4, r5, r9, sp, lr}^
     dac:	692d746c 	pushvs	{r2, r3, r5, r6, sl, ip, sp, lr}
     db0:	00003e6e 	andeq	r3, r0, lr, ror #28
     db4:	05000000 	streq	r0, [r0, #-0]
     db8:	0205001b 	andeq	r0, r5, #27, 0
     dbc:	0000851c 	andeq	r8, r0, ip, lsl r5
     dc0:	05012603 	streq	r2, [r1, #-1539]	; 0xfffff9fd
     dc4:	2d05011d 	stfcss	f0, [r5, #-116]	; 0xffffff8c
     dc8:	01050106 	tsteq	r5, r6, lsl #2
     dcc:	33054a2e 	movwcc	r4, #23086	; 0x5a2e
     dd0:	02055106 	andeq	r5, r5, #-2147483647	; 0x80000001
     dd4:	06060513 			; <UNDEFINED> instruction: 0x06060513
     dd8:	06020501 	streq	r0, [r2], -r1, lsl #10
     ddc:	00080530 	andeq	r0, r8, r0, lsr r5
     de0:	01010402 	tsteq	r1, r2, lsl #8
     de4:	02000205 	andeq	r0, r0, #1342177280	; 0x50000000
     de8:	01060104 	tsteq	r6, r4, lsl #2
     dec:	02000305 	andeq	r0, r0, #335544320	; 0x14000000
     df0:	2f060204 	svccs	0x00060204
     df4:	02000805 	andeq	r0, r0, #327680	; 0x50000
     df8:	01060204 	tsteq	r6, r4, lsl #4
     dfc:	02001505 	andeq	r1, r0, #20971520	; 0x1400000
     e00:	49060204 	stmdbmi	r6, {r2, r9}
     e04:	02001805 	andeq	r1, r0, #327680	; 0x50000
     e08:	01060204 	tsteq	r6, r4, lsl #4
     e0c:	02040200 	andeq	r0, r4, #0, 4
     e10:	0602052e 	streq	r0, [r2], -lr, lsr #10
     e14:	06050530 			; <UNDEFINED> instruction: 0x06050530
     e18:	06020501 	streq	r0, [r2], -r1, lsl #10
     e1c:	0601054b 	streq	r0, [r1], -fp, asr #10
     e20:	063e0513 			; <UNDEFINED> instruction: 0x063e0513
     e24:	14020531 	strne	r0, [r2], #-1329	; 0xfffffacf
     e28:	01060e05 	tsteq	r6, r5, lsl #28
     e2c:	052e0605 	streq	r0, [lr, #-1541]!	; 0xfffff9fb
     e30:	052f0602 	streq	r0, [pc, #-1538]!	; 836 <__code_start__-0x77ca>
     e34:	05010604 	streq	r0, [r1, #-1540]	; 0xfffff9fc
     e38:	052f0603 	streq	r0, [pc, #-1539]!	; 83d <__code_start__-0x77c3>
     e3c:	05010611 	streq	r0, [r1, #-1553]	; 0xfffff9ef
     e40:	02052e09 	andeq	r2, r5, #144	; 0x90
     e44:	05153006 	ldreq	r3, [r5, #-6]
     e48:	05010607 	streq	r0, [r1, #-1543]	; 0xfffff9f9
     e4c:	0b052e02 	bleq	14c65c <__bss_end__+0x1428e4>
     e50:	01040200 	mrseq	r0, R12_usr
     e54:	02052e06 	andeq	r2, r5, #96	; 0x60
     e58:	01040200 	mrseq	r0, R12_usr
     e5c:	03050106 	movweq	r0, #20742	; 0x5106
     e60:	03040200 	movweq	r0, #16896	; 0x4200
     e64:	0c052f06 	stceq	15, cr2, [r5], {6}
     e68:	03040200 	movweq	r0, #16896	; 0x4200
     e6c:	0a050106 	beq	14128c <__bss_end__+0x137514>
     e70:	03040200 	movweq	r0, #16896	; 0x4200
     e74:	0017052e 	andseq	r0, r7, lr, lsr #10
     e78:	06030402 	streq	r0, [r3], -r2, lsl #8
     e7c:	0402002d 	streq	r0, [r2], #-45	; 0xffffffd3
     e80:	05010603 	streq	r0, [r1, #-1539]	; 0xfffff9fd
     e84:	05300602 	ldreq	r0, [r0, #-1538]!	; 0xfffff9fe
     e88:	2e010609 	cfmadd32cs	mvax0, mvfx0, mvfx1, mvfx9
     e8c:	30060205 	andcc	r0, r6, r5, lsl #4
     e90:	13060105 	movwne	r0, #24837	; 0x6105
     e94:	31064905 	tstcc	r6, r5, lsl #18
     e98:	02050106 	andeq	r0, r5, #-2147483647	; 0x80000001
     e9c:	0405a006 	streq	sl, [r5], #-6
     ea0:	03050106 	movweq	r0, #20742	; 0x5106
     ea4:	09052f06 	stmdbeq	r5, {r1, r2, r8, r9, sl, fp, sp}
     ea8:	02050106 	andeq	r0, r5, #-2147483647	; 0x80000001
     eac:	05133006 	ldreq	r3, [r3, #-6]
     eb0:	0501060b 	streq	r0, [r1, #-1547]	; 0xfffff9f5
     eb4:	06300602 	ldrteq	r0, [r0], -r2, lsl #12
     eb8:	0604052e 	streq	r0, [r4], -lr, lsr #10
     ebc:	13152402 	tstne	r5, #33554432	; 0x2000000
     ec0:	01060f05 	tsteq	r6, r5, lsl #30
     ec4:	4a06052e 	bmi	182384 <__bss_end__+0x17860c>
     ec8:	4b060505 	blmi	1822e4 <__bss_end__+0x17856c>
     ecc:	06090513 			; <UNDEFINED> instruction: 0x06090513
     ed0:	06050501 	streq	r0, [r5], -r1, lsl #10
     ed4:	060b052f 	streq	r0, [fp], -pc, lsr #10
     ed8:	000d0510 	andeq	r0, sp, r0, lsl r5
     edc:	2c010402 	cfstrscs	mvf0, [r1], {2}
     ee0:	02000405 	andeq	r0, r0, #83886080	; 0x5000000
     ee4:	34060104 	strcc	r0, [r6], #-260	; 0xfffffefc
     ee8:	02000505 	andeq	r0, r0, #20971520	; 0x1400000
     eec:	05130104 	ldreq	r0, [r3, #-260]	; 0xfffffefc
     ef0:	0402001b 	streq	r0, [r2], #-27	; 0xffffffe5
     ef4:	05010601 	streq	r0, [r1, #-1537]	; 0xfffff9ff
     ef8:	04020007 	streq	r0, [r2], #-7
     efc:	1805d601 	stmdane	r5, {r0, r9, sl, ip, lr, pc}
     f00:	01040200 	mrseq	r0, R12_usr
     f04:	000a052e 	andeq	r0, sl, lr, lsr #10
     f08:	4a010402 	bmi	41f18 <__bss_end__+0x381a0>
     f0c:	02000b05 	andeq	r0, r0, #5120	; 0x1400
     f10:	2f060104 	svccs	0x00060104
     f14:	02000e05 	andeq	r0, r0, #80	; 0x50
     f18:	2e060104 	adfcss	f0, f6, f4
     f1c:	02000405 	andeq	r0, r0, #83886080	; 0x5000000
     f20:	062e0104 	strteq	r0, [lr], -r4, lsl #2
     f24:	0606054b 	streq	r0, [r6], -fp, asr #10
     f28:	06050501 	streq	r0, [r5], -r1, lsl #10
     f2c:	060a052f 	streq	r0, [sl], -pc, lsr #10
     f30:	4a070501 	bmi	1c233c <__bss_end__+0x1b85c4>
     f34:	030d052e 	movweq	r0, #54574	; 0xd52e
     f38:	054a2e76 	strbeq	r2, [sl, #-3702]	; 0xfffff18a
     f3c:	0d050d0b 	stceq	13, cr0, [r5, #-44]	; 0xffffffd4
     f40:	01040200 	mrseq	r0, R12_usr
     f44:	2e140306 	cdpcs	3, 1, cr0, cr4, cr6, {0}
     f48:	02001105 	andeq	r1, r0, #1073741825	; 0x40000001
     f4c:	05130104 	ldreq	r0, [r3, #-260]	; 0xfffffefc
     f50:	0402002d 	streq	r0, [r2], #-45	; 0xffffffd3
     f54:	05010601 	streq	r0, [r1, #-1537]	; 0xfffff9ff
     f58:	0402002a 	streq	r0, [r2], #-42	; 0xffffffd6
     f5c:	16052e01 	strne	r2, [r5], -r1, lsl #28
     f60:	01040200 	mrseq	r0, R12_usr
     f64:	0014054a 	andseq	r0, r4, sl, asr #10
     f68:	06010402 	streq	r0, [r1], -r2, lsl #8
     f6c:	000d054b 	andeq	r0, sp, fp, asr #10
     f70:	06010402 	streq	r0, [r1], -r2, lsl #8
     f74:	04020001 	streq	r0, [r2], #-1
     f78:	2f064a01 	svccs	0x00064a01
     f7c:	01061205 	tsteq	r6, r5, lsl #4
     f80:	060d054a 	streq	r0, [sp], -sl, asr #10
     f84:	0612052f 	ldreq	r0, [r2], -pc, lsr #10
     f88:	06190501 	ldreq	r0, [r9], -r1, lsl #10
     f8c:	0004054b 	andeq	r0, r4, fp, asr #10
     f90:	03020402 	movweq	r0, #9218	; 0x2402
     f94:	02000111 	andeq	r0, r0, #1073741828	; 0x40000004
     f98:	05010204 	streq	r0, [r1, #-516]	; 0xfffffdfc
     f9c:	04020002 	streq	r0, [r2], #-2
     fa0:	09051502 	stmdbeq	r5, {r1, r8, sl, ip}
     fa4:	02040200 	andeq	r0, r4, #0, 4
     fa8:	02000106 	andeq	r0, r0, #-2147483647	; 0x80000001
     fac:	054a0204 	strbeq	r0, [sl, #-516]	; 0xfffffdfc
     fb0:	04020001 	streq	r0, [r2], #-1
     fb4:	04059f02 	streq	r9, [r5], #-3842	; 0xfffff0fe
     fb8:	4a6e0306 	bmi	1b81bd8 <__bss_end__+0x1b77e60>
     fbc:	01060905 	tsteq	r6, r5, lsl #18
     fc0:	2f060405 	svccs	0x00060405
     fc4:	11060605 	tstne	r6, r5, lsl #12
     fc8:	052f0405 	streq	r0, [pc, #-1029]!	; bcb <__code_start__-0x7435>
     fcc:	2e63030b 	cdpcs	3, 6, cr0, cr3, cr11, {0}
     fd0:	02001905 	andeq	r1, r0, #81920	; 0x14000
     fd4:	03060104 	movweq	r0, #24836	; 0x6104
     fd8:	1a052e24 	bne	14c870 <__bss_end__+0x142af8>
     fdc:	01040200 	mrseq	r0, R12_usr
     fe0:	00280513 	eoreq	r0, r8, r3, lsl r5
     fe4:	06010402 	streq	r0, [r1], -r2, lsl #8
     fe8:	00250501 	eoreq	r0, r5, r1, lsl #10
     fec:	2e010402 	cdpcs	4, 0, cr0, cr1, cr2, {0}
     ff0:	02001f05 	andeq	r1, r0, #5, 30
     ff4:	054a0104 	strbeq	r0, [sl, #-260]	; 0xfffffefc
     ff8:	0402000b 	streq	r0, [r2], #-11
     ffc:	054b0601 	strbeq	r0, [fp, #-1537]	; 0xfffff9ff
    1000:	04020004 	streq	r0, [r2], #-4
    1004:	00010601 	andeq	r0, r1, r1, lsl #12
    1008:	4a010402 	bmi	42018 <__bss_end__+0x382a0>
    100c:	01040200 	mrseq	r0, R12_usr
    1010:	02004e06 	andeq	r4, r0, #96	; 0x60
    1014:	00010104 	andeq	r0, r1, r4, lsl #2
    1018:	01010402 	tsteq	r1, r2, lsl #8
    101c:	01040200 	mrseq	r0, R12_usr
    1020:	04020001 	streq	r0, [r2], #-1
    1024:	002e0601 	eoreq	r0, lr, r1, lsl #12
    1028:	66010402 	strvs	r0, [r1], -r2, lsl #8
    102c:	01040200 	mrseq	r0, R12_usr
    1030:	0402002e 	streq	r0, [r2], #-46	; 0xffffffd2
    1034:	054a0601 	strbeq	r0, [sl, #-1537]	; 0xfffff9ff
    1038:	7fa60348 	svcvc	0x00a60348
    103c:	05052008 	streq	r2, [r5, #-8]
    1040:	2e060113 	mcrcs	1, 0, r0, cr6, cr3, {0}
    1044:	02040200 	andeq	r0, r4, #0, 4
    1048:	02002e06 	andeq	r2, r0, #96	; 0x60
    104c:	00010204 	andeq	r0, r1, r4, lsl #4
    1050:	13020402 	movwne	r0, #9218	; 0x2402
    1054:	02001105 	andeq	r1, r0, #1073741825	; 0x40000001
    1058:	01060204 	tsteq	r6, r4, lsl #4
    105c:	02000505 	andeq	r0, r0, #20971520	; 0x1400000
    1060:	4b060204 	blmi	181878 <__bss_end__+0x177b00>
    1064:	02000705 	andeq	r0, r0, #1310720	; 0x140000
    1068:	01060204 	tsteq	r6, r4, lsl #4
    106c:	4b060905 	blmi	183488 <__bss_end__+0x179710>
    1070:	01060e05 	tsteq	r6, r5, lsl #28
    1074:	02004805 	andeq	r4, r0, #327680	; 0x50000
    1078:	05620104 	strbeq	r0, [r2, #-260]!	; 0xfffffefc
    107c:	04020005 	streq	r0, [r2], #-5
    1080:	004b0601 	subeq	r0, fp, r1, lsl #12
    1084:	01010402 	tsteq	r1, r2, lsl #8
    1088:	01040200 	mrseq	r0, R12_usr
    108c:	02009e06 	andeq	r9, r0, #96	; 0x60
    1090:	002e0104 	eoreq	r0, lr, r4, lsl #2
    1094:	06010402 	streq	r0, [r1], -r2, lsl #8
    1098:	0340052e 	movteq	r0, #1326	; 0x52e
    109c:	06d600e1 	ldrbeq	r0, [r6], r1, ror #1
    10a0:	06020501 	streq	r0, [r2], -r1, lsl #10
    10a4:	061e059f 			; <UNDEFINED> instruction: 0x061e059f
    10a8:	2e120501 	cfmul32cs	mvfx0, mvfx2, mvfx1
    10ac:	2f060505 	svccs	0x00060505
    10b0:	05140205 	ldreq	r0, [r4, #-517]	; 0xfffffdfb
    10b4:	05010609 	streq	r0, [r1, #-1545]	; 0xfffff9f7
    10b8:	054b0605 	strbeq	r0, [fp, #-1541]	; 0xfffff9fb
    10bc:	08051302 	stmdaeq	r5, {r1, r8, r9, ip}
    10c0:	02050d06 	andeq	r0, r5, #384	; 0x180
    10c4:	06040533 			; <UNDEFINED> instruction: 0x06040533
    10c8:	060f054c 	streq	r0, [pc], -ip, asr #10
    10cc:	2e090501 	cfsh32cs	mvfx0, mvfx9, #1
    10d0:	2c060805 	stccs	8, cr0, [r6], {5}
    10d4:	2e060205 	cdpcs	2, 0, cr0, cr6, cr5, {0}
    10d8:	02000d05 	andeq	r0, r0, #320	; 0x140
    10dc:	054a0104 	strbeq	r0, [sl, #-260]	; 0xfffffefc
    10e0:	054b0603 	strbeq	r0, [fp, #-1539]	; 0xfffff9fd
    10e4:	05010605 	streq	r0, [r1, #-1541]	; 0xfffff9fb
    10e8:	054d0608 	strbeq	r0, [sp, #-1544]	; 0xfffff9f8
    10ec:	0501060e 	streq	r0, [r1, #-1550]	; 0xfffff9f2
    10f0:	04052e0a 	streq	r2, [r5], #-3594	; 0xfffff1f6
    10f4:	09052f06 	stmdbeq	r5, {r1, r2, r8, r9, sl, fp, sp}
    10f8:	04050106 	streq	r0, [r5], #-262	; 0xfffffefa
    10fc:	07052f06 	streq	r2, [r5, -r6, lsl #30]
    1100:	052e0106 	streq	r0, [lr, #-262]!	; 0xfffffefa
    1104:	05300604 	ldreq	r0, [r0, #-1540]!	; 0xfffff9fc
    1108:	05010607 	streq	r0, [r1, #-1543]	; 0xfffff9f9
    110c:	13300604 	teqne	r0, #4, 12	; 0x400000
    1110:	060d0514 			; <UNDEFINED> instruction: 0x060d0514
    1114:	06090510 			; <UNDEFINED> instruction: 0x06090510
    1118:	06120530 			; <UNDEFINED> instruction: 0x06120530
    111c:	2e0a0501 	cfsh32cs	mvfx0, mvfx10, #1
    1120:	05660905 	strbeq	r0, [r6, #-2309]!	; 0xfffff6fb
    1124:	054b0605 	strbeq	r0, [fp, #-1541]	; 0xfffff9fb
    1128:	05010612 	streq	r0, [r1, #-1554]	; 0xfffff9ee
    112c:	0b052e16 	bleq	14c98c <__bss_end__+0x142c14>
    1130:	0605052e 	streq	r0, [r5], -lr, lsr #10
    1134:	0608052f 	streq	r0, [r8], -pc, lsr #10
    1138:	04052e01 	streq	r2, [r5], #-3585	; 0xfffff1ff
    113c:	4a013006 	bmi	4d15c <__bss_end__+0x433e4>
    1140:	02001501 	andeq	r1, r0, #4194304	; 0x400000
    1144:	36020104 	strcc	r0, [r2], -r4, lsl #2
    1148:	0402000f 	streq	r0, [r2], #-15
    114c:	02000101 	andeq	r0, r0, #1073741824	; 0x40000000
    1150:	05d60104 	ldrbeq	r0, [r6, #260]	; 0x104
    1154:	01133411 	tsteq	r3, r1, lsl r4
    1158:	02040200 	andeq	r0, r4, #0, 4
    115c:	0200ba06 	andeq	fp, r0, #24576	; 0x6000
    1160:	ba060304 	blt	181d78 <__bss_end__+0x178000>
    1164:	03040200 	movweq	r0, #16896	; 0x4200
    1168:	04020001 	streq	r0, [r2], #-1
    116c:	15051403 	strne	r1, [r5, #-1027]	; 0xfffffbfd
    1170:	03040200 	movweq	r0, #16896	; 0x4200
    1174:	11050106 	tstne	r5, r6, lsl #2
    1178:	03040200 	movweq	r0, #16896	; 0x4200
    117c:	1a052f06 	bne	14cd9c <__bss_end__+0x143024>
    1180:	03040200 	movweq	r0, #16896	; 0x4200
    1184:	11050106 	tstne	r5, r6, lsl #2
    1188:	03040200 	movweq	r0, #16896	; 0x4200
    118c:	0200d706 	andeq	sp, r0, #1572864	; 0x180000
    1190:	00130304 	andseq	r0, r3, r4, lsl #6
    1194:	14030402 	strne	r0, [r3], #-1026	; 0xfffffbfe
    1198:	03040200 	movweq	r0, #16896	; 0x4200
    119c:	04020067 	streq	r0, [r2], #-103	; 0xffffff99
    11a0:	14056803 	strne	r6, [r5], #-2051	; 0xfffff7fd
    11a4:	03040200 	movweq	r0, #16896	; 0x4200
    11a8:	13050106 	movwne	r0, #20742	; 0x5106
    11ac:	03040200 	movweq	r0, #16896	; 0x4200
    11b0:	06180582 	ldreq	r0, [r8], -r2, lsl #11
    11b4:	061b054e 	ldreq	r0, [fp], -lr, asr #10
    11b8:	821a0501 	andshi	r0, sl, #4194304	; 0x400000
    11bc:	4b060905 	blmi	1835d8 <__bss_end__+0x179860>
    11c0:	01060d05 	tsteq	r6, r5, lsl #26
    11c4:	0609052e 	streq	r0, [r9], -lr, lsr #10
    11c8:	05ba06f3 	ldreq	r0, [sl, #1779]!	; 0x6f3
    11cc:	05300615 	ldreq	r0, [r0, #-1557]!	; 0xfffff9eb
    11d0:	05010618 	streq	r0, [r1, #-1560]	; 0xfffff9e8
    11d4:	19056617 	stmdbne	r5, {r0, r1, r2, r4, r9, sl, sp, lr}
    11d8:	15054b06 	strne	r4, [r5, #-2822]	; 0xfffff4fa
    11dc:	666f0306 	strbtvs	r0, [pc], -r6, lsl #6
    11e0:	48061105 	stmdami	r6, {r0, r2, r8, ip}
    11e4:	0905d601 	stmdbeq	r5, {r0, r9, sl, ip, lr, pc}
    11e8:	052e0b03 	streq	r0, [lr, #-2819]!	; 0xfffff4fd
    11ec:	2e01060d 	cfmadd32cs	mvax0, mvfx0, mvfx1, mvfx13
    11f0:	f3060905 	vmls.i8	d0, d6, d5
    11f4:	1505ba06 	strne	fp, [r5, #-2566]	; 0xfffff5fa
    11f8:	03062f06 	movweq	r2, #28422	; 0x6f06
    11fc:	19056675 	stmdbne	r5, {r0, r2, r4, r5, r6, r9, sl, sp, lr}
    1200:	4a130306 	bmi	4c1e20 <__bss_end__+0x4b80a8>
    1204:	03061505 	movweq	r1, #25861	; 0x6505
    1208:	0306666d 	movweq	r6, #26221	; 0x666d
    120c:	ba014a15 	blt	53a68 <__bss_end__+0x49cf0>
    1210:	05052e06 	streq	r2, [r5, #-3590]	; 0xfffff1fa
    1214:	9e011a06 	vmlals.f32	s2, s2, s12
    1218:	010e032e 	tsteq	lr, lr, lsr #6
    121c:	01060905 	tsteq	r6, r5, lsl #18
    1220:	08060505 	stmdaeq	r6, {r0, r2, r8, sl}
    1224:	03040575 	movweq	r0, #17781	; 0x4575
    1228:	07050118 	smladeq	r5, r8, r1, r0
    122c:	04050106 	streq	r0, [r5], #-262	; 0xfffffefa
    1230:	05053106 	streq	r3, [r5, #-262]	; 0xfffffefa
    1234:	052e6703 	streq	r6, [lr, #-1795]!	; 0xfffff8fd
    1238:	0501061c 	streq	r0, [r1, #-1564]	; 0xfffff9e4
    123c:	05058209 	streq	r8, [r5, #-521]	; 0xfffffdf7
    1240:	0531f306 	ldreq	pc, [r1, #-774]!	; 0xfffffcfa
    1244:	0501061c 	streq	r0, [r1, #-1564]	; 0xfffff9e4
    1248:	05058209 	streq	r8, [r5, #-521]	; 0xfffffdf7
    124c:	0530f306 	ldreq	pc, [r0, #-774]!	; 0xfffffcfa
    1250:	0501061b 	streq	r0, [r1, #-1563]	; 0xfffff9e5
    1254:	05058209 	streq	r8, [r5, #-521]	; 0xfffffdf7
    1258:	0530f306 	ldreq	pc, [r0, #-774]!	; 0xfffffcfa
    125c:	05010607 	streq	r0, [r1, #-1543]	; 0xfffff9f9
    1260:	30830605 	addcc	r0, r3, r5, lsl #12
    1264:	01060905 	tsteq	r6, r5, lsl #18
    1268:	08060505 	stmdaeq	r6, {r0, r2, r8, sl}
    126c:	30110575 	andscc	r0, r1, r5, ror r5
    1270:	01062205 	tsteq	r6, r5, lsl #4
    1274:	4b060505 	blmi	182690 <__bss_end__+0x178918>
    1278:	05831105 	streq	r1, [r3, #261]	; 0x105
    127c:	9e018305 	cdpls	3, 0, cr8, cr1, cr5, {0}
    1280:	060e0535 			; <UNDEFINED> instruction: 0x060e0535
    1284:	2e0a0501 	cfsh32cs	mvfx0, mvfx10, #1
    1288:	04052d06 	streq	r2, [r5], #-3334	; 0xfffff2fa
    128c:	13050106 	movwne	r0, #20742	; 0x5106
    1290:	01040200 	mrseq	r0, R12_usr
    1294:	0010054a 	andseq	r0, r0, sl, asr #10
    1298:	2e010402 	cdpcs	4, 0, cr0, cr1, cr2, {0}
    129c:	01040200 	mrseq	r0, R12_usr
    12a0:	06020566 	streq	r0, [r2], -r6, ror #10
    12a4:	06070516 			; <UNDEFINED> instruction: 0x06070516
    12a8:	06020501 	streq	r0, [r2], -r1, lsl #10
    12ac:	0601054b 	streq	r0, [r1], -fp, asr #10
    12b0:	1e026613 	mcrne	6, 0, r6, cr2, cr3, {0}
    12b4:	c3010100 	movwgt	r0, #4352	; 0x1100
    12b8:	03000000 	movweq	r0, #0
    12bc:	00008200 	andeq	r8, r0, r0, lsl #4
    12c0:	fb010200 	blx	41aca <__bss_end__+0x37d52>
    12c4:	01000d0e 	tsteq	r0, lr, lsl #26
    12c8:	00010101 	andeq	r0, r1, r1, lsl #2
    12cc:	00010000 	andeq	r0, r1, r0
    12d0:	2f2e0100 	svccs	0x002e0100
    12d4:	66617473 			; <UNDEFINED> instruction: 0x66617473
    12d8:	72732d66 	rsbsvc	r2, r3, #6528	; 0x1980
    12dc:	552f0063 	strpl	r0, [pc, #-99]!	; 1281 <__code_start__-0x6d7f>
    12e0:	73726573 	cmnvc	r2, #482344960	; 0x1cc00000
    12e4:	6972652f 	ldmdbvs	r2!, {r0, r1, r2, r3, r5, r8, sl, sp, lr}^
    12e8:	61656263 	cmnvs	r5, r3, ror #4
    12ec:	6f442f72 	svcvs	0x00442f72
    12f0:	656d7563 	strbvs	r7, [sp, #-1379]!	; 0xfffffa9d
    12f4:	2f73746e 	svccs	0x0073746e
    12f8:	34315343 	ldrtcc	r5, [r1], #-835	; 0xfffffcbd
    12fc:	632f4530 			; <UNDEFINED> instruction: 0x632f4530
    1300:	30343173 	eorscc	r3, r4, r3, ror r1
    1304:	69662d45 	stmdbvs	r6!, {r0, r2, r6, r8, sl, fp, sp}^
    1308:	2d6c616e 	stfcse	f6, [ip, #-440]!	; 0xfffffe48
    130c:	6a6f7270 	bvs	1bddcd4 <__bss_end__+0x1bd3f5c>
    1310:	2f746365 	svccs	0x00746365
    1314:	7362696c 	cmnvc	r2, #108, 18	; 0x1b0000
    1318:	3034322d 	eorscc	r3, r4, sp, lsr #4
    131c:	6c2f786c 	stcvs	8, cr7, [pc], #-432	; 1174 <__code_start__-0x6e8c>
    1320:	69706269 	ldmdbvs	r0!, {r0, r3, r5, r6, r9, sp, lr}^
    1324:	636e692f 	cmnvs	lr, #770048	; 0xbc000
    1328:	6564756c 	strbvs	r7, [r4, #-1388]!	; 0xfffffa94
    132c:	61630000 	cmnvs	r3, r0
    1330:	2e656863 	cdpcs	8, 6, cr6, cr5, cr3, {3}
    1334:	00010063 	andeq	r0, r1, r3, rrx
    1338:	69707200 	ldmdbvs	r0!, {r9, ip, sp, lr}^
    133c:	0200682e 	andeq	r6, r0, #3014656	; 0x2e0000
    1340:	05000000 	streq	r0, [r0, #-0]
    1344:	02050019 	andeq	r0, r5, #25, 0
    1348:	00008c5c 	andeq	r8, r0, ip, asr ip
    134c:	13050514 	movwne	r0, #21780	; 0x5514
    1350:	2f020513 	svccs	0x00020513
    1354:	06040513 			; <UNDEFINED> instruction: 0x06040513
    1358:	06050501 	streq	r0, [r5], -r1, lsl #10
    135c:	0601052f 	streq	r0, [r1], -pc, lsr #10
    1360:	061a052f 	ldreq	r0, [sl], -pc, lsr #10
    1364:	13050531 	movwne	r0, #21809	; 0x5531
    1368:	30020513 	andcc	r0, r2, r3, lsl r5
    136c:	06040513 			; <UNDEFINED> instruction: 0x06040513
    1370:	06050501 	streq	r0, [r5], -r1, lsl #10
    1374:	0601052f 	streq	r0, [r1], -pc, lsr #10
    1378:	0002022f 	andeq	r0, r2, pc, lsr #4
    137c:	00a40101 	adceq	r0, r4, r1, lsl #2
    1380:	00030000 	andeq	r0, r3, r0
    1384:	00000089 	andeq	r0, r0, r9, lsl #1
    1388:	0efb0102 	cdpeq	1, 15, cr0, cr11, cr2, {0}
    138c:	0101000d 	tsteq	r1, sp
    1390:	00000101 	andeq	r0, r0, r1, lsl #2
    1394:	00000100 	andeq	r0, r0, r0, lsl #2
    1398:	732f2e01 			; <UNDEFINED> instruction: 0x732f2e01
    139c:	66666174 			; <UNDEFINED> instruction: 0x66666174
    13a0:	6372732d 	cmnvs	r2, #-1275068416	; 0xb4000000
    13a4:	73552f00 	cmpvc	r5, #0, 30
    13a8:	2f737265 	svccs	0x00737265
    13ac:	63697265 	cmnvs	r9, #1342177286	; 0x50000006
    13b0:	72616562 	rsbvc	r6, r1, #411041792	; 0x18800000
    13b4:	636f442f 	cmnvs	pc, #788529152	; 0x2f000000
    13b8:	6e656d75 	mcrvs	13, 3, r6, cr5, cr5, {3}
    13bc:	432f7374 			; <UNDEFINED> instruction: 0x432f7374
    13c0:	30343153 	eorscc	r3, r4, r3, asr r1
    13c4:	73632f45 	cmnvc	r3, #276	; 0x114
    13c8:	45303431 	ldrmi	r3, [r0, #-1073]!	; 0xfffffbcf
    13cc:	6e69662d 	cdpvs	6, 6, cr6, cr9, cr13, {1}
    13d0:	702d6c61 	eorvc	r6, sp, r1, ror #24
    13d4:	656a6f72 	strbvs	r6, [sl, #-3954]!	; 0xfffff08e
    13d8:	6c2f7463 	cfstrsvs	mvf7, [pc], #-396	; 1254 <__code_start__-0x6dac>
    13dc:	2d736269 	lfmcs	f6, 2, [r3, #-420]!	; 0xfffffe5c
    13e0:	6c303432 	cfldrsvs	mvf3, [r0], #-200	; 0xffffff38
    13e4:	696c2f78 	stmdbvs	ip!, {r3, r4, r5, r6, r8, r9, sl, fp, sp}^
    13e8:	2f697062 	svccs	0x00697062
    13ec:	6c636e69 	stclvs	14, cr6, [r3], #-420	; 0xfffffe5c
    13f0:	00656475 	rsbeq	r6, r5, r5, ror r4
    13f4:	656c6300 	strbvs	r6, [ip, #-768]!	; 0xfffffd00
    13f8:	722d6e61 	eorvc	r6, sp, #1552	; 0x610
    13fc:	6f6f6265 	svcvs	0x006f6265
    1400:	00632e74 	rsbeq	r2, r3, r4, ror lr
    1404:	72000001 	andvc	r0, r0, #1, 0
    1408:	682e6970 	stmdavs	lr!, {r4, r5, r6, r8, fp, sp, lr}
    140c:	00000200 	andeq	r0, r0, r0, lsl #4
    1410:	00190500 	andseq	r0, r9, r0, lsl #10
    1414:	8c7c0205 	lfmhi	f0, 2, [ip], #-20	; 0xffffffec
    1418:	05150000 	ldreq	r0, [r5, #-0]
    141c:	2f832f05 	svccs	0x00832f05
    1420:	0006024b 	andeq	r0, r6, fp, asr #4
    1424:	00be0101 	adcseq	r0, lr, r1, lsl #2
    1428:	00030000 	andeq	r0, r3, r0
    142c:	00000083 	andeq	r0, r0, r3, lsl #1
    1430:	0efb0102 	cdpeq	1, 15, cr0, cr11, cr2, {0}
    1434:	0101000d 	tsteq	r1, sp
    1438:	00000101 	andeq	r0, r0, r1, lsl #2
    143c:	00000100 	andeq	r0, r0, r0, lsl #2
    1440:	732f2e01 			; <UNDEFINED> instruction: 0x732f2e01
    1444:	66666174 			; <UNDEFINED> instruction: 0x66666174
    1448:	6372732d 	cmnvs	r2, #-1275068416	; 0xb4000000
    144c:	73552f00 	cmpvc	r5, #0, 30
    1450:	2f737265 	svccs	0x00737265
    1454:	63697265 	cmnvs	r9, #1342177286	; 0x50000006
    1458:	72616562 	rsbvc	r6, r1, #411041792	; 0x18800000
    145c:	636f442f 	cmnvs	pc, #788529152	; 0x2f000000
    1460:	6e656d75 	mcrvs	13, 3, r6, cr5, cr5, {3}
    1464:	432f7374 			; <UNDEFINED> instruction: 0x432f7374
    1468:	30343153 	eorscc	r3, r4, r3, asr r1
    146c:	73632f45 	cmnvc	r3, #276	; 0x114
    1470:	45303431 	ldrmi	r3, [r0, #-1073]!	; 0xfffffbcf
    1474:	6e69662d 	cdpvs	6, 6, cr6, cr9, cr13, {1}
    1478:	702d6c61 	eorvc	r6, sp, r1, ror #24
    147c:	656a6f72 	strbvs	r6, [sl, #-3954]!	; 0xfffff08e
    1480:	6c2f7463 	cfstrsvs	mvf7, [pc], #-396	; 12fc <__code_start__-0x6d04>
    1484:	2d736269 	lfmcs	f6, 2, [r3, #-420]!	; 0xfffffe5c
    1488:	6c303432 	cfldrsvs	mvf3, [r0], #-200	; 0xffffff38
    148c:	696c2f78 	stmdbvs	ip!, {r3, r4, r5, r6, r8, r9, sl, fp, sp}^
    1490:	2f697062 	svccs	0x00697062
    1494:	6c636e69 	stclvs	14, cr6, [r3], #-420	; 0xfffffe5c
    1498:	00656475 	rsbeq	r6, r5, r5, ror r4
    149c:	74736300 	ldrbtvc	r6, [r3], #-768	; 0xfffffd00
    14a0:	2e747261 	cdpcs	2, 7, cr7, cr4, cr1, {3}
    14a4:	00010063 	andeq	r0, r1, r3, rrx
    14a8:	69707200 	ldmdbvs	r0!, {r9, ip, sp, lr}^
    14ac:	0200682e 	andeq	r6, r0, #3014656	; 0x2e0000
    14b0:	05000000 	streq	r0, [r0, #-0]
    14b4:	02050010 	andeq	r0, r5, #16, 0
    14b8:	00008ca8 	andeq	r8, r0, r8, lsr #25
    14bc:	2f050515 	svccs	0x00050515
    14c0:	05130205 	ldreq	r0, [r3, #-517]	; 0xfffffdfb
    14c4:	13301405 	teqne	r0, #83886080	; 0x5000000
    14c8:	060a0514 			; <UNDEFINED> instruction: 0x060a0514
    14cc:	0531060f 	ldreq	r0, [r1, #-1551]!	; 0xfffff9f1
    14d0:	10054b09 	andne	r4, r5, r9, lsl #22
    14d4:	054a0106 	strbeq	r0, [sl, #-262]	; 0xfffffefa
    14d8:	32300605 	eorscc	r0, r0, #5242880	; 0x500000
    14dc:	144a0101 	strbne	r0, [sl], #-257	; 0xfffffeff
    14e0:	022f0205 	eoreq	r0, pc, #1342177280	; 0x50000000
    14e4:	01010006 	tsteq	r1, r6
    14e8:	000000a2 	andeq	r0, r0, r2, lsr #1
    14ec:	008a0003 	addeq	r0, sl, r3
    14f0:	01020000 	mrseq	r0, (UNDEF: 2)
    14f4:	000d0efb 	strdeq	r0, [sp], -fp
    14f8:	01010101 	tsteq	r1, r1, lsl #2
    14fc:	01000000 	mrseq	r0, (UNDEF: 0)
    1500:	2e010000 	cdpcs	0, 0, cr0, cr1, cr0, {0}
    1504:	6174732f 	cmnvs	r4, pc, lsr #6
    1508:	732d6666 			; <UNDEFINED> instruction: 0x732d6666
    150c:	2f006372 	svccs	0x00006372
    1510:	72657355 	rsbvc	r7, r5, #1409286145	; 0x54000001
    1514:	72652f73 	rsbvc	r2, r5, #460	; 0x1cc
    1518:	65626369 	strbvs	r6, [r2, #-873]!	; 0xfffffc97
    151c:	442f7261 	strtmi	r7, [pc], #-609	; 1524 <__code_start__-0x6adc>
    1520:	6d75636f 	ldclvs	3, cr6, [r5, #-444]!	; 0xfffffe44
    1524:	73746e65 	cmnvc	r4, #1616	; 0x650
    1528:	3153432f 	cmpcc	r3, pc, lsr #6
    152c:	2f453034 	svccs	0x00453034
    1530:	34317363 	ldrtcc	r7, [r1], #-867	; 0xfffffc9d
    1534:	662d4530 			; <UNDEFINED> instruction: 0x662d4530
    1538:	6c616e69 	stclvs	14, cr6, [r1], #-420	; 0xfffffe5c
    153c:	6f72702d 	svcvs	0x0072702d
    1540:	7463656a 	strbtvc	r6, [r3], #-1386	; 0xfffffa96
    1544:	62696c2f 	rsbvs	r6, r9, #12032	; 0x2f00
    1548:	34322d73 	ldrtcc	r2, [r2], #-3443	; 0xfffff28d
    154c:	2f786c30 	svccs	0x00786c30
    1550:	7062696c 	rsbvc	r6, r2, ip, ror #18
    1554:	6e692f69 	cdpvs	15, 6, cr2, cr9, cr9, {3}
    1558:	64756c63 	ldrbtvs	r6, [r5], #-3171	; 0xfffff39d
    155c:	63000065 	movwvs	r0, #101	; 0x65
    1560:	6f747375 	svcvs	0x00747375
    1564:	6f6c2d6d 	svcvs	0x006c2d6d
    1568:	72656461 	rsbvc	r6, r5, #1627389952	; 0x61000000
    156c:	0100632e 	tsteq	r0, lr, lsr #6
    1570:	70720000 	rsbsvc	r0, r2, r0
    1574:	00682e69 	rsbeq	r2, r8, r9, ror #28
    1578:	00000002 	andeq	r0, r0, r2
    157c:	05001a05 	streq	r1, [r0, #-2565]	; 0xfffff5fb
    1580:	008ce402 	addeq	lr, ip, r2, lsl #8
    1584:	01051500 	tsteq	r5, r0, lsl #10
    1588:	00020214 	andeq	r0, r2, r4, lsl r2
    158c:	00f20101 	rscseq	r0, r2, r1, lsl #2
    1590:	00030000 	andeq	r0, r3, r0
    1594:	00000083 	andeq	r0, r0, r3, lsl #1
    1598:	0efb0102 	cdpeq	1, 15, cr0, cr11, cr2, {0}
    159c:	0101000d 	tsteq	r1, sp
    15a0:	00000101 	andeq	r0, r0, r1, lsl #2
    15a4:	00000100 	andeq	r0, r0, r0, lsl #2
    15a8:	732f2e01 			; <UNDEFINED> instruction: 0x732f2e01
    15ac:	66666174 			; <UNDEFINED> instruction: 0x66666174
    15b0:	6372732d 	cmnvs	r2, #-1275068416	; 0xb4000000
    15b4:	73552f00 	cmpvc	r5, #0, 30
    15b8:	2f737265 	svccs	0x00737265
    15bc:	63697265 	cmnvs	r9, #1342177286	; 0x50000006
    15c0:	72616562 	rsbvc	r6, r1, #411041792	; 0x18800000
    15c4:	636f442f 	cmnvs	pc, #788529152	; 0x2f000000
    15c8:	6e656d75 	mcrvs	13, 3, r6, cr5, cr5, {3}
    15cc:	432f7374 			; <UNDEFINED> instruction: 0x432f7374
    15d0:	30343153 	eorscc	r3, r4, r3, asr r1
    15d4:	73632f45 	cmnvc	r3, #276	; 0x114
    15d8:	45303431 	ldrmi	r3, [r0, #-1073]!	; 0xfffffbcf
    15dc:	6e69662d 	cdpvs	6, 6, cr6, cr9, cr13, {1}
    15e0:	702d6c61 	eorvc	r6, sp, r1, ror #24
    15e4:	656a6f72 	strbvs	r6, [sl, #-3954]!	; 0xfffff08e
    15e8:	6c2f7463 	cfstrsvs	mvf7, [pc], #-396	; 1464 <__code_start__-0x6b9c>
    15ec:	2d736269 	lfmcs	f6, 2, [r3, #-420]!	; 0xfffffe5c
    15f0:	6c303432 	cfldrsvs	mvf3, [r0], #-200	; 0xffffff38
    15f4:	696c2f78 	stmdbvs	ip!, {r3, r4, r5, r6, r8, r9, sl, fp, sp}^
    15f8:	2f697062 	svccs	0x00697062
    15fc:	6c636e69 	stclvs	14, cr6, [r3], #-420	; 0xfffffe5c
    1600:	00656475 	rsbeq	r6, r5, r5, ror r4
    1604:	62657200 	rsbvs	r7, r5, #0, 4
    1608:	2e746f6f 	cdpcs	15, 7, cr6, cr4, cr15, {3}
    160c:	00010063 	andeq	r0, r1, r3, rrx
    1610:	69707200 	ldmdbvs	r0!, {r9, ip, sp, lr}^
    1614:	0200682e 	andeq	r6, r0, #3014656	; 0x2e0000
    1618:	05000000 	streq	r0, [r0, #-0]
    161c:	02050019 	andeq	r0, r5, #25, 0
    1620:	00008ce8 	andeq	r8, r0, r8, ror #25
    1624:	05010d03 	streq	r0, [r1, #-3331]	; 0xfffff2fd
    1628:	31131305 	tstcc	r3, r5, lsl #6
    162c:	01061305 	tsteq	r6, r5, lsl #6
    1630:	052f0105 	streq	r0, [pc, #-261]!	; 1533 <__code_start__-0x6acd>
    1634:	0585061b 	streq	r0, [r5, #1563]	; 0x61b
    1638:	05141305 	ldreq	r1, [r4, #-773]	; 0xfffffcfb
    163c:	16052f09 	strne	r2, [r5], -r9, lsl #30
    1640:	0e050106 	adfeqs	f0, f5, f6
    1644:	0605052e 	streq	r0, [r5], -lr, lsr #10
    1648:	0601052f 	streq	r0, [r1], -pc, lsr #10
    164c:	0617052f 	ldreq	r0, [r7], -pc, lsr #10
    1650:	2f050530 	svccs	0x00050530
    1654:	01060805 	tsteq	r6, r5, lsl #16
    1658:	052e0705 	streq	r0, [lr, #-1797]!	; 0xfffff8fb
    165c:	30500605 	subscc	r0, r0, r5, lsl #12
    1660:	13134d2f 	tstne	r3, #3008	; 0xbc0
    1664:	00671513 	rsbeq	r1, r7, r3, lsl r5
    1668:	67010402 	strvs	r0, [r1, -r2, lsl #8]
    166c:	02000d05 	andeq	r0, r0, #320	; 0x140
    1670:	05010104 	streq	r0, [r1, #-260]	; 0xfffffefc
    1674:	0402000a 	streq	r0, [r2], #-10
    1678:	09050101 	stmdbeq	r5, {r0, r8}
    167c:	022e6d03 	eoreq	r6, lr, #192	; 0xc0
    1680:	0101000c 	tsteq	r1, ip
    1684:	000000f9 	strdeq	r0, [r0], -r9
    1688:	00820003 	addeq	r0, r2, r3
    168c:	01020000 	mrseq	r0, (UNDEF: 2)
    1690:	000d0efb 	strdeq	r0, [sp], -fp
    1694:	01010101 	tsteq	r1, r1, lsl #2
    1698:	01000000 	mrseq	r0, (UNDEF: 0)
    169c:	2e010000 	cdpcs	0, 0, cr0, cr1, cr0, {0}
    16a0:	6174732f 	cmnvs	r4, pc, lsr #6
    16a4:	732d6666 			; <UNDEFINED> instruction: 0x732d6666
    16a8:	2f006372 	svccs	0x00006372
    16ac:	72657355 	rsbvc	r7, r5, #1409286145	; 0x54000001
    16b0:	72652f73 	rsbvc	r2, r5, #460	; 0x1cc
    16b4:	65626369 	strbvs	r6, [r2, #-873]!	; 0xfffffc97
    16b8:	442f7261 	strtmi	r7, [pc], #-609	; 16c0 <__code_start__-0x6940>
    16bc:	6d75636f 	ldclvs	3, cr6, [r5, #-444]!	; 0xfffffe44
    16c0:	73746e65 	cmnvc	r4, #1616	; 0x650
    16c4:	3153432f 	cmpcc	r3, pc, lsr #6
    16c8:	2f453034 	svccs	0x00453034
    16cc:	34317363 	ldrtcc	r7, [r1], #-867	; 0xfffffc9d
    16d0:	662d4530 			; <UNDEFINED> instruction: 0x662d4530
    16d4:	6c616e69 	stclvs	14, cr6, [r1], #-420	; 0xfffffe5c
    16d8:	6f72702d 	svcvs	0x0072702d
    16dc:	7463656a 	strbtvc	r6, [r3], #-1386	; 0xfffffa96
    16e0:	62696c2f 	rsbvs	r6, r9, #12032	; 0x2f00
    16e4:	34322d73 	ldrtcc	r2, [r2], #-3443	; 0xfffff28d
    16e8:	2f786c30 	svccs	0x00786c30
    16ec:	7062696c 	rsbvc	r6, r2, ip, ror #18
    16f0:	6e692f69 	cdpvs	15, 6, cr2, cr9, cr9, {3}
    16f4:	64756c63 	ldrbtvs	r6, [r5], #-3171	; 0xfffff39d
    16f8:	74000065 	strvc	r0, [r0], #-101	; 0xffffff9b
    16fc:	72656d69 	rsbvc	r6, r5, #6720	; 0x1a40
    1700:	0100632e 	tsteq	r0, lr, lsr #6
    1704:	70720000 	rsbsvc	r0, r2, r0
    1708:	00682e69 	rsbeq	r2, r8, r9, ror #28
    170c:	00000002 	andeq	r0, r0, r2
    1710:	05002305 	streq	r2, [r0, #-773]	; 0xfffffcfb
    1714:	008d6802 	addeq	r6, sp, r2, lsl #16
    1718:	05051500 	streq	r1, [r5, #-1280]	; 0xfffffb00
    171c:	060c052f 	streq	r0, [ip], -pc, lsr #10
    1720:	4b010501 	blmi	42b2c <__bss_end__+0x38db4>
    1724:	4d061f05 	stcmi	15, cr1, [r6, #-20]	; 0xffffffec
    1728:	2f310505 	svccs	0x00310505
    172c:	01061205 	tsteq	r6, r5, lsl #4
    1730:	4b060505 	blmi	182b4c <__bss_end__+0x178dd4>
    1734:	0601052f 	streq	r0, [r1], -pc, lsr #10
    1738:	061c0513 			; <UNDEFINED> instruction: 0x061c0513
    173c:	0501064c 	streq	r0, [r1, #-1612]	; 0xfffff9b4
    1740:	054b0605 	strbeq	r0, [fp, #-1541]	; 0xfffff9fb
    1744:	2e010613 	mcrcs	6, 0, r0, cr1, cr3, {0}
    1748:	2f060505 	svccs	0x00060505
    174c:	05130905 	ldreq	r0, [r3, #-2309]	; 0xfffff6fb
    1750:	05010617 	streq	r0, [r1, #-1559]	; 0xfffff9e9
    1754:	052f0609 	streq	r0, [pc, #-1545]!	; 1153 <__code_start__-0x6ead>
    1758:	05010611 	streq	r0, [r1, #-1553]	; 0xfffff9ef
    175c:	1c052e0c 	stcne	14, cr2, [r5], {12}
    1760:	01066b06 	tsteq	r6, r6, lsl #22
    1764:	2f060505 	svccs	0x00060505
    1768:	01054a06 	tsteq	r5, r6, lsl #20
    176c:	061e054b 	ldreq	r0, [lr], -fp, asr #10
    1770:	0501062f 	streq	r0, [r1, #-1583]	; 0xfffff9d1
    1774:	062f0605 	strteq	r0, [pc], -r5, lsl #12
    1778:	4b01054a 	blmi	42ca8 <__bss_end__+0x38f30>
    177c:	01000202 	tsteq	r0, r2, lsl #4
    1780:	0001bb01 	andeq	fp, r1, r1, lsl #22
    1784:	bf000300 	svclt	0x00000300
    1788:	02000000 	andeq	r0, r0, #0, 0
    178c:	0d0efb01 	vstreq	d15, [lr, #-4]
    1790:	01010100 	mrseq	r0, (UNDEF: 17)
    1794:	00000001 	andeq	r0, r0, r1
    1798:	01000001 	tsteq	r0, r1
    179c:	6d6f682f 	stclvs	8, cr6, [pc, #-188]!	; 16e8 <__code_start__-0x6918>
    17a0:	6e652f65 	cdpvs	15, 6, cr2, cr5, cr5, {3}
    17a4:	72656c67 	rsbvc	r6, r5, #26368	; 0x6700
    17a8:	616c632f 	cmnvs	ip, pc, lsr #6
    17ac:	632f7373 			; <UNDEFINED> instruction: 0x632f7373
    17b0:	30343273 	eorscc	r3, r4, r3, ror r2
    17b4:	322d786c 	eorcc	r7, sp, #108, 16	; 0x6c0000
    17b8:	72707332 	rsbsvc	r7, r0, #-939524096	; 0xc8000000
    17bc:	696c2f2f 	stmdbvs	ip!, {r0, r1, r2, r3, r5, r8, r9, sl, fp, sp}^
    17c0:	2f697062 	svccs	0x00697062
    17c4:	6c636e69 	stclvs	14, cr6, [r3], #-420	; 0xfffffe5c
    17c8:	00656475 	rsbeq	r6, r5, r5, ror r4
    17cc:	7273752f 	rsbsvc	r7, r3, #197132288	; 0xbc00000
    17d0:	6168732f 	cmnvs	r8, pc, lsr #6
    17d4:	672f6572 			; <UNDEFINED> instruction: 0x672f6572
    17d8:	612d6363 			; <UNDEFINED> instruction: 0x612d6363
    17dc:	6e2d6d72 	mcrvs	13, 1, r6, cr13, cr2, {3}
    17e0:	2d656e6f 	stclcs	14, cr6, [r5, #-444]!	; 0xfffffe44
    17e4:	69626165 	stmdbvs	r2!, {r0, r2, r5, r6, r8, sp, lr}^
    17e8:	2e30312d 	rsfcssp	f3, f0, #5.0
    17ec:	30322d33 	eorscc	r2, r2, r3, lsr sp
    17f0:	312e3132 			; <UNDEFINED> instruction: 0x312e3132
    17f4:	696c2f30 	stmdbvs	ip!, {r4, r5, r8, r9, sl, fp, sp}^
    17f8:	63672f62 	cmnvs	r7, #392	; 0x188
    17fc:	72612f63 	rsbvc	r2, r1, #396	; 0x18c
    1800:	6f6e2d6d 	svcvs	0x006e2d6d
    1804:	652d656e 	strvs	r6, [sp, #-1390]!	; 0xfffffa92
    1808:	2f696261 	svccs	0x00696261
    180c:	332e3031 			; <UNDEFINED> instruction: 0x332e3031
    1810:	692f312e 	stmdbvs	pc!, {r1, r2, r3, r5, r8, ip, sp}	; <UNPREDICTABLE>
    1814:	756c636e 	strbvc	r6, [ip, #-878]!	; 0xfffffc92
    1818:	00006564 	andeq	r6, r0, r4, ror #10
    181c:	6f697067 	svcvs	0x00697067
    1820:	0000632e 	andeq	r6, r0, lr, lsr #6
    1824:	70720000 	rsbsvc	r0, r2, r0
    1828:	00682e69 	rsbeq	r2, r8, r9, ror #28
    182c:	73000001 	movwvc	r0, #1
    1830:	6e696474 	mcrvs	4, 3, r6, cr9, cr4, {3}
    1834:	63672d74 	cmnvs	r7, #116, 26	; 0x1d00
    1838:	00682e63 	rsbeq	r2, r8, r3, ror #28
    183c:	67000002 	strvs	r0, [r0, -r2]
    1840:	2e6f6970 			; <UNDEFINED> instruction: 0x2e6f6970
    1844:	00010068 	andeq	r0, r1, r8, rrx
    1848:	38050000 	stmdacc	r5, {}	; <UNPREDICTABLE>
    184c:	ec020500 	cfstr32	mvfx0, [r2], {-0}
    1850:	0300008d 	movweq	r0, #141	; 0x8d
    1854:	05050127 	streq	r0, [r5, #-295]	; 0xfffffed9
    1858:	06070513 			; <UNDEFINED> instruction: 0x06070513
    185c:	49380501 	ldmdbmi	r8!, {r0, r8, sl}
    1860:	4d060505 	cfstr32mi	mvfx0, [r6, #-20]	; 0xffffffec
    1864:	01060705 	tsteq	r6, r5, lsl #14
    1868:	4c060505 	cfstr32mi	mvfx0, [r6], {5}
    186c:	01061805 	tsteq	r6, r5, lsl #16
    1870:	05ba0e05 	ldreq	r0, [sl, #3589]!	; 0xe05
    1874:	052f0605 	streq	r0, [pc, #-1541]!	; 1277 <__code_start__-0x6d89>
    1878:	2e01061c 	mcrcs	6, 0, r0, cr1, cr12, {0}
    187c:	052e0e05 	streq	r0, [lr, #-3589]!	; 0xfffff1fb
    1880:	05300605 	ldreq	r0, [r0, #-1541]!	; 0xfffff9fb
    1884:	05010612 	streq	r0, [r1, #-1554]	; 0xfffff9ee
    1888:	054b0605 	strbeq	r0, [fp, #-1541]	; 0xfffff9fb
    188c:	05010607 	streq	r0, [r1, #-1543]	; 0xfffff9f9
    1890:	134b0605 	movtne	r0, #46597	; 0xb605
    1894:	01052e06 	tsteq	r5, r6, lsl #28
    1898:	0624054b 	strteq	r0, [r4], -fp, asr #10
    189c:	0501064c 	streq	r0, [r1, #-1612]	; 0xfffff9b4
    18a0:	052f0605 	streq	r0, [pc, #-1541]!	; 12a3 <__code_start__-0x6d5d>
    18a4:	054b0601 	strbeq	r0, [fp, #-1537]	; 0xfffff9ff
    18a8:	05310620 	ldreq	r0, [r1, #-1568]!	; 0xfffff9e0
    18ac:	07051305 	streq	r1, [r5, -r5, lsl #6]
    18b0:	20050106 	andcs	r0, r5, r6, lsl #2
    18b4:	06050549 	streq	r0, [r5], -r9, asr #10
    18b8:	05660631 	strbeq	r0, [r6, #-1585]!	; 0xfffff9cf
    18bc:	21052f01 	tstcs	r5, r1, lsl #30
    18c0:	05054d06 	streq	r4, [r5, #-3334]	; 0xfffff2fa
    18c4:	06070513 			; <UNDEFINED> instruction: 0x06070513
    18c8:	49210501 	stmdbmi	r1!, {r0, r8, sl}
    18cc:	31060505 	tstcc	r6, r5, lsl #10
    18d0:	01056606 	tsteq	r5, r6, lsl #12
    18d4:	0623052f 	strteq	r0, [r3], -pc, lsr #10
    18d8:	0501064d 	streq	r0, [r1, #-1613]	; 0xfffff9b3
    18dc:	052f0605 	streq	r0, [pc, #-1541]!	; 12df <__code_start__-0x6d21>
    18e0:	054b0601 	strbeq	r0, [fp, #-1537]	; 0xfffff9ff
    18e4:	0631062b 	ldrteq	r0, [r1], -fp, lsr #12
    18e8:	06050501 	streq	r0, [r5], -r1, lsl #10
    18ec:	0607052f 	streq	r0, [r7], -pc, lsr #10
    18f0:	06090501 	streq	r0, [r9], -r1, lsl #10
    18f4:	062e064b 	strteq	r0, [lr], -fp, asr #12
    18f8:	06010530 			; <UNDEFINED> instruction: 0x06010530
    18fc:	061d052f 	ldreq	r0, [sp], -pc, lsr #10
    1900:	13050530 	movwne	r0, #21808	; 0x5530
    1904:	01060705 	tsteq	r6, r5, lsl #14
    1908:	05491d05 	strbeq	r1, [r9, #-3333]	; 0xfffff2fb
    190c:	13310605 	teqne	r1, #5242880	; 0x500000
    1910:	01060e05 	tsteq	r6, r5, lsl #28
    1914:	2f060505 	svccs	0x00060505
    1918:	01061705 	tsteq	r6, r5, lsl #14
    191c:	2e23054a 	cfsh64cs	mvdx0, mvdx3, #42
    1920:	30050204 	andcc	r0, r5, r4, lsl #4
    1924:	00dc0306 	sbcseq	r0, ip, r6, lsl #6
    1928:	0501042e 	streq	r0, [r1, #-1070]	; 0xfffffbd2
    192c:	a403060c 	strge	r0, [r3], #-1548	; 0xfffff9f4
    1930:	0105017f 	tsteq	r5, pc, ror r1
    1934:	2a10052f 	bcs	402df8 <__bss_end__+0x3f9080>
    1938:	02320105 	eorseq	r0, r2, #1073741825	; 0x40000001
    193c:	01010004 	tsteq	r1, r4
    1940:	00000205 	andeq	r0, r0, r5, lsl #4
    1944:	00c90003 	sbceq	r0, r9, r3
    1948:	01020000 	mrseq	r0, (UNDEF: 2)
    194c:	000d0efb 	strdeq	r0, [sp], -fp
    1950:	01010101 	tsteq	r1, r1, lsl #2
    1954:	01000000 	mrseq	r0, (UNDEF: 0)
    1958:	2f010000 	svccs	0x00010000
    195c:	656d6f68 	strbvs	r6, [sp, #-3944]!	; 0xfffff098
    1960:	676e652f 	strbvs	r6, [lr, -pc, lsr #10]!
    1964:	2f72656c 	svccs	0x0072656c
    1968:	73616c63 	cmnvc	r1, #25344	; 0x6300
    196c:	73632f73 	cmnvc	r3, #460	; 0x1cc
    1970:	6c303432 	cfldrsvs	mvf3, [r0], #-200	; 0xffffff38
    1974:	32322d78 	eorscc	r2, r2, #120, 26	; 0x1e00
    1978:	2f727073 	svccs	0x00727073
    197c:	62696c2f 	rsbvs	r6, r9, #12032	; 0x2f00
    1980:	692f6970 	stmdbvs	pc!, {r4, r5, r6, r8, fp, sp, lr}	; <UNPREDICTABLE>
    1984:	756c636e 	strbvc	r6, [ip, #-878]!	; 0xfffffc92
    1988:	2f006564 	svccs	0x00006564
    198c:	2f727375 	svccs	0x00727375
    1990:	72616873 	rsbvc	r6, r1, #7536640	; 0x730000
    1994:	63672f65 	cmnvs	r7, #404	; 0x194
    1998:	72612d63 	rsbvc	r2, r1, #6336	; 0x18c0
    199c:	6f6e2d6d 	svcvs	0x006e2d6d
    19a0:	652d656e 	strvs	r6, [sp, #-1390]!	; 0xfffffa92
    19a4:	2d696261 	sfmcs	f6, 2, [r9, #-388]!	; 0xfffffe7c
    19a8:	332e3031 			; <UNDEFINED> instruction: 0x332e3031
    19ac:	3230322d 	eorscc	r3, r0, #-805306366	; 0xd0000002
    19b0:	30312e31 	eorscc	r2, r1, r1, lsr lr
    19b4:	62696c2f 	rsbvs	r6, r9, #12032	; 0x2f00
    19b8:	6363672f 	cmnvs	r3, #12320768	; 0xbc0000
    19bc:	6d72612f 	ldfvse	f6, [r2, #-188]!	; 0xffffff44
    19c0:	6e6f6e2d 	cdpvs	14, 6, cr6, cr15, cr13, {1}
    19c4:	61652d65 	cmnvs	r5, r5, ror #26
    19c8:	312f6962 			; <UNDEFINED> instruction: 0x312f6962
    19cc:	2e332e30 	mrccs	14, 1, r2, cr3, cr0, {1}
    19d0:	6e692f31 	mcrvs	15, 3, r2, cr9, cr1, {1}
    19d4:	64756c63 	ldrbtvs	r6, [r5], #-3171	; 0xfffff39d
    19d8:	75000065 	strvc	r0, [r0, #-101]	; 0xffffff9b
    19dc:	2e747261 	cdpcs	2, 7, cr7, cr4, cr1, {3}
    19e0:	00000063 	andeq	r0, r0, r3, rrx
    19e4:	72617500 	rsbvc	r7, r1, #0, 10
    19e8:	00682e74 	rsbeq	r2, r8, r4, ror lr
    19ec:	72000001 	andvc	r0, r0, #1, 0
    19f0:	682e6970 	stmdavs	lr!, {r4, r5, r6, r8, fp, sp, lr}
    19f4:	00000100 	andeq	r0, r0, r0, lsl #2
    19f8:	6f697067 	svcvs	0x00697067
    19fc:	0100682e 	tsteq	r0, lr, lsr #16
    1a00:	74730000 	ldrbtvc	r0, [r3], #-0
    1a04:	746e6964 	strbtvc	r6, [lr], #-2404	; 0xfffff69c
    1a08:	6363672d 	cmnvs	r3, #11796480	; 0xb40000
    1a0c:	0200682e 	andeq	r6, r0, #3014656	; 0x2e0000
    1a10:	05000000 	streq	r0, [r0, #-0]
    1a14:	02050039 	andeq	r0, r5, #57, 0	; 0x39
    1a18:	00008f08 	andeq	r8, r0, r8, lsl #30
    1a1c:	06013003 	streq	r3, [r1], -r3
    1a20:	06050501 	streq	r0, [r5], -r1, lsl #10
    1a24:	06110567 	ldreq	r0, [r1], -r7, ror #10
    1a28:	2e050501 	cfsh32cs	mvfx0, mvfx5, #1
    1a2c:	05670105 	strbeq	r0, [r7, #-261]!	; 0xfffffefb
    1a30:	06290638 			; <UNDEFINED> instruction: 0x06290638
    1a34:	06050501 	streq	r0, [r5], -r1, lsl #10
    1a38:	06110567 	ldreq	r0, [r1], -r7, ror #10
    1a3c:	2e050501 	cfsh32cs	mvfx0, mvfx5, #1
    1a40:	05670105 	strbeq	r0, [r7, #-261]!	; 0xfffffefb
    1a44:	15030616 	strne	r0, [r3, #-1558]	; 0xfffff9ea
    1a48:	3505052e 	strcc	r0, [r5, #-1326]	; 0xfffffad2
    1a4c:	68356867 	ldmdavs	r5!, {r0, r1, r2, r5, r6, fp, sp, lr}
    1a50:	852e0c03 	strhi	r0, [lr, #-3075]!	; 0xfffff3fd
    1a54:	0369696b 	cmneq	r9, #1753088	; 0x1ac000
    1a58:	6b13660c 	blvs	4db290 <__bss_end__+0x4d1518>
    1a5c:	06010567 	streq	r0, [r1], -r7, ror #10
    1a60:	0619052f 	ldreq	r0, [r9], -pc, lsr #10
    1a64:	05052508 	streq	r2, [r5, #-1288]	; 0xfffffaf8
    1a68:	060d0534 			; <UNDEFINED> instruction: 0x060d0534
    1a6c:	4c010501 	cfstr32mi	mvfx0, [r1], {1}
    1a70:	67061905 	strvs	r1, [r6, -r5, lsl #18]
    1a74:	05360505 	ldreq	r0, [r6, #-1285]!	; 0xfffffafb
    1a78:	0501060d 	streq	r0, [r1, #-1549]	; 0xfffff9f3
    1a7c:	01054a28 	tsteq	r5, r8, lsr #20
    1a80:	06150530 			; <UNDEFINED> instruction: 0x06150530
    1a84:	2f050587 	svccs	0x00050587
    1a88:	0009052f 	andeq	r0, r9, pc, lsr #10
    1a8c:	13010402 	movwne	r0, #5122	; 0x1402
    1a90:	02000a05 	andeq	r0, r0, #20480	; 0x5000
    1a94:	05110104 	ldreq	r0, [r1, #-260]	; 0xfffffefc
    1a98:	0402000c 	streq	r0, [r2], #-12
    1a9c:	05010601 	streq	r0, [r1, #-1537]	; 0xfffff9ff
    1aa0:	0402000a 	streq	r0, [r2], #-10
    1aa4:	05052e01 	streq	r2, [r5, #-3585]	; 0xfffff1ff
    1aa8:	0e054c06 	cdpeq	12, 0, cr4, cr5, cr6, {0}
    1aac:	09050106 	stmdbeq	r5, {r1, r2, r8}
    1ab0:	0605054a 	streq	r0, [r5], -sl, asr #10
    1ab4:	01052f2f 	tsteq	r5, pc, lsr #30
    1ab8:	1c051306 	stcne	3, cr1, [r5], {6}
    1abc:	01066706 	tsteq	r6, r6, lsl #14
    1ac0:	4b060505 	blmi	182edc <__bss_end__+0x179164>
    1ac4:	0009052f 	andeq	r0, r9, pc, lsr #10
    1ac8:	13010402 	movwne	r0, #5122	; 0x1402
    1acc:	02000a05 	andeq	r0, r0, #20480	; 0x5000
    1ad0:	05110104 	ldreq	r0, [r1, #-260]	; 0xfffffefc
    1ad4:	0402000c 	streq	r0, [r2], #-12
    1ad8:	05010601 	streq	r0, [r1, #-1537]	; 0xfffff9ff
    1adc:	0402000a 	streq	r0, [r2], #-10
    1ae0:	05052e01 	streq	r2, [r5, #-3585]	; 0xfffff1ff
    1ae4:	05674c06 	strbeq	r4, [r7, #-3078]!	; 0xfffff3fa
    1ae8:	052f0601 	streq	r0, [pc, #-1537]!	; 14ef <__code_start__-0x6b11>
    1aec:	054c0619 	strbeq	r0, [ip, #-1561]	; 0xfffff9e7
    1af0:	2a052e1b 	bcs	14d364 <__bss_end__+0x1435ec>
    1af4:	0631052e 	ldrteq	r0, [r1], -lr, lsr #10
    1af8:	2e420501 	cdpcs	5, 4, cr0, cr2, cr1, {0}
    1afc:	31061c05 	tstcc	r6, r5, lsl #24
    1b00:	032f0505 			; <UNDEFINED> instruction: 0x032f0505
    1b04:	0e052e09 	cdpeq	14, 0, cr2, cr5, cr9, {0}
    1b08:	21050106 	tstcs	r5, r6, lsl #2
    1b0c:	0301054a 	movweq	r0, #5450	; 0x154a
    1b10:	1a052e0a 	bne	14d340 <__bss_end__+0x1435c8>
    1b14:	09056806 	stmdbeq	r5, {r1, r2, fp, sp, lr}
    1b18:	01040200 	mrseq	r0, R12_usr
    1b1c:	000a0530 	andeq	r0, sl, r0, lsr r5
    1b20:	11010402 	tstne	r1, r2, lsl #8
    1b24:	02000c05 	andeq	r0, r0, #1280	; 0x500
    1b28:	01060104 	tsteq	r6, r4, lsl #2
    1b2c:	02000a05 	andeq	r0, r0, #20480	; 0x5000
    1b30:	052e0104 	streq	r0, [lr, #-260]!	; 0xfffffefc
    1b34:	e8030619 	stmda	r3, {r0, r3, r4, r9, sl}
    1b38:	0505667e 	streq	r6, [r5, #-1662]	; 0xfffff982
    1b3c:	672f2f2f 	strvs	r2, [pc, -pc, lsr #30]!
    1b40:	2f060105 	svccs	0x00060105
    1b44:	01000402 	tsteq	r0, r2, lsl #8
    1b48:	00039301 	andeq	r9, r3, r1, lsl #6
    1b4c:	b8000300 	stmdalt	r0, {r8, r9}
    1b50:	02000000 	andeq	r0, r0, #0, 0
    1b54:	0d0efb01 	vstreq	d15, [lr, #-4]
    1b58:	01010100 	mrseq	r0, (UNDEF: 17)
    1b5c:	00000001 	andeq	r0, r0, r1
    1b60:	01000001 	tsteq	r0, r1
    1b64:	6d6f682f 	stclvs	8, cr6, [pc, #-188]!	; 1ab0 <__code_start__-0x6550>
    1b68:	6e652f65 	cdpvs	15, 6, cr2, cr5, cr5, {3}
    1b6c:	72656c67 	rsbvc	r6, r5, #26368	; 0x6700
    1b70:	616c632f 	cmnvs	ip, pc, lsr #6
    1b74:	632f7373 			; <UNDEFINED> instruction: 0x632f7373
    1b78:	30343273 	eorscc	r3, r4, r3, ror r2
    1b7c:	322d786c 	eorcc	r7, sp, #108, 16	; 0x6c0000
    1b80:	72707332 	rsbsvc	r7, r0, #-939524096	; 0xc8000000
    1b84:	696c2f2f 	stmdbvs	ip!, {r0, r1, r2, r3, r5, r8, r9, sl, fp, sp}^
    1b88:	2f697062 	svccs	0x00697062
    1b8c:	6c636e69 	stclvs	14, cr6, [r3], #-420	; 0xfffffe5c
    1b90:	00656475 	rsbeq	r6, r5, r5, ror r4
    1b94:	7273752f 	rsbsvc	r7, r3, #197132288	; 0xbc00000
    1b98:	6168732f 	cmnvs	r8, pc, lsr #6
    1b9c:	672f6572 			; <UNDEFINED> instruction: 0x672f6572
    1ba0:	612d6363 			; <UNDEFINED> instruction: 0x612d6363
    1ba4:	6e2d6d72 	mcrvs	13, 1, r6, cr13, cr2, {3}
    1ba8:	2d656e6f 	stclcs	14, cr6, [r5, #-444]!	; 0xfffffe44
    1bac:	69626165 	stmdbvs	r2!, {r0, r2, r5, r6, r8, sp, lr}^
    1bb0:	2e30312d 	rsfcssp	f3, f0, #5.0
    1bb4:	30322d33 	eorscc	r2, r2, r3, lsr sp
    1bb8:	312e3132 			; <UNDEFINED> instruction: 0x312e3132
    1bbc:	696c2f30 	stmdbvs	ip!, {r4, r5, r8, r9, sl, fp, sp}^
    1bc0:	63672f62 	cmnvs	r7, #392	; 0x188
    1bc4:	72612f63 	rsbvc	r2, r1, #396	; 0x18c
    1bc8:	6f6e2d6d 	svcvs	0x006e2d6d
    1bcc:	652d656e 	strvs	r6, [sp, #-1390]!	; 0xfffffa92
    1bd0:	2f696261 	svccs	0x00696261
    1bd4:	332e3031 			; <UNDEFINED> instruction: 0x332e3031
    1bd8:	692f312e 	stmdbvs	pc!, {r1, r2, r3, r5, r8, ip, sp}	; <UNPREDICTABLE>
    1bdc:	756c636e 	strbvc	r6, [ip, #-878]!	; 0xfffffc92
    1be0:	00006564 	andeq	r6, r0, r4, ror #10
    1be4:	6c616d6b 	stclvs	13, cr6, [r1], #-428	; 0xfffffe54
    1be8:	2e636f6c 	cdpcs	15, 6, cr6, cr3, cr12, {3}
    1bec:	00000063 	andeq	r0, r0, r3, rrx
    1bf0:	69707200 	ldmdbvs	r0!, {r9, ip, sp, lr}^
    1bf4:	0100682e 	tsteq	r0, lr, lsr #16
    1bf8:	74730000 	ldrbtvc	r0, [r3], #-0
    1bfc:	746e6964 	strbtvc	r6, [lr], #-2404	; 0xfffff69c
    1c00:	6363672d 	cmnvs	r3, #11796480	; 0xb40000
    1c04:	0200682e 	andeq	r6, r0, #3014656	; 0x2e0000
    1c08:	05000000 	streq	r0, [r0, #-0]
    1c0c:	0205001e 	andeq	r0, r5, #30, 0
    1c10:	000090f8 	strdeq	r9, [r0], -r8
    1c14:	05012703 	streq	r2, [r1, #-1795]	; 0xfffff8fd
    1c18:	31050120 	tstcc	r5, r0, lsr #2
    1c1c:	20050106 	andcs	r0, r5, r6, lsl #2
    1c20:	22058306 	andcs	r8, r5, #402653184	; 0x18000000
    1c24:	06350501 	ldrteq	r0, [r5], -r1, lsl #10
    1c28:	061e0501 	ldreq	r0, [lr], -r1, lsl #10
    1c2c:	01200583 	smlawbeq	r0, r3, r5, r0
    1c30:	01062d05 	tsteq	r6, r5, lsl #26
    1c34:	85064205 	strhi	r4, [r6, #-517]	; 0xfffffdfb
    1c38:	05050106 	streq	r0, [r5, #-262]	; 0xfffffefa
    1c3c:	01144b06 	tsteq	r4, r6, lsl #22
    1c40:	02002e06 	andeq	r2, r0, #96	; 0x60
    1c44:	2e060204 	cdpcs	2, 0, cr0, cr6, cr4, {0}
    1c48:	02040200 	andeq	r0, r4, #0, 4
    1c4c:	04020001 	streq	r0, [r2], #-1
    1c50:	0d051502 	cfstr32eq	mvfx1, [r5, #-8]
    1c54:	02040200 	andeq	r0, r4, #0, 4
    1c58:	07050106 	streq	r0, [r5, -r6, lsl #2]
    1c5c:	02040200 	andeq	r0, r4, #0, 4
    1c60:	0609054a 	streq	r0, [r9], -sl, asr #10
    1c64:	1505054b 	strne	r0, [r5, #-1355]	; 0xfffffab5
    1c68:	01061705 	tsteq	r6, r5, lsl #14
    1c6c:	054a1005 	strbeq	r1, [sl, #-5]
    1c70:	052f0605 	streq	r0, [pc, #-1541]!	; 1673 <__code_start__-0x698d>
    1c74:	0501061b 	streq	r0, [r1, #-1563]	; 0xfffff9e5
    1c78:	01052e0e 	tsteq	r5, lr, lsl #28
    1c7c:	0005052f 	andeq	r0, r5, pc, lsr #10
    1c80:	06010402 	streq	r0, [r1], -r2, lsl #8
    1c84:	004a7703 	subeq	r7, sl, r3, lsl #14
    1c88:	01010402 	tsteq	r1, r2, lsl #8
    1c8c:	01040200 	mrseq	r0, R12_usr
    1c90:	02009e06 	andeq	r9, r0, #96	; 0x60
    1c94:	002e0104 	eoreq	r0, lr, r4, lsl #2
    1c98:	06010402 	streq	r0, [r1], -r2, lsl #8
    1c9c:	3209052e 	andcc	r0, r9, #192937984	; 0xb800000
    1ca0:	2ed60601 	cdpcs	6, 13, cr0, cr6, cr1, {0}
    1ca4:	19052e06 	stmdbne	r5, {r1, r2, r9, sl, fp, sp}
    1ca8:	2f0505de 	svccs	0x000505de
    1cac:	06080514 			; <UNDEFINED> instruction: 0x06080514
    1cb0:	4a070501 	bmi	1c30bc <__bss_end__+0x1b9344>
    1cb4:	4b060905 	blmi	1840d0 <__bss_end__+0x17a358>
    1cb8:	05130505 	ldreq	r0, [r3, #-1285]	; 0xfffffafb
    1cbc:	0501060c 	streq	r0, [r1, #-1548]	; 0xfffff9f4
    1cc0:	13670605 	cmnne	r7, #5242880	; 0x500000
    1cc4:	67060105 	strvs	r0, [r6, -r5, lsl #2]
    1cc8:	2a060905 	bcs	1840e4 <__bss_end__+0x17a36c>
    1ccc:	28059e01 	stmdacs	r5, {r0, r9, sl, fp, ip, pc}
    1cd0:	050106a5 	streq	r0, [r1, #-1701]	; 0xfffff95b
    1cd4:	014b0605 	cmpeq	fp, r5, lsl #12
    1cd8:	2e062e06 	cdpcs	14, 0, cr2, cr6, cr6, {0}
    1cdc:	18051301 	stmdane	r5, {r0, r8, r9, ip}
    1ce0:	05014703 	streq	r4, [r1, #-1795]	; 0xfffff8fd
    1ce4:	06011305 	streq	r1, [r1], -r5, lsl #6
    1ce8:	150f0601 	strne	r0, [pc, #-1537]	; 16ef <__code_start__-0x6911>
    1cec:	0e051301 	cdpeq	3, 0, cr1, cr5, cr1, {0}
    1cf0:	16050106 	strne	r0, [r5], -r6, lsl #2
    1cf4:	05052e2e 	streq	r2, [r5, #-3630]	; 0xfffff1d2
    1cf8:	01390306 	teqeq	r9, r6, lsl #6
    1cfc:	01060b05 	tsteq	r6, r5, lsl #22
    1d00:	4b060505 	blmi	18311c <__bss_end__+0x1793a4>
    1d04:	01060a05 	tsteq	r6, r5, lsl #20
    1d08:	4b060505 	blmi	183124 <__bss_end__+0x1793ac>
    1d0c:	01060d05 	tsteq	r6, r5, lsl #26
    1d10:	052e0705 	streq	r0, [lr, #-1797]!	; 0xfffff8fb
    1d14:	05054d01 	streq	r4, [r5, #-3329]	; 0xfffff2ff
    1d18:	01040200 	mrseq	r0, R12_usr
    1d1c:	4a780306 	bmi	1e0293c <__bss_end__+0x1df8bc4>
    1d20:	01040200 	mrseq	r0, R12_usr
    1d24:	04020001 	streq	r0, [r2], #-1
    1d28:	00ba0601 	adcseq	r0, sl, r1, lsl #12
    1d2c:	06010402 	streq	r0, [r1], -r2, lsl #8
    1d30:	3409052e 	strcc	r0, [r9], #-1326	; 0xfffffad2
    1d34:	66820601 	strvs	r0, [r2], r1, lsl #12
    1d38:	20052e06 	andcs	r2, r5, r6, lsl #28
    1d3c:	050106db 	streq	r0, [r1, #-1755]	; 0xfffff925
    1d40:	014b0605 	cmpeq	fp, r5, lsl #12
    1d44:	02040200 	andeq	r0, r4, #0, 4
    1d48:	0402004a 	streq	r0, [r2], #-74	; 0xffffffb6
    1d4c:	02000102 	andeq	r0, r0, #-2147483648	; 0x80000000
    1d50:	05130204 	ldreq	r0, [r3, #-516]	; 0xfffffdfc
    1d54:	04020012 	streq	r0, [r2], #-18	; 0xffffffee
    1d58:	00010602 	andeq	r0, r1, r2, lsl #12
    1d5c:	2e020402 	cdpcs	4, 0, cr0, cr2, cr2, {0}
    1d60:	02040200 	andeq	r0, r4, #0, 4
    1d64:	0005052e 	andeq	r0, r5, lr, lsr #10
    1d68:	06020402 	streq	r0, [r2], -r2, lsl #8
    1d6c:	0402002f 	streq	r0, [r2], #-47	; 0xffffffd1
    1d70:	01056702 	tsteq	r5, r2, lsl #14
    1d74:	02040200 	andeq	r0, r4, #0, 4
    1d78:	05051306 	streq	r1, [r5, #-774]	; 0xfffffcfa
    1d7c:	01040200 	mrseq	r0, R12_usr
    1d80:	02006206 	andeq	r6, r0, #1610612736	; 0x60000000
    1d84:	00010104 	andeq	r0, r1, r4, lsl #2
    1d88:	06010402 	streq	r0, [r1], -r2, lsl #8
    1d8c:	040200ba 	streq	r0, [r2], #-186	; 0xffffff46
    1d90:	052e0601 	streq	r0, [lr, #-1537]!	; 0xfffff9ff
    1d94:	9e0a033c 	mcrls	3, 0, r0, cr10, cr12, {1}
    1d98:	05050106 	streq	r0, [r5, #-262]	; 0xfffffefa
    1d9c:	06014b06 	streq	r4, [r1], -r6, lsl #22
    1da0:	012e062e 			; <UNDEFINED> instruction: 0x012e062e
    1da4:	18050113 	stmdane	r5, {r0, r1, r4, r8}
    1da8:	017fad03 	cmneq	pc, r3, lsl #26
    1dac:	05130505 	ldreq	r0, [r3, #-1285]	; 0xfffffafb
    1db0:	2e010611 	mcrcs	6, 0, r0, cr1, cr1, {0}
    1db4:	d2030505 	andle	r0, r3, #20971520	; 0x1400000
    1db8:	4a060100 	bmi	1821c0 <__bss_end__+0x178448>
    1dbc:	03180513 	tsteq	r8, #79691776	; 0x4c00000
    1dc0:	05017fa3 	streq	r7, [r1, #-4003]	; 0xfffff05d
    1dc4:	16051305 	strne	r1, [r5], -r5, lsl #6
    1dc8:	054a0106 	strbeq	r0, [sl, #-262]	; 0xfffffefa
    1dcc:	e1030605 	tst	r3, r5, lsl #12
    1dd0:	12050100 	andne	r0, r5, #0
    1dd4:	05050106 	streq	r0, [r5, #-262]	; 0xfffffefa
    1dd8:	18054b06 	stmdane	r5, {r1, r2, r8, r9, fp, lr}
    1ddc:	017fa903 	cmneq	pc, r3, lsl #18
    1de0:	01130505 	tsteq	r3, r5, lsl #10
    1de4:	050e1805 	streq	r1, [lr, #-2053]	; 0xfffff7fb
    1de8:	11051305 	tstne	r5, r5, lsl #6
    1dec:	052e0106 	streq	r0, [lr, #-262]!	; 0xfffffefa
    1df0:	4a061505 	bmi	18720c <__bss_end__+0x17d494>
    1df4:	0e051301 	cdpeq	3, 0, cr1, cr5, cr1, {0}
    1df8:	052e0106 	streq	r0, [lr, #-262]!	; 0xfffffefa
    1dfc:	052e2e16 	streq	r2, [lr, #-3606]!	; 0xfffff1ea
    1e00:	d6030605 	strle	r0, [r3], -r5, lsl #12
    1e04:	05010100 	streq	r0, [r1, #-256]	; 0xffffff00
    1e08:	7f9f0318 	svcvc	0x009f0318
    1e0c:	13050501 	movwne	r0, #21761	; 0x5501
    1e10:	01061905 	tsteq	r6, r5, lsl #18
    1e14:	0305052e 	movweq	r0, #21806	; 0x552e
    1e18:	000100e0 	andeq	r0, r1, r0, ror #1
    1e1c:	06020402 	streq	r0, [r2], -r2, lsl #8
    1e20:	0402004a 	streq	r0, [r2], #-74	; 0xffffffb6
    1e24:	0a051402 	beq	146e34 <__bss_end__+0x13d0bc>
    1e28:	02040200 	andeq	r0, r4, #0, 4
    1e2c:	05050106 	streq	r0, [r5, #-262]	; 0xfffffefa
    1e30:	02040200 	andeq	r0, r4, #0, 4
    1e34:	0c054b06 			; <UNDEFINED> instruction: 0x0c054b06
    1e38:	02040200 	andeq	r0, r4, #0, 4
    1e3c:	01050106 	tsteq	r5, r6, lsl #2
    1e40:	02040200 	andeq	r0, r4, #0, 4
    1e44:	0005052f 	andeq	r0, r5, pc, lsr #10
    1e48:	06010402 	streq	r0, [r1], -r2, lsl #8
    1e4c:	004a7303 	subeq	r7, sl, r3, lsl #6
    1e50:	01010402 	tsteq	r1, r2, lsl #8
    1e54:	01040200 	mrseq	r0, R12_usr
    1e58:	02009e06 	andeq	r9, r0, #96	; 0x60
    1e5c:	002e0104 	eoreq	r0, lr, r4, lsl #2
    1e60:	06010402 	streq	r0, [r1], -r2, lsl #8
    1e64:	0402002e 	streq	r0, [r2], #-46	; 0xffffffd2
    1e68:	02002f01 	andeq	r2, r0, #1, 30
    1e6c:	002e0104 	eoreq	r0, lr, r4, lsl #2
    1e70:	d6010402 	strle	r0, [r1], -r2, lsl #8
    1e74:	2e7fb103 	expcse	f3, f3
    1e78:	2e820601 	cdpcs	6, 8, cr0, cr2, cr1, {0}
    1e7c:	062e062e 	strteq	r0, [lr], -lr, lsr #12
    1e80:	0402002e 	streq	r0, [r2], #-46	; 0xffffffd2
    1e84:	d7030601 	strle	r0, [r3, -r1, lsl #12]
    1e88:	02000100 	andeq	r0, r0, #0
    1e8c:	002e0104 	eoreq	r0, lr, r4, lsl #2
    1e90:	d6010402 	strle	r0, [r1], -r2, lsl #8
    1e94:	7b081505 	blvc	2072b0 <__bss_end__+0x1fd538>
    1e98:	05011705 	streq	r1, [r1, #-1797]	; 0xfffff8fb
    1e9c:	18053116 	stmdane	r5, {r1, r2, r4, r8, ip, sp}
    1ea0:	061d0501 	ldreq	r0, [sp], -r1, lsl #10
    1ea4:	662b0501 	strtvs	r0, [fp], -r1, lsl #10
    1ea8:	4d061905 	vstrmi.16	s2, [r6, #-10]	; <UNPREDICTABLE>
    1eac:	05130505 	ldreq	r0, [r3, #-1285]	; 0xfffffafb
    1eb0:	0501060c 	streq	r0, [r1, #-1548]	; 0xfffff9f4
    1eb4:	25054a07 	strcs	r4, [r5, #-2567]	; 0xfffff5f9
    1eb8:	01040200 	mrseq	r0, R12_usr
    1ebc:	001e054a 	andseq	r0, lr, sl, asr #10
    1ec0:	4a010402 	bmi	42ed0 <__bss_end__+0x39158>
    1ec4:	4b060905 	blmi	1842e0 <__bss_end__+0x17a568>
    1ec8:	05130505 	ldreq	r0, [r3, #-1285]	; 0xfffffafb
    1ecc:	0501060a 	streq	r0, [r1, #-1546]	; 0xfffff9f6
    1ed0:	09056319 	stmdbeq	r5, {r0, r3, r4, r8, r9, sp, lr}
    1ed4:	06014c06 	streq	r4, [r1], -r6, lsl #24
    1ed8:	022e069e 	eoreq	r0, lr, #165675008	; 0x9e00000
    1edc:	0101000a 	tsteq	r1, sl
    1ee0:	000000bd 	strheq	r0, [r0], -sp
    1ee4:	007f0003 	rsbseq	r0, pc, r3
    1ee8:	01020000 	mrseq	r0, (UNDEF: 2)
    1eec:	000d0efb 	strdeq	r0, [sp], -fp
    1ef0:	01010101 	tsteq	r1, r1, lsl #2
    1ef4:	01000000 	mrseq	r0, (UNDEF: 0)
    1ef8:	2e010000 	cdpcs	0, 0, cr0, cr1, cr0, {0}
    1efc:	62696c2f 	rsbvs	r6, r9, #12032	; 0x2f00
    1f00:	552f0063 	strpl	r0, [pc, #-99]!	; 1ea5 <__code_start__-0x615b>
    1f04:	73726573 	cmnvc	r2, #482344960	; 0x1cc00000
    1f08:	6972652f 	ldmdbvs	r2!, {r0, r1, r2, r3, r5, r8, sl, sp, lr}^
    1f0c:	61656263 	cmnvs	r5, r3, ror #4
    1f10:	6f442f72 	svcvs	0x00442f72
    1f14:	656d7563 	strbvs	r7, [sp, #-1379]!	; 0xfffffa9d
    1f18:	2f73746e 	svccs	0x0073746e
    1f1c:	34315343 	ldrtcc	r5, [r1], #-835	; 0xfffffcbd
    1f20:	632f4530 			; <UNDEFINED> instruction: 0x632f4530
    1f24:	30343173 	eorscc	r3, r4, r3, ror r1
    1f28:	69662d45 	stmdbvs	r6!, {r0, r2, r6, r8, sl, fp, sp}^
    1f2c:	2d6c616e 	stfcse	f6, [ip, #-440]!	; 0xfffffe48
    1f30:	6a6f7270 	bvs	1bde8f8 <__bss_end__+0x1bd4b80>
    1f34:	2f746365 	svccs	0x00746365
    1f38:	7362696c 	cmnvc	r2, #108, 18	; 0x1b0000
    1f3c:	3034322d 	eorscc	r3, r4, sp, lsr #4
    1f40:	6c2f786c 	stcvs	8, cr7, [pc], #-432	; 1d98 <__code_start__-0x6268>
    1f44:	69706269 	ldmdbvs	r0!, {r0, r3, r5, r6, r9, sp, lr}^
    1f48:	636e692f 	cmnvs	lr, #770048	; 0xbc000
    1f4c:	6564756c 	strbvs	r7, [r4, #-1388]!	; 0xfffffa94
    1f50:	75700000 	ldrbvc	r0, [r0, #-0]!
    1f54:	61686374 	smcvs	34356	; 0x8634
    1f58:	00632e72 	rsbeq	r2, r3, r2, ror lr
    1f5c:	72000001 	andvc	r0, r0, #1, 0
    1f60:	682e6970 	stmdavs	lr!, {r4, r5, r6, r8, fp, sp, lr}
    1f64:	00000200 	andeq	r0, r0, r0, lsl #4
    1f68:	00240500 	eoreq	r0, r4, r0, lsl #10
    1f6c:	94a80205 	strtls	r0, [r8], #517	; 0x205
    1f70:	06140000 	ldreq	r0, [r4], -r0
    1f74:	06260501 	strteq	r0, [r6], -r1, lsl #10
    1f78:	2e34054a 	cdpcs	5, 3, cr0, cr4, cr10, {2}
    1f7c:	01060105 	tsteq	r6, r5, lsl #2
    1f80:	4f061b05 	svcmi	0x00061b05
    1f84:	05130505 	ldreq	r0, [r3, #-1285]	; 0xfffffafb
    1f88:	05010611 	streq	r0, [r1, #-1553]	; 0xfffff9ef
    1f8c:	23056701 	movwcs	r6, #22273	; 0x5701
    1f90:	05056706 	streq	r6, [r5, #-1798]	; 0xfffff8fa
    1f94:	06110513 			; <UNDEFINED> instruction: 0x06110513
    1f98:	4b010501 	blmi	433a4 <__bss_end__+0x3962c>
    1f9c:	01000402 	tsteq	r0, r2, lsl #8
    1fa0:	00010901 	andeq	r0, r1, r1, lsl #18
    1fa4:	7e000300 	cdpvc	3, 0, cr0, cr0, cr0, {0}
    1fa8:	02000000 	andeq	r0, r0, #0, 0
    1fac:	0d0efb01 	vstreq	d15, [lr, #-4]
    1fb0:	01010100 	mrseq	r0, (UNDEF: 17)
    1fb4:	00000001 	andeq	r0, r0, r1
    1fb8:	01000001 	tsteq	r0, r1
    1fbc:	696c2f2e 	stmdbvs	ip!, {r1, r2, r3, r5, r8, r9, sl, fp, sp}^
    1fc0:	2f006362 	svccs	0x00006362
    1fc4:	72657355 	rsbvc	r7, r5, #1409286145	; 0x54000001
    1fc8:	72652f73 	rsbvc	r2, r5, #460	; 0x1cc
    1fcc:	65626369 	strbvs	r6, [r2, #-873]!	; 0xfffffc97
    1fd0:	442f7261 	strtmi	r7, [pc], #-609	; 1fd8 <__code_start__-0x6028>
    1fd4:	6d75636f 	ldclvs	3, cr6, [r5, #-444]!	; 0xfffffe44
    1fd8:	73746e65 	cmnvc	r4, #1616	; 0x650
    1fdc:	3153432f 	cmpcc	r3, pc, lsr #6
    1fe0:	2f453034 	svccs	0x00453034
    1fe4:	34317363 	ldrtcc	r7, [r1], #-867	; 0xfffffc9d
    1fe8:	662d4530 			; <UNDEFINED> instruction: 0x662d4530
    1fec:	6c616e69 	stclvs	14, cr6, [r1], #-420	; 0xfffffe5c
    1ff0:	6f72702d 	svcvs	0x0072702d
    1ff4:	7463656a 	strbtvc	r6, [r3], #-1386	; 0xfffffa96
    1ff8:	62696c2f 	rsbvs	r6, r9, #12032	; 0x2f00
    1ffc:	34322d73 	ldrtcc	r2, [r2], #-3443	; 0xfffff28d
    2000:	2f786c30 	svccs	0x00786c30
    2004:	7062696c 	rsbvc	r6, r2, ip, ror #18
    2008:	6e692f69 	cdpvs	15, 6, cr2, cr9, cr9, {3}
    200c:	64756c63 	ldrbtvs	r6, [r5], #-3171	; 0xfffff39d
    2010:	73000065 	movwvc	r0, #101	; 0x65
    2014:	61637274 	smcvs	14116	; 0x3724
    2018:	00632e74 	rsbeq	r2, r3, r4, ror lr
    201c:	72000001 	andvc	r0, r0, #1, 0
    2020:	682e6970 	stmdavs	lr!, {r4, r5, r6, r8, fp, sp, lr}
    2024:	00000200 	andeq	r0, r0, r0, lsl #4
    2028:	002c0500 	eoreq	r0, ip, r0, lsl #10
    202c:	94e40205 	strbtls	r0, [r4], #517	; 0x205
    2030:	05150000 	ldreq	r0, [r5, #-0]
    2034:	05131305 	ldreq	r1, [r3, #-773]	; 0xfffffcfb
    2038:	0511060b 	ldreq	r0, [r1, #-1547]	; 0xfffff9f5
    203c:	04020005 	streq	r0, [r2], #-5
    2040:	00300601 	eorseq	r0, r0, r1, lsl #12
    2044:	15010402 	strne	r0, [r1, #-1026]	; 0xfffffbfe
    2048:	02000905 	andeq	r0, r0, #81920	; 0x14000
    204c:	05130104 	ldreq	r0, [r3, #-260]	; 0xfffffefc
    2050:	04020010 	streq	r0, [r2], #-16
    2054:	052e0601 	streq	r0, [lr, #-1537]!	; 0xfffff9ff
    2058:	0402000b 	streq	r0, [r2], #-11
    205c:	02002e01 	andeq	r2, r0, #1, 28
    2060:	2f060104 	svccs	0x00060104
    2064:	02000505 	andeq	r0, r0, #20971520	; 0x1400000
    2068:	01060104 	tsteq	r6, r4, lsl #2
    206c:	08054e06 	stmdaeq	r5, {r1, r2, r9, sl, fp, lr}
    2070:	05050106 	streq	r0, [r5, #-262]	; 0xfffffefa
    2074:	01040200 	mrseq	r0, R12_usr
    2078:	09052f06 	stmdbeq	r5, {r1, r2, r8, r9, sl, fp, sp}
    207c:	01040200 	mrseq	r0, R12_usr
    2080:	000b0513 	andeq	r0, fp, r3, lsl r5
    2084:	06010402 	streq	r0, [r1], -r2, lsl #8
    2088:	00090501 	andeq	r0, r9, r1, lsl #10
    208c:	06010402 	streq	r0, [r1], -r2, lsl #8
    2090:	000f054b 	andeq	r0, pc, fp, asr #10
    2094:	06010402 	streq	r0, [r1], -r2, lsl #8
    2098:	000d0501 	andeq	r0, sp, r1, lsl #10
    209c:	06010402 	streq	r0, [r1], -r2, lsl #8
    20a0:	0005052f 	andeq	r0, r5, pc, lsr #10
    20a4:	06010402 	streq	r0, [r1], -r2, lsl #8
    20a8:	00060201 	andeq	r0, r6, r1, lsl #4
    20ac:	00c20101 	sbceq	r0, r2, r1, lsl #2
    20b0:	00030000 	andeq	r0, r3, r0
    20b4:	0000007e 	andeq	r0, r0, lr, ror r0
    20b8:	0efb0102 	cdpeq	1, 15, cr0, cr11, cr2, {0}
    20bc:	0101000d 	tsteq	r1, sp
    20c0:	00000101 	andeq	r0, r0, r1, lsl #2
    20c4:	00000100 	andeq	r0, r0, r0, lsl #2
    20c8:	6c2f2e01 	stcvs	14, cr2, [pc], #-4	; 20cc <__code_start__-0x5f34>
    20cc:	00636269 	rsbeq	r6, r3, r9, ror #4
    20d0:	6573552f 	ldrbvs	r5, [r3, #-1327]!	; 0xfffffad1
    20d4:	652f7372 	strvs	r7, [pc, #-882]!	; 1d6a <__code_start__-0x6296>
    20d8:	62636972 	rsbvs	r6, r3, #1867776	; 0x1c8000
    20dc:	2f726165 	svccs	0x00726165
    20e0:	75636f44 	strbvc	r6, [r3, #-3908]!	; 0xfffff0bc
    20e4:	746e656d 	strbtvc	r6, [lr], #-1389	; 0xfffffa93
    20e8:	53432f73 	movtpl	r2, #16243	; 0x3f73
    20ec:	45303431 	ldrmi	r3, [r0, #-1073]!	; 0xfffffbcf
    20f0:	3173632f 	cmncc	r3, pc, lsr #6
    20f4:	2d453034 	stclcs	0, cr3, [r5, #-208]	; 0xffffff30
    20f8:	616e6966 	cmnvs	lr, r6, ror #18
    20fc:	72702d6c 	rsbsvc	r2, r0, #108, 26	; 0x1b00
    2100:	63656a6f 	cmnvs	r5, #454656	; 0x6f000
    2104:	696c2f74 	stmdbvs	ip!, {r2, r4, r5, r6, r8, r9, sl, fp, sp}^
    2108:	322d7362 	eorcc	r7, sp, #-2013265919	; 0x88000001
    210c:	786c3034 	stmdavc	ip!, {r2, r4, r5, ip, sp}^
    2110:	62696c2f 	rsbvs	r6, r9, #12032	; 0x2f00
    2114:	692f6970 	stmdbvs	pc!, {r4, r5, r6, r8, fp, sp, lr}	; <UNPREDICTABLE>
    2118:	756c636e 	strbvc	r6, [ip, #-878]!	; 0xfffffc92
    211c:	00006564 	andeq	r6, r0, r4, ror #10
    2120:	63727473 	cmnvs	r2, #1929379840	; 0x73000000
    2124:	632e706d 			; <UNDEFINED> instruction: 0x632e706d
    2128:	00000100 	andeq	r0, r0, r0, lsl #2
    212c:	2e697072 	mcrcs	0, 3, r7, cr9, cr2, {3}
    2130:	00020068 	andeq	r0, r2, r8, rrx
    2134:	2a050000 	bcs	14213c <__bss_end__+0x1383c4>
    2138:	18020500 	stmdane	r2, {r8, sl}
    213c:	14000095 	strne	r0, [r0], #-149	; 0xffffff6b
    2140:	05130905 	ldreq	r0, [r3, #-2309]	; 0xfffff6fb
    2144:	1005010f 	andne	r0, r5, pc, lsl #2
    2148:	0f050106 	svceq	0x00050106
    214c:	001c052e 	andseq	r0, ip, lr, lsr #10
    2150:	4a010402 	bmi	43160 <__bss_end__+0x393e8>
    2154:	02001305 	andeq	r1, r0, #335544320	; 0x14000000
    2158:	052e0104 	streq	r0, [lr, #-260]!	; 0xfffffefc
    215c:	052f0611 	streq	r0, [pc, #-1553]!	; 1b53 <__code_start__-0x64ad>
    2160:	2e2e0616 	mcrcs	6, 1, r0, cr14, cr6, {0}
    2164:	2f060905 	svccs	0x00060905
    2168:	01061505 	tsteq	r6, r5, lsl #10
    216c:	022f0105 	eoreq	r0, pc, #1073741825	; 0x40000001
    2170:	01010004 	tsteq	r1, r4
    2174:	000000c0 	andeq	r0, r0, r0, asr #1
    2178:	007e0003 	rsbseq	r0, lr, r3
    217c:	01020000 	mrseq	r0, (UNDEF: 2)
    2180:	000d0efb 	strdeq	r0, [sp], -fp
    2184:	01010101 	tsteq	r1, r1, lsl #2
    2188:	01000000 	mrseq	r0, (UNDEF: 0)
    218c:	2e010000 	cdpcs	0, 0, cr0, cr1, cr0, {0}
    2190:	62696c2f 	rsbvs	r6, r9, #12032	; 0x2f00
    2194:	552f0063 	strpl	r0, [pc, #-99]!	; 2139 <__code_start__-0x5ec7>
    2198:	73726573 	cmnvc	r2, #482344960	; 0x1cc00000
    219c:	6972652f 	ldmdbvs	r2!, {r0, r1, r2, r3, r5, r8, sl, sp, lr}^
    21a0:	61656263 	cmnvs	r5, r3, ror #4
    21a4:	6f442f72 	svcvs	0x00442f72
    21a8:	656d7563 	strbvs	r7, [sp, #-1379]!	; 0xfffffa9d
    21ac:	2f73746e 	svccs	0x0073746e
    21b0:	34315343 	ldrtcc	r5, [r1], #-835	; 0xfffffcbd
    21b4:	632f4530 			; <UNDEFINED> instruction: 0x632f4530
    21b8:	30343173 	eorscc	r3, r4, r3, ror r1
    21bc:	69662d45 	stmdbvs	r6!, {r0, r2, r6, r8, sl, fp, sp}^
    21c0:	2d6c616e 	stfcse	f6, [ip, #-440]!	; 0xfffffe48
    21c4:	6a6f7270 	bvs	1bdeb8c <__bss_end__+0x1bd4e14>
    21c8:	2f746365 	svccs	0x00746365
    21cc:	7362696c 	cmnvc	r2, #108, 18	; 0x1b0000
    21d0:	3034322d 	eorscc	r3, r4, sp, lsr #4
    21d4:	6c2f786c 	stcvs	8, cr7, [pc], #-432	; 202c <__code_start__-0x5fd4>
    21d8:	69706269 	ldmdbvs	r0!, {r0, r3, r5, r6, r9, sp, lr}^
    21dc:	636e692f 	cmnvs	lr, #770048	; 0xbc000
    21e0:	6564756c 	strbvs	r7, [r4, #-1388]!	; 0xfffffa94
    21e4:	74730000 	ldrbtvc	r0, [r3], #-0
    21e8:	79706372 	ldmdbvc	r0!, {r1, r4, r5, r6, r8, r9, sp, lr}^
    21ec:	0100632e 	tsteq	r0, lr, lsr #6
    21f0:	70720000 	rsbsvc	r0, r2, r0
    21f4:	00682e69 	rsbeq	r2, r8, r9, ror #28
    21f8:	00000002 	andeq	r0, r0, r2
    21fc:	05002a05 	streq	r2, [r0, #-2565]	; 0xfffff5fb
    2200:	00954402 	addseq	r4, r5, r2, lsl #8
    2204:	05051400 	streq	r1, [r5, #-1024]	; 0xfffffc00
    2208:	14051313 	strne	r1, [r5], #-787	; 0xfffffced
    220c:	22051106 	andcs	r1, r5, #-2147483647	; 0x80000001
    2210:	01040200 	mrseq	r0, R12_usr
    2214:	0b052f06 	bleq	14de34 <__bss_end__+0x1440bc>
    2218:	01040200 	mrseq	r0, R12_usr
    221c:	00150501 	andseq	r0, r5, r1, lsl #10
    2220:	06010402 	streq	r0, [r1], -r2, lsl #8
    2224:	00130501 	andseq	r0, r3, r1, lsl #10
    2228:	4a010402 	bmi	43238 <__bss_end__+0x394c0>
    222c:	02000b05 	andeq	r0, r0, #5120	; 0x1400
    2230:	024a0104 	subeq	r0, sl, #1
    2234:	01010006 	tsteq	r1, r6
    2238:	00000120 	andeq	r0, r0, r0, lsr #2
    223c:	00e40003 	rsceq	r0, r4, r3
    2240:	01020000 	mrseq	r0, (UNDEF: 2)
    2244:	000d0efb 	strdeq	r0, [sp], -fp
    2248:	01010101 	tsteq	r1, r1, lsl #2
    224c:	01000000 	mrseq	r0, (UNDEF: 0)
    2250:	2e010000 	cdpcs	0, 0, cr0, cr1, cr0, {0}
    2254:	62696c2f 	rsbvs	r6, r9, #12032	; 0x2f00
    2258:	552f0063 	strpl	r0, [pc, #-99]!	; 21fd <__code_start__-0x5e03>
    225c:	73726573 	cmnvc	r2, #482344960	; 0x1cc00000
    2260:	6972652f 	ldmdbvs	r2!, {r0, r1, r2, r3, r5, r8, sl, sp, lr}^
    2264:	61656263 	cmnvs	r5, r3, ror #4
    2268:	6f442f72 	svcvs	0x00442f72
    226c:	656d7563 	strbvs	r7, [sp, #-1379]!	; 0xfffffa9d
    2270:	2f73746e 	svccs	0x0073746e
    2274:	34315343 	ldrtcc	r5, [r1], #-835	; 0xfffffcbd
    2278:	632f4530 			; <UNDEFINED> instruction: 0x632f4530
    227c:	30343173 	eorscc	r3, r4, r3, ror r1
    2280:	69662d45 	stmdbvs	r6!, {r0, r2, r6, r8, sl, fp, sp}^
    2284:	2d6c616e 	stfcse	f6, [ip, #-440]!	; 0xfffffe48
    2288:	6a6f7270 	bvs	1bdec50 <__bss_end__+0x1bd4ed8>
    228c:	2f746365 	svccs	0x00746365
    2290:	7362696c 	cmnvc	r2, #108, 18	; 0x1b0000
    2294:	3034322d 	eorscc	r3, r4, sp, lsr #4
    2298:	6c2f786c 	stcvs	8, cr7, [pc], #-432	; 20f0 <__code_start__-0x5f10>
    229c:	69706269 	ldmdbvs	r0!, {r0, r3, r5, r6, r9, sp, lr}^
    22a0:	636e692f 	cmnvs	lr, #770048	; 0xbc000
    22a4:	6564756c 	strbvs	r7, [r4, #-1388]!	; 0xfffffa94
    22a8:	73752f00 	cmnvc	r5, #0, 30
    22ac:	6f6c2f72 	svcvs	0x006c2f72
    22b0:	2f6c6163 	svccs	0x006c6163
    22b4:	6c6c6543 	cfstr64vs	mvdx6, [ip], #-268	; 0xfffffef4
    22b8:	612f7261 			; <UNDEFINED> instruction: 0x612f7261
    22bc:	6e2d6d72 	mcrvs	13, 1, r6, cr13, cr2, {3}
    22c0:	2d656e6f 	stclcs	14, cr6, [r5, #-444]!	; 0xfffffe44
    22c4:	69626165 	stmdbvs	r2!, {r0, r2, r5, r6, r8, sp, lr}^
    22c8:	7365742d 	cmnvc	r5, #754974720	; 0x2d000000
    22cc:	2d392f74 	ldccs	15, cr2, [r9, #-464]!	; 0xfffffe30
    22d0:	39313032 	ldmdbcc	r1!, {r1, r4, r5, ip, sp}
    22d4:	632d3471 			; <UNDEFINED> instruction: 0x632d3471
    22d8:	37303173 			; <UNDEFINED> instruction: 0x37303173
    22dc:	696c2f65 	stmdbvs	ip!, {r0, r2, r5, r6, r8, r9, sl, fp, sp}^
    22e0:	63672f62 	cmnvs	r7, #392	; 0x188
    22e4:	72612f63 	rsbvc	r2, r1, #396	; 0x18c
    22e8:	6f6e2d6d 	svcvs	0x006e2d6d
    22ec:	652d656e 	strvs	r6, [sp, #-1390]!	; 0xfffffa92
    22f0:	2f696261 	svccs	0x00696261
    22f4:	2e322e39 	mrccs	14, 1, r2, cr2, cr9, {1}
    22f8:	6e692f31 	mcrvs	15, 3, r2, cr9, cr1, {1}
    22fc:	64756c63 	ldrbtvs	r6, [r5], #-3171	; 0xfffff39d
    2300:	73000065 	movwvc	r0, #101	; 0x65
    2304:	636e7274 	cmnvs	lr, #116, 4	; 0x40000007
    2308:	632e706d 			; <UNDEFINED> instruction: 0x632e706d
    230c:	00000100 	andeq	r0, r0, r0, lsl #2
    2310:	2e697072 	mcrcs	0, 3, r7, cr9, cr2, {3}
    2314:	00020068 	andeq	r0, r2, r8, rrx
    2318:	64747300 	ldrbtvs	r7, [r4], #-768	; 0xfffffd00
    231c:	2e666564 	cdpcs	5, 6, cr6, cr6, cr4, {3}
    2320:	00030068 	andeq	r0, r3, r8, rrx
    2324:	39050000 	stmdbcc	r5, {}	; <UNPREDICTABLE>
    2328:	64020500 	strvs	r0, [r2], #-1280	; 0xfffffb00
    232c:	15000095 	strne	r0, [r0, #-149]	; 0xffffff6b
    2330:	13130505 	tstne	r3, #20971520	; 0x1400000
    2334:	06010a05 	streq	r0, [r1], -r5, lsl #20
    2338:	09054a01 	stmdbeq	r5, {r0, r9, fp, lr}
    233c:	0c052f06 	stceq	15, cr2, [r5], {6}
    2340:	13050106 	movwne	r0, #20742	; 0x5106
    2344:	2e0b052e 	cfsh32cs	mvfx0, mvfx11, #30
    2348:	4b060d05 	blmi	185764 <__bss_end__+0x17b9ec>
    234c:	01061b05 	tsteq	r6, r5, lsl #22
    2350:	300c052e 	andcc	r0, ip, lr, lsr #10
    2354:	022f0105 	eoreq	r0, pc, #1073741825	; 0x40000001
    2358:	01010002 	tsteq	r1, r2
    235c:	000000af 	andeq	r0, r0, pc, lsr #1
    2360:	00930003 	addseq	r0, r3, r3
    2364:	01020000 	mrseq	r0, (UNDEF: 2)
    2368:	000d0efb 	strdeq	r0, [sp], -fp
    236c:	01010101 	tsteq	r1, r1, lsl #2
    2370:	01000000 	mrseq	r0, (UNDEF: 0)
    2374:	2e010000 	cdpcs	0, 0, cr0, cr1, cr0, {0}
    2378:	6174732f 	cmnvs	r4, pc, lsr #6
    237c:	732d6666 			; <UNDEFINED> instruction: 0x732d6666
    2380:	2f006372 	svccs	0x00006372
    2384:	72657355 	rsbvc	r7, r5, #1409286145	; 0x54000001
    2388:	72652f73 	rsbvc	r2, r5, #460	; 0x1cc
    238c:	65626369 	strbvs	r6, [r2, #-873]!	; 0xfffffc97
    2390:	442f7261 	strtmi	r7, [pc], #-609	; 2398 <__code_start__-0x5c68>
    2394:	6d75636f 	ldclvs	3, cr6, [r5, #-444]!	; 0xfffffe44
    2398:	73746e65 	cmnvc	r4, #1616	; 0x650
    239c:	3153432f 	cmpcc	r3, pc, lsr #6
    23a0:	2f453034 	svccs	0x00453034
    23a4:	34317363 	ldrtcc	r7, [r1], #-867	; 0xfffffc9d
    23a8:	662d4530 			; <UNDEFINED> instruction: 0x662d4530
    23ac:	6c616e69 	stclvs	14, cr6, [r1], #-420	; 0xfffffe5c
    23b0:	6f72702d 	svcvs	0x0072702d
    23b4:	7463656a 	strbtvc	r6, [r3], #-1386	; 0xfffffa96
    23b8:	62696c2f 	rsbvs	r6, r9, #12032	; 0x2f00
    23bc:	34322d73 	ldrtcc	r2, [r2], #-3443	; 0xfffff28d
    23c0:	2f786c30 	svccs	0x00786c30
    23c4:	7062696c 	rsbvc	r6, r2, ip, ror #18
    23c8:	6e692f69 	cdpvs	15, 6, cr2, cr9, cr9, {3}
    23cc:	64756c63 	ldrbtvs	r6, [r5], #-3171	; 0xfffff39d
    23d0:	64000065 	strvs	r0, [r0], #-101	; 0xffffff9b
    23d4:	75616665 	strbvc	r6, [r1, #-1637]!	; 0xfffff99b
    23d8:	722d746c 	eorvc	r7, sp, #108, 8	; 0x6c000000
    23dc:	6f6f6265 	svcvs	0x006f6265
    23e0:	61632d74 	smcvs	13012	; 0x32d4
    23e4:	756f6c6c 	strbvc	r6, [pc, #-3180]!	; 1780 <__code_start__-0x6880>
    23e8:	00632e74 	rsbeq	r2, r3, r4, ror lr
    23ec:	72000001 	andvc	r0, r0, #1, 0
    23f0:	682e6970 	stmdavs	lr!, {r4, r5, r6, r8, fp, sp, lr}
    23f4:	00000200 	andeq	r0, r0, r0, lsl #4
    23f8:	001b0500 	andseq	r0, fp, r0, lsl #10
    23fc:	95900205 	ldrls	r0, [r0, #517]	; 0x205
    2400:	05140000 	ldreq	r0, [r4, #-0]
    2404:	0105011c 	tsteq	r5, ip, lsl r1
    2408:	02020106 	andeq	r0, r2, #-2147483647	; 0x80000001
    240c:	Address 0x000000000000240c is out of bounds.


Disassembly of section .debug_str:

00000000 <.debug_str>:
   0:	74697277 	strbtvc	r7, [r9], #-631	; 0xfffffd89
   4:	00305f65 	eorseq	r5, r0, r5, ror #30
   8:	74697277 	strbtvc	r7, [r9], #-631	; 0xfffffd89
   c:	00315f65 	eorseq	r5, r1, r5, ror #30
  10:	726f6873 	rsbvc	r6, pc, #7536640	; 0x730000
  14:	6e692074 	mcrvs	0, 3, r2, cr9, cr4, {3}
  18:	6f5f0074 	svcvs	0x005f0074
  1c:	72007475 	andvc	r7, r0, #1962934272	; 0x75000000
  20:	705f6970 	subsvc	r6, pc, r0, ror r9	; <UNPREDICTABLE>
  24:	68637475 	stmdavs	r3!, {r0, r2, r4, r5, r6, sl, ip, sp, lr}^
  28:	67007261 	strvs	r7, [r0, -r1, ror #4]
  2c:	5f6f6970 	svcpl	0x006f6970
  30:	5f746573 	svcpl	0x00746573
  34:	7074756f 	rsbsvc	r7, r4, pc, ror #10
  38:	2f007475 	svccs	0x00007475
  3c:	72657355 	rsbvc	r7, r5, #1409286145	; 0x54000001
  40:	72652f73 	rsbvc	r2, r5, #460	; 0x1cc
  44:	65626369 	strbvs	r6, [r2, #-873]!	; 0xfffffc97
  48:	442f7261 	strtmi	r7, [pc], #-609	; 50 <__code_start__-0x7fb0>
  4c:	6d75636f 	ldclvs	3, cr6, [r5, #-444]!	; 0xfffffe44
  50:	73746e65 	cmnvc	r4, #1616	; 0x650
  54:	3153432f 	cmpcc	r3, pc, lsr #6
  58:	2f453034 	svccs	0x00453034
  5c:	34317363 	ldrtcc	r7, [r1], #-867	; 0xfffffc9d
  60:	662d4530 			; <UNDEFINED> instruction: 0x662d4530
  64:	6c616e69 	stclvs	14, cr6, [r1], #-420	; 0xfffffe5c
  68:	6f72702d 	svcvs	0x0072702d
  6c:	7463656a 	strbtvc	r6, [r3], #-1386	; 0xfffffa96
  70:	6c65722f 	sfmvs	f7, 2, [r5], #-188	; 0xffffff44
  74:	6e617665 	cdpvs	6, 6, cr7, cr1, cr5, {3}
  78:	616c2d74 	smcvs	49876	; 0xc2d4
  7c:	6c2f7362 	stcvs	3, cr7, [pc], #-392	; fffffefc <__bss_end__+0xffff6184>
  80:	74686769 	strbtvc	r6, [r8], #-1897	; 0xfffff897
  84:	73632d73 	cmnvc	r3, #7360	; 0x1cc0
  88:	6c303432 	cfldrsvs	mvf3, [r0], #-200	; 0xffffff38
  8c:	2d342d78 	ldccs	13, cr2, [r4, #-480]!	; 0xfffffe20
  90:	38327377 	ldmdacc	r2!, {r0, r1, r2, r4, r5, r6, r8, r9, ip, sp, lr}
  94:	2f623231 	svccs	0x00623231
  98:	65646f63 	strbvs	r6, [r4, #-3939]!	; 0xfffff09d
  9c:	65727400 	ldrbvs	r7, [r2, #-1024]!	; 0xfffffc00
  a0:	00746573 	rsbseq	r6, r4, r3, ror r5
  a4:	5f786970 	svcpl	0x00786970
  a8:	646e6573 	strbtvs	r6, [lr], #-1395	; 0xfffffa8d
  ac:	00746962 	rsbseq	r6, r4, r2, ror #18
  b0:	616c6564 	cmnvs	ip, r4, ror #10
  b4:	636e5f79 	cmnvs	lr, #484	; 0x1e4
  b8:	656c6379 	strbvs	r6, [ip, #-889]!	; 0xfffffc87
  bc:	6f6c0073 	svcvs	0x006c0073
  c0:	6c20676e 	stcvs	7, cr6, [r0], #-440	; 0xfffffe48
  c4:	20676e6f 	rsbcs	r6, r7, pc, ror #28
  c8:	00746e69 	rsbseq	r6, r4, r9, ror #28
  cc:	706d6f63 	rsbvc	r6, sp, r3, ror #30
  d0:	61736e65 	cmnvs	r3, r5, ror #28
  d4:	6e6f6974 			; <UNDEFINED> instruction: 0x6e6f6974
  d8:	622d3100 	eorvs	r3, sp, #0
  dc:	6b6e696c 	blvs	1b9a694 <__bss_end__+0x1b9091c>
  e0:	5f00632e 	svcpl	0x0000632e
  e4:	4e55465f 	mrcmi	6, 2, r4, cr5, cr15, {2}
  e8:	4f495443 	svcmi	0x00495443
  ec:	005f5f4e 	subseq	r5, pc, lr, asr #30
  f0:	62616e65 	rsbvs	r6, r1, #1616	; 0x650
  f4:	635f656c 	cmpvs	pc, #108, 10	; 0x1b000000
  f8:	65686361 	strbvs	r6, [r8, #-865]!	; 0xfffffc9f
  fc:	635f6e00 	cmpvs	pc, #0, 28
 100:	70006379 	andvc	r6, r0, r9, ror r3
 104:	735f7869 	cmpvc	pc, #6881280	; 0x690000
 108:	62646e65 	rsbvs	r6, r4, #1616	; 0x650
 10c:	00657479 	rsbeq	r7, r5, r9, ror r4
 110:	69736e75 	ldmdbvs	r3!, {r0, r2, r4, r5, r6, r9, sl, fp, sp, lr}^
 114:	64656e67 	strbtvs	r6, [r5], #-3687	; 0xfffff199
 118:	61686320 	cmnvs	r8, r0, lsr #6
 11c:	74730072 	ldrbtvc	r0, [r3], #-114	; 0xffffff8e
 120:	5f747261 	svcpl	0x00747261
 124:	00637963 	rsbeq	r7, r3, r3, ror #18
 128:	676e6f6c 	strbvs	r6, [lr, -ip, ror #30]!
 12c:	6e6f6c20 	cdpvs	12, 6, cr6, cr15, cr0, {1}
 130:	6e752067 	cdpvs	0, 7, cr2, cr5, cr7, {3}
 134:	6e676973 			; <UNDEFINED> instruction: 0x6e676973
 138:	69206465 	stmdbvs	r0!, {r0, r2, r5, r6, sl, sp, lr}
 13c:	6e00746e 	cdpvs	4, 0, cr7, cr0, cr14, {3}
 140:	616d746f 	cmnvs	sp, pc, ror #8
 144:	73006e69 	movwvc	r6, #3689	; 0xe69
 148:	74726f68 	ldrbtvc	r6, [r2], #-3944	; 0xfffff098
 14c:	736e7520 	cmnvc	lr, #32, 10	; 0x8000000
 150:	656e6769 	strbvs	r6, [lr, #-1897]!	; 0xfffff897
 154:	6e692064 	cdpvs	0, 6, cr2, cr9, cr4, {3}
 158:	70670074 	rsbvc	r0, r7, r4, ror r0
 15c:	735f6f69 	cmpvc	pc, #420	; 0x1a4
 160:	6f5f7465 	svcvs	0x005f7465
 164:	61725f6e 	cmnvs	r2, lr, ror #30
 168:	69700077 	ldmdbvs	r0!, {r0, r1, r2, r4, r5, r6}^
 16c:	69705f78 	ldmdbvs	r0!, {r3, r4, r5, r6, r8, r9, sl, fp, ip, lr}^
 170:	6564006e 	strbvs	r0, [r4, #-110]!	; 0xffffff92
 174:	5f79616c 	svcpl	0x0079616c
 178:	7500736d 	strvc	r7, [r0, #-877]	; 0xfffffc93
 17c:	38746e69 	ldmdacc	r4!, {r0, r3, r5, r6, r9, sl, fp, sp, lr}^
 180:	6700745f 	smlsdvs	r0, pc, r4, r7	; <UNPREDICTABLE>
 184:	5f6f6970 	svcpl	0x006f6970
 188:	5f746573 	svcpl	0x00746573
 18c:	5f66666f 	svcpl	0x0066666f
 190:	00776172 	rsbseq	r6, r7, r2, ror r1
 194:	53554c46 	cmppl	r5, #17920	; 0x4600
 198:	4e470048 	cdpmi	0, 4, cr0, cr7, cr8, {2}
 19c:	39432055 	stmdbcc	r3, {r0, r2, r4, r6, sp}^
 1a0:	2e392039 	mrccs	0, 1, r2, cr9, cr9, {1}
 1a4:	20312e32 	eorscs	r2, r1, r2, lsr lr
 1a8:	39313032 	ldmdbcc	r1!, {r1, r4, r5, ip, sp}
 1ac:	35323031 	ldrcc	r3, [r2, #-49]!	; 0xffffffcf
 1b0:	65722820 	ldrbvs	r2, [r2, #-2080]!	; 0xfffff7e0
 1b4:	7361656c 	cmnvc	r1, #108, 10	; 0x1b000000
 1b8:	5b202965 	blpl	80a754 <__bss_end__+0x8009dc>
 1bc:	2f4d5241 	svccs	0x004d5241
 1c0:	2d6d7261 	sfmcs	f7, 2, [sp, #-388]!	; 0xfffffe7c
 1c4:	72622d39 	rsbvc	r2, r2, #3648	; 0xe40
 1c8:	68636e61 	stmdavs	r3!, {r0, r5, r6, r9, sl, fp, sp, lr}^
 1cc:	76657220 	strbtvc	r7, [r5], -r0, lsr #4
 1d0:	6f697369 	svcvs	0x00697369
 1d4:	3732206e 	ldrcc	r2, [r2, -lr, rrx]!
 1d8:	39393537 	ldmdbcc	r9!, {r0, r1, r2, r4, r5, r8, sl, ip, sp}
 1dc:	6d2d205d 	stcvs	0, cr2, [sp, #-372]!	; 0xfffffe8c
 1e0:	3d757063 	ldclcc	0, cr7, [r5, #-396]!	; 0xfffffe74
 1e4:	316d7261 	cmncc	sp, r1, ror #4
 1e8:	6a363731 	bvs	d8deb4 <__bss_end__+0xd8413c>
 1ec:	732d667a 			; <UNDEFINED> instruction: 0x732d667a
 1f0:	746d2d20 	strbtvc	r2, [sp], #-3360	; 0xfffff2e0
 1f4:	3d656e75 	stclcc	14, cr6, [r5, #-468]!	; 0xfffffe2c
 1f8:	316d7261 	cmncc	sp, r1, ror #4
 1fc:	6a363731 	bvs	d8dec8 <__bss_end__+0xd84150>
 200:	732d667a 			; <UNDEFINED> instruction: 0x732d667a
 204:	666d2d20 	strbtvs	r2, [sp], -r0, lsr #26
 208:	74616f6c 	strbtvc	r6, [r1], #-3948	; 0xfffff094
 20c:	6962612d 	stmdbvs	r2!, {r0, r2, r3, r5, r8, sp, lr}^
 210:	666f733d 			; <UNDEFINED> instruction: 0x666f733d
 214:	6d2d2074 	stcvs	0, cr2, [sp, #-464]!	; 0xfffffe30
 218:	206d7261 	rsbcs	r7, sp, r1, ror #4
 21c:	72616d2d 	rsbvc	r6, r1, #2880	; 0xb40
 220:	613d6863 	teqvs	sp, r3, ror #16
 224:	36766d72 			; <UNDEFINED> instruction: 0x36766d72
 228:	2d207a6b 	vstmdbcs	r0!, {s14-s120}
 22c:	62646767 	rsbvs	r6, r4, #27000832	; 0x19c0000
 230:	314f2d20 	cmpcc	pc, r0, lsr #26
 234:	74732d20 	ldrbtvc	r2, [r3], #-3360	; 0xfffff2e0
 238:	6e673d64 	cdpvs	13, 6, cr3, cr7, cr4, {3}
 23c:	20393975 	eorscs	r3, r9, r5, ror r9
 240:	7266662d 	rsbvc	r6, r6, #47185920	; 0x2d00000
 244:	74736565 	ldrbtvc	r6, [r3], #-1381	; 0xfffffa9b
 248:	69646e61 	stmdbvs	r4!, {r0, r5, r6, r9, sl, fp, sp, lr}^
 24c:	6e00676e 	cdpvs	7, 0, cr6, cr0, cr14, {3}
 250:	705f6f65 	subsvc	r6, pc, r5, ror #30
 254:	6c657869 	stclvs	8, cr7, [r5], #-420	; 0xfffffe5c
 258:	78697000 	stmdavc	r9!, {ip, sp, lr}^
 25c:	00736c65 	rsbseq	r6, r3, r5, ror #24
 260:	5f6f656e 	svcpl	0x006f656e
 264:	646e6168 	strbtvs	r6, [lr], #-360	; 0xfffffe98
 268:	6e00656c 	cfsh32vs	mvfx6, mvfx0, #60
 26c:	69706f65 	ldmdbvs	r0!, {r0, r2, r5, r6, r8, r9, sl, fp, sp, lr}^
 270:	6c665f78 	stclvs	15, cr5, [r6], #-480	; 0xfffffe20
 274:	00687375 	rsbeq	r7, r8, r5, ror r3
 278:	706f656e 	rsbvc	r6, pc, lr, ror #10
 27c:	635f7869 	cmpvs	pc, #6881280	; 0x690000
 280:	7261656c 	rsbvc	r6, r1, #108, 10	; 0x1b000000
 284:	6d656d00 	stclvs	13, cr6, [r5, #-0]
 288:	00746573 	rsbseq	r6, r4, r3, ror r5
 28c:	706f656e 	rsbvc	r6, pc, lr, ror #10
 290:	775f7869 	ldrbvc	r7, [pc, -r9, ror #16]
 294:	65746972 	ldrbvs	r6, [r4, #-2418]!	; 0xfffff68e
 298:	6f656e00 	svcvs	0x00656e00
 29c:	5f786970 	svcpl	0x00786970
 2a0:	74696e69 	strbtvc	r6, [r9], #-3689	; 0xfffff197
 2a4:	6e697500 	cdpvs	5, 6, cr7, cr9, cr0, {0}
 2a8:	5f323374 	svcpl	0x00323374
 2ac:	706e0074 	rsbvc	r0, lr, r4, ror r0
 2b0:	6c657869 	stclvs	8, cr7, [r5], #-420	; 0xfffffe5c
 2b4:	6f656e00 	svcvs	0x00656e00
 2b8:	5f786970 	svcpl	0x00786970
 2bc:	74736166 	ldrbtvc	r6, [r3], #-358	; 0xfffffe9a
 2c0:	656c635f 	strbvs	r6, [ip, #-863]!	; 0xfffffca1
 2c4:	6e007261 	cdpvs	2, 0, cr7, cr0, cr1, {3}
 2c8:	69706f65 	ldmdbvs	r0!, {r0, r2, r5, r6, r8, r9, sl, fp, sp, lr}^
 2cc:	2e6c6578 	mcrcs	5, 3, r6, cr12, cr8, {3}
 2d0:	656e0063 	strbvs	r0, [lr, #-99]!	; 0xffffff9d
 2d4:	00745f6f 	rsbseq	r5, r4, pc, ror #30
 2d8:	6c616d6b 	stclvs	13, cr6, [r1], #-428	; 0xfffffe54
 2dc:	00636f6c 	rsbeq	r6, r3, ip, ror #30
 2e0:	706f656e 	rsbvc	r6, pc, lr, ror #10
 2e4:	735f7869 	cmpvc	pc, #6881280	; 0x690000
 2e8:	70646e65 	rsbvc	r6, r4, r5, ror #28
 2ec:	6c657869 	stclvs	8, cr7, [r5], #-420	; 0xfffffe5c
 2f0:	554e4700 	strbpl	r4, [lr, #-1792]	; 0xfffff900
 2f4:	39394320 	ldmdbcc	r9!, {r5, r8, r9, lr}
 2f8:	322e3920 	eorcc	r3, lr, #32, 18	; 0x80000
 2fc:	3220312e 	eorcc	r3, r0, #-2147483637	; 0x8000000b
 300:	31393130 	teqcc	r9, r0, lsr r1
 304:	20353230 	eorscs	r3, r5, r0, lsr r2
 308:	6c657228 	sfmvs	f7, 2, [r5], #-160	; 0xffffff60
 30c:	65736165 	ldrbvs	r6, [r3, #-357]!	; 0xfffffe9b
 310:	415b2029 	cmpmi	fp, r9, lsr #32
 314:	612f4d52 			; <UNDEFINED> instruction: 0x612f4d52
 318:	392d6d72 	pushcc	{r1, r4, r5, r6, r8, sl, fp, sp, lr}
 31c:	6172622d 	cmnvs	r2, sp, lsr #4
 320:	2068636e 	rsbcs	r6, r8, lr, ror #6
 324:	69766572 	ldmdbvs	r6!, {r1, r4, r5, r6, r8, sl, sp, lr}^
 328:	6e6f6973 			; <UNDEFINED> instruction: 0x6e6f6973
 32c:	37373220 	ldrcc	r3, [r7, -r0, lsr #4]!
 330:	5d393935 			; <UNDEFINED> instruction: 0x5d393935
 334:	636d2d20 	cmnvs	sp, #32, 26	; 0x800
 338:	613d7570 	teqvs	sp, r0, ror r5
 33c:	31316d72 	teqcc	r1, r2, ror sp
 340:	7a6a3637 	bvc	1a8dc24 <__bss_end__+0x1a83eac>
 344:	20732d66 	rsbscs	r2, r3, r6, ror #26
 348:	75746d2d 	ldrbvc	r6, [r4, #-3373]!	; 0xfffff2d3
 34c:	613d656e 	teqvs	sp, lr, ror #10
 350:	31316d72 	teqcc	r1, r2, ror sp
 354:	7a6a3637 	bvc	1a8dc38 <__bss_end__+0x1a83ec0>
 358:	20732d66 	rsbscs	r2, r3, r6, ror #26
 35c:	6c666d2d 	stclvs	13, cr6, [r6], #-180	; 0xffffff4c
 360:	2d74616f 	ldfcse	f6, [r4, #-444]!	; 0xfffffe44
 364:	3d696261 	sfmcc	f6, 2, [r9, #-388]!	; 0xfffffe7c
 368:	74666f73 	strbtvc	r6, [r6], #-3955	; 0xfffff08d
 36c:	616d2d20 	cmnvs	sp, r0, lsr #26
 370:	2d206d72 	stccs	13, cr6, [r0, #-456]!	; 0xfffffe38
 374:	6372616d 	cmnvs	r2, #1073741851	; 0x4000001b
 378:	72613d68 	rsbvc	r3, r1, #104, 26	; 0x1a00
 37c:	6b36766d 	blvs	d9dd38 <__bss_end__+0xd93fc0>
 380:	672d207a 			; <UNDEFINED> instruction: 0x672d207a
 384:	20626467 	rsbcs	r6, r2, r7, ror #8
 388:	6467672d 	strbtvs	r6, [r7], #-1837	; 0xfffff8d3
 38c:	4f2d2062 	svcmi	0x002d2062
 390:	4f2d2067 	svcmi	0x002d2067
 394:	732d2067 			; <UNDEFINED> instruction: 0x732d2067
 398:	673d6474 			; <UNDEFINED> instruction: 0x673d6474
 39c:	3939756e 	ldmdbcc	r9!, {r1, r2, r3, r5, r6, r8, sl, ip, sp, lr}
 3a0:	74732d20 	ldrbtvc	r2, [r3], #-3360	; 0xfffff2e0
 3a4:	6e673d64 	cdpvs	13, 6, cr3, cr7, cr4, {3}
 3a8:	20393975 	eorscs	r3, r9, r5, ror r9
 3ac:	7266662d 	rsbvc	r6, r6, #47185920	; 0x2d00000
 3b0:	74736565 	ldrbtvc	r6, [r3], #-1381	; 0xfffffa9b
 3b4:	69646e61 	stmdbvs	r4!, {r0, r5, r6, r9, sl, fp, sp, lr}^
 3b8:	7300676e 	movwvc	r6, #1902	; 0x76e
 3bc:	5f657a69 	svcpl	0x00657a69
 3c0:	552f0074 	strpl	r0, [pc, #-116]!	; 354 <__code_start__-0x7cac>
 3c4:	73726573 	cmnvc	r2, #482344960	; 0x1cc00000
 3c8:	6972652f 	ldmdbvs	r2!, {r0, r1, r2, r3, r5, r8, sl, sp, lr}^
 3cc:	61656263 	cmnvs	r5, r3, ror #4
 3d0:	6f442f72 	svcvs	0x00442f72
 3d4:	656d7563 	strbvs	r7, [sp, #-1379]!	; 0xfffffa9d
 3d8:	2f73746e 	svccs	0x0073746e
 3dc:	34315343 	ldrtcc	r5, [r1], #-835	; 0xfffffcbd
 3e0:	632f4530 			; <UNDEFINED> instruction: 0x632f4530
 3e4:	30343173 	eorscc	r3, r4, r3, ror r1
 3e8:	69662d45 	stmdbvs	r6!, {r0, r2, r6, r8, sl, fp, sp}^
 3ec:	2d6c616e 	stfcse	f6, [ip, #-440]!	; 0xfffffe48
 3f0:	6a6f7270 	bvs	1bdcdb8 <__bss_end__+0x1bd3040>
 3f4:	2f746365 	svccs	0x00746365
 3f8:	7362696c 	cmnvc	r2, #108, 18	; 0x1b0000
 3fc:	3034322d 	eorscc	r3, r4, sp, lsr #4
 400:	6c2f786c 	stcvs	8, cr7, [pc], #-432	; 258 <__code_start__-0x7da8>
 404:	69706269 	ldmdbvs	r0!, {r0, r3, r5, r6, r9, sp, lr}^
 408:	6c2f2e00 	stcvs	14, cr2, [pc], #-0	; 410 <__code_start__-0x7bf0>
 40c:	2f636269 	svccs	0x00636269
 410:	736d656d 	cmnvc	sp, #457179136	; 0x1b400000
 414:	632e7465 			; <UNDEFINED> instruction: 0x632e7465
 418:	67726100 	ldrbvs	r6, [r2, -r0, lsl #2]!
 41c:	61760073 	cmnvs	r6, r3, ror r0
 420:	6972705f 	ldmdbvs	r2!, {r0, r1, r2, r3, r4, r6, ip, sp, lr}^
 424:	006b746e 	rsbeq	r7, fp, lr, ror #8
 428:	6e675f5f 	mcrvs	15, 3, r5, cr7, cr15, {2}
 42c:	765f6375 			; <UNDEFINED> instruction: 0x765f6375
 430:	696c5f61 	stmdbvs	ip!, {r0, r5, r6, r8, r9, sl, fp, ip, lr}^
 434:	5f007473 	svcpl	0x00007473
 438:	0070615f 	rsbseq	r6, r0, pc, asr r1
 43c:	696c2f2e 	stmdbvs	ip!, {r1, r2, r3, r5, r8, r9, sl, fp, sp}^
 440:	702f6362 	eorvc	r6, pc, r2, ror #6
 444:	746e6972 	strbtvc	r6, [lr], #-2418	; 0xfffff68e
 448:	00632e6b 	rsbeq	r2, r3, fp, ror #28
 44c:	61765f5f 	cmnvs	r6, pc, asr pc
 450:	73696c5f 	cmnvc	r9, #24320	; 0x5f00
 454:	6e690074 	mcrvs	0, 3, r0, cr9, cr4, {3}
 458:	6e726574 	mrcvs	5, 3, r6, cr2, cr4, {3}
 45c:	705f6c61 	subsvc	r6, pc, r1, ror #24
 460:	006b7475 	rsbeq	r7, fp, r5, ror r4
 464:	696c2f2e 	stmdbvs	ip!, {r1, r2, r3, r5, r8, r9, sl, fp, sp}^
 468:	702f6362 	eorvc	r6, pc, r2, ror #6
 46c:	2e6b7475 	mcrcs	4, 3, r7, cr11, cr5, {3}
 470:	73690063 	cmnvc	r9, #99, 0	; 0x63
 474:	69676964 	stmdbvs	r7!, {r2, r5, r6, r8, fp, sp, lr}^
 478:	69750074 	ldmdbvs	r5!, {r2, r4, r5, r6}^
 47c:	3436746e 	ldrtcc	r7, [r6], #-1134	; 0xfffffb92
 480:	2e00745f 	cfmvsrcs	mvf0, r7
 484:	62696c2f 	rsbvs	r6, r9, #12032	; 0x2f00
 488:	61762f63 	cmnvs	r6, r3, ror #30
 48c:	6972702d 	ldmdbvs	r2!, {r0, r2, r3, r5, ip, sp, lr}^
 490:	2e6b746e 	cdpcs	4, 6, cr7, cr11, cr14, {3}
 494:	5f5f0063 	svcpl	0x005f0063
 498:	65646f63 	strbvs	r6, [r4, #-3939]!	; 0xfffff09d
 49c:	6174735f 	cmnvs	r4, pc, asr r3
 4a0:	5f5f7472 	svcpl	0x005f7472
 4a4:	625f5f00 	subsvs	r5, pc, #0, 30
 4a8:	735f7373 	cmpvc	pc, #-872415231	; 0xcc000001
 4ac:	74726174 	ldrbtvc	r6, [r2], #-372	; 0xfffffe8c
 4b0:	77005f5f 	smlsdvc	r0, pc, pc, r5	; <UNPREDICTABLE>
 4b4:	68746469 	ldmdavs	r4!, {r0, r3, r5, r6, sl, sp, lr}^
 4b8:	656c6300 	strbvs	r6, [ip, #-768]!	; 0xfffffd00
 4bc:	725f6e61 	subsvc	r6, pc, #1552	; 0x610
 4c0:	6f6f6265 	svcvs	0x006f6265
 4c4:	5f5f0074 	svcpl	0x005f0074
 4c8:	61746164 	cmnvs	r4, r4, ror #2
 4cc:	646e655f 	strbtvs	r6, [lr], #-1375	; 0xfffffaa1
 4d0:	70005f5f 	andvc	r5, r0, pc, asr pc
 4d4:	5f637475 	svcpl	0x00637475
 4d8:	5f007066 	svcpl	0x00007066
 4dc:	7373625f 	cmnvc	r3, #-268435451	; 0xf0000005
 4e0:	646e655f 	strbtvs	r6, [lr], #-1375	; 0xfffffaa1
 4e4:	5f005f5f 	svcpl	0x00005f5f
 4e8:	6165685f 	cmnvs	r5, pc, asr r8
 4ec:	74735f70 	ldrbtvc	r5, [r3], #-3952	; 0xfffff090
 4f0:	5f747261 	svcpl	0x00747261
 4f4:	7072005f 	rsbsvc	r0, r2, pc, asr r0
 4f8:	65735f69 	ldrbvs	r5, [r3, #-3945]!	; 0xfffff097
 4fc:	756f5f74 	strbvc	r5, [pc, #-3956]!	; fffff590 <__bss_end__+0xffff5818>
 500:	74757074 	ldrbtvc	r7, [r5], #-116	; 0xffffff8c
 504:	746d6600 	strbtvc	r6, [sp], #-1536	; 0xfffffa00
 508:	6174735f 	cmnvs	r4, pc, asr r3
 50c:	73007472 	movwvc	r7, #1138	; 0x472
 510:	70637274 	rsbvc	r7, r3, r4, ror r2
 514:	656e0079 	strbvs	r0, [lr, #-121]!	; 0xffffff87
 518:	00705f67 	rsbseq	r5, r0, r7, ror #30
 51c:	316d756e 	cmncc	sp, lr, ror #10
 520:	635f5f00 	cmpvs	pc, #0, 30
 524:	5f65646f 	svcpl	0x0065646f
 528:	5f646e65 	svcpl	0x00646e65
 52c:	6d65005f 	stclvs	0, cr0, [r5, #-380]!	; 0xfffffe84
 530:	70007469 	andvc	r7, r0, r9, ror #8
 534:	5f737475 	svcpl	0x00737475
 538:	72007066 	andvc	r7, r0, #102, 0	; 0x66
 53c:	72657665 	rsbvc	r7, r5, #105906176	; 0x6500000
 540:	73006573 	movwvc	r6, #1395	; 0x573
 544:	61637274 	smcvs	14116	; 0x3724
 548:	74730074 	ldrbtvc	r0, [r3], #-116	; 0xffffff8c
 54c:	706d6372 	rsbvc	r6, sp, r2, ror r3
 550:	645f5f00 	ldrbvs	r5, [pc], #-3840	; 558 <__code_start__-0x7aa8>
 554:	5f617461 	svcpl	0x00617461
 558:	72617473 	rsbvc	r7, r1, #1929379840	; 0x73000000
 55c:	005f5f74 	subseq	r5, pc, r4, ror pc	; <UNPREDICTABLE>
 560:	72705f5f 	rsbsvc	r5, r0, #380	; 0x17c
 564:	655f676f 	ldrbvs	r6, [pc, #-1903]	; fffffdfd <__bss_end__+0xffff6085>
 568:	5f5f646e 	svcpl	0x005f646e
 56c:	72747300 	rsbsvc	r7, r4, #0, 6
 570:	706d636e 	rsbvc	r6, sp, lr, ror #6
 574:	73616200 	cmnvc	r1, #0, 4
 578:	69730065 	ldmdbvs	r3!, {r0, r2, r5, r6}^
 57c:	64656e67 	strbtvs	r6, [r5], #-3687	; 0xfffff199
 580:	6400705f 	strvs	r7, [r0], #-95	; 0xffffffa1
 584:	62617369 	rsbvs	r7, r1, #-1543503871	; 0xa4000001
 588:	635f656c 	cmpvs	pc, #108, 10	; 0x1b000000
 58c:	65686361 	strbvs	r6, [r8, #-865]!	; 0xfffffc9f
 590:	732f2e00 			; <UNDEFINED> instruction: 0x732f2e00
 594:	66666174 			; <UNDEFINED> instruction: 0x66666174
 598:	6372732d 	cmnvs	r2, #-1275068416	; 0xb4000000
 59c:	6361632f 	cmnvs	r1, #-1140850688	; 0xbc000000
 5a0:	632e6568 			; <UNDEFINED> instruction: 0x632e6568
 5a4:	69707200 	ldmdbvs	r0!, {r9, ip, sp, lr}^
 5a8:	6265725f 	rsbvs	r7, r5, #-268435451	; 0xf0000005
 5ac:	00746f6f 	rsbseq	r6, r4, pc, ror #30
 5b0:	74732f2e 	ldrbtvc	r2, [r3], #-3886	; 0xfffff0d2
 5b4:	2d666661 	stclcs	6, cr6, [r6, #-388]!	; 0xfffffe7c
 5b8:	2f637273 	svccs	0x00637273
 5bc:	61656c63 	cmnvs	r5, r3, ror #24
 5c0:	65722d6e 	ldrbvs	r2, [r2, #-3438]!	; 0xfffff292
 5c4:	746f6f62 	strbtvc	r6, [pc], #-3938	; 5cc <__code_start__-0x7a34>
 5c8:	7500632e 	strvc	r6, [r0, #-814]	; 0xfffffcd2
 5cc:	5f747261 	svcpl	0x00747261
 5d0:	73756c66 	cmnvc	r5, #26112	; 0x6600
 5d4:	78745f68 	ldmdavc	r4!, {r3, r5, r6, r8, r9, sl, fp, ip, lr}^
 5d8:	73635f00 	cmnvc	r3, #0, 30
 5dc:	74726174 	ldrbtvc	r6, [r2], #-372	; 0xfffffe8c
 5e0:	73736200 	cmnvc	r3, #0, 4
 5e4:	646e655f 	strbtvs	r6, [lr], #-1375	; 0xfffffaa1
 5e8:	72617500 	rsbvc	r7, r1, #0, 10
 5ec:	6e695f74 	mcrvs	15, 3, r5, cr9, cr4, {3}
 5f0:	63007469 	movwvs	r7, #1129	; 0x469
 5f4:	6f747375 	svcvs	0x00747375
 5f8:	6f6c5f6d 	svcvs	0x006c5f6d
 5fc:	72656461 	rsbvc	r6, r5, #1627389952	; 0x61000000
 600:	732f2e00 			; <UNDEFINED> instruction: 0x732f2e00
 604:	66666174 			; <UNDEFINED> instruction: 0x66666174
 608:	6372732d 	cmnvs	r2, #-1275068416	; 0xb4000000
 60c:	7473632f 	ldrbtvc	r6, [r3], #-815	; 0xfffffcd1
 610:	2e747261 	cdpcs	2, 7, cr7, cr4, cr1, {3}
 614:	2f2e0063 	svccs	0x002e0063
 618:	66617473 			; <UNDEFINED> instruction: 0x66617473
 61c:	72732d66 	rsbsvc	r2, r3, #6528	; 0x1980
 620:	75632f63 	strbvc	r2, [r3, #-3939]!	; 0xfffff09d
 624:	6d6f7473 	cfstrdvs	mvd7, [pc, #-460]!	; 460 <__code_start__-0x7ba0>
 628:	616f6c2d 	cmnvs	pc, sp, lsr #24
 62c:	2e726564 	cdpcs	5, 7, cr6, cr2, cr4, {3}
 630:	65720063 	ldrbvs	r0, [r2, #-99]!	; 0xffffff9d
 634:	746f6f62 	strbtvc	r6, [pc], #-3938	; 63c <__code_start__-0x79c4>
 638:	6c61635f 	stclvs	3, cr6, [r1], #-380	; 0xfffffe84
 63c:	74756f6c 	ldrbtvc	r6, [r5], #-3948	; 0xfffff094
 640:	5f4d5000 	svcpl	0x004d5000
 644:	474f4457 	smlsldmi	r4, pc, r7, r4	; <UNPREDICTABLE>
 648:	54555000 	ldrbpl	r5, [r5], #-0
 64c:	73003233 	movwvc	r3, #563	; 0x233
 650:	755f7465 	ldrbvc	r7, [pc, #-1125]	; 1f3 <__code_start__-0x7e0d>
 654:	5f726573 	svcpl	0x00726573
 658:	6576656c 	ldrbvs	r6, [r6, #-1388]!	; 0xfffffa94
 65c:	2f2e006c 	svccs	0x002e006c
 660:	66617473 			; <UNDEFINED> instruction: 0x66617473
 664:	72732d66 	rsbsvc	r2, r3, #6528	; 0x1980
 668:	65722f63 	ldrbvs	r2, [r2, #-3939]!	; 0xfffff09d
 66c:	746f6f62 	strbtvc	r6, [pc], #-3938	; 674 <__code_start__-0x798c>
 670:	5000632e 	andpl	r6, r0, lr, lsr #6
 674:	41505f4d 	cmpmi	r0, sp, asr #30
 678:	4f575353 	svcmi	0x00575353
 67c:	61004452 	tstvs	r0, r2, asr r4
 680:	73755f74 	cmnvc	r5, #116, 30	; 0x1d0
 684:	6c5f7265 	lfmvs	f7, 2, [pc], {101}	; 0x65
 688:	6c657665 	stclvs	6, cr7, [r5], #-404	; 0xfffffe6c
 68c:	5f4d5000 	svcpl	0x004d5000
 690:	43545352 	cmpmi	r4, #1207959553	; 0x48000001
 694:	4352575f 	cmpmi	r2, #24903680	; 0x17c0000
 698:	465f4746 	ldrbmi	r4, [pc], -r6, asr #14
 69c:	5f4c4c55 	svcpl	0x004c4c55
 6a0:	45534552 	ldrbmi	r4, [r3, #-1362]	; 0xfffffaae
 6a4:	4d500054 	ldclmi	0, cr0, [r0, #-336]	; 0xfffffeb0
 6a8:	5453525f 	ldrbpl	r5, [r3], #-607	; 0xfffffda1
 6ac:	70630043 	rsbvc	r0, r3, r3, asr #32
 6b0:	64007273 	strvs	r7, [r0], #-627	; 0xfffffd8d
 6b4:	625f7665 	subsvs	r7, pc, #105906176	; 0x6500000
 6b8:	69727261 	ldmdbvs	r2!, {r0, r5, r6, r9, ip, sp, lr}^
 6bc:	64007265 	strvs	r7, [r0], #-613	; 0xfffffd9b
 6c0:	79616c65 	stmdbvc	r1!, {r0, r2, r5, r6, sl, fp, sp, lr}^
 6c4:	6365735f 	cmnvs	r5, #2080374785	; 0x7c000001
 6c8:	732f2e00 			; <UNDEFINED> instruction: 0x732f2e00
 6cc:	66666174 			; <UNDEFINED> instruction: 0x66666174
 6d0:	6372732d 	cmnvs	r2, #-1275068416	; 0xb4000000
 6d4:	6d69742f 	cfstrdvs	mvd7, [r9, #-188]!	; 0xffffff44
 6d8:	632e7265 			; <UNDEFINED> instruction: 0x632e7265
 6dc:	54454700 	strbpl	r4, [r5], #-1792	; 0xfffff900
 6e0:	74003233 	strvc	r3, [r0], #-563	; 0xfffffdcd
 6e4:	72656d69 	rsbvc	r6, r5, #6720	; 0x1a40
 6e8:	7465675f 	strbtvc	r6, [r5], #-1887	; 0xfffff8a1
 6ec:	6573755f 	ldrbvs	r7, [r3, #-1375]!	; 0xfffffaa1
 6f0:	65640063 	strbvs	r0, [r4, #-99]!	; 0xffffff9d
 6f4:	5f79616c 	svcpl	0x0079616c
 6f8:	74007375 	strvc	r7, [r0], #-885	; 0xfffffc8b
 6fc:	72656d69 	rsbvc	r6, r5, #6720	; 0x1a40
 700:	7465675f 	strbtvc	r6, [r5], #-1887	; 0xfffff8a1
 704:	6573755f 	ldrbvs	r7, [r3, #-1375]!	; 0xfffffaa1
 708:	61725f63 	cmnvs	r2, r3, ror #30
 70c:	70670077 	rsbvc	r0, r7, r7, ror r0
 710:	635f6f69 	cmpvs	pc, #420	; 0x1a4
 714:	0030726c 	eorseq	r7, r0, ip, ror #4
 718:	6f697067 	svcvs	0x00697067
 71c:	7465735f 	strbtvc	r7, [r5], #-863	; 0xfffffca1
 720:	70670030 	rsbvc	r0, r7, r0, lsr r0
 724:	775f6f69 	ldrbvc	r6, [pc, -r9, ror #30]
 728:	65746972 	ldrbvs	r6, [r4, #-2418]!	; 0xfffff68e
 72c:	49504700 	ldmdbmi	r0, {r8, r9, sl, lr}^
 730:	55465f4f 	strbpl	r5, [r6, #-3919]	; 0xfffff0b1
 734:	4f5f434e 	svcmi	0x005f434e
 738:	55505455 	ldrbpl	r5, [r0, #-1109]	; 0xfffffbab
 73c:	45440054 	strbmi	r0, [r4, #-84]	; 0xffffffac
 740:	41565f56 	cmpmi	r6, r6, asr pc
 744:	0032334c 	eorseq	r3, r2, ip, asr #6
 748:	6f697067 	svcvs	0x00697067
 74c:	6165725f 	cmnvs	r5, pc, asr r2
 750:	50470064 	subpl	r0, r7, r4, rrx
 754:	465f4f49 	ldrbmi	r4, [pc], -r9, asr #30
 758:	5f434e55 	svcpl	0x00434e55
 75c:	30544c41 	subscc	r4, r4, r1, asr #24
 760:	49504700 	ldmdbmi	r0, {r8, r9, sl, lr}^
 764:	55465f4f 	strbpl	r5, [r6, #-3919]	; 0xfffff0b1
 768:	415f434e 	cmpmi	pc, lr, asr #6
 76c:	0031544c 	eorseq	r5, r1, ip, asr #8
 770:	4f495047 	svcmi	0x00495047
 774:	4e55465f 	mrcmi	6, 2, r4, cr5, cr15, {2}
 778:	4c415f43 	mcrrmi	15, 4, r5, r1, cr3
 77c:	47003254 	smlsdmi	r0, r4, r2, r3
 780:	5f4f4950 	svcpl	0x004f4950
 784:	434e5546 	movtmi	r5, #58694	; 0xe546
 788:	544c415f 	strbpl	r4, [ip], #-351	; 0xfffffea1
 78c:	50470033 	subpl	r0, r7, r3, lsr r0
 790:	465f4f49 	ldrbmi	r4, [pc], -r9, asr #30
 794:	5f434e55 	svcpl	0x00434e55
 798:	35544c41 	ldrbcc	r4, [r4, #-3137]	; 0xfffff3bf
 79c:	69706700 	ldmdbvs	r0!, {r8, r9, sl, sp, lr}^
 7a0:	65735f6f 	ldrbvs	r5, [r3, #-3951]!	; 0xfffff091
 7a4:	6e695f74 	mcrvs	15, 3, r5, cr9, cr4, {3}
 7a8:	00747570 	rsbseq	r7, r4, r0, ror r5
 7ac:	6d6f682f 	stclvs	8, cr6, [pc, #-188]!	; 6f8 <__code_start__-0x7908>
 7b0:	6e652f65 	cdpvs	15, 6, cr2, cr5, cr5, {3}
 7b4:	72656c67 	rsbvc	r6, r5, #26368	; 0x6700
 7b8:	616c632f 	cmnvs	ip, pc, lsr #6
 7bc:	632f7373 			; <UNDEFINED> instruction: 0x632f7373
 7c0:	30343273 	eorscc	r3, r4, r3, ror r2
 7c4:	322d786c 	eorcc	r7, sp, #108, 16	; 0x6c0000
 7c8:	72707332 	rsbsvc	r7, r0, #-939524096	; 0xc8000000
 7cc:	62696c2f 	rsbvs	r6, r9, #12032	; 0x2f00
 7d0:	732f6970 			; <UNDEFINED> instruction: 0x732f6970
 7d4:	66666174 			; <UNDEFINED> instruction: 0x66666174
 7d8:	6972702d 	ldmdbvs	r2!, {r0, r2, r3, r5, ip, sp, lr}^
 7dc:	65746176 	ldrbvs	r6, [r4, #-374]!	; 0xfffffe8a
 7e0:	69706700 	ldmdbvs	r0!, {r8, r9, sl, sp, lr}^
 7e4:	65735f6f 	ldrbvs	r5, [r3, #-3951]!	; 0xfffff091
 7e8:	666f5f74 	uqsub16vs	r5, pc, r4	; <UNPREDICTABLE>
 7ec:	75660066 	strbvc	r0, [r6, #-102]!	; 0xffffff9a
 7f0:	6700636e 	strvs	r6, [r0, -lr, ror #6]
 7f4:	5f6f6970 	svcpl	0x006f6970
 7f8:	636e7566 	cmnvs	lr, #427819008	; 0x19800000
 7fc:	4700745f 	smlsdmi	r0, pc, r4, r7	; <UNPREDICTABLE>
 800:	4320554e 			; <UNDEFINED> instruction: 0x4320554e
 804:	31203939 			; <UNDEFINED> instruction: 0x31203939
 808:	2e332e30 	mrccs	14, 1, r2, cr3, cr0, {1}
 80c:	30322031 	eorscc	r2, r2, r1, lsr r0
 810:	38303132 	ldmdacc	r0!, {r1, r4, r5, r8, ip, sp}
 814:	28203432 	stmdacs	r0!, {r1, r4, r5, sl, ip, sp}
 818:	656c6572 	strbvs	r6, [ip, #-1394]!	; 0xfffffa8e
 81c:	29657361 	stmdbcs	r5!, {r0, r5, r6, r8, r9, ip, sp, lr}^
 820:	636d2d20 	cmnvs	sp, #32, 26	; 0x800
 824:	613d7570 	teqvs	sp, r0, ror r5
 828:	31316d72 	teqcc	r1, r2, ror sp
 82c:	7a6a3637 	bvc	1a8e110 <__bss_end__+0x1a84398>
 830:	20732d66 	rsbscs	r2, r3, r6, ror #26
 834:	75746d2d 	ldrbvc	r6, [r4, #-3373]!	; 0xfffff2d3
 838:	613d656e 	teqvs	sp, lr, ror #10
 83c:	31316d72 	teqcc	r1, r2, ror sp
 840:	7a6a3637 	bvc	1a8e124 <__bss_end__+0x1a843ac>
 844:	20732d66 	rsbscs	r2, r3, r6, ror #26
 848:	6c666d2d 	stclvs	13, cr6, [r6], #-180	; 0xffffff4c
 84c:	2d74616f 	ldfcse	f6, [r4, #-444]!	; 0xfffffe44
 850:	3d696261 	sfmcc	f6, 2, [r9, #-388]!	; 0xfffffe7c
 854:	74666f73 	strbtvc	r6, [r6], #-3955	; 0xfffff08d
 858:	616d2d20 	cmnvs	sp, r0, lsr #26
 85c:	2d206d72 	stccs	13, cr6, [r0, #-456]!	; 0xfffffe38
 860:	6372616d 	cmnvs	r2, #1073741851	; 0x4000001b
 864:	72613d68 	rsbvc	r3, r1, #104, 26	; 0x1a00
 868:	6b36766d 	blvs	d9e224 <__bss_end__+0xd944ac>
 86c:	672d207a 			; <UNDEFINED> instruction: 0x672d207a
 870:	20626467 	rsbcs	r6, r2, r7, ror #8
 874:	20674f2d 	rsbcs	r4, r7, sp, lsr #30
 878:	6474732d 	ldrbtvs	r7, [r4], #-813	; 0xfffffcd3
 87c:	756e673d 	strbvc	r6, [lr, #-1853]!	; 0xfffff8c3
 880:	2d203939 			; <UNDEFINED> instruction: 0x2d203939
 884:	65726666 	ldrbvs	r6, [r2, #-1638]!	; 0xfffff99a
 888:	61747365 	cmnvs	r4, r5, ror #6
 88c:	6e69646e 	cdpvs	4, 6, cr6, cr9, cr14, {3}
 890:	70670067 	rsbvc	r0, r7, r7, rrx
 894:	6c5f6f69 	mrrcvs	15, 6, r6, pc, cr9	; <UNPREDICTABLE>
 898:	00307665 	eorseq	r7, r0, r5, ror #12
 89c:	4f495047 	svcmi	0x00495047
 8a0:	4e55465f 	mrcmi	6, 2, r4, cr5, cr15, {2}
 8a4:	4c415f43 	mcrrmi	15, 4, r5, r1, cr3
 8a8:	62003454 	andvs	r3, r0, #84, 8	; 0x54000000
 8ac:	006b6e61 	rsbeq	r6, fp, r1, ror #28
 8b0:	6f697067 	svcvs	0x00697067
 8b4:	4700632e 	strmi	r6, [r0, -lr, lsr #6]
 8b8:	5f4f4950 	svcpl	0x004f4950
 8bc:	434e5546 	movtmi	r5, #58694	; 0xe546
 8c0:	504e495f 	subpl	r4, lr, pc, asr r9
 8c4:	67005455 	smlsdvs	r0, r5, r4, r5
 8c8:	5f6f6970 	svcpl	0x006f6970
 8cc:	5f746573 	svcpl	0x00746573
 8d0:	636e7566 	cmnvs	lr, #427819008	; 0x19800000
 8d4:	6e6f6974 			; <UNDEFINED> instruction: 0x6e6f6974
 8d8:	69706700 	ldmdbvs	r0!, {r8, r9, sl, sp, lr}^
 8dc:	65735f6f 	ldrbvs	r5, [r3, #-3951]!	; 0xfffff091
 8e0:	6e6f5f74 	mcrvs	15, 3, r5, cr15, cr4, {3}
 8e4:	74757000 	ldrbtvc	r7, [r5], #-0
 8e8:	62003233 	andvs	r3, r0, #805306371	; 0x30000003
 8ec:	5f647561 	svcpl	0x00647561
 8f0:	006c6176 	rsbeq	r6, ip, r6, ror r1
 8f4:	74617473 	strbtvc	r7, [r1], #-1139	; 0xfffffb8d
 8f8:	72617500 	rsbvc	r7, r1, #0, 10
 8fc:	61635f74 	smcvs	13812	; 0x35f4
 900:	65675f6e 	strbvs	r5, [r7, #-3950]!	; 0xfffff092
 904:	61006374 	tstvs	r0, r4, ror r3
 908:	705f7875 	subsvc	r7, pc, r5, ror r8	; <UNPREDICTABLE>
 90c:	70697265 	rsbvc	r7, r9, r5, ror #4
 910:	75007368 	strvc	r7, [r0, #-872]	; 0xfffffc98
 914:	2e747261 	cdpcs	2, 7, cr7, cr4, cr1, {3}
 918:	61750063 	cmnvs	r5, r3, rrx
 91c:	635f7472 	cmpvs	pc, #1912602624	; 0x72000000
 920:	705f6e61 	subsvc	r6, pc, r1, ror #28
 924:	00637475 	rsbeq	r7, r3, r5, ror r4
 928:	74726175 	ldrbtvc	r6, [r2], #-373	; 0xfffffe8b
 92c:	5f78745f 	svcpl	0x0078745f
 930:	655f7369 	ldrbvs	r7, [pc, #-873]	; 5cf <__code_start__-0x7a31>
 934:	7974706d 	ldmdbvc	r4!, {r0, r2, r3, r5, r6, ip, sp, lr}^
 938:	75616200 	strbvc	r6, [r1, #-512]!	; 0xfffffe00
 93c:	75610064 	strbvc	r0, [r1, #-100]!	; 0xffffff9c
 940:	6e655f78 	mcrvs	15, 3, r5, cr5, cr8, {3}
 944:	656c6261 	strbvs	r6, [ip, #-609]!	; 0xfffffd9f
 948:	61750073 	cmnvs	r5, r3, ror r0
 94c:	675f7472 			; <UNDEFINED> instruction: 0x675f7472
 950:	00637465 	rsbeq	r7, r3, r5, ror #8
 954:	6c746e63 	ldclvs	14, cr6, [r4], #-396	; 0xfffffe74
 958:	72617500 	rsbvc	r7, r1, #0, 10
 95c:	69645f74 	stmdbvs	r4!, {r2, r4, r5, r6, r8, r9, sl, fp, ip, lr}^
 960:	6c626173 	stfvse	f6, [r2], #-460	; 0xfffffe34
 964:	61750065 	cmnvs	r5, r5, rrx
 968:	685f7472 	ldmdavs	pc, {r1, r4, r5, r6, sl, ip, sp, lr}^	; <UNPREDICTABLE>
 96c:	645f7361 	ldrbvs	r7, [pc], #-865	; 974 <__code_start__-0x768c>
 970:	00617461 	rsbeq	r7, r1, r1, ror #8
 974:	695f726f 	ldmdbvs	pc, {r0, r1, r2, r3, r5, r6, r9, ip, sp, lr}^	; <UNPREDICTABLE>
 978:	0032336e 	eorseq	r3, r2, lr, ror #6
 97c:	61726373 	cmnvs	r2, r3, ror r3
 980:	00686374 	rsbeq	r6, r8, r4, ror r3
 984:	74726175 	ldrbtvc	r6, [r2], #-373	; 0xfffffe8b
 988:	646e6100 	strbtvs	r6, [lr], #-256	; 0xffffff00
 98c:	336e695f 	cmncc	lr, #1556480	; 0x17c000
 990:	61750032 	cmnvs	r5, r2, lsr r0
 994:	705f7472 	subsvc	r7, pc, r2, ror r4	; <UNPREDICTABLE>
 998:	00637475 	rsbeq	r7, r3, r5, ror r4
 99c:	33746567 	cmncc	r4, #432013312	; 0x19c00000
 9a0:	6d6b0032 	stclvs	0, cr0, [fp, #-200]!	; 0xffffff38
 9a4:	6f6c6c61 	svcvs	0x006c6c61
 9a8:	65685f63 	strbvs	r5, [r8, #-3939]!	; 0xfffff09d
 9ac:	735f7061 	cmpvc	pc, #97, 0	; 0x61
 9b0:	74726174 	ldrbtvc	r6, [r2], #-372	; 0xfffffe8c
 9b4:	78616d00 	stmdavc	r1!, {r8, sl, fp, sp, lr}^
 9b8:	79626e5f 	stmdbvc	r2!, {r0, r1, r2, r3, r4, r6, r9, sl, fp, sp, lr}^
 9bc:	00736574 	rsbseq	r6, r3, r4, ror r5
 9c0:	6464615f 	strbtvs	r6, [r4], #-351	; 0xfffffea1
 9c4:	666b0072 			; <UNDEFINED> instruction: 0x666b0072
 9c8:	00656572 	rsbeq	r6, r5, r2, ror r5
 9cc:	70616568 	rsbvc	r6, r1, r8, ror #10
 9d0:	78616d5f 	stmdavc	r1!, {r0, r1, r2, r3, r4, r6, r8, sl, fp, sp, lr}^
 9d4:	72666b00 	rsbvc	r6, r6, #0, 22
 9d8:	615f6565 	cmpvs	pc, r5, ror #10
 9dc:	72006c6c 	andvc	r6, r0, #108, 24	; 0x6c00
 9e0:	646e756f 	strbtvs	r7, [lr], #-1391	; 0xfffffa91
 9e4:	68007075 	stmdavs	r0, {r0, r2, r4, r5, r6, ip, sp, lr}
 9e8:	00706165 	rsbseq	r6, r0, r5, ror #2
 9ec:	74696e69 	strbtvc	r6, [r9], #-3689	; 0xfffff197
 9f0:	6b00705f 	blvs	1cb74 <__bss_end__+0x12dfc>
 9f4:	65657266 	strbvs	r7, [r5, #-614]!	; 0xfffffd9a
 9f8:	706f705f 	rsbvc	r7, pc, pc, asr r0	; <UNPREDICTABLE>
 9fc:	696c6100 	stmdbvs	ip!, {r8, sp, lr}^
 a00:	656d6e67 	strbvs	r6, [sp, #-3687]!	; 0xfffff199
 a04:	6d00746e 	cfstrsvs	mvf7, [r0, #-440]	; 0xfffffe48
 a08:	755f7861 	ldrbvc	r7, [pc, #-2145]	; 1af <__code_start__-0x7e51>
 a0c:	4f003233 	svcmi	0x00003233
 a10:	424d656e 	submi	r6, sp, #461373440	; 0x1b800000
 a14:	616d6b00 	cmnvs	sp, r0, lsl #22
 a18:	636f6c6c 	cmnvs	pc, #108, 24	; 0x6c00
 a1c:	6165685f 	cmnvs	r5, pc, asr r8
 a20:	6e655f70 	mcrvs	15, 3, r5, cr5, cr0, {3}
 a24:	6d6b0064 	stclvs	0, cr0, [fp, #-400]!	; 0xfffffe70
 a28:	6f6c6c61 	svcvs	0x006c6c61
 a2c:	6f6e5f63 	svcvs	0x006e5f63
 a30:	72657a74 	rsbvc	r7, r5, #116, 20	; 0x74000
 a34:	7369006f 	cmnvc	r9, #111, 0	; 0x6f
 a38:	776f705f 			; <UNDEFINED> instruction: 0x776f705f
 a3c:	6d6b0032 	stclvs	0, cr0, [fp, #-200]!	; 0xffffff38
 a40:	6f6c6c61 	svcvs	0x006c6c61
 a44:	00632e63 	rsbeq	r2, r3, r3, ror #28
 a48:	6c616d6b 	stclvs	13, cr6, [r1], #-428	; 0xfffffe54
 a4c:	5f636f6c 	svcpl	0x00636f6c
 a50:	74696e69 	strbtvc	r6, [r9], #-3689	; 0xfffff197
 a54:	5f736900 	svcpl	0x00736900
 a58:	67696c61 	strbvs	r6, [r9, -r1, ror #24]!
 a5c:	0064656e 	rsbeq	r6, r4, lr, ror #10
 a60:	62756f64 	rsbsvs	r6, r5, #100, 30	; 0x190
 a64:	6b00656c 	blvs	1a01c <__bss_end__+0x102a4>
 a68:	6c6c616d 	stfvse	f6, [ip], #-436	; 0xfffffe4c
 a6c:	685f636f 	ldmdavs	pc, {r0, r1, r2, r3, r5, r6, r8, r9, sp, lr}^	; <UNPREDICTABLE>
 a70:	5f706165 	svcpl	0x00706165
 a74:	00727470 	rsbseq	r7, r2, r0, ror r4
 a78:	6c616d6b 	stclvs	13, cr6, [r1], #-428	; 0xfffffe54
 a7c:	5f636f6c 	svcpl	0x00636f6c
 a80:	74696e69 	strbtvc	r6, [r9], #-3689	; 0xfffff197
 a84:	7465735f 	strbtvc	r7, [r5], #-863	; 0xfffffca1
 a88:	6174735f 	cmnvs	r4, pc, asr r3
 a8c:	72007472 	andvc	r7, r0, #1912602624	; 0x72000000
 a90:	725f6970 	subsvc	r6, pc, #112, 18	; 0x1c0000
 a94:	74657365 	strbtvc	r7, [r5], #-869	; 0xfffffc9b
 a98:	7475705f 	ldrbtvc	r7, [r5], #-95	; 0xffffffa1
 a9c:	6d6b0063 	stclvs	0, cr0, [fp, #-396]!	; 0xfffffe74
 aa0:	6f6c6c61 	svcvs	0x006c6c61
 aa4:	6c615f63 	stclvs	15, cr5, [r1], #-396	; 0xfffffe74
 aa8:	656e6769 	strbvs	r6, [lr, #-1897]!	; 0xfffff897
 aac:	6e690064 	cdpvs	0, 6, cr0, cr9, cr4, {3}
 ab0:	6e726574 	mrcvs	5, 3, r6, cr2, cr4, {3}
 ab4:	705f6c61 	subsvc	r6, pc, r1, ror #24
 ab8:	68637475 	stmdavs	r3!, {r0, r2, r4, r5, r6, sl, ip, sp, lr}^
 abc:	72007261 	andvc	r7, r0, #268435462	; 0x10000006
 ac0:	735f6970 	cmpvc	pc, #112, 18	; 0x1c0000
 ac4:	705f7465 	subsvc	r7, pc, r5, ror #8
 ac8:	00637475 	rsbeq	r7, r3, r5, ror r4
 acc:	696c2f2e 	stmdbvs	ip!, {r1, r2, r3, r5, r8, r9, sl, fp, sp}^
 ad0:	702f6362 	eorvc	r6, pc, r2, ror #6
 ad4:	68637475 	stmdavs	r3!, {r0, r2, r4, r5, r6, sl, ip, sp, lr}^
 ad8:	632e7261 			; <UNDEFINED> instruction: 0x632e7261
 adc:	73656400 	cmnvc	r5, #0, 8
 ae0:	2f2e0074 	svccs	0x002e0074
 ae4:	6362696c 	cmnvs	r2, #108, 18	; 0x1b0000
 ae8:	7274732f 	rsbsvc	r7, r4, #-1140850688	; 0xbc000000
 aec:	2e746163 	rpwcssz	f6, f4, f3
 af0:	2f2e0063 	svccs	0x002e0063
 af4:	6362696c 	cmnvs	r2, #108, 18	; 0x1b0000
 af8:	7274732f 	rsbsvc	r7, r4, #-1140850688	; 0xbc000000
 afc:	2e706d63 	cdpcs	13, 7, cr6, cr0, cr3, {3}
 b00:	2f2e0063 	svccs	0x002e0063
 b04:	6362696c 	cmnvs	r2, #108, 18	; 0x1b0000
 b08:	7274732f 	rsbsvc	r7, r4, #-1140850688	; 0xbc000000
 b0c:	2e797063 	cdpcs	0, 7, cr7, cr9, cr3, {3}
 b10:	2f2e0063 	svccs	0x002e0063
 b14:	6362696c 	cmnvs	r2, #108, 18	; 0x1b0000
 b18:	7274732f 	rsbsvc	r7, r4, #-1140850688	; 0xbc000000
 b1c:	706d636e 	rsbvc	r6, sp, lr, ror #6
 b20:	2e00632e 	cdpcs	3, 0, cr6, cr0, cr14, {1}
 b24:	6174732f 	cmnvs	r4, pc, lsr #6
 b28:	732d6666 			; <UNDEFINED> instruction: 0x732d6666
 b2c:	642f6372 	strtvs	r6, [pc], #-882	; b34 <__code_start__-0x74cc>
 b30:	75616665 	strbvc	r6, [r1, #-1637]!	; 0xfffff99b
 b34:	722d746c 	eorvc	r7, sp, #108, 8	; 0x6c000000
 b38:	6f6f6265 	svcvs	0x006f6265
 b3c:	61632d74 	smcvs	13012	; 0x32d4
 b40:	756f6c6c 	strbvc	r6, [pc, #-3180]!	; fffffedc <__bss_end__+0xffff6164>
 b44:	00632e74 	rsbeq	r2, r3, r4, ror lr

Disassembly of section .debug_frame:

00000000 <.debug_frame>:
   0:	0000000c 	andeq	r0, r0, ip
   4:	ffffffff 			; <UNDEFINED> instruction: 0xffffffff
   8:	7c020001 	stcvc	0, cr0, [r2], {1}
   c:	000d0c0e 	andeq	r0, sp, lr, lsl #24
  10:	00000014 	andeq	r0, r0, r4, lsl r0
  14:	00000000 	andeq	r0, r0, r0
  18:	00008038 	andeq	r8, r0, r8, lsr r0
  1c:	000000b4 	strheq	r0, [r0], -r4
  20:	84080e42 	strhi	r0, [r8], #-3650	; 0xfffff1be
  24:	00018e02 	andeq	r8, r1, r2, lsl #28
  28:	00000020 	andeq	r0, r0, r0, lsr #32
  2c:	00000000 	andeq	r0, r0, r0
  30:	000080ec 	andeq	r8, r0, ip, ror #1
  34:	000000fc 	strdeq	r0, [r0], -ip
  38:	84200e42 	strthi	r0, [r0], #-3650	; 0xfffff1be
  3c:	86078508 	strhi	r8, [r7], -r8, lsl #10
  40:	88058706 	stmdahi	r5, {r1, r2, r8, r9, sl, pc}
  44:	8a038904 	bhi	e245c <__bss_end__+0xd86e4>
  48:	00018e02 	andeq	r8, r1, r2, lsl #28
  4c:	0000000c 	andeq	r0, r0, ip
  50:	ffffffff 			; <UNDEFINED> instruction: 0xffffffff
  54:	7c020001 	stcvc	0, cr0, [r2], {1}
  58:	000d0c0e 	andeq	r0, sp, lr, lsl #24
  5c:	00000014 	andeq	r0, r0, r4, lsl r0
  60:	0000004c 	andeq	r0, r0, ip, asr #32
  64:	000081e8 	andeq	r8, r0, r8, ror #3
  68:	000000b4 	strheq	r0, [r0], -r4
  6c:	84080e42 	strhi	r0, [r8], #-3650	; 0xfffff1be
  70:	00018e02 	andeq	r8, r1, r2, lsl #28
  74:	00000020 	andeq	r0, r0, r0, lsr #32
  78:	0000004c 	andeq	r0, r0, ip, asr #32
  7c:	0000829c 	muleq	r0, ip, r2
  80:	000000d0 	ldrdeq	r0, [r0], -r0	; <UNPREDICTABLE>
  84:	84200e42 	strthi	r0, [r0], #-3650	; 0xfffff1be
  88:	86078508 	strhi	r8, [r7], -r8, lsl #10
  8c:	88058706 	stmdahi	r5, {r1, r2, r8, r9, sl, pc}
  90:	8a038904 	bhi	e24a8 <__bss_end__+0xd8730>
  94:	00018e02 	andeq	r8, r1, r2, lsl #28
  98:	0000001c 	andeq	r0, r0, ip, lsl r0
  9c:	0000004c 	andeq	r0, r0, ip, asr #32
  a0:	0000836c 	andeq	r8, r0, ip, ror #6
  a4:	00000044 	andeq	r0, r0, r4, asr #32
  a8:	84180e42 	ldrhi	r0, [r8], #-3650	; 0xfffff1be
  ac:	86058506 	strhi	r8, [r5], -r6, lsl #10
  b0:	88038704 	stmdahi	r3, {r2, r8, r9, sl, pc}
  b4:	00018e02 	andeq	r8, r1, r2, lsl #28
  b8:	00000018 	andeq	r0, r0, r8, lsl r0
  bc:	0000004c 	andeq	r0, r0, ip, asr #32
  c0:	000083b0 			; <UNDEFINED> instruction: 0x000083b0
  c4:	00000038 	andeq	r0, r0, r8, lsr r0
  c8:	84100e42 	ldrhi	r0, [r0], #-3650	; 0xfffff1be
  cc:	86038504 	strhi	r8, [r3], -r4, lsl #10
  d0:	00018e02 	andeq	r8, r1, r2, lsl #28
  d4:	0000001c 	andeq	r0, r0, ip, lsl r0
  d8:	0000004c 	andeq	r0, r0, ip, asr #32
  dc:	000083e8 	andeq	r8, r0, r8, ror #7
  e0:	00000058 	andeq	r0, r0, r8, asr r0
  e4:	84180e42 	ldrhi	r0, [r8], #-3650	; 0xfffff1be
  e8:	86058506 	strhi	r8, [r5], -r6, lsl #10
  ec:	88038704 	stmdahi	r3, {r2, r8, r9, sl, pc}
  f0:	00018e02 	andeq	r8, r1, r2, lsl #28
  f4:	00000014 	andeq	r0, r0, r4, lsl r0
  f8:	0000004c 	andeq	r0, r0, ip, asr #32
  fc:	00008440 	andeq	r8, r0, r0, asr #8
 100:	00000010 	andeq	r0, r0, r0, lsl r0
 104:	84080e42 	strhi	r0, [r8], #-3650	; 0xfffff1be
 108:	00018e02 	andeq	r8, r1, r2, lsl #28
 10c:	0000000c 	andeq	r0, r0, ip
 110:	0000004c 	andeq	r0, r0, ip, asr #32
 114:	00008450 	andeq	r8, r0, r0, asr r4
 118:	00000028 	andeq	r0, r0, r8, lsr #32
 11c:	0000000c 	andeq	r0, r0, ip
 120:	ffffffff 			; <UNDEFINED> instruction: 0xffffffff
 124:	7c020001 	stcvc	0, cr0, [r2], {1}
 128:	000d0c0e 	andeq	r0, sp, lr, lsl #24
 12c:	0000000c 	andeq	r0, r0, ip
 130:	0000011c 	andeq	r0, r0, ip, lsl r1
 134:	00008478 	andeq	r8, r0, r8, ror r4
 138:	00000018 	andeq	r0, r0, r8, lsl r0
 13c:	0000000c 	andeq	r0, r0, ip
 140:	ffffffff 			; <UNDEFINED> instruction: 0xffffffff
 144:	7c020001 	stcvc	0, cr0, [r2], {1}
 148:	000d0c0e 	andeq	r0, sp, lr, lsl #24
 14c:	00000034 	andeq	r0, r0, r4, lsr r0
 150:	0000013c 	andeq	r0, r0, ip, lsr r1
 154:	00008490 	muleq	r0, r0, r4
 158:	00000058 	andeq	r0, r0, r8, asr r0
 15c:	80100e42 	andshi	r0, r0, r2, asr #28
 160:	82038104 	andhi	r8, r3, #1
 164:	42018302 	andmi	r8, r1, #134217728	; 0x8000000
 168:	07841c0e 	streq	r1, [r4, lr, lsl #24]
 16c:	058e0685 	streq	r0, [lr, #1669]	; 0x685
 170:	5c280e42 	stcpl	14, cr0, [r8], #-264	; 0xfffffef8
 174:	ce421c0e 	cdpgt	12, 4, cr1, cr2, cr14, {0}
 178:	100ec4c5 	andne	ip, lr, r5, asr #9
 17c:	c1c2c342 	bicgt	ip, r2, r2, asr #6
 180:	00000ec0 	andeq	r0, r0, r0, asr #29
 184:	0000000c 	andeq	r0, r0, ip
 188:	ffffffff 			; <UNDEFINED> instruction: 0xffffffff
 18c:	7c020001 	stcvc	0, cr0, [r2], {1}
 190:	000d0c0e 	andeq	r0, sp, lr, lsl #24
 194:	00000014 	andeq	r0, r0, r4, lsl r0
 198:	00000184 	andeq	r0, r0, r4, lsl #3
 19c:	000084e8 	andeq	r8, r0, r8, ror #9
 1a0:	00000034 	andeq	r0, r0, r4, lsr r0
 1a4:	84080e42 	strhi	r0, [r8], #-3650	; 0xfffff1be
 1a8:	00018e02 	andeq	r8, r1, r2, lsl #28
 1ac:	0000000c 	andeq	r0, r0, ip
 1b0:	ffffffff 			; <UNDEFINED> instruction: 0xffffffff
 1b4:	7c020001 	stcvc	0, cr0, [r2], {1}
 1b8:	000d0c0e 	andeq	r0, sp, lr, lsl #24
 1bc:	0000000c 	andeq	r0, r0, ip
 1c0:	000001ac 	andeq	r0, r0, ip, lsr #3
 1c4:	0000851c 	andeq	r8, r0, ip, lsl r5
 1c8:	00000014 	andeq	r0, r0, r4, lsl r0
 1cc:	0000000c 	andeq	r0, r0, ip
 1d0:	000001ac 	andeq	r0, r0, ip, lsr #3
 1d4:	00008530 	andeq	r8, r0, r0, lsr r5
 1d8:	00000024 	andeq	r0, r0, r4, lsr #32
 1dc:	0000000c 	andeq	r0, r0, ip
 1e0:	000001ac 	andeq	r0, r0, ip, lsr #3
 1e4:	00008554 	andeq	r8, r0, r4, asr r5
 1e8:	00000038 	andeq	r0, r0, r8, lsr r0
 1ec:	00000024 	andeq	r0, r0, r4, lsr #32
 1f0:	000001ac 	andeq	r0, r0, ip, lsr #3
 1f4:	0000858c 	andeq	r8, r0, ip, lsl #11
 1f8:	000001b4 			; <UNDEFINED> instruction: 0x000001b4
 1fc:	84140e42 	ldrhi	r0, [r4], #-3650	; 0xfffff1be
 200:	86048505 	strhi	r8, [r4], -r5, lsl #10
 204:	8e028703 	cdphi	7, 0, cr8, cr2, cr3, {0}
 208:	600e4201 	andvs	r4, lr, r1, lsl #4
 20c:	0e0a9a02 	vmlaeq.f32	s18, s20, s4
 210:	000b4214 	andeq	r4, fp, r4, lsl r2
 214:	00000014 	andeq	r0, r0, r4, lsl r0
 218:	000001ac 	andeq	r0, r0, ip, lsr #3
 21c:	00008740 	andeq	r8, r0, r0, asr #14
 220:	00000064 	andeq	r0, r0, r4, rrx
 224:	8e040e54 	mcrhi	14, 0, r0, cr4, cr4, {2}
 228:	100e4201 	andne	r4, lr, r1, lsl #4
 22c:	0000002c 	andeq	r0, r0, ip, lsr #32
 230:	000001ac 	andeq	r0, r0, ip, lsr #3
 234:	000087a4 	andeq	r8, r0, r4, lsr #15
 238:	000004b8 			; <UNDEFINED> instruction: 0x000004b8
 23c:	84240e42 	strthi	r0, [r4], #-3650	; 0xfffff1be
 240:	86088509 	strhi	r8, [r8], -r9, lsl #10
 244:	88068707 	stmdahi	r6, {r0, r1, r2, r8, r9, sl, pc}
 248:	8a048905 	bhi	122664 <__bss_end__+0x1188ec>
 24c:	8e028b03 	vmlahi.f64	d8, d2, d3
 250:	b80e4201 	stmdalt	lr, {r0, r9, lr}
 254:	02380302 	eorseq	r0, r8, #134217728	; 0x8000000
 258:	0000240e 	andeq	r2, r0, lr, lsl #8
 25c:	0000000c 	andeq	r0, r0, ip
 260:	ffffffff 			; <UNDEFINED> instruction: 0xffffffff
 264:	7c020001 	stcvc	0, cr0, [r2], {1}
 268:	000d0c0e 	andeq	r0, sp, lr, lsl #24
 26c:	0000000c 	andeq	r0, r0, ip
 270:	0000025c 	andeq	r0, r0, ip, asr r2
 274:	00008c5c 	andeq	r8, r0, ip, asr ip
 278:	00000010 	andeq	r0, r0, r0, lsl r0
 27c:	0000000c 	andeq	r0, r0, ip
 280:	0000025c 	andeq	r0, r0, ip, asr r2
 284:	00008c6c 	andeq	r8, r0, ip, ror #24
 288:	00000010 	andeq	r0, r0, r0, lsl r0
 28c:	0000000c 	andeq	r0, r0, ip
 290:	ffffffff 			; <UNDEFINED> instruction: 0xffffffff
 294:	7c020001 	stcvc	0, cr0, [r2], {1}
 298:	000d0c0e 	andeq	r0, sp, lr, lsl #24
 29c:	00000014 	andeq	r0, r0, r4, lsl r0
 2a0:	0000028c 	andeq	r0, r0, ip, lsl #5
 2a4:	00008c7c 	andeq	r8, r0, ip, ror ip
 2a8:	0000002c 	andeq	r0, r0, ip, lsr #32
 2ac:	84080e42 	strhi	r0, [r8], #-3650	; 0xfffff1be
 2b0:	00018e02 	andeq	r8, r1, r2, lsl #28
 2b4:	0000000c 	andeq	r0, r0, ip
 2b8:	ffffffff 			; <UNDEFINED> instruction: 0xffffffff
 2bc:	7c020001 	stcvc	0, cr0, [r2], {1}
 2c0:	000d0c0e 	andeq	r0, sp, lr, lsl #24
 2c4:	00000014 	andeq	r0, r0, r4, lsl r0
 2c8:	000002b4 			; <UNDEFINED> instruction: 0x000002b4
 2cc:	00008ca8 	andeq	r8, r0, r8, lsr #25
 2d0:	0000003c 	andeq	r0, r0, ip, lsr r0
 2d4:	84080e42 	strhi	r0, [r8], #-3650	; 0xfffff1be
 2d8:	00018e02 	andeq	r8, r1, r2, lsl #28
 2dc:	0000000c 	andeq	r0, r0, ip
 2e0:	ffffffff 			; <UNDEFINED> instruction: 0xffffffff
 2e4:	7c020001 	stcvc	0, cr0, [r2], {1}
 2e8:	000d0c0e 	andeq	r0, sp, lr, lsl #24
 2ec:	0000000c 	andeq	r0, r0, ip
 2f0:	000002dc 	ldrdeq	r0, [r0], -ip
 2f4:	00008ce4 	andeq	r8, r0, r4, ror #25
 2f8:	00000004 	andeq	r0, r0, r4
 2fc:	0000000c 	andeq	r0, r0, ip
 300:	ffffffff 			; <UNDEFINED> instruction: 0xffffffff
 304:	7c020001 	stcvc	0, cr0, [r2], {1}
 308:	000d0c0e 	andeq	r0, sp, lr, lsl #24
 30c:	0000000c 	andeq	r0, r0, ip
 310:	000002fc 	strdeq	r0, [r0], -ip
 314:	00008ce8 	andeq	r8, r0, r8, ror #25
 318:	00000018 	andeq	r0, r0, r8, lsl r0
 31c:	0000000c 	andeq	r0, r0, ip
 320:	000002fc 	strdeq	r0, [r0], -ip
 324:	00008d00 	andeq	r8, r0, r0, lsl #26
 328:	00000014 	andeq	r0, r0, r4, lsl r0
 32c:	00000014 	andeq	r0, r0, r4, lsl r0
 330:	000002fc 	strdeq	r0, [r0], -ip
 334:	00008d14 	andeq	r8, r0, r4, lsl sp
 338:	00000054 	andeq	r0, r0, r4, asr r0
 33c:	84080e42 	strhi	r0, [r8], #-3650	; 0xfffff1be
 340:	00018e02 	andeq	r8, r1, r2, lsl #28
 344:	0000000c 	andeq	r0, r0, ip
 348:	ffffffff 			; <UNDEFINED> instruction: 0xffffffff
 34c:	7c020001 	stcvc	0, cr0, [r2], {1}
 350:	000d0c0e 	andeq	r0, sp, lr, lsl #24
 354:	00000014 	andeq	r0, r0, r4, lsl r0
 358:	00000344 	andeq	r0, r0, r4, asr #6
 35c:	00008d68 	andeq	r8, r0, r8, ror #26
 360:	00000014 	andeq	r0, r0, r4, lsl r0
 364:	84080e42 	strhi	r0, [r8], #-3650	; 0xfffff1be
 368:	00018e02 	andeq	r8, r1, r2, lsl #28
 36c:	00000014 	andeq	r0, r0, r4, lsl r0
 370:	00000344 	andeq	r0, r0, r4, asr #6
 374:	00008d7c 	andeq	r8, r0, ip, ror sp
 378:	0000001c 	andeq	r0, r0, ip, lsl r0
 37c:	84080e42 	strhi	r0, [r8], #-3650	; 0xfffff1be
 380:	00018e02 	andeq	r8, r1, r2, lsl #28
 384:	00000018 	andeq	r0, r0, r8, lsl r0
 388:	00000344 	andeq	r0, r0, r4, asr #6
 38c:	00008d98 	muleq	r0, r8, sp
 390:	00000024 	andeq	r0, r0, r4, lsr #32
 394:	84100e42 	ldrhi	r0, [r0], #-3650	; 0xfffff1be
 398:	86038504 	strhi	r8, [r3], -r4, lsl #10
 39c:	00018e02 	andeq	r8, r1, r2, lsl #28
 3a0:	00000014 	andeq	r0, r0, r4, lsl r0
 3a4:	00000344 	andeq	r0, r0, r4, asr #6
 3a8:	00008dbc 			; <UNDEFINED> instruction: 0x00008dbc
 3ac:	00000018 	andeq	r0, r0, r8, lsl r0
 3b0:	84080e42 	strhi	r0, [r8], #-3650	; 0xfffff1be
 3b4:	00018e02 	andeq	r8, r1, r2, lsl #28
 3b8:	00000014 	andeq	r0, r0, r4, lsl r0
 3bc:	00000344 	andeq	r0, r0, r4, asr #6
 3c0:	00008dd4 	ldrdeq	r8, [r0], -r4
 3c4:	00000018 	andeq	r0, r0, r8, lsl r0
 3c8:	84080e42 	strhi	r0, [r8], #-3650	; 0xfffff1be
 3cc:	00018e02 	andeq	r8, r1, r2, lsl #28
 3d0:	0000000c 	andeq	r0, r0, ip
 3d4:	ffffffff 			; <UNDEFINED> instruction: 0xffffffff
 3d8:	7c020001 	stcvc	0, cr0, [r2], {1}
 3dc:	000d0c0e 	andeq	r0, sp, lr, lsl #24
 3e0:	00000018 	andeq	r0, r0, r8, lsl r0
 3e4:	000003d0 	ldrdeq	r0, [r0], -r0	; <UNPREDICTABLE>
 3e8:	00008dec 	andeq	r8, r0, ip, ror #27
 3ec:	00000064 	andeq	r0, r0, r4, rrx
 3f0:	84100e46 	ldrhi	r0, [r0], #-3654	; 0xfffff1ba
 3f4:	86038504 	strhi	r8, [r3], -r4, lsl #10
 3f8:	00018e02 	andeq	r8, r1, r2, lsl #28
 3fc:	00000014 	andeq	r0, r0, r4, lsl r0
 400:	000003d0 	ldrdeq	r0, [r0], -r0	; <UNPREDICTABLE>
 404:	00008e50 	andeq	r8, r0, r0, asr lr
 408:	00000010 	andeq	r0, r0, r0, lsl r0
 40c:	84080e42 	strhi	r0, [r8], #-3650	; 0xfffff1be
 410:	00018e02 	andeq	r8, r1, r2, lsl #28
 414:	00000014 	andeq	r0, r0, r4, lsl r0
 418:	000003d0 	ldrdeq	r0, [r0], -r0	; <UNPREDICTABLE>
 41c:	00008e60 	andeq	r8, r0, r0, ror #28
 420:	00000024 	andeq	r0, r0, r4, lsr #32
 424:	84080e46 	strhi	r0, [r8], #-3654	; 0xfffff1ba
 428:	00018e02 	andeq	r8, r1, r2, lsl #28
 42c:	00000014 	andeq	r0, r0, r4, lsl r0
 430:	000003d0 	ldrdeq	r0, [r0], -r0	; <UNPREDICTABLE>
 434:	00008e84 	andeq	r8, r0, r4, lsl #29
 438:	00000024 	andeq	r0, r0, r4, lsr #32
 43c:	84080e46 	strhi	r0, [r8], #-3654	; 0xfffff1ba
 440:	00018e02 	andeq	r8, r1, r2, lsl #28
 444:	00000014 	andeq	r0, r0, r4, lsl r0
 448:	000003d0 	ldrdeq	r0, [r0], -r0	; <UNPREDICTABLE>
 44c:	00008ea8 	andeq	r8, r0, r8, lsr #29
 450:	00000010 	andeq	r0, r0, r0, lsl r0
 454:	84080e42 	strhi	r0, [r8], #-3650	; 0xfffff1be
 458:	00018e02 	andeq	r8, r1, r2, lsl #28
 45c:	00000014 	andeq	r0, r0, r4, lsl r0
 460:	000003d0 	ldrdeq	r0, [r0], -r0	; <UNPREDICTABLE>
 464:	00008eb8 			; <UNDEFINED> instruction: 0x00008eb8
 468:	0000001c 	andeq	r0, r0, ip, lsl r0
 46c:	84080e42 	strhi	r0, [r8], #-3650	; 0xfffff1be
 470:	00018e02 	andeq	r8, r1, r2, lsl #28
 474:	00000018 	andeq	r0, r0, r8, lsl r0
 478:	000003d0 	ldrdeq	r0, [r0], -r0	; <UNPREDICTABLE>
 47c:	00008ed4 	ldrdeq	r8, [r0], -r4
 480:	00000034 	andeq	r0, r0, r4, lsr r0
 484:	84080e46 	strhi	r0, [r8], #-3654	; 0xfffff1ba
 488:	4e018e02 	cdpmi	14, 0, cr8, cr1, cr2, {0}
 48c:	cec4000e 	cdpgt	0, 12, cr0, cr4, cr14, {0}
 490:	0000000c 	andeq	r0, r0, ip
 494:	ffffffff 			; <UNDEFINED> instruction: 0xffffffff
 498:	7c020001 	stcvc	0, cr0, [r2], {1}
 49c:	000d0c0e 	andeq	r0, sp, lr, lsl #24
 4a0:	00000018 	andeq	r0, r0, r8, lsl r0
 4a4:	00000490 	muleq	r0, r0, r4
 4a8:	00008f08 	andeq	r8, r0, r8, lsl #30
 4ac:	00000020 	andeq	r0, r0, r0, lsr #32
 4b0:	84100e42 	ldrhi	r0, [r0], #-3650	; 0xfffff1be
 4b4:	86038504 	strhi	r8, [r3], -r4, lsl #10
 4b8:	00018e02 	andeq	r8, r1, r2, lsl #28
 4bc:	00000018 	andeq	r0, r0, r8, lsl r0
 4c0:	00000490 	muleq	r0, r0, r4
 4c4:	00008f28 	andeq	r8, r0, r8, lsr #30
 4c8:	00000020 	andeq	r0, r0, r0, lsr #32
 4cc:	84100e42 	ldrhi	r0, [r0], #-3650	; 0xfffff1be
 4d0:	86038504 	strhi	r8, [r3], -r4, lsl #10
 4d4:	00018e02 	andeq	r8, r1, r2, lsl #28
 4d8:	00000014 	andeq	r0, r0, r4, lsl r0
 4dc:	00000490 	muleq	r0, r0, r4
 4e0:	00008f48 	andeq	r8, r0, r8, asr #30
 4e4:	000000b0 	strheq	r0, [r0], -r0	; <UNPREDICTABLE>
 4e8:	84080e42 	strhi	r0, [r8], #-3650	; 0xfffff1be
 4ec:	00018e02 	andeq	r8, r1, r2, lsl #28
 4f0:	00000014 	andeq	r0, r0, r4, lsl r0
 4f4:	00000490 	muleq	r0, r0, r4
 4f8:	00008ff8 	strdeq	r8, [r0], -r8	; <UNPREDICTABLE>
 4fc:	00000018 	andeq	r0, r0, r8, lsl r0
 500:	84080e42 	strhi	r0, [r8], #-3650	; 0xfffff1be
 504:	00018e02 	andeq	r8, r1, r2, lsl #28
 508:	00000014 	andeq	r0, r0, r4, lsl r0
 50c:	00000490 	muleq	r0, r0, r4
 510:	00009010 	andeq	r9, r0, r0, lsl r0
 514:	00000020 	andeq	r0, r0, r0, lsr #32
 518:	84080e42 	strhi	r0, [r8], #-3650	; 0xfffff1be
 51c:	00018e02 	andeq	r8, r1, r2, lsl #28
 520:	00000014 	andeq	r0, r0, r4, lsl r0
 524:	00000490 	muleq	r0, r0, r4
 528:	00009030 	andeq	r9, r0, r0, lsr r0
 52c:	00000030 	andeq	r0, r0, r0, lsr r0
 530:	84080e42 	strhi	r0, [r8], #-3650	; 0xfffff1be
 534:	00018e02 	andeq	r8, r1, r2, lsl #28
 538:	00000014 	andeq	r0, r0, r4, lsl r0
 53c:	00000490 	muleq	r0, r0, r4
 540:	00009060 	andeq	r9, r0, r0, rrx
 544:	00000030 	andeq	r0, r0, r0, lsr r0
 548:	84080e42 	strhi	r0, [r8], #-3650	; 0xfffff1be
 54c:	00018e02 	andeq	r8, r1, r2, lsl #28
 550:	00000014 	andeq	r0, r0, r4, lsl r0
 554:	00000490 	muleq	r0, r0, r4
 558:	00009090 	muleq	r0, r0, r0
 55c:	00000010 	andeq	r0, r0, r0, lsl r0
 560:	84080e42 	strhi	r0, [r8], #-3650	; 0xfffff1be
 564:	00018e02 	andeq	r8, r1, r2, lsl #28
 568:	00000014 	andeq	r0, r0, r4, lsl r0
 56c:	00000490 	muleq	r0, r0, r4
 570:	000090a0 	andeq	r9, r0, r0, lsr #1
 574:	00000020 	andeq	r0, r0, r0, lsr #32
 578:	84080e42 	strhi	r0, [r8], #-3650	; 0xfffff1be
 57c:	00018e02 	andeq	r8, r1, r2, lsl #28
 580:	00000014 	andeq	r0, r0, r4, lsl r0
 584:	00000490 	muleq	r0, r0, r4
 588:	000090c0 	andeq	r9, r0, r0, asr #1
 58c:	00000014 	andeq	r0, r0, r4, lsl r0
 590:	84080e42 	strhi	r0, [r8], #-3650	; 0xfffff1be
 594:	00018e02 	andeq	r8, r1, r2, lsl #28
 598:	00000014 	andeq	r0, r0, r4, lsl r0
 59c:	00000490 	muleq	r0, r0, r4
 5a0:	000090d4 	ldrdeq	r9, [r0], -r4
 5a4:	00000024 	andeq	r0, r0, r4, lsr #32
 5a8:	84080e42 	strhi	r0, [r8], #-3650	; 0xfffff1be
 5ac:	00018e02 	andeq	r8, r1, r2, lsl #28
 5b0:	0000000c 	andeq	r0, r0, ip
 5b4:	ffffffff 			; <UNDEFINED> instruction: 0xffffffff
 5b8:	7c020001 	stcvc	0, cr0, [r2], {1}
 5bc:	000d0c0e 	andeq	r0, sp, lr, lsl #24
 5c0:	0000000c 	andeq	r0, r0, ip
 5c4:	000005b0 			; <UNDEFINED> instruction: 0x000005b0
 5c8:	000090f8 	strdeq	r9, [r0], -r8
 5cc:	00000010 	andeq	r0, r0, r0, lsl r0
 5d0:	0000000c 	andeq	r0, r0, ip
 5d4:	000005b0 			; <UNDEFINED> instruction: 0x000005b0
 5d8:	00009108 	andeq	r9, r0, r8, lsl #2
 5dc:	00000010 	andeq	r0, r0, r0, lsl r0
 5e0:	0000000c 	andeq	r0, r0, ip
 5e4:	000005b0 			; <UNDEFINED> instruction: 0x000005b0
 5e8:	00009118 	andeq	r9, r0, r8, lsl r1
 5ec:	00000010 	andeq	r0, r0, r0, lsl r0
 5f0:	0000001c 	andeq	r0, r0, ip, lsl r0
 5f4:	000005b0 			; <UNDEFINED> instruction: 0x000005b0
 5f8:	00009128 	andeq	r9, r0, r8, lsr #2
 5fc:	0000009c 	muleq	r0, ip, r0
 600:	8e040e42 	cdphi	14, 0, cr0, cr4, cr2, {2}
 604:	100e4201 	andne	r4, lr, r1, lsl #4
 608:	040e0a58 	streq	r0, [lr], #-2648	; 0xfffff5a8
 60c:	00000b42 	andeq	r0, r0, r2, asr #22
 610:	00000014 	andeq	r0, r0, r4, lsl r0
 614:	000005b0 			; <UNDEFINED> instruction: 0x000005b0
 618:	000091c4 	andeq	r9, r0, r4, asr #3
 61c:	00000058 	andeq	r0, r0, r8, asr r0
 620:	84080e42 	strhi	r0, [r8], #-3650	; 0xfffff1be
 624:	00018e02 	andeq	r8, r1, r2, lsl #28
 628:	0000001c 	andeq	r0, r0, ip, lsl r0
 62c:	000005b0 			; <UNDEFINED> instruction: 0x000005b0
 630:	0000921c 	andeq	r9, r0, ip, lsl r2
 634:	00000098 	muleq	r0, r8, r0
 638:	8e040e42 	cdphi	14, 0, cr0, cr4, cr2, {2}
 63c:	100e4201 	andne	r4, lr, r1, lsl #4
 640:	040e0a58 	streq	r0, [lr], #-2648	; 0xfffff5a8
 644:	00000b42 	andeq	r0, r0, r2, asr #22
 648:	00000020 	andeq	r0, r0, r0, lsr #32
 64c:	000005b0 			; <UNDEFINED> instruction: 0x000005b0
 650:	000092b4 			; <UNDEFINED> instruction: 0x000092b4
 654:	00000064 	andeq	r0, r0, r4, rrx
 658:	840c0e42 	strhi	r0, [ip], #-3650	; 0xfffff1be
 65c:	8e028503 	cfsh32hi	mvfx8, mvfx2, #3
 660:	180e4201 	stmdane	lr, {r0, r9, lr}
 664:	0c0e0a54 			; <UNDEFINED> instruction: 0x0c0e0a54
 668:	00000b42 	andeq	r0, r0, r2, asr #22
 66c:	0000001c 	andeq	r0, r0, ip, lsl r0
 670:	000005b0 			; <UNDEFINED> instruction: 0x000005b0
 674:	00009318 	andeq	r9, r0, r8, lsl r3
 678:	00000118 	andeq	r0, r0, r8, lsl r1
 67c:	8e040e42 	cdphi	14, 0, cr0, cr4, cr2, {2}
 680:	100e4201 	andne	r4, lr, r1, lsl #4
 684:	040e0a6c 	streq	r0, [lr], #-2668	; 0xfffff594
 688:	00000b42 	andeq	r0, r0, r2, asr #22
 68c:	0000000c 	andeq	r0, r0, ip
 690:	000005b0 			; <UNDEFINED> instruction: 0x000005b0
 694:	00009430 	andeq	r9, r0, r0, lsr r4
 698:	00000004 	andeq	r0, r0, r4
 69c:	0000000c 	andeq	r0, r0, ip
 6a0:	000005b0 			; <UNDEFINED> instruction: 0x000005b0
 6a4:	00009434 	andeq	r9, r0, r4, lsr r4
 6a8:	00000014 	andeq	r0, r0, r4, lsl r0
 6ac:	00000014 	andeq	r0, r0, r4, lsl r0
 6b0:	000005b0 			; <UNDEFINED> instruction: 0x000005b0
 6b4:	00009448 	andeq	r9, r0, r8, asr #8
 6b8:	00000060 	andeq	r0, r0, r0, rrx
 6bc:	8e040e58 	mcrhi	14, 0, r0, cr4, cr8, {2}
 6c0:	100e4201 	andne	r4, lr, r1, lsl #4
 6c4:	0000000c 	andeq	r0, r0, ip
 6c8:	ffffffff 			; <UNDEFINED> instruction: 0xffffffff
 6cc:	7c020001 	stcvc	0, cr0, [r2], {1}
 6d0:	000d0c0e 	andeq	r0, sp, lr, lsl #24
 6d4:	00000014 	andeq	r0, r0, r4, lsl r0
 6d8:	000006c4 	andeq	r0, r0, r4, asr #13
 6dc:	000094a8 	andeq	r9, r0, r8, lsr #9
 6e0:	00000014 	andeq	r0, r0, r4, lsl r0
 6e4:	84080e42 	strhi	r0, [r8], #-3650	; 0xfffff1be
 6e8:	00018e02 	andeq	r8, r1, r2, lsl #28
 6ec:	0000000c 	andeq	r0, r0, ip
 6f0:	000006c4 	andeq	r0, r0, r4, asr #13
 6f4:	000094bc 			; <UNDEFINED> instruction: 0x000094bc
 6f8:	00000018 	andeq	r0, r0, r8, lsl r0
 6fc:	0000000c 	andeq	r0, r0, ip
 700:	000006c4 	andeq	r0, r0, r4, asr #13
 704:	000094d4 	ldrdeq	r9, [r0], -r4
 708:	00000010 	andeq	r0, r0, r0, lsl r0
 70c:	0000000c 	andeq	r0, r0, ip
 710:	ffffffff 			; <UNDEFINED> instruction: 0xffffffff
 714:	7c020001 	stcvc	0, cr0, [r2], {1}
 718:	000d0c0e 	andeq	r0, sp, lr, lsl #24
 71c:	0000000c 	andeq	r0, r0, ip
 720:	0000070c 	andeq	r0, r0, ip, lsl #14
 724:	000094e4 	andeq	r9, r0, r4, ror #9
 728:	00000034 	andeq	r0, r0, r4, lsr r0
 72c:	0000000c 	andeq	r0, r0, ip
 730:	ffffffff 			; <UNDEFINED> instruction: 0xffffffff
 734:	7c020001 	stcvc	0, cr0, [r2], {1}
 738:	000d0c0e 	andeq	r0, sp, lr, lsl #24
 73c:	0000000c 	andeq	r0, r0, ip
 740:	0000072c 	andeq	r0, r0, ip, lsr #14
 744:	00009518 	andeq	r9, r0, r8, lsl r5
 748:	0000002c 	andeq	r0, r0, ip, lsr #32
 74c:	0000000c 	andeq	r0, r0, ip
 750:	ffffffff 			; <UNDEFINED> instruction: 0xffffffff
 754:	7c020001 	stcvc	0, cr0, [r2], {1}
 758:	000d0c0e 	andeq	r0, sp, lr, lsl #24
 75c:	0000000c 	andeq	r0, r0, ip
 760:	0000074c 	andeq	r0, r0, ip, asr #14
 764:	00009544 	andeq	r9, r0, r4, asr #10
 768:	00000020 	andeq	r0, r0, r0, lsr #32
 76c:	0000000c 	andeq	r0, r0, ip
 770:	ffffffff 			; <UNDEFINED> instruction: 0xffffffff
 774:	7c020001 	stcvc	0, cr0, [r2], {1}
 778:	000d0c0e 	andeq	r0, sp, lr, lsl #24
 77c:	0000000c 	andeq	r0, r0, ip
 780:	0000076c 	andeq	r0, r0, ip, ror #14
 784:	00009564 	andeq	r9, r0, r4, ror #10
 788:	0000002c 	andeq	r0, r0, ip, lsr #32
 78c:	0000000c 	andeq	r0, r0, ip
 790:	ffffffff 			; <UNDEFINED> instruction: 0xffffffff
 794:	7c020001 	stcvc	0, cr0, [r2], {1}
 798:	000d0c0e 	andeq	r0, sp, lr, lsl #24
 79c:	0000000c 	andeq	r0, r0, ip
 7a0:	0000078c 	andeq	r0, r0, ip, lsl #15
 7a4:	00009590 	muleq	r0, r0, r5
 7a8:	00000004 	andeq	r0, r0, r4
