
2-neopix.elf:     file format elf32-littlearm


Disassembly of section .text:

00008000 <__code_start__>:
    8000:	e3a00013 	mov	r0, #19, 0
    8004:	e3800080 	orr	r0, r0, #128, 0	; 0x80
    8008:	e129f000 	msr	CPSR_fc, r0
    800c:	e3a01000 	mov	r1, #0, 0
    8010:	ee071f95 	mcr	15, 0, r1, cr7, cr5, {4}
    8014:	e3a0d302 	mov	sp, #134217728	; 0x8000000
    8018:	e3a0b000 	mov	fp, #0, 0
    801c:	eb0002ed 	bl	8bd8 <_cstart>
    8020:	eb000307 	bl	8c44 <rpi_reboot>

00008024 <PUT32>:
    8024:	e5801000 	str	r1, [r0]
    8028:	e12fff1e 	bx	lr

0000802c <GET32>:
    802c:	e5900000 	ldr	r0, [r0]
    8030:	e12fff1e 	bx	lr

00008034 <BRANCHTO>:
    8034:	e12fff10 	bx	r0

00008038 <place_cursor>:
    8038:	e92d4070 	push	{r4, r5, r6, lr}
    803c:	e24dd008 	sub	sp, sp, #8, 0
    8040:	e1a05000 	mov	r5, r0
    8044:	e1a06001 	mov	r6, r1
    8048:	e3a04000 	mov	r4, #0, 0
    804c:	e58d4000 	str	r4, [sp]
    8050:	e1a03004 	mov	r3, r4
    8054:	e3a020ff 	mov	r2, #255, 0	; 0xff
    8058:	e2411002 	sub	r1, r1, #2, 0
    805c:	eb0000c7 	bl	8380 <neopix_write>
    8060:	e58d4000 	str	r4, [sp]
    8064:	e3a030ff 	mov	r3, #255, 0	; 0xff
    8068:	e1a02004 	mov	r2, r4
    806c:	e2461001 	sub	r1, r6, #1, 0
    8070:	e1a00005 	mov	r0, r5
    8074:	eb0000c1 	bl	8380 <neopix_write>
    8078:	e3a030ff 	mov	r3, #255, 0	; 0xff
    807c:	e58d3000 	str	r3, [sp]
    8080:	e1a03004 	mov	r3, r4
    8084:	e1a02004 	mov	r2, r4
    8088:	e1a01006 	mov	r1, r6
    808c:	e1a00005 	mov	r0, r5
    8090:	eb0000ba 	bl	8380 <neopix_write>
    8094:	e1a00005 	mov	r0, r5
    8098:	eb00004b 	bl	81cc <neopix_flush>
    809c:	e28dd008 	add	sp, sp, #8, 0
    80a0:	e8bd8070 	pop	{r4, r5, r6, pc}

000080a4 <notmain>:
    80a4:	e92d41f0 	push	{r4, r5, r6, r7, r8, lr}
    80a8:	eb0002b7 	bl	8b8c <enable_cache>
    80ac:	e3a00015 	mov	r0, #21, 0
    80b0:	eb000332 	bl	8d80 <gpio_set_output>
    80b4:	e3a01038 	mov	r1, #56, 0	; 0x38
    80b8:	e3a00015 	mov	r0, #21, 0
    80bc:	eb000076 	bl	829c <neopix_init>
    80c0:	e1a06000 	mov	r6, r0
    80c4:	e3a0500a 	mov	r5, #10, 0
    80c8:	e59f7040 	ldr	r7, [pc, #64]	; 8110 <notmain+0x6c>
    80cc:	e265100a 	rsb	r1, r5, #10, 0
    80d0:	e1a00007 	mov	r0, r7
    80d4:	eb0000b9 	bl	83c0 <printk>
    80d8:	e3a04000 	mov	r4, #0, 0
    80dc:	e1a01004 	mov	r1, r4
    80e0:	e1a00006 	mov	r0, r6
    80e4:	ebffffd3 	bl	8038 <place_cursor>
    80e8:	e1a00005 	mov	r0, r5
    80ec:	eb0002fe 	bl	8cec <delay_ms>
    80f0:	e2844001 	add	r4, r4, #1, 0
    80f4:	e3540038 	cmp	r4, #56, 0	; 0x38
    80f8:	1afffff7 	bne	80dc <notmain+0x38>
    80fc:	e2555001 	subs	r5, r5, #1, 0
    8100:	1afffff1 	bne	80cc <notmain+0x28>
    8104:	e59f0008 	ldr	r0, [pc, #8]	; 8114 <notmain+0x70>
    8108:	eb0000ac 	bl	83c0 <printk>
    810c:	e8bd81f0 	pop	{r4, r5, r6, r7, r8, pc}
    8110:	000094e0 	andeq	r9, r0, r0, ror #9
    8114:	000094ec 	andeq	r9, r0, ip, ror #9

00008118 <pix_sendbyte>:
    8118:	e92d4010 	push	{r4, lr}
    811c:	e3a03001 	mov	r3, #1, 0
    8120:	e1a00013 	lsl	r0, r3, r0
    8124:	e3a02007 	mov	r2, #7, 0
    8128:	e59f4094 	ldr	r4, [pc, #148]	; 81c4 <pix_sendbyte+0xac>
    812c:	e59fe094 	ldr	lr, [pc, #148]	; 81c8 <pix_sendbyte+0xb0>
    8130:	ea00000d 	b	816c <pix_sendbyte+0x54>
    8134:	ee1f3f3c 	mrc	15, 0, r3, cr15, cr12, {1}
    8138:	e043300c 	sub	r3, r3, ip
    813c:	e35300e4 	cmp	r3, #228, 0	; 0xe4
    8140:	9afffffb 	bls	8134 <pix_sendbyte+0x1c>
    8144:	ee1fcf3c 	mrc	15, 0, ip, cr15, cr12, {1}
    8148:	e24cc010 	sub	ip, ip, #16, 0
    814c:	e5840028 	str	r0, [r4, #40]	; 0x28
    8150:	ee1f3f3c 	mrc	15, 0, r3, cr15, cr12, {1}
    8154:	e043300c 	sub	r3, r3, ip
    8158:	e153000e 	cmp	r3, lr
    815c:	9afffffb 	bls	8150 <pix_sendbyte+0x38>
    8160:	e2422001 	sub	r2, r2, #1, 0
    8164:	e3720001 	cmn	r2, #1, 0
    8168:	08bd8010 	popeq	{r4, pc}
    816c:	e1a03251 	asr	r3, r1, r2
    8170:	e3130001 	tst	r3, #1, 0
    8174:	1a000003 	bne	8188 <pix_sendbyte+0x70>
    8178:	ee1fcf3c 	mrc	15, 0, ip, cr15, cr12, {1}
    817c:	e24cc010 	sub	ip, ip, #16, 0
    8180:	e584001c 	str	r0, [r4, #28]
    8184:	eaffffea 	b	8134 <pix_sendbyte+0x1c>
    8188:	ee1fcf3c 	mrc	15, 0, ip, cr15, cr12, {1}
    818c:	e24cc010 	sub	ip, ip, #16, 0
    8190:	e584001c 	str	r0, [r4, #28]
    8194:	ee1f3f3c 	mrc	15, 0, r3, cr15, cr12, {1}
    8198:	e043300c 	sub	r3, r3, ip
    819c:	e153000e 	cmp	r3, lr
    81a0:	9afffffb 	bls	8194 <pix_sendbyte+0x7c>
    81a4:	ee1fcf3c 	mrc	15, 0, ip, cr15, cr12, {1}
    81a8:	e24cc010 	sub	ip, ip, #16, 0
    81ac:	e5840028 	str	r0, [r4, #40]	; 0x28
    81b0:	ee1f3f3c 	mrc	15, 0, r3, cr15, cr12, {1}
    81b4:	e043300c 	sub	r3, r3, ip
    81b8:	e35300e4 	cmp	r3, #228, 0	; 0xe4
    81bc:	9afffffb 	bls	81b0 <pix_sendbyte+0x98>
    81c0:	eaffffe6 	b	8160 <pix_sendbyte+0x48>
    81c4:	20200000 	eorcs	r0, r0, r0
    81c8:	00000265 	andeq	r0, r0, r5, ror #4

000081cc <neopix_flush>:
    81cc:	e92d47f0 	push	{r4, r5, r6, r7, r8, r9, sl, lr}
    81d0:	e1a05000 	mov	r5, r0
    81d4:	e5903004 	ldr	r3, [r0, #4]
    81d8:	e3530000 	cmp	r3, #0, 0
    81dc:	0a000012 	beq	822c <neopix_flush+0x60>
    81e0:	e1a04000 	mov	r4, r0
    81e4:	e3a07000 	mov	r7, #0, 0
    81e8:	e5d56000 	ldrb	r6, [r5]
    81ec:	e5d49008 	ldrb	r9, [r4, #8]
    81f0:	e5d4800a 	ldrb	r8, [r4, #10]
    81f4:	e5d41009 	ldrb	r1, [r4, #9]
    81f8:	e1a00006 	mov	r0, r6
    81fc:	ebffffc5 	bl	8118 <pix_sendbyte>
    8200:	e1a01009 	mov	r1, r9
    8204:	e1a00006 	mov	r0, r6
    8208:	ebffffc2 	bl	8118 <pix_sendbyte>
    820c:	e1a01008 	mov	r1, r8
    8210:	e1a00006 	mov	r0, r6
    8214:	ebffffbf 	bl	8118 <pix_sendbyte>
    8218:	e2877001 	add	r7, r7, #1, 0
    821c:	e2844003 	add	r4, r4, #3, 0
    8220:	e5953004 	ldr	r3, [r5, #4]
    8224:	e1530007 	cmp	r3, r7
    8228:	8affffee 	bhi	81e8 <neopix_flush+0x1c>
    822c:	ee1f2f3c 	mrc	15, 0, r2, cr15, cr12, {1}
    8230:	e2422010 	sub	r2, r2, #16, 0
    8234:	e5d51000 	ldrb	r1, [r5]
    8238:	e3a03001 	mov	r3, #1, 0
    823c:	e1a03113 	lsl	r3, r3, r1
    8240:	e59f104c 	ldr	r1, [pc, #76]	; 8294 <neopix_flush+0xc8>
    8244:	e5813028 	str	r3, [r1, #40]	; 0x28
    8248:	e59f1048 	ldr	r1, [pc, #72]	; 8298 <neopix_flush+0xcc>
    824c:	ee1f3f3c 	mrc	15, 0, r3, cr15, cr12, {1}
    8250:	e0433002 	sub	r3, r3, r2
    8254:	e1530001 	cmp	r3, r1
    8258:	9afffffb 	bls	824c <neopix_flush+0x80>
    825c:	e5952004 	ldr	r2, [r5, #4]
    8260:	e3520000 	cmp	r2, #0, 0
    8264:	08bd87f0 	popeq	{r4, r5, r6, r7, r8, r9, sl, pc}
    8268:	e1a03005 	mov	r3, r5
    826c:	e0822082 	add	r2, r2, r2, lsl #1
    8270:	e0855002 	add	r5, r5, r2
    8274:	e3a02000 	mov	r2, #0, 0
    8278:	e5c32008 	strb	r2, [r3, #8]
    827c:	e5c32009 	strb	r2, [r3, #9]
    8280:	e5c3200a 	strb	r2, [r3, #10]
    8284:	e2833003 	add	r3, r3, #3, 0
    8288:	e1550003 	cmp	r5, r3
    828c:	1afffff9 	bne	8278 <neopix_flush+0xac>
    8290:	e8bd87f0 	pop	{r4, r5, r6, r7, r8, r9, sl, pc}
    8294:	20200000 	eorcs	r0, r0, r0
    8298:	0000a40f 	andeq	sl, r0, pc, lsl #8

0000829c <neopix_init>:
    829c:	e92d41f0 	push	{r4, r5, r6, r7, r8, lr}
    82a0:	e1a06000 	mov	r6, r0
    82a4:	e1a05001 	mov	r5, r1
    82a8:	e0817081 	add	r7, r1, r1, lsl #1
    82ac:	e2877008 	add	r7, r7, #8, 0
    82b0:	e1a00007 	mov	r0, r7
    82b4:	eb0003ca 	bl	91e4 <kmalloc>
    82b8:	e1a04000 	mov	r4, r0
    82bc:	e1a02007 	mov	r2, r7
    82c0:	e3a01000 	mov	r1, #0, 0
    82c4:	eb000037 	bl	83a8 <memset>
    82c8:	e5845004 	str	r5, [r4, #4]
    82cc:	e5c46000 	strb	r6, [r4]
    82d0:	e1a00006 	mov	r0, r6
    82d4:	eb0002a9 	bl	8d80 <gpio_set_output>
    82d8:	e1a00004 	mov	r0, r4
    82dc:	e8bd81f0 	pop	{r4, r5, r6, r7, r8, pc}

000082e0 <neopix_sendpixel>:
    82e0:	e92d4070 	push	{r4, r5, r6, lr}
    82e4:	e1a06001 	mov	r6, r1
    82e8:	e1a05003 	mov	r5, r3
    82ec:	e5d04000 	ldrb	r4, [r0]
    82f0:	e1a01002 	mov	r1, r2
    82f4:	e1a00004 	mov	r0, r4
    82f8:	ebffff86 	bl	8118 <pix_sendbyte>
    82fc:	e1a01006 	mov	r1, r6
    8300:	e1a00004 	mov	r0, r4
    8304:	ebffff83 	bl	8118 <pix_sendbyte>
    8308:	e1a01005 	mov	r1, r5
    830c:	e1a00004 	mov	r0, r4
    8310:	ebffff80 	bl	8118 <pix_sendbyte>
    8314:	e8bd8070 	pop	{r4, r5, r6, pc}

00008318 <neopix_fast_clear>:
    8318:	e92d41f0 	push	{r4, r5, r6, r7, r8, lr}
    831c:	e1a08000 	mov	r8, r0
    8320:	e2517000 	subs	r7, r1, #0, 0
    8324:	0a00000e 	beq	8364 <neopix_fast_clear+0x4c>
    8328:	e3a06000 	mov	r6, #0, 0
    832c:	e1a05006 	mov	r5, r6
    8330:	e5d84000 	ldrb	r4, [r8]
    8334:	e1a01005 	mov	r1, r5
    8338:	e1a00004 	mov	r0, r4
    833c:	ebffff75 	bl	8118 <pix_sendbyte>
    8340:	e1a01005 	mov	r1, r5
    8344:	e1a00004 	mov	r0, r4
    8348:	ebffff72 	bl	8118 <pix_sendbyte>
    834c:	e1a01005 	mov	r1, r5
    8350:	e1a00004 	mov	r0, r4
    8354:	ebffff6f 	bl	8118 <pix_sendbyte>
    8358:	e2866001 	add	r6, r6, #1, 0
    835c:	e1570006 	cmp	r7, r6
    8360:	1afffff2 	bne	8330 <neopix_fast_clear+0x18>
    8364:	e1a00008 	mov	r0, r8
    8368:	ebffff97 	bl	81cc <neopix_flush>
    836c:	e8bd81f0 	pop	{r4, r5, r6, r7, r8, pc}

00008370 <neopix_clear>:
    8370:	e92d4010 	push	{r4, lr}
    8374:	e5901004 	ldr	r1, [r0, #4]
    8378:	ebffffe6 	bl	8318 <neopix_fast_clear>
    837c:	e8bd8010 	pop	{r4, pc}

00008380 <neopix_write>:
    8380:	e590c004 	ldr	ip, [r0, #4]
    8384:	e15c0001 	cmp	ip, r1
    8388:	312fff1e 	bxcc	lr
    838c:	e0811081 	add	r1, r1, r1, lsl #1
    8390:	e0800001 	add	r0, r0, r1
    8394:	e5c02008 	strb	r2, [r0, #8]
    8398:	e5c03009 	strb	r3, [r0, #9]
    839c:	e5dd3000 	ldrb	r3, [sp]
    83a0:	e5c0300a 	strb	r3, [r0, #10]
    83a4:	e12fff1e 	bx	lr

000083a8 <memset>:
    83a8:	e0802002 	add	r2, r0, r2
    83ac:	e1a03000 	mov	r3, r0
    83b0:	e1530002 	cmp	r3, r2
    83b4:	212fff1e 	bxcs	lr
    83b8:	e4c31001 	strb	r1, [r3], #1
    83bc:	eafffffb 	b	83b0 <memset+0x8>

000083c0 <printk>:
    83c0:	e92d000f 	push	{r0, r1, r2, r3}
    83c4:	e92d4030 	push	{r4, r5, lr}
    83c8:	e24dd00c 	sub	sp, sp, #12, 0
    83cc:	e28d301c 	add	r3, sp, #28, 0
    83d0:	e58d3004 	str	r3, [sp, #4]
    83d4:	e59f5034 	ldr	r5, [pc, #52]	; 8410 <printk+0x50>
    83d8:	e59d2018 	ldr	r2, [sp, #24]
    83dc:	e3a01b01 	mov	r1, #1024	; 0x400
    83e0:	e1a00005 	mov	r0, r5
    83e4:	eb0000ba 	bl	86d4 <va_printk>
    83e8:	e1a04000 	mov	r4, r0
    83ec:	e59f3020 	ldr	r3, [pc, #32]	; 8414 <printk+0x54>
    83f0:	e5933000 	ldr	r3, [r3]
    83f4:	e1a00005 	mov	r0, r5
    83f8:	e12fff33 	blx	r3
    83fc:	e1a00004 	mov	r0, r4
    8400:	e28dd00c 	add	sp, sp, #12, 0
    8404:	e8bd4030 	pop	{r4, r5, lr}
    8408:	e28dd010 	add	sp, sp, #16, 0
    840c:	e12fff1e 	bx	lr
    8410:	0000988c 	andeq	r9, r0, ip, lsl #17
    8414:	00009878 	andeq	r9, r0, r8, ror r8

00008418 <internal_putk>:
    8418:	e92d4010 	push	{r4, lr}
    841c:	e1a04000 	mov	r4, r0
    8420:	e5d40000 	ldrb	r0, [r4]
    8424:	e3500000 	cmp	r0, #0, 0
    8428:	0a000004 	beq	8440 <internal_putk+0x28>
    842c:	e59f3014 	ldr	r3, [pc, #20]	; 8448 <internal_putk+0x30>
    8430:	e5933000 	ldr	r3, [r3]
    8434:	e12fff33 	blx	r3
    8438:	e2844001 	add	r4, r4, #1, 0
    843c:	eafffff7 	b	8420 <internal_putk+0x8>
    8440:	e3a00001 	mov	r0, #1, 0
    8444:	e8bd8010 	pop	{r4, pc}
    8448:	00009888 	andeq	r9, r0, r8, lsl #17

0000844c <isdigit>:
    844c:	e2400030 	sub	r0, r0, #48, 0	; 0x30
    8450:	e3500009 	cmp	r0, #9, 0
    8454:	83a00000 	movhi	r0, #0, 0
    8458:	93a00001 	movls	r0, #1, 0
    845c:	e12fff1e 	bx	lr

00008460 <pad>:
    8460:	e0401001 	sub	r1, r0, r1
    8464:	e1510002 	cmp	r1, r2
    8468:	b3a03020 	movlt	r3, #32, 0
    846c:	b4c03001 	strblt	r3, [r0], #1
    8470:	b2811001 	addlt	r1, r1, #1, 0
    8474:	bafffffa 	blt	8464 <pad+0x4>
    8478:	e3a03000 	mov	r3, #0, 0
    847c:	e5c03000 	strb	r3, [r0]
    8480:	e12fff1e 	bx	lr

00008484 <reverse>:
    8484:	e042c003 	sub	ip, r2, r3
    8488:	e28cc001 	add	ip, ip, #1, 0
    848c:	e15c0001 	cmp	ip, r1
    8490:	c04cc001 	subgt	ip, ip, r1
    8494:	c083300c 	addgt	r3, r3, ip
    8498:	e2421001 	sub	r1, r2, #1, 0
    849c:	e1a02000 	mov	r2, r0
    84a0:	e1510003 	cmp	r1, r3
    84a4:	2451c001 	ldrbcs	ip, [r1], #-1
    84a8:	24c2c001 	strbcs	ip, [r2], #1
    84ac:	2afffffb 	bcs	84a0 <reverse+0x1c>
    84b0:	e3a03000 	mov	r3, #0, 0
    84b4:	e5c23000 	strb	r3, [r2]
    84b8:	e12fff1e 	bx	lr

000084bc <emit>:
    84bc:	e92d40f0 	push	{r4, r5, r6, r7, lr}
    84c0:	e24dd04c 	sub	sp, sp, #76, 0	; 0x4c
    84c4:	e1a05001 	mov	r5, r1
    84c8:	e1a04002 	mov	r4, r2
    84cc:	e59d2060 	ldr	r2, [sp, #96]	; 0x60
    84d0:	e1520004 	cmp	r2, r4
    84d4:	c2442001 	subgt	r2, r4, #1, 0
    84d8:	e1a0c003 	mov	ip, r3
    84dc:	e2400002 	sub	r0, r0, #2, 0
    84e0:	e350000e 	cmp	r0, #14, 0
    84e4:	979ff100 	ldrls	pc, [pc, r0, lsl #2]
    84e8:	ea000050 	b	8630 <emit+0x174>
    84ec:	00008608 	andeq	r8, r0, r8, lsl #12
    84f0:	00008630 	andeq	r8, r0, r0, lsr r6
    84f4:	00008630 	andeq	r8, r0, r0, lsr r6
    84f8:	00008630 	andeq	r8, r0, r0, lsr r6
    84fc:	00008630 	andeq	r8, r0, r0, lsr r6
    8500:	00008630 	andeq	r8, r0, r0, lsr r6
    8504:	000085fc 	strdeq	r8, [r0], -ip
    8508:	00008630 	andeq	r8, r0, r0, lsr r6
    850c:	00008528 	andeq	r8, r0, r8, lsr #10
    8510:	00008630 	andeq	r8, r0, r0, lsr r6
    8514:	00008630 	andeq	r8, r0, r0, lsr r6
    8518:	00008630 	andeq	r8, r0, r0, lsr r6
    851c:	00008630 	andeq	r8, r0, r0, lsr r6
    8520:	00008630 	andeq	r8, r0, r0, lsr r6
    8524:	000085a0 	andeq	r8, r0, r0, lsr #11
    8528:	e59d1064 	ldr	r1, [sp, #100]	; 0x64
    852c:	e2511000 	subs	r1, r1, #0, 0
    8530:	13a01001 	movne	r1, #1, 0
    8534:	e0111fa3 	ands	r1, r1, r3, lsr #31
    8538:	0a000016 	beq	8598 <emit+0xdc>
    853c:	e263c000 	rsb	ip, r3, #0, 0
    8540:	e3a06001 	mov	r6, #1, 0
    8544:	e28d0008 	add	r0, sp, #8, 0
    8548:	e59f3100 	ldr	r3, [pc, #256]	; 8650 <emit+0x194>
    854c:	e0831c93 	umull	r1, r3, r3, ip
    8550:	e1a031a3 	lsr	r3, r3, #3
    8554:	e1a0e003 	mov	lr, r3
    8558:	e0833103 	add	r3, r3, r3, lsl #2
    855c:	e04c3083 	sub	r3, ip, r3, lsl #1
    8560:	e1a01000 	mov	r1, r0
    8564:	e2800001 	add	r0, r0, #1, 0
    8568:	e59f70e4 	ldr	r7, [pc, #228]	; 8654 <emit+0x198>
    856c:	e7d73003 	ldrb	r3, [r7, r3]
    8570:	e5c13000 	strb	r3, [r1]
    8574:	e1a0300c 	mov	r3, ip
    8578:	e1a0c00e 	mov	ip, lr
    857c:	e3530009 	cmp	r3, #9, 0
    8580:	8afffff0 	bhi	8548 <emit+0x8c>
    8584:	e3560000 	cmp	r6, #0, 0
    8588:	13a0302d 	movne	r3, #45, 0	; 0x2d
    858c:	15c03000 	strbne	r3, [r0]
    8590:	12810002 	addne	r0, r1, #2, 0
    8594:	ea00000f 	b	85d8 <emit+0x11c>
    8598:	e3a06000 	mov	r6, #0, 0
    859c:	eaffffe8 	b	8544 <emit+0x88>
    85a0:	e28d1008 	add	r1, sp, #8, 0
    85a4:	e20c000f 	and	r0, ip, #15, 0
    85a8:	e59fe0a8 	ldr	lr, [pc, #168]	; 8658 <emit+0x19c>
    85ac:	e7de0000 	ldrb	r0, [lr, r0]
    85b0:	e5c10000 	strb	r0, [r1]
    85b4:	e2811001 	add	r1, r1, #1, 0
    85b8:	e35c000f 	cmp	ip, #15, 0
    85bc:	e1a0c22c 	lsr	ip, ip, #4
    85c0:	8afffff7 	bhi	85a4 <emit+0xe8>
    85c4:	e1a00001 	mov	r0, r1
    85c8:	e3a03078 	mov	r3, #120, 0	; 0x78
    85cc:	e4c03002 	strb	r3, [r0], #2
    85d0:	e3a03030 	mov	r3, #48, 0	; 0x30
    85d4:	e5c13001 	strb	r3, [r1, #1]
    85d8:	e28d1008 	add	r1, sp, #8, 0
    85dc:	ebffff9f 	bl	8460 <pad>
    85e0:	e1a02000 	mov	r2, r0
    85e4:	e28d3008 	add	r3, sp, #8, 0
    85e8:	e1a01004 	mov	r1, r4
    85ec:	e1a00005 	mov	r0, r5
    85f0:	ebffffa3 	bl	8484 <reverse>
    85f4:	e28dd04c 	add	sp, sp, #76, 0	; 0x4c
    85f8:	e8bd80f0 	pop	{r4, r5, r6, r7, pc}
    85fc:	e5cd3008 	strb	r3, [sp, #8]
    8600:	e28d0009 	add	r0, sp, #9, 0
    8604:	eafffff3 	b	85d8 <emit+0x11c>
    8608:	e28d0008 	add	r0, sp, #8, 0
    860c:	e20c1001 	and	r1, ip, #1, 0
    8610:	e59fe044 	ldr	lr, [pc, #68]	; 865c <emit+0x1a0>
    8614:	e7de1001 	ldrb	r1, [lr, r1]
    8618:	e5c01000 	strb	r1, [r0]
    861c:	e2800001 	add	r0, r0, #1, 0
    8620:	e35c0001 	cmp	ip, #1, 0
    8624:	e1a0c0ac 	lsr	ip, ip, #1
    8628:	8afffff7 	bhi	860c <emit+0x150>
    862c:	eaffffe9 	b	85d8 <emit+0x11c>
    8630:	e59f3028 	ldr	r3, [pc, #40]	; 8660 <emit+0x1a4>
    8634:	e58d3000 	str	r3, [sp]
    8638:	e3a03079 	mov	r3, #121, 0	; 0x79
    863c:	e59f2020 	ldr	r2, [pc, #32]	; 8664 <emit+0x1a8>
    8640:	e59f1020 	ldr	r1, [pc, #32]	; 8668 <emit+0x1ac>
    8644:	e59f0020 	ldr	r0, [pc, #32]	; 866c <emit+0x1b0>
    8648:	ebffff5c 	bl	83c0 <printk>
    864c:	eb000156 	bl	8bac <clean_reboot>
    8650:	cccccccd 	stclgt	12, cr12, [ip], {205}	; 0xcd
    8654:	00009520 	andeq	r9, r0, r0, lsr #10
    8658:	0000952c 	andeq	r9, r0, ip, lsr #10
    865c:	00009540 	andeq	r9, r0, r0, asr #10
    8660:	0000951c 	andeq	r9, r0, ip, lsl r5
    8664:	0000964c 	andeq	r9, r0, ip, asr #12
    8668:	000094f4 	strdeq	r9, [r0], -r4
    866c:	00009508 	andeq	r9, r0, r8, lsl #10

00008670 <rpi_set_output>:
    8670:	e3500000 	cmp	r0, #0, 0
    8674:	0a000006 	beq	8694 <rpi_set_output+0x24>
    8678:	e59f303c 	ldr	r3, [pc, #60]	; 86bc <rpi_set_output+0x4c>
    867c:	e5830000 	str	r0, [r3]
    8680:	e3510000 	cmp	r1, #0, 0
    8684:	012fff1e 	bxeq	lr
    8688:	e59f3030 	ldr	r3, [pc, #48]	; 86c0 <rpi_set_output+0x50>
    868c:	e5831000 	str	r1, [r3]
    8690:	e12fff1e 	bx	lr
    8694:	e52de004 	push	{lr}		; (str lr, [sp, #-4]!)
    8698:	e24dd00c 	sub	sp, sp, #12, 0
    869c:	e59f3020 	ldr	r3, [pc, #32]	; 86c4 <rpi_set_output+0x54>
    86a0:	e58d3000 	str	r3, [sp]
    86a4:	e3a03020 	mov	r3, #32, 0
    86a8:	e59f2018 	ldr	r2, [pc, #24]	; 86c8 <rpi_set_output+0x58>
    86ac:	e59f1018 	ldr	r1, [pc, #24]	; 86cc <rpi_set_output+0x5c>
    86b0:	e59f0018 	ldr	r0, [pc, #24]	; 86d0 <rpi_set_output+0x60>
    86b4:	ebffff41 	bl	83c0 <printk>
    86b8:	eb00013b 	bl	8bac <clean_reboot>
    86bc:	00009888 	andeq	r9, r0, r8, lsl #17
    86c0:	00009878 	andeq	r9, r0, r8, ror r8
    86c4:	00009544 	andeq	r9, r0, r4, asr #10
    86c8:	00009654 	andeq	r9, r0, r4, asr r6
    86cc:	000094f4 	strdeq	r9, [r0], -r4
    86d0:	00009508 	andeq	r9, r0, r8, lsl #10

000086d4 <va_printk>:
    86d4:	e92d4ff0 	push	{r4, r5, r6, r7, r8, r9, sl, fp, lr}
    86d8:	e24ddf45 	sub	sp, sp, #276	; 0x114
    86dc:	e1a09000 	mov	r9, r0
    86e0:	e58d2008 	str	r2, [sp, #8]
    86e4:	e58d300c 	str	r3, [sp, #12]
    86e8:	e2411001 	sub	r1, r1, #1, 0
    86ec:	e0808001 	add	r8, r0, r1
    86f0:	e3a03000 	mov	r3, #0, 0
    86f4:	e5c03000 	strb	r3, [r0]
    86f8:	e1a04000 	mov	r4, r0
    86fc:	e1a06002 	mov	r6, r2
    8700:	ea000001 	b	870c <va_printk+0x38>
    8704:	e2866001 	add	r6, r6, #1, 0
    8708:	e4c43001 	strb	r3, [r4], #1
    870c:	e5d63000 	ldrb	r3, [r6]
    8710:	e3530000 	cmp	r3, #0, 0
    8714:	0a000108 	beq	8b3c <va_printk+0x468>
    8718:	e1540008 	cmp	r4, r8
    871c:	2a000106 	bcs	8b3c <va_printk+0x468>
    8720:	e3530025 	cmp	r3, #37, 0	; 0x25
    8724:	1afffff6 	bne	8704 <va_printk+0x30>
    8728:	e5d62001 	ldrb	r2, [r6, #1]
    872c:	e3520025 	cmp	r2, #37, 0	; 0x25
    8730:	04c43001 	strbeq	r3, [r4], #1
    8734:	02866002 	addeq	r6, r6, #2, 0
    8738:	0afffff3 	beq	870c <va_printk+0x38>
    873c:	e2866001 	add	r6, r6, #1, 0
    8740:	e3a05000 	mov	r5, #0, 0
    8744:	e5d67000 	ldrb	r7, [r6]
    8748:	e1a0a007 	mov	sl, r7
    874c:	e1a00007 	mov	r0, r7
    8750:	ebffff3d 	bl	844c <isdigit>
    8754:	e3500000 	cmp	r0, #0, 0
    8758:	0a000004 	beq	8770 <va_printk+0x9c>
    875c:	e0855105 	add	r5, r5, r5, lsl #2
    8760:	e0875085 	add	r5, r7, r5, lsl #1
    8764:	e2455030 	sub	r5, r5, #48, 0	; 0x30
    8768:	e2866001 	add	r6, r6, #1, 0
    876c:	eafffff4 	b	8744 <va_printk+0x70>
    8770:	e355001f 	cmp	r5, #31, 0
    8774:	8a00001a 	bhi	87e4 <va_printk+0x110>
    8778:	e2477062 	sub	r7, r7, #98, 0	; 0x62
    877c:	e3570016 	cmp	r7, #22, 0
    8780:	979ff107 	ldrls	pc, [pc, r7, lsl #2]
    8784:	ea0000d4 	b	8adc <va_printk+0x408>
    8788:	00008a60 	andeq	r8, r0, r0, ror #20
    878c:	00008aa8 	andeq	r8, r0, r8, lsr #21
    8790:	000089c0 	andeq	r8, r0, r0, asr #19
    8794:	00008adc 	ldrdeq	r8, [r0], -ip
    8798:	000089a8 	andeq	r8, r0, r8, lsr #19
    879c:	00008adc 	ldrdeq	r8, [r0], -ip
    87a0:	00008adc 	ldrdeq	r8, [r0], -ip
    87a4:	00008adc 	ldrdeq	r8, [r0], -ip
    87a8:	00008adc 	ldrdeq	r8, [r0], -ip
    87ac:	00008adc 	ldrdeq	r8, [r0], -ip
    87b0:	00008804 	andeq	r8, r0, r4, lsl #16
    87b4:	00008adc 	ldrdeq	r8, [r0], -ip
    87b8:	00008adc 	ldrdeq	r8, [r0], -ip
    87bc:	00008adc 	ldrdeq	r8, [r0], -ip
    87c0:	00008a2c 	andeq	r8, r0, ip, lsr #20
    87c4:	00008adc 	ldrdeq	r8, [r0], -ip
    87c8:	00008adc 	ldrdeq	r8, [r0], -ip
    87cc:	00008a94 	muleq	r0, r4, sl
    87d0:	00008adc 	ldrdeq	r8, [r0], -ip
    87d4:	000089f8 	strdeq	r8, [r0], -r8	; <UNPREDICTABLE>
    87d8:	00008adc 	ldrdeq	r8, [r0], -ip
    87dc:	00008adc 	ldrdeq	r8, [r0], -ip
    87e0:	00008a2c 	andeq	r8, r0, ip, lsr #20
    87e4:	e59f3364 	ldr	r3, [pc, #868]	; 8b50 <va_printk+0x47c>
    87e8:	e58d3000 	str	r3, [sp]
    87ec:	e3a03098 	mov	r3, #152, 0	; 0x98
    87f0:	e59f235c 	ldr	r2, [pc, #860]	; 8b54 <va_printk+0x480>
    87f4:	e59f135c 	ldr	r1, [pc, #860]	; 8b58 <va_printk+0x484>
    87f8:	e59f035c 	ldr	r0, [pc, #860]	; 8b5c <va_printk+0x488>
    87fc:	ebfffeef 	bl	83c0 <printk>
    8800:	eb0000e9 	bl	8bac <clean_reboot>
    8804:	e3a02003 	mov	r2, #3, 0
    8808:	e59f1350 	ldr	r1, [pc, #848]	; 8b60 <va_printk+0x48c>
    880c:	e1a00006 	mov	r0, r6
    8810:	eb00031f 	bl	9494 <strncmp>
    8814:	e3500000 	cmp	r0, #0, 0
    8818:	0a000005 	beq	8834 <va_printk+0x160>
    881c:	e3a02003 	mov	r2, #3, 0
    8820:	e59f133c 	ldr	r1, [pc, #828]	; 8b64 <va_printk+0x490>
    8824:	e1a00006 	mov	r0, r6
    8828:	eb000319 	bl	9494 <strncmp>
    882c:	e3500000 	cmp	r0, #0, 0
    8830:	1a000033 	bne	8904 <va_printk+0x230>
    8834:	e286b002 	add	fp, r6, #2, 0
    8838:	e59d300c 	ldr	r3, [sp, #12]
    883c:	e2833007 	add	r3, r3, #7, 0
    8840:	e3c33007 	bic	r3, r3, #7, 0
    8844:	e2832008 	add	r2, r3, #8, 0
    8848:	e58d200c 	str	r2, [sp, #12]
    884c:	e593a000 	ldr	sl, [r3]
    8850:	e5937004 	ldr	r7, [r3, #4]
    8854:	e1a01007 	mov	r1, r7
    8858:	e59f0308 	ldr	r0, [pc, #776]	; 8b68 <va_printk+0x494>
    885c:	ebfffed7 	bl	83c0 <printk>
    8860:	e1a0100a 	mov	r1, sl
    8864:	e59f0300 	ldr	r0, [pc, #768]	; 8b6c <va_printk+0x498>
    8868:	ebfffed4 	bl	83c0 <printk>
    886c:	e3a02003 	mov	r2, #3, 0
    8870:	e59f12e8 	ldr	r1, [pc, #744]	; 8b60 <va_printk+0x48c>
    8874:	e1a00006 	mov	r0, r6
    8878:	eb000305 	bl	9494 <strncmp>
    887c:	e3500000 	cmp	r0, #0, 0
    8880:	0a000027 	beq	8924 <va_printk+0x250>
    8884:	e3a02003 	mov	r2, #3, 0
    8888:	e59f12d4 	ldr	r1, [pc, #724]	; 8b64 <va_printk+0x490>
    888c:	e1a00006 	mov	r0, r6
    8890:	eb0002ff 	bl	9494 <strncmp>
    8894:	e3500000 	cmp	r0, #0, 0
    8898:	1a00003b 	bne	898c <va_printk+0x2b8>
    889c:	e3a06000 	mov	r6, #0, 0
    88a0:	e58d6004 	str	r6, [sp, #4]
    88a4:	e58d5000 	str	r5, [sp]
    88a8:	e1a03007 	mov	r3, r7
    88ac:	e3a02080 	mov	r2, #128, 0	; 0x80
    88b0:	e28d1010 	add	r1, sp, #16, 0
    88b4:	e3a0000a 	mov	r0, #10, 0
    88b8:	ebfffeff 	bl	84bc <emit>
    88bc:	e1a07000 	mov	r7, r0
    88c0:	e58d6004 	str	r6, [sp, #4]
    88c4:	e58d5000 	str	r5, [sp]
    88c8:	e1a0300a 	mov	r3, sl
    88cc:	e3a02080 	mov	r2, #128, 0	; 0x80
    88d0:	e28d1090 	add	r1, sp, #144, 0	; 0x90
    88d4:	e3a0000a 	mov	r0, #10, 0
    88d8:	ebfffef7 	bl	84bc <emit>
    88dc:	e59f128c 	ldr	r1, [pc, #652]	; 8b70 <va_printk+0x49c>
    88e0:	e28d0010 	add	r0, sp, #16, 0
    88e4:	eb0002d7 	bl	9448 <strcmp>
    88e8:	e1500006 	cmp	r0, r6
    88ec:	1a000021 	bne	8978 <va_printk+0x2a4>
    88f0:	e28d1090 	add	r1, sp, #144, 0	; 0x90
    88f4:	e28d0010 	add	r0, sp, #16, 0
    88f8:	eb0002dd 	bl	9474 <strcpy>
    88fc:	e1a0600b 	mov	r6, fp
    8900:	ea00003a 	b	89f0 <va_printk+0x31c>
    8904:	e59f3268 	ldr	r3, [pc, #616]	; 8b74 <va_printk+0x4a0>
    8908:	e58d3000 	str	r3, [sp]
    890c:	e3a0309f 	mov	r3, #159, 0	; 0x9f
    8910:	e59f223c 	ldr	r2, [pc, #572]	; 8b54 <va_printk+0x480>
    8914:	e59f123c 	ldr	r1, [pc, #572]	; 8b58 <va_printk+0x484>
    8918:	e59f023c 	ldr	r0, [pc, #572]	; 8b5c <va_printk+0x488>
    891c:	ebfffea7 	bl	83c0 <printk>
    8920:	eb0000a1 	bl	8bac <clean_reboot>
    8924:	e3a06000 	mov	r6, #0, 0
    8928:	e58d6004 	str	r6, [sp, #4]
    892c:	e58d5000 	str	r5, [sp]
    8930:	e1a03007 	mov	r3, r7
    8934:	e3a02080 	mov	r2, #128, 0	; 0x80
    8938:	e28d1010 	add	r1, sp, #16, 0
    893c:	e3a00010 	mov	r0, #16, 0
    8940:	ebfffedd 	bl	84bc <emit>
    8944:	e1a07000 	mov	r7, r0
    8948:	e58d6004 	str	r6, [sp, #4]
    894c:	e58d5000 	str	r5, [sp]
    8950:	e1a0300a 	mov	r3, sl
    8954:	e3a02080 	mov	r2, #128, 0	; 0x80
    8958:	e28d1090 	add	r1, sp, #144, 0	; 0x90
    895c:	e3a00010 	mov	r0, #16, 0
    8960:	ebfffed5 	bl	84bc <emit>
    8964:	e28d1092 	add	r1, sp, #146, 0	; 0x92
    8968:	e28d0010 	add	r0, sp, #16, 0
    896c:	eb0002a8 	bl	9414 <strcat>
    8970:	e1a0600b 	mov	r6, fp
    8974:	ea00001d 	b	89f0 <va_printk+0x31c>
    8978:	e28d1090 	add	r1, sp, #144, 0	; 0x90
    897c:	e28d0010 	add	r0, sp, #16, 0
    8980:	eb0002a3 	bl	9414 <strcat>
    8984:	e1a0600b 	mov	r6, fp
    8988:	ea000018 	b	89f0 <va_printk+0x31c>
    898c:	e58d6000 	str	r6, [sp]
    8990:	e3a030b6 	mov	r3, #182, 0	; 0xb6
    8994:	e59f21b8 	ldr	r2, [pc, #440]	; 8b54 <va_printk+0x480>
    8998:	e59f11b8 	ldr	r1, [pc, #440]	; 8b58 <va_printk+0x484>
    899c:	e59f01d4 	ldr	r0, [pc, #468]	; 8b78 <va_printk+0x4a4>
    89a0:	ebfffe86 	bl	83c0 <printk>
    89a4:	eb000080 	bl	8bac <clean_reboot>
    89a8:	e3a030be 	mov	r3, #190, 0	; 0xbe
    89ac:	e59f21a0 	ldr	r2, [pc, #416]	; 8b54 <va_printk+0x480>
    89b0:	e59f11a0 	ldr	r1, [pc, #416]	; 8b58 <va_printk+0x484>
    89b4:	e59f01c0 	ldr	r0, [pc, #448]	; 8b7c <va_printk+0x4a8>
    89b8:	ebfffe80 	bl	83c0 <printk>
    89bc:	eb00007a 	bl	8bac <clean_reboot>
    89c0:	e59d300c 	ldr	r3, [sp, #12]
    89c4:	e2832004 	add	r2, r3, #4, 0
    89c8:	e58d200c 	str	r2, [sp, #12]
    89cc:	e5933000 	ldr	r3, [r3]
    89d0:	e3a02001 	mov	r2, #1, 0
    89d4:	e58d2004 	str	r2, [sp, #4]
    89d8:	e58d5000 	str	r5, [sp]
    89dc:	e3a02080 	mov	r2, #128, 0	; 0x80
    89e0:	e28d1010 	add	r1, sp, #16, 0
    89e4:	e3a0000a 	mov	r0, #10, 0
    89e8:	ebfffeb3 	bl	84bc <emit>
    89ec:	e1a07000 	mov	r7, r0
    89f0:	e2866001 	add	r6, r6, #1, 0
    89f4:	ea00004a 	b	8b24 <va_printk+0x450>
    89f8:	e59d300c 	ldr	r3, [sp, #12]
    89fc:	e2832004 	add	r2, r3, #4, 0
    8a00:	e58d200c 	str	r2, [sp, #12]
    8a04:	e5933000 	ldr	r3, [r3]
    8a08:	e3a02000 	mov	r2, #0, 0
    8a0c:	e58d2004 	str	r2, [sp, #4]
    8a10:	e58d5000 	str	r5, [sp]
    8a14:	e3a02080 	mov	r2, #128, 0	; 0x80
    8a18:	e28d1010 	add	r1, sp, #16, 0
    8a1c:	e3a0000a 	mov	r0, #10, 0
    8a20:	ebfffea5 	bl	84bc <emit>
    8a24:	e1a07000 	mov	r7, r0
    8a28:	eafffff0 	b	89f0 <va_printk+0x31c>
    8a2c:	e59d300c 	ldr	r3, [sp, #12]
    8a30:	e2832004 	add	r2, r3, #4, 0
    8a34:	e58d200c 	str	r2, [sp, #12]
    8a38:	e5933000 	ldr	r3, [r3]
    8a3c:	e3a02000 	mov	r2, #0, 0
    8a40:	e58d2004 	str	r2, [sp, #4]
    8a44:	e58d5000 	str	r5, [sp]
    8a48:	e3a02080 	mov	r2, #128, 0	; 0x80
    8a4c:	e28d1010 	add	r1, sp, #16, 0
    8a50:	e3a00010 	mov	r0, #16, 0
    8a54:	ebfffe98 	bl	84bc <emit>
    8a58:	e1a07000 	mov	r7, r0
    8a5c:	eaffffe3 	b	89f0 <va_printk+0x31c>
    8a60:	e59d300c 	ldr	r3, [sp, #12]
    8a64:	e2832004 	add	r2, r3, #4, 0
    8a68:	e58d200c 	str	r2, [sp, #12]
    8a6c:	e5933000 	ldr	r3, [r3]
    8a70:	e3a02000 	mov	r2, #0, 0
    8a74:	e58d2004 	str	r2, [sp, #4]
    8a78:	e58d5000 	str	r5, [sp]
    8a7c:	e3a02080 	mov	r2, #128, 0	; 0x80
    8a80:	e28d1010 	add	r1, sp, #16, 0
    8a84:	e3a00002 	mov	r0, #2, 0
    8a88:	ebfffe8b 	bl	84bc <emit>
    8a8c:	e1a07000 	mov	r7, r0
    8a90:	eaffffd6 	b	89f0 <va_printk+0x31c>
    8a94:	e59d300c 	ldr	r3, [sp, #12]
    8a98:	e2832004 	add	r2, r3, #4, 0
    8a9c:	e58d200c 	str	r2, [sp, #12]
    8aa0:	e5937000 	ldr	r7, [r3]
    8aa4:	eaffffd1 	b	89f0 <va_printk+0x31c>
    8aa8:	e59d300c 	ldr	r3, [sp, #12]
    8aac:	e2832004 	add	r2, r3, #4, 0
    8ab0:	e58d200c 	str	r2, [sp, #12]
    8ab4:	e5933000 	ldr	r3, [r3]
    8ab8:	e3a02000 	mov	r2, #0, 0
    8abc:	e58d2004 	str	r2, [sp, #4]
    8ac0:	e58d5000 	str	r5, [sp]
    8ac4:	e3a02080 	mov	r2, #128, 0	; 0x80
    8ac8:	e28d1010 	add	r1, sp, #16, 0
    8acc:	e3a00008 	mov	r0, #8, 0
    8ad0:	ebfffe79 	bl	84bc <emit>
    8ad4:	e1a07000 	mov	r7, r0
    8ad8:	eaffffc4 	b	89f0 <va_printk+0x31c>
    8adc:	e3a03000 	mov	r3, #0, 0
    8ae0:	e5c63001 	strb	r3, [r6, #1]
    8ae4:	e1a0200a 	mov	r2, sl
    8ae8:	e1a0100a 	mov	r1, sl
    8aec:	e59f008c 	ldr	r0, [pc, #140]	; 8b80 <va_printk+0x4ac>
    8af0:	ebfffe32 	bl	83c0 <printk>
    8af4:	e59f3088 	ldr	r3, [pc, #136]	; 8b84 <va_printk+0x4b0>
    8af8:	e5933000 	ldr	r3, [r3]
    8afc:	e59d0008 	ldr	r0, [sp, #8]
    8b00:	e12fff33 	blx	r3
    8b04:	e3a030e2 	mov	r3, #226, 0	; 0xe2
    8b08:	e59f2044 	ldr	r2, [pc, #68]	; 8b54 <va_printk+0x480>
    8b0c:	e59f1044 	ldr	r1, [pc, #68]	; 8b58 <va_printk+0x484>
    8b10:	e59f0070 	ldr	r0, [pc, #112]	; 8b88 <va_printk+0x4b4>
    8b14:	ebfffe29 	bl	83c0 <printk>
    8b18:	eb000023 	bl	8bac <clean_reboot>
    8b1c:	e2877001 	add	r7, r7, #1, 0
    8b20:	e4c43001 	strb	r3, [r4], #1
    8b24:	e1540008 	cmp	r4, r8
    8b28:	2afffef7 	bcs	870c <va_printk+0x38>
    8b2c:	e5d73000 	ldrb	r3, [r7]
    8b30:	e3530000 	cmp	r3, #0, 0
    8b34:	1afffff8 	bne	8b1c <va_printk+0x448>
    8b38:	eafffef3 	b	870c <va_printk+0x38>
    8b3c:	e3a03000 	mov	r3, #0, 0
    8b40:	e4c43001 	strb	r3, [r4], #1
    8b44:	e0440009 	sub	r0, r4, r9
    8b48:	e28ddf45 	add	sp, sp, #276	; 0x114
    8b4c:	e8bd8ff0 	pop	{r4, r5, r6, r7, r8, r9, sl, fp, pc}
    8b50:	0000954c 	andeq	r9, r0, ip, asr #10
    8b54:	00009664 	andeq	r9, r0, r4, ror #12
    8b58:	000094f4 	strdeq	r9, [r0], -r4
    8b5c:	00009508 	andeq	r9, r0, r8, lsl #10
    8b60:	00009558 	andeq	r9, r0, r8, asr r5
    8b64:	0000955c 	andeq	r9, r0, ip, asr r5
    8b68:	00009560 	andeq	r9, r0, r0, ror #10
    8b6c:	00009568 	andeq	r9, r0, r8, ror #10
    8b70:	0000951c 	andeq	r9, r0, ip, lsl r5
    8b74:	00009570 	andeq	r9, r0, r0, ror r5
    8b78:	000095ac 	andeq	r9, r0, ip, lsr #11
    8b7c:	000095d4 	ldrdeq	r9, [r0], -r4
    8b80:	000095fc 	strdeq	r9, [r0], -ip
    8b84:	00009878 	andeq	r9, r0, r8, ror r8
    8b88:	0000962c 	andeq	r9, r0, ip, lsr #12

00008b8c <enable_cache>:
    8b8c:	ee113f10 	mrc	15, 0, r3, cr1, cr0, {0}
    8b90:	e3833b06 	orr	r3, r3, #6144	; 0x1800
    8b94:	ee013f10 	mcr	15, 0, r3, cr1, cr0, {0}
    8b98:	e12fff1e 	bx	lr

00008b9c <disable_cache>:
    8b9c:	ee113f10 	mrc	15, 0, r3, cr1, cr0, {0}
    8ba0:	e3c33b06 	bic	r3, r3, #6144	; 0x1800
    8ba4:	ee013f10 	mcr	15, 0, r3, cr1, cr0, {0}
    8ba8:	e12fff1e 	bx	lr

00008bac <clean_reboot>:
    8bac:	e92d4010 	push	{r4, lr}
    8bb0:	e59f3018 	ldr	r3, [pc, #24]	; 8bd0 <clean_reboot+0x24>
    8bb4:	e5933000 	ldr	r3, [r3]
    8bb8:	e59f0014 	ldr	r0, [pc, #20]	; 8bd4 <clean_reboot+0x28>
    8bbc:	e12fff33 	blx	r3
    8bc0:	eb00010a 	bl	8ff0 <uart_flush_tx>
    8bc4:	e3a0000a 	mov	r0, #10, 0
    8bc8:	eb000047 	bl	8cec <delay_ms>
    8bcc:	eb00001c 	bl	8c44 <rpi_reboot>
    8bd0:	00009878 	andeq	r9, r0, r8, ror r8
    8bd4:	00009670 	andeq	r9, r0, r0, ror r6

00008bd8 <_cstart>:
    8bd8:	e92d4010 	push	{r4, lr}
    8bdc:	eb00000c 	bl	8c14 <custom_loader>
    8be0:	e59f3024 	ldr	r3, [pc, #36]	; 8c0c <_cstart+0x34>
    8be4:	e59f2024 	ldr	r2, [pc, #36]	; 8c10 <_cstart+0x38>
    8be8:	e1530002 	cmp	r3, r2
    8bec:	33a02000 	movcc	r2, #0, 0
    8bf0:	34832004 	strcc	r2, [r3], #4
    8bf4:	3afffffa 	bcc	8be4 <_cstart+0xc>
    8bf8:	eb00009e 	bl	8e78 <uart_init>
    8bfc:	e3a03001 	mov	r3, #1, 0
    8c00:	ee0f3f1c 	mcr	15, 0, r3, cr15, cr12, {0}
    8c04:	ebfffd26 	bl	80a4 <notmain>
    8c08:	ebffffe7 	bl	8bac <clean_reboot>
    8c0c:	0000988c 	andeq	r9, r0, ip, lsl #17
    8c10:	00009c90 	muleq	r0, r0, ip

00008c14 <custom_loader>:
    8c14:	e12fff1e 	bx	lr

00008c18 <at_user_level>:
    8c18:	e10f0000 	mrs	r0, CPSR
    8c1c:	e200001f 	and	r0, r0, #31, 0
    8c20:	e3500010 	cmp	r0, #16, 0
    8c24:	13a00000 	movne	r0, #0, 0
    8c28:	03a00001 	moveq	r0, #1, 0
    8c2c:	e12fff1e 	bx	lr

00008c30 <set_user_level>:
    8c30:	e10f3000 	mrs	r3, CPSR
    8c34:	e3c3301f 	bic	r3, r3, #31, 0
    8c38:	e3833010 	orr	r3, r3, #16, 0
    8c3c:	e129f003 	msr	CPSR_fc, r3
    8c40:	e12fff1e 	bx	lr

00008c44 <rpi_reboot>:
    8c44:	e92d4010 	push	{r4, lr}
    8c48:	ebfffff2 	bl	8c18 <at_user_level>
    8c4c:	e3500000 	cmp	r0, #0, 0
    8c50:	1a00000a 	bne	8c80 <rpi_reboot+0x3c>
    8c54:	eb000219 	bl	94c0 <reboot_callout>
    8c58:	eb0000e4 	bl	8ff0 <uart_flush_tx>
    8c5c:	e3a0000a 	mov	r0, #10, 0
    8c60:	eb000021 	bl	8cec <delay_ms>
    8c64:	e59f101c 	ldr	r1, [pc, #28]	; 8c88 <rpi_reboot+0x44>
    8c68:	e59f001c 	ldr	r0, [pc, #28]	; 8c8c <rpi_reboot+0x48>
    8c6c:	ebfffcec 	bl	8024 <PUT32>
    8c70:	e59f1018 	ldr	r1, [pc, #24]	; 8c90 <rpi_reboot+0x4c>
    8c74:	e59f0018 	ldr	r0, [pc, #24]	; 8c94 <rpi_reboot+0x50>
    8c78:	ebfffce9 	bl	8024 <PUT32>
    8c7c:	eafffffe 	b	8c7c <rpi_reboot+0x38>
    8c80:	ebffffea 	bl	8c30 <set_user_level>
    8c84:	eafffff2 	b	8c54 <rpi_reboot+0x10>
    8c88:	5a000001 	bpl	8c94 <rpi_reboot+0x50>
    8c8c:	20100024 	andscs	r0, r0, r4, lsr #32
    8c90:	5a000020 	bpl	8d18 <delay_sec+0x14>
    8c94:	2010001c 	andscs	r0, r0, ip, lsl r0

00008c98 <timer_get_usec_raw>:
    8c98:	e92d4010 	push	{r4, lr}
    8c9c:	e59f0004 	ldr	r0, [pc, #4]	; 8ca8 <timer_get_usec_raw+0x10>
    8ca0:	ebfffce1 	bl	802c <GET32>
    8ca4:	e8bd8010 	pop	{r4, pc}
    8ca8:	20003004 	andcs	r3, r0, r4

00008cac <timer_get_usec>:
    8cac:	e92d4010 	push	{r4, lr}
    8cb0:	eb000203 	bl	94c4 <dev_barrier>
    8cb4:	ebfffff7 	bl	8c98 <timer_get_usec_raw>
    8cb8:	e1a04000 	mov	r4, r0
    8cbc:	eb000200 	bl	94c4 <dev_barrier>
    8cc0:	e1a00004 	mov	r0, r4
    8cc4:	e8bd8010 	pop	{r4, pc}

00008cc8 <delay_us>:
    8cc8:	e92d4070 	push	{r4, r5, r6, lr}
    8ccc:	e1a05000 	mov	r5, r0
    8cd0:	ebfffff5 	bl	8cac <timer_get_usec>
    8cd4:	e1a04000 	mov	r4, r0
    8cd8:	ebfffff3 	bl	8cac <timer_get_usec>
    8cdc:	e0400004 	sub	r0, r0, r4
    8ce0:	e1500005 	cmp	r0, r5
    8ce4:	3afffffb 	bcc	8cd8 <delay_us+0x10>
    8ce8:	e8bd8070 	pop	{r4, r5, r6, pc}

00008cec <delay_ms>:
    8cec:	e92d4010 	push	{r4, lr}
    8cf0:	e0603280 	rsb	r3, r0, r0, lsl #5
    8cf4:	e0800103 	add	r0, r0, r3, lsl #2
    8cf8:	e1a00180 	lsl	r0, r0, #3
    8cfc:	ebfffff1 	bl	8cc8 <delay_us>
    8d00:	e8bd8010 	pop	{r4, pc}

00008d04 <delay_sec>:
    8d04:	e92d4010 	push	{r4, lr}
    8d08:	e0603280 	rsb	r3, r0, r0, lsl #5
    8d0c:	e0800103 	add	r0, r0, r3, lsl #2
    8d10:	e1a00180 	lsl	r0, r0, #3
    8d14:	ebfffff4 	bl	8cec <delay_ms>
    8d18:	e8bd8010 	pop	{r4, pc}

00008d1c <gpio_set_function>:
    8d1c:	e350001f 	cmp	r0, #31, 0
    8d20:	812fff1e 	bxhi	lr
    8d24:	e92d4070 	push	{r4, r5, r6, lr}
    8d28:	e1a05001 	mov	r5, r1
    8d2c:	e3d13007 	bics	r3, r1, #7, 0
    8d30:	18bd8070 	popne	{r4, r5, r6, pc}
    8d34:	e59f3040 	ldr	r3, [pc, #64]	; 8d7c <gpio_set_function+0x60>
    8d38:	e0832093 	umull	r2, r3, r3, r0
    8d3c:	e1a031a3 	lsr	r3, r3, #3
    8d40:	e1a02003 	mov	r2, r3
    8d44:	e0833103 	add	r3, r3, r3, lsl #2
    8d48:	e0403083 	sub	r3, r0, r3, lsl #1
    8d4c:	e0834083 	add	r4, r3, r3, lsl #1
    8d50:	e2820302 	add	r0, r2, #134217728	; 0x8000000
    8d54:	e2800702 	add	r0, r0, #524288	; 0x80000
    8d58:	e1a06100 	lsl	r6, r0, #2
    8d5c:	e1a00006 	mov	r0, r6
    8d60:	ebfffcb1 	bl	802c <GET32>
    8d64:	e3a01007 	mov	r1, #7, 0
    8d68:	e1c01411 	bic	r1, r0, r1, lsl r4
    8d6c:	e1811415 	orr	r1, r1, r5, lsl r4
    8d70:	e1a00006 	mov	r0, r6
    8d74:	ebfffcaa 	bl	8024 <PUT32>
    8d78:	e8bd8070 	pop	{r4, r5, r6, pc}
    8d7c:	cccccccd 	stclgt	12, cr12, [ip], {205}	; 0xcd

00008d80 <gpio_set_output>:
    8d80:	e92d4010 	push	{r4, lr}
    8d84:	e3a01001 	mov	r1, #1, 0
    8d88:	ebffffe3 	bl	8d1c <gpio_set_function>
    8d8c:	e8bd8010 	pop	{r4, pc}

00008d90 <gpio_set_on>:
    8d90:	e350001f 	cmp	r0, #31, 0
    8d94:	812fff1e 	bxhi	lr
    8d98:	e92d4010 	push	{r4, lr}
    8d9c:	e3a01001 	mov	r1, #1, 0
    8da0:	e1a01011 	lsl	r1, r1, r0
    8da4:	e59f0004 	ldr	r0, [pc, #4]	; 8db0 <gpio_set_on+0x20>
    8da8:	ebfffc9d 	bl	8024 <PUT32>
    8dac:	e8bd8010 	pop	{r4, pc}
    8db0:	2020001c 	eorcs	r0, r0, ip, lsl r0

00008db4 <gpio_set_off>:
    8db4:	e350001f 	cmp	r0, #31, 0
    8db8:	812fff1e 	bxhi	lr
    8dbc:	e92d4010 	push	{r4, lr}
    8dc0:	e3a01001 	mov	r1, #1, 0
    8dc4:	e1a01011 	lsl	r1, r1, r0
    8dc8:	e59f0004 	ldr	r0, [pc, #4]	; 8dd4 <gpio_set_off+0x20>
    8dcc:	ebfffc94 	bl	8024 <PUT32>
    8dd0:	e8bd8010 	pop	{r4, pc}
    8dd4:	20200028 	eorcs	r0, r0, r8, lsr #32

00008dd8 <gpio_set_input>:
    8dd8:	e92d4010 	push	{r4, lr}
    8ddc:	e3a01000 	mov	r1, #0, 0
    8de0:	ebffffcd 	bl	8d1c <gpio_set_function>
    8de4:	e8bd8010 	pop	{r4, pc}

00008de8 <gpio_write>:
    8de8:	e92d4010 	push	{r4, lr}
    8dec:	e3510000 	cmp	r1, #0, 0
    8df0:	0a000001 	beq	8dfc <gpio_write+0x14>
    8df4:	ebffffe5 	bl	8d90 <gpio_set_on>
    8df8:	e8bd8010 	pop	{r4, pc}
    8dfc:	ebffffec 	bl	8db4 <gpio_set_off>
    8e00:	e8bd8010 	pop	{r4, pc}

00008e04 <gpio_read>:
    8e04:	e350001f 	cmp	r0, #31, 0
    8e08:	8a000007 	bhi	8e2c <gpio_read+0x28>
    8e0c:	e92d4010 	push	{r4, lr}
    8e10:	e200401f 	and	r4, r0, #31, 0
    8e14:	e59f3018 	ldr	r3, [pc, #24]	; 8e34 <gpio_read+0x30>
    8e18:	e08302a0 	add	r0, r3, r0, lsr #5
    8e1c:	ebfffc82 	bl	802c <GET32>
    8e20:	e1a00430 	lsr	r0, r0, r4
    8e24:	e2000001 	and	r0, r0, #1, 0
    8e28:	e8bd8010 	pop	{r4, pc}
    8e2c:	e3e00000 	mvn	r0, #0, 0
    8e30:	e12fff1e 	bx	lr
    8e34:	20200034 	eorcs	r0, r0, r4, lsr r0

00008e38 <and_in32>:
    8e38:	e92d4070 	push	{r4, r5, r6, lr}
    8e3c:	e1a04000 	mov	r4, r0
    8e40:	e1a05001 	mov	r5, r1
    8e44:	ebfffc78 	bl	802c <GET32>
    8e48:	e0001005 	and	r1, r0, r5
    8e4c:	e1a00004 	mov	r0, r4
    8e50:	ebfffc73 	bl	8024 <PUT32>
    8e54:	e8bd8070 	pop	{r4, r5, r6, pc}

00008e58 <or_in32>:
    8e58:	e92d4070 	push	{r4, r5, r6, lr}
    8e5c:	e1a04000 	mov	r4, r0
    8e60:	e1a05001 	mov	r5, r1
    8e64:	ebfffc70 	bl	802c <GET32>
    8e68:	e1801005 	orr	r1, r0, r5
    8e6c:	e1a00004 	mov	r0, r4
    8e70:	ebfffc6b 	bl	8024 <PUT32>
    8e74:	e8bd8070 	pop	{r4, r5, r6, pc}

00008e78 <uart_init>:
    8e78:	e92d4010 	push	{r4, lr}
    8e7c:	e3a01002 	mov	r1, #2, 0
    8e80:	e3a0000e 	mov	r0, #14, 0
    8e84:	ebffffa4 	bl	8d1c <gpio_set_function>
    8e88:	e3a01002 	mov	r1, #2, 0
    8e8c:	e3a0000f 	mov	r0, #15, 0
    8e90:	ebffffa1 	bl	8d1c <gpio_set_function>
    8e94:	eb00018a 	bl	94c4 <dev_barrier>
    8e98:	e3a01001 	mov	r1, #1, 0
    8e9c:	e59f0064 	ldr	r0, [pc, #100]	; 8f08 <uart_init+0x90>
    8ea0:	ebffffec 	bl	8e58 <or_in32>
    8ea4:	eb000186 	bl	94c4 <dev_barrier>
    8ea8:	e59f405c 	ldr	r4, [pc, #92]	; 8f0c <uart_init+0x94>
    8eac:	e3a01000 	mov	r1, #0, 0
    8eb0:	e1a00004 	mov	r0, r4
    8eb4:	ebfffc5a 	bl	8024 <PUT32>
    8eb8:	e3a01000 	mov	r1, #0, 0
    8ebc:	e59f004c 	ldr	r0, [pc, #76]	; 8f10 <uart_init+0x98>
    8ec0:	ebfffc57 	bl	8024 <PUT32>
    8ec4:	e3a01003 	mov	r1, #3, 0
    8ec8:	e59f0044 	ldr	r0, [pc, #68]	; 8f14 <uart_init+0x9c>
    8ecc:	ebfffc54 	bl	8024 <PUT32>
    8ed0:	e3a01000 	mov	r1, #0, 0
    8ed4:	e59f003c 	ldr	r0, [pc, #60]	; 8f18 <uart_init+0xa0>
    8ed8:	ebfffc51 	bl	8024 <PUT32>
    8edc:	e3a010c7 	mov	r1, #199, 0	; 0xc7
    8ee0:	e59f0034 	ldr	r0, [pc, #52]	; 8f1c <uart_init+0xa4>
    8ee4:	ebfffc4e 	bl	8024 <PUT32>
    8ee8:	e59f1030 	ldr	r1, [pc, #48]	; 8f20 <uart_init+0xa8>
    8eec:	e59f0030 	ldr	r0, [pc, #48]	; 8f24 <uart_init+0xac>
    8ef0:	ebfffc4b 	bl	8024 <PUT32>
    8ef4:	e3a01003 	mov	r1, #3, 0
    8ef8:	e1a00004 	mov	r0, r4
    8efc:	ebfffc48 	bl	8024 <PUT32>
    8f00:	eb00016f 	bl	94c4 <dev_barrier>
    8f04:	e8bd8010 	pop	{r4, pc}
    8f08:	20215004 	eorcs	r5, r1, r4
    8f0c:	20215060 	eorcs	r5, r1, r0, rrx
    8f10:	20215044 	eorcs	r5, r1, r4, asr #32
    8f14:	2021504c 	eorcs	r5, r1, ip, asr #32
    8f18:	20215050 	eorcs	r5, r1, r0, asr r0
    8f1c:	20215048 	eorcs	r5, r1, r8, asr #32
    8f20:	0000010e 	andeq	r0, r0, lr, lsl #2
    8f24:	20215068 	eorcs	r5, r1, r8, rrx

00008f28 <uart_can_getc>:
    8f28:	e92d4010 	push	{r4, lr}
    8f2c:	e59f0008 	ldr	r0, [pc, #8]	; 8f3c <uart_can_getc+0x14>
    8f30:	ebfffc3d 	bl	802c <GET32>
    8f34:	e2000001 	and	r0, r0, #1, 0
    8f38:	e8bd8010 	pop	{r4, pc}
    8f3c:	20215064 	eorcs	r5, r1, r4, rrx

00008f40 <uart_can_putc>:
    8f40:	e92d4010 	push	{r4, lr}
    8f44:	e59f0010 	ldr	r0, [pc, #16]	; 8f5c <uart_can_putc+0x1c>
    8f48:	ebfffc37 	bl	802c <GET32>
    8f4c:	e3100002 	tst	r0, #2, 0
    8f50:	13a00001 	movne	r0, #1, 0
    8f54:	03a00000 	moveq	r0, #0, 0
    8f58:	e8bd8010 	pop	{r4, pc}
    8f5c:	20215064 	eorcs	r5, r1, r4, rrx

00008f60 <uart_getc>:
    8f60:	e92d4010 	push	{r4, lr}
    8f64:	eb000156 	bl	94c4 <dev_barrier>
    8f68:	ebffffee 	bl	8f28 <uart_can_getc>
    8f6c:	e3500000 	cmp	r0, #0, 0
    8f70:	0afffffc 	beq	8f68 <uart_getc+0x8>
    8f74:	e59f0010 	ldr	r0, [pc, #16]	; 8f8c <uart_getc+0x2c>
    8f78:	ebfffc2b 	bl	802c <GET32>
    8f7c:	e6ef4070 	uxtb	r4, r0
    8f80:	eb00014f 	bl	94c4 <dev_barrier>
    8f84:	e1a00004 	mov	r0, r4
    8f88:	e8bd8010 	pop	{r4, pc}
    8f8c:	20215040 	eorcs	r5, r1, r0, asr #32

00008f90 <uart_putc>:
    8f90:	e92d4010 	push	{r4, lr}
    8f94:	e1a04000 	mov	r4, r0
    8f98:	eb000149 	bl	94c4 <dev_barrier>
    8f9c:	ebffffe7 	bl	8f40 <uart_can_putc>
    8fa0:	e3500000 	cmp	r0, #0, 0
    8fa4:	0afffffc 	beq	8f9c <uart_putc+0xc>
    8fa8:	e6ef1074 	uxtb	r1, r4
    8fac:	e59f0008 	ldr	r0, [pc, #8]	; 8fbc <uart_putc+0x2c>
    8fb0:	ebfffc1b 	bl	8024 <PUT32>
    8fb4:	eb000142 	bl	94c4 <dev_barrier>
    8fb8:	e8bd8010 	pop	{r4, pc}
    8fbc:	20215040 	eorcs	r5, r1, r0, asr #32

00008fc0 <uart_has_data>:
    8fc0:	e92d4010 	push	{r4, lr}
    8fc4:	eb00013e 	bl	94c4 <dev_barrier>
    8fc8:	ebffffd6 	bl	8f28 <uart_can_getc>
    8fcc:	e8bd8010 	pop	{r4, pc}

00008fd0 <uart_tx_is_empty>:
    8fd0:	e92d4010 	push	{r4, lr}
    8fd4:	eb00013a 	bl	94c4 <dev_barrier>
    8fd8:	e59f000c 	ldr	r0, [pc, #12]	; 8fec <uart_tx_is_empty+0x1c>
    8fdc:	ebfffc12 	bl	802c <GET32>
    8fe0:	e1a004a0 	lsr	r0, r0, #9
    8fe4:	e2000001 	and	r0, r0, #1, 0
    8fe8:	e8bd8010 	pop	{r4, pc}
    8fec:	20215064 	eorcs	r5, r1, r4, rrx

00008ff0 <uart_flush_tx>:
    8ff0:	e92d4010 	push	{r4, lr}
    8ff4:	ebfffff5 	bl	8fd0 <uart_tx_is_empty>
    8ff8:	e3500000 	cmp	r0, #0, 0
    8ffc:	0afffffc 	beq	8ff4 <uart_flush_tx+0x4>
    9000:	e8bd8010 	pop	{r4, pc}

00009004 <uart_disable>:
    9004:	e92d4010 	push	{r4, lr}
    9008:	ebfffff8 	bl	8ff0 <uart_flush_tx>
    900c:	eb00012c 	bl	94c4 <dev_barrier>
    9010:	e3e01001 	mvn	r1, #1, 0
    9014:	e59f0008 	ldr	r0, [pc, #8]	; 9024 <uart_disable+0x20>
    9018:	ebffff86 	bl	8e38 <and_in32>
    901c:	eb000128 	bl	94c4 <dev_barrier>
    9020:	e8bd8010 	pop	{r4, pc}
    9024:	20215004 	eorcs	r5, r1, r4

00009028 <kmalloc_heap_end>:
    9028:	e59f3004 	ldr	r3, [pc, #4]	; 9034 <kmalloc_heap_end+0xc>
    902c:	e5930000 	ldr	r0, [r3]
    9030:	e12fff1e 	bx	lr
    9034:	0000987c 	andeq	r9, r0, ip, ror r8

00009038 <kmalloc_heap_start>:
    9038:	e59f3004 	ldr	r3, [pc, #4]	; 9044 <kmalloc_heap_start+0xc>
    903c:	e5930004 	ldr	r0, [r3, #4]
    9040:	e12fff1e 	bx	lr
    9044:	0000987c 	andeq	r9, r0, ip, ror r8

00009048 <kmalloc_heap_ptr>:
    9048:	e59f3004 	ldr	r3, [pc, #4]	; 9054 <kmalloc_heap_ptr+0xc>
    904c:	e5930008 	ldr	r0, [r3, #8]
    9050:	e12fff1e 	bx	lr
    9054:	0000987c 	andeq	r9, r0, ip, ror r8

00009058 <kmalloc_init_set_start>:
    9058:	e52de004 	push	{lr}		; (str lr, [sp, #-4]!)
    905c:	e24dd00c 	sub	sp, sp, #12, 0
    9060:	e3510000 	cmp	r1, #0, 0
    9064:	0a00000a 	beq	9094 <kmalloc_init_set_start+0x3c>
    9068:	e59f306c 	ldr	r3, [pc, #108]	; 90dc <kmalloc_init_set_start+0x84>
    906c:	e5933008 	ldr	r3, [r3, #8]
    9070:	e1530000 	cmp	r3, r0
    9074:	8a00000e 	bhi	90b4 <kmalloc_init_set_start+0x5c>
    9078:	e59f305c 	ldr	r3, [pc, #92]	; 90dc <kmalloc_init_set_start+0x84>
    907c:	e5830008 	str	r0, [r3, #8]
    9080:	e5830004 	str	r0, [r3, #4]
    9084:	e0800001 	add	r0, r0, r1
    9088:	e5830000 	str	r0, [r3]
    908c:	e28dd00c 	add	sp, sp, #12, 0
    9090:	e49df004 	pop	{pc}		; (ldr pc, [sp], #4)
    9094:	e59f3044 	ldr	r3, [pc, #68]	; 90e0 <kmalloc_init_set_start+0x88>
    9098:	e58d3000 	str	r3, [sp]
    909c:	e3a03030 	mov	r3, #48, 0	; 0x30
    90a0:	e59f203c 	ldr	r2, [pc, #60]	; 90e4 <kmalloc_init_set_start+0x8c>
    90a4:	e59f103c 	ldr	r1, [pc, #60]	; 90e8 <kmalloc_init_set_start+0x90>
    90a8:	e59f003c 	ldr	r0, [pc, #60]	; 90ec <kmalloc_init_set_start+0x94>
    90ac:	ebfffcc3 	bl	83c0 <printk>
    90b0:	ebfffebd 	bl	8bac <clean_reboot>
    90b4:	e59f3020 	ldr	r3, [pc, #32]	; 90dc <kmalloc_init_set_start+0x84>
    90b8:	e5933000 	ldr	r3, [r3]
    90bc:	e58d3004 	str	r3, [sp, #4]
    90c0:	e58d0000 	str	r0, [sp]
    90c4:	e3a03034 	mov	r3, #52, 0	; 0x34
    90c8:	e59f2014 	ldr	r2, [pc, #20]	; 90e4 <kmalloc_init_set_start+0x8c>
    90cc:	e59f1014 	ldr	r1, [pc, #20]	; 90e8 <kmalloc_init_set_start+0x90>
    90d0:	e59f0018 	ldr	r0, [pc, #24]	; 90f0 <kmalloc_init_set_start+0x98>
    90d4:	ebfffcb9 	bl	83c0 <printk>
    90d8:	ebfffeb3 	bl	8bac <clean_reboot>
    90dc:	0000987c 	andeq	r9, r0, ip, ror r8
    90e0:	00009688 	andeq	r9, r0, r8, lsl #13
    90e4:	00009814 	andeq	r9, r0, r4, lsl r8
    90e8:	0000967c 	andeq	r9, r0, ip, ror r6
    90ec:	00009508 	andeq	r9, r0, r8, lsl #10
    90f0:	00009694 	muleq	r0, r4, r6

000090f4 <kmalloc_init>:
    90f4:	e92d4010 	push	{r4, lr}
    90f8:	e59f303c 	ldr	r3, [pc, #60]	; 913c <kmalloc_init+0x48>
    90fc:	e5933000 	ldr	r3, [r3]
    9100:	e3530000 	cmp	r3, #0, 0
    9104:	1a000006 	bne	9124 <kmalloc_init+0x30>
    9108:	e59f302c 	ldr	r3, [pc, #44]	; 913c <kmalloc_init+0x48>
    910c:	e3a02001 	mov	r2, #1, 0
    9110:	e5832000 	str	r2, [r3]
    9114:	e3a01201 	mov	r1, #268435456	; 0x10000000
    9118:	e3a00601 	mov	r0, #1048576	; 0x100000
    911c:	ebffffcd 	bl	9058 <kmalloc_init_set_start>
    9120:	e8bd8010 	pop	{r4, pc}
    9124:	e3a03040 	mov	r3, #64, 0	; 0x40
    9128:	e59f2010 	ldr	r2, [pc, #16]	; 9140 <kmalloc_init+0x4c>
    912c:	e59f1010 	ldr	r1, [pc, #16]	; 9144 <kmalloc_init+0x50>
    9130:	e59f0010 	ldr	r0, [pc, #16]	; 9148 <kmalloc_init+0x54>
    9134:	ebfffca1 	bl	83c0 <printk>
    9138:	ebfffe9b 	bl	8bac <clean_reboot>
    913c:	00009c8c 	andeq	r9, r0, ip, lsl #25
    9140:	0000982c 	andeq	r9, r0, ip, lsr #16
    9144:	0000967c 	andeq	r9, r0, ip, ror r6
    9148:	000096d8 	ldrdeq	r9, [r0], -r8

0000914c <kmalloc_notzero>:
    914c:	e52de004 	push	{lr}		; (str lr, [sp, #-4]!)
    9150:	e24dd00c 	sub	sp, sp, #12, 0
    9154:	e3500000 	cmp	r0, #0, 0
    9158:	0a00000a 	beq	9188 <kmalloc_notzero+0x3c>
    915c:	e2800007 	add	r0, r0, #7, 0
    9160:	e3c03007 	bic	r3, r0, #7, 0
    9164:	e59f2060 	ldr	r2, [pc, #96]	; 91cc <kmalloc_notzero+0x80>
    9168:	e5920008 	ldr	r0, [r2, #8]
    916c:	e0801003 	add	r1, r0, r3
    9170:	e5821008 	str	r1, [r2, #8]
    9174:	e5922000 	ldr	r2, [r2]
    9178:	e1510002 	cmp	r1, r2
    917c:	8a000009 	bhi	91a8 <kmalloc_notzero+0x5c>
    9180:	e28dd00c 	add	sp, sp, #12, 0
    9184:	e49df004 	pop	{pc}		; (ldr pc, [sp], #4)
    9188:	e59f3040 	ldr	r3, [pc, #64]	; 91d0 <kmalloc_notzero+0x84>
    918c:	e58d3000 	str	r3, [sp]
    9190:	e3a03048 	mov	r3, #72, 0	; 0x48
    9194:	e59f2038 	ldr	r2, [pc, #56]	; 91d4 <kmalloc_notzero+0x88>
    9198:	e59f1038 	ldr	r1, [pc, #56]	; 91d8 <kmalloc_notzero+0x8c>
    919c:	e59f0038 	ldr	r0, [pc, #56]	; 91dc <kmalloc_notzero+0x90>
    91a0:	ebfffc86 	bl	83c0 <printk>
    91a4:	ebfffe80 	bl	8bac <clean_reboot>
    91a8:	e0422000 	sub	r2, r2, r0
    91ac:	e58d2004 	str	r2, [sp, #4]
    91b0:	e58d3000 	str	r3, [sp]
    91b4:	e3a0304e 	mov	r3, #78, 0	; 0x4e
    91b8:	e59f2014 	ldr	r2, [pc, #20]	; 91d4 <kmalloc_notzero+0x88>
    91bc:	e59f1014 	ldr	r1, [pc, #20]	; 91d8 <kmalloc_notzero+0x8c>
    91c0:	e59f0018 	ldr	r0, [pc, #24]	; 91e0 <kmalloc_notzero+0x94>
    91c4:	ebfffc7d 	bl	83c0 <printk>
    91c8:	ebfffe77 	bl	8bac <clean_reboot>
    91cc:	0000987c 	andeq	r9, r0, ip, ror r8
    91d0:	0000968c 	andeq	r9, r0, ip, lsl #13
    91d4:	0000983c 	andeq	r9, r0, ip, lsr r8
    91d8:	0000967c 	andeq	r9, r0, ip, ror r6
    91dc:	00009508 	andeq	r9, r0, r8, lsl #10
    91e0:	00009708 	andeq	r9, r0, r8, lsl #14

000091e4 <kmalloc>:
    91e4:	e92d4030 	push	{r4, r5, lr}
    91e8:	e24dd00c 	sub	sp, sp, #12, 0
    91ec:	e2504000 	subs	r4, r0, #0, 0
    91f0:	0a000008 	beq	9218 <kmalloc+0x34>
    91f4:	e1a00004 	mov	r0, r4
    91f8:	ebffffd3 	bl	914c <kmalloc_notzero>
    91fc:	e1a05000 	mov	r5, r0
    9200:	e1a02004 	mov	r2, r4
    9204:	e3a01000 	mov	r1, #0, 0
    9208:	ebfffc66 	bl	83a8 <memset>
    920c:	e1a00005 	mov	r0, r5
    9210:	e28dd00c 	add	sp, sp, #12, 0
    9214:	e8bd8030 	pop	{r4, r5, pc}
    9218:	e59f3018 	ldr	r3, [pc, #24]	; 9238 <kmalloc+0x54>
    921c:	e58d3000 	str	r3, [sp]
    9220:	e3a03054 	mov	r3, #84, 0	; 0x54
    9224:	e59f2010 	ldr	r2, [pc, #16]	; 923c <kmalloc+0x58>
    9228:	e59f1010 	ldr	r1, [pc, #16]	; 9240 <kmalloc+0x5c>
    922c:	e59f0010 	ldr	r0, [pc, #16]	; 9244 <kmalloc+0x60>
    9230:	ebfffc62 	bl	83c0 <printk>
    9234:	ebfffe5c 	bl	8bac <clean_reboot>
    9238:	0000968c 	andeq	r9, r0, ip, lsl #13
    923c:	0000984c 	andeq	r9, r0, ip, asr #16
    9240:	0000967c 	andeq	r9, r0, ip, ror r6
    9244:	00009508 	andeq	r9, r0, r8, lsl #10

00009248 <kmalloc_aligned>:
    9248:	e52de004 	push	{lr}		; (str lr, [sp, #-4]!)
    924c:	e24dd00c 	sub	sp, sp, #12, 0
    9250:	e3500000 	cmp	r0, #0, 0
    9254:	0a000014 	beq	92ac <kmalloc_aligned+0x64>
    9258:	e2613000 	rsb	r3, r1, #0, 0
    925c:	e1d13003 	bics	r3, r1, r3
    9260:	1a000019 	bne	92cc <kmalloc_aligned+0x84>
    9264:	e3510008 	cmp	r1, #8, 0
    9268:	33a01008 	movcc	r1, #8, 0
    926c:	e59f30c0 	ldr	r3, [pc, #192]	; 9334 <kmalloc_aligned+0xec>
    9270:	e5932008 	ldr	r2, [r3, #8]
    9274:	e2613000 	rsb	r3, r1, #0, 0
    9278:	e1d1c003 	bics	ip, r1, r3
    927c:	1a00001b 	bne	92f0 <kmalloc_aligned+0xa8>
    9280:	e0822001 	add	r2, r2, r1
    9284:	e2422001 	sub	r2, r2, #1, 0
    9288:	e0033002 	and	r3, r3, r2
    928c:	e2411001 	sub	r1, r1, #1, 0
    9290:	e1110003 	tst	r1, r3
    9294:	1a00001d 	bne	9310 <kmalloc_aligned+0xc8>
    9298:	e59f2094 	ldr	r2, [pc, #148]	; 9334 <kmalloc_aligned+0xec>
    929c:	e5823008 	str	r3, [r2, #8]
    92a0:	ebffffcf 	bl	91e4 <kmalloc>
    92a4:	e28dd00c 	add	sp, sp, #12, 0
    92a8:	e49df004 	pop	{pc}		; (ldr pc, [sp], #4)
    92ac:	e59f3084 	ldr	r3, [pc, #132]	; 9338 <kmalloc_aligned+0xf0>
    92b0:	e58d3000 	str	r3, [sp]
    92b4:	e3a0305f 	mov	r3, #95, 0	; 0x5f
    92b8:	e59f207c 	ldr	r2, [pc, #124]	; 933c <kmalloc_aligned+0xf4>
    92bc:	e59f107c 	ldr	r1, [pc, #124]	; 9340 <kmalloc_aligned+0xf8>
    92c0:	e59f007c 	ldr	r0, [pc, #124]	; 9344 <kmalloc_aligned+0xfc>
    92c4:	ebfffc3d 	bl	83c0 <printk>
    92c8:	ebfffe37 	bl	8bac <clean_reboot>
    92cc:	eb000046 	bl	93ec <rpi_reset_putc>
    92d0:	e59f3070 	ldr	r3, [pc, #112]	; 9348 <kmalloc_aligned+0x100>
    92d4:	e58d3000 	str	r3, [sp]
    92d8:	e3a03060 	mov	r3, #96, 0	; 0x60
    92dc:	e59f2058 	ldr	r2, [pc, #88]	; 933c <kmalloc_aligned+0xf4>
    92e0:	e59f1058 	ldr	r1, [pc, #88]	; 9340 <kmalloc_aligned+0xf8>
    92e4:	e59f0060 	ldr	r0, [pc, #96]	; 934c <kmalloc_aligned+0x104>
    92e8:	ebfffc34 	bl	83c0 <printk>
    92ec:	ebfffe2e 	bl	8bac <clean_reboot>
    92f0:	e59f3058 	ldr	r3, [pc, #88]	; 9350 <kmalloc_aligned+0x108>
    92f4:	e58d3000 	str	r3, [sp]
    92f8:	e3a03011 	mov	r3, #17, 0
    92fc:	e59f2050 	ldr	r2, [pc, #80]	; 9354 <kmalloc_aligned+0x10c>
    9300:	e59f1038 	ldr	r1, [pc, #56]	; 9340 <kmalloc_aligned+0xf8>
    9304:	e59f0038 	ldr	r0, [pc, #56]	; 9344 <kmalloc_aligned+0xfc>
    9308:	ebfffc2c 	bl	83c0 <printk>
    930c:	ebfffe26 	bl	8bac <clean_reboot>
    9310:	eb000035 	bl	93ec <rpi_reset_putc>
    9314:	e59f303c 	ldr	r3, [pc, #60]	; 9358 <kmalloc_aligned+0x110>
    9318:	e58d3000 	str	r3, [sp]
    931c:	e3a03068 	mov	r3, #104, 0	; 0x68
    9320:	e59f2014 	ldr	r2, [pc, #20]	; 933c <kmalloc_aligned+0xf4>
    9324:	e59f1014 	ldr	r1, [pc, #20]	; 9340 <kmalloc_aligned+0xf8>
    9328:	e59f002c 	ldr	r0, [pc, #44]	; 935c <kmalloc_aligned+0x114>
    932c:	ebfffc23 	bl	83c0 <printk>
    9330:	ebfffe1d 	bl	8bac <clean_reboot>
    9334:	0000987c 	andeq	r9, r0, ip, ror r8
    9338:	0000968c 	andeq	r9, r0, ip, lsl #13
    933c:	00009854 	andeq	r9, r0, r4, asr r8
    9340:	0000967c 	andeq	r9, r0, ip, ror r6
    9344:	00009508 	andeq	r9, r0, r8, lsl #10
    9348:	0000977c 	andeq	r9, r0, ip, ror r7
    934c:	00009748 	andeq	r9, r0, r8, asr #14
    9350:	00009790 	muleq	r0, r0, r7
    9354:	00009864 	andeq	r9, r0, r4, ror #16
    9358:	000097c8 	andeq	r9, r0, r8, asr #15
    935c:	0000979c 	muleq	r0, ip, r7

00009360 <kfree>:
    9360:	e12fff1e 	bx	lr

00009364 <kfree_all>:
    9364:	e59f3008 	ldr	r3, [pc, #8]	; 9374 <kfree_all+0x10>
    9368:	e5932004 	ldr	r2, [r3, #4]
    936c:	e5832008 	str	r2, [r3, #8]
    9370:	e12fff1e 	bx	lr
    9374:	0000987c 	andeq	r9, r0, ip, ror r8

00009378 <kfree_pop>:
    9378:	e59f3048 	ldr	r3, [pc, #72]	; 93c8 <kfree_pop+0x50>
    937c:	e5933004 	ldr	r3, [r3, #4]
    9380:	e1530000 	cmp	r3, r0
    9384:	8a000006 	bhi	93a4 <kfree_pop+0x2c>
    9388:	e59f3038 	ldr	r3, [pc, #56]	; 93c8 <kfree_pop+0x50>
    938c:	e5933000 	ldr	r3, [r3]
    9390:	e1530000 	cmp	r3, r0
    9394:	3a000002 	bcc	93a4 <kfree_pop+0x2c>
    9398:	e59f3028 	ldr	r3, [pc, #40]	; 93c8 <kfree_pop+0x50>
    939c:	e5830008 	str	r0, [r3, #8]
    93a0:	e12fff1e 	bx	lr
    93a4:	e52de004 	push	{lr}		; (str lr, [sp, #-4]!)
    93a8:	e24dd00c 	sub	sp, sp, #12, 0
    93ac:	e58d0000 	str	r0, [sp]
    93b0:	e3a03077 	mov	r3, #119, 0	; 0x77
    93b4:	e59f2010 	ldr	r2, [pc, #16]	; 93cc <kfree_pop+0x54>
    93b8:	e59f1010 	ldr	r1, [pc, #16]	; 93d0 <kfree_pop+0x58>
    93bc:	e59f0010 	ldr	r0, [pc, #16]	; 93d4 <kfree_pop+0x5c>
    93c0:	ebfffbfe 	bl	83c0 <printk>
    93c4:	ebfffdf8 	bl	8bac <clean_reboot>
    93c8:	0000987c 	andeq	r9, r0, ip, ror r8
    93cc:	0000986c 	andeq	r9, r0, ip, ror #16
    93d0:	0000967c 	andeq	r9, r0, ip, ror r6
    93d4:	000097e4 	andeq	r9, r0, r4, ror #15

000093d8 <internal_putchar>:
    93d8:	e92d4010 	push	{r4, lr}
    93dc:	e1a04000 	mov	r4, r0
    93e0:	ebfffeea 	bl	8f90 <uart_putc>
    93e4:	e1a00004 	mov	r0, r4
    93e8:	e8bd8010 	pop	{r4, pc}

000093ec <rpi_reset_putc>:
    93ec:	e59f3008 	ldr	r3, [pc, #8]	; 93fc <rpi_reset_putc+0x10>
    93f0:	e59f2008 	ldr	r2, [pc, #8]	; 9400 <rpi_reset_putc+0x14>
    93f4:	e5832000 	str	r2, [r3]
    93f8:	e12fff1e 	bx	lr
    93fc:	00009888 	andeq	r9, r0, r8, lsl #17
    9400:	000093d8 	ldrdeq	r9, [r0], -r8

00009404 <rpi_set_putc>:
    9404:	e59f3004 	ldr	r3, [pc, #4]	; 9410 <rpi_set_putc+0xc>
    9408:	e5830000 	str	r0, [r3]
    940c:	e12fff1e 	bx	lr
    9410:	00009888 	andeq	r9, r0, r8, lsl #17

00009414 <strcat>:
    9414:	e1a02000 	mov	r2, r0
    9418:	e1a03002 	mov	r3, r2
    941c:	e2822001 	add	r2, r2, #1, 0
    9420:	e5d3c000 	ldrb	ip, [r3]
    9424:	e35c0000 	cmp	ip, #0, 0
    9428:	1afffffa 	bne	9418 <strcat+0x4>
    942c:	e2433001 	sub	r3, r3, #1, 0
    9430:	e5d12000 	ldrb	r2, [r1]
    9434:	e2811001 	add	r1, r1, #1, 0
    9438:	e5e32001 	strb	r2, [r3, #1]!
    943c:	e3520000 	cmp	r2, #0, 0
    9440:	1afffffa 	bne	9430 <strcat+0x1c>
    9444:	e12fff1e 	bx	lr

00009448 <strcmp>:
    9448:	e5d03000 	ldrb	r3, [r0]
    944c:	e3530000 	cmp	r3, #0, 0
    9450:	0a000004 	beq	9468 <strcmp+0x20>
    9454:	e5d12000 	ldrb	r2, [r1]
    9458:	e1530002 	cmp	r3, r2
    945c:	02800001 	addeq	r0, r0, #1, 0
    9460:	02811001 	addeq	r1, r1, #1, 0
    9464:	0afffff7 	beq	9448 <strcmp>
    9468:	e5d10000 	ldrb	r0, [r1]
    946c:	e0430000 	sub	r0, r3, r0
    9470:	e12fff1e 	bx	lr

00009474 <strcpy>:
    9474:	e1a0c000 	mov	ip, r0
    9478:	e5d12000 	ldrb	r2, [r1]
    947c:	e2811001 	add	r1, r1, #1, 0
    9480:	e5cc2000 	strb	r2, [ip]
    9484:	e28cc001 	add	ip, ip, #1, 0
    9488:	e3520000 	cmp	r2, #0, 0
    948c:	1afffff9 	bne	9478 <strcpy+0x4>
    9490:	e12fff1e 	bx	lr

00009494 <strncmp>:
    9494:	e3520000 	cmp	r2, #0, 0
    9498:	e2422001 	sub	r2, r2, #1, 0
    949c:	0a000005 	beq	94b8 <strncmp+0x24>
    94a0:	e4d03001 	ldrb	r3, [r0], #1
    94a4:	e4d1c001 	ldrb	ip, [r1], #1
    94a8:	e153000c 	cmp	r3, ip
    94ac:	0afffff8 	beq	9494 <strncmp>
    94b0:	e043000c 	sub	r0, r3, ip
    94b4:	e12fff1e 	bx	lr
    94b8:	e3a00000 	mov	r0, #0, 0
    94bc:	e12fff1e 	bx	lr

000094c0 <reboot_callout>:
    94c0:	e12fff1e 	bx	lr

000094c4 <dev_barrier>:
    94c4:	ea000002 	b	94d4 <dsb>

000094c8 <dmb>:
    94c8:	e3a00000 	mov	r0, #0, 0
    94cc:	ee070fba 	mcr	15, 0, r0, cr7, cr10, {5}
    94d0:	e12fff1e 	bx	lr

000094d4 <dsb>:
    94d4:	ee070f9a 	mcr	15, 0, r0, cr7, cr10, {4}
    94d8:	e12fff1e 	bx	lr

000094dc <__code_end__>:
    94dc:	00000000 	andeq	r0, r0, r0

Disassembly of section .rodata:

000094e0 <__FUNCTION__.4008-0x16c>:
    94e0:	706f6f6c 	rsbvc	r6, pc, ip, ror #30
    94e4:	0a642520 	beq	191296c <__bss_end__+0x1908cdc>
    94e8:	00000000 	andeq	r0, r0, r0
    94ec:	656e6f64 	strbvs	r6, [lr, #-3940]!	; 0xfffff09c
    94f0:	00000a21 	andeq	r0, r0, r1, lsr #20
    94f4:	696c2f2e 	stmdbvs	ip!, {r1, r2, r3, r5, r8, r9, sl, fp, sp}^
    94f8:	762f6362 	strtvc	r6, [pc], -r2, ror #6
    94fc:	72702d61 	rsbsvc	r2, r0, #6208	; 0x1840
    9500:	6b746e69 	blvs	1d24eac <__bss_end__+0x1d1b21c>
    9504:	0000632e 	andeq	r6, r0, lr, lsr #6
    9508:	494e4150 	stmdbmi	lr, {r4, r6, r8, lr}^
    950c:	73253a43 			; <UNDEFINED> instruction: 0x73253a43
    9510:	3a73253a 	bcc	1cd2a00 <__bss_end__+0x1cc8d70>
    9514:	253a6425 	ldrcs	r6, [sl, #-1061]!	; 0xfffffbdb
    9518:	00000a73 	andeq	r0, r0, r3, ror sl
    951c:	00000030 	andeq	r0, r0, r0, lsr r0
    9520:	33323130 	teqcc	r2, #12
    9524:	37363534 			; <UNDEFINED> instruction: 0x37363534
    9528:	00003938 	andeq	r3, r0, r8, lsr r9
    952c:	33323130 	teqcc	r2, #12
    9530:	37363534 			; <UNDEFINED> instruction: 0x37363534
    9534:	62613938 	rsbvs	r3, r1, #56, 18	; 0xe0000
    9538:	66656463 	strbtvs	r6, [r5], -r3, ror #8
    953c:	00000000 	andeq	r0, r0, r0
    9540:	00003130 	andeq	r3, r0, r0, lsr r1
    9544:	63747570 	cmnvs	r4, #112, 10	; 0x1c000000
    9548:	0070665f 	rsbseq	r6, r0, pc, asr r6
    954c:	74646977 	strbtvc	r6, [r4], #-2423	; 0xfffff689
    9550:	203c2068 	eorscs	r2, ip, r8, rrx
    9554:	00003233 	andeq	r3, r0, r3, lsr r2
    9558:	00786c6c 	rsbseq	r6, r8, ip, ror #24
    955c:	00646c6c 	rsbeq	r6, r4, ip, ror #24
    9560:	253d3078 	ldrcs	r3, [sp, #-120]!	; 0xffffff88
    9564:	00000a78 	andeq	r0, r0, r8, ror sl
    9568:	253d3178 	ldrcs	r3, [sp, #-376]!	; 0xfffffe88
    956c:	00000a78 	andeq	r0, r0, r8, ror sl
    9570:	6e727473 	mrcvs	4, 3, r7, cr2, cr3, {3}
    9574:	28706d63 	ldmdacs	r0!, {r0, r1, r5, r6, r8, sl, fp, sp, lr}^
    9578:	202c7974 	eorcs	r7, ip, r4, ror r9
    957c:	786c6c22 	stmdavc	ip!, {r1, r5, sl, fp, sp, lr}^
    9580:	33202c22 			; <UNDEFINED> instruction: 0x33202c22
    9584:	3d3d2029 	ldccc	0, cr2, [sp, #-164]!	; 0xffffff5c
    9588:	7c203020 	stcvc	0, cr3, [r0], #-128	; 0xffffff80
    958c:	7473207c 	ldrbtvc	r2, [r3], #-124	; 0xffffff84
    9590:	6d636e72 	stclvs	14, cr6, [r3, #-456]!	; 0xfffffe38
    9594:	79742870 	ldmdbvc	r4!, {r4, r5, r6, fp, sp}^
    9598:	6c22202c 	stcvs	0, cr2, [r2], #-176	; 0xffffff50
    959c:	2c22646c 	cfstrscs	mvf6, [r2], #-432	; 0xfffffe50
    95a0:	20293320 	eorcs	r3, r9, r0, lsr #6
    95a4:	30203d3d 	eorcc	r3, r0, sp, lsr sp
    95a8:	00000000 	andeq	r0, r0, r0
    95ac:	494e4150 	stmdbmi	lr, {r4, r6, r8, lr}^
    95b0:	73253a43 			; <UNDEFINED> instruction: 0x73253a43
    95b4:	3a73253a 	bcc	1cd2aa4 <__bss_end__+0x1cc8e14>
    95b8:	693a6425 	ldmdbvs	sl!, {r0, r2, r5, sl, sp, lr}
    95bc:	736f706d 	cmnvc	pc, #109, 0	; 0x6d
    95c0:	6c626973 			; <UNDEFINED> instruction: 0x6c626973
    95c4:	66203a65 	strtvs	r3, [r0], -r5, ror #20
    95c8:	3c3d746d 	cfldrscc	mvf7, [sp], #-436	; 0xfffffe4c
    95cc:	0a3e7325 	beq	fa6268 <__bss_end__+0xf9c5d8>
    95d0:	0000000a 	andeq	r0, r0, sl
    95d4:	494e4150 	stmdbmi	lr, {r4, r6, r8, lr}^
    95d8:	73253a43 			; <UNDEFINED> instruction: 0x73253a43
    95dc:	3a73253a 	bcc	1cd2acc <__bss_end__+0x1cc8e3c>
    95e0:	663a6425 	ldrtvs	r6, [sl], -r5, lsr #8
    95e4:	74616f6c 	strbtvc	r6, [r1], #-3948	; 0xfffff094
    95e8:	746f6e20 	strbtvc	r6, [pc], #-3616	; 95f0 <__code_end__+0x114>
    95ec:	616e6520 	cmnvs	lr, r0, lsr #10
    95f0:	64656c62 	strbtvs	r6, [r5], #-3170	; 0xfffff39e
    95f4:	0a212121 	beq	851a80 <__bss_end__+0x847df0>
    95f8:	00000000 	andeq	r0, r0, r0
    95fc:	6e697270 	mcrvs	2, 3, r7, cr9, cr0, {3}
    9600:	203a6b74 	eorscs	r6, sl, r4, ror fp
    9604:	20746f6e 	rsbscs	r6, r4, lr, ror #30
    9608:	646e6168 	strbtvs	r6, [lr], #-360	; 0xfffffe98
    960c:	676e696c 	strbvs	r6, [lr, -ip, ror #18]!
    9610:	65707320 	ldrbvs	r7, [r0, #-800]!	; 0xfffffce0
    9614:	69666963 	stmdbvs	r6!, {r0, r1, r5, r6, r8, fp, sp, lr}^
    9618:	27207265 	strcs	r7, [r0, -r5, ror #4]!
    961c:	20276325 	eorcs	r6, r7, r5, lsr #6
    9620:	63736128 	cmnvs	r3, #10
    9624:	253d6969 	ldrcs	r6, [sp, #-2409]!	; 0xfffff697
    9628:	000a2964 	andeq	r2, sl, r4, ror #18
    962c:	494e4150 	stmdbmi	lr, {r4, r6, r8, lr}^
    9630:	73253a43 			; <UNDEFINED> instruction: 0x73253a43
    9634:	3a73253a 	bcc	1cd2b24 <__bss_end__+0x1cc8e94>
    9638:	703a6425 	eorsvc	r6, sl, r5, lsr #8
    963c:	746e6972 	strbtvc	r6, [lr], #-2418	; 0xfffff68e
    9640:	7265206b 	rsbvc	r2, r5, #107, 0	; 0x6b
    9644:	0a726f72 	beq	1ca5414 <__bss_end__+0x1c9b784>
    9648:	0000000a 	andeq	r0, r0, sl

0000964c <__FUNCTION__.4008>:
    964c:	74696d65 	strbtvc	r6, [r9], #-3429	; 0xfffff29b
    9650:	00000000 	andeq	r0, r0, r0

00009654 <__FUNCTION__.3956>:
    9654:	5f697072 	svcpl	0x00697072
    9658:	5f746573 	svcpl	0x00746573
    965c:	7074756f 	rsbsvc	r7, r4, pc, ror #10
    9660:	00007475 	andeq	r7, r0, r5, ror r4

00009664 <__FUNCTION__.4034>:
    9664:	705f6176 	subsvc	r6, pc, r6, ror r1	; <UNPREDICTABLE>
    9668:	746e6972 	strbtvc	r6, [lr], #-2418	; 0xfffff68e
    966c:	0000006b 	andeq	r0, r0, fp, rrx
    9670:	454e4f44 	strbmi	r4, [lr, #-3908]	; 0xfffff0bc
    9674:	0a212121 	beq	851b00 <__bss_end__+0x847e70>
    9678:	00000000 	andeq	r0, r0, r0
    967c:	6c616d6b 	stclvs	13, cr6, [r1], #-428	; 0xfffffe54
    9680:	2e636f6c 	cdpcs	15, 6, cr6, cr3, cr12, {3}
    9684:	00000063 	andeq	r0, r0, r3, rrx
    9688:	5f78616d 	svcpl	0x0078616d
    968c:	7479626e 	ldrbtvc	r6, [r9], #-622	; 0xfffffd92
    9690:	00007365 	andeq	r7, r0, r5, ror #6
    9694:	494e4150 	stmdbmi	lr, {r4, r6, r8, lr}^
    9698:	73253a43 			; <UNDEFINED> instruction: 0x73253a43
    969c:	3a73253a 	bcc	1cd2b8c <__bss_end__+0x1cc8efc>
    96a0:	733a6425 	teqvc	sl, #620756992	; 0x25000000
    96a4:	69747465 	ldmdbvs	r4!, {r0, r2, r5, r6, sl, ip, sp, lr}^
    96a8:	6820676e 	stmdavs	r0!, {r1, r2, r3, r5, r6, r8, r9, sl, sp, lr}
    96ac:	20706165 	rsbscs	r6, r0, r5, ror #2
    96b0:	25206f74 	strcs	r6, [r0, #-3956]!	; 0xfffff08c
    96b4:	77203a70 			; <UNDEFINED> instruction: 0x77203a70
    96b8:	206c6c69 	rsbcs	r6, ip, r9, ror #24
    96bc:	20746968 	rsbscs	r6, r4, r8, ror #18
    96c0:	20656874 	rsbcs	r6, r5, r4, ror r8
    96c4:	20646c6f 	rsbcs	r6, r4, pc, ror #24
    96c8:	70616568 	rsbvc	r6, r1, r8, ror #10
    96cc:	20746120 	rsbscs	r6, r4, r0, lsr #2
    96d0:	0a0a7025 	beq	2a576c <__bss_end__+0x29badc>
    96d4:	00000000 	andeq	r0, r0, r0
    96d8:	494e4150 	stmdbmi	lr, {r4, r6, r8, lr}^
    96dc:	73253a43 			; <UNDEFINED> instruction: 0x73253a43
    96e0:	3a73253a 	bcc	1cd2bd0 <__bss_end__+0x1cc8f40>
    96e4:	613a6425 	teqvs	sl, r5, lsr #8
    96e8:	6165726c 	cmnvs	r5, ip, ror #4
    96ec:	63207964 			; <UNDEFINED> instruction: 0x63207964
    96f0:	656c6c61 	strbvs	r6, [ip, #-3169]!	; 0xfffff39f
    96f4:	6d6b2064 	stclvs	0, cr2, [fp, #-400]!	; 0xfffffe70
    96f8:	6f6c6c61 	svcvs	0x006c6c61
    96fc:	6e695f63 	cdpvs	15, 6, cr5, cr9, cr3, {3}
    9700:	0a0a7469 	beq	2a68ac <__bss_end__+0x29cc1c>
    9704:	00000000 	andeq	r0, r0, r0
    9708:	494e4150 	stmdbmi	lr, {r4, r6, r8, lr}^
    970c:	73253a43 			; <UNDEFINED> instruction: 0x73253a43
    9710:	3a73253a 	bcc	1cd2c00 <__bss_end__+0x1cc8f70>
    9714:	253a6425 	ldrcs	r6, [sl, #-1061]!	; 0xfffffbdb
    9718:	626e2064 	rsbvs	r2, lr, #100, 0	; 0x64
    971c:	73657479 	cmnvc	r5, #2030043136	; 0x79000000
    9720:	63786520 	cmnvs	r8, #32, 10	; 0x8000000
    9724:	65646565 	strbvs	r6, [r4, #-1381]!	; 0xfffffa9b
    9728:	69732064 	ldmdbvs	r3!, {r2, r5, r6, sp}^
    972c:	6f20657a 	svcvs	0x0020657a
    9730:	65682066 	strbvs	r2, [r8, #-102]!	; 0xffffff9a
    9734:	62207061 	eorvs	r7, r0, #97, 0	; 0x61
    9738:	75252079 	strvc	r2, [r5, #-121]!	; 0xffffff87
    973c:	79626e20 	stmdbvc	r2!, {r5, r9, sl, fp, sp, lr}^
    9740:	0a736574 	beq	1ce2d18 <__bss_end__+0x1cd9088>
    9744:	0000000a 	andeq	r0, r0, sl
    9748:	4f525245 	svcmi	0x00525245
    974c:	73253a52 			; <UNDEFINED> instruction: 0x73253a52
    9750:	3a73253a 	bcc	1cd2c40 <__bss_end__+0x1cc8fb0>
    9754:	203a6425 	eorscs	r6, sl, r5, lsr #8
    9758:	534c4146 	movtpl	r4, #49478	; 0xc146
    975c:	253c2845 	ldrcs	r2, [ip, #-2117]!	; 0xfffff7bb
    9760:	3a293e73 	bcc	a59134 <__bss_end__+0xa4f4a4>
    9764:	73736120 	cmnvc	r3, #8
    9768:	6e696d75 	mcrvs	13, 3, r6, cr9, cr5, {3}
    976c:	6f702067 	svcvs	0x00702067
    9770:	20726577 	rsbscs	r6, r2, r7, ror r5
    9774:	7420666f 	strtvc	r6, [r0], #-1647	; 0xfffff991
    9778:	000a6f77 	andeq	r6, sl, r7, ror pc
    977c:	705f7369 	subsvc	r7, pc, r9, ror #6
    9780:	2832776f 	ldmdacs	r2!, {r0, r1, r2, r3, r5, r6, r8, r9, sl, ip, sp, lr}
    9784:	67696c61 	strbvs	r6, [r9, -r1, ror #24]!
    9788:	6e656d6e 	cdpvs	13, 6, cr6, cr5, cr14, {3}
    978c:	00002974 	andeq	r2, r0, r4, ror r9
    9790:	705f7369 	subsvc	r7, pc, r9, ror #6
    9794:	2832776f 	ldmdacs	r2!, {r0, r1, r2, r3, r5, r6, r8, r9, sl, ip, sp, lr}
    9798:	0000296e 	andeq	r2, r0, lr, ror #18
    979c:	4f525245 	svcmi	0x00525245
    97a0:	73253a52 			; <UNDEFINED> instruction: 0x73253a52
    97a4:	3a73253a 	bcc	1cd2c94 <__bss_end__+0x1cc9004>
    97a8:	203a6425 	eorscs	r6, sl, r5, lsr #8
    97ac:	534c4146 	movtpl	r4, #49478	; 0xc146
    97b0:	253c2845 	ldrcs	r2, [ip, #-2117]!	; 0xfffff7bb
    97b4:	3a293e73 	bcc	a59188 <__bss_end__+0xa4f4f8>
    97b8:	706d6920 	rsbvc	r6, sp, r0, lsr #18
    97bc:	6973736f 	ldmdbvs	r3!, {r0, r1, r2, r3, r5, r6, r8, r9, ip, sp, lr}^
    97c0:	0a656c62 	beq	1964950 <__bss_end__+0x195acc0>
    97c4:	00000000 	andeq	r0, r0, r0
    97c8:	615f7369 	cmpvs	pc, r9, ror #6
    97cc:	6e67696c 	vnmulvs.f16	s13, s14, s25	; <UNPREDICTABLE>
    97d0:	68286465 	stmdavs	r8!, {r0, r2, r5, r6, sl, sp, lr}
    97d4:	6c61202c 	stclvs	0, cr2, [r1], #-176	; 0xffffff50
    97d8:	6d6e6769 	stclvs	7, cr6, [lr, #-420]!	; 0xfffffe5c
    97dc:	29746e65 	ldmdbcs	r4!, {r0, r2, r5, r6, r9, sl, fp, sp, lr}^
    97e0:	00000000 	andeq	r0, r0, r0
    97e4:	494e4150 	stmdbmi	lr, {r4, r6, r8, lr}^
    97e8:	73253a43 			; <UNDEFINED> instruction: 0x73253a43
    97ec:	3a73253a 	bcc	1cd2cdc <__bss_end__+0x1cc904c>
    97f0:	703a6425 	eorsvc	r6, sl, r5, lsr #8
    97f4:	746e696f 	strbtvc	r6, [lr], #-2415	; 0xfffff691
    97f8:	25207265 	strcs	r7, [r0, #-613]!	; 0xfffffd9b
    97fc:	61772070 	cmnvs	r7, r0, ror r0
    9800:	656e2073 	strbvs	r2, [lr, #-115]!	; 0xffffff8d
    9804:	20726576 	rsbscs	r6, r2, r6, ror r5
    9808:	6f6c6c61 	svcvs	0x006c6c61
    980c:	65746163 	ldrbvs	r6, [r4, #-355]!	; 0xfffffe9d
    9810:	000a0a64 	andeq	r0, sl, r4, ror #20

00009814 <__FUNCTION__.7>:
    9814:	6c616d6b 	stclvs	13, cr6, [r1], #-428	; 0xfffffe54
    9818:	5f636f6c 	svcpl	0x00636f6c
    981c:	74696e69 	strbtvc	r6, [r9], #-3689	; 0xfffff197
    9820:	7465735f 	strbtvc	r7, [r5], #-863	; 0xfffffca1
    9824:	6174735f 	cmnvs	r4, pc, asr r3
    9828:	00007472 	andeq	r7, r0, r2, ror r4

0000982c <__FUNCTION__.5>:
    982c:	6c616d6b 	stclvs	13, cr6, [r1], #-428	; 0xfffffe54
    9830:	5f636f6c 	svcpl	0x00636f6c
    9834:	74696e69 	strbtvc	r6, [r9], #-3689	; 0xfffff197
    9838:	00000000 	andeq	r0, r0, r0

0000983c <__FUNCTION__.4>:
    983c:	6c616d6b 	stclvs	13, cr6, [r1], #-428	; 0xfffffe54
    9840:	5f636f6c 	svcpl	0x00636f6c
    9844:	7a746f6e 	bvc	1d25604 <__bss_end__+0x1d1b974>
    9848:	006f7265 	rsbeq	r7, pc, r5, ror #4

0000984c <__FUNCTION__.2>:
    984c:	6c616d6b 	stclvs	13, cr6, [r1], #-428	; 0xfffffe54
    9850:	00636f6c 	rsbeq	r6, r3, ip, ror #30

00009854 <__FUNCTION__.1>:
    9854:	6c616d6b 	stclvs	13, cr6, [r1], #-428	; 0xfffffe54
    9858:	5f636f6c 	svcpl	0x00636f6c
    985c:	67696c61 	strbvs	r6, [r9, -r1, ror #24]!
    9860:	0064656e 	rsbeq	r6, r4, lr, ror #10

00009864 <__FUNCTION__.3>:
    9864:	6e756f72 	mrcvs	15, 3, r6, cr5, cr2, {3}
    9868:	00707564 	rsbseq	r7, r0, r4, ror #10

0000986c <__FUNCTION__.0>:
    986c:	6572666b 	ldrbvs	r6, [r2, #-1643]!	; 0xfffff995
    9870:	6f705f65 	svcvs	0x00705f65
    9874:	Address 0x0000000000009874 is out of bounds.


Disassembly of section .data:

00009878 <putk>:
    9878:	00008418 	andeq	r8, r0, r8, lsl r4

0000987c <heap_end>:
    987c:	00209c90 	mlaeq	r0, r0, ip, r9

00009880 <heap_start>:
    9880:	00009c90 	muleq	r0, r0, ip

00009884 <heap>:
    9884:	00009c90 	muleq	r0, r0, ip

00009888 <rpi_putchar>:
    9888:	000093d8 	ldrdeq	r9, [r0], -r8

Disassembly of section .bss:

0000988c <__bss_start__>:
	...

00009c8c <init_p.6>:
    9c8c:	00000000 	andeq	r0, r0, r0

Disassembly of section .ARM.attributes:

00000000 <.ARM.attributes>:
   0:	00002a41 	andeq	r2, r0, r1, asr #20
   4:	61656100 	cmnvs	r5, r0, lsl #2
   8:	01006962 	tsteq	r0, r2, ror #18
   c:	00000020 	andeq	r0, r0, r0, lsr #32
  10:	4b5a3605 	blmi	168d82c <__bss_end__+0x1683b9c>
  14:	08070600 	stmdaeq	r7, {r9, sl}
  18:	12010901 	andne	r0, r1, #16384	; 0x4000
  1c:	15011404 	strne	r1, [r1, #-1028]	; 0xfffffbfc
  20:	18031701 	stmdane	r3, {r0, r8, r9, sl, ip}
  24:	22011a01 	andcs	r1, r1, #4096	; 0x1000
  28:	Address 0x0000000000000028 is out of bounds.


Disassembly of section .comment:

00000000 <.comment>:
   0:	3a434347 	bcc	10d0d24 <__bss_end__+0x10c7094>
   4:	4e472820 	cdpmi	8, 4, cr2, cr7, cr0, {1}
   8:	6f542055 	svcvs	0x00542055
   c:	20736c6f 	rsbscs	r6, r3, pc, ror #24
  10:	20726f66 	rsbscs	r6, r2, r6, ror #30
  14:	206d7241 	rsbcs	r7, sp, r1, asr #4
  18:	65626d45 	strbvs	r6, [r2, #-3397]!	; 0xfffff2bb
  1c:	64656464 	strbtvs	r6, [r5], #-1124	; 0xfffffb9c
  20:	6f725020 	svcvs	0x00725020
  24:	73736563 	cmnvc	r3, #415236096	; 0x18c00000
  28:	2073726f 	rsbscs	r7, r3, pc, ror #4
  2c:	30322d39 	eorscc	r2, r2, r9, lsr sp
  30:	712d3931 			; <UNDEFINED> instruction: 0x712d3931
  34:	616d2d34 	cmnvs	sp, r4, lsr sp
  38:	29726f6a 	ldmdbcs	r2!, {r1, r3, r5, r6, r8, r9, sl, fp, sp, lr}^
  3c:	322e3920 	eorcc	r3, lr, #32, 18	; 0x80000
  40:	3220312e 	eorcc	r3, r0, #-2147483637	; 0x8000000b
  44:	31393130 	teqcc	r9, r0, lsr r1
  48:	20353230 	eorscs	r3, r5, r0, lsr r2
  4c:	6c657228 	sfmvs	f7, 2, [r5], #-160	; 0xffffff60
  50:	65736165 	ldrbvs	r6, [r3, #-357]!	; 0xfffffe9b
  54:	415b2029 	cmpmi	fp, r9, lsr #32
  58:	612f4d52 			; <UNDEFINED> instruction: 0x612f4d52
  5c:	392d6d72 	pushcc	{r1, r4, r5, r6, r8, sl, fp, sp, lr}
  60:	6172622d 	cmnvs	r2, sp, lsr #4
  64:	2068636e 	rsbcs	r6, r8, lr, ror #6
  68:	69766572 	ldmdbvs	r6!, {r1, r4, r5, r6, r8, sl, sp, lr}^
  6c:	6e6f6973 			; <UNDEFINED> instruction: 0x6e6f6973
  70:	37373220 	ldrcc	r3, [r7, -r0, lsr #4]!
  74:	5d393935 			; <UNDEFINED> instruction: 0x5d393935
  78:	43434700 	movtmi	r4, #14080	; 0x3700
  7c:	4728203a 			; <UNDEFINED> instruction: 0x4728203a
  80:	4120554e 			; <UNDEFINED> instruction: 0x4120554e
  84:	45206d72 	strmi	r6, [r0, #-3442]!	; 0xfffff28e
  88:	6465626d 	strbtvs	r6, [r5], #-621	; 0xfffffd93
  8c:	20646564 	rsbcs	r6, r4, r4, ror #10
  90:	6c6f6f54 	stclvs	15, cr6, [pc], #-336	; ffffff48 <__bss_end__+0xffff62b8>
  94:	69616863 	stmdbvs	r1!, {r0, r1, r5, r6, fp, sp, lr}^
  98:	3031206e 	eorscc	r2, r1, lr, rrx
  9c:	322d332e 	eorcc	r3, sp, #-1207959552	; 0xb8000000
  a0:	2e313230 	mrccs	2, 1, r3, cr1, cr0, {1}
  a4:	20293031 	eorcs	r3, r9, r1, lsr r0
  a8:	332e3031 			; <UNDEFINED> instruction: 0x332e3031
  ac:	3220312e 	eorcc	r3, r0, #-2147483637	; 0x8000000b
  b0:	30313230 	eorscc	r3, r1, r0, lsr r2
  b4:	20343238 	eorscs	r3, r4, r8, lsr r2
  b8:	6c657228 	sfmvs	f7, 2, [r5], #-160	; 0xffffff60
  bc:	65736165 	ldrbvs	r6, [r3, #-357]!	; 0xfffffe9b
  c0:	Address 0x00000000000000c0 is out of bounds.


Disassembly of section .debug_info:

00000000 <.debug_info>:
       0:	0000031c 	andeq	r0, r0, ip, lsl r3
       4:	00000004 	andeq	r0, r0, r4
       8:	01040000 	mrseq	r0, (UNDEF: 4)
       c:	000000df 	ldrdeq	r0, [r0], -pc	; <UNPREDICTABLE>
      10:	00009d0c 	andeq	r9, r0, ip, lsl #26
      14:	0001ab00 	andeq	sl, r1, r0, lsl #22
      18:	00803800 	addeq	r3, r0, r0, lsl #16
      1c:	0000e000 	andeq	lr, r0, r0
      20:	00000000 	andeq	r0, r0, r0
      24:	05040200 	streq	r0, [r4, #-512]	; 0xfffffe00
      28:	00746e69 	rsbseq	r6, r4, r9, ror #28
      2c:	b2070403 	andlt	r0, r7, #50331648	; 0x3000000
      30:	04000000 	streq	r0, [r0], #-0
      34:	0000002c 	andeq	r0, r0, ip, lsr #32
      38:	58060103 	stmdapl	r6, {r0, r1, r8}
      3c:	03000000 	movweq	r0, #0
      40:	01940502 	orrseq	r0, r4, r2, lsl #10
      44:	04030000 	streq	r0, [r3], #-0
      48:	0000ca05 	andeq	ip, r0, r5, lsl #20
      4c:	05080300 	streq	r0, [r8, #-768]	; 0xfffffd00
      50:	000000c5 	andeq	r0, r0, r5, asr #1
      54:	56080103 	strpl	r0, [r8], -r3, lsl #2
      58:	03000000 	movweq	r0, #0
      5c:	006d0702 	rsbeq	r0, sp, r2, lsl #14
      60:	04030000 	streq	r0, [r3], #-0
      64:	0000ad07 	andeq	sl, r0, r7, lsl #26
      68:	07080300 	streq	r0, [r8, -r0, lsl #6]
      6c:	000000a8 	andeq	r0, r0, r8, lsr #1
      70:	00002505 	andeq	r2, r0, r5, lsl #10
      74:	00007f00 	andeq	r7, r0, r0, lsl #30
      78:	00250600 	eoreq	r0, r5, r0, lsl #12
      7c:	07000000 	streq	r0, [r0, -r0]
      80:	000000d3 	ldrdeq	r0, [r0], -r3
      84:	8b0e1c02 	blhi	387094 <__bss_end__+0x37d404>
      88:	08000000 	stmdaeq	r0, {}	; <UNPREDICTABLE>
      8c:	00007004 	andeq	r7, r0, r4
      90:	00250500 	eoreq	r0, r5, r0, lsl #10
      94:	00a00000 	adceq	r0, r0, r0
      98:	a0060000 	andge	r0, r6, r0
      9c:	00000000 	andeq	r0, r0, r0
      a0:	00ad0408 	adceq	r0, sp, r8, lsl #8
      a4:	01030000 	mrseq	r0, (UNDEF: 3)
      a8:	00005f08 	andeq	r5, r0, r8, lsl #30
      ac:	00a60400 	adceq	r0, r6, r0, lsl #8
      b0:	6e070000 	cdpvs	0, 0, cr0, cr7, cr0, {0}
      b4:	02000004 	andeq	r0, r0, #4, 0
      b8:	00be0e21 	adcseq	r0, lr, r1, lsr #28
      bc:	04080000 	streq	r0, [r8], #-0
      c0:	00000091 	muleq	r0, r1, r0
      c4:	00002009 	andeq	r2, r0, r9
      c8:	179c0300 	ldrne	r0, [ip, r0, lsl #6]
      cc:	00000033 	andeq	r0, r0, r3, lsr r0
      d0:	00bf0a10 	adcseq	r0, pc, r0, lsl sl	; <UNPREDICTABLE>
      d4:	03050000 	movweq	r0, #20480	; 0x5000
      d8:	0000dd1c 	andeq	sp, r0, ip, lsl sp
      dc:	e3040800 	movw	r0, #18432	; 0x4800
      e0:	0b000000 	bleq	e8 <__code_start__-0x7f18>
      e4:	00000000 	andeq	r0, r0, r0
      e8:	5401070c 	strpl	r0, [r1], #-1804	; 0xfffff8f4
      ec:	01000000 	mrseq	r0, (UNDEF: 0)
      f0:	00fd060a 	rscseq	r0, sp, sl, lsl #12
      f4:	180d0000 	stmdane	sp, {}	; <UNPREDICTABLE>
      f8:	15000000 	strne	r0, [r0, #-0]
      fc:	003a0e00 	eorseq	r0, sl, r0, lsl #28
     100:	16010000 	strne	r0, [r1], -r0
     104:	0080a406 	addeq	sl, r0, r6, lsl #8
     108:	00007400 	andeq	r7, r0, r0, lsl #8
     10c:	f99c0100 			; <UNDEFINED> instruction: 0xf99c0100
     110:	09000001 	stmdbeq	r0, {r0}
     114:	00000042 	andeq	r0, r0, r2, asr #32
     118:	2c0e1d01 	stccs	13, cr1, [lr], {1}
     11c:	38000000 	stmdacc	r0, {}	; <UNPREDICTABLE>
     120:	0100680f 	tsteq	r0, pc, lsl #16
     124:	00d10b1e 	sbcseq	r0, r1, lr, lsl fp
     128:	00040000 	andeq	r0, r4, r0
     12c:	00000000 	andeq	r0, r0, r0
     130:	00100000 	andseq	r0, r0, r0
     134:	b0000000 	andlt	r0, r0, r0
     138:	0f000001 	svceq	0x00000001
     13c:	2601006a 	strcs	r0, [r1], -sl, rrx
     140:	0000250d 	andeq	r2, r0, sp, lsl #10
     144:	00002e00 	andeq	r2, r0, r0, lsl #28
     148:	00002200 	andeq	r2, r0, r0, lsl #4
     14c:	80d81100 	sbcshi	r1, r8, r0, lsl #2
     150:	00240000 	eoreq	r0, r4, r0
     154:	01970000 	orrseq	r0, r7, r0
     158:	690f0000 	stmdbvs	pc, {}	; <UNPREDICTABLE>
     15c:	11280100 			; <UNDEFINED> instruction: 0x11280100
     160:	00000025 	andeq	r0, r0, r5, lsr #32
     164:	0000008d 	andeq	r0, r0, sp, lsl #1
     168:	00000089 	andeq	r0, r0, r9, lsl #1
     16c:	0080e812 	addeq	lr, r0, r2, lsl r8
     170:	0001f900 	andeq	pc, r1, r0, lsl #18
     174:	00018600 	andeq	r8, r1, r0, lsl #12
     178:	50011300 	andpl	r1, r1, r0, lsl #6
     17c:	13007602 	movwne	r7, #1538	; 0x602
     180:	74025101 	strvc	r5, [r2], #-257	; 0xfffffeff
     184:	f0140000 			; <UNDEFINED> instruction: 0xf0140000
     188:	cb000080 	blgt	390 <__code_start__-0x7c70>
     18c:	13000002 	movwne	r0, #2
     190:	75025001 	strvc	r5, [r2, #-1]
     194:	14000000 	strne	r0, [r0], #-0
     198:	000080d8 	ldrdeq	r8, [r0], -r8	; <UNPREDICTABLE>
     19c:	000002d7 	ldrdeq	r0, [r0], -r7
     1a0:	02500113 	subseq	r0, r0, #-1073741820	; 0xc0000004
     1a4:	01130077 	tsteq	r3, r7, ror r0
     1a8:	753a0451 	ldrvc	r0, [sl, #-1105]!	; 0xfffffbaf
     1ac:	00001c00 	andeq	r1, r0, r0, lsl #24
     1b0:	0080ac15 	addeq	sl, r0, r5, lsl ip
     1b4:	0002e300 	andeq	lr, r2, r0, lsl #6
     1b8:	80b41200 	adcshi	r1, r4, r0, lsl #4
     1bc:	02ef0000 	rsceq	r0, pc, #0, 0
     1c0:	01cc0000 	biceq	r0, ip, r0
     1c4:	01130000 	tsteq	r3, r0
     1c8:	00450150 	subeq	r0, r5, r0, asr r1
     1cc:	0080c012 	addeq	ip, r0, r2, lsl r0
     1d0:	0002fb00 	andeq	pc, r2, r0, lsl #22
     1d4:	0001e500 	andeq	lr, r1, r0, lsl #10
     1d8:	50011300 	andpl	r1, r1, r0, lsl #6
     1dc:	01134501 	tsteq	r3, r1, lsl #10
     1e0:	38080251 	stmdacc	r8, {r0, r4, r6, r9}
     1e4:	810c1400 	tsthi	ip, r0, lsl #8
     1e8:	02d70000 	sbcseq	r0, r7, #0, 0
     1ec:	01130000 	tsteq	r3, r0
     1f0:	ec030550 	cfstr32	mvfx0, [r3], {80}	; 0x50
     1f4:	00000094 	muleq	r0, r4, r0
     1f8:	000b0e00 	andeq	r0, fp, r0, lsl #28
     1fc:	0f010000 	svceq	0x00010000
     200:	00803806 	addeq	r3, r0, r6, lsl #16
     204:	00006c00 	andeq	r6, r0, r0, lsl #24
     208:	cb9c0100 	blgt	fe700610 <__bss_end__+0xfe6f6980>
     20c:	16000002 	strne	r0, [r0], -r2
     210:	0f010068 	svceq	0x00010068
     214:	0000d119 	andeq	sp, r0, r9, lsl r1
     218:	0000b000 	andeq	fp, r0, r0
     21c:	0000ac00 	andeq	sl, r0, r0, lsl #24
     220:	00691600 	rsbeq	r1, r9, r0, lsl #12
     224:	25200f01 	strcs	r0, [r0, #-3841]!	; 0xfffff0ff
     228:	d2000000 	andle	r0, r0, #0, 0
     22c:	ce000000 	cdpgt	0, 0, cr0, cr0, cr0, {0}
     230:	12000000 	andne	r0, r0, #0, 0
     234:	00008060 	andeq	r8, r0, r0, rrx
     238:	00000307 	andeq	r0, r0, r7, lsl #6
     23c:	00000260 	andeq	r0, r0, r0, ror #4
     240:	02500113 	subseq	r0, r0, #-1073741820	; 0xc0000004
     244:	01130075 	tsteq	r3, r5, ror r0
     248:	7e760251 	mrcvc	2, 3, r0, cr6, cr1, {2}
     24c:	02520113 	subseq	r0, r2, #-1073741820	; 0xc0000004
     250:	0113ff09 	tsteq	r3, r9, lsl #30	; <UNPREDICTABLE>
     254:	00740253 	rsbseq	r0, r4, r3, asr r2
     258:	007d0213 	rsbseq	r0, sp, r3, lsl r2
     25c:	00007402 	andeq	r7, r0, r2, lsl #8
     260:	00807812 	addeq	r7, r0, r2, lsl r8
     264:	00030700 	andeq	r0, r3, r0, lsl #14
     268:	00028d00 	andeq	r8, r2, r0, lsl #26
     26c:	50011300 	andpl	r1, r1, r0, lsl #6
     270:	13007502 	movwne	r7, #1282	; 0x502
     274:	76025101 	strvc	r5, [r2], -r1, lsl #2
     278:	5201137f 	andpl	r1, r1, #-67108863	; 0xfc000001
     27c:	13007402 	movwne	r7, #1026	; 0x402
     280:	09025301 	stmdbeq	r2, {r0, r8, r9, ip, lr}
     284:	7d0213ff 	stcvc	3, cr1, [r2, #-1020]	; 0xfffffc04
     288:	00740200 	rsbseq	r0, r4, r0, lsl #4
     28c:	80941200 	addshi	r1, r4, r0, lsl #4
     290:	03070000 	movweq	r0, #28672	; 0x7000
     294:	02ba0000 	adcseq	r0, sl, #0, 0
     298:	01130000 	tsteq	r3, r0
     29c:	00750250 	rsbseq	r0, r5, r0, asr r2
     2a0:	02510113 	subseq	r0, r1, #-1073741820	; 0xc0000004
     2a4:	01130076 	tsteq	r3, r6, ror r0
     2a8:	00740252 	rsbseq	r0, r4, r2, asr r2
     2ac:	02530113 	subseq	r0, r3, #-1073741820	; 0xc0000004
     2b0:	02130074 	andseq	r0, r3, #116, 0	; 0x74
     2b4:	0902007d 	stmdbeq	r2, {r0, r2, r3, r4, r5, r6}
     2b8:	9c1400ff 	ldcls	0, cr0, [r4], {255}	; 0xff
     2bc:	13000080 	movwne	r0, #128	; 0x80
     2c0:	13000003 	movwne	r0, #3
     2c4:	75025001 	strvc	r5, [r2, #-1]
     2c8:	17000000 	strne	r0, [r0, -r0]
     2cc:	00000064 	andeq	r0, r0, r4, rrx
     2d0:	00000064 	andeq	r0, r0, r4, rrx
     2d4:	17065802 	strne	r5, [r6, -r2, lsl #16]
     2d8:	00000430 	andeq	r0, r0, r0, lsr r4
     2dc:	00000430 	andeq	r0, r0, r0, lsr r4
     2e0:	17062802 	strne	r2, [r6, -r2, lsl #16]
     2e4:	0000019e 	muleq	r0, lr, r1
     2e8:	0000019e 	muleq	r0, lr, r1
     2ec:	1706a502 	strne	sl, [r6, -r2, lsl #10]
     2f0:	0000008d 	andeq	r0, r0, sp, lsl #1
     2f4:	0000008d 	andeq	r0, r0, sp, lsl #1
     2f8:	17061d04 	strne	r1, [r6, -r4, lsl #26]
     2fc:	0000004a 	andeq	r0, r0, sl, asr #32
     300:	0000004a 	andeq	r0, r0, sl, asr #32
     304:	17070605 	strne	r0, [r7, -r5, lsl #12]
     308:	0000002d 	andeq	r0, r0, sp, lsr #32
     30c:	0000002d 	andeq	r0, r0, sp, lsr #32
     310:	17060c05 	strne	r0, [r6, -r5, lsl #24]
     314:	00000080 	andeq	r0, r0, r0, lsl #1
     318:	00000080 	andeq	r0, r0, r0, lsl #1
     31c:	00060d05 	andeq	r0, r6, r5, lsl #26
     320:	00000d2a 	andeq	r0, r0, sl, lsr #26
     324:	013e0004 	teqeq	lr, r4
     328:	01040000 	mrseq	r0, (UNDEF: 4)
     32c:	000000df 	ldrdeq	r0, [r0], -pc	; <UNPREDICTABLE>
     330:	0002ad0c 	andeq	sl, r2, ip, lsl #26
     334:	0001ab00 	andeq	sl, r1, r0, lsl #22
     338:	00811800 	addeq	r1, r1, r0, lsl #16
     33c:	00029000 	andeq	r9, r2, r0
     340:	00015200 	andeq	r5, r1, r0, lsl #4
     344:	05040200 	streq	r0, [r4, #-512]	; 0xfffffe00
     348:	00746e69 	rsbseq	r6, r4, r9, ror #28
     34c:	b2070403 	andlt	r0, r7, #50331648	; 0x3000000
     350:	04000000 	streq	r0, [r0], #-0
     354:	0000002c 	andeq	r0, r0, ip, lsr #32
     358:	58060103 	stmdapl	r6, {r0, r1, r8}
     35c:	03000000 	movweq	r0, #0
     360:	01940502 	orrseq	r0, r4, r2, lsl #10
     364:	04030000 	streq	r0, [r3], #-0
     368:	0000ca05 	andeq	ip, r0, r5, lsl #20
     36c:	05080300 	streq	r0, [r8, #-768]	; 0xfffffd00
     370:	000000c5 	andeq	r0, r0, r5, asr #1
     374:	0002c805 	andeq	ip, r2, r5, lsl #16
     378:	182e0300 	stmdane	lr!, {r8, r9}
     37c:	00000060 	andeq	r0, r0, r0, rrx
     380:	56080103 	strpl	r0, [r8], -r3, lsl #2
     384:	03000000 	movweq	r0, #0
     388:	006d0702 	rsbeq	r0, sp, r2, lsl #14
     38c:	8b050000 	blhi	140394 <__bss_end__+0x136704>
     390:	03000002 	movweq	r0, #2
     394:	007a1934 	rsbseq	r1, sl, r4, lsr r9
     398:	04030000 	streq	r0, [r3], #-0
     39c:	0000ad07 	andeq	sl, r0, r7, lsl #26
     3a0:	07080300 	streq	r0, [r8, -r0, lsl #6]
     3a4:	000000a8 	andeq	r0, r0, r8, lsr #1
     3a8:	00002506 	andeq	r2, r0, r6, lsl #10
     3ac:	00009700 	andeq	r9, r0, r0, lsl #14
     3b0:	00250700 	eoreq	r0, r5, r0, lsl #14
     3b4:	08000000 	stmdaeq	r0, {}	; <UNPREDICTABLE>
     3b8:	000000d3 	ldrdeq	r0, [r0], -r3
     3bc:	a30e1c04 	movwge	r1, #60420	; 0xec04
     3c0:	09000000 	stmdbeq	r0, {}	; <UNPREDICTABLE>
     3c4:	00008804 	andeq	r8, r0, r4, lsl #16
     3c8:	00250600 	eoreq	r0, r5, r0, lsl #12
     3cc:	00b80000 	adcseq	r0, r8, r0
     3d0:	b8070000 	stmdalt	r7, {}	; <UNPREDICTABLE>
     3d4:	00000000 	andeq	r0, r0, r0
     3d8:	00c50409 	sbceq	r0, r5, r9, lsl #8
     3dc:	01030000 	mrseq	r0, (UNDEF: 3)
     3e0:	00005f08 	andeq	r5, r0, r8, lsl #30
     3e4:	00be0400 	adcseq	r0, lr, r0, lsl #8
     3e8:	6e080000 	cdpvs	0, 0, cr0, cr8, cr0, {0}
     3ec:	04000004 	streq	r0, [r0], #-4
     3f0:	00d60e21 	sbcseq	r0, r6, r1, lsr #28
     3f4:	04090000 	streq	r0, [r9], #-0
     3f8:	000000a9 	andeq	r0, r0, r9, lsr #1
     3fc:	0000bf05 	andeq	fp, r0, r5, lsl #30
     400:	1c030500 	cfstr32ne	mvfx0, [r3], {-0}
     404:	000000e8 	andeq	r0, r0, r8, ror #1
     408:	00ee0409 	rsceq	r0, lr, r9, lsl #8
     40c:	000a0000 	andeq	r0, sl, r0
     410:	08000000 	stmdaeq	r0, {}	; <UNPREDICTABLE>
     414:	23081602 	movwcs	r1, #34306	; 0x8602
     418:	0b000001 	bleq	424 <__code_start__-0x7bdc>
     41c:	006e6970 	rsbeq	r6, lr, r0, ror r9
     420:	540d1702 	strpl	r1, [sp], #-1794	; 0xfffff8fe
     424:	00000000 	andeq	r0, r0, r0
     428:	0002940c 	andeq	r9, r2, ip, lsl #8
     42c:	0e180200 	cdpeq	2, 1, cr0, cr8, cr0, {0}
     430:	0000006e 	andeq	r0, r0, lr, rrx
     434:	00430c04 	subeq	r0, r3, r4, lsl #24
     438:	1b020000 	blne	80440 <__bss_end__+0x767b0>
     43c:	00018f16 	andeq	r8, r1, r6, lsl pc
     440:	0d000800 	stceq	8, cr0, [r0, #-0]
     444:	00670207 	rsbeq	r0, r7, r7, lsl #4
     448:	4b010000 	blmi	40450 <__bss_end__+0x367c0>
     44c:	0001530a 	andeq	r5, r1, sl, lsl #6
     450:	31540e00 	cmpcc	r4, r0, lsl #28
     454:	02760048 	rsbseq	r0, r6, #72, 0	; 0x48
     458:	4830540f 	ldmdami	r0!, {r0, r1, r2, r3, sl, ip, lr}
     45c:	540ff500 	strpl	pc, [pc], #-1280	; 464 <__code_start__-0x7b9c>
     460:	f5004c31 			; <UNDEFINED> instruction: 0xf5004c31
     464:	4c30540e 	cfldrsmi	mvf5, [r0], #-56	; 0xffffffc8
     468:	10027600 	andne	r7, r2, r0, lsl #12
     46c:	000002e9 	andeq	r0, r0, r9, ror #5
     470:	1100a410 	tstne	r0, r0, lsl r4
     474:	00000020 	andeq	r0, r0, r0, lsr #32
     478:	33179c01 	tstcc	r7, #256	; 0x100
     47c:	10000000 	andne	r0, r0, r0
     480:	00021d0a 	andeq	r1, r2, sl, lsl #26
     484:	10020300 	andne	r0, r2, r0, lsl #6
     488:	00018f08 	andeq	r8, r1, r8, lsl #30
     48c:	00720b00 	rsbseq	r0, r2, r0, lsl #22
     490:	540d1102 	strpl	r1, [sp], #-258	; 0xfffffefe
     494:	00000000 	andeq	r0, r0, r0
     498:	0200670b 	andeq	r6, r0, #2883584	; 0x2c0000
     49c:	00540f11 	subseq	r0, r4, r1, lsl pc
     4a0:	0b010000 	bleq	404a8 <__bss_end__+0x36818>
     4a4:	11020062 	tstne	r2, r2, rrx
     4a8:	00005411 	andeq	r5, r0, r1, lsl r4
     4ac:	12000200 	andne	r0, r0, #0, 4
     4b0:	00000160 	andeq	r0, r0, r0, ror #2
     4b4:	0000019e 	muleq	r0, lr, r1
     4b8:	00002c13 	andeq	r2, r0, r3, lsl ip
     4bc:	2d140000 	ldccs	0, cr0, [r4, #-0]
     4c0:	02000000 	andeq	r0, r0, #0, 0
     4c4:	8380064b 	orrhi	r0, r0, #78643200	; 0x4b00000
     4c8:	00280000 	eoreq	r0, r8, r0
     4cc:	9c010000 	stcls	0, cr0, [r1], {-0}
     4d0:	00000206 	andeq	r0, r0, r6, lsl #4
     4d4:	02006815 	andeq	r6, r0, #1376256	; 0x150000
     4d8:	00dc194b 	sbcseq	r1, ip, fp, asr #18
     4dc:	00f40000 	rscseq	r0, r4, r0
     4e0:	00f00000 	rscseq	r0, r0, r0
     4e4:	70150000 	andsvc	r0, r5, r0
     4e8:	0200736f 	andeq	r7, r0, #-1140850687	; 0xbc000001
     4ec:	006e254b 	rsbeq	r2, lr, fp, asr #10
     4f0:	01190000 	tsteq	r9, r0
     4f4:	01150000 	tsteq	r5, r0
     4f8:	72160000 	andsvc	r0, r6, #0, 0
     4fc:	324b0200 	subcc	r0, fp, #0, 4
     500:	00000054 	andeq	r0, r0, r4, asr r0
     504:	67155201 	ldrvs	r5, [r5, -r1, lsl #4]
     508:	3d4b0200 	sfmcc	f0, 2, [fp, #-0]
     50c:	00000054 	andeq	r0, r0, r4, asr r0
     510:	0000013e 	andeq	r0, r0, lr, lsr r1
     514:	0000013a 	andeq	r0, r0, sl, lsr r1
     518:	02006216 	andeq	r6, r0, #1610612737	; 0x60000001
     51c:	0054484b 	subseq	r4, r4, fp, asr #16
     520:	91020000 	mrsls	r0, (UNDEF: 2)
     524:	33140000 	tstcc	r4, #0, 0
     528:	02000002 	andeq	r0, r0, #2, 0
     52c:	83700646 	cmnhi	r0, #73400320	; 0x4600000
     530:	00100000 	andseq	r0, r0, r0
     534:	9c010000 	stcls	0, cr0, [r1], {-0}
     538:	00000240 	andeq	r0, r0, r0, asr #4
     53c:	02006815 	andeq	r6, r0, #1376256	; 0x150000
     540:	00dc1946 	sbcseq	r1, ip, r6, asr #18
     544:	01610000 	cmneq	r1, r0
     548:	015d0000 	cmpeq	sp, r0
     54c:	7c170000 	ldcvc	0, cr0, [r7], {-0}
     550:	40000083 	andmi	r0, r0, r3, lsl #1
     554:	18000002 	stmdane	r0, {r1}
     558:	f3035001 	vhadd.u8	d5, d3, d1
     55c:	00005001 	andeq	r5, r0, r1
     560:	00029b14 	andeq	r9, r2, r4, lsl fp
     564:	06400200 	strbeq	r0, [r0], -r0, lsl #4
     568:	00008318 	andeq	r8, r0, r8, lsl r3
     56c:	00000058 	andeq	r0, r0, r8, asr r0
     570:	033b9c01 	teqeq	fp, #256	; 0x100
     574:	68150000 	ldmdavs	r5, {}	; <UNPREDICTABLE>
     578:	1e400200 	cdpne	2, 4, cr0, cr0, cr0, {0}
     57c:	000000dc 	ldrdeq	r0, [r0], -ip
     580:	00000186 	andeq	r0, r0, r6, lsl #3
     584:	00000182 	andeq	r0, r0, r2, lsl #3
     588:	02006e15 	andeq	r6, r0, #336	; 0x150
     58c:	002c2a40 	eoreq	r2, ip, r0, asr #20
     590:	01a80000 			; <UNDEFINED> instruction: 0x01a80000
     594:	01a40000 			; <UNDEFINED> instruction: 0x01a40000
     598:	20190000 	andscs	r0, r9, r0
     59c:	44000083 	strmi	r0, [r0], #-131	; 0xffffff7d
     5a0:	2a000000 	bcs	5a8 <__code_start__-0x7a58>
     5a4:	1a000003 	bne	5b8 <__code_start__-0x7a48>
     5a8:	41020069 	tstmi	r2, r9, rrx
     5ac:	0000250d 	andeq	r2, r0, sp, lsl #10
     5b0:	0001ca00 	andeq	ip, r1, r0, lsl #20
     5b4:	0001c600 	andeq	ip, r1, r0, lsl #12
     5b8:	06cd1b00 	strbeq	r1, [sp], r0, lsl #22
     5bc:	83340000 	teqhi	r4, #0, 0
     5c0:	d0000000 	andle	r0, r0, r0
     5c4:	02000001 	andeq	r0, r0, #1, 0
     5c8:	fa1c0942 	blx	702ad8 <__bss_end__+0x6f8e48>
     5cc:	eb000006 	bl	5ec <__code_start__-0x7a14>
     5d0:	e9000001 	stmdb	r0, {r0}
     5d4:	1c000001 	stcne	0, cr0, [r0], {1}
     5d8:	000006f0 	strdeq	r0, [r0], -r0	; <UNPREDICTABLE>
     5dc:	000001eb 	andeq	r0, r0, fp, ror #3
     5e0:	000001e9 	andeq	r0, r0, r9, ror #3
     5e4:	0006e61c 	andeq	lr, r6, ip, lsl r6
     5e8:	0001eb00 	andeq	lr, r1, r0, lsl #22
     5ec:	0001e900 	andeq	lr, r1, r0, lsl #18
     5f0:	06da1c00 	ldrbeq	r1, [sl], r0, lsl #24
     5f4:	02010000 	andeq	r0, r1, #0, 0
     5f8:	01ff0000 	mvnseq	r0, r0
     5fc:	401d0000 	andsmi	r0, sp, r0
     600:	05000083 	streq	r0, [r0, #-131]	; 0xffffff7d
     604:	f8000007 			; <UNDEFINED> instruction: 0xf8000007
     608:	18000002 	stmdane	r0, {r1}
     60c:	74025001 	strvc	r5, [r2], #-1
     610:	51011800 	tstpl	r1, r0, lsl #16
     614:	00007502 	andeq	r7, r0, r2, lsl #10
     618:	00834c1d 	addeq	r4, r3, sp, lsl ip
     61c:	00070500 	andeq	r0, r7, r0, lsl #10
     620:	00031200 	andeq	r1, r3, r0, lsl #4
     624:	50011800 	andpl	r1, r1, r0, lsl #16
     628:	18007402 	stmdane	r0, {r1, sl, ip, sp, lr}
     62c:	75025101 	strvc	r5, [r2, #-257]	; 0xfffffeff
     630:	58170000 	ldmdapl	r7, {}	; <UNPREDICTABLE>
     634:	05000083 	streq	r0, [r0, #-131]	; 0xffffff7d
     638:	18000007 	stmdane	r0, {r0, r1, r2}
     63c:	74025001 	strvc	r5, [r2], #-1
     640:	51011800 	tstpl	r1, r0, lsl #16
     644:	00007502 	andeq	r7, r0, r2, lsl #10
     648:	6c170000 	ldcvs	0, cr0, [r7], {-0}
     64c:	d4000083 	strle	r0, [r0], #-131	; 0xffffff7d
     650:	18000004 	stmdane	r0, {r2}
     654:	78025001 	stmdavc	r2, {r0, ip, lr}
     658:	14000000 	strne	r0, [r0], #-0
     65c:	000002ef 	andeq	r0, r0, pc, ror #5
     660:	e0063b02 	and	r3, r6, r2, lsl #22
     664:	38000082 	stmdacc	r0, {r1, r7}
     668:	01000000 	mrseq	r0, (UNDEF: 0)
     66c:	0004289c 	muleq	r4, ip, r8
     670:	00681500 	rsbeq	r1, r8, r0, lsl #10
     674:	dc1d3b02 			; <UNDEFINED> instruction: 0xdc1d3b02
     678:	18000000 	stmdane	r0, {}	; <UNPREDICTABLE>
     67c:	14000002 	strne	r0, [r0], #-2
     680:	15000002 	strne	r0, [r0, #-2]
     684:	3b020072 	blcc	80854 <__bss_end__+0x76bc4>
     688:	00005428 	andeq	r5, r0, r8, lsr #8
     68c:	00023d00 	andeq	r3, r2, r0, lsl #26
     690:	00023900 	andeq	r3, r2, r0, lsl #18
     694:	00671500 	rsbeq	r1, r7, r0, lsl #10
     698:	54333b02 	ldrtpl	r3, [r3], #-2818	; 0xfffff4fe
     69c:	62000000 	andvs	r0, r0, #0, 0
     6a0:	5e000002 	cdppl	0, 0, cr0, cr0, cr2, {0}
     6a4:	15000002 	strne	r0, [r0, #-2]
     6a8:	3b020062 	blcc	80838 <__bss_end__+0x76ba8>
     6ac:	0000543e 	andeq	r5, r0, lr, lsr r4
     6b0:	00028700 	andeq	r8, r2, r0, lsl #14
     6b4:	00028300 	andeq	r8, r2, r0, lsl #6
     6b8:	06cd1e00 	strbeq	r1, [sp], r0, lsl #28
     6bc:	82f00000 	rscshi	r0, r0, #0, 0
     6c0:	f0000000 			; <UNDEFINED> instruction: 0xf0000000
     6c4:	24000082 	strcs	r0, [r0], #-130	; 0xffffff7e
     6c8:	02000000 	andeq	r0, r0, #0, 0
     6cc:	fa1c053c 	blx	701bc4 <__bss_end__+0x6f7f34>
     6d0:	aa000006 	bge	6f0 <__code_start__-0x7910>
     6d4:	a8000002 	stmdage	r0, {r1}
     6d8:	1c000002 	stcne	0, cr0, [r0], {2}
     6dc:	000006f0 	strdeq	r0, [r0], -r0	; <UNPREDICTABLE>
     6e0:	000002c1 	andeq	r0, r0, r1, asr #5
     6e4:	000002bd 			; <UNDEFINED> instruction: 0x000002bd
     6e8:	0006e61c 	andeq	lr, r6, ip, lsl r6
     6ec:	0002e400 	andeq	lr, r2, r0, lsl #8
     6f0:	0002e200 	andeq	lr, r2, r0, lsl #4
     6f4:	06da1c00 	ldrbeq	r1, [sl], r0, lsl #24
     6f8:	02f90000 	rscseq	r0, r9, #0, 0
     6fc:	02f70000 	rscseq	r0, r7, #0, 0
     700:	fc1d0000 	ldc2	0, cr0, [sp], {-0}
     704:	05000082 	streq	r0, [r0, #-130]	; 0xffffff7e
     708:	f6000007 			; <UNDEFINED> instruction: 0xf6000007
     70c:	18000003 	stmdane	r0, {r0, r1}
     710:	74025001 	strvc	r5, [r2], #-1
     714:	081d0000 	ldmdaeq	sp, {}	; <UNPREDICTABLE>
     718:	05000083 	streq	r0, [r0, #-131]	; 0xffffff7d
     71c:	10000007 	andne	r0, r0, r7
     720:	18000004 	stmdane	r0, {r2}
     724:	74025001 	strvc	r5, [r2], #-1
     728:	51011800 	tstpl	r1, r0, lsl #16
     72c:	00007602 	andeq	r7, r0, r2, lsl #12
     730:	00831417 	addeq	r1, r3, r7, lsl r4
     734:	00070500 	andeq	r0, r7, r0, lsl #10
     738:	50011800 	andpl	r1, r1, r0, lsl #16
     73c:	18007402 	stmdane	r0, {r1, sl, ip, sp, lr}
     740:	75025101 	strvc	r5, [r2, #-257]	; 0xfffffeff
     744:	00000000 	andeq	r0, r0, r0
     748:	00004a1f 	andeq	r4, r0, pc, lsl sl
     74c:	072e0200 	streq	r0, [lr, -r0, lsl #4]!
     750:	000000dc 	ldrdeq	r0, [r0], -ip
     754:	0000829c 	muleq	r0, ip, r2
     758:	00000044 	andeq	r0, r0, r4, asr #32
     75c:	04d49c01 	ldrbeq	r9, [r4], #3073	; 0xc01
     760:	70150000 	andsvc	r0, r5, r0
     764:	02006e69 	andeq	r6, r0, #1680	; 0x690
     768:	00541b2e 	subseq	r1, r4, lr, lsr #22
     76c:	03100000 	tsteq	r0, #0, 0
     770:	030c0000 	movweq	r0, #49152	; 0xc000
     774:	94200000 	strtls	r0, [r0], #-0
     778:	02000002 	andeq	r0, r0, #2, 0
     77c:	002c292e 	eoreq	r2, ip, lr, lsr #18
     780:	03350000 	teqeq	r5, #0, 0
     784:	03310000 	teqeq	r1, #0, 0
     788:	681a0000 	ldmdavs	sl, {}	; <UNPREDICTABLE>
     78c:	0b2f0200 	bleq	bc0f94 <__bss_end__+0xbb7304>
     790:	000000dc 	ldrdeq	r0, [r0], -ip
     794:	00000357 	andeq	r0, r0, r7, asr r3
     798:	00000353 	andeq	r0, r0, r3, asr r3
     79c:	0009c821 	andeq	ip, r9, r1, lsr #16
     7a0:	0e300200 	cdpeq	2, 3, cr0, cr0, cr0, {0}
     7a4:	0000002c 	andeq	r0, r0, ip, lsr #32
     7a8:	00000377 	andeq	r0, r0, r7, ror r3
     7ac:	00000375 	andeq	r0, r0, r5, ror r3
     7b0:	0082b81d 	addeq	fp, r2, sp, lsl r8
     7b4:	000d0900 	andeq	r0, sp, r0, lsl #18
     7b8:	0004a400 	andeq	sl, r4, r0, lsl #8
     7bc:	50011800 	andpl	r1, r1, r0, lsl #16
     7c0:	00007702 	andeq	r7, r0, r2, lsl #14
     7c4:	0082c81d 	addeq	ip, r2, sp, lsl r8
     7c8:	000d1500 	andeq	r1, sp, r0, lsl #10
     7cc:	0004c300 	andeq	ip, r4, r0, lsl #6
     7d0:	50011800 	andpl	r1, r1, r0, lsl #16
     7d4:	18007402 	stmdane	r0, {r1, sl, ip, sp, lr}
     7d8:	30015101 	andcc	r5, r1, r1, lsl #2
     7dc:	02520118 	subseq	r0, r2, #6
     7e0:	17000077 	smlsdxne	r0, r7, r0, r0
     7e4:	000082d8 	ldrdeq	r8, [r0], -r8	; <UNPREDICTABLE>
     7e8:	00000d21 	andeq	r0, r0, r1, lsr #26
     7ec:	02500118 	subseq	r0, r0, #6
     7f0:	00000076 	andeq	r0, r0, r6, ror r0
     7f4:	00008014 	andeq	r8, r0, r4, lsl r0
     7f8:	061e0200 	ldreq	r0, [lr], -r0, lsl #4
     7fc:	000081cc 	andeq	r8, r0, ip, asr #3
     800:	000000d0 	ldrdeq	r0, [r0], -r0	; <UNPREDICTABLE>
     804:	06cd9c01 	strbeq	r9, [sp], r1, lsl #24
     808:	68150000 	ldmdavs	r5, {}	; <UNPREDICTABLE>
     80c:	191e0200 	ldmdbne	lr, {r9}
     810:	000000dc 	ldrdeq	r0, [r0], -ip
     814:	00000392 	muleq	r0, r2, r3
     818:	0000038a 	andeq	r0, r0, sl, lsl #7
     81c:	0081d419 	addeq	sp, r1, r9, lsl r4
     820:	00005800 	andeq	r5, r0, r0, lsl #16
     824:	0005aa00 	andeq	sl, r5, r0, lsl #20
     828:	00691a00 	rsbeq	r1, r9, r0, lsl #20
     82c:	2c132102 	ldfcss	f2, [r3], {2}
     830:	cd000000 	stcgt	0, cr0, [r0, #-0]
     834:	c9000003 	stmdbgt	r0, {r0, r1}
     838:	1e000003 	cdpne	0, 0, cr0, cr0, cr3, {0}
     83c:	000006cd 	andeq	r0, r0, sp, asr #13
     840:	000081f4 	strdeq	r8, [r0], -r4
     844:	0081f400 	addeq	pc, r1, r0, lsl #8
     848:	00002400 	andeq	r2, r0, r0, lsl #8
     84c:	09220200 	stmdbeq	r2!, {r9}
     850:	0006fa1c 	andeq	pc, r6, ip, lsl sl	; <UNPREDICTABLE>
     854:	0003ee00 	andeq	lr, r3, r0, lsl #28
     858:	0003ec00 	andeq	lr, r3, r0, lsl #24
     85c:	06f01c00 	ldrbteq	r1, [r0], r0, lsl #24
     860:	04030000 	streq	r0, [r3], #-0
     864:	04010000 	streq	r0, [r1], #-0
     868:	e61c0000 	ldr	r0, [ip], -r0
     86c:	19000006 	stmdbne	r0, {r1, r2}
     870:	17000004 	strne	r0, [r0, -r4]
     874:	1c000004 	stcne	0, cr0, [r0], {4}
     878:	000006da 	ldrdeq	r0, [r0], -sl
     87c:	0000042e 	andeq	r0, r0, lr, lsr #8
     880:	0000042c 	andeq	r0, r0, ip, lsr #8
     884:	0082001d 	addeq	r0, r2, sp, lsl r0
     888:	00070500 	andeq	r0, r7, r0, lsl #10
     88c:	00057800 	andeq	r7, r5, r0, lsl #16
     890:	50011800 	andpl	r1, r1, r0, lsl #16
     894:	00007602 	andeq	r7, r0, r2, lsl #12
     898:	00820c1d 	addeq	r0, r2, sp, lsl ip
     89c:	00070500 	andeq	r0, r7, r0, lsl #10
     8a0:	00059200 	andeq	r9, r5, r0, lsl #4
     8a4:	50011800 	andpl	r1, r1, r0, lsl #16
     8a8:	18007602 	stmdane	r0, {r1, r9, sl, ip, sp, lr}
     8ac:	79025101 	stmdbvc	r2, {r0, r8, ip, lr}
     8b0:	18170000 	ldmdane	r7, {}	; <UNPREDICTABLE>
     8b4:	05000082 	streq	r0, [r0, #-130]	; 0xffffff7e
     8b8:	18000007 	stmdane	r0, {r0, r1, r2}
     8bc:	76025001 	strvc	r5, [r2], -r1
     8c0:	51011800 	tstpl	r1, r0, lsl #16
     8c4:	00007802 	andeq	r7, r0, r2, lsl #16
     8c8:	5c190000 	ldcpl	0, cr0, [r9], {-0}
     8cc:	40000082 	andmi	r0, r0, r2, lsl #1
     8d0:	ca000000 	bgt	8d8 <__code_start__-0x7728>
     8d4:	1a000005 	bne	8f0 <__code_start__-0x7710>
     8d8:	27020069 	strcs	r0, [r2, -r9, rrx]
     8dc:	00002c13 	andeq	r2, r0, r3, lsl ip
     8e0:	00044300 	andeq	r4, r4, r0, lsl #6
     8e4:	00044100 	andeq	r4, r4, r0, lsl #2
     8e8:	7b1b0000 	blvc	6c08f0 <__bss_end__+0x6b6c60>
     8ec:	2c00000b 	stccs	0, cr0, [r0], {11}
     8f0:	02000082 	andeq	r0, r0, #130, 0	; 0x82
     8f4:	00000190 	muleq	r0, r0, r1
     8f8:	1c052502 	cfstr32ne	mvfx2, [r5], {2}
     8fc:	00000b88 	andeq	r0, r0, r8, lsl #23
     900:	0000045d 	andeq	r0, r0, sp, asr r4
     904:	00000457 	andeq	r0, r0, r7, asr r4
     908:	000b951b 	andeq	r9, fp, fp, lsl r5
     90c:	00822c00 	addeq	r2, r2, r0, lsl #24
     910:	01980400 	orrseq	r0, r8, r0, lsl #8
     914:	cf010000 	svcgt	0x00010000
     918:	0ba21c05 	bleq	fe887934 <__bss_end__+0xfe87dca4>
     91c:	049a0000 	ldreq	r0, [sl], #0
     920:	04940000 	ldreq	r0, [r4], #0
     924:	171b0000 	ldrne	r0, [fp, -r0]
     928:	2c00000c 	stccs	0, cr0, [r0], {12}
     92c:	06000082 	streq	r0, [r0], -r2, lsl #1
     930:	000001a0 	andeq	r0, r0, r0, lsr #3
     934:	1c05c601 	stcne	6, cr12, [r5], {1}
     938:	00000c30 	andeq	r0, r0, r0, lsr ip
     93c:	000004d3 	ldrdeq	r0, [r0], -r3
     940:	000004d1 	ldrdeq	r0, [r0], -r1
     944:	000c241c 	andeq	r2, ip, ip, lsl r4
     948:	0004ef00 	andeq	lr, r4, r0, lsl #30
     94c:	0004e900 	andeq	lr, r4, r0, lsl #18
     950:	01a02200 	lsleq	r2, r0, #4
     954:	3c230000 	stccc	0, cr0, [r3], #-0
     958:	2800000c 	stmdacs	r0, {r2, r3}
     95c:	26000005 	strcs	r0, [r0], -r5
     960:	24000005 	strcs	r0, [r0], #-5
     964:	00000c48 	andeq	r0, r0, r8, asr #24
     968:	0000822c 	andeq	r8, r0, ip, lsr #4
     96c:	00000004 	andeq	r0, r0, r4
     970:	00000662 	andeq	r0, r0, r2, ror #12
     974:	000c4923 	andeq	r4, ip, r3, lsr #18
     978:	00053f00 	andeq	r3, r5, r0, lsl #30
     97c:	00053b00 	andeq	r3, r5, r0, lsl #22
     980:	d5250000 	strle	r0, [r5, #-0]!
     984:	3400000c 	strcc	r0, [r0], #-12
     988:	01000082 	smlabbeq	r0, r2, r0, r0
     98c:	000001b8 			; <UNDEFINED> instruction: 0x000001b8
     990:	8505af01 	strhi	sl, [r5, #-3841]	; 0xfffff0ff
     994:	1c000006 	stcne	0, cr0, [r0], {6}
     998:	00000ce2 	andeq	r0, r0, r2, ror #25
     99c:	00000565 	andeq	r0, r0, r5, ror #10
     9a0:	0000055f 	andeq	r0, r0, pc, asr r5
     9a4:	0c972600 	ldceq	6, cr2, [r7], {0}
     9a8:	82480000 	subhi	r0, r8, #0, 0
     9ac:	00140000 	andseq	r0, r4, r0
     9b0:	b0010000 	andlt	r0, r1, r0
     9b4:	0cb02705 	ldceq	7, cr2, [r0], #20
     9b8:	a4270000 	strtge	r0, [r7], #-0
     9bc:	2300000c 	movwcs	r0, #12
     9c0:	00000cbc 			; <UNDEFINED> instruction: 0x00000cbc
     9c4:	0000059e 	muleq	r0, lr, r5
     9c8:	0000059c 	muleq	r0, ip, r5
     9cc:	000cc628 	andeq	ip, ip, r8, lsr #12
     9d0:	00824c00 	addeq	r4, r2, r0, lsl #24
     9d4:	00000400 	andeq	r0, r0, r0, lsl #8
     9d8:	0cc72300 	stcleq	3, cr2, [r7], {0}
     9dc:	05b30000 	ldreq	r0, [r3, #0]!
     9e0:	05b10000 	ldreq	r0, [r1, #0]!
	...
     9ec:	02f22900 	rscseq	r2, r2, #0, 18
     9f0:	f0010000 			; <UNDEFINED> instruction: 0xf0010000
     9f4:	07050314 	smladeq	r5, r4, r3, r0
     9f8:	702a0000 	eorvc	r0, sl, r0
     9fc:	01006e69 	tsteq	r0, r9, ror #28
     a00:	002c2bf0 	strdeq	r2, [ip], -r0	; <UNPREDICTABLE>
     a04:	722a0000 	eorvc	r0, sl, #0, 0
     a08:	38f00100 	ldmcc	r0!, {r8}^
     a0c:	00000054 	andeq	r0, r0, r4, asr r0
     a10:	0100672a 	tsteq	r0, sl, lsr #14
     a14:	005443f0 	ldrsheq	r4, [r4], #-48	; 0xffffffd0
     a18:	622a0000 	eorvs	r0, sl, #0, 0
     a1c:	4ef00100 	cdpmi	1, 15, cr0, cr0, cr0, {0}
     a20:	00000054 	andeq	r0, r0, r4, asr r0
     a24:	02742b00 	rsbseq	r2, r4, #0, 22
     a28:	e3010000 	movw	r0, #4096	; 0x1000
     a2c:	0081180d 	addeq	r1, r1, sp, lsl #16
     a30:	0000b400 	andeq	fp, r0, r0, lsl #8
     a34:	399c0100 	ldmibcc	ip, {r8}
     a38:	1500000b 	strne	r0, [r0, #-11]
     a3c:	006e6970 	rsbeq	r6, lr, r0, ror r9
     a40:	2c23e301 	stccs	3, cr14, [r3], #-4
     a44:	ca000000 	bgt	a4c <__code_start__-0x75b4>
     a48:	c6000005 	strgt	r0, [r0], -r5
     a4c:	16000005 	strne	r0, [r0], -r5
     a50:	e3010062 	movw	r0, #4194	; 0x1062
     a54:	00005430 	andeq	r5, r0, r0, lsr r4
     a58:	22510100 	subscs	r0, r1, #0
     a5c:	00000018 	andeq	r0, r0, r8, lsl r0
     a60:	01006a1a 	tsteq	r0, sl, lsl sl
     a64:	002c13e4 	eoreq	r1, ip, r4, ror #7
     a68:	05f30000 	ldrbeq	r0, [r3, #0]!
     a6c:	05eb0000 	strbeq	r0, [fp, #0]!
     a70:	48220000 	stmdami	r2!, {}	; <UNPREDICTABLE>
     a74:	1a000000 	bne	a7c <__code_start__-0x7584>
     a78:	e6010069 	str	r0, [r1], -r9, rrx
     a7c:	00002c12 	andeq	r2, r0, r2, lsl ip
     a80:	00063a00 	andeq	r3, r6, r0, lsl #20
     a84:	00063400 	andeq	r3, r6, r0, lsl #8
     a88:	0b391b00 	bleq	e47690 <__bss_end__+0xe3da00>
     a8c:	816c0000 	cmnhi	ip, r0
     a90:	80020000 	andhi	r0, r2, r0
     a94:	01000000 	mrseq	r0, (UNDEF: 0)
     a98:	521c09ea 	andspl	r0, ip, #3833856	; 0x3a8000
     a9c:	6900000b 	stmdbvs	r0, {r0, r1, r3}
     aa0:	65000006 	strvs	r0, [r0, #-6]
     aa4:	1c000006 	stcne	0, cr0, [r0], {6}
     aa8:	00000b46 	andeq	r0, r0, r6, asr #22
     aac:	0000069f 	muleq	r0, pc, r6	; <UNPREDICTABLE>
     ab0:	0000069b 	muleq	r0, fp, r6
     ab4:	00008022 	andeq	r8, r0, r2, lsr #32
     ab8:	0bfd2500 	bleq	fff49ec0 <__bss_end__+0xfff40230>
     abc:	81880000 	orrhi	r0, r8, r0
     ac0:	c0020000 	andgt	r0, r2, r0
     ac4:	01000000 	mrseq	r0, (UNDEF: 0)
     ac8:	088209d9 	stmeq	r2, {r0, r3, r4, r6, r7, r8, fp}
     acc:	0a1c0000 	beq	700ad4 <__bss_end__+0x6f6e44>
     ad0:	c500000c 	strgt	r0, [r0, #-12]
     ad4:	c3000006 	movwgt	r0, #6
     ad8:	1b000006 	blne	af8 <__code_start__-0x7508>
     adc:	00000c57 	andeq	r0, r0, r7, asr ip
     ae0:	00008188 	andeq	r8, r0, r8, lsl #3
     ae4:	0000e004 	andeq	lr, r0, r4
     ae8:	05b50100 	ldreq	r0, [r5, #256]!	; 0x100
     aec:	000c701c 	andeq	r7, ip, ip, lsl r0
     af0:	0006dd00 	andeq	sp, r6, r0, lsl #26
     af4:	0006db00 	andeq	sp, r6, r0, lsl #22
     af8:	0c641c00 	stcleq	12, cr1, [r4], #-0
     afc:	06f50000 	ldrbteq	r0, [r5], r0
     b00:	06f30000 	ldrbteq	r0, [r3], r0
     b04:	e0220000 	eor	r0, r2, r0
     b08:	23000000 	movwcs	r0, #0
     b0c:	00000c7c 	andeq	r0, r0, ip, ror ip
     b10:	0000070d 	andeq	r0, r0, sp, lsl #14
     b14:	0000070b 	andeq	r0, r0, fp, lsl #14
     b18:	000cef25 	andeq	lr, ip, r5, lsr #30
     b1c:	00819000 	addeq	r9, r1, r0
     b20:	00f80100 	rscseq	r0, r8, r0, lsl #2
     b24:	a6010000 	strge	r0, [r1], -r0
     b28:	00081b05 	andeq	r1, r8, r5, lsl #22
     b2c:	0cfc1c00 	ldcleq	12, cr1, [ip]
     b30:	07220000 	streq	r0, [r2, -r0]!
     b34:	07200000 	streq	r0, [r0, -r0]!
     b38:	2c000000 	stccs	0, cr0, [r0], {-0}
     b3c:	00000c97 	muleq	r0, r7, ip
     b40:	00000110 	andeq	r0, r0, r0, lsl r1
     b44:	6405a701 	strvs	sl, [r5], #-1793	; 0xfffff8ff
     b48:	27000008 	strcs	r0, [r0, -r8]
     b4c:	00000cb0 			; <UNDEFINED> instruction: 0x00000cb0
     b50:	000ca427 	andeq	sl, ip, r7, lsr #8
     b54:	01102200 	tsteq	r0, r0, lsl #4
     b58:	bc230000 	stclt	0, cr0, [r3], #-0
     b5c:	3a00000c 	bcc	b94 <__code_start__-0x746c>
     b60:	38000007 	stmdacc	r0, {r0, r1, r2}
     b64:	28000007 	stmdacs	r0, {r0, r1, r2}
     b68:	00000cc6 	andeq	r0, r0, r6, asr #25
     b6c:	00008194 	muleq	r0, r4, r1
     b70:	00000004 	andeq	r0, r0, r4
     b74:	000cc723 	andeq	ip, ip, r3, lsr #14
     b78:	00074f00 	andeq	r4, r7, r0, lsl #30
     b7c:	00074d00 	andeq	r4, r7, r0, lsl #26
     b80:	00000000 	andeq	r0, r0, r0
     b84:	000c8828 	andeq	r8, ip, r8, lsr #16
     b88:	00818800 	addeq	r8, r1, r0, lsl #16
     b8c:	00000400 	andeq	r0, r0, r0, lsl #8
     b90:	0c892300 	stceq	3, cr2, [r9], {0}
     b94:	07660000 	strbeq	r0, [r6, -r0]!
     b98:	07620000 	strbeq	r0, [r2, -r0]!
     b9c:	00000000 	andeq	r0, r0, r0
     ba0:	e3250000 			; <UNDEFINED> instruction: 0xe3250000
     ba4:	7800000b 	stmdavc	r0, {r0, r1, r3}
     ba8:	01000081 	smlabbeq	r0, r1, r0, r0
     bac:	00000128 	andeq	r0, r0, r8, lsr #2
     bb0:	6d09d601 	stcvs	6, cr13, [r9, #-4]
     bb4:	1c000009 	stcne	0, cr0, [r0], {9}
     bb8:	00000bf0 	strdeq	r0, [r0], -r0	; <UNPREDICTABLE>
     bbc:	0000078a 	andeq	r0, r0, sl, lsl #15
     bc0:	00000786 	andeq	r0, r0, r6, lsl #15
     bc4:	000c571b 	andeq	r5, ip, fp, lsl r7
     bc8:	00817800 	addeq	r7, r1, r0, lsl #16
     bcc:	01480300 	mrseq	r0, (UNDEF: 120)
     bd0:	ba010000 	blt	40bd8 <__bss_end__+0x36f48>
     bd4:	0c701c05 	ldcleq	12, cr1, [r0], #-20	; 0xffffffec
     bd8:	07b20000 	ldreq	r0, [r2, r0]!
     bdc:	07ae0000 	streq	r0, [lr, r0]!
     be0:	641c0000 	ldrvs	r0, [ip], #-0
     be4:	d800000c 	stmdale	r0, {r2, r3}
     be8:	d4000007 	strle	r0, [r0], #-7
     bec:	22000007 	andcs	r0, r0, #7, 0
     bf0:	00000148 	andeq	r0, r0, r8, asr #2
     bf4:	000c7c23 	andeq	r7, ip, r3, lsr #24
     bf8:	00080000 	andeq	r0, r8, r0
     bfc:	0007fc00 	andeq	pc, r7, r0, lsl #24
     c00:	0c972d00 	ldceq	13, cr2, [r7], {0}
     c04:	81340000 	teqhi	r4, r0
     c08:	00100000 	andseq	r0, r0, r0
     c0c:	a7010000 	strge	r0, [r1, -r0]
     c10:	00092805 	andeq	r2, r9, r5, lsl #16
     c14:	0cb02700 	ldceq	7, cr2, [r0]
     c18:	a4270000 	strtge	r0, [r7], #-0
     c1c:	2300000c 	movwcs	r0, #12
     c20:	00000cbc 			; <UNDEFINED> instruction: 0x00000cbc
     c24:	00000820 	andeq	r0, r0, r0, lsr #16
     c28:	0000081e 	andeq	r0, r0, lr, lsl r8
     c2c:	000cc628 	andeq	ip, ip, r8, lsr #12
     c30:	00813400 	addeq	r3, r1, r0, lsl #8
     c34:	00000400 	andeq	r0, r0, r0, lsl #8
     c38:	0cc72300 	stcleq	3, cr2, [r7], {0}
     c3c:	08350000 	ldmdaeq	r5!, {}	; <UNPREDICTABLE>
     c40:	08330000 	ldmdaeq	r3!, {}	; <UNPREDICTABLE>
     c44:	00000000 	andeq	r0, r0, r0
     c48:	000c8824 	andeq	r8, ip, r4, lsr #16
     c4c:	00817800 	addeq	r7, r1, r0, lsl #16
     c50:	00000400 	andeq	r0, r0, r0, lsl #8
     c54:	00094700 	andeq	r4, r9, r0, lsl #14
     c58:	0c892300 	stceq	3, cr2, [r9], {0}
     c5c:	084e0000 	stmdaeq	lr, {}^	; <UNPREDICTABLE>
     c60:	08480000 	stmdaeq	r8, {}^	; <UNPREDICTABLE>
     c64:	1e000000 	cdpne	0, 0, cr0, cr0, cr0, {0}
     c68:	00000cef 	andeq	r0, r0, pc, ror #25
     c6c:	00008180 	andeq	r8, r0, r0, lsl #3
     c70:	00818001 	addeq	r8, r1, r1
     c74:	00000800 	andeq	r0, r0, r0, lsl #16
     c78:	05a60100 	streq	r0, [r6, #256]!	; 0x100
     c7c:	000cfc1c 	andeq	pc, ip, ip, lsl ip	; <UNPREDICTABLE>
     c80:	00087d00 	andeq	r7, r8, r0, lsl #26
     c84:	00087b00 	andeq	r7, r8, r0, lsl #22
     c88:	00000000 	andeq	r0, r0, r0
     c8c:	0baf2500 	bleq	febca094 <__bss_end__+0xfebc0404>
     c90:	81440000 	mrshi	r0, (UNDEF: 68)
     c94:	60020000 	andvs	r0, r2, r0
     c98:	01000001 	tsteq	r0, r1
     c9c:	0a5609d7 	beq	1583400 <__bss_end__+0x1579770>
     ca0:	bc1c0000 	ldclt	0, cr0, [ip], {-0}
     ca4:	9500000b 	strls	r0, [r0, #-11]
     ca8:	93000008 	movwls	r0, #8
     cac:	1e000008 	cdpne	0, 0, cr0, cr0, cr8, {0}
     cb0:	00000c17 	andeq	r0, r0, r7, lsl ip
     cb4:	00008144 	andeq	r8, r0, r4, asr #2
     cb8:	00814404 	addeq	r4, r1, r4, lsl #8
     cbc:	00001c00 	andeq	r1, r0, r0, lsl #24
     cc0:	05c20100 	strbeq	r0, [r2, #256]	; 0x100
     cc4:	000c301c 	andeq	r3, ip, ip, lsl r0
     cc8:	0008ad00 	andeq	sl, r8, r0, lsl #26
     ccc:	0008ab00 	andeq	sl, r8, r0, lsl #22
     cd0:	0c241c00 	stceq	12, cr1, [r4], #-0
     cd4:	08c50000 	stmiaeq	r5, {}^	; <UNPREDICTABLE>
     cd8:	08c30000 	stmiaeq	r3, {}^	; <UNPREDICTABLE>
     cdc:	3c230000 	stccc	0, cr0, [r3], #-0
     ce0:	dd00000c 	stcle	0, cr0, [r0, #-48]	; 0xffffffd0
     ce4:	db000008 	blle	d0c <__code_start__-0x72f4>
     ce8:	24000008 	strcs	r0, [r0], #-8
     cec:	00000c48 	andeq	r0, r0, r8, asr #24
     cf0:	00008144 	andeq	r8, r0, r4, asr #2
     cf4:	00000004 	andeq	r0, r0, r4
     cf8:	000009ea 	andeq	r0, r0, sl, ror #19
     cfc:	000c4923 	andeq	r4, ip, r3, lsr #18
     d00:	0008f400 	andeq	pc, r8, r0, lsl #8
     d04:	0008f000 	andeq	pc, r8, r0
     d08:	d52e0000 	strle	r0, [lr, #-0]!
     d0c:	4c00000c 	stcmi	0, cr0, [r0], {12}
     d10:	01000081 	smlabbeq	r0, r1, r0, r0
     d14:	0000814c 	andeq	r8, r0, ip, asr #2
     d18:	00000004 	andeq	r0, r0, r4
     d1c:	1105af01 	tstne	r5, r1, lsl #30
     d20:	1c00000a 	stcne	0, cr0, [r0], {10}
     d24:	00000ce2 	andeq	r0, r0, r2, ror #25
     d28:	00000916 	andeq	r0, r0, r6, lsl r9
     d2c:	00000914 	andeq	r0, r0, r4, lsl r9
     d30:	0c972600 	ldceq	6, cr2, [r7], {0}
     d34:	81500000 	cmphi	r0, r0
     d38:	00100000 	andseq	r0, r0, r0
     d3c:	b0010000 	andlt	r0, r1, r0
     d40:	0cb02705 	ldceq	7, cr2, [r0], #20
     d44:	a4270000 	strtge	r0, [r7], #-0
     d48:	2300000c 	movwcs	r0, #12
     d4c:	00000cbc 			; <UNDEFINED> instruction: 0x00000cbc
     d50:	0000092e 	andeq	r0, r0, lr, lsr #18
     d54:	0000092c 	andeq	r0, r0, ip, lsr #18
     d58:	000cc628 	andeq	ip, ip, r8, lsr #12
     d5c:	00815000 	addeq	r5, r1, r0
     d60:	00000400 	andeq	r0, r0, r0, lsl #8
     d64:	0cc72300 	stcleq	3, cr2, [r7], {0}
     d68:	09430000 	stmdbeq	r3, {}^	; <UNPREDICTABLE>
     d6c:	09410000 	stmdbeq	r1, {}^	; <UNPREDICTABLE>
     d70:	00000000 	andeq	r0, r0, r0
     d74:	c91b0000 	ldmdbgt	fp, {}	; <UNPREDICTABLE>
     d78:	a400000b 	strge	r0, [r0], #-11
     d7c:	02000081 	andeq	r0, r0, #129, 0	; 0x81
     d80:	00000178 	andeq	r0, r0, r8, ror r1
     d84:	1c09da01 			; <UNDEFINED> instruction: 0x1c09da01
     d88:	00000bd6 	ldrdeq	r0, [r0], -r6
     d8c:	00000958 	andeq	r0, r0, r8, asr r9
     d90:	00000956 	andeq	r0, r0, r6, asr r9
     d94:	000c171e 	andeq	r1, ip, lr, lsl r7
     d98:	0081a400 	addeq	sl, r1, r0, lsl #8
     d9c:	81a40400 			; <UNDEFINED> instruction: 0x81a40400
     da0:	00280000 	eoreq	r0, r8, r0
     da4:	be010000 	cdplt	0, 0, cr0, cr1, cr0, {0}
     da8:	0c302f05 	ldceq	15, cr2, [r0], #-20	; 0xffffffec
     dac:	1ce50000 	stclne	0, cr0, [r5]
     db0:	00000c24 	andeq	r0, r0, r4, lsr #24
     db4:	00000970 	andeq	r0, r0, r0, ror r9
     db8:	0000096e 	andeq	r0, r0, lr, ror #18
     dbc:	000c3c23 	andeq	r3, ip, r3, lsr #24
     dc0:	00098800 	andeq	r8, r9, r0, lsl #16
     dc4:	00098600 	andeq	r8, r9, r0, lsl #12
     dc8:	0c482400 	cfstrdeq	mvd2, [r8], {-0}
     dcc:	81a40000 			; <UNDEFINED> instruction: 0x81a40000
     dd0:	00040000 	andeq	r0, r4, r0
     dd4:	0ac80000 	beq	ff200ddc <__bss_end__+0xff1f714c>
     dd8:	49230000 	stmdbmi	r3!, {}	; <UNPREDICTABLE>
     ddc:	9f00000c 	svcls	0x0000000c
     de0:	9b000009 	blls	e0c <__code_start__-0x71f4>
     de4:	00000009 	andeq	r0, r0, r9
     de8:	000cd52e 	andeq	sp, ip, lr, lsr #10
     dec:	0081ac00 	addeq	sl, r1, r0, lsl #24
     df0:	81ac0100 			; <UNDEFINED> instruction: 0x81ac0100
     df4:	00040000 	andeq	r0, r4, r0
     df8:	af010000 	svcge	0x00010000
     dfc:	000aef05 	andeq	lr, sl, r5, lsl #30
     e00:	0ce21c00 	stcleq	12, cr1, [r2]
     e04:	09c10000 	stmibeq	r1, {}^	; <UNPREDICTABLE>
     e08:	09bf0000 	ldmibeq	pc!, {}	; <UNPREDICTABLE>
     e0c:	26000000 	strcs	r0, [r0], -r0
     e10:	00000c97 	muleq	r0, r7, ip
     e14:	000081b0 			; <UNDEFINED> instruction: 0x000081b0
     e18:	0000001c 	andeq	r0, r0, ip, lsl r0
     e1c:	2705b001 	strcs	fp, [r5, -r1]
     e20:	00000cb0 			; <UNDEFINED> instruction: 0x00000cb0
     e24:	000ca427 	andeq	sl, ip, r7, lsr #8
     e28:	0cbc2300 	ldceq	3, cr2, [ip]
     e2c:	09d90000 	ldmibeq	r9, {}^	; <UNPREDICTABLE>
     e30:	09d70000 	ldmibeq	r7, {}^	; <UNPREDICTABLE>
     e34:	c6280000 	strtgt	r0, [r8], -r0
     e38:	b000000c 	andlt	r0, r0, ip
     e3c:	04000081 	streq	r0, [r0], #-129	; 0xffffff7f
     e40:	23000000 	movwcs	r0, #0
     e44:	00000cc7 	andeq	r0, r0, r7, asr #25
     e48:	000009ee 	andeq	r0, r0, lr, ror #19
     e4c:	000009ec 	andeq	r0, r0, ip, ror #19
	...
     e58:	02402900 	subeq	r2, r0, #0, 18
     e5c:	d3010000 	movwle	r0, #4096	; 0x1000
     e60:	0b660314 	bleq	1981ab8 <__bss_end__+0x1977e28>
     e64:	702a0000 	eorvc	r0, sl, r0
     e68:	01006e69 	tsteq	r0, r9, ror #28
     e6c:	002c29d3 	ldrdeq	r2, [ip], -r3	; <UNPREDICTABLE>
     e70:	622a0000 	eorvs	r0, sl, #0, 0
     e74:	36d30100 	ldrbcc	r0, [r3], r0, lsl #2
     e78:	00000054 	andeq	r0, r0, r4, asr r0
     e7c:	00026130 	andeq	r6, r2, r0, lsr r1
     e80:	000b7600 	andeq	r7, fp, r0, lsl #12
     e84:	c5120000 	ldrgt	r0, [r2, #-0]
     e88:	76000000 	strvc	r0, [r0], -r0
     e8c:	3100000b 	tstcc	r0, fp
     e90:	0000002c 	andeq	r0, r0, ip, lsr #32
     e94:	6604000b 	strvs	r0, [r4], -fp
     e98:	2900000b 	stmdbcs	r0, {r0, r1, r3}
     e9c:	00000083 	andeq	r0, r0, r3, lsl #1
     ea0:	0314ce01 	tsteq	r4, #1, 28
     ea4:	00000b95 	muleq	r0, r5, fp
     ea8:	6e69702a 	cdpvs	0, 6, cr7, cr9, cr10, {1}
     eac:	27ce0100 	strbcs	r0, [lr, r0, lsl #2]
     eb0:	0000002c 	andeq	r0, r0, ip, lsr #32
     eb4:	022c2900 	eoreq	r2, ip, #0, 18
     eb8:	c5010000 	strgt	r0, [r1, #-0]
     ebc:	0baf0314 	bleq	febc1b14 <__bss_end__+0xfebb7e84>
     ec0:	702a0000 	eorvc	r0, sl, r0
     ec4:	01006e69 	tsteq	r0, r9, ror #28
     ec8:	002c24c5 	eoreq	r2, ip, r5, asr #9
     ecc:	32000000 	andcc	r0, r0, #0, 0
     ed0:	006c3074 	rsbeq	r3, ip, r4, ror r0
     ed4:	0314c101 	tsteq	r4, #1073741824	; 0x40000000
     ed8:	00000bc9 	andeq	r0, r0, r9, asr #23
     edc:	6e69702a 	cdpvs	0, 6, cr7, cr9, cr10, {1}
     ee0:	21c10100 	biccs	r0, r1, r0, lsl #2
     ee4:	0000002c 	andeq	r0, r0, ip, lsr #32
     ee8:	31743200 	cmncc	r4, r0, lsl #4
     eec:	bd01006c 	stclt	0, cr0, [r1, #-432]	; 0xfffffe50
     ef0:	0be30314 	bleq	ff8c1b48 <__bss_end__+0xff8b7eb8>
     ef4:	702a0000 	eorvc	r0, sl, r0
     ef8:	01006e69 	tsteq	r0, r9, ror #28
     efc:	002c21bd 	strhteq	r2, [ip], -sp
     f00:	32000000 	andcc	r0, r0, #0, 0
     f04:	00683074 	rsbeq	r3, r8, r4, ror r0
     f08:	0314b901 	tsteq	r4, #16384	; 0x4000
     f0c:	00000bfd 	strdeq	r0, [r0], -sp
     f10:	6e69702a 	cdpvs	0, 6, cr7, cr9, cr10, {1}
     f14:	21b90100 			; <UNDEFINED> instruction: 0x21b90100
     f18:	0000002c 	andeq	r0, r0, ip, lsr #32
     f1c:	31743200 	cmncc	r4, r0, lsl #4
     f20:	b4010068 	strlt	r0, [r1], #-104	; 0xffffff98
     f24:	0c170314 	ldceq	3, cr0, [r7], {20}
     f28:	702a0000 	eorvc	r0, sl, r0
     f2c:	01006e69 	tsteq	r0, r9, ror #28
     f30:	002c21b4 	strhteq	r2, [ip], -r4
     f34:	29000000 	stmdbcs	r0, {}	; <UNPREDICTABLE>
     f38:	0000020d 	andeq	r0, r0, sp, lsl #4
     f3c:	0314ac01 	tsteq	r4, #256	; 0x100
     f40:	00000c57 	andeq	r0, r0, r7, asr ip
     f44:	6e69702a 	cdpvs	0, 6, cr7, cr9, cr10, {1}
     f48:	25ac0100 	strcs	r0, [ip, #256]!	; 0x100
     f4c:	0000002c 	andeq	r0, r0, ip, lsr #32
     f50:	00025233 	andeq	r5, r2, r3, lsr r2
     f54:	33ac0100 			; <UNDEFINED> instruction: 0x33ac0100
     f58:	0000002c 	andeq	r0, r0, ip, lsr #32
     f5c:	00028134 	andeq	r8, r2, r4, lsr r1
     f60:	0eae0100 	fdveqe	f0, f6, f0
     f64:	0000002c 	andeq	r0, r0, ip, lsr #32
     f68:	02273435 	eoreq	r3, r7, #889192448	; 0x35000000
     f6c:	ae010000 	cdpge	0, 0, cr0, cr1, cr0, {0}
     f70:	00002c1a 	andeq	r2, r0, sl, lsl ip
     f74:	29000000 	stmdbcs	r0, {}	; <UNPREDICTABLE>
     f78:	00000215 	andeq	r0, r0, r5, lsl r2
     f7c:	0314a201 	tsteq	r4, #268435456	; 0x10000000
     f80:	00000c97 	muleq	r0, r7, ip
     f84:	6e69702a 	cdpvs	0, 6, cr7, cr9, cr10, {1}
     f88:	25a20100 	strcs	r0, [r2, #256]!	; 0x100
     f8c:	0000002c 	andeq	r0, r0, ip, lsr #32
     f90:	00025233 	andeq	r5, r2, r3, lsr r2
     f94:	33a20100 			; <UNDEFINED> instruction: 0x33a20100
     f98:	0000002c 	andeq	r0, r0, ip, lsr #32
     f9c:	00028134 	andeq	r8, r2, r4, lsr r1
     fa0:	0ea40100 	fdveqs	f0, f4, f0
     fa4:	0000002c 	andeq	r0, r0, ip, lsr #32
     fa8:	02273435 	eoreq	r3, r7, #889192448	; 0x35000000
     fac:	a4010000 	strge	r0, [r1], #-0
     fb0:	00002c1a 	andeq	r2, r0, sl, lsl ip
     fb4:	29000000 	stmdbcs	r0, {}	; <UNPREDICTABLE>
     fb8:	0000024c 	andeq	r0, r0, ip, asr #4
     fbc:	03148801 	tsteq	r4, #65536	; 0x10000
     fc0:	00000cd5 	ldrdeq	r0, [r0], -r5
     fc4:	00028133 	andeq	r8, r2, r3, lsr r1
     fc8:	2b880100 	blcs	fe2013d0 <__bss_end__+0xfe1f7740>
     fcc:	0000002c 	andeq	r0, r0, ip, lsr #32
     fd0:	00026e33 	andeq	r6, r2, r3, lsr lr
     fd4:	3f880100 	svccc	0x00880100
     fd8:	0000002c 	andeq	r0, r0, ip, lsr #32
     fdc:	01006336 	tsteq	r0, r6, lsr r3
     fe0:	002c0e89 	eoreq	r0, ip, r9, lsl #29
     fe4:	34350000 	ldrtcc	r0, [r5], #-0
     fe8:	00000227 	andeq	r0, r0, r7, lsr #4
     fec:	2c128a01 			; <UNDEFINED> instruction: 0x2c128a01
     ff0:	00000000 	andeq	r0, r0, r0
     ff4:	02d82900 	sbcseq	r2, r8, #0, 18
     ff8:	82010000 	andhi	r0, r1, #0, 0
     ffc:	0cef0314 	stcleq	3, cr0, [pc], #80	; 1054 <__code_start__-0x6fac>
    1000:	702a0000 	eorvc	r0, sl, r0
    1004:	01006e69 	tsteq	r0, r9, ror #28
    1008:	002c2e82 	eoreq	r2, ip, r2, lsl #29
    100c:	29000000 	stmdbcs	r0, {}	; <UNPREDICTABLE>
    1010:	000002b8 			; <UNDEFINED> instruction: 0x000002b8
    1014:	03147e01 	tsteq	r4, #1, 28
    1018:	00000d09 	andeq	r0, r0, r9, lsl #26
    101c:	6e69702a 	cdpvs	0, 6, cr7, cr9, cr10, {1}
    1020:	2d7e0100 	ldfcse	f0, [lr, #-0]
    1024:	0000002c 	andeq	r0, r0, ip, lsr #32
    1028:	02d03700 	sbcseq	r3, r0, #0, 14
    102c:	02d00000 	sbcseq	r0, r0, #0, 0
    1030:	7c040000 	stcvc	0, cr0, [r4], {-0}
    1034:	025a3707 	subseq	r3, sl, #1835008	; 0x1c0000
    1038:	025a0000 	subseq	r0, sl, #0, 0
    103c:	f7040000 			; <UNDEFINED> instruction: 0xf7040000
    1040:	008d3707 	addeq	r3, sp, r7, lsl #14
    1044:	008d0000 	addeq	r0, sp, r0
    1048:	1d060000 	stcne	0, cr0, [r6, #-0]
    104c:	013a0006 	teqeq	sl, r6
    1050:	00040000 	andeq	r0, r4, r0
    1054:	00000474 	andeq	r0, r0, r4, ror r4
    1058:	03000104 	movweq	r0, #260	; 0x104
    105c:	180c0000 	stmdane	ip, {}	; <UNPREDICTABLE>
    1060:	d1000004 	tstle	r0, r4
    1064:	a8000003 	stmdage	r0, {r0, r1}
    1068:	18000083 	stmdane	r0, {r0, r1, r7}
    106c:	38000000 	stmdacc	r0, {}	; <UNPREDICTABLE>
    1070:	02000006 	andeq	r0, r0, #6, 0
    1074:	6e690504 	cdpvs	5, 6, cr0, cr9, cr4, {0}
    1078:	ca030074 	bgt	c1250 <__bss_end__+0xb75c0>
    107c:	03000003 	movweq	r0, #3
    1080:	003817d1 	ldrsbteq	r1, [r8], -r1
    1084:	04040000 	streq	r0, [r4], #-0
    1088:	0000b207 	andeq	fp, r0, r7, lsl #4
    108c:	06010400 	streq	r0, [r1], -r0, lsl #8
    1090:	00000058 	andeq	r0, r0, r8, asr r0
    1094:	94050204 	strls	r0, [r5], #-516	; 0xfffffdfc
    1098:	04000001 	streq	r0, [r0], #-1
    109c:	00ca0504 	sbceq	r0, sl, r4, lsl #10
    10a0:	08040000 	stmdaeq	r4, {}	; <UNPREDICTABLE>
    10a4:	0000c505 	andeq	ip, r0, r5, lsl #10
    10a8:	08010400 	stmdaeq	r1, {sl}
    10ac:	00000056 	andeq	r0, r0, r6, asr r0
    10b0:	6d070204 	sfmvs	f0, 4, [r7, #-16]
    10b4:	04000000 	streq	r0, [r0], #-0
    10b8:	00ad0704 	adceq	r0, sp, r4, lsl #14
    10bc:	08040000 	stmdaeq	r4, {}	; <UNPREDICTABLE>
    10c0:	0000a807 	andeq	sl, r0, r7, lsl #16
    10c4:	00250500 	eoreq	r0, r5, r0, lsl #10
    10c8:	00860000 	addeq	r0, r6, r0
    10cc:	25060000 	strcs	r0, [r6, #-0]
    10d0:	00000000 	andeq	r0, r0, r0
    10d4:	0000d307 	andeq	sp, r0, r7, lsl #6
    10d8:	0e1c0200 	cdpeq	2, 1, cr0, cr12, cr0, {0}
    10dc:	00000092 	muleq	r0, r2, r0
    10e0:	00770408 	rsbseq	r0, r7, r8, lsl #8
    10e4:	25050000 	strcs	r0, [r5, #-0]
    10e8:	a7000000 	strge	r0, [r0, -r0]
    10ec:	06000000 	streq	r0, [r0], -r0
    10f0:	000000a7 	andeq	r0, r0, r7, lsr #1
    10f4:	b4040800 	strlt	r0, [r4], #-2048	; 0xfffff800
    10f8:	04000000 	streq	r0, [r0], #-0
    10fc:	005f0801 	subseq	r0, pc, r1, lsl #16
    1100:	ad090000 	stcge	0, cr0, [r9, #-0]
    1104:	07000000 	streq	r0, [r0, -r0]
    1108:	0000046e 	andeq	r0, r0, lr, ror #8
    110c:	c50e2102 	strgt	r2, [lr, #-258]	; 0xfffffefe
    1110:	08000000 	stmdaeq	r0, {}	; <UNPREDICTABLE>
    1114:	00009804 	andeq	r9, r0, r4, lsl #16
    1118:	025a0a00 	subseq	r0, sl, #0, 20
    111c:	04010000 	streq	r0, [r1], #-0
    1120:	00013507 	andeq	r3, r1, r7, lsl #10
    1124:	0083a800 	addeq	sl, r3, r0, lsl #16
    1128:	00001800 	andeq	r1, r0, r0, lsl #16
    112c:	359c0100 	ldrcc	r0, [ip, #256]	; 0x100
    1130:	0b000001 	bleq	113c <__code_start__-0x6ec4>
    1134:	0100705f 	qaddeq	r7, pc, r0	; <UNPREDICTABLE>
    1138:	01351404 	teqeq	r5, r4, lsl #8
    113c:	50010000 	andpl	r0, r1, r0
    1140:	0100630b 	tsteq	r0, fp, lsl #6
    1144:	00251c04 	eoreq	r1, r5, r4, lsl #24
    1148:	51010000 	mrspl	r0, (UNDEF: 1)
    114c:	01006e0c 	tsteq	r0, ip, lsl #28
    1150:	002c2604 	eoreq	r2, ip, r4, lsl #12
    1154:	0a050000 	beq	14115c <__bss_end__+0x1374cc>
    1158:	0a010000 	beq	41160 <__bss_end__+0x374d0>
    115c:	700d0000 	andvc	r0, sp, r0
    1160:	0b050100 	bleq	141568 <__bss_end__+0x1378d8>
    1164:	00000137 	andeq	r0, r0, r7, lsr r1
    1168:	00000a2e 	andeq	r0, r0, lr, lsr #20
    116c:	00000a26 	andeq	r0, r0, r6, lsr #20
    1170:	0100650d 	tsteq	r0, sp, lsl #10
    1174:	01371405 	teqeq	r7, r5, lsl #8
    1178:	0a660000 	beq	1981180 <__bss_end__+0x19774f0>
    117c:	0a640000 	beq	1901184 <__bss_end__+0x18f74f4>
    1180:	0e000000 	cdpeq	0, 0, cr0, cr0, cr0, {0}
    1184:	ad040804 	stcge	8, cr0, [r4, #-16]
    1188:	00000000 	andeq	r0, r0, r0
    118c:	0000019d 	muleq	r0, sp, r1
    1190:	05400004 	strbeq	r0, [r0, #-4]
    1194:	01040000 	mrseq	r0, (UNDEF: 4)
    1198:	00000300 	andeq	r0, r0, r0, lsl #6
    119c:	00044b0c 	andeq	r4, r4, ip, lsl #22
    11a0:	0003d100 	andeq	sp, r3, r0, lsl #2
    11a4:	0083c000 	addeq	ip, r3, r0
    11a8:	00005800 	andeq	r5, r0, r0, lsl #16
    11ac:	00074f00 	andeq	r4, r7, r0, lsl #30
    11b0:	04370200 	ldrteq	r0, [r7], #-512	; 0xfffffe00
    11b4:	28020000 	stmdacs	r2, {}	; <UNPREDICTABLE>
    11b8:	0000311b 	andeq	r3, r0, fp, lsl r1
    11bc:	045b0300 	ldrbeq	r0, [fp], #-768	; 0xfffffd00
    11c0:	04040000 	streq	r0, [r4], #-0
    11c4:	00004800 	andeq	r4, r0, r0, lsl #16
    11c8:	04460400 	strbeq	r0, [r6], #-1024	; 0xfffffc00
    11cc:	00480000 	subeq	r0, r8, r0
    11d0:	00000000 	andeq	r0, r0, r0
    11d4:	5d020405 	cfstrspl	mvf0, [r2, #-20]	; 0xffffffec
    11d8:	02000004 	andeq	r0, r0, #4, 0
    11dc:	00251863 	eoreq	r1, r5, r3, ror #16
    11e0:	04060000 	streq	r0, [r6], #-0
    11e4:	746e6905 	strbtvc	r6, [lr], #-2309	; 0xfffff6fb
    11e8:	07040700 	streq	r0, [r4, -r0, lsl #14]
    11ec:	000000b2 	strheq	r0, [r0], -r2
    11f0:	58060107 	stmdapl	r6, {r0, r1, r2, r8}
    11f4:	07000000 	streq	r0, [r0, -r0]
    11f8:	01940502 	orrseq	r0, r4, r2, lsl #10
    11fc:	04070000 	streq	r0, [r7], #-0
    1200:	0000ca05 	andeq	ip, r0, r5, lsl #20
    1204:	05080700 	streq	r0, [r8, #-1792]	; 0xfffff900
    1208:	000000c5 	andeq	r0, r0, r5, asr #1
    120c:	56080107 	strpl	r0, [r8], -r7, lsl #2
    1210:	07000000 	streq	r0, [r0, -r0]
    1214:	006d0702 	rsbeq	r0, sp, r2, lsl #14
    1218:	04070000 	streq	r0, [r7], #-0
    121c:	0000ad07 	andeq	sl, r0, r7, lsl #26
    1220:	07080700 	streq	r0, [r8, -r0, lsl #14]
    1224:	000000a8 	andeq	r0, r0, r8, lsr #1
    1228:	00005608 	andeq	r5, r0, r8, lsl #12
    122c:	0000ab00 	andeq	sl, r0, r0, lsl #22
    1230:	00560900 	subseq	r0, r6, r0, lsl #18
    1234:	0a000000 	beq	123c <__code_start__-0x6dc4>
    1238:	000000d3 	ldrdeq	r0, [r0], -r3
    123c:	b70e1c03 	strlt	r1, [lr, -r3, lsl #24]
    1240:	0b000000 	bleq	1248 <__code_start__-0x6db8>
    1244:	00009c04 	andeq	r9, r0, r4, lsl #24
    1248:	00560800 	subseq	r0, r6, r0, lsl #16
    124c:	00cc0000 	sbceq	r0, ip, r0
    1250:	cc090000 	stcgt	0, cr0, [r9], {-0}
    1254:	00000000 	andeq	r0, r0, r0
    1258:	00d9040b 	sbcseq	r0, r9, fp, lsl #8
    125c:	01070000 	mrseq	r0, (UNDEF: 7)
    1260:	00005f08 	andeq	r5, r0, r8, lsl #30
    1264:	00d20c00 	sbcseq	r0, r2, r0, lsl #24
    1268:	6e0a0000 	cdpvs	0, 0, cr0, cr10, cr0, {0}
    126c:	03000004 	movweq	r0, #4
    1270:	00ea0e21 	rsceq	r0, sl, r1, lsr #28
    1274:	040b0000 	streq	r0, [fp], #-0
    1278:	000000bd 	strheq	r0, [r0], -sp
    127c:	0004300d 	andeq	r3, r4, sp
    1280:	05060100 	streq	r0, [r6, #-256]	; 0xffffff00
    1284:	00000056 	andeq	r0, r0, r6, asr r0
    1288:	000083c0 	andeq	r8, r0, r0, asr #7
    128c:	00000058 	andeq	r0, r0, r8, asr r0
    1290:	01839c01 	orreq	r9, r3, r1, lsl #24
    1294:	660e0000 	strvs	r0, [lr], -r0
    1298:	0100746d 	tsteq	r0, sp, ror #8
    129c:	00cc1806 	sbceq	r1, ip, r6, lsl #16
    12a0:	91020000 	mrsls	r0, (UNDEF: 2)
    12a4:	62100f70 	andsvs	r0, r0, #112, 30	; 0x1c0
    12a8:	01006675 	tsteq	r0, r5, ror r6
    12ac:	01831108 	orreq	r1, r3, r8, lsl #2
    12b0:	03050000 	movweq	r0, #20480	; 0x5000
    12b4:	0000988c 	andeq	r9, r0, ip, lsl #17
    12b8:	00042811 	andeq	r2, r4, r1, lsl r8
    12bc:	0d090100 	stfeqs	f0, [r9, #-0]
    12c0:	0000004a 	andeq	r0, r0, sl, asr #32
    12c4:	125c9102 	subsne	r9, ip, #-2147483648	; 0x80000000
    12c8:	01007a73 	tsteq	r0, r3, ror sl
    12cc:	00560d0c 	subseq	r0, r6, ip, lsl #26
    12d0:	0a7f0000 	beq	1fc12d8 <__bss_end__+0x1fb7648>
    12d4:	0a790000 	beq	1e412dc <__bss_end__+0x1e3764c>
    12d8:	e8130000 	ldmda	r3, {}	; <UNPREDICTABLE>
    12dc:	94000083 	strls	r0, [r0], #-131	; 0xffffff7d
    12e0:	76000001 	strvc	r0, [r0], -r1
    12e4:	14000001 	strne	r0, [r0], #-1
    12e8:	75025001 	strvc	r5, [r2, #-1]
    12ec:	51011400 	tstpl	r1, r0, lsl #8
    12f0:	04000a03 	streq	r0, [r0], #-2563	; 0xfffff5fd
    12f4:	03520114 	cmpeq	r2, #5
    12f8:	14064891 	strne	r4, [r6], #-2193	; 0xfffff76f
    12fc:	91025301 	tstls	r2, r1, lsl #6
    1300:	fc15004c 	ldc2	0, cr0, [r5], {76}	; 0x4c
    1304:	14000083 	strne	r0, [r0], #-131	; 0xffffff7d
    1308:	75025001 	strvc	r5, [r2, #-1]
    130c:	16000000 	strne	r0, [r0], -r0
    1310:	000000d2 	ldrdeq	r0, [r0], -r2
    1314:	00000194 	muleq	r0, r4, r1
    1318:	00005d17 	andeq	r5, r0, r7, lsl sp
    131c:	0003ff00 	andeq	pc, r3, r0, lsl #30
    1320:	00042d18 	andeq	r2, r4, r8, lsl sp
    1324:	00042d00 	andeq	r2, r4, r0, lsl #26
    1328:	05020500 	streq	r0, [r2, #-1280]	; 0xfffffb00
    132c:	0000f300 	andeq	pc, r0, r0, lsl #6
    1330:	82000400 	andhi	r0, r0, #0, 8
    1334:	04000006 	streq	r0, [r0], #-6
    1338:	00030001 	andeq	r0, r3, r1
    133c:	04730c00 	ldrbteq	r0, [r3], #-3072	; 0xfffff400
    1340:	03d10000 	bicseq	r0, r1, #0, 0
    1344:	84180000 	ldrhi	r0, [r8], #-0
    1348:	00340000 	eorseq	r0, r4, r0
    134c:	08850000 	stmeq	r5, {}	; <UNPREDICTABLE>
    1350:	04020000 	streq	r0, [r2], #-0
    1354:	746e6905 	strbtvc	r6, [lr], #-2309	; 0xfffff6fb
    1358:	07040300 	streq	r0, [r4, -r0, lsl #6]
    135c:	000000b2 	strheq	r0, [r0], -r2
    1360:	58060103 	stmdapl	r6, {r0, r1, r8}
    1364:	03000000 	movweq	r0, #0
    1368:	01940502 	orrseq	r0, r4, r2, lsl #10
    136c:	04030000 	streq	r0, [r3], #-0
    1370:	0000ca05 	andeq	ip, r0, r5, lsl #20
    1374:	05080300 	streq	r0, [r8, #-768]	; 0xfffffd00
    1378:	000000c5 	andeq	r0, r0, r5, asr #1
    137c:	56080103 	strpl	r0, [r8], -r3, lsl #2
    1380:	03000000 	movweq	r0, #0
    1384:	006d0702 	rsbeq	r0, sp, r2, lsl #14
    1388:	04030000 	streq	r0, [r3], #-0
    138c:	0000ad07 	andeq	sl, r0, r7, lsl #26
    1390:	07080300 	streq	r0, [r8, -r0, lsl #6]
    1394:	000000a8 	andeq	r0, r0, r8, lsr #1
    1398:	00002504 	andeq	r2, r0, r4, lsl #10
    139c:	00007a00 	andeq	r7, r0, r0, lsl #20
    13a0:	00250500 	eoreq	r0, r5, r0, lsl #10
    13a4:	06000000 	streq	r0, [r0], -r0
    13a8:	000000d3 	ldrdeq	r0, [r0], -r3
    13ac:	860e1c02 	strhi	r1, [lr], -r2, lsl #24
    13b0:	07000000 	streq	r0, [r0, -r0]
    13b4:	00006b04 	andeq	r6, r0, r4, lsl #22
    13b8:	00250400 	eoreq	r0, r5, r0, lsl #8
    13bc:	009b0000 	addseq	r0, fp, r0
    13c0:	9b050000 	blls	1413c8 <__bss_end__+0x137738>
    13c4:	00000000 	andeq	r0, r0, r0
    13c8:	00a80407 	adceq	r0, r8, r7, lsl #8
    13cc:	01030000 	mrseq	r0, (UNDEF: 3)
    13d0:	00005f08 	andeq	r5, r0, r8, lsl #30
    13d4:	00a10800 	adceq	r0, r1, r0, lsl #16
    13d8:	6e060000 	cdpvs	0, 0, cr0, cr6, cr0, {0}
    13dc:	02000004 	andeq	r0, r0, #4, 0
    13e0:	00b90e21 	adcseq	r0, r9, r1, lsr #28
    13e4:	04070000 	streq	r0, [r7], #-0
    13e8:	0000008c 	andeq	r0, r0, ip, lsl #1
    13ec:	0000ad09 	andeq	sl, r0, r9, lsl #26
    13f0:	070c0100 	streq	r0, [ip, -r0, lsl #2]
    13f4:	98780305 	ldmdals	r8!, {r0, r2, r8, r9}^
    13f8:	650a0000 	strvs	r0, [sl, #-0]
    13fc:	01000004 	tsteq	r0, r4
    1400:	00250504 	eoreq	r0, r5, r4, lsl #10
    1404:	84180000 	ldrhi	r0, [r8], #-0
    1408:	00340000 	eorseq	r0, r4, r0
    140c:	9c010000 	stcls	0, cr0, [r1], {-0}
    1410:	0100700b 	tsteq	r0, fp
    1414:	009b1f04 	addseq	r1, fp, r4, lsl #30
    1418:	0aac0000 	beq	feb01420 <__bss_end__+0xfeaf7790>
    141c:	0aa80000 	beq	fea01424 <__bss_end__+0xfe9f7794>
    1420:	00000000 	andeq	r0, r0, r0
    1424:	00000ad7 	ldrdeq	r0, [r0], -r7
    1428:	07200004 	streq	r0, [r0, -r4]!
    142c:	01040000 	mrseq	r0, (UNDEF: 4)
    1430:	00000300 	andeq	r0, r0, r0, lsl #6
    1434:	0004920c 	andeq	r9, r4, ip, lsl #4
    1438:	0003d100 	andeq	sp, r3, r0, lsl #2
    143c:	00844c00 	addeq	r4, r4, r0, lsl #24
    1440:	00074000 	andeq	r4, r7, r0
    1444:	00095300 	andeq	r5, r9, r0, lsl #6
    1448:	05040200 	streq	r0, [r4, #-512]	; 0xfffffe00
    144c:	00746e69 	rsbseq	r6, r4, r9, ror #28
    1450:	b2070403 	andlt	r0, r7, #50331648	; 0x3000000
    1454:	03000000 	movweq	r0, #0
    1458:	00580601 	subseq	r0, r8, r1, lsl #12
    145c:	02030000 	andeq	r0, r3, #0, 0
    1460:	00019405 	andeq	r9, r1, r5, lsl #8
    1464:	05040300 	streq	r0, [r4, #-768]	; 0xfffffd00
    1468:	000000ca 	andeq	r0, r0, sl, asr #1
    146c:	c5050803 	strgt	r0, [r5, #-2051]	; 0xfffff7fd
    1470:	03000000 	movweq	r0, #0
    1474:	00560801 	subseq	r0, r6, r1, lsl #16
    1478:	02030000 	andeq	r0, r3, #0, 0
    147c:	00006d07 	andeq	r6, r0, r7, lsl #26
    1480:	028b0400 	addeq	r0, fp, #0, 8
    1484:	34020000 	strcc	r0, [r2], #-0
    1488:	00006919 	andeq	r6, r0, r9, lsl r9
    148c:	07040300 	streq	r0, [r4, -r0, lsl #6]
    1490:	000000ad 	andeq	r0, r0, sp, lsr #1
    1494:	00048904 	andeq	r8, r4, r4, lsl #18
    1498:	19370200 	ldmdbne	r7!, {r9}
    149c:	0000007c 	andeq	r0, r0, ip, ror r0
    14a0:	a8070803 	stmdage	r7, {r0, r1, fp}
    14a4:	05000000 	streq	r0, [r0, #-0]
    14a8:	00000025 	andeq	r0, r0, r5, lsr #32
    14ac:	00000092 	muleq	r0, r2, r0
    14b0:	00002506 	andeq	r2, r0, r6, lsl #10
    14b4:	d3070000 	movwle	r0, #28672	; 0x7000
    14b8:	03000000 	movweq	r0, #0
    14bc:	009e0e1c 	addseq	r0, lr, ip, lsl lr
    14c0:	04080000 	streq	r0, [r8], #-0
    14c4:	00000083 	andeq	r0, r0, r3, lsl #1
    14c8:	00002505 	andeq	r2, r0, r5, lsl #10
    14cc:	0000b300 	andeq	fp, r0, r0, lsl #6
    14d0:	00b30600 	adcseq	r0, r3, r0, lsl #12
    14d4:	08000000 	stmdaeq	r0, {}	; <UNPREDICTABLE>
    14d8:	0000c004 	andeq	ip, r0, r4
    14dc:	08010300 	stmdaeq	r1, {r8, r9}
    14e0:	0000005f 	andeq	r0, r0, pc, asr r0
    14e4:	0000b909 	andeq	fp, r0, r9, lsl #18
    14e8:	046e0700 	strbteq	r0, [lr], #-1792	; 0xfffff900
    14ec:	21030000 	mrscs	r0, (UNDEF: 3)
    14f0:	0000d10e 	andeq	sp, r0, lr, lsl #2
    14f4:	a4040800 	strge	r0, [r4], #-2048	; 0xfffff800
    14f8:	07000000 	streq	r0, [r0, -r0]
    14fc:	000004a5 	andeq	r0, r0, r5, lsr #9
    1500:	b90d0b04 	stmdblt	sp, {r2, r8, r9, fp}
    1504:	07000000 	streq	r0, [r0, -r0]
    1508:	00000530 	andeq	r0, r0, r0, lsr r5
    150c:	b90d0c04 	stmdblt	sp, {r2, sl, fp}
    1510:	07000000 	streq	r0, [r0, -r0]
    1514:	000004b4 			; <UNDEFINED> instruction: 0x000004b4
    1518:	b90d0d04 	stmdblt	sp, {r2, r8, sl, fp}
    151c:	07000000 	streq	r0, [r0, -r0]
    1520:	000004ea 	andeq	r0, r0, sl, ror #9
    1524:	b90d0e04 	stmdblt	sp, {r2, r9, sl, fp}
    1528:	07000000 	streq	r0, [r0, -r0]
    152c:	00000560 	andeq	r0, r0, r0, ror #10
    1530:	b90d0f04 	stmdblt	sp, {r2, r8, r9, sl, fp}
    1534:	07000000 	streq	r0, [r0, -r0]
    1538:	000004d5 	ldrdeq	r0, [r0], -r5
    153c:	b90d1004 	stmdblt	sp, {r2, ip}
    1540:	07000000 	streq	r0, [r0, -r0]
    1544:	0000056f 	andeq	r0, r0, pc, ror #10
    1548:	b90d1104 	stmdblt	sp, {r2, r8, ip}
    154c:	07000000 	streq	r0, [r0, -r0]
    1550:	000004f6 	strdeq	r0, [r0], -r6
    1554:	b90d1204 	stmdblt	sp, {r2, r9, ip}
    1558:	04000000 	streq	r0, [r0], #-0
    155c:	00000437 	andeq	r0, r0, r7, lsr r4
    1560:	431b2805 	tstmi	fp, #327680	; 0x50000
    1564:	0a000001 	beq	1570 <__code_start__-0x6a90>
    1568:	0000045b 	andeq	r0, r0, fp, asr r4
    156c:	5a000604 	bpl	2d84 <__code_start__-0x527c>
    1570:	0b000001 	bleq	157c <__code_start__-0x6a84>
    1574:	00000446 	andeq	r0, r0, r6, asr #8
    1578:	0000015a 	andeq	r0, r0, sl, asr r1
    157c:	040c0000 	streq	r0, [ip], #-0
    1580:	00045d04 	andeq	r5, r4, r4, lsl #26
    1584:	18630500 	stmdane	r3!, {r8, sl}^
    1588:	00000137 	andeq	r0, r0, r7, lsr r1
    158c:	00042d0d 	andeq	r2, r4, sp, lsl #26
    1590:	05810100 	streq	r0, [r1, #256]	; 0x100
    1594:	00000025 	andeq	r0, r0, r5, lsr #32
    1598:	000086d4 	ldrdeq	r8, [r0], -r4
    159c:	000004b8 			; <UNDEFINED> instruction: 0x000004b8
    15a0:	07179c01 	ldreq	r9, [r7, -r1, lsl #24]
    15a4:	620e0000 	andvs	r0, lr, #0, 0
    15a8:	01006675 	tsteq	r0, r5, ror r6
    15ac:	07171581 	ldreq	r1, [r7, -r1, lsl #11]
    15b0:	0ad00000 	beq	ff4015b8 <__bss_end__+0xff3f7928>
    15b4:	0aca0000 	beq	ff2815bc <__bss_end__+0xff27792c>
    15b8:	6e0e0000 	cdpvs	0, 0, cr0, cr14, cr0, {0}
    15bc:	1e810100 	rmfnes	f0, f1, f0
    15c0:	00000025 	andeq	r0, r0, r5, lsr #32
    15c4:	00000b02 	andeq	r0, r0, r2, lsl #22
    15c8:	00000afc 	strdeq	r0, [r0], -ip
    15cc:	746d660e 	strbtvc	r6, [sp], #-1550	; 0xfffff9f2
    15d0:	2d810100 	stfcss	f0, [r1]
    15d4:	000000b3 	strheq	r0, [r0], -r3
    15d8:	00000b3c 	andeq	r0, r0, ip, lsr fp
    15dc:	00000b30 	andeq	r0, r0, r0, lsr fp
    15e0:	0004280f 	andeq	r2, r4, pc, lsl #16
    15e4:	3a810100 	bcc	fe0419ec <__bss_end__+0xfe037d5c>
    15e8:	0000015c 	andeq	r0, r0, ip, asr r1
    15ec:	7dd49103 	ldfvcp	f1, [r4, #12]
    15f0:	01007010 	tsteq	r0, r0, lsl r0
    15f4:	07170882 	ldreq	r0, [r7, -r2, lsl #17]
    15f8:	0b9a0000 	bleq	fe681600 <__bss_end__+0xfe677970>
    15fc:	0b860000 	bleq	fe181604 <__bss_end__+0xfe177974>
    1600:	65100000 	ldrvs	r0, [r0, #-0]
    1604:	12820100 	addne	r0, r2, #0
    1608:	00000717 	andeq	r0, r0, r7, lsl r7
    160c:	00000c1c 	andeq	r0, r0, ip, lsl ip
    1610:	00000c18 	andeq	r0, r0, r8, lsl ip
    1614:	00307810 	eorseq	r7, r0, r0, lsl r8
    1618:	5d0e8301 	stcpl	3, cr8, [lr, #-4]
    161c:	49000000 	stmdbmi	r0, {}	; <UNPREDICTABLE>
    1620:	4300000c 	movwmi	r0, #12
    1624:	1000000c 	andne	r0, r0, ip
    1628:	01003178 	tsteq	r0, r8, ror r1
    162c:	005d1183 	subseq	r1, sp, r3, lsl #3
    1630:	0c760000 	ldcleq	0, cr0, [r6], #-0
    1634:	0c720000 	ldcleq	0, cr0, [r2], #-0
    1638:	14110000 	ldrne	r0, [r1], #-0
    163c:	01000005 	tsteq	r0, r5
    1640:	00b31186 	adcseq	r1, r3, r6, lsl #3
    1644:	0c980000 	ldceq	0, cr0, [r8], {0}
    1648:	0c940000 	ldceq	0, cr0, [r4], {0}
    164c:	61120000 	tstvs	r2, r0
    1650:	2d000002 	stccs	0, cr0, [r0, #-8]
    1654:	05000007 	streq	r0, [r0, #-7]
    1658:	00966403 	addseq	r6, r6, r3, lsl #8
    165c:	873c1300 	ldrhi	r1, [ip, -r0, lsl #6]!
    1660:	04000000 	streq	r0, [r0], #-0
    1664:	73100000 	tstvc	r0, #0, 0
    1668:	0a910100 	beq	fe441a70 <__bss_end__+0xfe437de0>
    166c:	00000717 	andeq	r0, r0, r7, lsl r7
    1670:	00000cce 	andeq	r0, r0, lr, asr #25
    1674:	00000cb8 			; <UNDEFINED> instruction: 0x00000cb8
    1678:	6d756e14 	ldclvs	14, cr6, [r5, #-80]!	; 0xffffffb0
    167c:	0d910100 	ldfeqs	f0, [r1]
    1680:	00000732 	andeq	r0, r0, r2, lsr r7
    1684:	7dd89103 	ldfvcp	f1, [r8, #12]
    1688:	00052b15 	andeq	r2, r5, r5, lsl fp
    168c:	17910100 	ldrne	r0, [r1, r0, lsl #2]
    1690:	00000732 	andeq	r0, r0, r2, lsr r7
    1694:	7ed89103 	atnvce	f1, f3
    1698:	0004c211 	andeq	ip, r4, r1, lsl r2
    169c:	0d920100 	ldfeqs	f0, [r2]
    16a0:	0000002c 	andeq	r0, r0, ip, lsr #32
    16a4:	00000d55 	andeq	r0, r0, r5, asr sp
    16a8:	00000d4f 	andeq	r0, r0, pc, asr #26
    16ac:	00880416 	addeq	r0, r8, r6, lsl r4
    16b0:	0001a400 	andeq	sl, r1, r0, lsl #8
    16b4:	00053900 	andeq	r3, r5, r0, lsl #18
    16b8:	79741000 	ldmdbvc	r4!, {ip}^
    16bc:	1d9e0100 	ldfnes	f0, [lr]
    16c0:	000000b3 	strheq	r0, [r0], -r3
    16c4:	00000d89 	andeq	r0, r0, r9, lsl #27
    16c8:	00000d7f 	andeq	r0, r0, pc, ror sp
    16cc:	00787817 	rsbseq	r7, r8, r7, lsl r8
    16d0:	701aa201 	andsvc	sl, sl, r1, lsl #4
    16d4:	18000000 	stmdane	r0, {}	; <UNPREDICTABLE>
    16d8:	00008814 	andeq	r8, r0, r4, lsl r8
    16dc:	00000a92 	muleq	r0, r2, sl
    16e0:	000002d5 	ldrdeq	r0, [r0], -r5
    16e4:	02500119 	subseq	r0, r0, #1073741830	; 0x40000006
    16e8:	01190076 	tsteq	r9, r6, ror r0
    16ec:	58030551 	stmdapl	r3, {r0, r4, r6, r8, sl}
    16f0:	19000095 	stmdbne	r0, {r0, r2, r4, r7}
    16f4:	33015201 	movwcc	r5, #4609	; 0x1201
    16f8:	882c1800 	stmdahi	ip!, {fp, ip}
    16fc:	0a920000 	beq	fe481704 <__bss_end__+0xfe477a74>
    1700:	02f70000 	rscseq	r0, r7, #0, 0
    1704:	01190000 	tsteq	r9, r0
    1708:	00760250 	rsbseq	r0, r6, r0, asr r2
    170c:	05510119 	ldrbeq	r0, [r1, #-281]	; 0xfffffee7
    1710:	00955c03 	addseq	r5, r5, r3, lsl #24
    1714:	52011900 	andpl	r1, r1, #0, 18
    1718:	18003301 	stmdane	r0, {r0, r8, r9, ip, sp}
    171c:	00008860 	andeq	r8, r0, r0, ror #16
    1720:	00000a9e 	muleq	r0, lr, sl
    1724:	00000314 	andeq	r0, r0, r4, lsl r3
    1728:	05500119 	ldrbeq	r0, [r0, #-281]	; 0xfffffee7
    172c:	00956003 	addseq	r6, r5, r3
    1730:	51011900 	tstpl	r1, r0, lsl #18
    1734:	00007702 	andeq	r7, r0, r2, lsl #14
    1738:	00886c18 	addeq	r6, r8, r8, lsl ip
    173c:	000a9e00 	andeq	r9, sl, r0, lsl #28
    1740:	00033100 	andeq	r3, r3, r0, lsl #2
    1744:	50011900 	andpl	r1, r1, r0, lsl #18
    1748:	95680305 	strbls	r0, [r8, #-773]!	; 0xfffffcfb
    174c:	01190000 	tsteq	r9, r0
    1750:	007a0251 	rsbseq	r0, sl, r1, asr r2
    1754:	887c1800 	ldmdahi	ip!, {fp, ip}^
    1758:	0a920000 	beq	fe481760 <__bss_end__+0xfe477ad0>
    175c:	03530000 	cmpeq	r3, #0, 0
    1760:	01190000 	tsteq	r9, r0
    1764:	00760250 	rsbseq	r0, r6, r0, asr r2
    1768:	05510119 	ldrbeq	r0, [r1, #-281]	; 0xfffffee7
    176c:	00955803 	addseq	r5, r5, r3, lsl #16
    1770:	52011900 	andpl	r1, r1, #0, 18
    1774:	18003301 	stmdane	r0, {r0, r8, r9, ip, sp}
    1778:	00008894 	muleq	r0, r4, r8
    177c:	00000a92 	muleq	r0, r2, sl
    1780:	00000375 	andeq	r0, r0, r5, ror r3
    1784:	02500119 	subseq	r0, r0, #1073741830	; 0x40000006
    1788:	01190076 	tsteq	r9, r6, ror r0
    178c:	5c030551 	cfstr32pl	mvfx0, [r3], {81}	; 0x51
    1790:	19000095 	stmdbne	r0, {r0, r2, r4, r7}
    1794:	33015201 	movwcc	r5, #4609	; 0x1201
    1798:	88bc1800 	ldmhi	ip!, {fp, ip}
    179c:	07420000 	strbeq	r0, [r2, -r0]
    17a0:	03a90000 			; <UNDEFINED> instruction: 0x03a90000
    17a4:	01190000 	tsteq	r9, r0
    17a8:	193a0150 	ldmdbne	sl!, {r4, r6, r8}
    17ac:	91035101 	tstls	r3, r1, lsl #2
    17b0:	01197dd0 			; <UNDEFINED> instruction: 0x01197dd0
    17b4:	80080252 	andhi	r0, r8, r2, asr r2
    17b8:	02530119 	subseq	r0, r3, #1073741830	; 0x40000006
    17bc:	02190077 	andseq	r0, r9, #119, 0	; 0x77
    17c0:	7502007d 	strvc	r0, [r2, #-125]	; 0xffffff83
    17c4:	7d021900 	vstrvc.16	s2, [r2, #-0]	; <UNPREDICTABLE>
    17c8:	00760204 	rsbseq	r0, r6, r4, lsl #4
    17cc:	88dc1800 	ldmhi	ip, {fp, ip}^
    17d0:	07420000 	strbeq	r0, [r2, -r0]
    17d4:	03dd0000 	bicseq	r0, sp, #0, 0
    17d8:	01190000 	tsteq	r9, r0
    17dc:	193a0150 	ldmdbne	sl!, {r4, r6, r8}
    17e0:	91035101 	tstls	r3, r1, lsl #2
    17e4:	01197ed0 			; <UNDEFINED> instruction: 0x01197ed0
    17e8:	80080252 	andhi	r0, r8, r2, asr r2
    17ec:	02530119 	subseq	r0, r3, #1073741830	; 0x40000006
    17f0:	0219007a 	andseq	r0, r9, #122, 0	; 0x7a
    17f4:	7502007d 	strvc	r0, [r2, #-125]	; 0xffffff83
    17f8:	7d021900 	vstrvc.16	s2, [r2, #-0]	; <UNPREDICTABLE>
    17fc:	00760204 	rsbseq	r0, r6, r4, lsl #4
    1800:	88e81800 	stmiahi	r8!, {fp, ip}^
    1804:	0aaa0000 	beq	fea8180c <__bss_end__+0xfea77b7c>
    1808:	03fb0000 	mvnseq	r0, #0, 0
    180c:	01190000 	tsteq	r9, r0
    1810:	d0910350 	addsle	r0, r1, r0, asr r3
    1814:	5101197d 	tstpl	r1, sp, ror r9
    1818:	951c0305 	ldrls	r0, [ip, #-773]	; 0xfffffcfb
    181c:	18000000 	stmdane	r0, {}	; <UNPREDICTABLE>
    1820:	000088fc 	strdeq	r8, [r0], -ip
    1824:	00000ab6 			; <UNDEFINED> instruction: 0x00000ab6
    1828:	00000417 	andeq	r0, r0, r7, lsl r4
    182c:	03500119 	cmpeq	r0, #1073741830	; 0x40000006
    1830:	197dd091 	ldmdbne	sp!, {r0, r4, r7, ip, lr, pc}^
    1834:	91035101 	tstls	r3, r1, lsl #2
    1838:	18007ed0 	stmdane	r0, {r4, r6, r7, r9, sl, fp, ip, sp, lr}
    183c:	00008920 	andeq	r8, r0, r0, lsr #18
    1840:	00000a9e 	muleq	r0, lr, sl
    1844:	00000450 	andeq	r0, r0, r0, asr r4
    1848:	05500119 	ldrbeq	r0, [r0, #-281]	; 0xfffffee7
    184c:	00950803 	addseq	r0, r5, r3, lsl #16
    1850:	51011900 	tstpl	r1, r0, lsl #18
    1854:	94f40305 	ldrbtls	r0, [r4], #773	; 0x305
    1858:	01190000 	tsteq	r9, r0
    185c:	64030552 	strvs	r0, [r3], #-1362	; 0xfffffaae
    1860:	19000096 	stmdbne	r0, {r1, r2, r4, r7}
    1864:	08025301 	stmdaeq	r2, {r0, r8, r9, ip, lr}
    1868:	7d02199f 	vstrvc.16	s2, [r2, #-318]	; 0xfffffec2	; <UNPREDICTABLE>
    186c:	70030500 	andvc	r0, r3, r0, lsl #10
    1870:	00000095 	muleq	r0, r5, r0
    1874:	0089241a 	addeq	r2, r9, sl, lsl r4
    1878:	000ac200 	andeq	ip, sl, r0, lsl #4
    187c:	89441800 	stmdbhi	r4, {fp, ip}^
    1880:	07420000 	strbeq	r0, [r2, -r0]
    1884:	048d0000 	streq	r0, [sp], #0
    1888:	01190000 	tsteq	r9, r0
    188c:	19400150 	stmdbne	r0, {r4, r6, r8}^
    1890:	91035101 	tstls	r3, r1, lsl #2
    1894:	01197dd0 			; <UNDEFINED> instruction: 0x01197dd0
    1898:	80080252 	andhi	r0, r8, r2, asr r2
    189c:	02530119 	subseq	r0, r3, #1073741830	; 0x40000006
    18a0:	02190077 	andseq	r0, r9, #119, 0	; 0x77
    18a4:	7502007d 	strvc	r0, [r2, #-125]	; 0xffffff83
    18a8:	7d021900 	vstrvc.16	s2, [r2, #-0]	; <UNPREDICTABLE>
    18ac:	00760204 	rsbseq	r0, r6, r4, lsl #4
    18b0:	89641800 	stmdbhi	r4!, {fp, ip}^
    18b4:	07420000 	strbeq	r0, [r2, -r0]
    18b8:	04c10000 	strbeq	r0, [r1], #0
    18bc:	01190000 	tsteq	r9, r0
    18c0:	19400150 	stmdbne	r0, {r4, r6, r8}^
    18c4:	91035101 	tstls	r3, r1, lsl #2
    18c8:	01197ed0 			; <UNDEFINED> instruction: 0x01197ed0
    18cc:	80080252 	andhi	r0, r8, r2, asr r2
    18d0:	02530119 	subseq	r0, r3, #1073741830	; 0x40000006
    18d4:	0219007a 	andseq	r0, r9, #122, 0	; 0x7a
    18d8:	7502007d 	strvc	r0, [r2, #-125]	; 0xffffff83
    18dc:	7d021900 	vstrvc.16	s2, [r2, #-0]	; <UNPREDICTABLE>
    18e0:	00760204 	rsbseq	r0, r6, r4, lsl #4
    18e4:	89701800 	ldmdbhi	r0!, {fp, ip}^
    18e8:	0ace0000 	beq	ff3818f0 <__bss_end__+0xff377c60>
    18ec:	04dd0000 	ldrbeq	r0, [sp], #0
    18f0:	01190000 	tsteq	r9, r0
    18f4:	d0910350 	addsle	r0, r1, r0, asr r3
    18f8:	5101197d 	tstpl	r1, sp, ror r9
    18fc:	7ed29103 	atnvcs	f1, f3
    1900:	89841800 	stmibhi	r4, {fp, ip}
    1904:	0ace0000 	beq	ff38190c <__bss_end__+0xff377c7c>
    1908:	04f90000 	ldrbteq	r0, [r9], #0
    190c:	01190000 	tsteq	r9, r0
    1910:	d0910350 	addsle	r0, r1, r0, asr r3
    1914:	5101197d 	tstpl	r1, sp, ror r9
    1918:	7ed09103 	atnvcs	f1, f3
    191c:	89a41800 	stmibhi	r4!, {fp, ip}
    1920:	0a9e0000 	beq	fe781928 <__bss_end__+0xfe777c98>
    1924:	052f0000 	streq	r0, [pc, #-0]!	; 192c <__code_start__-0x66d4>
    1928:	01190000 	tsteq	r9, r0
    192c:	ac030550 	cfstr32ge	mvfx0, [r3], {80}	; 0x50
    1930:	19000095 	stmdbne	r0, {r0, r2, r4, r7}
    1934:	03055101 	movweq	r5, #20737	; 0x5101
    1938:	000094f4 	strdeq	r9, [r0], -r4
    193c:	05520119 	ldrbeq	r0, [r2, #-281]	; 0xfffffee7
    1940:	00966403 	addseq	r6, r6, r3, lsl #8
    1944:	53011900 	movwpl	r1, #6400	; 0x1900
    1948:	19b60802 	ldmibne	r6!, {r1, fp}
    194c:	02007d02 	andeq	r7, r0, #128	; 0x80
    1950:	1a000076 	bne	1b30 <__code_start__-0x64d0>
    1954:	000089a8 	andeq	r8, r0, r8, lsr #19
    1958:	00000ac2 	andeq	r0, r0, r2, asr #21
    195c:	87541800 	ldrbhi	r1, [r4, -r0, lsl #16]
    1960:	09c00000 	stmibeq	r0, {}^	; <UNPREDICTABLE>
    1964:	054d0000 	strbeq	r0, [sp, #-0]
    1968:	01190000 	tsteq	r9, r0
    196c:	00770250 	rsbseq	r0, r7, r0, asr r2
    1970:	88001800 	stmdahi	r0, {fp, ip}
    1974:	0a9e0000 	beq	fe78197c <__bss_end__+0xfe777cec>
    1978:	05860000 	streq	r0, [r6]
    197c:	01190000 	tsteq	r9, r0
    1980:	08030550 	stmdaeq	r3, {r4, r6, r8, sl}
    1984:	19000095 	stmdbne	r0, {r0, r2, r4, r7}
    1988:	03055101 	movweq	r5, #20737	; 0x5101
    198c:	000094f4 	strdeq	r9, [r0], -r4
    1990:	05520119 	ldrbeq	r0, [r2, #-281]	; 0xfffffee7
    1994:	00966403 	addseq	r6, r6, r3, lsl #8
    1998:	53011900 	movwpl	r1, #6400	; 0x1900
    199c:	19980802 	ldmibne	r8, {r1, fp}
    19a0:	05007d02 	streq	r7, [r0, #-3330]	; 0xfffff2fe
    19a4:	00954c03 	addseq	r4, r5, r3, lsl #24
    19a8:	041a0000 	ldreq	r0, [sl], #-0
    19ac:	c2000088 	andgt	r0, r0, #136, 0	; 0x88
    19b0:	1800000a 	stmdane	r0, {r1, r3}
    19b4:	000089bc 			; <UNDEFINED> instruction: 0x000089bc
    19b8:	00000a9e 	muleq	r0, lr, sl
    19bc:	000005be 			; <UNDEFINED> instruction: 0x000005be
    19c0:	05500119 	ldrbeq	r0, [r0, #-281]	; 0xfffffee7
    19c4:	0095d403 	addseq	sp, r5, r3, lsl #8
    19c8:	51011900 	tstpl	r1, r0, lsl #18
    19cc:	94f40305 	ldrbtls	r0, [r4], #773	; 0x305
    19d0:	01190000 	tsteq	r9, r0
    19d4:	64030552 	strvs	r0, [r3], #-1362	; 0xfffffaae
    19d8:	19000096 	stmdbne	r0, {r1, r2, r4, r7}
    19dc:	08025301 	stmdaeq	r2, {r0, r8, r9, ip, lr}
    19e0:	c01a00be 	ldrhgt	r0, [sl], -lr
    19e4:	c2000089 	andgt	r0, r0, #137, 0	; 0x89
    19e8:	1800000a 	stmdane	r0, {r1, r3}
    19ec:	000089ec 	andeq	r8, r0, ip, ror #19
    19f0:	00000742 	andeq	r0, r0, r2, asr #14
    19f4:	000005f4 	strdeq	r0, [r0], -r4
    19f8:	01500119 	cmpeq	r0, r9, lsl r1
    19fc:	5101193a 	tstpl	r1, sl, lsr r9
    1a00:	7dd09103 	ldfvcp	f1, [r0, #12]
    1a04:	02520119 	subseq	r0, r2, #1073741830	; 0x40000006
    1a08:	02198008 	andseq	r8, r9, #8, 0
    1a0c:	7502007d 	strvc	r0, [r2, #-125]	; 0xffffff83
    1a10:	7d021900 	vstrvc.16	s2, [r2, #-0]	; <UNPREDICTABLE>
    1a14:	00310104 	eorseq	r0, r1, r4, lsl #2
    1a18:	008a2418 	addeq	r2, sl, r8, lsl r4
    1a1c:	00074200 	andeq	r4, r7, r0, lsl #4
    1a20:	00062100 	andeq	r2, r6, r0, lsl #2
    1a24:	50011900 	andpl	r1, r1, r0, lsl #18
    1a28:	01193a01 	tsteq	r9, r1, lsl #20
    1a2c:	d0910351 	addsle	r0, r1, r1, asr r3
    1a30:	5201197d 	andpl	r1, r1, #2048000	; 0x1f4000
    1a34:	19800802 	stmibne	r0, {r1, fp}
    1a38:	02007d02 	andeq	r7, r0, #128	; 0x80
    1a3c:	02190075 	andseq	r0, r9, #117, 0	; 0x75
    1a40:	3001047d 	andcc	r0, r1, sp, ror r4
    1a44:	8a581800 	bhi	1607a4c <__bss_end__+0x15fddbc>
    1a48:	07420000 	strbeq	r0, [r2, -r0]
    1a4c:	064e0000 	strbeq	r0, [lr], -r0
    1a50:	01190000 	tsteq	r9, r0
    1a54:	19400150 	stmdbne	r0, {r4, r6, r8}^
    1a58:	91035101 	tstls	r3, r1, lsl #2
    1a5c:	01197dd0 			; <UNDEFINED> instruction: 0x01197dd0
    1a60:	80080252 	andhi	r0, r8, r2, asr r2
    1a64:	007d0219 	rsbseq	r0, sp, r9, lsl r2
    1a68:	19007502 	stmdbne	r0, {r1, r8, sl, ip, sp, lr}
    1a6c:	01047d02 	tsteq	r4, r2, lsl #26
    1a70:	8c180030 	ldchi	0, cr0, [r8], {48}	; 0x30
    1a74:	4200008a 	andmi	r0, r0, #138, 0	; 0x8a
    1a78:	7b000007 	blvc	1a9c <__code_start__-0x6564>
    1a7c:	19000006 	stmdbne	r0, {r1, r2}
    1a80:	32015001 	andcc	r5, r1, #1, 0
    1a84:	03510119 	cmpeq	r1, #1073741830	; 0x40000006
    1a88:	197dd091 	ldmdbne	sp!, {r0, r4, r7, ip, lr, pc}^
    1a8c:	08025201 	stmdaeq	r2, {r0, r9, ip, lr}
    1a90:	7d021980 	vstrvc.16	s2, [r2, #-256]	; 0xffffff00	; <UNPREDICTABLE>
    1a94:	00750200 	rsbseq	r0, r5, r0, lsl #4
    1a98:	047d0219 	ldrbteq	r0, [sp], #-537	; 0xfffffde7
    1a9c:	18003001 	stmdane	r0, {r0, ip, sp}
    1aa0:	00008ad4 	ldrdeq	r8, [r0], -r4
    1aa4:	00000742 	andeq	r0, r0, r2, asr #14
    1aa8:	000006a8 	andeq	r0, r0, r8, lsr #13
    1aac:	01500119 	cmpeq	r0, r9, lsl r1
    1ab0:	51011938 	tstpl	r1, r8, lsr r9
    1ab4:	7dd09103 	ldfvcp	f1, [r0, #12]
    1ab8:	02520119 	subseq	r0, r2, #1073741830	; 0x40000006
    1abc:	02198008 	andseq	r8, r9, #8, 0
    1ac0:	7502007d 	strvc	r0, [r2, #-125]	; 0xffffff83
    1ac4:	7d021900 	vstrvc.16	s2, [r2, #-0]	; <UNPREDICTABLE>
    1ac8:	00300104 	eorseq	r0, r0, r4, lsl #2
    1acc:	008af418 	addeq	pc, sl, r8, lsl r4	; <UNPREDICTABLE>
    1ad0:	000a9e00 	andeq	r9, sl, r0, lsl #28
    1ad4:	0006cb00 	andeq	ip, r6, r0, lsl #22
    1ad8:	50011900 	andpl	r1, r1, r0, lsl #18
    1adc:	95fc0305 	ldrbls	r0, [ip, #773]!	; 0x305
    1ae0:	01190000 	tsteq	r9, r0
    1ae4:	007a0251 	rsbseq	r0, sl, r1, asr r2
    1ae8:	02520119 	subseq	r0, r2, #1073741830	; 0x40000006
    1aec:	1b00007a 	blne	1cdc <__code_start__-0x6324>
    1af0:	00008b04 	andeq	r8, r0, r4, lsl #22
    1af4:	000006dd 	ldrdeq	r0, [r0], -sp
    1af8:	04500119 	ldrbeq	r0, [r0], #-281	; 0xfffffee7
    1afc:	067dc891 			; <UNDEFINED> instruction: 0x067dc891
    1b00:	8b181800 	blhi	607b08 <__bss_end__+0x5fde78>
    1b04:	0a9e0000 	beq	fe781b0c <__bss_end__+0xfe777e7c>
    1b08:	070c0000 	streq	r0, [ip, -r0]
    1b0c:	01190000 	tsteq	r9, r0
    1b10:	2c030550 	cfstr32cs	mvfx0, [r3], {80}	; 0x50
    1b14:	19000096 	stmdbne	r0, {r1, r2, r4, r7}
    1b18:	03055101 	movweq	r5, #20737	; 0x5101
    1b1c:	000094f4 	strdeq	r9, [r0], -r4
    1b20:	05520119 	ldrbeq	r0, [r2, #-281]	; 0xfffffee7
    1b24:	00966403 	addseq	r6, r6, r3, lsl #8
    1b28:	53011900 	movwpl	r1, #6400	; 0x1900
    1b2c:	00e20802 	rsceq	r0, r2, r2, lsl #16
    1b30:	008b1c1a 	addeq	r1, fp, sl, lsl ip
    1b34:	000ac200 	andeq	ip, sl, r0, lsl #4
    1b38:	08000000 	stmdaeq	r0, {}	; <UNPREDICTABLE>
    1b3c:	0000b904 	andeq	fp, r0, r4, lsl #18
    1b40:	00c01c00 	sbceq	r1, r0, r0, lsl #24
    1b44:	072d0000 	streq	r0, [sp, -r0]!
    1b48:	2c1d0000 	ldccs	0, cr0, [sp], {-0}
    1b4c:	09000000 	stmdbeq	r0, {}	; <UNPREDICTABLE>
    1b50:	071d0900 	ldreq	r0, [sp, -r0, lsl #18]
    1b54:	b91c0000 	ldmdblt	ip, {}	; <UNPREDICTABLE>
    1b58:	42000000 	andmi	r0, r0, #0, 0
    1b5c:	1d000007 	stcne	0, cr0, [r0, #-28]	; 0xffffffe4
    1b60:	0000002c 	andeq	r0, r0, ip, lsr #32
    1b64:	3d1e007f 	ldccc	0, cr0, [lr, #-508]	; 0xfffffe04
    1b68:	01000005 	tsteq	r0, r5
    1b6c:	07170149 	ldreq	r0, [r7, -r9, asr #2]
    1b70:	84bc0000 	ldrthi	r0, [ip], #0
    1b74:	01b40000 			; <UNDEFINED> instruction: 0x01b40000
    1b78:	9c010000 	stcls	0, cr0, [r1], {-0}
    1b7c:	000008ab 	andeq	r0, r0, fp, lsr #17
    1b80:	0005841f 	andeq	r8, r5, pc, lsl r4
    1b84:	0f490100 	svceq	0x00490100
    1b88:	0000002c 	andeq	r0, r0, ip, lsr #32
    1b8c:	00000dd2 	ldrdeq	r0, [r0], -r2
    1b90:	00000dcc 	andeq	r0, r0, ip, asr #27
    1b94:	7473640e 	ldrbtvc	r6, [r3], #-1038	; 0xfffffbf2
    1b98:	1b490100 	blne	1241fa0 <__bss_end__+0x1238310>
    1b9c:	00000717 	andeq	r0, r0, r7, lsl r7
    1ba0:	00000e10 	andeq	r0, r0, r0, lsl lr
    1ba4:	00000e00 	andeq	r0, r0, r0, lsl #28
    1ba8:	01006e0e 	tsteq	r0, lr, lsl #28
    1bac:	00252449 	eoreq	r2, r5, r9, asr #8
    1bb0:	0e740000 	cdpeq	0, 7, cr0, cr4, cr0, {0}
    1bb4:	0e700000 	cdpeq	0, 7, cr0, cr0, cr0, {0}
    1bb8:	760e0000 	strvc	r0, [lr], -r0
    1bbc:	01006c61 	tsteq	r0, r1, ror #24
    1bc0:	00252b49 	eoreq	r2, r5, r9, asr #22
    1bc4:	0e9e0000 	cdpeq	0, 9, cr0, cr14, cr0, {0}
    1bc8:	0e920000 	cdpeq	0, 9, cr0, cr2, cr0, {0}
    1bcc:	c21f0000 	andsgt	r0, pc, #0, 0
    1bd0:	01000004 	tsteq	r0, r4
    1bd4:	00253449 	eoreq	r3, r5, r9, asr #8
    1bd8:	0ef40000 	cdpeq	0, 15, cr0, cr4, cr0, {0}
    1bdc:	0eee0000 	cdpeq	0, 14, cr0, cr14, cr0, {0}
    1be0:	890f0000 	stmdbhi	pc, {}	; <UNPREDICTABLE>
    1be4:	01000005 	tsteq	r0, r5
    1be8:	00253f49 	eoreq	r3, r5, r9, asr #30
    1bec:	91020000 	mrsls	r0, (UNDEF: 2)
    1bf0:	75621404 	strbvc	r1, [r2, #-1028]!	; 0xfffffbfc
    1bf4:	4e010066 	cdpmi	0, 0, cr0, cr1, cr6, {3}
    1bf8:	0008ab07 	andeq	sl, r8, r7, lsl #22
    1bfc:	a8910300 	ldmge	r1, {r8, r9}
    1c00:	0070107f 	rsbseq	r1, r0, pc, ror r0
    1c04:	17114e01 	ldrne	r4, [r1, -r1, lsl #28]
    1c08:	3e000007 	cdpcc	0, 0, cr0, cr0, cr7, {0}
    1c0c:	1e00000f 	cdpne	0, 0, cr0, cr0, cr15, {0}
    1c10:	1000000f 	andne	r0, r0, pc
    1c14:	4f010075 	svcmi	0x00010075
    1c18:	00002c0b 	andeq	r2, r0, fp, lsl #24
    1c1c:	00102400 	andseq	r2, r0, r0, lsl #8
    1c20:	00101000 	andseq	r1, r0, r0
    1c24:	02611200 	rsbeq	r1, r1, #0, 4
    1c28:	08cb0000 	stmiaeq	fp, {}^	; <UNPREDICTABLE>
    1c2c:	03050000 	movweq	r0, #20480	; 0x5000
    1c30:	0000964c 	andeq	r9, r0, ip, asr #12
    1c34:	00852816 	addeq	r2, r5, r6, lsl r8
    1c38:	00007800 	andeq	r7, r0, r0, lsl #16
    1c3c:	00083200 	andeq	r3, r8, r0, lsl #4
    1c40:	05251100 	streq	r1, [r5, #-256]!	; 0xffffff00
    1c44:	54010000 	strpl	r0, [r1], #-0
    1c48:	00002c0d 	andeq	r2, r0, sp, lsl #24
    1c4c:	0010a500 	andseq	sl, r0, r0, lsl #10
    1c50:	00109d00 	andseq	r9, r0, r0, lsl #26
    1c54:	e0180000 	ands	r0, r8, r0
    1c58:	5d000085 	stcpl	0, cr0, [r0, #-532]	; 0xfffffdec
    1c5c:	47000009 	strmi	r0, [r0, -r9]
    1c60:	19000008 	stmdbne	r0, {r3}
    1c64:	91035101 	tstls	r3, r1, lsl #2
    1c68:	18007fa0 	stmdane	r0, {r5, r7, r8, r9, sl, fp, ip, sp, lr}
    1c6c:	000085f4 	strdeq	r8, [r0], -r4
    1c70:	000008d0 	ldrdeq	r0, [r0], -r0	; <UNPREDICTABLE>
    1c74:	00000868 	andeq	r0, r0, r8, ror #16
    1c78:	02500119 	subseq	r0, r0, #1073741830	; 0x40000006
    1c7c:	01190075 	tsteq	r9, r5, ror r0
    1c80:	00740251 	rsbseq	r0, r4, r1, asr r2
    1c84:	03530119 	cmpeq	r3, #1073741830	; 0x40000006
    1c88:	007fa091 			; <UNDEFINED> instruction: 0x007fa091
    1c8c:	00864c18 	addeq	r4, r6, r8, lsl ip
    1c90:	000a9e00 	andeq	r9, sl, r0, lsl #28
    1c94:	0008a100 	andeq	sl, r8, r0, lsl #2
    1c98:	50011900 	andpl	r1, r1, r0, lsl #18
    1c9c:	95080305 	strls	r0, [r8, #-773]	; 0xfffffcfb
    1ca0:	01190000 	tsteq	r9, r0
    1ca4:	f4030551 	vst3.16	{d0,d2,d4}, [r3 :64], r1
    1ca8:	19000094 	stmdbne	r0, {r2, r4, r7}
    1cac:	03055201 	movweq	r5, #20993	; 0x5201
    1cb0:	0000964c 	andeq	r9, r0, ip, asr #12
    1cb4:	02530119 	subseq	r0, r3, #1073741830	; 0x40000006
    1cb8:	02197908 	andseq	r7, r9, #8, 18	; 0x20000
    1cbc:	0305007d 	movweq	r0, #20605	; 0x507d
    1cc0:	0000951c 	andeq	r9, r0, ip, lsl r5
    1cc4:	86501a00 	ldrbhi	r1, [r0], -r0, lsl #20
    1cc8:	0ac20000 	beq	ff081cd0 <__bss_end__+0xff078040>
    1ccc:	1c000000 	stcne	0, cr0, [r0], {-0}
    1cd0:	000000b9 	strheq	r0, [r0], -r9
    1cd4:	000008bb 			; <UNDEFINED> instruction: 0x000008bb
    1cd8:	00002c1d 	andeq	r2, r0, sp, lsl ip
    1cdc:	1c003f00 	stcne	15, cr3, [r0], {-0}
    1ce0:	000000c0 	andeq	r0, r0, r0, asr #1
    1ce4:	000008cb 	andeq	r0, r0, fp, asr #17
    1ce8:	00002c1d 	andeq	r2, r0, sp, lsl ip
    1cec:	09000400 	stmdbeq	r0, {sl}
    1cf0:	000008bb 			; <UNDEFINED> instruction: 0x000008bb
    1cf4:	00054a1e 	andeq	r4, r5, lr, lsl sl
    1cf8:	0e380100 	rsfeqe	f0, f0, f0
    1cfc:	00000717 	andeq	r0, r0, r7, lsl r7
    1d00:	00008484 	andeq	r8, r0, r4, lsl #9
    1d04:	00000038 	andeq	r0, r0, r8, lsr r0
    1d08:	095d9c01 	ldmdbeq	sp, {r0, sl, fp, ip, pc}^
    1d0c:	640e0000 	strvs	r0, [lr], #-0
    1d10:	01007473 	tsteq	r0, r3, ror r4
    1d14:	07171c38 			; <UNDEFINED> instruction: 0x07171c38
    1d18:	10e60000 	rscne	r0, r6, r0
    1d1c:	10dc0000 	sbcsne	r0, ip, r0
    1d20:	6e0e0000 	cdpvs	0, 0, cr0, cr14, cr0, {0}
    1d24:	25380100 	ldrcs	r0, [r8, #-256]!	; 0xffffff00
    1d28:	00000025 	andeq	r0, r0, r5, lsr #32
    1d2c:	0000112d 	andeq	r1, r0, sp, lsr #2
    1d30:	00001129 	andeq	r1, r0, r9, lsr #2
    1d34:	0100700e 	tsteq	r0, lr
    1d38:	07172e38 			; <UNDEFINED> instruction: 0x07172e38
    1d3c:	11560000 	cmpne	r6, r0
    1d40:	114e0000 	mrsne	r0, (UNDEF: 78)
    1d44:	be1f0000 	cdplt	0, 1, cr0, cr15, cr0, {0}
    1d48:	01000009 	tsteq	r0, r9
    1d4c:	07173738 			; <UNDEFINED> instruction: 0x07173738
    1d50:	11900000 	orrsne	r0, r0, r0
    1d54:	118c0000 	orrne	r0, ip, r0
    1d58:	6c100000 	ldcvs	0, cr0, [r0], {-0}
    1d5c:	01006e65 	tsteq	r0, r5, ror #28
    1d60:	0025063a 	eoreq	r0, r5, sl, lsr r6
    1d64:	11b60000 			; <UNDEFINED> instruction: 0x11b60000
    1d68:	11ae0000 			; <UNDEFINED> instruction: 0x11ae0000
    1d6c:	73100000 	tstvc	r0, #0, 0
    1d70:	083e0100 	ldmdaeq	lr!, {r8}
    1d74:	00000717 	andeq	r0, r0, r7, lsl r7
    1d78:	00001204 	andeq	r1, r0, r4, lsl #4
    1d7c:	00001202 	andeq	r1, r0, r2, lsl #4
    1d80:	61702000 	cmnvs	r0, r0
    1d84:	2e010064 	cdpcs	0, 0, cr0, cr1, cr4, {3}
    1d88:	0007170e 	andeq	r1, r7, lr, lsl #14
    1d8c:	00846000 	addeq	r6, r4, r0
    1d90:	00002400 	andeq	r2, r0, r0, lsl #8
    1d94:	c09c0100 	addsgt	r0, ip, r0, lsl #2
    1d98:	0e000009 	cdpeq	0, 0, cr0, cr0, cr9, {0}
    1d9c:	2e010070 	mcrcs	0, 0, r0, cr1, cr0, {3}
    1da0:	00071718 	andeq	r1, r7, r8, lsl r7
    1da4:	00121d00 	andseq	r1, r2, r0, lsl #26
    1da8:	00121700 	andseq	r1, r2, r0, lsl #14
    1dac:	05841f00 	streq	r1, [r4, #3840]	; 0xf00
    1db0:	2e010000 	cdpcs	0, 0, cr0, cr1, cr0, {0}
    1db4:	00071722 	andeq	r1, r7, r2, lsr #14
    1db8:	00124c00 	andseq	r4, r2, r0, lsl #24
    1dbc:	00124800 	andseq	r4, r2, r0, lsl #16
    1dc0:	04c20f00 	strbeq	r0, [r2], #3840	; 0xf00
    1dc4:	2e010000 	cdpcs	0, 0, cr0, cr1, cr0, {0}
    1dc8:	0000252c 	andeq	r2, r0, ip, lsr #10
    1dcc:	10520100 	subsne	r0, r2, r0, lsl #2
    1dd0:	006e656c 	rsbeq	r6, lr, ip, ror #10
    1dd4:	25062f01 	strcs	r2, [r6, #-3841]	; 0xfffff0ff
    1dd8:	6f000000 	svcvs	0x00000000
    1ddc:	6d000012 	stcvs	0, cr0, [r0, #-72]	; 0xffffffb8
    1de0:	00000012 	andeq	r0, r0, r2, lsl r0
    1de4:	0004811e 	andeq	r8, r4, lr, lsl r1
    1de8:	0c270100 	stfeqs	f0, [r7], #-0
    1dec:	00000025 	andeq	r0, r0, r5, lsr #32
    1df0:	0000844c 	andeq	r8, r0, ip, asr #8
    1df4:	00000014 	andeq	r0, r0, r4, lsl r0
    1df8:	09ed9c01 	stmibeq	sp!, {r0, sl, fp, ip, pc}^
    1dfc:	630e0000 	movwvs	r0, #57344	; 0xe000
    1e00:	18270100 	stmdane	r7!, {r8}
    1e04:	00000025 	andeq	r0, r0, r5, lsr #32
    1e08:	00001288 	andeq	r1, r0, r8, lsl #5
    1e0c:	00001282 	andeq	r1, r0, r2, lsl #5
    1e10:	05052100 	streq	r2, [r5, #-256]	; 0xffffff00
    1e14:	1f010000 	svcne	0x00010000
    1e18:	00867006 	addeq	r7, r6, r6
    1e1c:	00006400 	andeq	r6, r0, r0, lsl #8
    1e20:	7d9c0100 	ldfvcs	f0, [ip]
    1e24:	1f00000a 	svcne	0x0000000a
    1e28:	000004e2 	andeq	r0, r0, r2, ror #9
    1e2c:	9e1b1f01 	cdpls	15, 1, cr1, cr11, cr1, {0}
    1e30:	ba000000 	blt	1e38 <__code_start__-0x61c8>
    1e34:	b6000012 			; <UNDEFINED> instruction: 0xb6000012
    1e38:	1f000012 	svcne	0x00000012
    1e3c:	00000542 	andeq	r0, r0, r2, asr #10
    1e40:	d1301f01 	teqle	r0, r1, lsl #30
    1e44:	df000000 	svcle	0x00000000
    1e48:	db000012 	blle	1e98 <__code_start__-0x6168>
    1e4c:	12000012 	andne	r0, r0, #18, 0
    1e50:	00000261 	andeq	r0, r0, r1, ror #4
    1e54:	00000a8d 	andeq	r0, r0, sp, lsl #21
    1e58:	96540305 	ldrbls	r0, [r4], -r5, lsl #6
    1e5c:	b8180000 	ldmdalt	r8, {}	; <UNPREDICTABLE>
    1e60:	9e000086 	cdpls	0, 0, cr0, cr0, cr6, {4}
    1e64:	7300000a 	movwvc	r0, #10
    1e68:	1900000a 	stmdbne	r0, {r1, r3}
    1e6c:	03055001 	movweq	r5, #20481	; 0x5001
    1e70:	00009508 	andeq	r9, r0, r8, lsl #10
    1e74:	05510119 	ldrbeq	r0, [r1, #-281]	; 0xfffffee7
    1e78:	0094f403 	addseq	pc, r4, r3, lsl #8
    1e7c:	52011900 	andpl	r1, r1, #0, 18
    1e80:	96540305 	ldrbls	r0, [r4], -r5, lsl #6
    1e84:	01190000 	tsteq	r9, r0
    1e88:	20080253 	andcs	r0, r8, r3, asr r2
    1e8c:	007d0219 	rsbseq	r0, sp, r9, lsl r2
    1e90:	95440305 	strbls	r0, [r4, #-773]	; 0xfffffcfb
    1e94:	1a000000 	bne	1e9c <__code_start__-0x6164>
    1e98:	000086bc 			; <UNDEFINED> instruction: 0x000086bc
    1e9c:	00000ac2 	andeq	r0, r0, r2, asr #21
    1ea0:	00c01c00 	sbceq	r1, r0, r0, lsl #24
    1ea4:	0a8d0000 	beq	fe341eac <__bss_end__+0xfe33821c>
    1ea8:	2c1d0000 	ldccs	0, cr0, [sp], {-0}
    1eac:	0e000000 	cdpeq	0, 0, cr0, cr0, cr0, {0}
    1eb0:	0a7d0900 	beq	1f442b8 <__bss_end__+0x1f3a628>
    1eb4:	7c220000 	stcvc	0, cr0, [r2], #-0
    1eb8:	7c000005 	stcvc	0, cr0, [r0], {5}
    1ebc:	03000005 	movweq	r0, #5
    1ec0:	302205f0 	strdcc	r0, [r2], -r0	; <UNPREDICTABLE>
    1ec4:	30000004 	andcc	r0, r0, r4
    1ec8:	03000004 	movweq	r0, #4
    1ecc:	59220628 	stmdbpl	r2!, {r3, r5, r9, sl}
    1ed0:	59000005 	stmdbpl	r0, {r0, r2}
    1ed4:	03000005 	movweq	r0, #5
    1ed8:	1e2205ef 	cfsh64ne	mvdx0, mvdx2, #-1
    1edc:	1e000005 	cdpne	0, 0, cr0, cr0, cr5, {0}
    1ee0:	03000005 	movweq	r0, #5
    1ee4:	c82207f2 	stmdagt	r2!, {r1, r4, r5, r6, r7, r8, r9, sl}
    1ee8:	c8000004 	stmdagt	r0, {r2}
    1eec:	03000004 	movweq	r0, #4
    1ef0:	5222066e 	eorpl	r0, r2, #115343360	; 0x6e00000
    1ef4:	52000005 	andpl	r0, r0, #5, 0
    1ef8:	03000005 	movweq	r0, #5
    1efc:	0a0007f3 	beq	3ed0 <__code_start__-0x4130>
    1f00:	04000001 	streq	r0, [r0], #-1
    1f04:	00092a00 	andeq	r2, r9, r0, lsl #20
    1f08:	00010400 	andeq	r0, r1, r0, lsl #8
    1f0c:	0c000003 	stceq	0, cr0, [r0], {3}
    1f10:	000005a0 	andeq	r0, r0, r0, lsr #11
    1f14:	000003d1 	ldrdeq	r0, [r0], -r1
    1f18:	000001e8 	andeq	r0, r0, r8, ror #3
    1f1c:	00000000 	andeq	r0, r0, r0
    1f20:	00000f73 	andeq	r0, r0, r3, ror pc
    1f24:	69050402 	stmdbvs	r5, {r1, sl}
    1f28:	0300746e 	movweq	r7, #1134	; 0x46e
    1f2c:	00b20704 	adcseq	r0, r2, r4, lsl #14
    1f30:	01030000 	mrseq	r0, (UNDEF: 3)
    1f34:	00005806 	andeq	r5, r0, r6, lsl #16
    1f38:	05020300 	streq	r0, [r2, #-768]	; 0xfffffd00
    1f3c:	00000194 	muleq	r0, r4, r1
    1f40:	ca050403 	bgt	142f54 <__bss_end__+0x1392c4>
    1f44:	03000000 	movweq	r0, #0
    1f48:	00c50508 	sbceq	r0, r5, r8, lsl #10
    1f4c:	01030000 	mrseq	r0, (UNDEF: 3)
    1f50:	00005608 	andeq	r5, r0, r8, lsl #12
    1f54:	07020300 	streq	r0, [r2, -r0, lsl #6]
    1f58:	0000006d 	andeq	r0, r0, sp, rrx
    1f5c:	ad070403 	cfstrsge	mvf0, [r7, #-12]
    1f60:	03000000 	movweq	r0, #0
    1f64:	00a80708 	adceq	r0, r8, r8, lsl #14
    1f68:	25040000 	strcs	r0, [r4, #-0]
    1f6c:	7a000000 	bvc	1f74 <__code_start__-0x608c>
    1f70:	05000000 	streq	r0, [r0, #-0]
    1f74:	00000025 	andeq	r0, r0, r5, lsr #32
    1f78:	00d30600 	sbcseq	r0, r3, r0, lsl #12
    1f7c:	1c020000 	stcne	0, cr0, [r2], {-0}
    1f80:	0000860e 	andeq	r8, r0, lr, lsl #12
    1f84:	6b040700 	blvs	103b8c <__bss_end__+0xf9efc>
    1f88:	04000000 	streq	r0, [r0], #-0
    1f8c:	00000025 	andeq	r0, r0, r5, lsr #32
    1f90:	0000009b 	muleq	r0, fp, r0
    1f94:	00009b05 	andeq	r9, r0, r5, lsl #22
    1f98:	04070000 	streq	r0, [r7], #-0
    1f9c:	000000a8 	andeq	r0, r0, r8, lsr #1
    1fa0:	5f080103 	svcpl	0x00080103
    1fa4:	08000000 	stmdaeq	r0, {}	; <UNPREDICTABLE>
    1fa8:	000000a1 	andeq	r0, r0, r1, lsr #1
    1fac:	00046e06 	andeq	r6, r4, r6, lsl #28
    1fb0:	0e210200 	cdpeq	2, 2, cr0, cr1, cr0, {0}
    1fb4:	000000b9 	strheq	r0, [r0], -r9
    1fb8:	008c0407 	addeq	r0, ip, r7, lsl #8
    1fbc:	92090000 	andls	r0, r9, #0, 0
    1fc0:	01000005 	tsteq	r0, r5
    1fc4:	8b9c060c 	blhi	fe7037fc <__bss_end__+0xfe6f9b6c>
    1fc8:	00100000 	andseq	r0, r0, r0
    1fcc:	9c010000 	stcls	0, cr0, [r1], {-0}
    1fd0:	000000e8 	andeq	r0, r0, r8, ror #1
    1fd4:	0100720a 	tsteq	r0, sl, lsl #4
    1fd8:	002c0e0d 	eoreq	r0, ip, sp, lsl #28
    1fdc:	13060000 	movwne	r0, #24576	; 0x6000
    1fe0:	13000000 	movwne	r0, #0
    1fe4:	0b000000 	bleq	1fec <__code_start__-0x6014>
    1fe8:	0000019e 	muleq	r0, lr, r1
    1fec:	8c060301 	stchi	3, cr0, [r6], {1}
    1ff0:	1000008b 	andne	r0, r0, fp, lsl #1
    1ff4:	01000000 	mrseq	r0, (UNDEF: 0)
    1ff8:	00720a9c 			; <UNDEFINED> instruction: 0x00720a9c
    1ffc:	2c0e0401 	cfstrscs	mvf0, [lr], {1}
    2000:	3b000000 	blcc	2008 <__code_start__-0x5ff8>
    2004:	35000013 	strcc	r0, [r0, #-19]	; 0xffffffed
    2008:	00000013 	andeq	r0, r0, r3, lsl r0
    200c:	00012f00 	andeq	r2, r1, r0, lsl #30
    2010:	d3000400 	movwle	r0, #1024	; 0x400
    2014:	04000009 	streq	r0, [r0], #-9
    2018:	00030001 	andeq	r0, r3, r1
    201c:	05bf0c00 	ldreq	r0, [pc, #3072]!	; 2c24 <__code_start__-0x53dc>
    2020:	03d10000 	bicseq	r0, r1, #0, 0
    2024:	8bac0000 	blhi	feb0202c <__bss_end__+0xfeaf839c>
    2028:	002c0000 	eoreq	r0, ip, r0
    202c:	103a0000 	eorsne	r0, sl, r0
    2030:	04020000 	streq	r0, [r2], #-0
    2034:	746e6905 	strbtvc	r6, [lr], #-2309	; 0xfffff6fb
    2038:	07040300 	streq	r0, [r4, -r0, lsl #6]
    203c:	000000b2 	strheq	r0, [r0], -r2
    2040:	58060103 	stmdapl	r6, {r0, r1, r8}
    2044:	03000000 	movweq	r0, #0
    2048:	01940502 	orrseq	r0, r4, r2, lsl #10
    204c:	04030000 	streq	r0, [r3], #-0
    2050:	0000ca05 	andeq	ip, r0, r5, lsl #20
    2054:	05080300 	streq	r0, [r8, #-768]	; 0xfffffd00
    2058:	000000c5 	andeq	r0, r0, r5, asr #1
    205c:	56080103 	strpl	r0, [r8], -r3, lsl #2
    2060:	03000000 	movweq	r0, #0
    2064:	006d0702 	rsbeq	r0, sp, r2, lsl #14
    2068:	04030000 	streq	r0, [r3], #-0
    206c:	0000ad07 	andeq	sl, r0, r7, lsl #26
    2070:	07080300 	streq	r0, [r8, -r0, lsl #6]
    2074:	000000a8 	andeq	r0, r0, r8, lsr #1
    2078:	00002504 	andeq	r2, r0, r4, lsl #10
    207c:	00007a00 	andeq	r7, r0, r0, lsl #20
    2080:	00250500 	eoreq	r0, r5, r0, lsl #10
    2084:	06000000 	streq	r0, [r0], -r0
    2088:	000000d3 	ldrdeq	r0, [r0], -r3
    208c:	860e1c02 	strhi	r1, [lr], -r2, lsl #24
    2090:	07000000 	streq	r0, [r0, -r0]
    2094:	00006b04 	andeq	r6, r0, r4, lsl #22
    2098:	00250400 	eoreq	r0, r5, r0, lsl #8
    209c:	009b0000 	addseq	r0, fp, r0
    20a0:	9b050000 	blls	1420a8 <__bss_end__+0x138418>
    20a4:	00000000 	andeq	r0, r0, r0
    20a8:	00a80407 	adceq	r0, r8, r7, lsl #8
    20ac:	01030000 	mrseq	r0, (UNDEF: 3)
    20b0:	00005f08 	andeq	r5, r0, r8, lsl #30
    20b4:	00a10800 	adceq	r0, r1, r0, lsl #16
    20b8:	6e060000 	cdpvs	0, 0, cr0, cr6, cr0, {0}
    20bc:	02000004 	andeq	r0, r0, #4, 0
    20c0:	00b90e21 	adcseq	r0, r9, r1, lsr #28
    20c4:	04070000 	streq	r0, [r7], #-0
    20c8:	0000008c 	andeq	r0, r0, ip, lsl #1
    20cc:	0004c809 	andeq	ip, r4, r9, lsl #16
    20d0:	06040100 	streq	r0, [r4], -r0, lsl #2
    20d4:	00008bac 	andeq	r8, r0, ip, lsr #23
    20d8:	0000002c 	andeq	r0, r0, ip, lsr #32
    20dc:	010e9c01 	tsteq	lr, r1, lsl #24
    20e0:	c00a0000 	andgt	r0, sl, r0
    20e4:	e800008b 	stmda	r0, {r0, r1, r3, r7}
    20e8:	0b000000 	bleq	20f0 <__code_start__-0x5f10>
    20ec:	03055001 	movweq	r5, #20481	; 0x5001
    20f0:	00009670 	andeq	r9, r0, r0, ror r6
    20f4:	8bc40c00 	blhi	ff1050fc <__bss_end__+0xff0fb46c>
    20f8:	010e0000 	mrseq	r0, (UNDEF: 14)
    20fc:	cc0d0000 	stcgt	0, cr0, [sp], {-0}
    2100:	1a00008b 	bne	2334 <__code_start__-0x5ccc>
    2104:	04000001 	streq	r0, [r0], #-1
    2108:	0b000001 	bleq	2114 <__code_start__-0x5eec>
    210c:	3a015001 	bcc	56118 <__bss_end__+0x4c488>
    2110:	8bd00c00 	blhi	ff405118 <__bss_end__+0xff3fb488>
    2114:	01260000 			; <UNDEFINED> instruction: 0x01260000
    2118:	0e000000 	cdpeq	0, 0, cr0, cr0, cr0, {0}
    211c:	000005da 	ldrdeq	r0, [r0], -sl
    2120:	000005da 	ldrdeq	r0, [r0], -sl
    2124:	0e064d02 	cdpeq	13, 0, cr4, cr6, cr2, {0}
    2128:	00000064 	andeq	r0, r0, r4, rrx
    212c:	00000064 	andeq	r0, r0, r4, rrx
    2130:	0e065802 	cdpeq	8, 0, cr5, cr6, cr2, {0}
    2134:	000005b4 			; <UNDEFINED> instruction: 0x000005b4
    2138:	000005b4 			; <UNDEFINED> instruction: 0x000005b4
    213c:	00066b02 	andeq	r6, r6, r2, lsl #22
    2140:	00000189 	andeq	r0, r0, r9, lsl #3
    2144:	0a930004 	beq	fe4c215c <__bss_end__+0xfe4b84cc>
    2148:	01040000 	mrseq	r0, (UNDEF: 4)
    214c:	00000300 	andeq	r0, r0, r0, lsl #6
    2150:	0006100c 	andeq	r1, r6, ip
    2154:	0003d100 	andeq	sp, r3, r0, lsl #2
    2158:	008bd800 	addeq	sp, fp, r0, lsl #16
    215c:	00003c00 	andeq	r3, r0, r0, lsl #24
    2160:	0010e200 	andseq	lr, r0, r0, lsl #4
    2164:	05040200 	streq	r0, [r4, #-512]	; 0xfffffe00
    2168:	00746e69 	rsbseq	r6, r4, r9, ror #28
    216c:	b2070403 	andlt	r0, r7, #50331648	; 0x3000000
    2170:	03000000 	movweq	r0, #0
    2174:	00580601 	subseq	r0, r8, r1, lsl #12
    2178:	02030000 	andeq	r0, r3, #0, 0
    217c:	00019405 	andeq	r9, r1, r5, lsl #8
    2180:	05040300 	streq	r0, [r4, #-768]	; 0xfffffd00
    2184:	000000ca 	andeq	r0, r0, sl, asr #1
    2188:	c5050803 	strgt	r0, [r5, #-2051]	; 0xfffff7fd
    218c:	03000000 	movweq	r0, #0
    2190:	00560801 	subseq	r0, r6, r1, lsl #16
    2194:	02030000 	andeq	r0, r3, #0, 0
    2198:	00006d07 	andeq	r6, r0, r7, lsl #26
    219c:	07040300 	streq	r0, [r4, -r0, lsl #6]
    21a0:	000000ad 	andeq	r0, r0, sp, lsr #1
    21a4:	a8070803 	stmdage	r7, {r0, r1, fp}
    21a8:	04000000 	streq	r0, [r0], #-0
    21ac:	00000025 	andeq	r0, r0, r5, lsr #32
    21b0:	0000007a 	andeq	r0, r0, sl, ror r0
    21b4:	00002505 	andeq	r2, r0, r5, lsl #10
    21b8:	d3060000 	movwle	r0, #24576	; 0x6000
    21bc:	02000000 	andeq	r0, r0, #0, 0
    21c0:	00860e1c 	addeq	r0, r6, ip, lsl lr
    21c4:	04070000 	streq	r0, [r7], #-0
    21c8:	0000006b 	andeq	r0, r0, fp, rrx
    21cc:	00002504 	andeq	r2, r0, r4, lsl #10
    21d0:	00009b00 	andeq	r9, r0, r0, lsl #22
    21d4:	009b0500 	addseq	r0, fp, r0, lsl #10
    21d8:	07000000 	streq	r0, [r0, -r0]
    21dc:	0000a804 	andeq	sl, r0, r4, lsl #16
    21e0:	08010300 	stmdaeq	r1, {r8, r9}
    21e4:	0000005f 	andeq	r0, r0, pc, asr r0
    21e8:	0000a108 	andeq	sl, r0, r8, lsl #2
    21ec:	046e0600 	strbteq	r0, [lr], #-1536	; 0xfffffa00
    21f0:	21020000 	mrscs	r0, (UNDEF: 2)
    21f4:	0000b90e 	andeq	fp, r0, lr, lsl #18
    21f8:	8c040700 	stchi	7, cr0, [r4], {-0}
    21fc:	09000000 	stmdbeq	r0, {}	; <UNPREDICTABLE>
    2200:	000005e8 	andeq	r0, r0, r8, ror #11
    2204:	d8060401 	stmdale	r6, {r0, sl}
    2208:	3c00008b 	stccc	0, cr0, [r0], {139}	; 0x8b
    220c:	01000000 	mrseq	r0, (UNDEF: 0)
    2210:	0001549c 	muleq	r1, ip, r4
    2214:	04b40600 	ldrteq	r0, [r4], #1536	; 0x600
    2218:	05010000 	streq	r0, [r1, #-0]
    221c:	00002510 	andeq	r2, r0, r0, lsl r5
    2220:	04ea0600 	strbteq	r0, [sl], #1536	; 0x600
    2224:	05010000 	streq	r0, [r1, #-0]
    2228:	0000251f 	andeq	r2, r0, pc, lsl r5
    222c:	003a0a00 	eorseq	r0, sl, r0, lsl #20
    2230:	06010000 	streq	r0, [r1], -r0
    2234:	73620b07 	cmnvc	r2, #7168	; 0x1c00
    2238:	0a010073 	beq	4240c <__bss_end__+0x3877c>
    223c:	0001540a 	andeq	r5, r1, sl, lsl #8
    2240:	00137000 	andseq	r7, r3, r0
    2244:	00136a00 	andseq	r6, r3, r0, lsl #20
    2248:	05f00c00 	ldrbeq	r0, [r0, #3072]!	; 0xc00
    224c:	0b010000 	bleq	42254 <__bss_end__+0x385c4>
    2250:	0001540a 	andeq	r5, r1, sl, lsl #8
    2254:	8bfc0d00 	blhi	fff0565c <__bss_end__+0xffefb9cc>
    2258:	00080000 	andeq	r0, r8, r0
    225c:	012f0000 			; <UNDEFINED> instruction: 0x012f0000
    2260:	690e0000 	stmdbvs	lr, {}	; <UNPREDICTABLE>
    2264:	1401006e 	strne	r0, [r1], #-110	; 0xffffff92
    2268:	00002c05 	andeq	r2, r0, r5, lsl #24
    226c:	0f000100 	svceq	0x00000100
    2270:	00008be0 	andeq	r8, r0, r0, ror #23
    2274:	0000015a 	andeq	r0, r0, sl, asr r1
    2278:	008bfc0f 	addeq	pc, fp, pc, lsl #24
    227c:	00016700 	andeq	r6, r1, r0, lsl #14
    2280:	8c080f00 	stchi	15, cr0, [r8], {-0}
    2284:	01730000 	cmneq	r3, r0
    2288:	0c0f0000 	stceq	0, cr0, [pc], {-0}
    228c:	8000008c 	andhi	r0, r0, ip, lsl #1
    2290:	00000001 	andeq	r0, r0, r1
    2294:	00250407 	eoreq	r0, r5, r7, lsl #8
    2298:	02100000 	andseq	r0, r0, #0, 0
    229c:	02000006 	andeq	r0, r0, #6, 0
    22a0:	02000006 	andeq	r0, r0, #6, 0
    22a4:	11060136 	tstne	r6, r6, lsr r1
    22a8:	000005f8 	strdeq	r0, [r0], -r8
    22ac:	000005f8 	strdeq	r0, [r0], -r8
    22b0:	10063b02 	andne	r3, r6, r2, lsl #22
    22b4:	0000003a 	andeq	r0, r0, sl, lsr r0
    22b8:	0000003a 	andeq	r0, r0, sl, lsr r0
    22bc:	06010a02 	streq	r0, [r1], -r2, lsl #20
    22c0:	0004c811 	andeq	ip, r4, r1, lsl r8
    22c4:	0004c800 	andeq	ip, r4, r0, lsl #16
    22c8:	066e0200 	strbteq	r0, [lr], -r0, lsl #4
    22cc:	0000ce00 	andeq	ip, r0, r0, lsl #28
    22d0:	8f000400 	svchi	0x00000400
    22d4:	0400000b 	streq	r0, [r0], #-11
    22d8:	00030001 	andeq	r0, r3, r1
    22dc:	06250c00 	strteq	r0, [r5], -r0, lsl #24
    22e0:	03d10000 	bicseq	r0, r1, #0, 0
    22e4:	8c140000 	ldchi	0, cr0, [r4], {-0}
    22e8:	00040000 	andeq	r0, r4, r0
    22ec:	11a40000 			; <UNDEFINED> instruction: 0x11a40000
    22f0:	04020000 	streq	r0, [r2], #-0
    22f4:	746e6905 	strbtvc	r6, [lr], #-2309	; 0xfffff6fb
    22f8:	07040300 	streq	r0, [r4, -r0, lsl #6]
    22fc:	000000b2 	strheq	r0, [r0], -r2
    2300:	58060103 	stmdapl	r6, {r0, r1, r8}
    2304:	03000000 	movweq	r0, #0
    2308:	01940502 	orrseq	r0, r4, r2, lsl #10
    230c:	04030000 	streq	r0, [r3], #-0
    2310:	0000ca05 	andeq	ip, r0, r5, lsl #20
    2314:	05080300 	streq	r0, [r8, #-768]	; 0xfffffd00
    2318:	000000c5 	andeq	r0, r0, r5, asr #1
    231c:	56080103 	strpl	r0, [r8], -r3, lsl #2
    2320:	03000000 	movweq	r0, #0
    2324:	006d0702 	rsbeq	r0, sp, r2, lsl #14
    2328:	04030000 	streq	r0, [r3], #-0
    232c:	0000ad07 	andeq	sl, r0, r7, lsl #26
    2330:	07080300 	streq	r0, [r8, -r0, lsl #6]
    2334:	000000a8 	andeq	r0, r0, r8, lsr #1
    2338:	00002504 	andeq	r2, r0, r4, lsl #10
    233c:	00007a00 	andeq	r7, r0, r0, lsl #20
    2340:	00250500 	eoreq	r0, r5, r0, lsl #10
    2344:	06000000 	streq	r0, [r0], -r0
    2348:	000000d3 	ldrdeq	r0, [r0], -r3
    234c:	860e1c02 	strhi	r1, [lr], -r2, lsl #24
    2350:	07000000 	streq	r0, [r0, -r0]
    2354:	00006b04 	andeq	r6, r0, r4, lsl #22
    2358:	00250400 	eoreq	r0, r5, r0, lsl #8
    235c:	009b0000 	addseq	r0, fp, r0
    2360:	9b050000 	blls	142368 <__bss_end__+0x1386d8>
    2364:	00000000 	andeq	r0, r0, r0
    2368:	00a80407 	adceq	r0, r8, r7, lsl #8
    236c:	01030000 	mrseq	r0, (UNDEF: 3)
    2370:	00005f08 	andeq	r5, r0, r8, lsl #30
    2374:	00a10800 	adceq	r0, r1, r0, lsl #16
    2378:	6e060000 	cdpvs	0, 0, cr0, cr6, cr0, {0}
    237c:	02000004 	andeq	r0, r0, #4, 0
    2380:	00b90e21 	adcseq	r0, r9, r1, lsr #28
    2384:	04070000 	streq	r0, [r7], #-0
    2388:	0000008c 	andeq	r0, r0, ip, lsl #1
    238c:	00060209 	andeq	r0, r6, r9, lsl #4
    2390:	06040100 	streq	r0, [r4], -r0, lsl #2
    2394:	00008c14 	andeq	r8, r0, r4, lsl ip
    2398:	00000004 	andeq	r0, r0, r4
    239c:	36009c01 	strcc	r9, [r0], -r1, lsl #24
    23a0:	04000002 	streq	r0, [r0], #-2
    23a4:	000c0800 	andeq	r0, ip, r0, lsl #16
    23a8:	00010400 	andeq	r0, r1, r0, lsl #8
    23ac:	0c000003 	stceq	0, cr0, [r0], {3}
    23b0:	0000066d 	andeq	r0, r0, sp, ror #12
    23b4:	000003d1 	ldrdeq	r0, [r0], -r1
    23b8:	000001f8 	strdeq	r0, [r0], -r8
    23bc:	00000000 	andeq	r0, r0, r0
    23c0:	0000124a 	andeq	r1, r0, sl, asr #4
    23c4:	69050402 	stmdbvs	r5, {r1, sl}
    23c8:	0300746e 	movweq	r7, #1134	; 0x46e
    23cc:	00000025 	andeq	r0, r0, r5, lsr #32
    23d0:	b2070404 	andlt	r0, r7, #4, 8	; 0x4000000
    23d4:	04000000 	streq	r0, [r0], #-0
    23d8:	00580601 	subseq	r0, r8, r1, lsl #12
    23dc:	02040000 	andeq	r0, r4, #0, 0
    23e0:	00019405 	andeq	r9, r1, r5, lsl #8
    23e4:	05040400 	streq	r0, [r4, #-1024]	; 0xfffffc00
    23e8:	000000ca 	andeq	r0, r0, sl, asr #1
    23ec:	c5050804 	strgt	r0, [r5, #-2052]	; 0xfffff7fc
    23f0:	04000000 	streq	r0, [r0], #-0
    23f4:	00560801 	subseq	r0, r6, r1, lsl #16
    23f8:	02040000 	andeq	r0, r4, #0, 0
    23fc:	00006d07 	andeq	r6, r0, r7, lsl #26
    2400:	07040400 	streq	r0, [r4, -r0, lsl #8]
    2404:	000000ad 	andeq	r0, r0, sp, lsr #1
    2408:	a8070804 	stmdage	r7, {r2, fp}
    240c:	05000000 	streq	r0, [r0, #-0]
    2410:	00000025 	andeq	r0, r0, r5, lsr #32
    2414:	0000007f 	andeq	r0, r0, pc, ror r0
    2418:	00002506 	andeq	r2, r0, r6, lsl #10
    241c:	d3070000 	movwle	r0, #28672	; 0x7000
    2420:	02000000 	andeq	r0, r0, #0, 0
    2424:	008b0e1c 	addeq	r0, fp, ip, lsl lr
    2428:	04080000 	streq	r0, [r8], #-0
    242c:	00000070 	andeq	r0, r0, r0, ror r0
    2430:	00002505 	andeq	r2, r0, r5, lsl #10
    2434:	0000a000 	andeq	sl, r0, r0
    2438:	00a00600 	adceq	r0, r0, r0, lsl #12
    243c:	08000000 	stmdaeq	r0, {}	; <UNPREDICTABLE>
    2440:	0000ad04 	andeq	sl, r0, r4, lsl #26
    2444:	08010400 	stmdaeq	r1, {sl}
    2448:	0000005f 	andeq	r0, r0, pc, asr r0
    244c:	0000a603 	andeq	sl, r0, r3, lsl #12
    2450:	046e0700 	strbteq	r0, [lr], #-1792	; 0xfffff900
    2454:	21020000 	mrscs	r0, (UNDEF: 2)
    2458:	0000be0e 	andeq	fp, r0, lr, lsl #28
    245c:	91040800 	tstls	r4, r0, lsl #16
    2460:	09000000 	stmdbeq	r0, {}	; <UNPREDICTABLE>
    2464:	00000691 	muleq	r0, r1, r6
    2468:	31110d01 	tstcc	r1, r1, lsl #26
    246c:	0a000000 	beq	2474 <__code_start__-0x5b8c>
    2470:	000005b4 			; <UNDEFINED> instruction: 0x000005b4
    2474:	44061f01 	strmi	r1, [r6], #-3841	; 0xfffff0ff
    2478:	5400008c 	strpl	r0, [r0], #-140	; 0xffffff74
    247c:	01000000 	mrseq	r0, (UNDEF: 0)
    2480:	0001ae9c 	muleq	r1, ip, lr
    2484:	06b50b00 	ldrteq	r0, [r5], r0, lsl #22
    2488:	2c010000 	stccs	0, cr0, [r1], {-0}
    248c:	00002c0f 	andeq	r2, r0, pc, lsl #24
    2490:	00139d00 	andseq	r9, r3, r0, lsl #26
    2494:	00139b00 	andseq	r9, r3, r0, lsl #22
    2498:	06500b00 	ldrbeq	r0, [r0], -r0, lsl #22
    249c:	2d010000 	stccs	0, cr0, [r1, #-0]
    24a0:	00002c0f 	andeq	r2, r0, pc, lsl #24
    24a4:	0013b700 	andseq	fp, r3, r0, lsl #14
    24a8:	0013b500 	andseq	fp, r3, r0, lsl #10
    24ac:	06820b00 	streq	r0, [r2], r0, lsl #22
    24b0:	2e010000 	cdpcs	0, 0, cr0, cr1, cr0, {0}
    24b4:	00002c0f 	andeq	r2, r0, pc, lsl #24
    24b8:	0013d100 	andseq	sp, r3, r0, lsl #2
    24bc:	0013cf00 	andseq	ip, r3, r0, lsl #30
    24c0:	069c0b00 	ldreq	r0, [ip], r0, lsl #22
    24c4:	2f010000 	svccs	0x00010000
    24c8:	00002c0f 	andeq	r2, r0, pc, lsl #24
    24cc:	0013ea00 	andseq	lr, r3, r0, lsl #20
    24d0:	0013e800 	andseq	lr, r3, r0, lsl #16
    24d4:	8c4c0c00 	mcrrhi	12, 0, r0, ip, cr0
    24d8:	01d90000 	bicseq	r0, r9, r0
    24dc:	580c0000 	stmdapl	ip, {}	; <UNPREDICTABLE>
    24e0:	0800008c 	stmdaeq	r0, {r2, r3, r7}
    24e4:	0c000002 	stceq	0, cr0, [r0], {2}
    24e8:	00008c5c 	andeq	r8, r0, ip, asr ip
    24ec:	00000215 	andeq	r0, r0, r5, lsl r2
    24f0:	008c640d 	addeq	r6, ip, sp, lsl #8
    24f4:	00022100 	andeq	r2, r2, r0, lsl #2
    24f8:	00016400 	andeq	r6, r1, r0, lsl #8
    24fc:	50010e00 	andpl	r0, r1, r0, lsl #28
    2500:	0d003a01 	vstreq	s6, [r0, #-4]
    2504:	00008c70 	andeq	r8, r0, r0, ror ip
    2508:	0000022d 	andeq	r0, r0, sp, lsr #4
    250c:	00000184 	andeq	r0, r0, r4, lsl #3
    2510:	0550010e 	ldrbeq	r0, [r0, #-270]	; 0xfffffef2
    2514:	1000240c 	andne	r2, r0, ip, lsl #8
    2518:	51010e20 	tstpl	r1, r0, lsr #28
    251c:	00010c05 	andeq	r0, r1, r5, lsl #24
    2520:	0d005a00 	vstreq	s10, [r0, #-0]
    2524:	00008c7c 	andeq	r8, r0, ip, ror ip
    2528:	0000022d 	andeq	r0, r0, sp, lsr #4
    252c:	000001a4 	andeq	r0, r0, r4, lsr #3
    2530:	0550010e 	ldrbeq	r0, [r0, #-270]	; 0xfffffef2
    2534:	10001c0c 	andne	r1, r0, ip, lsl #24
    2538:	51010e20 	tstpl	r1, r0, lsr #28
    253c:	00200c05 	eoreq	r0, r0, r5, lsl #24
    2540:	0c005a00 			; <UNDEFINED> instruction: 0x0c005a00
    2544:	00008c84 	andeq	r8, r0, r4, lsl #25
    2548:	000001ae 	andeq	r0, r0, lr, lsr #3
    254c:	065e0f00 	ldrbeq	r0, [lr], -r0, lsl #30
    2550:	17010000 	strne	r0, [r1, -r0]
    2554:	008c3006 	addeq	r3, ip, r6
    2558:	00001400 	andeq	r1, r0, r0, lsl #8
    255c:	d99c0100 	ldmible	ip, {r8}
    2560:	0b000001 	bleq	256c <__code_start__-0x5a94>
    2564:	000006bd 			; <UNDEFINED> instruction: 0x000006bd
    2568:	310e1801 	tstcc	lr, r1, lsl #16
    256c:	05000000 	streq	r0, [r0, #-0]
    2570:	ff000014 			; <UNDEFINED> instruction: 0xff000014
    2574:	00000013 	andeq	r0, r0, r3, lsl r0
    2578:	00068e10 	andeq	r8, r6, r0, lsl lr
    257c:	050e0100 	streq	r0, [lr, #-256]	; 0xffffff00
    2580:	00000025 	andeq	r0, r0, r5, lsr #32
    2584:	00008c18 	andeq	r8, r0, r8, lsl ip
    2588:	00000018 	andeq	r0, r0, r8, lsl r0
    258c:	02089c01 	andeq	r9, r8, #256	; 0x100
    2590:	bd0b0000 	stclt	0, cr0, [fp, #-0]
    2594:	01000006 	tsteq	r0, r6
    2598:	00310e0f 	eorseq	r0, r1, pc, lsl #28
    259c:	14330000 	ldrtne	r0, [r3], #-0
    25a0:	142f0000 	strtne	r0, [pc], #-0	; 25a8 <__code_start__-0x5a58>
    25a4:	11000000 	mrsne	r0, (UNDEF: 0)
    25a8:	00000641 	andeq	r0, r0, r1, asr #12
    25ac:	00000641 	andeq	r0, r0, r1, asr #12
    25b0:	06013b02 	streq	r3, [r1], -r2, lsl #22
    25b4:	0005da12 	andeq	sp, r5, r2, lsl sl
    25b8:	0005da00 	andeq	sp, r5, r0, lsl #20
    25bc:	064d0200 	strbeq	r0, [sp], -r0, lsl #4
    25c0:	00006412 	andeq	r6, r0, r2, lsl r4
    25c4:	00006400 	andeq	r6, r0, r0, lsl #8
    25c8:	06580200 	ldrbeq	r0, [r8], -r0, lsl #4
    25cc:	00065812 	andeq	r5, r6, r2, lsl r8
    25d0:	00065800 	andeq	r5, r6, r0, lsl #16
    25d4:	06b20200 	ldrteq	r0, [r2], r0, lsl #4
    25d8:	00024d00 	andeq	r4, r2, r0, lsl #26
    25dc:	2d000400 	cfstrscs	mvf0, [r0, #-0]
    25e0:	0400000d 	streq	r0, [r0], #-13
    25e4:	00030001 	andeq	r0, r3, r1
    25e8:	06d80c00 	ldrbeq	r0, [r8], r0, lsl #24
    25ec:	03d10000 	bicseq	r0, r1, #0, 0
    25f0:	8c980000 	ldchi	0, cr0, [r8], {0}
    25f4:	00840000 	addeq	r0, r4, r0
    25f8:	13400000 	movtne	r0, #0
    25fc:	04020000 	streq	r0, [r2], #-0
    2600:	746e6905 	strbtvc	r6, [lr], #-2309	; 0xfffff6fb
    2604:	07040300 	streq	r0, [r4, -r0, lsl #6]
    2608:	000000b2 	strheq	r0, [r0], -r2
    260c:	58060103 	stmdapl	r6, {r0, r1, r8}
    2610:	03000000 	movweq	r0, #0
    2614:	01940502 	orrseq	r0, r4, r2, lsl #10
    2618:	04030000 	streq	r0, [r3], #-0
    261c:	0000ca05 	andeq	ip, r0, r5, lsl #20
    2620:	05080300 	streq	r0, [r8, #-768]	; 0xfffffd00
    2624:	000000c5 	andeq	r0, r0, r5, asr #1
    2628:	56080103 	strpl	r0, [r8], -r3, lsl #2
    262c:	03000000 	movweq	r0, #0
    2630:	006d0702 	rsbeq	r0, sp, r2, lsl #14
    2634:	04030000 	streq	r0, [r3], #-0
    2638:	0000ad07 	andeq	sl, r0, r7, lsl #26
    263c:	07080300 	streq	r0, [r8, -r0, lsl #6]
    2640:	000000a8 	andeq	r0, r0, r8, lsr #1
    2644:	00002504 	andeq	r2, r0, r4, lsl #10
    2648:	00007a00 	andeq	r7, r0, r0, lsl #20
    264c:	00250500 	eoreq	r0, r5, r0, lsl #10
    2650:	06000000 	streq	r0, [r0], -r0
    2654:	000000d3 	ldrdeq	r0, [r0], -r3
    2658:	860e1c02 	strhi	r1, [lr], -r2, lsl #24
    265c:	07000000 	streq	r0, [r0, -r0]
    2660:	00006b04 	andeq	r6, r0, r4, lsl #22
    2664:	00250400 	eoreq	r0, r5, r0, lsl #8
    2668:	009b0000 	addseq	r0, fp, r0
    266c:	9b050000 	blls	142674 <__bss_end__+0x1389e4>
    2670:	00000000 	andeq	r0, r0, r0
    2674:	00a80407 	adceq	r0, r8, r7, lsl #8
    2678:	01030000 	mrseq	r0, (UNDEF: 3)
    267c:	00005f08 	andeq	r5, r0, r8, lsl #30
    2680:	00a10800 	adceq	r0, r1, r0, lsl #16
    2684:	6e060000 	cdpvs	0, 0, cr0, cr6, cr0, {0}
    2688:	02000004 	andeq	r0, r0, #4, 0
    268c:	00b90e21 	adcseq	r0, r9, r1, lsr #28
    2690:	04070000 	streq	r0, [r7], #-0
    2694:	0000008c 	andeq	r0, r0, ip, lsl #1
    2698:	0006ce09 	andeq	ip, r6, r9, lsl #28
    269c:	061e0100 	ldreq	r0, [lr], -r0, lsl #2
    26a0:	00008d04 	andeq	r8, r0, r4, lsl #26
    26a4:	00000018 	andeq	r0, r0, r8, lsl r0
    26a8:	01099c01 	tsteq	r9, r1, lsl #24
    26ac:	730a0000 	movwvc	r0, #40960	; 0xa000
    26b0:	01006365 	tsteq	r0, r5, ror #6
    26b4:	002c191e 	eoreq	r1, ip, lr, lsl r9
    26b8:	14560000 	ldrbne	r0, [r6], #-0
    26bc:	14520000 	ldrbne	r0, [r2], #-0
    26c0:	180b0000 	stmdane	fp, {}	; <UNPREDICTABLE>
    26c4:	0900008d 	stmdbeq	r0, {r0, r2, r3, r7}
    26c8:	0c000001 	stceq	0, cr0, [r0], {1}
    26cc:	f3115001 	vhadd.u16	d5, d1, d1
    26d0:	24355001 	ldrtcs	r5, [r5], #-1
    26d4:	1c5001f3 	ldfnee	f0, [r0], {243}	; 0xf3
    26d8:	01f32432 	mvnseq	r2, r2, lsr r4
    26dc:	24332250 	ldrtcs	r2, [r3], #-592	; 0xfffffdb0
    26e0:	64090000 	strvs	r0, [r9], #-0
    26e4:	01000000 	mrseq	r0, (UNDEF: 0)
    26e8:	8cec061b 	stclhi	6, cr0, [ip], #108	; 0x6c
    26ec:	00180000 	andseq	r0, r8, r0
    26f0:	9c010000 	stcls	0, cr0, [r1], {-0}
    26f4:	00000152 	andeq	r0, r0, r2, asr r1
    26f8:	00736d0a 	rsbseq	r6, r3, sl, lsl #26
    26fc:	2c181b01 			; <UNDEFINED> instruction: 0x2c181b01
    2700:	7b000000 	blvc	2708 <__code_start__-0x58f8>
    2704:	77000014 	smladvc	r0, r4, r0, r0
    2708:	0b000014 	bleq	2760 <__code_start__-0x58a0>
    270c:	00008d00 	andeq	r8, r0, r0, lsl #26
    2710:	00000152 	andeq	r0, r0, r2, asr r1
    2714:	1150010c 	cmpne	r0, ip, lsl #2
    2718:	355001f3 	ldrbcc	r0, [r0, #-499]	; 0xfffffe0d
    271c:	5001f324 	andpl	pc, r1, r4, lsr #6
    2720:	f324321c 	vqsub.u32	d3, d4, d12
    2724:	33225001 			; <UNDEFINED> instruction: 0x33225001
    2728:	09000024 	stmdbeq	r0, {r2, r5}
    272c:	00000701 	andeq	r0, r0, r1, lsl #14
    2730:	c8061201 	stmdagt	r6, {r0, r9, ip}
    2734:	2400008c 	strcs	r0, [r0], #-140	; 0xffffff74
    2738:	01000000 	mrseq	r0, (UNDEF: 0)
    273c:	0001c29c 	muleq	r1, ip, r2
    2740:	73750a00 	cmnvc	r5, #0, 20
    2744:	18120100 	ldmdane	r2, {r8}
    2748:	0000002c 	andeq	r0, r0, ip, lsr #32
    274c:	000014a0 	andeq	r1, r0, r0, lsr #9
    2750:	0000149c 	muleq	r0, ip, r4
    2754:	0062720d 	rsbeq	r7, r2, sp, lsl #4
    2758:	2c0e1301 	stccs	3, cr1, [lr], {1}
    275c:	c0000000 	andgt	r0, r0, r0
    2760:	be000014 	mcrlt	0, 0, r0, cr0, cr4, {0}
    2764:	0e000014 	mcreq	0, 0, r0, cr0, cr4, {0}
    2768:	00008cd8 	ldrdeq	r8, [r0], -r8	; <UNPREDICTABLE>
    276c:	00000014 	andeq	r0, r0, r4, lsl r0
    2770:	000001b8 			; <UNDEFINED> instruction: 0x000001b8
    2774:	0061720d 	rsbeq	r7, r1, sp, lsl #4
    2778:	2c121501 	cfldr32cs	mvfx1, [r2], {1}
    277c:	d5000000 	strle	r0, [r0, #-0]
    2780:	d3000014 	movwle	r0, #20
    2784:	0f000014 	svceq	0x00000014
    2788:	00008cdc 	ldrdeq	r8, [r0], -ip
    278c:	000001c2 	andeq	r0, r0, r2, asr #3
    2790:	8cd40f00 	ldclhi	15, cr0, [r4], {0}
    2794:	01c20000 	biceq	r0, r2, r0
    2798:	10000000 	andne	r0, r0, r0
    279c:	000006f2 	strdeq	r0, [r0], -r2
    27a0:	2c0a0901 			; <UNDEFINED> instruction: 0x2c0a0901
    27a4:	ac000000 	stcge	0, cr0, [r0], {-0}
    27a8:	1c00008c 	stcne	0, cr0, [r0], {140}	; 0x8c
    27ac:	01000000 	mrseq	r0, (UNDEF: 0)
    27b0:	00020a9c 	muleq	r2, ip, sl
    27b4:	00750d00 	rsbseq	r0, r5, r0, lsl #26
    27b8:	2c0e0d01 	stccs	13, cr0, [lr], {1}
    27bc:	ec000000 	stc	0, cr0, [r0], {-0}
    27c0:	e8000014 	stmda	r0, {r2, r4}
    27c4:	0f000014 	svceq	0x00000014
    27c8:	00008cb4 			; <UNDEFINED> instruction: 0x00008cb4
    27cc:	00000238 	andeq	r0, r0, r8, lsr r2
    27d0:	008cb80f 	addeq	fp, ip, pc, lsl #16
    27d4:	00020a00 	andeq	r0, r2, r0, lsl #20
    27d8:	8cc00f00 	stclhi	15, cr0, [r0], {0}
    27dc:	02380000 	eorseq	r0, r8, #0, 0
    27e0:	10000000 	andne	r0, r0, r0
    27e4:	0000070a 	andeq	r0, r0, sl, lsl #14
    27e8:	2c0a0401 	cfstrscs	mvf0, [sl], {1}
    27ec:	98000000 	stmdals	r0, {}	; <UNPREDICTABLE>
    27f0:	1400008c 	strne	r0, [r0], #-140	; 0xffffff74
    27f4:	01000000 	mrseq	r0, (UNDEF: 0)
    27f8:	0002389c 	muleq	r2, ip, r8
    27fc:	8ca40b00 	vstmiahi	r4!, {d0-d-1}
    2800:	02440000 	subeq	r0, r4, #0, 0
    2804:	010c0000 	mrseq	r0, (UNDEF: 12)
    2808:	040c0550 	streq	r0, [ip], #-1360	; 0xfffffab0
    280c:	00200030 	eoreq	r0, r0, r0, lsr r0
    2810:	06c21100 	strbeq	r1, [r2], r0, lsl #2
    2814:	06c20000 	strbeq	r0, [r2], r0
    2818:	a1020000 	mrsge	r0, (UNDEF: 2)
    281c:	06ec1106 	strbteq	r1, [ip], r6, lsl #2
    2820:	06ec0000 	strbteq	r0, [ip], r0
    2824:	c7020000 	strgt	r0, [r2, -r0]
    2828:	03a5000a 			; <UNDEFINED> instruction: 0x03a5000a
    282c:	00040000 	andeq	r0, r4, r0
    2830:	00000e2e 	andeq	r0, r0, lr, lsr #28
    2834:	080e0104 	stmdaeq	lr, {r2, r8}
    2838:	bf0c0000 	svclt	0x000c0000
    283c:	bb000008 	bllt	2864 <__code_start__-0x579c>
    2840:	1c000007 	stcne	0, cr0, [r0], {7}
    2844:	1c00008d 	stcne	0, cr0, [r0], {141}	; 0x8d
    2848:	3d000001 	stccc	0, cr0, [r0, #-4]
    284c:	02000014 	andeq	r0, r0, #20, 0
    2850:	6e690504 	cdpvs	5, 6, cr0, cr9, cr4, {0}
    2854:	04030074 	streq	r0, [r3], #-116	; 0xffffff8c
    2858:	0000b207 	andeq	fp, r0, r7, lsl #4
    285c:	002c0400 	eoreq	r0, ip, r0, lsl #8
    2860:	01030000 	mrseq	r0, (UNDEF: 3)
    2864:	00005806 	andeq	r5, r0, r6, lsl #16
    2868:	05020300 	streq	r0, [r2, #-768]	; 0xfffffd00
    286c:	00000194 	muleq	r0, r4, r1
    2870:	ca050403 	bgt	143884 <__bss_end__+0x139bf4>
    2874:	03000000 	movweq	r0, #0
    2878:	00c50508 	sbceq	r0, r5, r8, lsl #10
    287c:	01030000 	mrseq	r0, (UNDEF: 3)
    2880:	00005608 	andeq	r5, r0, r8, lsl #12
    2884:	07020300 	streq	r0, [r2, -r0, lsl #6]
    2888:	0000006d 	andeq	r0, r0, sp, rrx
    288c:	00028b05 	andeq	r8, r2, r5, lsl #22
    2890:	19340300 	ldmdbne	r4!, {r8, r9}
    2894:	0000006e 	andeq	r0, r0, lr, rrx
    2898:	ad070403 	cfstrsge	mvf0, [r7, #-12]
    289c:	03000000 	movweq	r0, #0
    28a0:	00a80708 	adceq	r0, r8, r8, lsl #14
    28a4:	01030000 	mrseq	r0, (UNDEF: 3)
    28a8:	00005f08 	andeq	r5, r0, r8, lsl #30
    28ac:	01070600 	tsteq	r7, r0, lsl #12
    28b0:	00000054 	andeq	r0, r0, r4, asr r0
    28b4:	c20e0c04 	andgt	r0, lr, #4, 24	; 0x400
    28b8:	07000000 	streq	r0, [r0, -r0]
    28bc:	000008c6 	andeq	r0, r0, r6, asr #17
    28c0:	073c0700 	ldreq	r0, [ip, -r0, lsl #14]!
    28c4:	07010000 	streq	r0, [r1, -r0]
    28c8:	00000761 	andeq	r0, r0, r1, ror #14
    28cc:	07700704 	ldrbeq	r0, [r0, -r4, lsl #14]!
    28d0:	07050000 	streq	r0, [r5, -r0]
    28d4:	0000077f 	andeq	r0, r0, pc, ror r7
    28d8:	078e0706 	streq	r0, [lr, r6, lsl #14]
    28dc:	07070000 	streq	r0, [r7, -r0]
    28e0:	000008ab 	andeq	r0, r0, fp, lsr #17
    28e4:	079d0703 	ldreq	r0, [sp, r3, lsl #14]
    28e8:	00020000 	andeq	r0, r2, r0
    28ec:	00080205 	andeq	r0, r8, r5, lsl #4
    28f0:	03150400 	tsteq	r5, #0, 8
    28f4:	00000083 	andeq	r0, r0, r3, lsl #1
    28f8:	00072708 	andeq	r2, r7, r8, lsl #14
    28fc:	171d0100 	ldrne	r0, [sp, -r0, lsl #2]
    2900:	00000033 	andeq	r0, r0, r3, lsr r0
    2904:	2020001c 	eorcs	r0, r0, ip, lsl r0
    2908:	00071d08 	andeq	r1, r7, r8, lsl #26
    290c:	171e0100 	ldrne	r0, [lr, -r0, lsl #2]
    2910:	00000033 	andeq	r0, r0, r3, lsr r0
    2914:	20200028 	eorcs	r0, r0, r8, lsr #32
    2918:	0008a108 	andeq	sl, r8, r8, lsl #2
    291c:	171f0100 	ldrne	r0, [pc, -r0, lsl #2]
    2920:	00000033 	andeq	r0, r0, r3, lsr r0
    2924:	20200034 	eorcs	r0, r0, r4, lsr r0
    2928:	00075709 	andeq	r5, r7, r9, lsl #14
    292c:	05550100 	ldrbeq	r0, [r5, #-256]	; 0xffffff00
    2930:	00000025 	andeq	r0, r0, r5, lsr #32
    2934:	00008e04 	andeq	r8, r0, r4, lsl #28
    2938:	00000034 	andeq	r0, r0, r4, lsr r0
    293c:	016e9c01 	cmneq	lr, r1, lsl #24
    2940:	700a0000 	andvc	r0, sl, r0
    2944:	01006e69 	tsteq	r0, r9, ror #28
    2948:	002c1855 	eoreq	r1, ip, r5, asr r8
    294c:	15120000 	ldrne	r0, [r2, #-0]
    2950:	150a0000 	strne	r0, [sl, #-0]
    2954:	ba0b0000 	blt	2c295c <__bss_end__+0x2b8ccc>
    2958:	01000008 	tsteq	r0, r8
    295c:	002c0e58 	eoreq	r0, ip, r8, asr lr
    2960:	15520000 	ldrbne	r0, [r2, #-0]
    2964:	154c0000 	strbne	r0, [ip, #-0]
    2968:	6f0c0000 	svcvs	0x000c0000
    296c:	01006666 	tsteq	r0, r6, ror #12
    2970:	002c0e59 	eoreq	r0, ip, r9, asr lr
    2974:	15920000 	ldrne	r0, [r2]
    2978:	15900000 	ldrne	r0, [r0]
    297c:	200d0000 	andcs	r0, sp, r0
    2980:	9000008e 	andls	r0, r0, lr, lsl #1
    2984:	0e000003 	cdpeq	0, 0, cr0, cr0, cr3, {0}
    2988:	f30b5001 	vhadd.u8	d5, d11, d1
    298c:	25355001 	ldrcs	r5, [r5, #-1]!
    2990:	8080b423 	addhi	fp, r0, r3, lsr #8
    2994:	00000281 	andeq	r0, r0, r1, lsl #5
    2998:	0007310f 	andeq	r3, r7, pc, lsl #2
    299c:	064e0100 	strbeq	r0, [lr], -r0, lsl #2
    29a0:	00008de8 	andeq	r8, r0, r8, ror #27
    29a4:	0000001c 	andeq	r0, r0, ip, lsl r0
    29a8:	01c99c01 	biceq	r9, r9, r1, lsl #24
    29ac:	700a0000 	andvc	r0, sl, r0
    29b0:	01006e69 	tsteq	r0, r9, ror #28
    29b4:	002c1a4e 	eoreq	r1, ip, lr, asr #20
    29b8:	15ad0000 	strne	r0, [sp, #0]!
    29bc:	15a50000 	strne	r0, [r5, #0]!
    29c0:	760a0000 	strvc	r0, [sl], -r0
    29c4:	284e0100 	stmdacs	lr, {r8}^
    29c8:	0000002c 	andeq	r0, r0, ip, lsr #32
    29cc:	000015ef 	andeq	r1, r0, pc, ror #11
    29d0:	000015e7 	andeq	r1, r0, r7, ror #11
    29d4:	008df810 	addeq	pc, sp, r0, lsl r8	; <UNPREDICTABLE>
    29d8:	00025100 	andeq	r5, r2, r0, lsl #2
    29dc:	0001bf00 	andeq	fp, r1, r0, lsl #30
    29e0:	50010e00 	andpl	r0, r1, r0, lsl #28
    29e4:	5001f303 	andpl	pc, r1, r3, lsl #6
    29e8:	8e001100 	adfhis	f1, f0, f0
    29ec:	020a0000 	andeq	r0, sl, #0, 0
    29f0:	0f000000 	svceq	0x00000000
    29f4:	000007ac 	andeq	r0, r0, ip, lsr #15
    29f8:	d8064901 	stmdale	r6, {r0, r8, fp, lr}
    29fc:	1000008d 	andne	r0, r0, sp, lsl #1
    2a00:	01000000 	mrseq	r0, (UNDEF: 0)
    2a04:	00020a9c 	muleq	r2, ip, sl
    2a08:	69700a00 	ldmdbvs	r0!, {r9, fp}^
    2a0c:	4901006e 	stmdbmi	r1, {r1, r2, r3, r5, r6}
    2a10:	00002c1e 	andeq	r2, r0, lr, lsl ip
    2a14:	00162d00 	andseq	r2, r6, r0, lsl #26
    2a18:	00162900 	andseq	r2, r6, r0, lsl #18
    2a1c:	8de40d00 	stclhi	13, cr0, [r4]
    2a20:	02d90000 	sbcseq	r0, r9, #0, 0
    2a24:	010e0000 	mrseq	r0, (UNDEF: 14)
    2a28:	01f30350 	mvnseq	r0, r0, asr r3
    2a2c:	51010e50 	tstpl	r1, r0, asr lr
    2a30:	00003001 	andeq	r3, r0, r1
    2a34:	0007f00f 	andeq	pc, r7, pc
    2a38:	06420100 	strbeq	r0, [r2], -r0, lsl #2
    2a3c:	00008db4 			; <UNDEFINED> instruction: 0x00008db4
    2a40:	00000024 	andeq	r0, r0, r4, lsr #32
    2a44:	02519c01 	subseq	r9, r1, #256	; 0x100
    2a48:	700a0000 	andvc	r0, sl, r0
    2a4c:	01006e69 	tsteq	r0, r9, ror #28
    2a50:	002c1c42 	eoreq	r1, ip, r2, asr #24
    2a54:	16520000 	ldrbne	r0, [r2], -r0
    2a58:	164e0000 	strbne	r0, [lr], -r0
    2a5c:	d00d0000 	andle	r0, sp, r0
    2a60:	9c00008d 	stcls	0, cr0, [r0], {141}	; 0x8d
    2a64:	0e000003 	cdpeq	0, 0, cr0, cr0, cr3, {0}
    2a68:	0c055001 	stceq	0, cr5, [r5], {1}
    2a6c:	20200028 	eorcs	r0, r0, r8, lsr #32
    2a70:	0551010e 	ldrbeq	r0, [r1, #-270]	; 0xfffffef2
    2a74:	5001f331 	andpl	pc, r1, r1, lsr r3	; <UNPREDICTABLE>
    2a78:	0f000024 	svceq	0x00000024
    2a7c:	000008e8 	andeq	r0, r0, r8, ror #17
    2a80:	90063b01 	andls	r3, r6, r1, lsl #22
    2a84:	2400008d 	strcs	r0, [r0], #-141	; 0xffffff73
    2a88:	01000000 	mrseq	r0, (UNDEF: 0)
    2a8c:	0002989c 	muleq	r2, ip, r8
    2a90:	69700a00 	ldmdbvs	r0!, {r9, fp}^
    2a94:	3b01006e 	blcc	42c54 <__bss_end__+0x38fc4>
    2a98:	00002c1b 	andeq	r2, r0, fp, lsl ip
    2a9c:	00167700 	andseq	r7, r6, r0, lsl #14
    2aa0:	00167300 	andseq	r7, r6, r0, lsl #6
    2aa4:	8dac0d00 	stchi	13, cr0, [ip]
    2aa8:	039c0000 	orrseq	r0, ip, #0, 0
    2aac:	010e0000 	mrseq	r0, (UNDEF: 14)
    2ab0:	1c0c0550 	cfstr32ne	mvfx0, [ip], {80}	; 0x50
    2ab4:	0e202000 	cdpeq	0, 2, cr2, cr0, cr0, {0}
    2ab8:	31055101 	tstcc	r5, r1, lsl #2
    2abc:	245001f3 	ldrbcs	r0, [r0], #-499	; 0xfffffe0d
    2ac0:	8d0f0000 	stchi	0, cr0, [pc, #-0]	; 2ac8 <__code_start__-0x5538>
    2ac4:	01000000 	mrseq	r0, (UNDEF: 0)
    2ac8:	8d800636 	stchi	6, cr0, [r0, #216]	; 0xd8
    2acc:	00100000 	andseq	r0, r0, r0
    2ad0:	9c010000 	stcls	0, cr0, [r1], {-0}
    2ad4:	000002d9 	ldrdeq	r0, [r0], -r9
    2ad8:	6e69700a 	cdpvs	0, 6, cr7, cr9, cr10, {0}
    2adc:	1f360100 	svcne	0x00360100
    2ae0:	0000002c 	andeq	r0, r0, ip, lsr #32
    2ae4:	0000169c 	muleq	r0, ip, r6
    2ae8:	00001698 	muleq	r0, r8, r6
    2aec:	008d8c0d 	addeq	r8, sp, sp, lsl #24
    2af0:	0002d900 	andeq	sp, r2, r0, lsl #18
    2af4:	50010e00 	andpl	r0, r1, r0, lsl #28
    2af8:	5001f303 	andpl	pc, r1, r3, lsl #6
    2afc:	0151010e 	cmpeq	r1, lr, lsl #2
    2b00:	0f000031 	svceq	0x00000031
    2b04:	000008d6 	ldrdeq	r0, [r0], -r6
    2b08:	1c062801 	stcne	8, cr2, [r6], {1}
    2b0c:	6400008d 	strvs	r0, [r0], #-141	; 0xffffff73
    2b10:	01000000 	mrseq	r0, (UNDEF: 0)
    2b14:	0003749c 	muleq	r3, ip, r4
    2b18:	69700a00 	ldmdbvs	r0!, {r9, fp}^
    2b1c:	2801006e 	stmdacs	r1, {r1, r2, r3, r5, r6}
    2b20:	00002c21 	andeq	r2, r0, r1, lsr #24
    2b24:	0016c100 	andseq	ip, r6, r0, lsl #2
    2b28:	0016bd00 	andseq	fp, r6, r0, lsl #26
    2b2c:	07fd1200 	ldrbeq	r1, [sp, r0, lsl #4]!
    2b30:	28010000 	stmdacs	r1, {}	; <UNPREDICTABLE>
    2b34:	0000c232 	andeq	ip, r0, r2, lsr r2
    2b38:	0016e600 	andseq	lr, r6, r0, lsl #12
    2b3c:	0016e200 	andseq	lr, r6, r0, lsl #4
    2b40:	666f0c00 	strbtvs	r0, [pc], -r0, lsl #24
    2b44:	2d010066 	stccs	0, cr0, [r1, #-408]	; 0xfffffe68
    2b48:	00002c0e 	andeq	r2, r0, lr, lsl #24
    2b4c:	00170900 	andseq	r0, r7, r0, lsl #18
    2b50:	00170700 	andseq	r0, r7, r0, lsl #14
    2b54:	00670c00 	rsbeq	r0, r7, r0, lsl #24
    2b58:	2c0e2e01 	stccs	14, cr2, [lr], {1}
    2b5c:	1e000000 	cdpne	0, 0, cr0, cr0, cr0, {0}
    2b60:	1c000017 	stcne	0, cr0, [r0], {23}
    2b64:	0c000017 	stceq	0, cr0, [r0], {23}
    2b68:	30010076 	andcc	r0, r1, r6, ror r0
    2b6c:	00002c0e 	andeq	r2, r0, lr, lsl #24
    2b70:	00173900 	andseq	r3, r7, r0, lsl #18
    2b74:	00173100 	andseq	r3, r7, r0, lsl #2
    2b78:	8d641000 	stclhi	0, cr1, [r4, #-0]
    2b7c:	03900000 	orrseq	r0, r0, #0, 0
    2b80:	03630000 	cmneq	r3, #0, 0
    2b84:	010e0000 	mrseq	r0, (UNDEF: 14)
    2b88:	00760250 	rsbseq	r0, r6, r0, asr r2
    2b8c:	8d780d00 	ldclhi	13, cr0, [r8, #-0]
    2b90:	039c0000 	orrseq	r0, ip, #0, 0
    2b94:	010e0000 	mrseq	r0, (UNDEF: 14)
    2b98:	00760250 	rsbseq	r0, r6, r0, asr r2
    2b9c:	4d130000 	ldcmi	0, cr0, [r3, #-0]
    2ba0:	02000007 	andeq	r0, r0, #7, 0
    2ba4:	006218b6 	strhteq	r1, [r2], #-134	; 0xffffff7a
    2ba8:	90030000 	andls	r0, r3, r0
    2bac:	14000003 	strne	r0, [r0], #-3
    2bb0:	b6020078 			; <UNDEFINED> instruction: 0xb6020078
    2bb4:	0000622b 	andeq	r6, r0, fp, lsr #4
    2bb8:	ec150000 	ldc	0, cr0, [r5], {-0}
    2bbc:	ec000006 	stc	0, cr0, [r0], {6}
    2bc0:	02000006 	andeq	r0, r0, #6, 0
    2bc4:	58150ac7 	ldmdapl	r5, {r0, r1, r2, r6, r7, r9, fp}
    2bc8:	58000006 	stmdapl	r0, {r1, r2}
    2bcc:	02000006 	andeq	r0, r0, #6, 0
    2bd0:	cd0006b2 	stcgt	6, cr0, [r0, #-712]	; 0xfffffd38
    2bd4:	04000005 	streq	r0, [r0], #-5
    2bd8:	000f8b00 	andeq	r8, pc, r0, lsl #22
    2bdc:	0e010400 	cfcpyseq	mvf0, mvf1
    2be0:	0c000008 	stceq	0, cr0, [r0], {8}
    2be4:	00000922 	andeq	r0, r0, r2, lsr #18
    2be8:	000007bb 			; <UNDEFINED> instruction: 0x000007bb
    2bec:	00008e38 	andeq	r8, r0, r8, lsr lr
    2bf0:	000001f0 	strdeq	r0, [r0], -r0	; <UNPREDICTABLE>
    2bf4:	000015fc 	strdeq	r1, [r0], -ip
    2bf8:	69050402 	stmdbvs	r5, {r1, sl}
    2bfc:	0300746e 	movweq	r7, #1134	; 0x46e
    2c00:	00b20704 	adcseq	r0, r2, r4, lsl #14
    2c04:	2c040000 	stccs	0, cr0, [r4], {-0}
    2c08:	03000000 	movweq	r0, #0
    2c0c:	00580601 	subseq	r0, r8, r1, lsl #12
    2c10:	02030000 	andeq	r0, r3, #0, 0
    2c14:	00019405 	andeq	r9, r1, r5, lsl #8
    2c18:	05040300 	streq	r0, [r4, #-768]	; 0xfffffd00
    2c1c:	000000ca 	andeq	r0, r0, sl, asr #1
    2c20:	c5050803 	strgt	r0, [r5, #-2051]	; 0xfffff7fd
    2c24:	03000000 	movweq	r0, #0
    2c28:	00560801 	subseq	r0, r6, r1, lsl #16
    2c2c:	02030000 	andeq	r0, r3, #0, 0
    2c30:	00006d07 	andeq	r6, r0, r7, lsl #26
    2c34:	028b0500 	addeq	r0, fp, #0, 10
    2c38:	34050000 	strcc	r0, [r5], #-0
    2c3c:	00006e19 	andeq	r6, r0, r9, lsl lr
    2c40:	07040300 	streq	r0, [r4, -r0, lsl #6]
    2c44:	000000ad 	andeq	r0, r0, sp, lsr #1
    2c48:	a8070803 	stmdage	r7, {r0, r1, fp}
    2c4c:	03000000 	movweq	r0, #0
    2c50:	005f0801 	subseq	r0, pc, r1, lsl #16
    2c54:	07060000 	streq	r0, [r6, -r0]
    2c58:	00005401 	andeq	r5, r0, r1, lsl #8
    2c5c:	0e0c0400 	cfcpyseq	mvf0, mvf12
    2c60:	000000c2 	andeq	r0, r0, r2, asr #1
    2c64:	0008c607 	andeq	ip, r8, r7, lsl #12
    2c68:	3c070000 	stccc	0, cr0, [r7], {-0}
    2c6c:	01000007 	tsteq	r0, r7
    2c70:	00076107 	andeq	r6, r7, r7, lsl #2
    2c74:	70070400 	andvc	r0, r7, r0, lsl #8
    2c78:	05000007 	streq	r0, [r0, #-7]
    2c7c:	00077f07 	andeq	r7, r7, r7, lsl #30
    2c80:	8e070600 	cfmadd32hi	mvax0, mvfx0, mvfx7, mvfx0
    2c84:	07000007 	streq	r0, [r0, -r7]
    2c88:	0008ab07 	andeq	sl, r8, r7, lsl #22
    2c8c:	9d070300 	stcls	3, cr0, [r7, #-0]
    2c90:	02000007 	andeq	r0, r0, #7, 0
    2c94:	09160800 	ldmdbeq	r6, {fp}
    2c98:	022c0000 	eoreq	r0, ip, #0, 0
    2c9c:	015e0806 	cmpeq	lr, r6, lsl #16
    2ca0:	69090000 	stmdbvs	r9, {}	; <UNPREDICTABLE>
    2ca4:	0902006f 	stmdbeq	r2, {r0, r1, r2, r3, r5, r6}
    2ca8:	00003309 	andeq	r3, r0, r9, lsl #6
    2cac:	69090000 	stmdbvs	r9, {}	; <UNPREDICTABLE>
    2cb0:	02007265 	andeq	r7, r0, #1342177286	; 0x50000006
    2cb4:	0033090a 	eorseq	r0, r3, sl, lsl #18
    2cb8:	09040000 	stmdbeq	r4, {}	; <UNPREDICTABLE>
    2cbc:	00726969 	rsbseq	r6, r2, r9, ror #18
    2cc0:	33091102 	movwcc	r1, #37122	; 0x9102
    2cc4:	08000000 	stmdaeq	r0, {}	; <UNPREDICTABLE>
    2cc8:	72636c09 	rsbvc	r6, r3, #2304	; 0x900
    2ccc:	09130200 	ldmdbeq	r3, {r9}
    2cd0:	00000033 	andeq	r0, r0, r3, lsr r0
    2cd4:	636d090c 	cmnvs	sp, #12, 18	; 0x30000
    2cd8:	14020072 	strne	r0, [r2], #-114	; 0xffffff8e
    2cdc:	00003309 	andeq	r3, r0, r9, lsl #6
    2ce0:	6c091000 	stcvs	0, cr1, [r9], {-0}
    2ce4:	02007273 	andeq	r7, r0, #805306375	; 0x30000007
    2ce8:	00330915 	eorseq	r0, r3, r5, lsl r9
    2cec:	09140000 	ldmdbeq	r4, {}	; <UNPREDICTABLE>
    2cf0:	0072736d 	rsbseq	r7, r2, sp, ror #6
    2cf4:	33091602 	movwcc	r1, #38402	; 0x9602
    2cf8:	18000000 	stmdane	r0, {}	; <UNPREDICTABLE>
    2cfc:	00098b0a 	andeq	r8, r9, sl, lsl #22
    2d00:	09170200 	ldmdbeq	r7, {r9}
    2d04:	00000033 	andeq	r0, r0, r3, lsr r0
    2d08:	09630a1c 	stmdbeq	r3!, {r2, r3, r4, r9, fp}^
    2d0c:	1b020000 	blne	82d14 <__bss_end__+0x79084>
    2d10:	00003309 	andeq	r3, r0, r9, lsl #6
    2d14:	030a2000 	movweq	r2, #40960	; 0xa000
    2d18:	02000009 	andeq	r0, r0, #9, 0
    2d1c:	0033091d 	eorseq	r0, r3, sp, lsl r9
    2d20:	0a240000 	beq	902d28 <__bss_end__+0x8f9098>
    2d24:	00000948 	andeq	r0, r0, r8, asr #18
    2d28:	33091e02 	movwcc	r1, #40450	; 0x9e02
    2d2c:	28000000 	stmdacs	r0, {}	; <UNPREDICTABLE>
    2d30:	094d0b00 	stmdbeq	sp, {r8, r9, fp}^
    2d34:	08010000 	stmdaeq	r1, {}	; <UNPREDICTABLE>
    2d38:	00017409 	andeq	r7, r1, r9, lsl #8
    2d3c:	21500400 	cmpcs	r0, r0, lsl #8
    2d40:	33040c20 	movwcc	r0, #19488	; 0x4c20
    2d44:	0d000000 	stceq	0, cr0, [r0, #-0]
    2d48:	0000016e 	andeq	r0, r0, lr, ror #2
    2d4c:	0009930b 	andeq	r9, r9, fp, lsl #6
    2d50:	23290100 			; <UNDEFINED> instruction: 0x23290100
    2d54:	0000018f 	andeq	r0, r0, pc, lsl #3
    2d58:	20215040 	eorcs	r5, r1, r0, asr #32
    2d5c:	00c2040c 	sbceq	r0, r2, ip, lsl #8
    2d60:	890d0000 	stmdbhi	sp, {}	; <UNPREDICTABLE>
    2d64:	0e000001 	cdpeq	0, 0, cr0, cr0, cr1, {0}
    2d68:	000005da 	ldrdeq	r0, [r0], -sl
    2d6c:	f006cc01 			; <UNDEFINED> instruction: 0xf006cc01
    2d70:	1400008f 	strne	r0, [r0], #-143	; 0xffffff71
    2d74:	01000000 	mrseq	r0, (UNDEF: 0)
    2d78:	0001b49c 	muleq	r1, ip, r4
    2d7c:	8ff80f00 	svchi	0x00f80f00
    2d80:	01b40000 			; <UNDEFINED> instruction: 0x01b40000
    2d84:	10000000 	andne	r0, r0, r0
    2d88:	00000937 	andeq	r0, r0, r7, lsr r9
    2d8c:	2505b601 	strcs	fp, [r5, #-1537]	; 0xfffff9ff
    2d90:	d0000000 	andle	r0, r0, r0
    2d94:	2000008f 	andcs	r0, r0, pc, lsl #1
    2d98:	01000000 	mrseq	r0, (UNDEF: 0)
    2d9c:	0001eb9c 	muleq	r1, ip, fp
    2da0:	8fd80f00 	svchi	0x00d80f00
    2da4:	05a00000 	streq	r0, [r0, #0]!
    2da8:	e0110000 	ands	r0, r1, r0
    2dac:	ac00008f 	stcge	0, cr0, [r0], {143}	; 0x8f
    2db0:	12000005 	andne	r0, r0, #5, 0
    2db4:	0c055001 	stceq	0, cr5, [r5], {1}
    2db8:	20215064 	eorcs	r5, r1, r4, rrx
    2dbc:	75100000 	ldrvc	r0, [r0, #-0]
    2dc0:	01000009 	tsteq	r0, r9
    2dc4:	002505b3 	strhteq	r0, [r5], -r3
    2dc8:	8fc00000 	svchi	0x00c00000
    2dcc:	00100000 	andseq	r0, r0, r0
    2dd0:	9c010000 	stcls	0, cr0, [r1], {-0}
    2dd4:	00000218 	andeq	r0, r0, r8, lsl r2
    2dd8:	008fc80f 	addeq	ip, pc, pc, lsl #16
    2ddc:	0005a000 	andeq	sl, r5, r0
    2de0:	8fcc0f00 	svchi	0x00cc0f00
    2de4:	03090000 	movweq	r0, #36864	; 0x9000
    2de8:	0e000000 	cdpeq	0, 0, cr0, cr0, cr0, {0}
    2dec:	000009a1 	andeq	r0, r0, r1, lsr #19
    2df0:	9006ab01 	andls	sl, r6, r1, lsl #22
    2df4:	3000008f 	andcc	r0, r0, pc, lsl #1
    2df8:	01000000 	mrseq	r0, (UNDEF: 0)
    2dfc:	00027c9c 	muleq	r2, ip, ip
    2e00:	00631300 	rsbeq	r1, r3, r0, lsl #6
    2e04:	2c19ab01 			; <UNDEFINED> instruction: 0x2c19ab01
    2e08:	79000000 	stmdbvc	r0, {}	; <UNPREDICTABLE>
    2e0c:	75000017 	strvc	r0, [r0, #-23]	; 0xffffffe9
    2e10:	0f000017 	svceq	0x00000017
    2e14:	00008f9c 	muleq	r0, ip, pc	; <UNPREDICTABLE>
    2e18:	000005a0 	andeq	r0, r0, r0, lsr #11
    2e1c:	008fa00f 	addeq	sl, pc, pc
    2e20:	0002db00 	andeq	sp, r2, r0, lsl #22
    2e24:	8fb41400 	svchi	0x00b41400
    2e28:	05b80000 	ldreq	r0, [r8, #0]!
    2e2c:	02720000 	rsbseq	r0, r2, #0, 0
    2e30:	01120000 	tsteq	r2, r0
    2e34:	400c0550 	andmi	r0, ip, r0, asr r5
    2e38:	12202150 	eorne	r2, r0, #20
    2e3c:	74055101 	strvc	r5, [r5], #-257	; 0xfffffeff
    2e40:	1aff0800 	bne	fffc4e48 <__bss_end__+0xfffbb1b8>
    2e44:	8fb80f00 	svchi	0x00b80f00
    2e48:	05a00000 	streq	r0, [r0, #0]!
    2e4c:	10000000 	andne	r0, r0, r0
    2e50:	00000959 	andeq	r0, r0, r9, asr r9
    2e54:	2505a301 	strcs	sl, [r5, #-769]	; 0xfffffcff
    2e58:	60000000 	andvs	r0, r0, r0
    2e5c:	3000008f 	andcc	r0, r0, pc, lsl #1
    2e60:	01000000 	mrseq	r0, (UNDEF: 0)
    2e64:	0002db9c 	muleq	r2, ip, fp
    2e68:	00631500 	rsbeq	r1, r3, r0, lsl #10
    2e6c:	2509a701 	strcs	sl, [r9, #-1793]	; 0xfffff8ff
    2e70:	99000000 	stmdbls	r0, {}	; <UNPREDICTABLE>
    2e74:	97000017 	smladls	r0, r7, r0, r0
    2e78:	0f000017 	svceq	0x00000017
    2e7c:	00008f68 	andeq	r8, r0, r8, ror #30
    2e80:	000005a0 	andeq	r0, r0, r0, lsr #11
    2e84:	008f6c0f 	addeq	r6, pc, pc, lsl #24
    2e88:	00030900 	andeq	r0, r3, r0, lsl #18
    2e8c:	8f7c1400 	svchi	0x007c1400
    2e90:	05ac0000 	streq	r0, [ip, #0]!
    2e94:	02d10000 	sbcseq	r0, r1, #0, 0
    2e98:	01120000 	tsteq	r2, r0
    2e9c:	400c0550 	andmi	r0, ip, r0, asr r5
    2ea0:	00202150 	eoreq	r2, r0, r0, asr r1
    2ea4:	008f840f 	addeq	r8, pc, pc, lsl #8
    2ea8:	0005a000 	andeq	sl, r5, r0
    2eac:	29100000 	ldmdbcs	r0, {}	; <UNPREDICTABLE>
    2eb0:	01000009 	tsteq	r0, r9
    2eb4:	00250594 	mlaeq	r5, r4, r5, r0
    2eb8:	8f400000 	svchi	0x00400000
    2ebc:	00200000 	eoreq	r0, r0, r0
    2ec0:	9c010000 	stcls	0, cr0, [r1], {-0}
    2ec4:	00000309 	andeq	r0, r0, r9, lsl #6
    2ec8:	008f4c11 	addeq	r4, pc, r1, lsl ip	; <UNPREDICTABLE>
    2ecc:	0005ac00 	andeq	sl, r5, r0, lsl #24
    2ed0:	50011200 	andpl	r1, r1, r0, lsl #4
    2ed4:	50640c05 	rsbpl	r0, r4, r5, lsl #24
    2ed8:	00002021 	andeq	r2, r0, r1, lsr #32
    2edc:	00090810 	andeq	r0, r9, r0, lsl r8
    2ee0:	058b0100 	streq	r0, [fp, #256]	; 0x100
    2ee4:	00000025 	andeq	r0, r0, r5, lsr #32
    2ee8:	00008f28 	andeq	r8, r0, r8, lsr #30
    2eec:	00000018 	andeq	r0, r0, r8, lsl r0
    2ef0:	03379c01 	teqeq	r7, #256	; 0x100
    2ef4:	34110000 	ldrcc	r0, [r1], #-0
    2ef8:	ac00008f 	stcge	0, cr0, [r0], {143}	; 0x8f
    2efc:	12000005 	andne	r0, r0, #5, 0
    2f00:	0c055001 	stceq	0, cr5, [r5], {1}
    2f04:	20215064 	eorcs	r5, r1, r4, rrx
    2f08:	f80e0000 			; <UNDEFINED> instruction: 0xf80e0000
    2f0c:	01000005 	tsteq	r0, r5
    2f10:	8e780645 	cdphi	6, 7, cr0, cr8, cr5, {2}
    2f14:	00b00000 	adcseq	r0, r0, r0
    2f18:	9c010000 	stcls	0, cr0, [r1], {-0}
    2f1c:	00000484 	andeq	r0, r0, r4, lsl #9
    2f20:	0008fa16 	andeq	pc, r8, r6, lsl sl	; <UNPREDICTABLE>
    2f24:	0e7e0100 	rpweqe	f0, f6, f0
    2f28:	00000062 	andeq	r0, r0, r2, rrx
    2f2c:	8814010e 	ldmdahi	r4, {r1, r2, r3, r8}
    2f30:	c400008e 	strgt	r0, [r0], #-142	; 0xffffff72
    2f34:	73000005 	movwvc	r0, #5
    2f38:	12000003 	andne	r0, r0, #3, 0
    2f3c:	3e015001 	cdpcc	0, 0, cr5, cr1, cr1, {0}
    2f40:	01510112 	cmpeq	r1, r2, lsl r1
    2f44:	94140032 	ldrls	r0, [r4], #-50	; 0xffffffce
    2f48:	c400008e 	strgt	r0, [r0], #-142	; 0xffffff72
    2f4c:	8b000005 	blhi	2f68 <__code_start__-0x5098>
    2f50:	12000003 	andne	r0, r0, #3, 0
    2f54:	3f015001 	svccc	0x00015001
    2f58:	01510112 	cmpeq	r1, r2, lsl r1
    2f5c:	980f0032 	stmdals	pc, {r1, r4, r5}	; <UNPREDICTABLE>
    2f60:	a000008e 	andge	r0, r0, lr, lsl #1
    2f64:	14000005 	strne	r0, [r0], #-5
    2f68:	00008ea4 	andeq	r8, r0, r4, lsr #29
    2f6c:	0000053d 	andeq	r0, r0, sp, lsr r5
    2f70:	000003b0 			; <UNDEFINED> instruction: 0x000003b0
    2f74:	05500112 	ldrbeq	r0, [r0, #-274]	; 0xfffffeee
    2f78:	2150040c 	cmpcs	r0, ip, lsl #8
    2f7c:	51011220 	tstpl	r1, r0, lsr #4
    2f80:	0f003101 	svceq	0x00003101
    2f84:	00008ea8 	andeq	r8, r0, r8, lsr #29
    2f88:	000005a0 	andeq	r0, r0, r0, lsr #11
    2f8c:	008eb814 	addeq	fp, lr, r4, lsl r8
    2f90:	0005b800 	andeq	fp, r5, r0, lsl #16
    2f94:	0003d200 	andeq	sp, r3, r0, lsl #4
    2f98:	50011200 	andpl	r1, r1, r0, lsl #4
    2f9c:	12007402 	andne	r7, r0, #33554432	; 0x2000000
    2fa0:	30015101 	andcc	r5, r1, r1, lsl #2
    2fa4:	8ec41400 	cdphi	4, 12, cr1, cr4, cr0, {0}
    2fa8:	05b80000 	ldreq	r0, [r8, #0]!
    2fac:	03ee0000 	mvneq	r0, #0, 0
    2fb0:	01120000 	tsteq	r2, r0
    2fb4:	440c0550 	strmi	r0, [ip], #-1360	; 0xfffffab0
    2fb8:	12202150 	eorne	r2, r0, #20
    2fbc:	30015101 	andcc	r5, r1, r1, lsl #2
    2fc0:	8ed01400 	cdphi	4, 13, cr1, cr0, cr0, {0}
    2fc4:	05b80000 	ldreq	r0, [r8, #0]!
    2fc8:	040a0000 	streq	r0, [sl], #-0
    2fcc:	01120000 	tsteq	r2, r0
    2fd0:	4c0c0550 	cfstr32mi	mvfx0, [ip], {80}	; 0x50
    2fd4:	12202150 	eorne	r2, r0, #20
    2fd8:	33015101 	movwcc	r5, #4353	; 0x1101
    2fdc:	8edc1400 	cdphi	4, 13, cr1, cr12, cr0, {0}
    2fe0:	05b80000 	ldreq	r0, [r8, #0]!
    2fe4:	04260000 	strteq	r0, [r6], #-0
    2fe8:	01120000 	tsteq	r2, r0
    2fec:	500c0550 	andpl	r0, ip, r0, asr r5
    2ff0:	12202150 	eorne	r2, r0, #20
    2ff4:	30015101 	andcc	r5, r1, r1, lsl #2
    2ff8:	8ee81400 	cdphi	4, 14, cr1, cr8, cr0, {0}
    2ffc:	05b80000 	ldreq	r0, [r8, #0]!
    3000:	04430000 	strbeq	r0, [r3], #-0
    3004:	01120000 	tsteq	r2, r0
    3008:	480c0550 	stmdami	ip, {r4, r6, r8, sl}
    300c:	12202150 	eorne	r2, r0, #20
    3010:	08025101 	stmdaeq	r2, {r0, r8, ip, lr}
    3014:	f41400c7 			; <UNDEFINED> instruction: 0xf41400c7
    3018:	b800008e 	stmdalt	r0, {r1, r2, r3, r7}
    301c:	61000005 	tstvs	r0, r5
    3020:	12000004 	andne	r0, r0, #4, 0
    3024:	0c055001 	stceq	0, cr5, [r5], {1}
    3028:	20215068 	eorcs	r5, r1, r8, rrx
    302c:	03510112 	cmpeq	r1, #-2147483644	; 0x80000004
    3030:	00010e0a 	andeq	r0, r1, sl, lsl #28
    3034:	008f0014 	addeq	r0, pc, r4, lsl r0	; <UNPREDICTABLE>
    3038:	0005b800 	andeq	fp, r5, r0, lsl #16
    303c:	00047a00 	andeq	r7, r4, r0, lsl #20
    3040:	50011200 	andpl	r1, r1, r0, lsl #4
    3044:	12007402 	andne	r7, r0, #33554432	; 0x2000000
    3048:	33015101 	movwcc	r5, #4353	; 0x1101
    304c:	8f040f00 	svchi	0x00040f00
    3050:	05a00000 	streq	r0, [r0, #0]!
    3054:	0e000000 	cdpeq	0, 0, cr0, cr0, cr0, {0}
    3058:	00000968 	andeq	r0, r0, r8, ror #18
    305c:	04063501 	streq	r3, [r6], #-1281	; 0xfffffaff
    3060:	24000090 	strcs	r0, [r0], #-144	; 0xffffff70
    3064:	01000000 	mrseq	r0, (UNDEF: 0)
    3068:	0004d39c 	muleq	r4, ip, r3
    306c:	900c0f00 	andls	r0, ip, r0, lsl #30
    3070:	01940000 	orrseq	r0, r4, r0
    3074:	100f0000 	andne	r0, pc, r0
    3078:	a0000090 	mulge	r0, r0, r0
    307c:	14000005 	strne	r0, [r0], #-5
    3080:	0000901c 	andeq	r9, r0, ip, lsl r0
    3084:	000004d3 	ldrdeq	r0, [r0], -r3
    3088:	000004c9 	andeq	r0, r0, r9, asr #9
    308c:	05500112 	ldrbeq	r0, [r0, #-274]	; 0xfffffeee
    3090:	2150040c 	cmpcs	r0, ip, lsl #8
    3094:	51011220 	tstpl	r1, r0, lsr #4
    3098:	00fe0902 	rscseq	r0, lr, r2, lsl #18
    309c:	0090200f 	addseq	r2, r0, pc
    30a0:	0005a000 	andeq	sl, r5, r0
    30a4:	98170000 	ldmdals	r7, {}	; <UNPREDICTABLE>
    30a8:	01000009 	tsteq	r0, r9
    30ac:	8e380d31 	mrchi	13, 1, r0, cr8, cr1, {1}
    30b0:	00200000 	eoreq	r0, r0, r0
    30b4:	9c010000 	stcls	0, cr0, [r1], {-0}
    30b8:	00000536 	andeq	r0, r0, r6, lsr r5
    30bc:	0009d018 	andeq	sp, r9, r8, lsl r0
    30c0:	25310100 	ldrcs	r0, [r1, #-256]!	; 0xffffff00
    30c4:	00000536 	andeq	r0, r0, r6, lsr r5
    30c8:	000017b0 			; <UNDEFINED> instruction: 0x000017b0
    30cc:	000017ac 	andeq	r1, r0, ip, lsr #15
    30d0:	6c617613 	stclvs	6, cr7, [r1], #-76	; 0xffffffb4
    30d4:	34310100 	ldrtcc	r0, [r1], #-256	; 0xffffff00
    30d8:	0000002c 	andeq	r0, r0, ip, lsr #32
    30dc:	000017d2 	ldrdeq	r1, [r0], -r2
    30e0:	000017ce 	andeq	r1, r0, lr, asr #15
    30e4:	008e4814 	addeq	r4, lr, r4, lsl r8
    30e8:	0005ac00 	andeq	sl, r5, r0, lsl #24
    30ec:	00052500 	andeq	r2, r5, r0, lsl #10
    30f0:	50011200 	andpl	r1, r1, r0, lsl #4
    30f4:	00007402 	andeq	r7, r0, r2, lsl #8
    30f8:	008e5411 	addeq	r5, lr, r1, lsl r4
    30fc:	0005b800 	andeq	fp, r5, r0, lsl #16
    3100:	50011200 	andpl	r1, r1, r0, lsl #4
    3104:	00007402 	andeq	r7, r0, r2, lsl #8
    3108:	3c040c00 	stccc	12, cr0, [r4], {-0}
    310c:	19000005 	stmdbne	r0, {r0, r2}
    3110:	00098317 	andeq	r8, r9, r7, lsl r3
    3114:	0d2e0100 	stfeqs	f0, [lr, #-0]
    3118:	00008e58 	andeq	r8, r0, r8, asr lr
    311c:	00000020 	andeq	r0, r0, r0, lsr #32
    3120:	05a09c01 	streq	r9, [r0, #3073]!	; 0xc01
    3124:	d0180000 	andsle	r0, r8, r0
    3128:	01000009 	tsteq	r0, r9
    312c:	0536242e 	ldreq	r2, [r6, #-1070]!	; 0xfffffbd2
    3130:	17f40000 	ldrbne	r0, [r4, r0]!
    3134:	17f00000 	ldrbne	r0, [r0, r0]!
    3138:	76130000 	ldrvc	r0, [r3], -r0
    313c:	01006c61 	tsteq	r0, r1, ror #24
    3140:	002c332e 	eoreq	r3, ip, lr, lsr #6
    3144:	18160000 	ldmdane	r6, {}	; <UNPREDICTABLE>
    3148:	18120000 	ldmdane	r2, {}	; <UNPREDICTABLE>
    314c:	68140000 	ldmdavs	r4, {}	; <UNPREDICTABLE>
    3150:	ac00008e 	stcge	0, cr0, [r0], {142}	; 0x8e
    3154:	8f000005 	svchi	0x00000005
    3158:	12000005 	andne	r0, r0, #5, 0
    315c:	74025001 	strvc	r5, [r2], #-1
    3160:	74110000 	ldrvc	r0, [r1], #-0
    3164:	b800008e 	stmdalt	r0, {r1, r2, r3, r7}
    3168:	12000005 	andne	r0, r0, #5, 0
    316c:	74025001 	strvc	r5, [r2], #-1
    3170:	1a000000 	bne	3178 <__code_start__-0x4e88>
    3174:	000006c2 	andeq	r0, r0, r2, asr #13
    3178:	000006c2 	andeq	r0, r0, r2, asr #13
    317c:	1a06a103 	bne	1ab590 <__bss_end__+0x1a1900>
    3180:	000009ab 	andeq	r0, r0, fp, lsr #19
    3184:	000009ab 	andeq	r0, r0, fp, lsr #19
    3188:	1a0bc803 	bne	2f519c <__bss_end__+0x2eb50c>
    318c:	000008f4 	strdeq	r0, [r0], -r4
    3190:	000008f4 	strdeq	r0, [r0], -r4
    3194:	1a06b303 	bne	1afda8 <__bss_end__+0x1a6118>
    3198:	000008d6 	ldrdeq	r0, [r0], -r6
    319c:	000008d6 	ldrdeq	r0, [r0], -r6
    31a0:	00061904 	andeq	r1, r6, r4, lsl #18
    31a4:	000008e9 	andeq	r0, r0, r9, ror #17
    31a8:	11230004 			; <UNDEFINED> instruction: 0x11230004
    31ac:	01040000 	mrseq	r0, (UNDEF: 4)
    31b0:	0000080e 	andeq	r0, r0, lr, lsl #16
    31b4:	000a4d0c 	andeq	r4, sl, ip, lsl #26
    31b8:	0007bb00 	andeq	fp, r7, r0, lsl #22
    31bc:	00902800 	addseq	r2, r0, r0, lsl #16
    31c0:	0003b000 	andeq	fp, r3, r0
    31c4:	00180500 	andseq	r0, r8, r0, lsl #10
    31c8:	05040200 	streq	r0, [r4, #-512]	; 0xfffffe00
    31cc:	00746e69 	rsbseq	r6, r4, r9, ror #28
    31d0:	b2070403 	andlt	r0, r7, #50331648	; 0x3000000
    31d4:	03000000 	movweq	r0, #0
    31d8:	00580601 	subseq	r0, r8, r1, lsl #12
    31dc:	02030000 	andeq	r0, r3, #0, 0
    31e0:	00019405 	andeq	r9, r1, r5, lsl #8
    31e4:	05040300 	streq	r0, [r4, #-768]	; 0xfffffd00
    31e8:	000000ca 	andeq	r0, r0, sl, asr #1
    31ec:	c5050803 	strgt	r0, [r5, #-2051]	; 0xfffff7fd
    31f0:	03000000 	movweq	r0, #0
    31f4:	00560801 	subseq	r0, r6, r1, lsl #16
    31f8:	02030000 	andeq	r0, r3, #0, 0
    31fc:	00006d07 	andeq	r6, r0, r7, lsl #26
    3200:	028b0400 	addeq	r0, fp, #0, 8
    3204:	34030000 	strcc	r0, [r3], #-0
    3208:	00006919 	andeq	r6, r0, r9, lsl r9
    320c:	07040300 	streq	r0, [r4, -r0, lsl #6]
    3210:	000000ad 	andeq	r0, r0, sp, lsr #1
    3214:	a8070803 	stmdage	r7, {r0, r1, fp}
    3218:	03000000 	movweq	r0, #0
    321c:	005f0801 	subseq	r0, pc, r1, lsl #16
    3220:	77050000 	strvc	r0, [r5, -r0]
    3224:	03000000 	movweq	r0, #0
    3228:	0a6f0408 	beq	1bc4250 <__bss_end__+0x1bba5c0>
    322c:	04060000 	streq	r0, [r6], #-0
    3230:	2c040707 	stccs	7, cr0, [r4], {7}
    3234:	01000000 	mrseq	r0, (UNDEF: 0)
    3238:	00a4061f 	adceq	r0, r4, pc, lsl r6
    323c:	db080000 	blle	203244 <__bss_end__+0x1f95b4>
    3240:	00000009 	andeq	r0, r0, r9
    3244:	00002000 	andeq	r2, r0, r0
    3248:	0004f609 	andeq	pc, r4, r9, lsl #12
    324c:	0d220100 	stfeqs	f0, [r2, #-0]
    3250:	00000077 	andeq	r0, r0, r7, ror r0
    3254:	0009f60a 	andeq	pc, r9, sl, lsl #12
    3258:	0e230100 	sufeqs	f0, f3, f0
    325c:	000000c2 	andeq	r0, r0, r2, asr #1
    3260:	98840305 	stmls	r4, {r0, r2, r8, r9}
    3264:	040b0000 	streq	r0, [fp], #-0
    3268:	00000077 	andeq	r0, r0, r7, ror r0
    326c:	0009b90a 	andeq	fp, r9, sl, lsl #18
    3270:	0e240100 	sufeqs	f0, f4, f0
    3274:	000000c2 	andeq	r0, r0, r2, asr #1
    3278:	98800305 	stmls	r0, {r0, r2, r8, r9}
    327c:	2c0a0000 	stccs	0, cr0, [sl], {-0}
    3280:	0100000a 	tsteq	r0, sl
    3284:	00c20e25 	sbceq	r0, r2, r5, lsr #28
    3288:	03050000 	movweq	r0, #20480	; 0x5000
    328c:	0000987c 	andeq	r9, r0, ip, ror r8
    3290:	000a020c 	andeq	r0, sl, ip, lsl #4
    3294:	06750100 	ldrbteq	r0, [r5], -r0, lsl #2
    3298:	00009378 	andeq	r9, r0, r8, ror r3
    329c:	00000060 	andeq	r0, r0, r0, rrx
    32a0:	01649c01 	cmneq	r4, r1, lsl #24
    32a4:	700d0000 	andvc	r0, sp, r0
    32a8:	16750100 	ldrbtne	r0, [r5], -r0, lsl #2
    32ac:	0000008a 	andeq	r0, r0, sl, lsl #1
    32b0:	0000183a 	andeq	r1, r0, sl, lsr r8
    32b4:	00001834 	andeq	r1, r0, r4, lsr r8
    32b8:	0002610e 	andeq	r6, r2, lr, lsl #2
    32bc:	00017400 	andeq	r7, r1, r0, lsl #8
    32c0:	6c030500 	cfstr32vs	mvfx0, [r3], {-0}
    32c4:	0f000098 	svceq	0x00000098
    32c8:	000093c4 	andeq	r9, r0, r4, asr #7
    32cc:	000008bc 			; <UNDEFINED> instruction: 0x000008bc
    32d0:	0000015a 	andeq	r0, r0, sl, asr r1
    32d4:	05500110 	ldrbeq	r0, [r0, #-272]	; 0xfffffef0
    32d8:	0097e403 	addseq	lr, r7, r3, lsl #8
    32dc:	51011000 	mrspl	r1, (UNDEF: 1)
    32e0:	967c0305 	ldrbtls	r0, [ip], -r5, lsl #6
    32e4:	01100000 	tsteq	r0, r0
    32e8:	6c030552 	cfstr32vs	mvfx0, [r3], {82}	; 0x52
    32ec:	10000098 	mulne	r0, r8, r0
    32f0:	08025301 	stmdaeq	r2, {r0, r8, r9, ip, lr}
    32f4:	7d021077 	stcvc	0, cr1, [r2, #-476]	; 0xfffffe24
    32f8:	01f30300 	mvnseq	r0, r0, lsl #6
    32fc:	c8110050 	ldmdagt	r1, {r4, r6}
    3300:	c8000093 	stmdagt	r0, {r0, r1, r4, r7}
    3304:	00000008 	andeq	r0, r0, r8
    3308:	00007e12 	andeq	r7, r0, r2, lsl lr
    330c:	00017400 	andeq	r7, r1, r0, lsl #8
    3310:	002c1300 	eoreq	r1, ip, r0, lsl #6
    3314:	00090000 	andeq	r0, r9, r0
    3318:	00016405 	andeq	r6, r1, r5, lsl #8
    331c:	09e41400 	stmibeq	r4!, {sl, ip}^
    3320:	72010000 	andvc	r0, r1, #0, 0
    3324:	00936406 	addseq	r6, r3, r6, lsl #8
    3328:	00001400 	andeq	r1, r0, r0, lsl #8
    332c:	0c9c0100 	ldfeqs	f0, [ip], {0}
    3330:	000009d5 	ldrdeq	r0, [r0], -r5
    3334:	60066f01 	andvs	r6, r6, r1, lsl #30
    3338:	04000093 	streq	r0, [r0], #-147	; 0xffffff6d
    333c:	01000000 	mrseq	r0, (UNDEF: 0)
    3340:	0001ae9c 	muleq	r1, ip, lr
    3344:	00701500 	rsbseq	r1, r0, r0, lsl #10
    3348:	8a126f01 	bhi	49ef54 <__bss_end__+0x4952c4>
    334c:	01000000 	mrseq	r0, (UNDEF: 0)
    3350:	ad160050 	ldcge	0, cr0, [r6, #-320]	; 0xfffffec0
    3354:	0100000a 	tsteq	r0, sl
    3358:	008a075e 	addeq	r0, sl, lr, asr r7
    335c:	92480000 	subls	r0, r8, #0, 0
    3360:	01180000 	tsteq	r8, r0
    3364:	9c010000 	stcls	0, cr0, [r1], {-0}
    3368:	0000042c 	andeq	r0, r0, ip, lsr #8
    336c:	0009c817 	andeq	ip, r9, r7, lsl r8
    3370:	205e0100 	subscs	r0, lr, r0, lsl #2
    3374:	0000002c 	andeq	r0, r0, ip, lsr #32
    3378:	0000187b 	andeq	r1, r0, fp, ror r8
    337c:	00001867 	andeq	r1, r0, r7, ror #16
    3380:	000a0c17 	andeq	r0, sl, r7, lsl ip
    3384:	315e0100 	cmpcc	lr, r0, lsl #2
    3388:	0000002c 	andeq	r0, r0, ip, lsr #32
    338c:	00001914 	andeq	r1, r0, r4, lsl r9
    3390:	00001900 	andeq	r1, r0, r0, lsl #18
    3394:	0002610e 	andeq	r6, r2, lr, lsl #2
    3398:	00043c00 	andeq	r3, r4, r0, lsl #24
    339c:	54030500 	strpl	r0, [r3], #-1280	; 0xfffffb00
    33a0:	18000098 	stmdane	r0, {r3, r4, r7}
    33a4:	66010068 	strvs	r0, [r1], -r8, rrx
    33a8:	00002c0e 	andeq	r2, r0, lr, lsl #24
    33ac:	0019ca00 	andseq	ip, r9, r0, lsl #20
    33b0:	0019be00 	andseq	fp, r9, r0, lsl #28
    33b4:	08541900 	ldmdaeq	r4, {r8, fp, ip}^
    33b8:	92580000 	subsls	r0, r8, #0, 0
    33bc:	58040000 	stmdapl	r4, {}	; <UNPREDICTABLE>
    33c0:	04000092 	streq	r0, [r0], #-146	; 0xffffff6e
    33c4:	01000000 	mrseq	r0, (UNDEF: 0)
    33c8:	02380560 	eorseq	r0, r8, #96, 10	; 0x18000000
    33cc:	651a0000 	ldrvs	r0, [sl, #-0]
    33d0:	1e000008 	cdpne	0, 0, cr0, cr0, cr8, {0}
    33d4:	1c00001a 	stcne	0, cr0, [r0], {26}
    33d8:	0000001a 	andeq	r0, r0, sl, lsl r0
    33dc:	00089619 	andeq	r9, r8, r9, lsl r6
    33e0:	00926400 	addseq	r6, r2, r0, lsl #8
    33e4:	92640200 	rsbls	r0, r4, #0, 4
    33e8:	00080000 	andeq	r0, r8, r0
    33ec:	61010000 	mrsvs	r0, (UNDEF: 1)
    33f0:	00026c11 	andeq	r6, r2, r1, lsl ip
    33f4:	08b11a00 	ldmeq	r1!, {r9, fp, ip}
    33f8:	1a330000 	bne	cc3400 <__bss_end__+0xcb9770>
    33fc:	1a310000 	bne	c43404 <__bss_end__+0xc39774>
    3400:	a71a0000 	ldrge	r0, [sl, -r0]
    3404:	49000008 	stmdbmi	r0, {r3}
    3408:	4700001a 	smladmi	r0, sl, r0, r0
    340c:	0000001a 	andeq	r0, r0, sl, lsl r0
    3410:	00081f1b 	andeq	r1, r8, fp, lsl pc
    3414:	00927400 	addseq	r7, r2, r0, lsl #8
    3418:	02200100 	eoreq	r0, r0, #0
    341c:	67010000 	strvs	r0, [r1, -r0]
    3420:	00030a09 	andeq	r0, r3, r9, lsl #20
    3424:	083a1a00 	ldmdaeq	sl!, {r9, fp, ip}
    3428:	1a620000 	bne	1883430 <__bss_end__+0x18797a0>
    342c:	1a5c0000 	bne	1703434 <__bss_end__+0x16f97a4>
    3430:	301a0000 	andscc	r0, sl, r0
    3434:	a9000008 	stmdbge	r0, {r3}
    3438:	a100001a 	tstge	r0, sl, lsl r0
    343c:	1c00001a 	stcne	0, cr0, [r0], {26}
    3440:	00000220 	andeq	r0, r0, r0, lsr #4
    3444:	00085419 	andeq	r5, r8, r9, lsl r4
    3448:	00927400 	addseq	r7, r2, r0, lsl #8
    344c:	92740400 	rsbsls	r0, r4, #0, 8
    3450:	00040000 	andeq	r0, r4, r0
    3454:	11010000 	mrsne	r0, (UNDEF: 1)
    3458:	0002c705 	andeq	ip, r2, r5, lsl #14
    345c:	08651a00 	stmdaeq	r5!, {r9, fp, ip}^
    3460:	1ae70000 	bne	ff9c3468 <__bss_end__+0xff9b97d8>
    3464:	1ae50000 	bne	ff94346c <__bss_end__+0xff9397dc>
    3468:	0f000000 	svceq	0x00000000
    346c:	0000930c 	andeq	r9, r0, ip, lsl #6
    3470:	000008bc 			; <UNDEFINED> instruction: 0x000008bc
    3474:	000002ff 	strdeq	r0, [r0], -pc	; <UNPREDICTABLE>
    3478:	05500110 	ldrbeq	r0, [r0, #-272]	; 0xfffffef0
    347c:	00950803 	addseq	r0, r5, r3, lsl #16
    3480:	51011000 	mrspl	r1, (UNDEF: 1)
    3484:	967c0305 	ldrbtls	r0, [ip], -r5, lsl #6
    3488:	01100000 	tsteq	r0, r0
    348c:	64030552 	strvs	r0, [r3], #-1362	; 0xfffffaae
    3490:	10000098 	mulne	r0, r8, r0
    3494:	41015301 	tstmi	r1, r1, lsl #6
    3498:	007d0210 	rsbseq	r0, sp, r0, lsl r2
    349c:	97900305 	ldrls	r0, [r0, r5, lsl #6]
    34a0:	11000000 	mrsne	r0, (UNDEF: 0)
    34a4:	00009310 	andeq	r9, r0, r0, lsl r3
    34a8:	000008c8 	andeq	r0, r0, r8, asr #17
    34ac:	70190000 	andsvc	r0, r9, r0
    34b0:	8c000008 	stchi	0, cr0, [r0], {8}
    34b4:	03000092 	movweq	r0, #146	; 0x92
    34b8:	0000928c 	andeq	r9, r0, ip, lsl #5
    34bc:	00000004 	andeq	r0, r0, r4
    34c0:	3e056801 	cdpcc	8, 0, cr6, cr5, cr1, {0}
    34c4:	1a000003 	bne	34d8 <__code_start__-0x4b28>
    34c8:	0000088b 	andeq	r0, r0, fp, lsl #17
    34cc:	00001afc 	strdeq	r1, [r0], -ip
    34d0:	00001afa 	strdeq	r1, [r0], -sl
    34d4:	0008811a 	andeq	r8, r8, sl, lsl r1
    34d8:	001b1100 	andseq	r1, fp, r0, lsl #2
    34dc:	001b0f00 	andseq	r0, fp, r0, lsl #30
    34e0:	a40f0000 	strge	r0, [pc], #-0	; 34e8 <__code_start__-0x4b18>
    34e4:	41000092 	swpmi	r0, r2, [r0]	; <UNPREDICTABLE>
    34e8:	53000004 	movwpl	r0, #4
    34ec:	10000003 	andne	r0, r0, r3
    34f0:	f3035001 	vhadd.u8	d5, d3, d1
    34f4:	0f005001 	svceq	0x00005001
    34f8:	000092c8 	andeq	r9, r0, r8, asr #5
    34fc:	000008bc 			; <UNDEFINED> instruction: 0x000008bc
    3500:	0000038c 	andeq	r0, r0, ip, lsl #7
    3504:	05500110 	ldrbeq	r0, [r0, #-272]	; 0xfffffef0
    3508:	00950803 	addseq	r0, r5, r3, lsl #16
    350c:	51011000 	mrspl	r1, (UNDEF: 1)
    3510:	967c0305 	ldrbtls	r0, [ip], -r5, lsl #6
    3514:	01100000 	tsteq	r0, r0
    3518:	54030552 	strpl	r0, [r3], #-1362	; 0xfffffaae
    351c:	10000098 	mulne	r0, r8, r0
    3520:	08025301 	stmdaeq	r2, {r0, r8, r9, ip, lr}
    3524:	7d02105f 	stcvc	0, cr1, [r2, #-380]	; 0xfffffe84
    3528:	8c030500 	cfstr32hi	mvfx0, [r3], {-0}
    352c:	00000096 	muleq	r0, r6, r0
    3530:	0092cc11 	addseq	ip, r2, r1, lsl ip
    3534:	0008c800 	andeq	ip, r8, r0, lsl #16
    3538:	92d01100 	sbcsls	r1, r0, #0
    353c:	08d40000 	ldmeq	r4, {}^	; <UNPREDICTABLE>
    3540:	ec0f0000 	stc	0, cr0, [pc], {-0}
    3544:	bc000092 	stclt	0, cr0, [r0], {146}	; 0x92
    3548:	d7000008 	strle	r0, [r0, -r8]
    354c:	10000003 	andne	r0, r0, r3
    3550:	03055001 	movweq	r5, #20481	; 0x5001
    3554:	00009748 	andeq	r9, r0, r8, asr #14
    3558:	05510110 	ldrbeq	r0, [r1, #-272]	; 0xfffffef0
    355c:	00967c03 	addseq	r7, r6, r3, lsl #24
    3560:	52011000 	andpl	r1, r1, #0, 0
    3564:	98540305 	ldmdals	r4, {r0, r2, r8, r9}^
    3568:	01100000 	tsteq	r0, r0
    356c:	60080253 	andvs	r0, r8, r3, asr r2
    3570:	007d0210 	rsbseq	r0, sp, r0, lsl r2
    3574:	977c0305 	ldrbls	r0, [ip, -r5, lsl #6]!
    3578:	11000000 	mrsne	r0, (UNDEF: 0)
    357c:	000092f0 	strdeq	r9, [r0], -r0
    3580:	000008c8 	andeq	r0, r0, r8, asr #17
    3584:	00931411 	addseq	r1, r3, r1, lsl r4
    3588:	0008d400 	andeq	sp, r8, r0, lsl #8
    358c:	93300f00 	teqls	r0, #0, 30
    3590:	08bc0000 	ldmeq	ip!, {}	; <UNPREDICTABLE>
    3594:	04220000 	strteq	r0, [r2], #-0
    3598:	01100000 	tsteq	r0, r0
    359c:	9c030550 	cfstr32ls	mvfx0, [r3], {80}	; 0x50
    35a0:	10000097 	mulne	r0, r7, r0
    35a4:	03055101 	movweq	r5, #20737	; 0x5101
    35a8:	0000967c 	andeq	r9, r0, ip, ror r6
    35ac:	05520110 	ldrbeq	r0, [r2, #-272]	; 0xfffffef0
    35b0:	00985403 	addseq	r5, r8, r3, lsl #8
    35b4:	53011000 	movwpl	r1, #4096	; 0x1000
    35b8:	10680802 	rsbne	r0, r8, r2, lsl #16
    35bc:	05007d02 	streq	r7, [r0, #-3330]	; 0xfffff2fe
    35c0:	0097c803 	addseq	ip, r7, r3, lsl #16
    35c4:	34110000 	ldrcc	r0, [r1], #-0
    35c8:	c8000093 	stmdagt	r0, {r0, r1, r4, r7}
    35cc:	00000008 	andeq	r0, r0, r8
    35d0:	00007e12 	andeq	r7, r0, r2, lsl lr
    35d4:	00043c00 	andeq	r3, r4, r0, lsl #24
    35d8:	002c1300 	eoreq	r1, ip, r0, lsl #6
    35dc:	000f0000 	andeq	r0, pc, r0
    35e0:	00042c05 	andeq	r2, r4, r5, lsl #24
    35e4:	02d01600 	sbcseq	r1, r0, #0, 12
    35e8:	53010000 	movwpl	r0, #4096	; 0x1000
    35ec:	00008a07 	andeq	r8, r0, r7, lsl #20
    35f0:	0091e400 	addseq	lr, r1, r0, lsl #8
    35f4:	00006400 	andeq	r6, r0, r0, lsl #8
    35f8:	089c0100 	ldmeq	ip, {r8}
    35fc:	17000005 	strne	r0, [r0, -r5]
    3600:	000009c8 	andeq	r0, r0, r8, asr #19
    3604:	2c185301 	ldccs	3, cr5, [r8], {1}
    3608:	2c000000 	stccs	0, cr0, [r0], {-0}
    360c:	2400001b 	strcs	r0, [r0], #-27	; 0xffffffe5
    3610:	0e00001b 	mcreq	0, 0, r0, cr0, cr11, {0}
    3614:	00000261 	andeq	r0, r0, r1, ror #4
    3618:	00000518 	andeq	r0, r0, r8, lsl r5
    361c:	984c0305 	stmdals	ip, {r0, r2, r8, r9}^
    3620:	d01d0000 	andsle	r0, sp, r0
    3624:	01000009 	tsteq	r0, r9
    3628:	008a0b55 	addeq	r0, sl, r5, asr fp
    362c:	1b640000 	blne	1903634 <__bss_end__+0x18f99a4>
    3630:	1b600000 	blne	1803638 <__bss_end__+0x17f99a8>
    3634:	fc0f0000 	stc2	0, cr0, [pc], {-0}
    3638:	1d000091 	stcne	0, cr0, [r0, #-580]	; 0xfffffdbc
    363c:	a6000005 	strge	r0, [r0], -r5
    3640:	10000004 	andne	r0, r0, r4
    3644:	74025001 	strvc	r5, [r2], #-1
    3648:	0c0f0000 	stceq	0, cr0, [pc], {-0}
    364c:	e0000092 	mul	r0, r2, r0
    3650:	c5000008 	strgt	r0, [r0, #-8]
    3654:	10000004 	andne	r0, r0, r4
    3658:	75025001 	strvc	r5, [r2, #-1]
    365c:	51011000 	mrspl	r1, (UNDEF: 1)
    3660:	01103001 	tsteq	r0, r1
    3664:	00740252 	rsbseq	r0, r4, r2, asr r2
    3668:	92340f00 	eorsls	r0, r4, #0, 30
    366c:	08bc0000 	ldmeq	ip!, {}	; <UNPREDICTABLE>
    3670:	04fe0000 	ldrbteq	r0, [lr], #0
    3674:	01100000 	tsteq	r0, r0
    3678:	08030550 	stmdaeq	r3, {r4, r6, r8, sl}
    367c:	10000095 	mulne	r0, r5, r0
    3680:	03055101 	movweq	r5, #20737	; 0x5101
    3684:	0000967c 	andeq	r9, r0, ip, ror r6
    3688:	05520110 	ldrbeq	r0, [r2, #-272]	; 0xfffffef0
    368c:	00984c03 	addseq	r4, r8, r3, lsl #24
    3690:	53011000 	movwpl	r1, #4096	; 0x1000
    3694:	10540802 	subsne	r0, r4, r2, lsl #16
    3698:	05007d02 	streq	r7, [r0, #-3330]	; 0xfffff2fe
    369c:	00968c03 	addseq	r8, r6, r3, lsl #24
    36a0:	38110000 	ldmdacc	r1, {}	; <UNPREDICTABLE>
    36a4:	c8000092 	stmdagt	r0, {r1, r4, r7}
    36a8:	00000008 	andeq	r0, r0, r8
    36ac:	00007e12 	andeq	r7, r0, r2, lsl lr
    36b0:	00051800 	andeq	r1, r5, r0, lsl #16
    36b4:	002c1300 	eoreq	r1, ip, r0, lsl #6
    36b8:	00070000 	andeq	r0, r7, r0
    36bc:	00050805 	andeq	r0, r5, r5, lsl #16
    36c0:	0a351600 	beq	d48ec8 <__bss_end__+0xd3f238>
    36c4:	47010000 	strmi	r0, [r1, -r0]
    36c8:	00008a07 	andeq	r8, r0, r7, lsl #20
    36cc:	00914c00 	addseq	r4, r1, r0, lsl #24
    36d0:	00009800 	andeq	r9, r0, r0, lsl #16
    36d4:	2b9c0100 	blcs	fe703adc <__bss_end__+0xfe6f9e4c>
    36d8:	17000006 	strne	r0, [r0, -r6]
    36dc:	000009c8 	andeq	r0, r0, r8, asr #19
    36e0:	2c204701 	stccs	7, cr4, [r0], #-4
    36e4:	92000000 	andls	r0, r0, #0, 0
    36e8:	8200001b 	andhi	r0, r0, #27, 0
    36ec:	0e00001b 	mcreq	0, 0, r0, cr0, cr11, {0}
    36f0:	00000261 	andeq	r0, r0, r1, ror #4
    36f4:	0000043c 	andeq	r0, r0, ip, lsr r4
    36f8:	983c0305 	ldmdals	ip!, {r0, r2, r8, r9}
    36fc:	d01d0000 	andsle	r0, sp, r0
    3700:	01000009 	tsteq	r0, r9
    3704:	008a0b4b 	addeq	r0, sl, fp, asr #22
    3708:	1c060000 	stcne	0, cr0, [r6], {-0}
    370c:	1c000000 	stcne	0, cr0, [r0], {-0}
    3710:	1f1b0000 	svcne	0x001b0000
    3714:	5c000008 	stcpl	0, cr0, [r0], {8}
    3718:	03000091 	movweq	r0, #145	; 0x91
    371c:	00000208 	andeq	r0, r0, r8, lsl #4
    3720:	a30e4901 	movwge	r4, #59649	; 0xe901
    3724:	1a000005 	bne	3740 <__code_start__-0x48c0>
    3728:	0000083a 	andeq	r0, r0, sl, lsr r8
    372c:	00001c35 	andeq	r1, r0, r5, lsr ip
    3730:	00001c33 	andeq	r1, r0, r3, lsr ip
    3734:	0008301a 	andeq	r3, r8, sl, lsl r0
    3738:	001c4d00 	andseq	r4, ip, r0, lsl #26
    373c:	001c4900 	andseq	r4, ip, r0, lsl #18
    3740:	02081e00 	andeq	r1, r8, #0, 28
    3744:	0f000000 	svceq	0x00000000
    3748:	000091a4 	andeq	r9, r0, r4, lsr #3
    374c:	000008bc 			; <UNDEFINED> instruction: 0x000008bc
    3750:	000005dc 	ldrdeq	r0, [r0], -ip
    3754:	05500110 	ldrbeq	r0, [r0, #-272]	; 0xfffffef0
    3758:	00950803 	addseq	r0, r5, r3, lsl #16
    375c:	51011000 	mrspl	r1, (UNDEF: 1)
    3760:	967c0305 	ldrbtls	r0, [ip], -r5, lsl #6
    3764:	01100000 	tsteq	r0, r0
    3768:	3c030552 	cfstr32cc	mvfx0, [r3], {82}	; 0x52
    376c:	10000098 	mulne	r0, r8, r0
    3770:	08025301 	stmdaeq	r2, {r0, r8, r9, ip, lr}
    3774:	7d021048 	stcvc	0, cr1, [r2, #-288]	; 0xfffffee0
    3778:	8c030500 	cfstr32hi	mvfx0, [r3], {-0}
    377c:	00000096 	muleq	r0, r6, r0
    3780:	0091a811 	addseq	sl, r1, r1, lsl r8
    3784:	0008c800 	andeq	ip, r8, r0, lsl #16
    3788:	91c80f00 	bicls	r0, r8, r0, lsl #30
    378c:	08bc0000 	ldmeq	ip!, {}	; <UNPREDICTABLE>
    3790:	06210000 	strteq	r0, [r1], -r0
    3794:	01100000 	tsteq	r0, r0
    3798:	08030550 	stmdaeq	r3, {r4, r6, r8, sl}
    379c:	10000097 	mulne	r0, r7, r0
    37a0:	03055101 	movweq	r5, #20737	; 0x5101
    37a4:	0000967c 	andeq	r9, r0, ip, ror r6
    37a8:	05520110 	ldrbeq	r0, [r2, #-272]	; 0xfffffef0
    37ac:	00983c03 	addseq	r3, r8, r3, lsl #24
    37b0:	53011000 	movwpl	r1, #4096	; 0x1000
    37b4:	104e0802 	subne	r0, lr, r2, lsl #16
    37b8:	08007d02 	stmdaeq	r0, {r1, r8, sl, fp, ip, sp, lr}
    37bc:	235001f3 	cmpcs	r0, #-1073741764	; 0xc000003c
    37c0:	1af80907 	bne	ffe05be4 <__bss_end__+0xffdfbf54>
    37c4:	91cc1100 	bicls	r1, ip, r0, lsl #2
    37c8:	08c80000 	stmiaeq	r8, {}^	; <UNPREDICTABLE>
    37cc:	0c000000 	stceq	0, cr0, [r0], {-0}
    37d0:	00000a57 	andeq	r0, r0, r7, asr sl
    37d4:	f4063c01 			; <UNDEFINED> instruction: 0xf4063c01
    37d8:	58000090 	stmdapl	r0, {r4, r7}
    37dc:	01000000 	mrseq	r0, (UNDEF: 0)
    37e0:	0006cf9c 	muleq	r6, ip, pc	; <UNPREDICTABLE>
    37e4:	09fb0a00 	ldmibeq	fp!, {r9, fp}^
    37e8:	3d010000 	stccc	0, cr0, [r1, #-0]
    37ec:	00002510 	andeq	r2, r0, r0, lsl r5
    37f0:	8c030500 	cfstr32hi	mvfx0, [r3], {-0}
    37f4:	0e00009c 	mcreq	0, 0, r0, cr0, cr12, {4}
    37f8:	00000261 	andeq	r0, r0, r1, ror #4
    37fc:	000006df 	ldrdeq	r0, [r0], -pc	; <UNPREDICTABLE>
    3800:	982c0305 	stmdals	ip!, {r0, r2, r8, r9}
    3804:	07070000 	streq	r0, [r7, -r0]
    3808:	00002c04 	andeq	r2, r0, r4, lsl #24
    380c:	0a420100 	beq	1083c14 <__bss_end__+0x1079f84>
    3810:	0000067a 	andeq	r0, r0, sl, ror r6
    3814:	000a1e08 	andeq	r1, sl, r8, lsl #28
    3818:	10000000 	andne	r0, r0, r0
    381c:	200f0000 	andcs	r0, pc, r0
    3820:	e4000091 	str	r0, [r0], #-145	; 0xffffff6f
    3824:	96000006 	strls	r0, [r0], -r6
    3828:	10000006 	andne	r0, r0, r6
    382c:	40035001 	andmi	r5, r3, r1
    3830:	01102440 	tsteq	r0, r0, asr #8
    3834:	48400351 	stmdami	r0, {r0, r4, r6, r8, r9}^
    3838:	380f0024 	stmdacc	pc, {r2, r5}	; <UNPREDICTABLE>
    383c:	bc000091 	stclt	0, cr0, [r0], {145}	; 0x91
    3840:	c5000008 	strgt	r0, [r0, #-8]
    3844:	10000006 	andne	r0, r0, r6
    3848:	03055001 	movweq	r5, #20481	; 0x5001
    384c:	000096d8 	ldrdeq	r9, [r0], -r8
    3850:	05510110 	ldrbeq	r0, [r1, #-272]	; 0xfffffef0
    3854:	00967c03 	addseq	r7, r6, r3, lsl #24
    3858:	52011000 	andpl	r1, r1, #0, 0
    385c:	982c0305 	stmdals	ip!, {r0, r2, r8, r9}
    3860:	01100000 	tsteq	r0, r0
    3864:	40080253 	andmi	r0, r8, r3, asr r2
    3868:	913c1100 	teqls	ip, r0, lsl #2
    386c:	08c80000 	stmiaeq	r8, {}^	; <UNPREDICTABLE>
    3870:	12000000 	andne	r0, r0, #0, 0
    3874:	0000007e 	andeq	r0, r0, lr, ror r0
    3878:	000006df 	ldrdeq	r0, [r0], -pc	; <UNPREDICTABLE>
    387c:	00002c13 	andeq	r2, r0, r3, lsl ip
    3880:	05000c00 	streq	r0, [r0, #-3072]	; 0xfffff400
    3884:	000006cf 	andeq	r0, r0, pc, asr #13
    3888:	000a870c 	andeq	r8, sl, ip, lsl #14
    388c:	062d0100 	strteq	r0, [sp], -r0, lsl #2
    3890:	00009058 	andeq	r9, r0, r8, asr r0
    3894:	0000009c 	muleq	r0, ip, r0
    3898:	07c89c01 	strbeq	r9, [r8, r1, lsl #24]
    389c:	cf170000 	svcgt	0x00170000
    38a0:	01000009 	tsteq	r0, r9
    38a4:	002c262d 	eoreq	r2, ip, sp, lsr #12
    38a8:	1c7b0000 	ldclne	0, cr0, [fp], #-0
    38ac:	1c6d0000 	stclne	0, cr0, [sp], #-0
    38b0:	c4170000 	ldrgt	r0, [r7], #-0
    38b4:	01000009 	tsteq	r0, r9
    38b8:	002c362d 	eoreq	r3, ip, sp, lsr #12
    38bc:	1ce30000 	stclne	0, cr0, [r3]
    38c0:	1cdb0000 	ldclne	0, cr0, [fp], {0}
    38c4:	d01d0000 	andsle	r0, sp, r0
    38c8:	01000009 	tsteq	r0, r9
    38cc:	00c20b2e 	sbceq	r0, r2, lr, lsr #22
    38d0:	1d2b0000 	stcne	0, cr0, [fp, #-0]
    38d4:	1d1d0000 	ldcne	0, cr0, [sp, #-0]
    38d8:	610e0000 	mrsvs	r0, (UNDEF: 14)
    38dc:	d8000002 	stmdale	r0, {r1}
    38e0:	05000007 	streq	r0, [r0, #-7]
    38e4:	00981403 	addseq	r1, r8, r3, lsl #8
    38e8:	90b00f00 	adcsls	r0, r0, r0, lsl #30
    38ec:	08bc0000 	ldmeq	ip!, {}	; <UNPREDICTABLE>
    38f0:	077e0000 	ldrbeq	r0, [lr, -r0]!
    38f4:	01100000 	tsteq	r0, r0
    38f8:	08030550 	stmdaeq	r3, {r4, r6, r8, sl}
    38fc:	10000095 	mulne	r0, r5, r0
    3900:	03055101 	movweq	r5, #20737	; 0x5101
    3904:	0000967c 	andeq	r9, r0, ip, ror r6
    3908:	05520110 	ldrbeq	r0, [r2, #-272]	; 0xfffffef0
    390c:	00981403 	addseq	r1, r8, r3, lsl #8
    3910:	53011000 	movwpl	r1, #4096	; 0x1000
    3914:	10300802 	eorsne	r0, r0, r2, lsl #16
    3918:	05007d02 	streq	r7, [r0, #-3330]	; 0xfffff2fe
    391c:	00968803 	addseq	r8, r6, r3, lsl #16
    3920:	b4110000 	ldrlt	r0, [r1], #-0
    3924:	c8000090 	stmdagt	r0, {r4, r7}
    3928:	0f000008 	svceq	0x00000008
    392c:	000090d8 	ldrdeq	r9, [r0], -r8
    3930:	000008bc 			; <UNDEFINED> instruction: 0x000008bc
    3934:	000007be 			; <UNDEFINED> instruction: 0x000007be
    3938:	05500110 	ldrbeq	r0, [r0, #-272]	; 0xfffffef0
    393c:	00969403 	addseq	r9, r6, r3, lsl #8
    3940:	51011000 	mrspl	r1, (UNDEF: 1)
    3944:	967c0305 	ldrbtls	r0, [ip], -r5, lsl #6
    3948:	01100000 	tsteq	r0, r0
    394c:	14030552 	strne	r0, [r3], #-1362	; 0xfffffaae
    3950:	10000098 	mulne	r0, r8, r0
    3954:	08025301 	stmdaeq	r2, {r0, r8, r9, ip, lr}
    3958:	7d021034 	stcvc	0, cr1, [r2, #-208]	; 0xffffff30
    395c:	01f30300 	mvnseq	r0, r0, lsl #6
    3960:	dc110050 	ldcle	0, cr0, [r1], {80}	; 0x50
    3964:	c8000090 	stmdagt	r0, {r4, r7}
    3968:	00000008 	andeq	r0, r0, r8
    396c:	00007e12 	andeq	r7, r0, r2, lsl lr
    3970:	0007d800 	andeq	sp, r7, r0, lsl #16
    3974:	002c1300 	eoreq	r1, ip, r0, lsl #6
    3978:	00160000 	andseq	r0, r6, r0
    397c:	0007c805 	andeq	ip, r7, r5, lsl #16
    3980:	0a761f00 	beq	1d8b588 <__bss_end__+0x1d818f8>
    3984:	2a010000 	bcs	4398c <__bss_end__+0x39cfc>
    3988:	00008a07 	andeq	r8, r0, r7, lsl #20
    398c:	00904800 	addseq	r4, r0, r0, lsl #16
    3990:	00001000 	andeq	r1, r0, r0
    3994:	1f9c0100 	svcne	0x009c0100
    3998:	000009b1 			; <UNDEFINED> instruction: 0x000009b1
    399c:	8a072901 	bhi	1cdda8 <__bss_end__+0x1c4118>
    39a0:	38000000 	stmdacc	r0, {}	; <UNPREDICTABLE>
    39a4:	10000090 	mulne	r0, r0, r0
    39a8:	01000000 	mrseq	r0, (UNDEF: 0)
    39ac:	0a241f9c 	beq	90b824 <__bss_end__+0x901b94>
    39b0:	28010000 	stmdacs	r1, {}	; <UNPREDICTABLE>
    39b4:	00008a07 	andeq	r8, r0, r7, lsl #20
    39b8:	00902800 	addseq	r2, r0, r0, lsl #16
    39bc:	00001000 	andeq	r1, r0, r0
    39c0:	209c0100 	addscs	r0, ip, r0, lsl #2
    39c4:	000009ee 	andeq	r0, r0, lr, ror #19
    39c8:	2c181001 	ldccs	0, cr1, [r8], {1}
    39cc:	03000000 	movweq	r0, #0
    39d0:	00000854 	andeq	r0, r0, r4, asr r8
    39d4:	01007821 	tsteq	r0, r1, lsr #16
    39d8:	002c2910 	eoreq	r2, ip, r0, lsl r9
    39dc:	6e210000 	cdpvs	0, 2, cr0, cr1, cr0, {0}
    39e0:	35100100 	ldrcc	r0, [r0, #-256]	; 0xffffff00
    39e4:	0000002c 	andeq	r0, r0, ip, lsr #32
    39e8:	0002610e 	andeq	r6, r2, lr, lsl #2
    39ec:	00051800 	andeq	r1, r5, r0, lsl #16
    39f0:	64030500 	strvs	r0, [r3], #-1280	; 0xfffffb00
    39f4:	00000098 	muleq	r0, r8, r0
    39f8:	000a4520 	andeq	r4, sl, r0, lsr #10
    39fc:	180d0100 	stmdane	sp, {r8}
    3a00:	0000002c 	andeq	r0, r0, ip, lsr #32
    3a04:	00087003 	andeq	r7, r8, r3
    3a08:	00782100 	rsbseq	r2, r8, r0, lsl #2
    3a0c:	2c290d01 	stccs	13, cr0, [r9], #-4
    3a10:	00000000 	andeq	r0, r0, r0
    3a14:	000a6420 	andeq	r6, sl, r0, lsr #8
    3a18:	18070100 	stmdane	r7, {r8}
    3a1c:	0000002c 	andeq	r0, r0, ip, lsr #32
    3a20:	00089603 	andeq	r9, r8, r3, lsl #12
    3a24:	00782100 	rsbseq	r2, r8, r0, lsl #2
    3a28:	2c2c0701 	stccs	7, cr0, [ip], #-4
    3a2c:	21000000 	mrscs	r0, (UNDEF: 0)
    3a30:	0701006e 	streq	r0, [r1, -lr, rrx]
    3a34:	00002c38 	andeq	r2, r0, r8, lsr ip
    3a38:	16200000 	strtne	r0, [r0], -r0
    3a3c:	0100000a 	tsteq	r0, sl
    3a40:	005d1804 	subseq	r1, sp, r4, lsl #16
    3a44:	bc030000 	stclt	0, cr0, [r3], {-0}
    3a48:	21000008 	tstcs	r0, r8
    3a4c:	04010078 	streq	r0, [r1], #-120	; 0xffffff88
    3a50:	00005d29 	andeq	r5, r0, r9, lsr #26
    3a54:	00792100 	rsbseq	r2, r9, r0, lsl #2
    3a58:	5d350401 	cfldrspl	mvf0, [r5, #-4]!
    3a5c:	00000000 	andeq	r0, r0, r0
    3a60:	00043022 	andeq	r3, r4, r2, lsr #32
    3a64:	00043000 	andeq	r3, r4, r0
    3a68:	06280200 	strteq	r0, [r8], -r0, lsl #4
    3a6c:	0004c822 	andeq	ip, r4, r2, lsr #16
    3a70:	0004c800 	andeq	ip, r4, r0, lsl #16
    3a74:	066e0200 	strbteq	r0, [lr], -r0, lsl #4
    3a78:	000a9e22 	andeq	r9, sl, r2, lsr #28
    3a7c:	000a9e00 	andeq	r9, sl, r0, lsl #28
    3a80:	061d0200 	ldreq	r0, [sp], -r0, lsl #4
    3a84:	00025a22 	andeq	r5, r2, r2, lsr #20
    3a88:	00025a00 	andeq	r5, r2, r0, lsl #20
    3a8c:	07f70200 	ldrbeq	r0, [r7, r0, lsl #4]!
    3a90:	00014900 	andeq	r4, r1, r0, lsl #18
    3a94:	46000400 	strmi	r0, [r0], -r0, lsl #8
    3a98:	04000013 	streq	r0, [r0], #-19	; 0xffffffed
    3a9c:	00030001 	andeq	r0, r3, r1
    3aa0:	0adb0c00 	beq	ff6c6aa8 <__bss_end__+0xff6bce18>
    3aa4:	03d10000 	bicseq	r0, r1, #0, 0
    3aa8:	93d80000 	bicsls	r0, r8, #0, 0
    3aac:	003c0000 	eorseq	r0, ip, r0
    3ab0:	1b9c0000 	blne	fe703ab8 <__bss_end__+0xfe6f9e28>
    3ab4:	04020000 	streq	r0, [r2], #-0
    3ab8:	746e6905 	strbtvc	r6, [lr], #-2309	; 0xfffff6fb
    3abc:	07040300 	streq	r0, [r4, -r0, lsl #6]
    3ac0:	000000b2 	strheq	r0, [r0], -r2
    3ac4:	58060103 	stmdapl	r6, {r0, r1, r8}
    3ac8:	03000000 	movweq	r0, #0
    3acc:	01940502 	orrseq	r0, r4, r2, lsl #10
    3ad0:	04030000 	streq	r0, [r3], #-0
    3ad4:	0000ca05 	andeq	ip, r0, r5, lsl #20
    3ad8:	05080300 	streq	r0, [r8, #-768]	; 0xfffffd00
    3adc:	000000c5 	andeq	r0, r0, r5, asr #1
    3ae0:	56080103 	strpl	r0, [r8], -r3, lsl #2
    3ae4:	03000000 	movweq	r0, #0
    3ae8:	006d0702 	rsbeq	r0, sp, r2, lsl #14
    3aec:	04030000 	streq	r0, [r3], #-0
    3af0:	0000ad07 	andeq	sl, r0, r7, lsl #26
    3af4:	07080300 	streq	r0, [r8, -r0, lsl #6]
    3af8:	000000a8 	andeq	r0, r0, r8, lsr #1
    3afc:	00002504 	andeq	r2, r0, r4, lsl #10
    3b00:	00007a00 	andeq	r7, r0, r0, lsl #20
    3b04:	00250500 	eoreq	r0, r5, r0, lsl #10
    3b08:	06000000 	streq	r0, [r0], -r0
    3b0c:	000000d3 	ldrdeq	r0, [r0], -r3
    3b10:	860e1c02 	strhi	r1, [lr], -r2, lsl #24
    3b14:	07000000 	streq	r0, [r0, -r0]
    3b18:	00006b04 	andeq	r6, r0, r4, lsl #22
    3b1c:	00250400 	eoreq	r0, r5, r0, lsl #8
    3b20:	009b0000 	addseq	r0, fp, r0
    3b24:	9b050000 	blls	143b2c <__bss_end__+0x139e9c>
    3b28:	00000000 	andeq	r0, r0, r0
    3b2c:	00a80407 	adceq	r0, r8, r7, lsl #8
    3b30:	01030000 	mrseq	r0, (UNDEF: 3)
    3b34:	00005f08 	andeq	r5, r0, r8, lsl #30
    3b38:	00a10800 	adceq	r0, r1, r0, lsl #16
    3b3c:	6e060000 	cdpvs	0, 0, cr0, cr6, cr0, {0}
    3b40:	02000004 	andeq	r0, r0, #4, 0
    3b44:	00b90e21 	adcseq	r0, r9, r1, lsr #28
    3b48:	04070000 	streq	r0, [r7], #-0
    3b4c:	0000008c 	andeq	r0, r0, ip, lsl #1
    3b50:	00007a09 	andeq	r7, r0, r9, lsl #20
    3b54:	07060100 	streq	r0, [r6, -r0, lsl #2]
    3b58:	98880305 	stmls	r8, {r0, r2, r8, r9}
    3b5c:	ce0a0000 	cdpgt	0, 0, cr0, cr10, cr0, {0}
    3b60:	0100000a 	tsteq	r0, sl
    3b64:	9404060b 	strls	r0, [r4], #-1547	; 0xfffff9f5
    3b68:	00100000 	andseq	r0, r0, r0
    3b6c:	9c010000 	stcls	0, cr0, [r1], {-0}
    3b70:	000000f1 	strdeq	r0, [r0], -r1
    3b74:	0070660b 	rsbseq	r6, r0, fp, lsl #12
    3b78:	86190b01 	ldrhi	r0, [r9], -r1, lsl #22
    3b7c:	01000000 	mrseq	r0, (UNDEF: 0)
    3b80:	9e0c0050 	mcrls	0, 0, r0, cr12, cr0, {2}
    3b84:	0100000a 	tsteq	r0, sl
    3b88:	93ec0608 	mvnls	r0, #8, 12	; 0x800000
    3b8c:	00180000 	andseq	r0, r8, r0
    3b90:	9c010000 	stcls	0, cr0, [r1], {-0}
    3b94:	000abd0d 	andeq	fp, sl, sp, lsl #26
    3b98:	0c030100 	stfeqs	f0, [r3], {-0}
    3b9c:	00000025 	andeq	r0, r0, r5, lsr #32
    3ba0:	000093d8 	ldrdeq	r9, [r0], -r8
    3ba4:	00000014 	andeq	r0, r0, r4, lsl r0
    3ba8:	01409c01 	cmpeq	r0, r1, lsl #24
    3bac:	630e0000 	movwvs	r0, #57344	; 0xe000
    3bb0:	21030100 	mrscs	r0, (UNDEF: 19)
    3bb4:	00000025 	andeq	r0, r0, r5, lsr #32
    3bb8:	00001d8f 	andeq	r1, r0, pc, lsl #27
    3bbc:	00001d8b 	andeq	r1, r0, fp, lsl #27
    3bc0:	0093e40f 	addseq	lr, r3, pc, lsl #8
    3bc4:	00014000 	andeq	r4, r1, r0
    3bc8:	50011000 	andpl	r1, r1, r0
    3bcc:	00007402 	andeq	r7, r0, r2, lsl #8
    3bd0:	09a11100 	stmibeq	r1!, {r8, ip}
    3bd4:	09a10000 	stmibeq	r1!, {}	; <UNPREDICTABLE>
    3bd8:	42020000 	andmi	r0, r2, #0, 0
    3bdc:	01370006 	teqeq	r7, r6
    3be0:	00040000 	andeq	r0, r4, r0
    3be4:	00001455 	andeq	r1, r0, r5, asr r4
    3be8:	03000104 	movweq	r0, #260	; 0x104
    3bec:	f10c0000 	cpsid	
    3bf0:	d100000a 	tstle	r0, sl
    3bf4:	14000003 	strne	r0, [r0], #-3
    3bf8:	34000094 	strcc	r0, [r0], #-148	; 0xffffff6c
    3bfc:	5d000000 	stcpl	0, cr0, [r0, #-0]
    3c00:	0200001c 	andeq	r0, r0, #28, 0
    3c04:	6e690504 	cdpvs	5, 6, cr0, cr9, cr4, {0}
    3c08:	04030074 	streq	r0, [r3], #-116	; 0xffffff8c
    3c0c:	0000b207 	andeq	fp, r0, r7, lsl #4
    3c10:	06010300 	streq	r0, [r1], -r0, lsl #6
    3c14:	00000058 	andeq	r0, r0, r8, asr r0
    3c18:	94050203 	strls	r0, [r5], #-515	; 0xfffffdfd
    3c1c:	03000001 	movweq	r0, #1
    3c20:	00ca0504 	sbceq	r0, sl, r4, lsl #10
    3c24:	08030000 	stmdaeq	r3, {}	; <UNPREDICTABLE>
    3c28:	0000c505 	andeq	ip, r0, r5, lsl #10
    3c2c:	08010300 	stmdaeq	r1, {r8, r9}
    3c30:	00000056 	andeq	r0, r0, r6, asr r0
    3c34:	6d070203 	sfmvs	f0, 4, [r7, #-12]
    3c38:	03000000 	movweq	r0, #0
    3c3c:	00ad0704 	adceq	r0, sp, r4, lsl #14
    3c40:	08030000 	stmdaeq	r3, {}	; <UNPREDICTABLE>
    3c44:	0000a807 	andeq	sl, r0, r7, lsl #16
    3c48:	00250400 	eoreq	r0, r5, r0, lsl #8
    3c4c:	007a0000 	rsbseq	r0, sl, r0
    3c50:	25050000 	strcs	r0, [r5, #-0]
    3c54:	00000000 	andeq	r0, r0, r0
    3c58:	0000d306 	andeq	sp, r0, r6, lsl #6
    3c5c:	0e1c0200 	cdpeq	2, 1, cr0, cr12, cr0, {0}
    3c60:	00000086 	andeq	r0, r0, r6, lsl #1
    3c64:	006b0407 	rsbeq	r0, fp, r7, lsl #8
    3c68:	25040000 	strcs	r0, [r4, #-0]
    3c6c:	9b000000 	blls	3c74 <__code_start__-0x438c>
    3c70:	05000000 	streq	r0, [r0, #-0]
    3c74:	0000009b 	muleq	r0, fp, r0
    3c78:	a8040700 	stmdage	r4, {r8, r9, sl}
    3c7c:	03000000 	movweq	r0, #0
    3c80:	005f0801 	subseq	r0, pc, r1, lsl #16
    3c84:	a1080000 	mrsge	r0, (UNDEF: 8)
    3c88:	06000000 	streq	r0, [r0], -r0
    3c8c:	0000046e 	andeq	r0, r0, lr, ror #8
    3c90:	b90e2102 	stmdblt	lr, {r1, r8, sp}
    3c94:	07000000 	streq	r0, [r0, -r0]
    3c98:	00008c04 	andeq	r8, r0, r4, lsl #24
    3c9c:	05520900 	ldrbeq	r0, [r2, #-2304]	; 0xfffff700
    3ca0:	04010000 	streq	r0, [r1], #-0
    3ca4:	00013407 	andeq	r3, r1, r7, lsl #8
    3ca8:	00941400 	addseq	r1, r4, r0, lsl #8
    3cac:	00003400 	andeq	r3, r0, r0, lsl #8
    3cb0:	349c0100 	ldrcc	r0, [ip], #256	; 0x100
    3cb4:	0a000001 	beq	3cc0 <__code_start__-0x4340>
    3cb8:	00000aec 	andeq	r0, r0, ip, ror #21
    3cbc:	34150401 	ldrcc	r0, [r5], #-1025	; 0xfffffbff
    3cc0:	01000001 	tsteq	r0, r1
    3cc4:	72730b50 	rsbsvc	r0, r3, #80, 22	; 0x14000
    3cc8:	04010063 	streq	r0, [r1], #-99	; 0xffffff9d
    3ccc:	00009b27 	andeq	r9, r0, r7, lsr #22
    3cd0:	001db100 	andseq	fp, sp, r0, lsl #2
    3cd4:	001dad00 	andseq	sl, sp, r0, lsl #26
    3cd8:	31730c00 	cmncc	r3, r0, lsl #24
    3cdc:	0b050100 	bleq	1440e4 <__bss_end__+0x13a454>
    3ce0:	00000134 	andeq	r0, r0, r4, lsr r1
    3ce4:	00001ddc 	ldrdeq	r1, [r0], -ip
    3ce8:	00001dd2 	ldrdeq	r1, [r0], -r2
    3cec:	0032730c 	eorseq	r7, r2, ip, lsl #6
    3cf0:	9b110601 	blls	4454fc <__bss_end__+0x43b86c>
    3cf4:	21000000 	mrscs	r0, (UNDEF: 0)
    3cf8:	1d00001e 	stcne	0, cr0, [r0, #-120]	; 0xffffff88
    3cfc:	0c00001e 	stceq	0, cr0, [r0], {30}
    3d00:	07010063 	streq	r0, [r1, -r3, rrx]
    3d04:	0000a10a 	andeq	sl, r0, sl, lsl #2
    3d08:	001e4500 	andseq	r4, lr, r0, lsl #10
    3d0c:	001e4100 	andseq	r4, lr, r0, lsl #2
    3d10:	04070000 	streq	r0, [r7], #-0
    3d14:	000000a1 	andeq	r0, r0, r1, lsr #1
    3d18:	0000f700 	andeq	pc, r0, r0, lsl #14
    3d1c:	0b000400 	bleq	4d24 <__code_start__-0x32dc>
    3d20:	04000015 	streq	r0, [r0], #-21	; 0xffffffeb
    3d24:	00030001 	andeq	r0, r3, r1
    3d28:	0b010c00 	bleq	46d30 <__bss_end__+0x3d0a0>
    3d2c:	03d10000 	bicseq	r0, r1, #0, 0
    3d30:	94480000 	strbls	r0, [r8], #-0
    3d34:	002c0000 	eoreq	r0, ip, r0
    3d38:	1d6a0000 	stclne	0, cr0, [sl, #-0]
    3d3c:	04020000 	streq	r0, [r2], #-0
    3d40:	746e6905 	strbtvc	r6, [lr], #-2309	; 0xfffff6fb
    3d44:	07040300 	streq	r0, [r4, -r0, lsl #6]
    3d48:	000000b2 	strheq	r0, [r0], -r2
    3d4c:	58060103 	stmdapl	r6, {r0, r1, r8}
    3d50:	03000000 	movweq	r0, #0
    3d54:	01940502 	orrseq	r0, r4, r2, lsl #10
    3d58:	04030000 	streq	r0, [r3], #-0
    3d5c:	0000ca05 	andeq	ip, r0, r5, lsl #20
    3d60:	05080300 	streq	r0, [r8, #-768]	; 0xfffffd00
    3d64:	000000c5 	andeq	r0, r0, r5, asr #1
    3d68:	56080103 	strpl	r0, [r8], -r3, lsl #2
    3d6c:	03000000 	movweq	r0, #0
    3d70:	006d0702 	rsbeq	r0, sp, r2, lsl #14
    3d74:	04030000 	streq	r0, [r3], #-0
    3d78:	0000ad07 	andeq	sl, r0, r7, lsl #26
    3d7c:	07080300 	streq	r0, [r8, -r0, lsl #6]
    3d80:	000000a8 	andeq	r0, r0, r8, lsr #1
    3d84:	00002504 	andeq	r2, r0, r4, lsl #10
    3d88:	00007a00 	andeq	r7, r0, r0, lsl #20
    3d8c:	00250500 	eoreq	r0, r5, r0, lsl #10
    3d90:	06000000 	streq	r0, [r0], -r0
    3d94:	000000d3 	ldrdeq	r0, [r0], -r3
    3d98:	860e1c02 	strhi	r1, [lr], -r2, lsl #24
    3d9c:	07000000 	streq	r0, [r0, -r0]
    3da0:	00006b04 	andeq	r6, r0, r4, lsl #22
    3da4:	00250400 	eoreq	r0, r5, r0, lsl #8
    3da8:	009b0000 	addseq	r0, fp, r0
    3dac:	9b050000 	blls	143db4 <__bss_end__+0x13a124>
    3db0:	00000000 	andeq	r0, r0, r0
    3db4:	00a80407 	adceq	r0, r8, r7, lsl #8
    3db8:	01030000 	mrseq	r0, (UNDEF: 3)
    3dbc:	00005f08 	andeq	r5, r0, r8, lsl #30
    3dc0:	00a10800 	adceq	r0, r1, r0, lsl #16
    3dc4:	6e060000 	cdpvs	0, 0, cr0, cr6, cr0, {0}
    3dc8:	02000004 	andeq	r0, r0, #4, 0
    3dcc:	00b90e21 	adcseq	r0, r9, r1, lsr #28
    3dd0:	04070000 	streq	r0, [r7], #-0
    3dd4:	0000008c 	andeq	r0, r0, ip, lsl #1
    3dd8:	00055909 	andeq	r5, r5, r9, lsl #18
    3ddc:	05030100 	streq	r0, [r3, #-256]	; 0xffffff00
    3de0:	00000025 	andeq	r0, r0, r5, lsr #32
    3de4:	00009448 	andeq	r9, r0, r8, asr #8
    3de8:	0000002c 	andeq	r0, r0, ip, lsr #32
    3dec:	610a9c01 	tstvs	sl, r1, lsl #24
    3df0:	18030100 	stmdane	r3, {r8}
    3df4:	0000009b 	muleq	r0, fp, r0
    3df8:	00001e67 	andeq	r1, r0, r7, ror #28
    3dfc:	00001e63 	andeq	r1, r0, r3, ror #28
    3e00:	0100620a 	tsteq	r0, sl, lsl #4
    3e04:	009b2703 	addseq	r2, fp, r3, lsl #14
    3e08:	1e890000 	cdpne	0, 8, cr0, cr9, cr0, {0}
    3e0c:	1e850000 	cdpne	0, 8, cr0, cr5, cr0, {0}
    3e10:	00000000 	andeq	r0, r0, r0
    3e14:	0000010f 	andeq	r0, r0, pc, lsl #2
    3e18:	159a0004 	ldrne	r0, [sl, #4]
    3e1c:	01040000 	mrseq	r0, (UNDEF: 4)
    3e20:	00000300 	andeq	r0, r0, r0, lsl #6
    3e24:	000b110c 	andeq	r1, fp, ip, lsl #2
    3e28:	0003d100 	andeq	sp, r3, r0, lsl #2
    3e2c:	00947400 	addseq	r7, r4, r0, lsl #8
    3e30:	00002000 	andeq	r2, r0, r0
    3e34:	001e3000 	andseq	r3, lr, r0
    3e38:	05040200 	streq	r0, [r4, #-512]	; 0xfffffe00
    3e3c:	00746e69 	rsbseq	r6, r4, r9, ror #28
    3e40:	b2070403 	andlt	r0, r7, #50331648	; 0x3000000
    3e44:	03000000 	movweq	r0, #0
    3e48:	00580601 	subseq	r0, r8, r1, lsl #12
    3e4c:	02030000 	andeq	r0, r3, #0, 0
    3e50:	00019405 	andeq	r9, r1, r5, lsl #8
    3e54:	05040300 	streq	r0, [r4, #-768]	; 0xfffffd00
    3e58:	000000ca 	andeq	r0, r0, sl, asr #1
    3e5c:	c5050803 	strgt	r0, [r5, #-2051]	; 0xfffff7fd
    3e60:	03000000 	movweq	r0, #0
    3e64:	00560801 	subseq	r0, r6, r1, lsl #16
    3e68:	02030000 	andeq	r0, r3, #0, 0
    3e6c:	00006d07 	andeq	r6, r0, r7, lsl #26
    3e70:	07040300 	streq	r0, [r4, -r0, lsl #6]
    3e74:	000000ad 	andeq	r0, r0, sp, lsr #1
    3e78:	a8070803 	stmdage	r7, {r0, r1, fp}
    3e7c:	04000000 	streq	r0, [r0], #-0
    3e80:	00000025 	andeq	r0, r0, r5, lsr #32
    3e84:	0000007a 	andeq	r0, r0, sl, ror r0
    3e88:	00002505 	andeq	r2, r0, r5, lsl #10
    3e8c:	d3060000 	movwle	r0, #24576	; 0x6000
    3e90:	02000000 	andeq	r0, r0, #0, 0
    3e94:	00860e1c 	addeq	r0, r6, ip, lsl lr
    3e98:	04070000 	streq	r0, [r7], #-0
    3e9c:	0000006b 	andeq	r0, r0, fp, rrx
    3ea0:	00002504 	andeq	r2, r0, r4, lsl #10
    3ea4:	00009b00 	andeq	r9, r0, r0, lsl #22
    3ea8:	009b0500 	addseq	r0, fp, r0, lsl #10
    3eac:	07000000 	streq	r0, [r0, -r0]
    3eb0:	0000a804 	andeq	sl, r0, r4, lsl #16
    3eb4:	08010300 	stmdaeq	r1, {r8, r9}
    3eb8:	0000005f 	andeq	r0, r0, pc, asr r0
    3ebc:	0000a108 	andeq	sl, r0, r8, lsl #2
    3ec0:	046e0600 	strbteq	r0, [lr], #-1536	; 0xfffffa00
    3ec4:	21020000 	mrscs	r0, (UNDEF: 2)
    3ec8:	0000b90e 	andeq	fp, r0, lr, lsl #18
    3ecc:	8c040700 	stchi	7, cr0, [r4], {-0}
    3ed0:	09000000 	stmdbeq	r0, {}	; <UNPREDICTABLE>
    3ed4:	0000051e 	andeq	r0, r0, lr, lsl r5
    3ed8:	0c070301 	stceq	3, cr0, [r7], {1}
    3edc:	74000001 	strvc	r0, [r0], #-1
    3ee0:	20000094 	mulcs	r0, r4, r0
    3ee4:	01000000 	mrseq	r0, (UNDEF: 0)
    3ee8:	00010c9c 	muleq	r1, ip, ip
    3eec:	31730a00 	cmncc	r3, r0, lsl #20
    3ef0:	15030100 	strne	r0, [r3, #-256]	; 0xffffff00
    3ef4:	0000010c 	andeq	r0, r0, ip, lsl #2
    3ef8:	730b5001 	movwvc	r5, #45057	; 0xb001
    3efc:	03010032 	movweq	r0, #4146	; 0x1032
    3f00:	00009b26 	andeq	r9, r0, r6, lsr #22
    3f04:	001ead00 	andseq	sl, lr, r0, lsl #26
    3f08:	001ea700 	andseq	sl, lr, r0, lsl #14
    3f0c:	00730c00 	rsbseq	r0, r3, r0, lsl #24
    3f10:	0c140401 	cfldrseq	mvf0, [r4], {1}
    3f14:	de000001 	cdple	0, 0, cr0, cr0, cr1, {0}
    3f18:	d800001e 	stmdale	r0, {r1, r2, r3, r4}
    3f1c:	0000001e 	andeq	r0, r0, lr, lsl r0
    3f20:	00a10407 	adceq	r0, r1, r7, lsl #8
    3f24:	4e000000 	cdpmi	0, 0, cr0, cr0, cr0, {0}
    3f28:	04000001 	streq	r0, [r0], #-1
    3f2c:	00165000 	andseq	r5, r6, r0
    3f30:	00010400 	andeq	r0, r1, r0, lsl #8
    3f34:	0c000003 	stceq	0, cr0, [r0], {3}
    3f38:	00000b21 	andeq	r0, r0, r1, lsr #22
    3f3c:	000003d1 	ldrdeq	r0, [r0], -r1
    3f40:	00000238 	andeq	r0, r0, r8, lsr r2
    3f44:	00000000 	andeq	r0, r0, r0
    3f48:	00001ef4 	strdeq	r1, [r0], -r4
    3f4c:	69050402 	stmdbvs	r5, {r1, sl}
    3f50:	0300746e 	movweq	r7, #1134	; 0x46e
    3f54:	000003ca 	andeq	r0, r0, sl, asr #7
    3f58:	3817d103 	ldmdacc	r7, {r0, r1, r8, ip, lr, pc}
    3f5c:	04000000 	streq	r0, [r0], #-0
    3f60:	00b20704 	adcseq	r0, r2, r4, lsl #14
    3f64:	01040000 	mrseq	r0, (UNDEF: 4)
    3f68:	00005806 	andeq	r5, r0, r6, lsl #16
    3f6c:	05020400 	streq	r0, [r2, #-1024]	; 0xfffffc00
    3f70:	00000194 	muleq	r0, r4, r1
    3f74:	ca050404 	bgt	144f8c <__bss_end__+0x13b2fc>
    3f78:	04000000 	streq	r0, [r0], #-0
    3f7c:	00c50508 	sbceq	r0, r5, r8, lsl #10
    3f80:	01040000 	mrseq	r0, (UNDEF: 4)
    3f84:	00005608 	andeq	r5, r0, r8, lsl #12
    3f88:	005b0500 	subseq	r0, fp, r0, lsl #10
    3f8c:	02040000 	andeq	r0, r4, #0, 0
    3f90:	00006d07 	andeq	r6, r0, r7, lsl #26
    3f94:	07040400 	streq	r0, [r4, -r0, lsl #8]
    3f98:	000000ad 	andeq	r0, r0, sp, lsr #1
    3f9c:	a8070804 	stmdage	r7, {r2, fp}
    3fa0:	06000000 	streq	r0, [r0], -r0
    3fa4:	00000025 	andeq	r0, r0, r5, lsr #32
    3fa8:	0000008b 	andeq	r0, r0, fp, lsl #1
    3fac:	00002507 	andeq	r2, r0, r7, lsl #10
    3fb0:	d3080000 	movwle	r0, #32768	; 0x8000
    3fb4:	02000000 	andeq	r0, r0, #0, 0
    3fb8:	00970e1c 	addseq	r0, r7, ip, lsl lr
    3fbc:	04090000 	streq	r0, [r9], #-0
    3fc0:	0000007c 	andeq	r0, r0, ip, ror r0
    3fc4:	00002506 	andeq	r2, r0, r6, lsl #10
    3fc8:	0000ac00 	andeq	sl, r0, r0, lsl #24
    3fcc:	00ac0700 	adceq	r0, ip, r0, lsl #14
    3fd0:	09000000 	stmdbeq	r0, {}	; <UNPREDICTABLE>
    3fd4:	0000b904 	andeq	fp, r0, r4, lsl #18
    3fd8:	08010400 	stmdaeq	r1, {sl}
    3fdc:	0000005f 	andeq	r0, r0, pc, asr r0
    3fe0:	0000b205 	andeq	fp, r0, r5, lsl #4
    3fe4:	046e0800 	strbteq	r0, [lr], #-2048	; 0xfffff800
    3fe8:	21020000 	mrscs	r0, (UNDEF: 2)
    3fec:	0000ca0e 	andeq	ip, r0, lr, lsl #20
    3ff0:	9d040900 	vstrls.16	s0, [r4, #-0]	; <UNPREDICTABLE>
    3ff4:	0a000000 	beq	3ffc <__code_start__-0x4004>
    3ff8:	0000057c 	andeq	r0, r0, ip, ror r5
    3ffc:	25050401 	strcs	r0, [r5, #-1025]	; 0xfffffbff
    4000:	94000000 	strls	r0, [r0], #-0
    4004:	2c000094 	stccs	0, cr0, [r0], {148}	; 0x94
    4008:	01000000 	mrseq	r0, (UNDEF: 0)
    400c:	00014b9c 	muleq	r1, ip, fp
    4010:	735f0b00 	cmpvc	pc, #0, 22
    4014:	04010031 	streq	r0, [r1], #-49	; 0xffffffcf
    4018:	0000ac19 	andeq	sl, r0, r9, lsl ip
    401c:	001f0d00 	andseq	r0, pc, r0, lsl #26
    4020:	001f0900 	andseq	r0, pc, r0, lsl #18
    4024:	735f0b00 	cmpvc	pc, #0, 22
    4028:	04010032 	streq	r0, [r1], #-50	; 0xffffffce
    402c:	0000ac2a 	andeq	sl, r0, sl, lsr #24
    4030:	001f3200 	andseq	r3, pc, r0, lsl #4
    4034:	001f2e00 	andseq	r2, pc, r0, lsl #28
    4038:	006e0b00 	rsbeq	r0, lr, r0, lsl #22
    403c:	2c360401 	cfldrscs	mvf0, [r6], #-4
    4040:	59000000 	stmdbpl	r0, {}	; <UNPREDICTABLE>
    4044:	5300001f 	movwpl	r0, #31
    4048:	0c00001f 	stceq	0, cr0, [r0], {31}
    404c:	01003173 	tsteq	r0, r3, ror r1
    4050:	014b1a05 	cmpeq	fp, r5, lsl #20
    4054:	1f8c0000 	svcne	0x008c0000
    4058:	1f840000 	svcne	0x00840000
    405c:	730c0000 	movwvc	r0, #49152	; 0xc000
    4060:	05010032 	streq	r0, [r1, #-50]	; 0xffffffce
    4064:	00014b2c 	andeq	r4, r1, ip, lsr #22
    4068:	001fc800 	andseq	ip, pc, r0, lsl #16
    406c:	001fc200 	andseq	ip, pc, r0, lsl #4
    4070:	04090000 	streq	r0, [r9], #-0
    4074:	00000062 	andeq	r0, r0, r2, rrx
    4078:	0000ce00 	andeq	ip, r0, r0, lsl #28
    407c:	04000400 	streq	r0, [r0], #-1024	; 0xfffffc00
    4080:	04000017 	streq	r0, [r0], #-23	; 0xffffffe9
    4084:	00030001 	andeq	r0, r3, r1
    4088:	0b320c00 	bleq	c87090 <__bss_end__+0xc7d400>
    408c:	03d10000 	bicseq	r0, r1, #0, 0
    4090:	94c00000 	strbls	r0, [r0], #0
    4094:	00040000 	andeq	r0, r4, r0
    4098:	20180000 	andscs	r0, r8, r0
    409c:	04020000 	streq	r0, [r2], #-0
    40a0:	746e6905 	strbtvc	r6, [lr], #-2309	; 0xfffff6fb
    40a4:	07040300 	streq	r0, [r4, -r0, lsl #6]
    40a8:	000000b2 	strheq	r0, [r0], -r2
    40ac:	58060103 	stmdapl	r6, {r0, r1, r8}
    40b0:	03000000 	movweq	r0, #0
    40b4:	01940502 	orrseq	r0, r4, r2, lsl #10
    40b8:	04030000 	streq	r0, [r3], #-0
    40bc:	0000ca05 	andeq	ip, r0, r5, lsl #20
    40c0:	05080300 	streq	r0, [r8, #-768]	; 0xfffffd00
    40c4:	000000c5 	andeq	r0, r0, r5, asr #1
    40c8:	56080103 	strpl	r0, [r8], -r3, lsl #2
    40cc:	03000000 	movweq	r0, #0
    40d0:	006d0702 	rsbeq	r0, sp, r2, lsl #14
    40d4:	04030000 	streq	r0, [r3], #-0
    40d8:	0000ad07 	andeq	sl, r0, r7, lsl #26
    40dc:	07080300 	streq	r0, [r8, -r0, lsl #6]
    40e0:	000000a8 	andeq	r0, r0, r8, lsr #1
    40e4:	00002504 	andeq	r2, r0, r4, lsl #10
    40e8:	00007a00 	andeq	r7, r0, r0, lsl #20
    40ec:	00250500 	eoreq	r0, r5, r0, lsl #10
    40f0:	06000000 	streq	r0, [r0], -r0
    40f4:	000000d3 	ldrdeq	r0, [r0], -r3
    40f8:	860e1c02 	strhi	r1, [lr], -r2, lsl #24
    40fc:	07000000 	streq	r0, [r0, -r0]
    4100:	00006b04 	andeq	r6, r0, r4, lsl #22
    4104:	00250400 	eoreq	r0, r5, r0, lsl #8
    4108:	009b0000 	addseq	r0, fp, r0
    410c:	9b050000 	blls	144114 <__bss_end__+0x13a484>
    4110:	00000000 	andeq	r0, r0, r0
    4114:	00a80407 	adceq	r0, r8, r7, lsl #8
    4118:	01030000 	mrseq	r0, (UNDEF: 3)
    411c:	00005f08 	andeq	r5, r0, r8, lsl #30
    4120:	00a10800 	adceq	r0, r1, r0, lsl #16
    4124:	6e060000 	cdpvs	0, 0, cr0, cr6, cr0, {0}
    4128:	02000004 	andeq	r0, r0, #4, 0
    412c:	00b90e21 	adcseq	r0, r9, r1, lsr #28
    4130:	04070000 	streq	r0, [r7], #-0
    4134:	0000008c 	andeq	r0, r0, ip, lsl #1
    4138:	00064109 	andeq	r4, r6, r9, lsl #2
    413c:	06030100 	streq	r0, [r3], -r0, lsl #2
    4140:	000094c0 	andeq	r9, r0, r0, asr #9
    4144:	00000004 	andeq	r0, r0, r4
    4148:	Address 0x0000000000004148 is out of bounds.


Disassembly of section .debug_abbrev:

00000000 <.debug_abbrev>:
       0:	25011101 	strcs	r1, [r1, #-257]	; 0xfffffeff
       4:	030b130e 	movweq	r1, #45838	; 0xb30e
       8:	110e1b0e 	tstne	lr, lr, lsl #22
       c:	10061201 	andne	r1, r6, r1, lsl #4
      10:	02000017 	andeq	r0, r0, #23, 0
      14:	0b0b0024 	bleq	2c00ac <__bss_end__+0x2b641c>
      18:	08030b3e 	stmdaeq	r3, {r1, r2, r3, r4, r5, r8, r9, fp}
      1c:	24030000 	strcs	r0, [r3], #-0
      20:	3e0b0b00 	vmlacc.f64	d0, d11, d0
      24:	000e030b 	andeq	r0, lr, fp, lsl #6
      28:	00260400 	eoreq	r0, r6, r0, lsl #8
      2c:	00001349 	andeq	r1, r0, r9, asr #6
      30:	27011505 	strcs	r1, [r1, -r5, lsl #10]
      34:	01134919 	tsteq	r3, r9, lsl r9
      38:	06000013 			; <UNDEFINED> instruction: 0x06000013
      3c:	13490005 	movtne	r0, #36869	; 0x9005
      40:	34070000 	strcc	r0, [r7], #-0
      44:	3a0e0300 	bcc	380c4c <__bss_end__+0x376fbc>
      48:	390b3b0b 	stmdbcc	fp, {r0, r1, r3, r8, r9, fp, ip, sp}
      4c:	3f13490b 	svccc	0x0013490b
      50:	00193c19 	andseq	r3, r9, r9, lsl ip
      54:	000f0800 	andeq	r0, pc, r0, lsl #16
      58:	13490b0b 	movtne	r0, #39691	; 0x9b0b
      5c:	34090000 	strcc	r0, [r9], #-0
      60:	3a0e0300 	bcc	380c68 <__bss_end__+0x376fd8>
      64:	390b3b0b 	stmdbcc	fp, {r0, r1, r3, r8, r9, fp, ip, sp}
      68:	1c13490b 			; <UNDEFINED> instruction: 0x1c13490b
      6c:	0a00000b 	beq	a0 <__code_start__-0x7f60>
      70:	0e030016 	mcreq	0, 0, r0, cr3, cr6, {0}
      74:	0b3b0b3a 	bleq	ec2d64 <__bss_end__+0xeb90d4>
      78:	13490b39 	movtne	r0, #39737	; 0x9b39
      7c:	130b0000 	movwne	r0, #45056	; 0xb000
      80:	3c0e0300 	stccc	3, cr0, [lr], {-0}
      84:	0c000019 	stceq	0, cr0, [r0], {25}
      88:	0b3e0104 	bleq	f804a0 <__bss_end__+0xf76810>
      8c:	13490b0b 	movtne	r0, #39691	; 0x9b0b
      90:	0b3b0b3a 	bleq	ec2d80 <__bss_end__+0xeb90f0>
      94:	13010b39 	movwne	r0, #6969	; 0x1b39
      98:	280d0000 	stmdacs	sp, {}	; <UNPREDICTABLE>
      9c:	1c0e0300 	stcne	3, cr0, [lr], {-0}
      a0:	0e00000b 	cdpeq	0, 0, cr0, cr0, cr11, {0}
      a4:	193f012e 	ldmdbne	pc!, {r1, r2, r3, r5, r8}	; <UNPREDICTABLE>
      a8:	0b3a0e03 	bleq	e838bc <__bss_end__+0xe79c2c>
      ac:	0b390b3b 	bleq	e42da0 <__bss_end__+0xe39110>
      b0:	01111927 	tsteq	r1, r7, lsr #18
      b4:	18400612 	stmdane	r0, {r1, r4, r9, sl}^
      b8:	01194297 			; <UNDEFINED> instruction: 0x01194297
      bc:	0f000013 	svceq	0x00000013
      c0:	08030034 	stmdaeq	r3, {r2, r4, r5}
      c4:	0b3b0b3a 	bleq	ec2db4 <__bss_end__+0xeb9124>
      c8:	13490b39 	movtne	r0, #39737	; 0x9b39
      cc:	42b71702 	adcsmi	r1, r7, #524288	; 0x80000
      d0:	10000017 	andne	r0, r0, r7, lsl r0
      d4:	1755010b 	ldrbne	r0, [r5, -fp, lsl #2]
      d8:	00001301 	andeq	r1, r0, r1, lsl #6
      dc:	11010b11 	tstne	r1, r1, lsl fp
      e0:	01061201 	tsteq	r6, r1, lsl #4
      e4:	12000013 	andne	r0, r0, #19, 0
      e8:	01018289 	smlabbeq	r1, r9, r2, r8
      ec:	13310111 	teqne	r1, #1073741828	; 0x40000004
      f0:	00001301 	andeq	r1, r0, r1, lsl #6
      f4:	01828a13 	orreq	r8, r2, r3, lsl sl
      f8:	91180200 	tstls	r8, r0, lsl #4
      fc:	00001842 	andeq	r1, r0, r2, asr #16
     100:	01828914 	orreq	r8, r2, r4, lsl r9
     104:	31011101 	tstcc	r1, r1, lsl #2
     108:	15000013 	strne	r0, [r0, #-19]	; 0xffffffed
     10c:	00018289 	andeq	r8, r1, r9, lsl #5
     110:	13310111 	teqne	r1, #1073741828	; 0x40000004
     114:	05160000 	ldreq	r0, [r6, #-0]
     118:	3a080300 	bcc	200d20 <__bss_end__+0x1f7090>
     11c:	390b3b0b 	stmdbcc	fp, {r0, r1, r3, r8, r9, fp, ip, sp}
     120:	0213490b 	andseq	r4, r3, #180224	; 0x2c000
     124:	1742b717 	smlaldne	fp, r2, r7, r7
     128:	2e170000 	cdpcs	0, 1, cr0, cr7, cr0, {0}
     12c:	3c193f00 	ldccc	15, cr3, [r9], {-0}
     130:	030e6e19 	movweq	r6, #60953	; 0xee19
     134:	3b0b3a0e 	blcc	2ce974 <__bss_end__+0x2c4ce4>
     138:	000b390b 	andeq	r3, fp, fp, lsl #18
     13c:	11010000 	mrsne	r0, (UNDEF: 1)
     140:	130e2501 	movwne	r2, #58625	; 0xe501
     144:	1b0e030b 	blne	380d78 <__bss_end__+0x3770e8>
     148:	1201110e 	andne	r1, r1, #-2147483645	; 0x80000003
     14c:	00171006 	andseq	r1, r7, r6
     150:	00240200 	eoreq	r0, r4, r0, lsl #4
     154:	0b3e0b0b 	bleq	f82d88 <__bss_end__+0xf790f8>
     158:	00000803 	andeq	r0, r0, r3, lsl #16
     15c:	0b002403 	bleq	9170 <kmalloc_notzero+0x24>
     160:	030b3e0b 	movweq	r3, #48651	; 0xbe0b
     164:	0400000e 	streq	r0, [r0], #-14
     168:	13490026 	movtne	r0, #36902	; 0x9026
     16c:	16050000 	strne	r0, [r5], -r0
     170:	3a0e0300 	bcc	380d78 <__bss_end__+0x3770e8>
     174:	390b3b0b 	stmdbcc	fp, {r0, r1, r3, r8, r9, fp, ip, sp}
     178:	0013490b 	andseq	r4, r3, fp, lsl #18
     17c:	01150600 	tsteq	r5, r0, lsl #12
     180:	13491927 	movtne	r1, #39207	; 0x9927
     184:	00001301 	andeq	r1, r0, r1, lsl #6
     188:	49000507 	stmdbmi	r0, {r0, r1, r2, r8, sl}
     18c:	08000013 	stmdaeq	r0, {r0, r1, r4}
     190:	0e030034 	mcreq	0, 0, r0, cr3, cr4, {1}
     194:	0b3b0b3a 	bleq	ec2e84 <__bss_end__+0xeb91f4>
     198:	13490b39 	movtne	r0, #39737	; 0x9b39
     19c:	193c193f 	ldmdbne	ip!, {r0, r1, r2, r3, r4, r5, r8, fp, ip}
     1a0:	0f090000 	svceq	0x00090000
     1a4:	490b0b00 	stmdbmi	fp, {r8, r9, fp}
     1a8:	0a000013 	beq	1fc <__code_start__-0x7e04>
     1ac:	0e030113 	mcreq	1, 0, r0, cr3, cr3, {0}
     1b0:	0b3a0b0b 	bleq	e82de4 <__bss_end__+0xe79154>
     1b4:	0b390b3b 	bleq	e42ea8 <__bss_end__+0xe39218>
     1b8:	00001301 	andeq	r1, r0, r1, lsl #6
     1bc:	03000d0b 	movweq	r0, #3339	; 0xd0b
     1c0:	3b0b3a08 	blcc	2ce9e8 <__bss_end__+0x2c4d58>
     1c4:	490b390b 	stmdbmi	fp, {r0, r1, r3, r8, fp, ip, sp}
     1c8:	000b3813 	andeq	r3, fp, r3, lsl r8
     1cc:	000d0c00 	andeq	r0, sp, r0, lsl #24
     1d0:	0b3a0e03 	bleq	e839e4 <__bss_end__+0xe79d54>
     1d4:	0b390b3b 	bleq	e42ec8 <__bss_end__+0xe39238>
     1d8:	0b381349 	bleq	e04f04 <__bss_end__+0xdfb274>
     1dc:	040d0000 	streq	r0, [sp], #-0
     1e0:	0b0b3e01 	bleq	2cf9ec <__bss_end__+0x2c5d5c>
     1e4:	3a13490b 	bcc	4d2618 <__bss_end__+0x4c8988>
     1e8:	390b3b0b 	stmdbcc	fp, {r0, r1, r3, r8, r9, fp, ip, sp}
     1ec:	0013010b 	andseq	r0, r3, fp, lsl #2
     1f0:	00280e00 	eoreq	r0, r8, r0, lsl #28
     1f4:	051c0803 	ldreq	r0, [ip, #-2051]	; 0xfffff7fd
     1f8:	280f0000 	stmdacs	pc, {}	; <UNPREDICTABLE>
     1fc:	1c080300 	stcne	3, cr0, [r8], {-0}
     200:	1000000b 	andne	r0, r0, fp
     204:	0e030028 	cdpeq	0, 0, cr0, cr3, cr8, {1}
     208:	0000051c 	andeq	r0, r0, ip, lsl r5
     20c:	03003411 	movweq	r3, #1041	; 0x411
     210:	3b0b3a0e 	blcc	2cea50 <__bss_end__+0x2c4dc0>
     214:	490b390b 	stmdbmi	fp, {r0, r1, r3, r8, fp, ip, sp}
     218:	000b1c13 	andeq	r1, fp, r3, lsl ip
     21c:	01011200 	mrseq	r1, R9_usr
     220:	13011349 	movwne	r1, #4937	; 0x1349
     224:	21130000 	tstcs	r3, r0
     228:	00134900 	andseq	r4, r3, r0, lsl #18
     22c:	012e1400 			; <UNDEFINED> instruction: 0x012e1400
     230:	0e03193f 			; <UNDEFINED> instruction: 0x0e03193f
     234:	0b3b0b3a 	bleq	ec2f24 <__bss_end__+0xeb9294>
     238:	19270b39 	stmdbne	r7!, {r0, r3, r4, r5, r8, r9, fp}
     23c:	06120111 			; <UNDEFINED> instruction: 0x06120111
     240:	42971840 	addsmi	r1, r7, #64, 16	; 0x400000
     244:	00130119 	andseq	r0, r3, r9, lsl r1
     248:	00051500 	andeq	r1, r5, r0, lsl #10
     24c:	0b3a0803 	bleq	e82260 <__bss_end__+0xe785d0>
     250:	0b390b3b 	bleq	e42f44 <__bss_end__+0xe392b4>
     254:	17021349 	strne	r1, [r2, -r9, asr #6]
     258:	001742b7 			; <UNDEFINED> instruction: 0x001742b7
     25c:	00051600 	andeq	r1, r5, r0, lsl #12
     260:	0b3a0803 	bleq	e82274 <__bss_end__+0xe785e4>
     264:	0b390b3b 	bleq	e42f58 <__bss_end__+0xe392c8>
     268:	18021349 	stmdane	r2, {r0, r3, r6, r8, r9, ip}
     26c:	89170000 	ldmdbhi	r7, {}	; <UNPREDICTABLE>
     270:	11010182 	smlabbne	r1, r2, r1, r0
     274:	00133101 	andseq	r3, r3, r1, lsl #2
     278:	828a1800 	addhi	r1, sl, #0, 16
     27c:	18020001 	stmdane	r2, {r0}
     280:	00184291 	mulseq	r8, r1, r2
     284:	010b1900 	tsteq	fp, r0, lsl #18
     288:	06120111 			; <UNDEFINED> instruction: 0x06120111
     28c:	00001301 	andeq	r1, r0, r1, lsl #6
     290:	0300341a 	movweq	r3, #1050	; 0x41a
     294:	3b0b3a08 	blcc	2ceabc <__bss_end__+0x2c4e2c>
     298:	490b390b 	stmdbmi	fp, {r0, r1, r3, r8, fp, ip, sp}
     29c:	b7170213 			; <UNDEFINED> instruction: 0xb7170213
     2a0:	00001742 	andeq	r1, r0, r2, asr #14
     2a4:	31011d1b 	tstcc	r1, fp, lsl sp
     2a8:	b8015213 	stmdalt	r1, {r0, r1, r4, r9, ip, lr}
     2ac:	17550b42 	ldrbne	r0, [r5, -r2, asr #22]
     2b0:	0b590b58 	bleq	1643018 <__bss_end__+0x1639388>
     2b4:	00000b57 	andeq	r0, r0, r7, asr fp
     2b8:	3100051c 	tstcc	r0, ip, lsl r5
     2bc:	b7170213 			; <UNDEFINED> instruction: 0xb7170213
     2c0:	00001742 	andeq	r1, r0, r2, asr #14
     2c4:	0182891d 	orreq	r8, r2, sp, lsl r9
     2c8:	31011101 	tstcc	r1, r1, lsl #2
     2cc:	00130113 	andseq	r0, r3, r3, lsl r1
     2d0:	011d1e00 	tsteq	sp, r0, lsl #28
     2d4:	01521331 	cmpeq	r2, r1, lsr r3
     2d8:	110b42b8 			; <UNDEFINED> instruction: 0x110b42b8
     2dc:	58061201 	stmdapl	r6, {r0, r9, ip}
     2e0:	570b590b 	strpl	r5, [fp, -fp, lsl #18]
     2e4:	1f00000b 	svcne	0x0000000b
     2e8:	193f012e 	ldmdbne	pc!, {r1, r2, r3, r5, r8}	; <UNPREDICTABLE>
     2ec:	0b3a0e03 	bleq	e83b00 <__bss_end__+0xe79e70>
     2f0:	0b390b3b 	bleq	e42fe4 <__bss_end__+0xe39354>
     2f4:	13491927 	movtne	r1, #39207	; 0x9927
     2f8:	06120111 			; <UNDEFINED> instruction: 0x06120111
     2fc:	42971840 	addsmi	r1, r7, #64, 16	; 0x400000
     300:	00130119 	andseq	r0, r3, r9, lsl r1
     304:	00052000 	andeq	r2, r5, r0
     308:	0b3a0e03 	bleq	e83b1c <__bss_end__+0xe79e8c>
     30c:	0b390b3b 	bleq	e43000 <__bss_end__+0xe39370>
     310:	17021349 	strne	r1, [r2, -r9, asr #6]
     314:	001742b7 			; <UNDEFINED> instruction: 0x001742b7
     318:	00342100 	eorseq	r2, r4, r0, lsl #2
     31c:	0b3a0e03 	bleq	e83b30 <__bss_end__+0xe79ea0>
     320:	0b390b3b 	bleq	e43014 <__bss_end__+0xe39384>
     324:	17021349 	strne	r1, [r2, -r9, asr #6]
     328:	001742b7 			; <UNDEFINED> instruction: 0x001742b7
     32c:	010b2200 	mrseq	r2, R11_fiq
     330:	00001755 	andeq	r1, r0, r5, asr r7
     334:	31003423 	tstcc	r0, r3, lsr #8
     338:	b7170213 			; <UNDEFINED> instruction: 0xb7170213
     33c:	00001742 	andeq	r1, r0, r2, asr #14
     340:	31010b24 	tstcc	r1, r4, lsr #22
     344:	12011113 	andne	r1, r1, #-1073741820	; 0xc0000004
     348:	00130106 	andseq	r0, r3, r6, lsl #2
     34c:	011d2500 	tsteq	sp, r0, lsl #10
     350:	01521331 	cmpeq	r2, r1, lsr r3
     354:	550b42b8 	strpl	r4, [fp, #-696]	; 0xfffffd48
     358:	590b5817 	stmdbpl	fp, {r0, r1, r2, r4, fp, ip, lr}
     35c:	010b570b 	tsteq	fp, fp, lsl #14
     360:	26000013 			; <UNDEFINED> instruction: 0x26000013
     364:	1331011d 	teqne	r1, #1073741831	; 0x40000007
     368:	06120111 			; <UNDEFINED> instruction: 0x06120111
     36c:	0b590b58 	bleq	16430d4 <__bss_end__+0x1639444>
     370:	00000b57 	andeq	r0, r0, r7, asr fp
     374:	31000527 	tstcc	r0, r7, lsr #10
     378:	28000013 	stmdacs	r0, {r0, r1, r4}
     37c:	1331010b 	teqne	r1, #-1073741822	; 0xc0000002
     380:	06120111 			; <UNDEFINED> instruction: 0x06120111
     384:	2e290000 	cdpcs	0, 2, cr0, cr9, cr0, {0}
     388:	3a0e0301 	bcc	380f94 <__bss_end__+0x377304>
     38c:	390b3b0b 	stmdbcc	fp, {r0, r1, r3, r8, r9, fp, ip, sp}
     390:	2019270b 	andscs	r2, r9, fp, lsl #14
     394:	0013010b 	andseq	r0, r3, fp, lsl #2
     398:	00052a00 	andeq	r2, r5, r0, lsl #20
     39c:	0b3a0803 	bleq	e823b0 <__bss_end__+0xe78720>
     3a0:	0b390b3b 	bleq	e43094 <__bss_end__+0xe39404>
     3a4:	00001349 	andeq	r1, r0, r9, asr #6
     3a8:	03012e2b 	movweq	r2, #7723	; 0x1e2b
     3ac:	3b0b3a0e 	blcc	2cebec <__bss_end__+0x2c4f5c>
     3b0:	270b390b 	strcs	r3, [fp, -fp, lsl #18]
     3b4:	12011119 	andne	r1, r1, #1073741830	; 0x40000006
     3b8:	97184006 	ldrls	r4, [r8, -r6]
     3bc:	13011942 	movwne	r1, #6466	; 0x1942
     3c0:	1d2c0000 	stcne	0, cr0, [ip, #-0]
     3c4:	55133101 	ldrpl	r3, [r3, #-257]	; 0xfffffeff
     3c8:	590b5817 	stmdbpl	fp, {r0, r1, r2, r4, fp, ip, lr}
     3cc:	010b570b 	tsteq	fp, fp, lsl #14
     3d0:	2d000013 	stccs	0, cr0, [r0, #-76]	; 0xffffffb4
     3d4:	1331011d 	teqne	r1, #1073741831	; 0x40000007
     3d8:	06120111 			; <UNDEFINED> instruction: 0x06120111
     3dc:	0b590b58 	bleq	1643144 <__bss_end__+0x16394b4>
     3e0:	13010b57 	movwne	r0, #6999	; 0x1b57
     3e4:	1d2e0000 	stcne	0, cr0, [lr, #-0]
     3e8:	52133101 	andspl	r3, r3, #1073741824	; 0x40000000
     3ec:	0b42b801 	bleq	10ae3f8 <__bss_end__+0x10a4768>
     3f0:	06120111 			; <UNDEFINED> instruction: 0x06120111
     3f4:	0b590b58 	bleq	164315c <__bss_end__+0x16394cc>
     3f8:	13010b57 	movwne	r0, #6999	; 0x1b57
     3fc:	052f0000 	streq	r0, [pc, #-0]!	; 404 <__code_start__-0x7bfc>
     400:	1c133100 	ldfnes	f3, [r3], {-0}
     404:	3000000b 	andcc	r0, r0, fp
     408:	0e030034 	mcreq	0, 0, r0, cr3, cr4, {1}
     40c:	19341349 	ldmdbne	r4!, {r0, r3, r6, r8, r9, ip}
     410:	21310000 	teqcs	r1, r0
     414:	2f134900 	svccs	0x00134900
     418:	3200000b 	andcc	r0, r0, #11, 0
     41c:	0803012e 	stmdaeq	r3, {r1, r2, r3, r5, r8}
     420:	0b3b0b3a 	bleq	ec3110 <__bss_end__+0xeb9480>
     424:	19270b39 	stmdbne	r7!, {r0, r3, r4, r5, r8, r9, fp}
     428:	13010b20 	movwne	r0, #6944	; 0x1b20
     42c:	05330000 	ldreq	r0, [r3, #-0]!
     430:	3a0e0300 	bcc	381038 <__bss_end__+0x3773a8>
     434:	390b3b0b 	stmdbcc	fp, {r0, r1, r3, r8, r9, fp, ip, sp}
     438:	0013490b 	andseq	r4, r3, fp, lsl #18
     43c:	00343400 	eorseq	r3, r4, r0, lsl #8
     440:	0b3a0e03 	bleq	e83c54 <__bss_end__+0xe79fc4>
     444:	0b390b3b 	bleq	e43138 <__bss_end__+0xe394a8>
     448:	00001349 	andeq	r1, r0, r9, asr #6
     44c:	00010b35 	andeq	r0, r1, r5, lsr fp
     450:	00343600 	eorseq	r3, r4, r0, lsl #12
     454:	0b3a0803 	bleq	e82468 <__bss_end__+0xe787d8>
     458:	0b390b3b 	bleq	e4314c <__bss_end__+0xe394bc>
     45c:	00001349 	andeq	r1, r0, r9, asr #6
     460:	3f002e37 	svccc	0x00002e37
     464:	6e193c19 	mrcvs	12, 0, r3, cr9, cr9, {0}
     468:	3a0e030e 	bcc	3810a8 <__bss_end__+0x377418>
     46c:	390b3b0b 	stmdbcc	fp, {r0, r1, r3, r8, r9, fp, ip, sp}
     470:	0000000b 	andeq	r0, r0, fp
     474:	25011101 	strcs	r1, [r1, #-257]	; 0xfffffeff
     478:	030b130e 	movweq	r1, #45838	; 0xb30e
     47c:	110e1b0e 	tstne	lr, lr, lsl #22
     480:	10061201 	andne	r1, r6, r1, lsl #4
     484:	02000017 	andeq	r0, r0, #23, 0
     488:	0b0b0024 	bleq	2c0520 <__bss_end__+0x2b6890>
     48c:	08030b3e 	stmdaeq	r3, {r1, r2, r3, r4, r5, r8, r9, fp}
     490:	16030000 	strne	r0, [r3], -r0
     494:	3a0e0300 	bcc	38109c <__bss_end__+0x37740c>
     498:	390b3b0b 	stmdbcc	fp, {r0, r1, r3, r8, r9, fp, ip, sp}
     49c:	0013490b 	andseq	r4, r3, fp, lsl #18
     4a0:	00240400 	eoreq	r0, r4, r0, lsl #8
     4a4:	0b3e0b0b 	bleq	f830d8 <__bss_end__+0xf79448>
     4a8:	00000e03 	andeq	r0, r0, r3, lsl #28
     4ac:	27011505 	strcs	r1, [r1, -r5, lsl #10]
     4b0:	01134919 	tsteq	r3, r9, lsl r9
     4b4:	06000013 			; <UNDEFINED> instruction: 0x06000013
     4b8:	13490005 	movtne	r0, #36869	; 0x9005
     4bc:	34070000 	strcc	r0, [r7], #-0
     4c0:	3a0e0300 	bcc	3810c8 <__bss_end__+0x377438>
     4c4:	390b3b0b 	stmdbcc	fp, {r0, r1, r3, r8, r9, fp, ip, sp}
     4c8:	3f13490b 	svccc	0x0013490b
     4cc:	00193c19 	andseq	r3, r9, r9, lsl ip
     4d0:	000f0800 	andeq	r0, pc, r0, lsl #16
     4d4:	13490b0b 	movtne	r0, #39691	; 0x9b0b
     4d8:	26090000 	strcs	r0, [r9], -r0
     4dc:	00134900 	andseq	r4, r3, r0, lsl #18
     4e0:	012e0a00 			; <UNDEFINED> instruction: 0x012e0a00
     4e4:	0e03193f 			; <UNDEFINED> instruction: 0x0e03193f
     4e8:	0b3b0b3a 	bleq	ec31d8 <__bss_end__+0xeb9548>
     4ec:	19270b39 	stmdbne	r7!, {r0, r3, r4, r5, r8, r9, fp}
     4f0:	01111349 	tsteq	r1, r9, asr #6
     4f4:	18400612 	stmdane	r0, {r1, r4, r9, sl}^
     4f8:	01194297 			; <UNDEFINED> instruction: 0x01194297
     4fc:	0b000013 	bleq	550 <__code_start__-0x7ab0>
     500:	08030005 	stmdaeq	r3, {r0, r2}
     504:	0b3b0b3a 	bleq	ec31f4 <__bss_end__+0xeb9564>
     508:	13490b39 	movtne	r0, #39737	; 0x9b39
     50c:	00001802 	andeq	r1, r0, r2, lsl #16
     510:	0300050c 	movweq	r0, #1292	; 0x50c
     514:	3b0b3a08 	blcc	2ced3c <__bss_end__+0x2c50ac>
     518:	490b390b 	stmdbmi	fp, {r0, r1, r3, r8, fp, ip, sp}
     51c:	b7170213 			; <UNDEFINED> instruction: 0xb7170213
     520:	00001742 	andeq	r1, r0, r2, asr #14
     524:	0300340d 	movweq	r3, #1037	; 0x40d
     528:	3b0b3a08 	blcc	2ced50 <__bss_end__+0x2c50c0>
     52c:	490b390b 	stmdbmi	fp, {r0, r1, r3, r8, fp, ip, sp}
     530:	b7170213 			; <UNDEFINED> instruction: 0xb7170213
     534:	00001742 	andeq	r1, r0, r2, asr #14
     538:	0b000f0e 	bleq	4178 <__code_start__-0x3e88>
     53c:	0000000b 	andeq	r0, r0, fp
     540:	25011101 	strcs	r1, [r1, #-257]	; 0xfffffeff
     544:	030b130e 	movweq	r1, #45838	; 0xb30e
     548:	110e1b0e 	tstne	lr, lr, lsl #22
     54c:	10061201 	andne	r1, r6, r1, lsl #4
     550:	02000017 	andeq	r0, r0, #23, 0
     554:	0e030016 	mcreq	0, 0, r0, cr3, cr6, {0}
     558:	0b3b0b3a 	bleq	ec3248 <__bss_end__+0xeb95b8>
     55c:	13490b39 	movtne	r0, #39737	; 0x9b39
     560:	13030000 	movwne	r0, #12288	; 0x3000
     564:	0b0e0301 	bleq	381170 <__bss_end__+0x3774e0>
     568:	3b0b3a0b 	blcc	2ced9c <__bss_end__+0x2c510c>
     56c:	0013010b 	andseq	r0, r3, fp, lsl #2
     570:	000d0400 	andeq	r0, sp, r0, lsl #8
     574:	13490e03 	movtne	r0, #40451	; 0x9e03
     578:	19340b38 	ldmdbne	r4!, {r3, r4, r5, r8, r9, fp}
     57c:	0f050000 	svceq	0x00050000
     580:	000b0b00 	andeq	r0, fp, r0, lsl #22
     584:	00240600 	eoreq	r0, r4, r0, lsl #12
     588:	0b3e0b0b 	bleq	f831bc <__bss_end__+0xf7952c>
     58c:	00000803 	andeq	r0, r0, r3, lsl #16
     590:	0b002407 	bleq	95b4 <__code_end__+0xd8>
     594:	030b3e0b 	movweq	r3, #48651	; 0xbe0b
     598:	0800000e 	stmdaeq	r0, {r1, r2, r3}
     59c:	19270115 	stmdbne	r7!, {r0, r2, r4, r8}
     5a0:	13011349 	movwne	r1, #4937	; 0x1349
     5a4:	05090000 	streq	r0, [r9, #-0]
     5a8:	00134900 	andseq	r4, r3, r0, lsl #18
     5ac:	00340a00 	eorseq	r0, r4, r0, lsl #20
     5b0:	0b3a0e03 	bleq	e83dc4 <__bss_end__+0xe7a134>
     5b4:	0b390b3b 	bleq	e432a8 <__bss_end__+0xe39618>
     5b8:	193f1349 	ldmdbne	pc!, {r0, r3, r6, r8, r9, ip}	; <UNPREDICTABLE>
     5bc:	0000193c 	andeq	r1, r0, ip, lsr r9
     5c0:	0b000f0b 	bleq	41f4 <__code_start__-0x3e0c>
     5c4:	0013490b 	andseq	r4, r3, fp, lsl #18
     5c8:	00260c00 	eoreq	r0, r6, r0, lsl #24
     5cc:	00001349 	andeq	r1, r0, r9, asr #6
     5d0:	3f012e0d 	svccc	0x00012e0d
     5d4:	3a0e0319 	bcc	381240 <__bss_end__+0x3775b0>
     5d8:	390b3b0b 	stmdbcc	fp, {r0, r1, r3, r8, r9, fp, ip, sp}
     5dc:	4919270b 	ldmdbmi	r9, {r0, r1, r3, r8, r9, sl, sp}
     5e0:	12011113 	andne	r1, r1, #-1073741820	; 0xc0000004
     5e4:	97184006 	ldrls	r4, [r8, -r6]
     5e8:	13011942 	movwne	r1, #6466	; 0x1942
     5ec:	050e0000 	streq	r0, [lr, #-0]
     5f0:	3a080300 	bcc	2011f8 <__bss_end__+0x1f7568>
     5f4:	390b3b0b 	stmdbcc	fp, {r0, r1, r3, r8, r9, fp, ip, sp}
     5f8:	0213490b 	andseq	r4, r3, #180224	; 0x2c000
     5fc:	0f000018 	svceq	0x00000018
     600:	00000018 	andeq	r0, r0, r8, lsl r0
     604:	03003410 	movweq	r3, #1040	; 0x410
     608:	3b0b3a08 	blcc	2cee30 <__bss_end__+0x2c51a0>
     60c:	490b390b 	stmdbmi	fp, {r0, r1, r3, r8, fp, ip, sp}
     610:	00180213 	andseq	r0, r8, r3, lsl r2
     614:	00341100 	eorseq	r1, r4, r0, lsl #2
     618:	0b3a0e03 	bleq	e83e2c <__bss_end__+0xe7a19c>
     61c:	0b390b3b 	bleq	e43310 <__bss_end__+0xe39680>
     620:	18021349 	stmdane	r2, {r0, r3, r6, r8, r9, ip}
     624:	34120000 	ldrcc	r0, [r2], #-0
     628:	3a080300 	bcc	201230 <__bss_end__+0x1f75a0>
     62c:	390b3b0b 	stmdbcc	fp, {r0, r1, r3, r8, r9, fp, ip, sp}
     630:	0213490b 	andseq	r4, r3, #180224	; 0x2c000
     634:	1742b717 	smlaldne	fp, r2, r7, r7
     638:	89130000 	ldmdbhi	r3, {}	; <UNPREDICTABLE>
     63c:	11010182 	smlabbne	r1, r2, r1, r0
     640:	01133101 	tsteq	r3, r1, lsl #2
     644:	14000013 	strne	r0, [r0], #-19	; 0xffffffed
     648:	0001828a 	andeq	r8, r1, sl, lsl #5
     64c:	42911802 	addsmi	r1, r1, #131072	; 0x20000
     650:	15000018 	strne	r0, [r0, #-24]	; 0xffffffe8
     654:	01018289 	smlabbeq	r1, r9, r2, r8
     658:	00000111 	andeq	r0, r0, r1, lsl r1
     65c:	49010116 	stmdbmi	r1, {r1, r2, r4, r8}
     660:	00130113 	andseq	r0, r3, r3, lsl r1
     664:	00211700 	eoreq	r1, r1, r0, lsl #14
     668:	052f1349 	streq	r1, [pc, #-841]!	; 327 <__code_start__-0x7cd9>
     66c:	2e180000 	cdpcs	0, 1, cr0, cr8, cr0, {0}
     670:	3c193f00 	ldccc	15, cr3, [r9], {-0}
     674:	030e6e19 	movweq	r6, #60953	; 0xee19
     678:	3b0b3a0e 	blcc	2ceeb8 <__bss_end__+0x2c5228>
     67c:	000b390b 	andeq	r3, fp, fp, lsl #18
     680:	11010000 	mrsne	r0, (UNDEF: 1)
     684:	130e2501 	movwne	r2, #58625	; 0xe501
     688:	1b0e030b 	blne	3812bc <__bss_end__+0x37762c>
     68c:	1201110e 	andne	r1, r1, #-2147483645	; 0x80000003
     690:	00171006 	andseq	r1, r7, r6
     694:	00240200 	eoreq	r0, r4, r0, lsl #4
     698:	0b3e0b0b 	bleq	f832cc <__bss_end__+0xf7963c>
     69c:	00000803 	andeq	r0, r0, r3, lsl #16
     6a0:	0b002403 	bleq	96b4 <__FUNCTION__.4034+0x50>
     6a4:	030b3e0b 	movweq	r3, #48651	; 0xbe0b
     6a8:	0400000e 	streq	r0, [r0], #-14
     6ac:	19270115 	stmdbne	r7!, {r0, r2, r4, r8}
     6b0:	13011349 	movwne	r1, #4937	; 0x1349
     6b4:	05050000 	streq	r0, [r5, #-0]
     6b8:	00134900 	andseq	r4, r3, r0, lsl #18
     6bc:	00340600 	eorseq	r0, r4, r0, lsl #12
     6c0:	0b3a0e03 	bleq	e83ed4 <__bss_end__+0xe7a244>
     6c4:	0b390b3b 	bleq	e433b8 <__bss_end__+0xe39728>
     6c8:	193f1349 	ldmdbne	pc!, {r0, r3, r6, r8, r9, ip}	; <UNPREDICTABLE>
     6cc:	0000193c 	andeq	r1, r0, ip, lsr r9
     6d0:	0b000f07 	bleq	42f4 <__code_start__-0x3d0c>
     6d4:	0013490b 	andseq	r4, r3, fp, lsl #18
     6d8:	00260800 	eoreq	r0, r6, r0, lsl #16
     6dc:	00001349 	andeq	r1, r0, r9, asr #6
     6e0:	47003409 	strmi	r3, [r0, -r9, lsl #8]
     6e4:	3b0b3a13 	blcc	2cef38 <__bss_end__+0x2c52a8>
     6e8:	020b390b 	andeq	r3, fp, #180224	; 0x2c000
     6ec:	0a000018 	beq	754 <__code_start__-0x78ac>
     6f0:	193f012e 	ldmdbne	pc!, {r1, r2, r3, r5, r8}	; <UNPREDICTABLE>
     6f4:	0b3a0e03 	bleq	e83f08 <__bss_end__+0xe7a278>
     6f8:	0b390b3b 	bleq	e433ec <__bss_end__+0xe3975c>
     6fc:	13491927 	movtne	r1, #39207	; 0x9927
     700:	06120111 			; <UNDEFINED> instruction: 0x06120111
     704:	42961840 	addsmi	r1, r6, #64, 16	; 0x400000
     708:	0b000019 	bleq	774 <__code_start__-0x788c>
     70c:	08030005 	stmdaeq	r3, {r0, r2}
     710:	0b3b0b3a 	bleq	ec3400 <__bss_end__+0xeb9770>
     714:	13490b39 	movtne	r0, #39737	; 0x9b39
     718:	42b71702 	adcsmi	r1, r7, #524288	; 0x80000
     71c:	00000017 	andeq	r0, r0, r7, lsl r0
     720:	25011101 	strcs	r1, [r1, #-257]	; 0xfffffeff
     724:	030b130e 	movweq	r1, #45838	; 0xb30e
     728:	110e1b0e 	tstne	lr, lr, lsl #22
     72c:	10061201 	andne	r1, r6, r1, lsl #4
     730:	02000017 	andeq	r0, r0, #23, 0
     734:	0b0b0024 	bleq	2c07cc <__bss_end__+0x2b6b3c>
     738:	08030b3e 	stmdaeq	r3, {r1, r2, r3, r4, r5, r8, r9, fp}
     73c:	24030000 	strcs	r0, [r3], #-0
     740:	3e0b0b00 	vmlacc.f64	d0, d11, d0
     744:	000e030b 	andeq	r0, lr, fp, lsl #6
     748:	00160400 	andseq	r0, r6, r0, lsl #8
     74c:	0b3a0e03 	bleq	e83f60 <__bss_end__+0xe7a2d0>
     750:	0b390b3b 	bleq	e43444 <__bss_end__+0xe397b4>
     754:	00001349 	andeq	r1, r0, r9, asr #6
     758:	27011505 	strcs	r1, [r1, -r5, lsl #10]
     75c:	01134919 	tsteq	r3, r9, lsl r9
     760:	06000013 			; <UNDEFINED> instruction: 0x06000013
     764:	13490005 	movtne	r0, #36869	; 0x9005
     768:	34070000 	strcc	r0, [r7], #-0
     76c:	3a0e0300 	bcc	381374 <__bss_end__+0x3776e4>
     770:	390b3b0b 	stmdbcc	fp, {r0, r1, r3, r8, r9, fp, ip, sp}
     774:	3f13490b 	svccc	0x0013490b
     778:	00193c19 	andseq	r3, r9, r9, lsl ip
     77c:	000f0800 	andeq	r0, pc, r0, lsl #16
     780:	13490b0b 	movtne	r0, #39691	; 0x9b0b
     784:	26090000 	strcs	r0, [r9], -r0
     788:	00134900 	andseq	r4, r3, r0, lsl #18
     78c:	01130a00 	tsteq	r3, r0, lsl #20
     790:	0b0b0e03 	bleq	2c3fa4 <__bss_end__+0x2ba314>
     794:	0b3b0b3a 	bleq	ec3484 <__bss_end__+0xeb97f4>
     798:	00001301 	andeq	r1, r0, r1, lsl #6
     79c:	03000d0b 	movweq	r0, #3339	; 0xd0b
     7a0:	3813490e 	ldmdacc	r3, {r1, r2, r3, r8, fp, lr}
     7a4:	0019340b 	andseq	r3, r9, fp, lsl #8
     7a8:	000f0c00 	andeq	r0, pc, r0, lsl #24
     7ac:	00000b0b 	andeq	r0, r0, fp, lsl #22
     7b0:	3f012e0d 	svccc	0x00012e0d
     7b4:	3a0e0319 	bcc	381420 <__bss_end__+0x377790>
     7b8:	390b3b0b 	stmdbcc	fp, {r0, r1, r3, r8, r9, fp, ip, sp}
     7bc:	4919270b 	ldmdbmi	r9, {r0, r1, r3, r8, r9, sl, sp}
     7c0:	12011113 	andne	r1, r1, #-1073741820	; 0xc0000004
     7c4:	97184006 	ldrls	r4, [r8, -r6]
     7c8:	13011942 	movwne	r1, #6466	; 0x1942
     7cc:	050e0000 	streq	r0, [lr, #-0]
     7d0:	3a080300 	bcc	2013d8 <__bss_end__+0x1f7748>
     7d4:	390b3b0b 	stmdbcc	fp, {r0, r1, r3, r8, r9, fp, ip, sp}
     7d8:	0213490b 	andseq	r4, r3, #180224	; 0x2c000
     7dc:	1742b717 	smlaldne	fp, r2, r7, r7
     7e0:	050f0000 	streq	r0, [pc, #-0]	; 7e8 <__code_start__-0x7818>
     7e4:	3a0e0300 	bcc	3813ec <__bss_end__+0x37775c>
     7e8:	390b3b0b 	stmdbcc	fp, {r0, r1, r3, r8, r9, fp, ip, sp}
     7ec:	0213490b 	andseq	r4, r3, #180224	; 0x2c000
     7f0:	10000018 	andne	r0, r0, r8, lsl r0
     7f4:	08030034 	stmdaeq	r3, {r2, r4, r5}
     7f8:	0b3b0b3a 	bleq	ec34e8 <__bss_end__+0xeb9858>
     7fc:	13490b39 	movtne	r0, #39737	; 0x9b39
     800:	42b71702 	adcsmi	r1, r7, #524288	; 0x80000
     804:	11000017 	tstne	r0, r7, lsl r0
     808:	0e030034 	mcreq	0, 0, r0, cr3, cr4, {1}
     80c:	0b3b0b3a 	bleq	ec34fc <__bss_end__+0xeb986c>
     810:	13490b39 	movtne	r0, #39737	; 0x9b39
     814:	42b71702 	adcsmi	r1, r7, #524288	; 0x80000
     818:	12000017 	andne	r0, r0, #23, 0
     81c:	0e030034 	mcreq	0, 0, r0, cr3, cr4, {1}
     820:	19341349 	ldmdbne	r4!, {r0, r3, r6, r8, r9, ip}
     824:	00001802 	andeq	r1, r0, r2, lsl #16
     828:	11010b13 	tstne	r1, r3, lsl fp
     82c:	00061201 	andeq	r1, r6, r1, lsl #4
     830:	00341400 	eorseq	r1, r4, r0, lsl #8
     834:	0b3a0803 	bleq	e82848 <__bss_end__+0xe78bb8>
     838:	0b390b3b 	bleq	e4352c <__bss_end__+0xe3989c>
     83c:	18021349 	stmdane	r2, {r0, r3, r6, r8, r9, ip}
     840:	34150000 	ldrcc	r0, [r5], #-0
     844:	3a0e0300 	bcc	38144c <__bss_end__+0x3777bc>
     848:	390b3b0b 	stmdbcc	fp, {r0, r1, r3, r8, r9, fp, ip, sp}
     84c:	0213490b 	andseq	r4, r3, #180224	; 0x2c000
     850:	16000018 			; <UNDEFINED> instruction: 0x16000018
     854:	0111010b 	tsteq	r1, fp, lsl #2
     858:	13010612 	movwne	r0, #5650	; 0x1612
     85c:	34170000 	ldrcc	r0, [r7], #-0
     860:	3a080300 	bcc	201468 <__bss_end__+0x1f77d8>
     864:	390b3b0b 	stmdbcc	fp, {r0, r1, r3, r8, r9, fp, ip, sp}
     868:	0013490b 	andseq	r4, r3, fp, lsl #18
     86c:	82891800 	addhi	r1, r9, #0, 16
     870:	01110101 	tsteq	r1, r1, lsl #2
     874:	13011331 	movwne	r1, #4913	; 0x1331
     878:	8a190000 	bhi	640880 <__bss_end__+0x636bf0>
     87c:	02000182 	andeq	r0, r0, #-2147483616	; 0x80000020
     880:	18429118 	stmdane	r2, {r3, r4, r8, ip, pc}^
     884:	891a0000 	ldmdbhi	sl, {}	; <UNPREDICTABLE>
     888:	11000182 	smlabbne	r0, r2, r1, r0
     88c:	00133101 	andseq	r3, r3, r1, lsl #2
     890:	82891b00 	addhi	r1, r9, #0, 22
     894:	01110101 	tsteq	r1, r1, lsl #2
     898:	00001301 	andeq	r1, r0, r1, lsl #6
     89c:	4901011c 	stmdbmi	r1, {r2, r3, r4, r8}
     8a0:	00130113 	andseq	r0, r3, r3, lsl r1
     8a4:	00211d00 	eoreq	r1, r1, r0, lsl #26
     8a8:	0b2f1349 	bleq	bc55d4 <__bss_end__+0xbbb944>
     8ac:	2e1e0000 	cdpcs	0, 1, cr0, cr14, cr0, {0}
     8b0:	3a0e0301 	bcc	3814bc <__bss_end__+0x37782c>
     8b4:	390b3b0b 	stmdbcc	fp, {r0, r1, r3, r8, r9, fp, ip, sp}
     8b8:	4919270b 	ldmdbmi	r9, {r0, r1, r3, r8, r9, sl, sp}
     8bc:	12011113 	andne	r1, r1, #-1073741820	; 0xc0000004
     8c0:	97184006 	ldrls	r4, [r8, -r6]
     8c4:	13011942 	movwne	r1, #6466	; 0x1942
     8c8:	051f0000 	ldreq	r0, [pc, #-0]	; 8d0 <__code_start__-0x7730>
     8cc:	3a0e0300 	bcc	3814d4 <__bss_end__+0x377844>
     8d0:	390b3b0b 	stmdbcc	fp, {r0, r1, r3, r8, r9, fp, ip, sp}
     8d4:	0213490b 	andseq	r4, r3, #180224	; 0x2c000
     8d8:	1742b717 	smlaldne	fp, r2, r7, r7
     8dc:	2e200000 	cdpcs	0, 2, cr0, cr0, cr0, {0}
     8e0:	3a080301 	bcc	2014ec <__bss_end__+0x1f785c>
     8e4:	390b3b0b 	stmdbcc	fp, {r0, r1, r3, r8, r9, fp, ip, sp}
     8e8:	4919270b 	ldmdbmi	r9, {r0, r1, r3, r8, r9, sl, sp}
     8ec:	12011113 	andne	r1, r1, #-1073741820	; 0xc0000004
     8f0:	97184006 	ldrls	r4, [r8, -r6]
     8f4:	13011942 	movwne	r1, #6466	; 0x1942
     8f8:	2e210000 	cdpcs	0, 2, cr0, cr1, cr0, {0}
     8fc:	03193f01 	tsteq	r9, #1, 30
     900:	3b0b3a0e 	blcc	2cf140 <__bss_end__+0x2c54b0>
     904:	270b390b 	strcs	r3, [fp, -fp, lsl #18]
     908:	12011119 	andne	r1, r1, #1073741830	; 0x40000006
     90c:	97184006 	ldrls	r4, [r8, -r6]
     910:	13011942 	movwne	r1, #6466	; 0x1942
     914:	2e220000 	cdpcs	0, 2, cr0, cr2, cr0, {0}
     918:	3c193f00 	ldccc	15, cr3, [r9], {-0}
     91c:	030e6e19 	movweq	r6, #60953	; 0xee19
     920:	3b0b3a0e 	blcc	2cf160 <__bss_end__+0x2c54d0>
     924:	000b390b 	andeq	r3, fp, fp, lsl #18
     928:	11010000 	mrsne	r0, (UNDEF: 1)
     92c:	130e2501 	movwne	r2, #58625	; 0xe501
     930:	1b0e030b 	blne	381564 <__bss_end__+0x3778d4>
     934:	1117550e 	tstne	r7, lr, lsl #10
     938:	00171001 	andseq	r1, r7, r1
     93c:	00240200 	eoreq	r0, r4, r0, lsl #4
     940:	0b3e0b0b 	bleq	f83574 <__bss_end__+0xf798e4>
     944:	00000803 	andeq	r0, r0, r3, lsl #16
     948:	0b002403 	bleq	995c <__data_end__+0xd0>
     94c:	030b3e0b 	movweq	r3, #48651	; 0xbe0b
     950:	0400000e 	streq	r0, [r0], #-14
     954:	19270115 	stmdbne	r7!, {r0, r2, r4, r8}
     958:	13011349 	movwne	r1, #4937	; 0x1349
     95c:	05050000 	streq	r0, [r5, #-0]
     960:	00134900 	andseq	r4, r3, r0, lsl #18
     964:	00340600 	eorseq	r0, r4, r0, lsl #12
     968:	0b3a0e03 	bleq	e8417c <__bss_end__+0xe7a4ec>
     96c:	0b390b3b 	bleq	e43660 <__bss_end__+0xe399d0>
     970:	193f1349 	ldmdbne	pc!, {r0, r3, r6, r8, r9, ip}	; <UNPREDICTABLE>
     974:	0000193c 	andeq	r1, r0, ip, lsr r9
     978:	0b000f07 	bleq	459c <__code_start__-0x3a64>
     97c:	0013490b 	andseq	r4, r3, fp, lsl #18
     980:	00260800 	eoreq	r0, r6, r0, lsl #16
     984:	00001349 	andeq	r1, r0, r9, asr #6
     988:	3f012e09 	svccc	0x00012e09
     98c:	3a0e0319 	bcc	3815f8 <__bss_end__+0x377968>
     990:	390b3b0b 	stmdbcc	fp, {r0, r1, r3, r8, r9, fp, ip, sp}
     994:	1119270b 	tstne	r9, fp, lsl #14
     998:	40061201 	andmi	r1, r6, r1, lsl #4
     99c:	19429718 	stmdbne	r2, {r3, r4, r8, r9, sl, ip, pc}^
     9a0:	00001301 	andeq	r1, r0, r1, lsl #6
     9a4:	0300340a 	movweq	r3, #1034	; 0x40a
     9a8:	3b0b3a08 	blcc	2cf1d0 <__bss_end__+0x2c5540>
     9ac:	490b390b 	stmdbmi	fp, {r0, r1, r3, r8, fp, ip, sp}
     9b0:	b7170213 			; <UNDEFINED> instruction: 0xb7170213
     9b4:	00001742 	andeq	r1, r0, r2, asr #14
     9b8:	3f012e0b 	svccc	0x00012e0b
     9bc:	3a0e0319 	bcc	381628 <__bss_end__+0x377998>
     9c0:	390b3b0b 	stmdbcc	fp, {r0, r1, r3, r8, r9, fp, ip, sp}
     9c4:	1119270b 	tstne	r9, fp, lsl #14
     9c8:	40061201 	andmi	r1, r6, r1, lsl #4
     9cc:	19429718 	stmdbne	r2, {r3, r4, r8, r9, sl, ip, pc}^
     9d0:	01000000 	mrseq	r0, (UNDEF: 0)
     9d4:	0e250111 	mcreq	1, 1, r0, cr5, cr1, {0}
     9d8:	0e030b13 	vmoveq.32	d3[0], r0
     9dc:	01110e1b 	tsteq	r1, fp, lsl lr
     9e0:	17100612 			; <UNDEFINED> instruction: 0x17100612
     9e4:	24020000 	strcs	r0, [r2], #-0
     9e8:	3e0b0b00 	vmlacc.f64	d0, d11, d0
     9ec:	0008030b 	andeq	r0, r8, fp, lsl #6
     9f0:	00240300 	eoreq	r0, r4, r0, lsl #6
     9f4:	0b3e0b0b 	bleq	f83628 <__bss_end__+0xf79998>
     9f8:	00000e03 	andeq	r0, r0, r3, lsl #28
     9fc:	27011504 	strcs	r1, [r1, -r4, lsl #10]
     a00:	01134919 	tsteq	r3, r9, lsl r9
     a04:	05000013 	streq	r0, [r0, #-19]	; 0xffffffed
     a08:	13490005 	movtne	r0, #36869	; 0x9005
     a0c:	34060000 	strcc	r0, [r6], #-0
     a10:	3a0e0300 	bcc	381618 <__bss_end__+0x377988>
     a14:	390b3b0b 	stmdbcc	fp, {r0, r1, r3, r8, r9, fp, ip, sp}
     a18:	3f13490b 	svccc	0x0013490b
     a1c:	00193c19 	andseq	r3, r9, r9, lsl ip
     a20:	000f0700 	andeq	r0, pc, r0, lsl #14
     a24:	13490b0b 	movtne	r0, #39691	; 0x9b0b
     a28:	26080000 	strcs	r0, [r8], -r0
     a2c:	00134900 	andseq	r4, r3, r0, lsl #18
     a30:	012e0900 			; <UNDEFINED> instruction: 0x012e0900
     a34:	0e03193f 			; <UNDEFINED> instruction: 0x0e03193f
     a38:	0b3b0b3a 	bleq	ec3728 <__bss_end__+0xeb9a98>
     a3c:	19270b39 	stmdbne	r7!, {r0, r3, r4, r5, r8, r9, fp}
     a40:	11190187 	tstne	r9, r7, lsl #3
     a44:	40061201 	andmi	r1, r6, r1, lsl #4
     a48:	19429718 	stmdbne	r2, {r3, r4, r8, r9, sl, ip, pc}^
     a4c:	00001301 	andeq	r1, r0, r1, lsl #6
     a50:	0182890a 	orreq	r8, r2, sl, lsl #18
     a54:	01011101 	tsteq	r1, r1, lsl #2
     a58:	0b000013 	bleq	aac <__code_start__-0x7554>
     a5c:	0001828a 	andeq	r8, r1, sl, lsl #5
     a60:	42911802 	addsmi	r1, r1, #131072	; 0x20000
     a64:	0c000018 	stceq	0, cr0, [r0], {24}
     a68:	00018289 	andeq	r8, r1, r9, lsl #5
     a6c:	13310111 	teqne	r1, #1073741828	; 0x40000004
     a70:	890d0000 	stmdbhi	sp, {}	; <UNPREDICTABLE>
     a74:	11010182 	smlabbne	r1, r2, r1, r0
     a78:	01133101 	tsteq	r3, r1, lsl #2
     a7c:	0e000013 	mcreq	0, 0, r0, cr0, cr3, {0}
     a80:	193f002e 	ldmdbne	pc!, {r1, r2, r3, r5}	; <UNPREDICTABLE>
     a84:	0e6e193c 			; <UNDEFINED> instruction: 0x0e6e193c
     a88:	0b3a0e03 	bleq	e8429c <__bss_end__+0xe7a60c>
     a8c:	0b390b3b 	bleq	e43780 <__bss_end__+0xe39af0>
     a90:	01000000 	mrseq	r0, (UNDEF: 0)
     a94:	0e250111 	mcreq	1, 1, r0, cr5, cr1, {0}
     a98:	0e030b13 	vmoveq.32	d3[0], r0
     a9c:	01110e1b 	tsteq	r1, fp, lsl lr
     aa0:	17100612 			; <UNDEFINED> instruction: 0x17100612
     aa4:	24020000 	strcs	r0, [r2], #-0
     aa8:	3e0b0b00 	vmlacc.f64	d0, d11, d0
     aac:	0008030b 	andeq	r0, r8, fp, lsl #6
     ab0:	00240300 	eoreq	r0, r4, r0, lsl #6
     ab4:	0b3e0b0b 	bleq	f836e8 <__bss_end__+0xf79a58>
     ab8:	00000e03 	andeq	r0, r0, r3, lsl #28
     abc:	27011504 	strcs	r1, [r1, -r4, lsl #10]
     ac0:	01134919 	tsteq	r3, r9, lsl r9
     ac4:	05000013 	streq	r0, [r0, #-19]	; 0xffffffed
     ac8:	13490005 	movtne	r0, #36869	; 0x9005
     acc:	34060000 	strcc	r0, [r6], #-0
     ad0:	3a0e0300 	bcc	3816d8 <__bss_end__+0x377a48>
     ad4:	390b3b0b 	stmdbcc	fp, {r0, r1, r3, r8, r9, fp, ip, sp}
     ad8:	3f13490b 	svccc	0x0013490b
     adc:	00193c19 	andseq	r3, r9, r9, lsl ip
     ae0:	000f0700 	andeq	r0, pc, r0, lsl #14
     ae4:	13490b0b 	movtne	r0, #39691	; 0x9b0b
     ae8:	26080000 	strcs	r0, [r8], -r0
     aec:	00134900 	andseq	r4, r3, r0, lsl #18
     af0:	012e0900 			; <UNDEFINED> instruction: 0x012e0900
     af4:	0e03193f 			; <UNDEFINED> instruction: 0x0e03193f
     af8:	0b3b0b3a 	bleq	ec37e8 <__bss_end__+0xeb9b58>
     afc:	01110b39 	tsteq	r1, r9, lsr fp
     b00:	18400612 	stmdane	r0, {r1, r4, r9, sl}^
     b04:	01194297 			; <UNDEFINED> instruction: 0x01194297
     b08:	0a000013 	beq	b5c <__code_start__-0x74a4>
     b0c:	193f002e 	ldmdbne	pc!, {r1, r2, r3, r5}	; <UNPREDICTABLE>
     b10:	0b3a0e03 	bleq	e84324 <__bss_end__+0xe7a694>
     b14:	0b390b3b 	bleq	e43808 <__bss_end__+0xe39b78>
     b18:	193c1927 	ldmdbne	ip!, {r0, r1, r2, r5, r8, fp, ip}
     b1c:	340b0000 	strcc	r0, [fp], #-0
     b20:	3a080300 	bcc	201728 <__bss_end__+0x1f7a98>
     b24:	390b3b0b 	stmdbcc	fp, {r0, r1, r3, r8, r9, fp, ip, sp}
     b28:	0213490b 	andseq	r4, r3, #180224	; 0x2c000
     b2c:	1742b717 	smlaldne	fp, r2, r7, r7
     b30:	340c0000 	strcc	r0, [ip], #-0
     b34:	3a0e0300 	bcc	38173c <__bss_end__+0x377aac>
     b38:	390b3b0b 	stmdbcc	fp, {r0, r1, r3, r8, r9, fp, ip, sp}
     b3c:	0013490b 	andseq	r4, r3, fp, lsl #18
     b40:	010b0d00 	tsteq	fp, r0, lsl #26
     b44:	06120111 			; <UNDEFINED> instruction: 0x06120111
     b48:	00001301 	andeq	r1, r0, r1, lsl #6
     b4c:	0300340e 	movweq	r3, #1038	; 0x40e
     b50:	3b0b3a08 	blcc	2cf378 <__bss_end__+0x2c56e8>
     b54:	490b390b 	stmdbmi	fp, {r0, r1, r3, r8, fp, ip, sp}
     b58:	000b1c13 	andeq	r1, fp, r3, lsl ip
     b5c:	82890f00 	addhi	r0, r9, #0, 30
     b60:	01110001 	tsteq	r1, r1
     b64:	00001331 	andeq	r1, r0, r1, lsr r3
     b68:	3f002e10 	svccc	0x00002e10
     b6c:	6e193c19 	mrcvs	12, 0, r3, cr9, cr9, {0}
     b70:	3a0e030e 	bcc	3817b0 <__bss_end__+0x377b20>
     b74:	39053b0b 	stmdbcc	r5, {r0, r1, r3, r8, r9, fp, ip, sp}
     b78:	1100000b 	tstne	r0, fp
     b7c:	193f002e 	ldmdbne	pc!, {r1, r2, r3, r5}	; <UNPREDICTABLE>
     b80:	0e6e193c 			; <UNDEFINED> instruction: 0x0e6e193c
     b84:	0b3a0e03 	bleq	e84398 <__bss_end__+0xe7a708>
     b88:	0b390b3b 	bleq	e4387c <__bss_end__+0xe39bec>
     b8c:	01000000 	mrseq	r0, (UNDEF: 0)
     b90:	0e250111 	mcreq	1, 1, r0, cr5, cr1, {0}
     b94:	0e030b13 	vmoveq.32	d3[0], r0
     b98:	01110e1b 	tsteq	r1, fp, lsl lr
     b9c:	17100612 			; <UNDEFINED> instruction: 0x17100612
     ba0:	24020000 	strcs	r0, [r2], #-0
     ba4:	3e0b0b00 	vmlacc.f64	d0, d11, d0
     ba8:	0008030b 	andeq	r0, r8, fp, lsl #6
     bac:	00240300 	eoreq	r0, r4, r0, lsl #6
     bb0:	0b3e0b0b 	bleq	f837e4 <__bss_end__+0xf79b54>
     bb4:	00000e03 	andeq	r0, r0, r3, lsl #28
     bb8:	27011504 	strcs	r1, [r1, -r4, lsl #10]
     bbc:	01134919 	tsteq	r3, r9, lsl r9
     bc0:	05000013 	streq	r0, [r0, #-19]	; 0xffffffed
     bc4:	13490005 	movtne	r0, #36869	; 0x9005
     bc8:	34060000 	strcc	r0, [r6], #-0
     bcc:	3a0e0300 	bcc	3817d4 <__bss_end__+0x377b44>
     bd0:	390b3b0b 	stmdbcc	fp, {r0, r1, r3, r8, r9, fp, ip, sp}
     bd4:	3f13490b 	svccc	0x0013490b
     bd8:	00193c19 	andseq	r3, r9, r9, lsl ip
     bdc:	000f0700 	andeq	r0, pc, r0, lsl #14
     be0:	13490b0b 	movtne	r0, #39691	; 0x9b0b
     be4:	26080000 	strcs	r0, [r8], -r0
     be8:	00134900 	andseq	r4, r3, r0, lsl #18
     bec:	002e0900 	eoreq	r0, lr, r0, lsl #18
     bf0:	0e03193f 			; <UNDEFINED> instruction: 0x0e03193f
     bf4:	0b3b0b3a 	bleq	ec38e4 <__bss_end__+0xeb9c54>
     bf8:	19270b39 	stmdbne	r7!, {r0, r3, r4, r5, r8, r9, fp}
     bfc:	06120111 			; <UNDEFINED> instruction: 0x06120111
     c00:	42971840 	addsmi	r1, r7, #64, 16	; 0x400000
     c04:	00000019 	andeq	r0, r0, r9, lsl r0
     c08:	25011101 	strcs	r1, [r1, #-257]	; 0xfffffeff
     c0c:	030b130e 	movweq	r1, #45838	; 0xb30e
     c10:	550e1b0e 	strpl	r1, [lr, #-2830]	; 0xfffff4f2
     c14:	10011117 	andne	r1, r1, r7, lsl r1
     c18:	02000017 	andeq	r0, r0, #23, 0
     c1c:	0b0b0024 	bleq	2c0cb4 <__bss_end__+0x2b7024>
     c20:	08030b3e 	stmdaeq	r3, {r1, r2, r3, r4, r5, r8, r9, fp}
     c24:	26030000 	strcs	r0, [r3], -r0
     c28:	00134900 	andseq	r4, r3, r0, lsl #18
     c2c:	00240400 	eoreq	r0, r4, r0, lsl #8
     c30:	0b3e0b0b 	bleq	f83864 <__bss_end__+0xf79bd4>
     c34:	00000e03 	andeq	r0, r0, r3, lsl #28
     c38:	27011505 	strcs	r1, [r1, -r5, lsl #10]
     c3c:	01134919 	tsteq	r3, r9, lsl r9
     c40:	06000013 			; <UNDEFINED> instruction: 0x06000013
     c44:	13490005 	movtne	r0, #36869	; 0x9005
     c48:	34070000 	strcc	r0, [r7], #-0
     c4c:	3a0e0300 	bcc	381854 <__bss_end__+0x377bc4>
     c50:	390b3b0b 	stmdbcc	fp, {r0, r1, r3, r8, r9, fp, ip, sp}
     c54:	3f13490b 	svccc	0x0013490b
     c58:	00193c19 	andseq	r3, r9, r9, lsl ip
     c5c:	000f0800 	andeq	r0, pc, r0, lsl #16
     c60:	13490b0b 	movtne	r0, #39691	; 0x9b0b
     c64:	34090000 	strcc	r0, [r9], #-0
     c68:	3a0e0300 	bcc	381870 <__bss_end__+0x377be0>
     c6c:	390b3b0b 	stmdbcc	fp, {r0, r1, r3, r8, r9, fp, ip, sp}
     c70:	0013490b 	andseq	r4, r3, fp, lsl #18
     c74:	012e0a00 			; <UNDEFINED> instruction: 0x012e0a00
     c78:	0e03193f 			; <UNDEFINED> instruction: 0x0e03193f
     c7c:	0b3b0b3a 	bleq	ec396c <__bss_end__+0xeb9cdc>
     c80:	19270b39 	stmdbne	r7!, {r0, r3, r4, r5, r8, r9, fp}
     c84:	11190187 	tstne	r9, r7, lsl #3
     c88:	40061201 	andmi	r1, r6, r1, lsl #4
     c8c:	19429718 	stmdbne	r2, {r3, r4, r8, r9, sl, ip, pc}^
     c90:	00001301 	andeq	r1, r0, r1, lsl #6
     c94:	0300340b 	movweq	r3, #1035	; 0x40b
     c98:	3b0b3a0e 	blcc	2cf4d8 <__bss_end__+0x2c5848>
     c9c:	490b390b 	stmdbmi	fp, {r0, r1, r3, r8, fp, ip, sp}
     ca0:	b7170213 			; <UNDEFINED> instruction: 0xb7170213
     ca4:	00001742 	andeq	r1, r0, r2, asr #14
     ca8:	0182890c 	orreq	r8, r2, ip, lsl #18
     cac:	31011100 	mrscc	r1, (UNDEF: 17)
     cb0:	0d000013 	stceq	0, cr0, [r0, #-76]	; 0xffffffb4
     cb4:	01018289 	smlabbeq	r1, r9, r2, r8
     cb8:	13310111 	teqne	r1, #1073741828	; 0x40000004
     cbc:	00001301 	andeq	r1, r0, r1, lsl #6
     cc0:	01828a0e 	orreq	r8, r2, lr, lsl #20
     cc4:	91180200 	tstls	r8, r0, lsl #4
     cc8:	00001842 	andeq	r1, r0, r2, asr #16
     ccc:	3f012e0f 	svccc	0x00012e0f
     cd0:	3a0e0319 	bcc	38193c <__bss_end__+0x377cac>
     cd4:	390b3b0b 	stmdbcc	fp, {r0, r1, r3, r8, r9, fp, ip, sp}
     cd8:	1119270b 	tstne	r9, fp, lsl #14
     cdc:	40061201 	andmi	r1, r6, r1, lsl #4
     ce0:	19429718 	stmdbne	r2, {r3, r4, r8, r9, sl, ip, pc}^
     ce4:	00001301 	andeq	r1, r0, r1, lsl #6
     ce8:	3f012e10 	svccc	0x00012e10
     cec:	3a0e0319 	bcc	381958 <__bss_end__+0x377cc8>
     cf0:	390b3b0b 	stmdbcc	fp, {r0, r1, r3, r8, r9, fp, ip, sp}
     cf4:	4919270b 	ldmdbmi	r9, {r0, r1, r3, r8, r9, sl, sp}
     cf8:	12011113 	andne	r1, r1, #-1073741820	; 0xc0000004
     cfc:	97184006 	ldrls	r4, [r8, -r6]
     d00:	13011942 	movwne	r1, #6466	; 0x1942
     d04:	2e110000 	cdpcs	0, 1, cr0, cr1, cr0, {0}
     d08:	3c193f00 	ldccc	15, cr3, [r9], {-0}
     d0c:	030e6e19 	movweq	r6, #60953	; 0xee19
     d10:	3b0b3a0e 	blcc	2cf550 <__bss_end__+0x2c58c0>
     d14:	000b3905 	andeq	r3, fp, r5, lsl #18
     d18:	002e1200 	eoreq	r1, lr, r0, lsl #4
     d1c:	193c193f 	ldmdbne	ip!, {r0, r1, r2, r3, r4, r5, r8, fp, ip}
     d20:	0e030e6e 	cdpeq	14, 0, cr0, cr3, cr14, {3}
     d24:	0b3b0b3a 	bleq	ec3a14 <__bss_end__+0xeb9d84>
     d28:	00000b39 	andeq	r0, r0, r9, lsr fp
     d2c:	01110100 	tsteq	r1, r0, lsl #2
     d30:	0b130e25 	bleq	4c45cc <__bss_end__+0x4ba93c>
     d34:	0e1b0e03 	cdpeq	14, 1, cr0, cr11, cr3, {0}
     d38:	06120111 			; <UNDEFINED> instruction: 0x06120111
     d3c:	00001710 	andeq	r1, r0, r0, lsl r7
     d40:	0b002402 	bleq	9d50 <__bss_end__+0xc0>
     d44:	030b3e0b 	movweq	r3, #48651	; 0xbe0b
     d48:	03000008 	movweq	r0, #8
     d4c:	0b0b0024 	bleq	2c0de4 <__bss_end__+0x2b7154>
     d50:	0e030b3e 	vmoveq.16	d3[0], r0
     d54:	15040000 	strne	r0, [r4, #-0]
     d58:	49192701 	ldmdbmi	r9, {r0, r8, r9, sl, sp}
     d5c:	00130113 	andseq	r0, r3, r3, lsl r1
     d60:	00050500 	andeq	r0, r5, r0, lsl #10
     d64:	00001349 	andeq	r1, r0, r9, asr #6
     d68:	03003406 	movweq	r3, #1030	; 0x406
     d6c:	3b0b3a0e 	blcc	2cf5ac <__bss_end__+0x2c591c>
     d70:	490b390b 	stmdbmi	fp, {r0, r1, r3, r8, fp, ip, sp}
     d74:	3c193f13 	ldccc	15, cr3, [r9], {19}
     d78:	07000019 	smladeq	r0, r9, r0, r0
     d7c:	0b0b000f 	bleq	2c0dc0 <__bss_end__+0x2b7130>
     d80:	00001349 	andeq	r1, r0, r9, asr #6
     d84:	49002608 	stmdbmi	r0, {r3, r9, sl, sp}
     d88:	09000013 	stmdbeq	r0, {r0, r1, r4}
     d8c:	193f012e 	ldmdbne	pc!, {r1, r2, r3, r5, r8}	; <UNPREDICTABLE>
     d90:	0b3a0e03 	bleq	e845a4 <__bss_end__+0xe7a914>
     d94:	0b390b3b 	bleq	e43a88 <__bss_end__+0xe39df8>
     d98:	01111927 	tsteq	r1, r7, lsr #18
     d9c:	18400612 	stmdane	r0, {r1, r4, r9, sl}^
     da0:	01194297 			; <UNDEFINED> instruction: 0x01194297
     da4:	0a000013 	beq	df8 <__code_start__-0x7208>
     da8:	08030005 	stmdaeq	r3, {r0, r2}
     dac:	0b3b0b3a 	bleq	ec3a9c <__bss_end__+0xeb9e0c>
     db0:	13490b39 	movtne	r0, #39737	; 0x9b39
     db4:	42b71702 	adcsmi	r1, r7, #524288	; 0x80000
     db8:	0b000017 	bleq	e1c <__code_start__-0x71e4>
     dbc:	01018289 	smlabbeq	r1, r9, r2, r8
     dc0:	13310111 	teqne	r1, #1073741828	; 0x40000004
     dc4:	8a0c0000 	bhi	300dcc <__bss_end__+0x2f713c>
     dc8:	02000182 	andeq	r0, r0, #-2147483616	; 0x80000020
     dcc:	18429118 	stmdane	r2, {r3, r4, r8, ip, pc}^
     dd0:	340d0000 	strcc	r0, [sp], #-0
     dd4:	3a080300 	bcc	2019dc <__bss_end__+0x1f7d4c>
     dd8:	390b3b0b 	stmdbcc	fp, {r0, r1, r3, r8, r9, fp, ip, sp}
     ddc:	0213490b 	andseq	r4, r3, #180224	; 0x2c000
     de0:	1742b717 	smlaldne	fp, r2, r7, r7
     de4:	0b0e0000 	bleq	380dec <__bss_end__+0x37715c>
     de8:	12011101 	andne	r1, r1, #1073741824	; 0x40000000
     dec:	00130106 	andseq	r0, r3, r6, lsl #2
     df0:	82890f00 	addhi	r0, r9, #0, 30
     df4:	01110001 	tsteq	r1, r1
     df8:	00001331 	andeq	r1, r0, r1, lsr r3
     dfc:	3f012e10 	svccc	0x00012e10
     e00:	3a0e0319 	bcc	381a6c <__bss_end__+0x377ddc>
     e04:	390b3b0b 	stmdbcc	fp, {r0, r1, r3, r8, r9, fp, ip, sp}
     e08:	4919270b 	ldmdbmi	r9, {r0, r1, r3, r8, r9, sl, sp}
     e0c:	12011113 	andne	r1, r1, #-1073741820	; 0xc0000004
     e10:	97184006 	ldrls	r4, [r8, -r6]
     e14:	13011942 	movwne	r1, #6466	; 0x1942
     e18:	2e110000 	cdpcs	0, 1, cr0, cr1, cr0, {0}
     e1c:	3c193f00 	ldccc	15, cr3, [r9], {-0}
     e20:	030e6e19 	movweq	r6, #60953	; 0xee19
     e24:	3b0b3a0e 	blcc	2cf664 <__bss_end__+0x2c59d4>
     e28:	000b390b 	andeq	r3, fp, fp, lsl #18
     e2c:	11010000 	mrsne	r0, (UNDEF: 1)
     e30:	130e2501 	movwne	r2, #58625	; 0xe501
     e34:	1b0e030b 	blne	381a68 <__bss_end__+0x377dd8>
     e38:	1201110e 	andne	r1, r1, #-2147483645	; 0x80000003
     e3c:	00171006 	andseq	r1, r7, r6
     e40:	00240200 	eoreq	r0, r4, r0, lsl #4
     e44:	0b3e0b0b 	bleq	f83a78 <__bss_end__+0xf79de8>
     e48:	00000803 	andeq	r0, r0, r3, lsl #16
     e4c:	0b002403 	bleq	9e60 <__bss_end__+0x1d0>
     e50:	030b3e0b 	movweq	r3, #48651	; 0xbe0b
     e54:	0400000e 	streq	r0, [r0], #-14
     e58:	13490026 	movtne	r0, #36902	; 0x9026
     e5c:	16050000 	strne	r0, [r5], -r0
     e60:	3a0e0300 	bcc	381a68 <__bss_end__+0x377dd8>
     e64:	390b3b0b 	stmdbcc	fp, {r0, r1, r3, r8, r9, fp, ip, sp}
     e68:	0013490b 	andseq	r4, r3, fp, lsl #18
     e6c:	01040600 	tsteq	r4, r0, lsl #12
     e70:	0b0b0b3e 	bleq	2c3b70 <__bss_end__+0x2b9ee0>
     e74:	0b3a1349 	bleq	e85ba0 <__bss_end__+0xe7bf10>
     e78:	0b390b3b 	bleq	e43b6c <__bss_end__+0xe39edc>
     e7c:	00001301 	andeq	r1, r0, r1, lsl #6
     e80:	03002807 	movweq	r2, #2055	; 0x807
     e84:	000b1c0e 	andeq	r1, fp, lr, lsl #24
     e88:	00340800 	eorseq	r0, r4, r0, lsl #16
     e8c:	0b3a0e03 	bleq	e846a0 <__bss_end__+0xe7aa10>
     e90:	0b390b3b 	bleq	e43b84 <__bss_end__+0xe39ef4>
     e94:	061c1349 	ldreq	r1, [ip], -r9, asr #6
     e98:	2e090000 	cdpcs	0, 0, cr0, cr9, cr0, {0}
     e9c:	03193f01 	tsteq	r9, #1, 30
     ea0:	3b0b3a0e 	blcc	2cf6e0 <__bss_end__+0x2c5a50>
     ea4:	270b390b 	strcs	r3, [fp, -fp, lsl #18]
     ea8:	11134919 	tstne	r3, r9, lsl r9
     eac:	40061201 	andmi	r1, r6, r1, lsl #4
     eb0:	19429718 	stmdbne	r2, {r3, r4, r8, r9, sl, ip, pc}^
     eb4:	00001301 	andeq	r1, r0, r1, lsl #6
     eb8:	0300050a 	movweq	r0, #1290	; 0x50a
     ebc:	3b0b3a08 	blcc	2cf6e4 <__bss_end__+0x2c5a54>
     ec0:	490b390b 	stmdbmi	fp, {r0, r1, r3, r8, fp, ip, sp}
     ec4:	b7170213 			; <UNDEFINED> instruction: 0xb7170213
     ec8:	00001742 	andeq	r1, r0, r2, asr #14
     ecc:	0300340b 	movweq	r3, #1035	; 0x40b
     ed0:	3b0b3a0e 	blcc	2cf710 <__bss_end__+0x2c5a80>
     ed4:	490b390b 	stmdbmi	fp, {r0, r1, r3, r8, fp, ip, sp}
     ed8:	b7170213 			; <UNDEFINED> instruction: 0xb7170213
     edc:	00001742 	andeq	r1, r0, r2, asr #14
     ee0:	0300340c 	movweq	r3, #1036	; 0x40c
     ee4:	3b0b3a08 	blcc	2cf70c <__bss_end__+0x2c5a7c>
     ee8:	490b390b 	stmdbmi	fp, {r0, r1, r3, r8, fp, ip, sp}
     eec:	b7170213 			; <UNDEFINED> instruction: 0xb7170213
     ef0:	00001742 	andeq	r1, r0, r2, asr #14
     ef4:	0182890d 	orreq	r8, r2, sp, lsl #18
     ef8:	31011101 	tstcc	r1, r1, lsl #2
     efc:	0e000013 	mcreq	0, 0, r0, cr0, cr3, {0}
     f00:	0001828a 	andeq	r8, r1, sl, lsl #5
     f04:	42911802 	addsmi	r1, r1, #131072	; 0x20000
     f08:	0f000018 	svceq	0x00000018
     f0c:	193f012e 	ldmdbne	pc!, {r1, r2, r3, r5, r8}	; <UNPREDICTABLE>
     f10:	0b3a0e03 	bleq	e84724 <__bss_end__+0xe7aa94>
     f14:	0b390b3b 	bleq	e43c08 <__bss_end__+0xe39f78>
     f18:	01111927 	tsteq	r1, r7, lsr #18
     f1c:	18400612 	stmdane	r0, {r1, r4, r9, sl}^
     f20:	01194297 			; <UNDEFINED> instruction: 0x01194297
     f24:	10000013 	andne	r0, r0, r3, lsl r0
     f28:	01018289 	smlabbeq	r1, r9, r2, r8
     f2c:	13310111 	teqne	r1, #1073741828	; 0x40000004
     f30:	00001301 	andeq	r1, r0, r1, lsl #6
     f34:	01828911 	orreq	r8, r2, r1, lsl r9
     f38:	31011100 	mrscc	r1, (UNDEF: 17)
     f3c:	12000013 	andne	r0, r0, #19, 0
     f40:	0e030005 	cdpeq	0, 0, cr0, cr3, cr5, {0}
     f44:	0b3b0b3a 	bleq	ec3c34 <__bss_end__+0xeb9fa4>
     f48:	13490b39 	movtne	r0, #39737	; 0x9b39
     f4c:	42b71702 	adcsmi	r1, r7, #524288	; 0x80000
     f50:	13000017 	movwne	r0, #23
     f54:	0e03012e 	adfeqsp	f0, f3, #0.5
     f58:	0b3b0b3a 	bleq	ec3c48 <__bss_end__+0xeb9fb8>
     f5c:	19270b39 	stmdbne	r7!, {r0, r3, r4, r5, r8, r9, fp}
     f60:	0b201349 	bleq	805c8c <__bss_end__+0x7fbffc>
     f64:	00001301 	andeq	r1, r0, r1, lsl #6
     f68:	03000514 	movweq	r0, #1300	; 0x514
     f6c:	3b0b3a08 	blcc	2cf794 <__bss_end__+0x2c5b04>
     f70:	490b390b 	stmdbmi	fp, {r0, r1, r3, r8, fp, ip, sp}
     f74:	15000013 	strne	r0, [r0, #-19]	; 0xffffffed
     f78:	193f002e 	ldmdbne	pc!, {r1, r2, r3, r5}	; <UNPREDICTABLE>
     f7c:	0e6e193c 			; <UNDEFINED> instruction: 0x0e6e193c
     f80:	0b3a0e03 	bleq	e84794 <__bss_end__+0xe7ab04>
     f84:	0b390b3b 	bleq	e43c78 <__bss_end__+0xe39fe8>
     f88:	01000000 	mrseq	r0, (UNDEF: 0)
     f8c:	0e250111 	mcreq	1, 1, r0, cr5, cr1, {0}
     f90:	0e030b13 	vmoveq.32	d3[0], r0
     f94:	01110e1b 	tsteq	r1, fp, lsl lr
     f98:	17100612 			; <UNDEFINED> instruction: 0x17100612
     f9c:	24020000 	strcs	r0, [r2], #-0
     fa0:	3e0b0b00 	vmlacc.f64	d0, d11, d0
     fa4:	0008030b 	andeq	r0, r8, fp, lsl #6
     fa8:	00240300 	eoreq	r0, r4, r0, lsl #6
     fac:	0b3e0b0b 	bleq	f83be0 <__bss_end__+0xf79f50>
     fb0:	00000e03 	andeq	r0, r0, r3, lsl #28
     fb4:	49003504 	stmdbmi	r0, {r2, r8, sl, ip, sp}
     fb8:	05000013 	streq	r0, [r0, #-19]	; 0xffffffed
     fbc:	0e030016 	mcreq	0, 0, r0, cr3, cr6, {0}
     fc0:	0b3b0b3a 	bleq	ec3cb0 <__bss_end__+0xeba020>
     fc4:	13490b39 	movtne	r0, #39737	; 0x9b39
     fc8:	04060000 	streq	r0, [r6], #-0
     fcc:	0b0b3e01 	bleq	2d07d8 <__bss_end__+0x2c6b48>
     fd0:	3a13490b 	bcc	4d3404 <__bss_end__+0x4c9774>
     fd4:	390b3b0b 	stmdbcc	fp, {r0, r1, r3, r8, r9, fp, ip, sp}
     fd8:	0013010b 	andseq	r0, r3, fp, lsl #2
     fdc:	00280700 	eoreq	r0, r8, r0, lsl #14
     fe0:	0b1c0e03 	bleq	7047f4 <__bss_end__+0x6fab64>
     fe4:	13080000 	movwne	r0, #32768	; 0x8000
     fe8:	0b0e0301 	bleq	381bf4 <__bss_end__+0x377f64>
     fec:	3b0b3a0b 	blcc	2cf820 <__bss_end__+0x2c5b90>
     ff0:	010b390b 	tsteq	fp, fp, lsl #18
     ff4:	09000013 	stmdbeq	r0, {r0, r1, r4}
     ff8:	0803000d 	stmdaeq	r3, {r0, r2, r3}
     ffc:	0b3b0b3a 	bleq	ec3cec <__bss_end__+0xeba05c>
    1000:	13490b39 	movtne	r0, #39737	; 0x9b39
    1004:	00000b38 	andeq	r0, r0, r8, lsr fp
    1008:	03000d0a 	movweq	r0, #3338	; 0xd0a
    100c:	3b0b3a0e 	blcc	2cf84c <__bss_end__+0x2c5bbc>
    1010:	490b390b 	stmdbmi	fp, {r0, r1, r3, r8, fp, ip, sp}
    1014:	000b3813 	andeq	r3, fp, r3, lsl r8
    1018:	00340b00 	eorseq	r0, r4, r0, lsl #22
    101c:	0b3a0e03 	bleq	e84830 <__bss_end__+0xe7aba0>
    1020:	0b390b3b 	bleq	e43d14 <__bss_end__+0xe3a084>
    1024:	061c1349 	ldreq	r1, [ip], -r9, asr #6
    1028:	0f0c0000 	svceq	0x000c0000
    102c:	490b0b00 	stmdbmi	fp, {r8, r9, fp}
    1030:	0d000013 	stceq	0, cr0, [r0, #-76]	; 0xffffffb4
    1034:	13490026 	movtne	r0, #36902	; 0x9026
    1038:	2e0e0000 	cdpcs	0, 0, cr0, cr14, cr0, {0}
    103c:	03193f01 	tsteq	r9, #1, 30
    1040:	3b0b3a0e 	blcc	2cf880 <__bss_end__+0x2c5bf0>
    1044:	270b390b 	strcs	r3, [fp, -fp, lsl #18]
    1048:	12011119 	andne	r1, r1, #1073741830	; 0x40000006
    104c:	97184006 	ldrls	r4, [r8, -r6]
    1050:	13011942 	movwne	r1, #6466	; 0x1942
    1054:	890f0000 	stmdbhi	pc, {}	; <UNPREDICTABLE>
    1058:	11000182 	smlabbne	r0, r2, r1, r0
    105c:	00133101 	andseq	r3, r3, r1, lsl #2
    1060:	012e1000 			; <UNDEFINED> instruction: 0x012e1000
    1064:	0e03193f 			; <UNDEFINED> instruction: 0x0e03193f
    1068:	0b3b0b3a 	bleq	ec3d58 <__bss_end__+0xeba0c8>
    106c:	19270b39 	stmdbne	r7!, {r0, r3, r4, r5, r8, r9, fp}
    1070:	01111349 	tsteq	r1, r9, asr #6
    1074:	18400612 	stmdane	r0, {r1, r4, r9, sl}^
    1078:	01194297 			; <UNDEFINED> instruction: 0x01194297
    107c:	11000013 	tstne	r0, r3, lsl r0
    1080:	01018289 	smlabbeq	r1, r9, r2, r8
    1084:	13310111 	teqne	r1, #1073741828	; 0x40000004
    1088:	8a120000 	bhi	481090 <__bss_end__+0x477400>
    108c:	02000182 	andeq	r0, r0, #-2147483616	; 0x80000020
    1090:	18429118 	stmdane	r2, {r3, r4, r8, ip, pc}^
    1094:	05130000 	ldreq	r0, [r3, #-0]
    1098:	3a080300 	bcc	201ca0 <__bss_end__+0x1f8010>
    109c:	390b3b0b 	stmdbcc	fp, {r0, r1, r3, r8, r9, fp, ip, sp}
    10a0:	0213490b 	andseq	r4, r3, #180224	; 0x2c000
    10a4:	1742b717 	smlaldne	fp, r2, r7, r7
    10a8:	89140000 	ldmdbhi	r4, {}	; <UNPREDICTABLE>
    10ac:	11010182 	smlabbne	r1, r2, r1, r0
    10b0:	01133101 	tsteq	r3, r1, lsl #2
    10b4:	15000013 	strne	r0, [r0, #-19]	; 0xffffffed
    10b8:	08030034 	stmdaeq	r3, {r2, r4, r5}
    10bc:	0b3b0b3a 	bleq	ec3dac <__bss_end__+0xeba11c>
    10c0:	13490b39 	movtne	r0, #39737	; 0x9b39
    10c4:	42b71702 	adcsmi	r1, r7, #524288	; 0x80000
    10c8:	16000017 			; <UNDEFINED> instruction: 0x16000017
    10cc:	0e030034 	mcreq	0, 0, r0, cr3, cr4, {1}
    10d0:	0b3b0b3a 	bleq	ec3dc0 <__bss_end__+0xeba130>
    10d4:	13490b39 	movtne	r0, #39737	; 0x9b39
    10d8:	0000051c 	andeq	r0, r0, ip, lsl r5
    10dc:	03012e17 	movweq	r2, #7703	; 0x1e17
    10e0:	3b0b3a0e 	blcc	2cf920 <__bss_end__+0x2c5c90>
    10e4:	270b390b 	strcs	r3, [fp, -fp, lsl #18]
    10e8:	12011119 	andne	r1, r1, #1073741830	; 0x40000006
    10ec:	97184006 	ldrls	r4, [r8, -r6]
    10f0:	13011942 	movwne	r1, #6466	; 0x1942
    10f4:	05180000 	ldreq	r0, [r8, #-0]
    10f8:	3a0e0300 	bcc	381d00 <__bss_end__+0x378070>
    10fc:	390b3b0b 	stmdbcc	fp, {r0, r1, r3, r8, r9, fp, ip, sp}
    1100:	0213490b 	andseq	r4, r3, #180224	; 0x2c000
    1104:	1742b717 	smlaldne	fp, r2, r7, r7
    1108:	35190000 	ldrcc	r0, [r9, #-0]
    110c:	1a000000 	bne	1114 <__code_start__-0x6eec>
    1110:	193f002e 	ldmdbne	pc!, {r1, r2, r3, r5}	; <UNPREDICTABLE>
    1114:	0e6e193c 			; <UNDEFINED> instruction: 0x0e6e193c
    1118:	0b3a0e03 	bleq	e8492c <__bss_end__+0xe7ac9c>
    111c:	0b390b3b 	bleq	e43e10 <__bss_end__+0xe3a180>
    1120:	01000000 	mrseq	r0, (UNDEF: 0)
    1124:	0e250111 	mcreq	1, 1, r0, cr5, cr1, {0}
    1128:	0e030b13 	vmoveq.32	d3[0], r0
    112c:	01110e1b 	tsteq	r1, fp, lsl lr
    1130:	17100612 			; <UNDEFINED> instruction: 0x17100612
    1134:	24020000 	strcs	r0, [r2], #-0
    1138:	3e0b0b00 	vmlacc.f64	d0, d11, d0
    113c:	0008030b 	andeq	r0, r8, fp, lsl #6
    1140:	00240300 	eoreq	r0, r4, r0, lsl #6
    1144:	0b3e0b0b 	bleq	f83d78 <__bss_end__+0xf7a0e8>
    1148:	00000e03 	andeq	r0, r0, r3, lsl #28
    114c:	03001604 	movweq	r1, #1540	; 0x604
    1150:	3b0b3a0e 	blcc	2cf990 <__bss_end__+0x2c5d00>
    1154:	490b390b 	stmdbmi	fp, {r0, r1, r3, r8, fp, ip, sp}
    1158:	05000013 	streq	r0, [r0, #-19]	; 0xffffffed
    115c:	13490026 	movtne	r0, #36902	; 0x9026
    1160:	0f060000 	svceq	0x00060000
    1164:	000b0b00 	andeq	r0, fp, r0, lsl #22
    1168:	01040700 	tsteq	r4, r0, lsl #14
    116c:	0b0b0b3e 	bleq	2c3e6c <__bss_end__+0x2ba1dc>
    1170:	0b3a1349 	bleq	e85e9c <__bss_end__+0xe7c20c>
    1174:	0b390b3b 	bleq	e43e68 <__bss_end__+0xe3a1d8>
    1178:	00001301 	andeq	r1, r0, r1, lsl #6
    117c:	03002808 	movweq	r2, #2056	; 0x808
    1180:	00061c0e 	andeq	r1, r6, lr, lsl #24
    1184:	00340900 	eorseq	r0, r4, r0, lsl #18
    1188:	0b3a0e03 	bleq	e8499c <__bss_end__+0xe7ad0c>
    118c:	0b390b3b 	bleq	e43e80 <__bss_end__+0xe3a1f0>
    1190:	193f1349 	ldmdbne	pc!, {r0, r3, r6, r8, r9, ip}	; <UNPREDICTABLE>
    1194:	0000193c 	andeq	r1, r0, ip, lsr r9
    1198:	0300340a 	movweq	r3, #1034	; 0x40a
    119c:	3b0b3a0e 	blcc	2cf9dc <__bss_end__+0x2c5d4c>
    11a0:	490b390b 	stmdbmi	fp, {r0, r1, r3, r8, fp, ip, sp}
    11a4:	00180213 	andseq	r0, r8, r3, lsl r2
    11a8:	000f0b00 	andeq	r0, pc, r0, lsl #22
    11ac:	13490b0b 	movtne	r0, #39691	; 0x9b0b
    11b0:	2e0c0000 	cdpcs	0, 0, cr0, cr12, cr0, {0}
    11b4:	03193f01 	tsteq	r9, #1, 30
    11b8:	3b0b3a0e 	blcc	2cf9f8 <__bss_end__+0x2c5d68>
    11bc:	270b390b 	strcs	r3, [fp, -fp, lsl #18]
    11c0:	12011119 	andne	r1, r1, #1073741830	; 0x40000006
    11c4:	97184006 	ldrls	r4, [r8, -r6]
    11c8:	13011942 	movwne	r1, #6466	; 0x1942
    11cc:	050d0000 	streq	r0, [sp, #-0]
    11d0:	3a080300 	bcc	201dd8 <__bss_end__+0x1f8148>
    11d4:	390b3b0b 	stmdbcc	fp, {r0, r1, r3, r8, r9, fp, ip, sp}
    11d8:	0213490b 	andseq	r4, r3, #180224	; 0x2c000
    11dc:	1742b717 	smlaldne	fp, r2, r7, r7
    11e0:	340e0000 	strcc	r0, [lr], #-0
    11e4:	490e0300 	stmdbmi	lr, {r8, r9}
    11e8:	02193413 	andseq	r3, r9, #318767104	; 0x13000000
    11ec:	0f000018 	svceq	0x00000018
    11f0:	01018289 	smlabbeq	r1, r9, r2, r8
    11f4:	13310111 	teqne	r1, #1073741828	; 0x40000004
    11f8:	00001301 	andeq	r1, r0, r1, lsl #6
    11fc:	01828a10 	orreq	r8, r2, r0, lsl sl
    1200:	91180200 	tstls	r8, r0, lsl #4
    1204:	00001842 	andeq	r1, r0, r2, asr #16
    1208:	01828911 	orreq	r8, r2, r1, lsl r9
    120c:	31011100 	mrscc	r1, (UNDEF: 17)
    1210:	12000013 	andne	r0, r0, #19, 0
    1214:	13490101 	movtne	r0, #37121	; 0x9101
    1218:	00001301 	andeq	r1, r0, r1, lsl #6
    121c:	49002113 	stmdbmi	r0, {r0, r1, r4, r8, sp}
    1220:	000b2f13 	andeq	r2, fp, r3, lsl pc
    1224:	002e1400 	eoreq	r1, lr, r0, lsl #8
    1228:	0e03193f 			; <UNDEFINED> instruction: 0x0e03193f
    122c:	0b3b0b3a 	bleq	ec3f1c <__bss_end__+0xeba28c>
    1230:	19270b39 	stmdbne	r7!, {r0, r3, r4, r5, r8, r9, fp}
    1234:	06120111 			; <UNDEFINED> instruction: 0x06120111
    1238:	42971840 	addsmi	r1, r7, #64, 16	; 0x400000
    123c:	15000019 	strne	r0, [r0, #-25]	; 0xffffffe7
    1240:	08030005 	stmdaeq	r3, {r0, r2}
    1244:	0b3b0b3a 	bleq	ec3f34 <__bss_end__+0xeba2a4>
    1248:	13490b39 	movtne	r0, #39737	; 0x9b39
    124c:	00001802 	andeq	r1, r0, r2, lsl #16
    1250:	3f012e16 	svccc	0x00012e16
    1254:	3a0e0319 	bcc	381ec0 <__bss_end__+0x378230>
    1258:	390b3b0b 	stmdbcc	fp, {r0, r1, r3, r8, r9, fp, ip, sp}
    125c:	4919270b 	ldmdbmi	r9, {r0, r1, r3, r8, r9, sl, sp}
    1260:	12011113 	andne	r1, r1, #-1073741820	; 0xc0000004
    1264:	97184006 	ldrls	r4, [r8, -r6]
    1268:	13011942 	movwne	r1, #6466	; 0x1942
    126c:	05170000 	ldreq	r0, [r7, #-0]
    1270:	3a0e0300 	bcc	381e78 <__bss_end__+0x3781e8>
    1274:	390b3b0b 	stmdbcc	fp, {r0, r1, r3, r8, r9, fp, ip, sp}
    1278:	0213490b 	andseq	r4, r3, #180224	; 0x2c000
    127c:	1742b717 	smlaldne	fp, r2, r7, r7
    1280:	34180000 	ldrcc	r0, [r8], #-0
    1284:	3a080300 	bcc	201e8c <__bss_end__+0x1f81fc>
    1288:	390b3b0b 	stmdbcc	fp, {r0, r1, r3, r8, r9, fp, ip, sp}
    128c:	0213490b 	andseq	r4, r3, #180224	; 0x2c000
    1290:	1742b717 	smlaldne	fp, r2, r7, r7
    1294:	1d190000 	ldcne	0, cr0, [r9, #-0]
    1298:	52133101 	andspl	r3, r3, #1073741824	; 0x40000000
    129c:	0b42b801 	bleq	10af2a8 <__bss_end__+0x10a5618>
    12a0:	06120111 			; <UNDEFINED> instruction: 0x06120111
    12a4:	0b590b58 	bleq	164400c <__bss_end__+0x163a37c>
    12a8:	13010b57 	movwne	r0, #6999	; 0x1b57
    12ac:	051a0000 	ldreq	r0, [sl, #-0]
    12b0:	02133100 	andseq	r3, r3, #0
    12b4:	1742b717 	smlaldne	fp, r2, r7, r7
    12b8:	1d1b0000 	ldcne	0, cr0, [fp, #-0]
    12bc:	52133101 	andspl	r3, r3, #1073741824	; 0x40000000
    12c0:	0b42b801 	bleq	10af2cc <__bss_end__+0x10a563c>
    12c4:	0b581755 	bleq	1607020 <__bss_end__+0x15fd390>
    12c8:	0b570b59 	bleq	15c4034 <__bss_end__+0x15ba3a4>
    12cc:	00001301 	andeq	r1, r0, r1, lsl #6
    12d0:	55010b1c 	strpl	r0, [r1, #-2844]	; 0xfffff4e4
    12d4:	1d000017 	stcne	0, cr0, [r0, #-92]	; 0xffffffa4
    12d8:	0e030034 	mcreq	0, 0, r0, cr3, cr4, {1}
    12dc:	0b3b0b3a 	bleq	ec3fcc <__bss_end__+0xeba33c>
    12e0:	13490b39 	movtne	r0, #39737	; 0x9b39
    12e4:	42b71702 	adcsmi	r1, r7, #524288	; 0x80000
    12e8:	1e000017 	mcrne	0, 0, r0, cr0, cr7, {0}
    12ec:	1755000b 	ldrbne	r0, [r5, -fp]
    12f0:	2e1f0000 	cdpcs	0, 1, cr0, cr15, cr0, {0}
    12f4:	03193f00 	tsteq	r9, #0, 30
    12f8:	3b0b3a0e 	blcc	2cfb38 <__bss_end__+0x2c5ea8>
    12fc:	270b390b 	strcs	r3, [fp, -fp, lsl #18]
    1300:	11134919 	tstne	r3, r9, lsl r9
    1304:	40061201 	andmi	r1, r6, r1, lsl #4
    1308:	19429718 	stmdbne	r2, {r3, r4, r8, r9, sl, ip, pc}^
    130c:	2e200000 	cdpcs	0, 2, cr0, cr0, cr0, {0}
    1310:	3a0e0301 	bcc	381f1c <__bss_end__+0x37828c>
    1314:	390b3b0b 	stmdbcc	fp, {r0, r1, r3, r8, r9, fp, ip, sp}
    1318:	4919270b 	ldmdbmi	r9, {r0, r1, r3, r8, r9, sl, sp}
    131c:	010b2013 	tsteq	fp, r3, lsl r0
    1320:	21000013 	tstcs	r0, r3, lsl r0
    1324:	08030005 	stmdaeq	r3, {r0, r2}
    1328:	0b3b0b3a 	bleq	ec4018 <__bss_end__+0xeba388>
    132c:	13490b39 	movtne	r0, #39737	; 0x9b39
    1330:	2e220000 	cdpcs	0, 2, cr0, cr2, cr0, {0}
    1334:	3c193f00 	ldccc	15, cr3, [r9], {-0}
    1338:	030e6e19 	movweq	r6, #60953	; 0xee19
    133c:	3b0b3a0e 	blcc	2cfb7c <__bss_end__+0x2c5eec>
    1340:	000b390b 	andeq	r3, fp, fp, lsl #18
    1344:	11010000 	mrsne	r0, (UNDEF: 1)
    1348:	130e2501 	movwne	r2, #58625	; 0xe501
    134c:	1b0e030b 	blne	381f80 <__bss_end__+0x3782f0>
    1350:	1201110e 	andne	r1, r1, #-2147483645	; 0x80000003
    1354:	00171006 	andseq	r1, r7, r6
    1358:	00240200 	eoreq	r0, r4, r0, lsl #4
    135c:	0b3e0b0b 	bleq	f83f90 <__bss_end__+0xf7a300>
    1360:	00000803 	andeq	r0, r0, r3, lsl #16
    1364:	0b002403 	bleq	a378 <__bss_end__+0x6e8>
    1368:	030b3e0b 	movweq	r3, #48651	; 0xbe0b
    136c:	0400000e 	streq	r0, [r0], #-14
    1370:	19270115 	stmdbne	r7!, {r0, r2, r4, r8}
    1374:	13011349 	movwne	r1, #4937	; 0x1349
    1378:	05050000 	streq	r0, [r5, #-0]
    137c:	00134900 	andseq	r4, r3, r0, lsl #18
    1380:	00340600 	eorseq	r0, r4, r0, lsl #12
    1384:	0b3a0e03 	bleq	e84b98 <__bss_end__+0xe7af08>
    1388:	0b390b3b 	bleq	e4407c <__bss_end__+0xe3a3ec>
    138c:	193f1349 	ldmdbne	pc!, {r0, r3, r6, r8, r9, ip}	; <UNPREDICTABLE>
    1390:	0000193c 	andeq	r1, r0, ip, lsr r9
    1394:	0b000f07 	bleq	4fb8 <__code_start__-0x3048>
    1398:	0013490b 	andseq	r4, r3, fp, lsl #18
    139c:	00260800 	eoreq	r0, r6, r0, lsl #16
    13a0:	00001349 	andeq	r1, r0, r9, asr #6
    13a4:	47003409 	strmi	r3, [r0, -r9, lsl #8]
    13a8:	3b0b3a13 	blcc	2cfbfc <__bss_end__+0x2c5f6c>
    13ac:	020b390b 	andeq	r3, fp, #180224	; 0x2c000
    13b0:	0a000018 	beq	1418 <__code_start__-0x6be8>
    13b4:	193f012e 	ldmdbne	pc!, {r1, r2, r3, r5, r8}	; <UNPREDICTABLE>
    13b8:	0b3a0e03 	bleq	e84bcc <__bss_end__+0xe7af3c>
    13bc:	0b390b3b 	bleq	e440b0 <__bss_end__+0xe3a420>
    13c0:	01111927 	tsteq	r1, r7, lsr #18
    13c4:	18400612 	stmdane	r0, {r1, r4, r9, sl}^
    13c8:	01194297 			; <UNDEFINED> instruction: 0x01194297
    13cc:	0b000013 	bleq	1420 <__code_start__-0x6be0>
    13d0:	08030005 	stmdaeq	r3, {r0, r2}
    13d4:	0b3b0b3a 	bleq	ec40c4 <__bss_end__+0xeba434>
    13d8:	13490b39 	movtne	r0, #39737	; 0x9b39
    13dc:	00001802 	andeq	r1, r0, r2, lsl #16
    13e0:	3f002e0c 	svccc	0x00002e0c
    13e4:	3a0e0319 	bcc	382050 <__bss_end__+0x3783c0>
    13e8:	390b3b0b 	stmdbcc	fp, {r0, r1, r3, r8, r9, fp, ip, sp}
    13ec:	1119270b 	tstne	r9, fp, lsl #14
    13f0:	40061201 	andmi	r1, r6, r1, lsl #4
    13f4:	19429718 	stmdbne	r2, {r3, r4, r8, r9, sl, ip, pc}^
    13f8:	2e0d0000 	cdpcs	0, 0, cr0, cr13, cr0, {0}
    13fc:	3a0e0301 	bcc	382008 <__bss_end__+0x378378>
    1400:	390b3b0b 	stmdbcc	fp, {r0, r1, r3, r8, r9, fp, ip, sp}
    1404:	4919270b 	ldmdbmi	r9, {r0, r1, r3, r8, r9, sl, sp}
    1408:	12011113 	andne	r1, r1, #-1073741820	; 0xc0000004
    140c:	97184006 	ldrls	r4, [r8, -r6]
    1410:	13011942 	movwne	r1, #6466	; 0x1942
    1414:	050e0000 	streq	r0, [lr, #-0]
    1418:	3a080300 	bcc	202020 <__bss_end__+0x1f8390>
    141c:	390b3b0b 	stmdbcc	fp, {r0, r1, r3, r8, r9, fp, ip, sp}
    1420:	0213490b 	andseq	r4, r3, #180224	; 0x2c000
    1424:	1742b717 	smlaldne	fp, r2, r7, r7
    1428:	890f0000 	stmdbhi	pc, {}	; <UNPREDICTABLE>
    142c:	11010182 	smlabbne	r1, r2, r1, r0
    1430:	00133101 	andseq	r3, r3, r1, lsl #2
    1434:	828a1000 	addhi	r1, sl, #0, 0
    1438:	18020001 	stmdane	r2, {r0}
    143c:	00184291 	mulseq	r8, r1, r2
    1440:	002e1100 	eoreq	r1, lr, r0, lsl #2
    1444:	193c193f 	ldmdbne	ip!, {r0, r1, r2, r3, r4, r5, r8, fp, ip}
    1448:	0e030e6e 	cdpeq	14, 0, cr0, cr3, cr14, {3}
    144c:	0b3b0b3a 	bleq	ec413c <__bss_end__+0xeba4ac>
    1450:	00000b39 	andeq	r0, r0, r9, lsr fp
    1454:	01110100 	tsteq	r1, r0, lsl #2
    1458:	0b130e25 	bleq	4c4cf4 <__bss_end__+0x4bb064>
    145c:	0e1b0e03 	cdpeq	14, 1, cr0, cr11, cr3, {0}
    1460:	06120111 			; <UNDEFINED> instruction: 0x06120111
    1464:	00001710 	andeq	r1, r0, r0, lsl r7
    1468:	0b002402 	bleq	a478 <__bss_end__+0x7e8>
    146c:	030b3e0b 	movweq	r3, #48651	; 0xbe0b
    1470:	03000008 	movweq	r0, #8
    1474:	0b0b0024 	bleq	2c150c <__bss_end__+0x2b787c>
    1478:	0e030b3e 	vmoveq.16	d3[0], r0
    147c:	15040000 	strne	r0, [r4, #-0]
    1480:	49192701 	ldmdbmi	r9, {r0, r8, r9, sl, sp}
    1484:	00130113 	andseq	r0, r3, r3, lsl r1
    1488:	00050500 	andeq	r0, r5, r0, lsl #10
    148c:	00001349 	andeq	r1, r0, r9, asr #6
    1490:	03003406 	movweq	r3, #1030	; 0x406
    1494:	3b0b3a0e 	blcc	2cfcd4 <__bss_end__+0x2c6044>
    1498:	490b390b 	stmdbmi	fp, {r0, r1, r3, r8, fp, ip, sp}
    149c:	3c193f13 	ldccc	15, cr3, [r9], {19}
    14a0:	07000019 	smladeq	r0, r9, r0, r0
    14a4:	0b0b000f 	bleq	2c14e8 <__bss_end__+0x2b7858>
    14a8:	00001349 	andeq	r1, r0, r9, asr #6
    14ac:	49002608 	stmdbmi	r0, {r3, r9, sl, sp}
    14b0:	09000013 	stmdbeq	r0, {r0, r1, r4}
    14b4:	193f012e 	ldmdbne	pc!, {r1, r2, r3, r5, r8}	; <UNPREDICTABLE>
    14b8:	0b3a0e03 	bleq	e84ccc <__bss_end__+0xe7b03c>
    14bc:	0b390b3b 	bleq	e441b0 <__bss_end__+0xe3a520>
    14c0:	13491927 	movtne	r1, #39207	; 0x9927
    14c4:	06120111 			; <UNDEFINED> instruction: 0x06120111
    14c8:	42971840 	addsmi	r1, r7, #64, 16	; 0x400000
    14cc:	00130119 	andseq	r0, r3, r9, lsl r1
    14d0:	00050a00 	andeq	r0, r5, r0, lsl #20
    14d4:	0b3a0e03 	bleq	e84ce8 <__bss_end__+0xe7b058>
    14d8:	0b390b3b 	bleq	e441cc <__bss_end__+0xe3a53c>
    14dc:	18021349 	stmdane	r2, {r0, r3, r6, r8, r9, ip}
    14e0:	050b0000 	streq	r0, [fp, #-0]
    14e4:	3a080300 	bcc	2020ec <__bss_end__+0x1f845c>
    14e8:	390b3b0b 	stmdbcc	fp, {r0, r1, r3, r8, r9, fp, ip, sp}
    14ec:	0213490b 	andseq	r4, r3, #180224	; 0x2c000
    14f0:	1742b717 	smlaldne	fp, r2, r7, r7
    14f4:	340c0000 	strcc	r0, [ip], #-0
    14f8:	3a080300 	bcc	202100 <__bss_end__+0x1f8470>
    14fc:	390b3b0b 	stmdbcc	fp, {r0, r1, r3, r8, r9, fp, ip, sp}
    1500:	0213490b 	andseq	r4, r3, #180224	; 0x2c000
    1504:	1742b717 	smlaldne	fp, r2, r7, r7
    1508:	01000000 	mrseq	r0, (UNDEF: 0)
    150c:	0e250111 	mcreq	1, 1, r0, cr5, cr1, {0}
    1510:	0e030b13 	vmoveq.32	d3[0], r0
    1514:	01110e1b 	tsteq	r1, fp, lsl lr
    1518:	17100612 			; <UNDEFINED> instruction: 0x17100612
    151c:	24020000 	strcs	r0, [r2], #-0
    1520:	3e0b0b00 	vmlacc.f64	d0, d11, d0
    1524:	0008030b 	andeq	r0, r8, fp, lsl #6
    1528:	00240300 	eoreq	r0, r4, r0, lsl #6
    152c:	0b3e0b0b 	bleq	f84160 <__bss_end__+0xf7a4d0>
    1530:	00000e03 	andeq	r0, r0, r3, lsl #28
    1534:	27011504 	strcs	r1, [r1, -r4, lsl #10]
    1538:	01134919 	tsteq	r3, r9, lsl r9
    153c:	05000013 	streq	r0, [r0, #-19]	; 0xffffffed
    1540:	13490005 	movtne	r0, #36869	; 0x9005
    1544:	34060000 	strcc	r0, [r6], #-0
    1548:	3a0e0300 	bcc	382150 <__bss_end__+0x3784c0>
    154c:	390b3b0b 	stmdbcc	fp, {r0, r1, r3, r8, r9, fp, ip, sp}
    1550:	3f13490b 	svccc	0x0013490b
    1554:	00193c19 	andseq	r3, r9, r9, lsl ip
    1558:	000f0700 	andeq	r0, pc, r0, lsl #14
    155c:	13490b0b 	movtne	r0, #39691	; 0x9b0b
    1560:	26080000 	strcs	r0, [r8], -r0
    1564:	00134900 	andseq	r4, r3, r0, lsl #18
    1568:	012e0900 			; <UNDEFINED> instruction: 0x012e0900
    156c:	0e03193f 			; <UNDEFINED> instruction: 0x0e03193f
    1570:	0b3b0b3a 	bleq	ec4260 <__bss_end__+0xeba5d0>
    1574:	19270b39 	stmdbne	r7!, {r0, r3, r4, r5, r8, r9, fp}
    1578:	01111349 	tsteq	r1, r9, asr #6
    157c:	18400612 	stmdane	r0, {r1, r4, r9, sl}^
    1580:	00194297 	mulseq	r9, r7, r2
    1584:	00050a00 	andeq	r0, r5, r0, lsl #20
    1588:	0b3a0803 	bleq	e8359c <__bss_end__+0xe7990c>
    158c:	0b390b3b 	bleq	e44280 <__bss_end__+0xe3a5f0>
    1590:	17021349 	strne	r1, [r2, -r9, asr #6]
    1594:	001742b7 			; <UNDEFINED> instruction: 0x001742b7
    1598:	11010000 	mrsne	r0, (UNDEF: 1)
    159c:	130e2501 	movwne	r2, #58625	; 0xe501
    15a0:	1b0e030b 	blne	3821d4 <__bss_end__+0x378544>
    15a4:	1201110e 	andne	r1, r1, #-2147483645	; 0x80000003
    15a8:	00171006 	andseq	r1, r7, r6
    15ac:	00240200 	eoreq	r0, r4, r0, lsl #4
    15b0:	0b3e0b0b 	bleq	f841e4 <__bss_end__+0xf7a554>
    15b4:	00000803 	andeq	r0, r0, r3, lsl #16
    15b8:	0b002403 	bleq	a5cc <__bss_end__+0x93c>
    15bc:	030b3e0b 	movweq	r3, #48651	; 0xbe0b
    15c0:	0400000e 	streq	r0, [r0], #-14
    15c4:	19270115 	stmdbne	r7!, {r0, r2, r4, r8}
    15c8:	13011349 	movwne	r1, #4937	; 0x1349
    15cc:	05050000 	streq	r0, [r5, #-0]
    15d0:	00134900 	andseq	r4, r3, r0, lsl #18
    15d4:	00340600 	eorseq	r0, r4, r0, lsl #12
    15d8:	0b3a0e03 	bleq	e84dec <__bss_end__+0xe7b15c>
    15dc:	0b390b3b 	bleq	e442d0 <__bss_end__+0xe3a640>
    15e0:	193f1349 	ldmdbne	pc!, {r0, r3, r6, r8, r9, ip}	; <UNPREDICTABLE>
    15e4:	0000193c 	andeq	r1, r0, ip, lsr r9
    15e8:	0b000f07 	bleq	520c <__code_start__-0x2df4>
    15ec:	0013490b 	andseq	r4, r3, fp, lsl #18
    15f0:	00260800 	eoreq	r0, r6, r0, lsl #16
    15f4:	00001349 	andeq	r1, r0, r9, asr #6
    15f8:	3f012e09 	svccc	0x00012e09
    15fc:	3a0e0319 	bcc	382268 <__bss_end__+0x3785d8>
    1600:	390b3b0b 	stmdbcc	fp, {r0, r1, r3, r8, r9, fp, ip, sp}
    1604:	4919270b 	ldmdbmi	r9, {r0, r1, r3, r8, r9, sl, sp}
    1608:	12011113 	andne	r1, r1, #-1073741820	; 0xc0000004
    160c:	97184006 	ldrls	r4, [r8, -r6]
    1610:	13011942 	movwne	r1, #6466	; 0x1942
    1614:	050a0000 	streq	r0, [sl, #-0]
    1618:	3a080300 	bcc	202220 <__bss_end__+0x1f8590>
    161c:	390b3b0b 	stmdbcc	fp, {r0, r1, r3, r8, r9, fp, ip, sp}
    1620:	0213490b 	andseq	r4, r3, #180224	; 0x2c000
    1624:	0b000018 	bleq	168c <__code_start__-0x6974>
    1628:	08030005 	stmdaeq	r3, {r0, r2}
    162c:	0b3b0b3a 	bleq	ec431c <__bss_end__+0xeba68c>
    1630:	13490b39 	movtne	r0, #39737	; 0x9b39
    1634:	42b71702 	adcsmi	r1, r7, #524288	; 0x80000
    1638:	0c000017 	stceq	0, cr0, [r0], {23}
    163c:	08030034 	stmdaeq	r3, {r2, r4, r5}
    1640:	0b3b0b3a 	bleq	ec4330 <__bss_end__+0xeba6a0>
    1644:	13490b39 	movtne	r0, #39737	; 0x9b39
    1648:	42b71702 	adcsmi	r1, r7, #524288	; 0x80000
    164c:	00000017 	andeq	r0, r0, r7, lsl r0
    1650:	25011101 	strcs	r1, [r1, #-257]	; 0xfffffeff
    1654:	030b130e 	movweq	r1, #45838	; 0xb30e
    1658:	550e1b0e 	strpl	r1, [lr, #-2830]	; 0xfffff4f2
    165c:	10011117 	andne	r1, r1, r7, lsl r1
    1660:	02000017 	andeq	r0, r0, #23, 0
    1664:	0b0b0024 	bleq	2c16fc <__bss_end__+0x2b7a6c>
    1668:	08030b3e 	stmdaeq	r3, {r1, r2, r3, r4, r5, r8, r9, fp}
    166c:	16030000 	strne	r0, [r3], -r0
    1670:	3a0e0300 	bcc	382278 <__bss_end__+0x3785e8>
    1674:	390b3b0b 	stmdbcc	fp, {r0, r1, r3, r8, r9, fp, ip, sp}
    1678:	0013490b 	andseq	r4, r3, fp, lsl #18
    167c:	00240400 	eoreq	r0, r4, r0, lsl #8
    1680:	0b3e0b0b 	bleq	f842b4 <__bss_end__+0xf7a624>
    1684:	00000e03 	andeq	r0, r0, r3, lsl #28
    1688:	49002605 	stmdbmi	r0, {r0, r2, r9, sl, sp}
    168c:	06000013 			; <UNDEFINED> instruction: 0x06000013
    1690:	19270115 	stmdbne	r7!, {r0, r2, r4, r8}
    1694:	13011349 	movwne	r1, #4937	; 0x1349
    1698:	05070000 	streq	r0, [r7, #-0]
    169c:	00134900 	andseq	r4, r3, r0, lsl #18
    16a0:	00340800 	eorseq	r0, r4, r0, lsl #16
    16a4:	0b3a0e03 	bleq	e84eb8 <__bss_end__+0xe7b228>
    16a8:	0b390b3b 	bleq	e4439c <__bss_end__+0xe3a70c>
    16ac:	193f1349 	ldmdbne	pc!, {r0, r3, r6, r8, r9, ip}	; <UNPREDICTABLE>
    16b0:	0000193c 	andeq	r1, r0, ip, lsr r9
    16b4:	0b000f09 	bleq	52e0 <__code_start__-0x2d20>
    16b8:	0013490b 	andseq	r4, r3, fp, lsl #18
    16bc:	012e0a00 			; <UNDEFINED> instruction: 0x012e0a00
    16c0:	0e03193f 			; <UNDEFINED> instruction: 0x0e03193f
    16c4:	0b3b0b3a 	bleq	ec43b4 <__bss_end__+0xeba724>
    16c8:	19270b39 	stmdbne	r7!, {r0, r3, r4, r5, r8, r9, fp}
    16cc:	01111349 	tsteq	r1, r9, asr #6
    16d0:	18400612 	stmdane	r0, {r1, r4, r9, sl}^
    16d4:	01194297 			; <UNDEFINED> instruction: 0x01194297
    16d8:	0b000013 	bleq	172c <__code_start__-0x68d4>
    16dc:	08030005 	stmdaeq	r3, {r0, r2}
    16e0:	0b3b0b3a 	bleq	ec43d0 <__bss_end__+0xeba740>
    16e4:	13490b39 	movtne	r0, #39737	; 0x9b39
    16e8:	42b71702 	adcsmi	r1, r7, #524288	; 0x80000
    16ec:	0c000017 	stceq	0, cr0, [r0], {23}
    16f0:	08030034 	stmdaeq	r3, {r2, r4, r5}
    16f4:	0b3b0b3a 	bleq	ec43e4 <__bss_end__+0xeba754>
    16f8:	13490b39 	movtne	r0, #39737	; 0x9b39
    16fc:	42b71702 	adcsmi	r1, r7, #524288	; 0x80000
    1700:	00000017 	andeq	r0, r0, r7, lsl r0
    1704:	25011101 	strcs	r1, [r1, #-257]	; 0xfffffeff
    1708:	030b130e 	movweq	r1, #45838	; 0xb30e
    170c:	110e1b0e 	tstne	lr, lr, lsl #22
    1710:	10061201 	andne	r1, r6, r1, lsl #4
    1714:	02000017 	andeq	r0, r0, #23, 0
    1718:	0b0b0024 	bleq	2c17b0 <__bss_end__+0x2b7b20>
    171c:	08030b3e 	stmdaeq	r3, {r1, r2, r3, r4, r5, r8, r9, fp}
    1720:	24030000 	strcs	r0, [r3], #-0
    1724:	3e0b0b00 	vmlacc.f64	d0, d11, d0
    1728:	000e030b 	andeq	r0, lr, fp, lsl #6
    172c:	01150400 	tsteq	r5, r0, lsl #8
    1730:	13491927 	movtne	r1, #39207	; 0x9927
    1734:	00001301 	andeq	r1, r0, r1, lsl #6
    1738:	49000505 	stmdbmi	r0, {r0, r2, r8, sl}
    173c:	06000013 			; <UNDEFINED> instruction: 0x06000013
    1740:	0e030034 	mcreq	0, 0, r0, cr3, cr4, {1}
    1744:	0b3b0b3a 	bleq	ec4434 <__bss_end__+0xeba7a4>
    1748:	13490b39 	movtne	r0, #39737	; 0x9b39
    174c:	193c193f 	ldmdbne	ip!, {r0, r1, r2, r3, r4, r5, r8, fp, ip}
    1750:	0f070000 	svceq	0x00070000
    1754:	490b0b00 	stmdbmi	fp, {r8, r9, fp}
    1758:	08000013 	stmdaeq	r0, {r0, r1, r4}
    175c:	13490026 	movtne	r0, #36902	; 0x9026
    1760:	2e090000 	cdpcs	0, 0, cr0, cr9, cr0, {0}
    1764:	03193f00 	tsteq	r9, #0, 30
    1768:	3b0b3a0e 	blcc	2cffa8 <__bss_end__+0x2c6318>
    176c:	270b390b 	strcs	r3, [fp, -fp, lsl #18]
    1770:	12011119 	andne	r1, r1, #1073741830	; 0x40000006
    1774:	97184006 	ldrls	r4, [r8, -r6]
    1778:	00001942 	andeq	r1, r0, r2, asr #18
	...

Disassembly of section .debug_loc:

00000000 <.debug_loc>:
       0:	00000000 	andeq	r0, r0, r0
       4:	0000008c 	andeq	r0, r0, ip, lsl #1
       8:	00000094 	muleq	r0, r4, r0
       c:	94500001 	ldrbls	r0, [r0], #-1
      10:	e0000000 	and	r0, r0, r0
      14:	01000000 	mrseq	r0, (UNDEF: 0)
      18:	00005600 	andeq	r5, r0, r0, lsl #12
      1c:	00000000 	andeq	r0, r0, r0
      20:	00020000 	andeq	r0, r2, r0
      24:	00000000 	andeq	r0, r0, r0
      28:	00010100 	andeq	r0, r1, r0, lsl #2
      2c:	008c0000 	addeq	r0, ip, r0
      30:	00940000 	addseq	r0, r4, r0
      34:	00020000 	andeq	r0, r2, r0
      38:	00949f30 	addseq	r9, r4, r0, lsr pc
      3c:	00980000 	addseq	r0, r8, r0
      40:	00050000 	andeq	r0, r5, r0
      44:	1c00753a 	cfstr32ne	mvfx7, [r0], {58}	; 0x3a
      48:	0000989f 	muleq	r0, pc, r8	; <UNPREDICTABLE>
      4c:	00009f00 	andeq	r9, r0, r0, lsl #30
      50:	51000100 	mrspl	r0, (UNDEF: 16)
      54:	0000009f 	muleq	r0, pc, r0	; <UNPREDICTABLE>
      58:	000000c4 	andeq	r0, r0, r4, asr #1
      5c:	753a0005 	ldrvc	r0, [sl, #-5]!
      60:	c49f1c00 	ldrgt	r1, [pc], #3072	; 68 <__code_start__-0x7f98>
      64:	c8000000 	stmdagt	r0, {}	; <UNPREDICTABLE>
      68:	05000000 	streq	r0, [r0, #-0]
      6c:	00753b00 	rsbseq	r3, r5, r0, lsl #22
      70:	00c89f1c 	sbceq	r9, r8, ip, lsl pc
      74:	00e00000 	rsceq	r0, r0, r0
      78:	00050000 	andeq	r0, r5, r0
      7c:	1c00753a 	cfstr32ne	mvfx7, [r0], {58}	; 0x3a
      80:	0000009f 	muleq	r0, pc, r0	; <UNPREDICTABLE>
      84:	00000000 	andeq	r0, r0, r0
      88:	00000200 	andeq	r0, r0, r0, lsl #4
      8c:	0000a000 	andeq	sl, r0, r0
      90:	0000a400 	andeq	sl, r0, r0, lsl #8
      94:	30000200 	andcc	r0, r0, r0, lsl #4
      98:	0000a49f 	muleq	r0, pc, r4	; <UNPREDICTABLE>
      9c:	0000e000 	andeq	lr, r0, r0
      a0:	54000100 	strpl	r0, [r0], #-256	; 0xffffff00
	...
      b4:	00000027 	andeq	r0, r0, r7, lsr #32
      b8:	27500001 	ldrbcs	r0, [r0, -r1]
      bc:	6c000000 	stcvs	0, cr0, [r0], {-0}
      c0:	01000000 	mrseq	r0, (UNDEF: 0)
      c4:	00005500 	andeq	r5, r0, r0, lsl #10
	...
      d4:	00240000 	eoreq	r0, r4, r0
      d8:	00010000 	andeq	r0, r1, r0
      dc:	00002451 	andeq	r2, r0, r1, asr r4
      e0:	00006c00 	andeq	r6, r0, r0, lsl #24
      e4:	56000100 	strpl	r0, [r0], -r0, lsl #2
	...
      f4:	00000268 	andeq	r0, r0, r8, ror #4
      f8:	0000027c 	andeq	r0, r0, ip, ror r2
      fc:	7c500001 	mrrcvc	0, 0, r0, r0, cr1	; <UNPREDICTABLE>
     100:	90000002 	andls	r0, r0, r2
     104:	04000002 	streq	r0, [r0], #-2
     108:	5001f300 	andpl	pc, r1, r0, lsl #6
     10c:	0000009f 	muleq	r0, pc, r0	; <UNPREDICTABLE>
	...
     118:	00026800 	andeq	r6, r2, r0, lsl #16
     11c:	00027800 	andeq	r7, r2, r0, lsl #16
     120:	51000100 	mrspl	r0, (UNDEF: 16)
     124:	00000278 	andeq	r0, r0, r8, ror r2
     128:	00000290 	muleq	r0, r0, r2
     12c:	01f30004 	mvnseq	r0, r4
     130:	00009f51 	andeq	r9, r0, r1, asr pc
	...
     13c:	02680000 	rsbeq	r0, r8, #0, 0
     140:	02880000 	addeq	r0, r8, #0, 0
     144:	00010000 	andeq	r0, r1, r0
     148:	00028853 	andeq	r8, r2, r3, asr r8
     14c:	00029000 	andeq	r9, r2, r0
     150:	70000200 	andvc	r0, r0, r0, lsl #4
     154:	00000009 	andeq	r0, r0, r9
	...
     160:	00025800 	andeq	r5, r2, r0, lsl #16
     164:	00026300 	andeq	r6, r2, r0, lsl #6
     168:	50000100 	andpl	r0, r0, r0, lsl #2
     16c:	00000263 	andeq	r0, r0, r3, ror #4
     170:	00000268 	andeq	r0, r0, r8, ror #4
     174:	01f30004 	mvnseq	r0, r4
     178:	00009f50 	andeq	r9, r0, r0, asr pc
	...
     184:	02000000 	andeq	r0, r0, #0, 0
     188:	02180000 	andseq	r0, r8, #0, 0
     18c:	00010000 	andeq	r0, r1, r0
     190:	00021850 	andeq	r1, r2, r0, asr r8
     194:	00025800 	andeq	r5, r2, r0, lsl #16
     198:	58000100 	stmdapl	r0, {r8}
	...
     1a8:	00000200 	andeq	r0, r0, r0, lsl #4
     1ac:	00000218 	andeq	r0, r0, r8, lsl r2
     1b0:	18510001 	ldmdane	r1, {r0}^
     1b4:	58000002 	stmdapl	r0, {r1}
     1b8:	01000002 	tsteq	r0, r2
     1bc:	00005700 	andeq	r5, r0, r0, lsl #14
     1c0:	00000000 	andeq	r0, r0, r0
     1c4:	00020000 	andeq	r0, r2, r0
     1c8:	02080000 	andeq	r0, r8, #0, 0
     1cc:	02180000 	andseq	r0, r8, #0, 0
     1d0:	00020000 	andeq	r0, r2, r0
     1d4:	02189f30 	andseq	r9, r8, #48, 30	; 0xc0
     1d8:	024c0000 	subeq	r0, ip, #0, 0
     1dc:	00010000 	andeq	r0, r1, r0
     1e0:	00000056 	andeq	r0, r0, r6, asr r0
     1e4:	00000000 	andeq	r0, r0, r0
     1e8:	1c000000 	stcne	0, cr0, [r0], {-0}
     1ec:	40000002 	andmi	r0, r0, r2
     1f0:	02000002 	andeq	r0, r0, #2, 0
     1f4:	009f3000 	addseq	r3, pc, r0
	...
     200:	00021c00 	andeq	r1, r2, r0, lsl #24
     204:	00024000 	andeq	r4, r2, r0
     208:	54000100 	strpl	r0, [r0], #-256	; 0xffffff00
	...
     218:	000001c8 	andeq	r0, r0, r8, asr #3
     21c:	000001e0 	andeq	r0, r0, r0, ror #3
     220:	e0500001 	subs	r0, r0, r1
     224:	00000001 	andeq	r0, r0, r1
     228:	04000002 	streq	r0, [r0], #-2
     22c:	5001f300 	andpl	pc, r1, r0, lsl #6
     230:	0000009f 	muleq	r0, pc, r0	; <UNPREDICTABLE>
	...
     23c:	0001c800 	andeq	ip, r1, r0, lsl #16
     240:	0001dc00 	andeq	sp, r1, r0, lsl #24
     244:	51000100 	mrspl	r0, (UNDEF: 16)
     248:	000001dc 	ldrdeq	r0, [r0], -ip
     24c:	00000200 	andeq	r0, r0, r0, lsl #4
     250:	01f30004 	mvnseq	r0, r4
     254:	00009f51 	andeq	r9, r0, r1, asr pc
	...
     260:	01c80000 	biceq	r0, r8, r0
     264:	01e30000 	mvneq	r0, r0
     268:	00010000 	andeq	r0, r1, r0
     26c:	0001e352 	andeq	lr, r1, r2, asr r3
     270:	00020000 	andeq	r0, r2, r0
     274:	f3000400 	vshl.u8	d0, d0, d0
     278:	009f5201 	addseq	r5, pc, r1, lsl #4
	...
     284:	c8000000 	stmdagt	r0, {}	; <UNPREDICTABLE>
     288:	e3000001 	movw	r0, #1
     28c:	01000001 	tsteq	r0, r1
     290:	01e35300 	mvneq	r5, r0, lsl #6
     294:	02000000 	andeq	r0, r0, #0, 0
     298:	00040000 	andeq	r0, r4, r0
     29c:	9f5301f3 	svcls	0x005301f3
	...
     2a8:	01d80000 	bicseq	r0, r8, r0
     2ac:	01fc0000 	mvnseq	r0, r0
     2b0:	00010000 	andeq	r0, r1, r0
     2b4:	00000055 	andeq	r0, r0, r5, asr r0
	...
     2c0:	0001d800 	andeq	sp, r1, r0, lsl #16
     2c4:	0001e300 	andeq	lr, r1, r0, lsl #6
     2c8:	52000100 	andpl	r0, r0, #0
     2cc:	000001e3 	andeq	r0, r0, r3, ror #3
     2d0:	000001fc 	strdeq	r0, [r0], -ip
     2d4:	01f30004 	mvnseq	r0, r4
     2d8:	00009f52 	andeq	r9, r0, r2, asr pc
	...
     2e4:	000001d8 	ldrdeq	r0, [r0], -r8
     2e8:	000001fc 	strdeq	r0, [r0], -ip
     2ec:	00560001 	subseq	r0, r6, r1
	...
     2f8:	0001d800 	andeq	sp, r1, r0, lsl #16
     2fc:	0001fc00 	andeq	pc, r1, r0, lsl #24
     300:	54000100 	strpl	r0, [r0], #-256	; 0xffffff00
	...
     310:	00000184 	andeq	r0, r0, r4, lsl #3
     314:	0000019c 	muleq	r0, ip, r1
     318:	9c500001 	mrrcls	0, 0, r0, r0, cr1	; <UNPREDICTABLE>
     31c:	c8000001 	stmdagt	r0, {r0}
     320:	04000001 	streq	r0, [r0], #-1
     324:	5001f300 	andpl	pc, r1, r0, lsl #6
     328:	0000009f 	muleq	r0, pc, r0	; <UNPREDICTABLE>
	...
     334:	00018400 	andeq	r8, r1, r0, lsl #8
     338:	00019f00 	andeq	r9, r1, r0, lsl #30
     33c:	51000100 	mrspl	r0, (UNDEF: 16)
     340:	0000019f 	muleq	r0, pc, r1	; <UNPREDICTABLE>
     344:	000001c8 	andeq	r0, r0, r8, asr #3
     348:	00550001 	subseq	r0, r5, r1
	...
     354:	a4000000 	strge	r0, [r0], #-0
     358:	af000001 	svcge	0x00000001
     35c:	01000001 	tsteq	r0, r1
     360:	01af5000 			; <UNDEFINED> instruction: 0x01af5000
     364:	01c80000 	biceq	r0, r8, r0
     368:	00010000 	andeq	r0, r1, r0
     36c:	00000054 	andeq	r0, r0, r4, asr r0
     370:	00000000 	andeq	r0, r0, r0
     374:	98000000 	stmdals	r0, {}	; <UNPREDICTABLE>
     378:	c8000001 	stmdagt	r0, {r0}
     37c:	01000001 	tsteq	r0, r1
     380:	00005700 	andeq	r5, r0, r0, lsl #14
	...
     390:	00b40000 	adcseq	r0, r4, r0
     394:	00d00000 	sbcseq	r0, r0, r0
     398:	00010000 	andeq	r0, r1, r0
     39c:	0000d050 	andeq	sp, r0, r0, asr r0
     3a0:	00015c00 	andeq	r5, r1, r0, lsl #24
     3a4:	55000100 	strpl	r0, [r0, #-256]	; 0xffffff00
     3a8:	0000015c 	andeq	r0, r0, ip, asr r1
     3ac:	00000160 	andeq	r0, r0, r0, ror #2
     3b0:	60530001 	subsvs	r0, r3, r1
     3b4:	84000001 	strhi	r0, [r0], #-1
     3b8:	04000001 	streq	r0, [r0], #-1
     3bc:	5001f300 	andpl	pc, r1, r0, lsl #6
     3c0:	0000009f 	muleq	r0, pc, r0	; <UNPREDICTABLE>
     3c4:	00000000 	andeq	r0, r0, r0
     3c8:	00000200 	andeq	r0, r0, r0, lsl #4
     3cc:	0000bc00 	andeq	fp, r0, r0, lsl #24
     3d0:	0000d000 	andeq	sp, r0, r0
     3d4:	30000200 	andcc	r0, r0, r0, lsl #4
     3d8:	0000d09f 	muleq	r0, pc, r0	; <UNPREDICTABLE>
     3dc:	00011400 	andeq	r1, r1, r0, lsl #8
     3e0:	57000100 	strpl	r0, [r0, -r0, lsl #2]
	...
     3ec:	00dc0000 	sbcseq	r0, ip, r0
     3f0:	01000000 	mrseq	r0, (UNDEF: 0)
     3f4:	00010000 	andeq	r0, r1, r0
     3f8:	00000058 	andeq	r0, r0, r8, asr r0
     3fc:	00000000 	andeq	r0, r0, r0
     400:	dc000000 	stcle	0, cr0, [r0], {-0}
     404:	e7000000 	str	r0, [r0, -r0]
     408:	02000000 	andeq	r0, r0, #0, 0
     40c:	00097400 	andeq	r7, r9, r0, lsl #8
	...
     418:	0000dc00 	andeq	sp, r0, r0, lsl #24
     41c:	00010000 	andeq	r0, r1, r0
     420:	59000100 	stmdbpl	r0, {r8}
	...
     42c:	00dc0000 	sbcseq	r0, ip, r0
     430:	01000000 	mrseq	r0, (UNDEF: 0)
     434:	00010000 	andeq	r0, r1, r0
     438:	00000056 	andeq	r0, r0, r6, asr r0
     43c:	00000000 	andeq	r0, r0, r0
     440:	44000000 	strmi	r0, [r0], #-0
     444:	60000001 	andvs	r0, r0, r1
     448:	02000001 	andeq	r0, r0, #1, 0
     44c:	009f3000 	addseq	r3, pc, r0
     450:	00000000 	andeq	r0, r0, r0
     454:	02000000 	andeq	r0, r0, #0, 0
     458:	00000000 	andeq	r0, r0, r0
     45c:	00011400 	andeq	r1, r1, r0, lsl #8
     460:	00012000 	andeq	r2, r1, r0
     464:	75000800 	strvc	r0, [r0, #-2048]	; 0xfffff800
     468:	08019400 	stmdaeq	r1, {sl, ip, pc}
     46c:	209f1aff 			; <UNDEFINED> instruction: 0x209f1aff
     470:	2c000001 	stccs	0, cr0, [r0], {1}
     474:	01000001 	tsteq	r0, r1
     478:	012c5100 			; <UNDEFINED> instruction: 0x012c5100
     47c:	01300000 	teqeq	r0, r0
     480:	00080000 	andeq	r0, r8, r0
     484:	01940075 	orrseq	r0, r4, r5, ror r0
     488:	9f1aff08 	svcls	0x001aff08
	...
     494:	00000004 	andeq	r0, r0, r4
     498:	01140000 	tsteq	r4, r0
     49c:	01200000 			; <UNDEFINED> instruction: 0x01200000
     4a0:	00080000 	andeq	r0, r8, r0
     4a4:	01940075 	orrseq	r0, r4, r5, ror r0
     4a8:	9f1aff08 	svcls	0x001aff08
     4ac:	00000120 	andeq	r0, r0, r0, lsr #2
     4b0:	0000012c 	andeq	r0, r0, ip, lsr #2
     4b4:	2c510001 	mrrccs	0, 0, r0, r1, cr1
     4b8:	30000001 	andcc	r0, r0, r1
     4bc:	08000001 	stmdaeq	r0, {r0}
     4c0:	94007500 	strls	r7, [r0], #-1280	; 0xfffffb00
     4c4:	1aff0801 	bne	fffc24d0 <__bss_end__+0xfffb8840>
     4c8:	0000009f 	muleq	r0, pc, r0	; <UNPREDICTABLE>
     4cc:	00000000 	andeq	r0, r0, r0
     4d0:	14000600 	strne	r0, [r0], #-1536	; 0xfffffa00
     4d4:	44000001 	strmi	r0, [r0], #-1
     4d8:	04000001 	streq	r0, [r0], #-1
     4dc:	a4100a00 	ldrge	r0, [r0], #-2560	; 0xfffff600
     4e0:	0000009f 	muleq	r0, pc, r0	; <UNPREDICTABLE>
     4e4:	00000000 	andeq	r0, r0, r0
     4e8:	00000600 	andeq	r0, r0, r0, lsl #12
     4ec:	14000000 	strne	r0, [r0], #-0
     4f0:	20000001 	andcs	r0, r0, r1
     4f4:	08000001 	stmdaeq	r0, {r0}
     4f8:	94007500 	strls	r7, [r0], #-1280	; 0xfffffb00
     4fc:	1aff0801 	bne	fffc2508 <__bss_end__+0xfffb8878>
     500:	0001209f 	muleq	r1, pc, r0	; <UNPREDICTABLE>
     504:	00012c00 	andeq	r2, r1, r0, lsl #24
     508:	51000100 	mrspl	r0, (UNDEF: 16)
     50c:	0000012c 	andeq	r0, r0, ip, lsr #2
     510:	00000130 	andeq	r0, r0, r0, lsr r1
     514:	00750008 	rsbseq	r0, r5, r8
     518:	ff080194 			; <UNDEFINED> instruction: 0xff080194
     51c:	00009f1a 	andeq	r9, r0, sl, lsl pc
	...
     528:	0000011c 	andeq	r0, r0, ip, lsl r1
     52c:	00000144 	andeq	r0, r0, r4, asr #2
     530:	00520001 	subseq	r0, r2, r1
	...
     53c:	18000000 	stmdane	r0, {}	; <UNPREDICTABLE>
     540:	1c000001 	stcne	0, cr0, [r0], {1}
     544:	01000001 	tsteq	r0, r1
     548:	011c5200 	tsteq	ip, r0, lsl #4
     54c:	01440000 	mrseq	r0, (UNDEF: 68)
     550:	00030000 	andeq	r0, r3, r0
     554:	009f1072 	addseq	r1, pc, r2, ror r0	; <UNPREDICTABLE>
     558:	00000000 	andeq	r0, r0, r0
     55c:	01000000 	mrseq	r0, (UNDEF: 0)
     560:	00000000 	andeq	r0, r0, r0
     564:	00011c00 	andeq	r1, r1, r0, lsl #24
     568:	00012000 	andeq	r2, r1, r0
     56c:	75000800 	strvc	r0, [r0, #-2048]	; 0xfffff800
     570:	08019400 	stmdaeq	r1, {sl, ip, pc}
     574:	209f1aff 			; <UNDEFINED> instruction: 0x209f1aff
     578:	2c000001 	stccs	0, cr0, [r0], {1}
     57c:	01000001 	tsteq	r0, r1
     580:	012c5100 			; <UNDEFINED> instruction: 0x012c5100
     584:	01300000 	teqeq	r0, r0
     588:	00080000 	andeq	r0, r8, r0
     58c:	01940075 	orrseq	r0, r4, r5, ror r0
     590:	9f1aff08 	svcls	0x001aff08
	...
     59c:	01380001 	teqeq	r8, r1
     5a0:	013c0000 	teqeq	ip, r0
     5a4:	00010000 	andeq	r0, r1, r0
     5a8:	00000053 	andeq	r0, r0, r3, asr r0
     5ac:	00000000 	andeq	r0, r0, r0
     5b0:	38000000 	stmdacc	r0, {}	; <UNPREDICTABLE>
     5b4:	3c000001 	stccc	0, cr0, [r0], {1}
     5b8:	01000001 	tsteq	r0, r1
     5bc:	00005300 	andeq	r5, r0, r0, lsl #6
	...
     5cc:	000c0000 	andeq	r0, ip, r0
     5d0:	00010000 	andeq	r0, r1, r0
     5d4:	00000c50 	andeq	r0, r0, r0, asr ip
     5d8:	0000b400 	andeq	fp, r0, r0, lsl #8
     5dc:	f3000400 	vshl.u8	d0, d0, d0
     5e0:	009f5001 	addseq	r5, pc, r1
     5e4:	00000000 	andeq	r0, r0, r0
     5e8:	02000000 	andeq	r0, r0, #0, 0
     5ec:	02020000 	andeq	r0, r2, #0, 0
     5f0:	04000000 	streq	r0, [r0], #-0
     5f4:	1c000000 	stcne	0, cr0, [r0], {-0}
     5f8:	02000000 	andeq	r0, r0, #0, 0
     5fc:	1c9f3000 	ldcne	0, cr3, [pc], {0}
     600:	48000000 	stmdami	r0, {}	; <UNPREDICTABLE>
     604:	05000000 	streq	r0, [r0, #-0]
     608:	00723700 	rsbseq	r3, r2, r0, lsl #14
     60c:	00489f1c 	subeq	r9, r8, ip, lsl pc
     610:	004c0000 	subeq	r0, ip, r0
     614:	00050000 	andeq	r0, r5, r0
     618:	1c007238 	sfmne	f7, 4, [r0], {56}	; 0x38
     61c:	00004c9f 	muleq	r0, pc, ip	; <UNPREDICTABLE>
     620:	0000b400 	andeq	fp, r0, r0, lsl #8
     624:	37000500 	strcc	r0, [r0, -r0, lsl #10]
     628:	9f1c0072 	svcls	0x001c0072
	...
     638:	001c0001 	andseq	r0, ip, r1
     63c:	004c0000 	subeq	r0, ip, r0
     640:	00010000 	andeq	r0, r1, r0
     644:	00004c52 	andeq	r4, r0, r2, asr ip
     648:	00005400 	andeq	r5, r0, r0, lsl #8
     64c:	72000300 	andvc	r0, r0, #0, 6
     650:	00549f01 	subseq	r9, r4, r1, lsl #30
     654:	00b40000 	adcseq	r0, r4, r0
     658:	00010000 	andeq	r0, r1, r0
     65c:	00000052 	andeq	r0, r0, r2, asr r0
     660:	00000000 	andeq	r0, r0, r0
     664:	02000000 	andeq	r0, r0, #0, 0
     668:	00001c00 	andeq	r1, r0, r0, lsl #24
     66c:	00004800 	andeq	r4, r0, r0, lsl #16
     670:	71000b00 	tstvc	r0, r0, lsl #22
     674:	1aff0800 	bne	fffc267c <__bss_end__+0xfffb89ec>
     678:	31260072 			; <UNDEFINED> instruction: 0x31260072
     67c:	00549f1a 	subseq	r9, r4, sl, lsl pc
     680:	00b40000 	adcseq	r0, r4, r0
     684:	000b0000 	andeq	r0, fp, r0
     688:	ff080071 			; <UNDEFINED> instruction: 0xff080071
     68c:	2600721a 			; <UNDEFINED> instruction: 0x2600721a
     690:	009f1a31 	addseq	r1, pc, r1, lsr sl	; <UNPREDICTABLE>
	...
     69c:	1c000200 	sfmne	f0, 4, [r0], {-0}
     6a0:	48000000 	stmdami	r0, {}	; <UNPREDICTABLE>
     6a4:	04000000 	streq	r0, [r0], #-0
     6a8:	5001f300 	andpl	pc, r1, r0, lsl #6
     6ac:	0000549f 	muleq	r0, pc, r4	; <UNPREDICTABLE>
     6b0:	0000b400 	andeq	fp, r0, r0, lsl #8
     6b4:	f3000400 	vshl.u8	d0, d0, d0
     6b8:	009f5001 	addseq	r5, pc, r1
     6bc:	00000000 	andeq	r0, r0, r0
     6c0:	02000000 	andeq	r0, r0, #0, 0
     6c4:	00007000 	andeq	r7, r0, r0
     6c8:	00008c00 	andeq	r8, r0, r0, lsl #24
     6cc:	f3000400 	vshl.u8	d0, d0, d0
     6d0:	009f5001 	addseq	r5, pc, r1
     6d4:	00000000 	andeq	r0, r0, r0
     6d8:	04000000 	streq	r0, [r0], #-0
     6dc:	00007000 	andeq	r7, r0, r0
     6e0:	00008c00 	andeq	r8, r0, r0, lsl #24
     6e4:	0a000400 	beq	16ec <__code_start__-0x6914>
     6e8:	009f0266 	addseq	r0, pc, r6, ror #4
     6ec:	00000000 	andeq	r0, r0, r0
     6f0:	04000000 	streq	r0, [r0], #-0
     6f4:	00007000 	andeq	r7, r0, r0
     6f8:	00008c00 	andeq	r8, r0, r0, lsl #24
     6fc:	f3000400 	vshl.u8	d0, d0, d0
     700:	009f5001 	addseq	r5, pc, r1
	...
     70c:	00007800 	andeq	r7, r0, r0, lsl #16
     710:	00008c00 	andeq	r8, r0, r0, lsl #24
     714:	5c000100 	stfpls	f0, [r0], {-0}
	...
     720:	00780001 	rsbseq	r0, r8, r1
     724:	007c0000 	rsbseq	r0, ip, r0
     728:	00040000 	andeq	r0, r4, r0
     72c:	9f5001f3 	svcls	0x005001f3
	...
     738:	00800001 	addeq	r0, r0, r1
     73c:	00840000 	addeq	r0, r4, r0
     740:	00010000 	andeq	r0, r1, r0
     744:	00000053 	andeq	r0, r0, r3, asr r0
     748:	00000000 	andeq	r0, r0, r0
     74c:	80000000 	andhi	r0, r0, r0
     750:	84000000 	strhi	r0, [r0], #-0
     754:	01000000 	mrseq	r0, (UNDEF: 0)
     758:	00005300 	andeq	r5, r0, r0, lsl #6
	...
     764:	00740000 	rsbseq	r0, r4, r0
     768:	00780000 	rsbseq	r0, r8, r0
     76c:	00010000 	andeq	r0, r1, r0
     770:	0000785c 	andeq	r7, r0, ip, asr r8
     774:	00008c00 	andeq	r8, r0, r0, lsl #24
     778:	7c000300 	stcvc	3, cr0, [r0], {-0}
     77c:	00009f10 	andeq	r9, r0, r0, lsl pc
	...
     788:	001c0001 	andseq	r0, ip, r1
     78c:	002c0000 	eoreq	r0, ip, r0
     790:	00040000 	andeq	r0, r4, r0
     794:	9f5001f3 	svcls	0x005001f3
     798:	00000060 	andeq	r0, r0, r0, rrx
     79c:	00000070 	andeq	r0, r0, r0, ror r0
     7a0:	01f30004 	mvnseq	r0, r4
     7a4:	00009f50 	andeq	r9, r0, r0, asr pc
	...
     7b0:	001c0003 	andseq	r0, ip, r3
     7b4:	002c0000 	eoreq	r0, ip, r0
     7b8:	00030000 	andeq	r0, r3, r0
     7bc:	609fe508 	addsvs	lr, pc, r8, lsl #10
     7c0:	70000000 	andvc	r0, r0, r0
     7c4:	03000000 	movweq	r0, #0
     7c8:	9fe50800 	svcls	0x00e50800
	...
     7d4:	00030000 	andeq	r0, r3, r0
     7d8:	0000001c 	andeq	r0, r0, ip, lsl r0
     7dc:	0000002c 	andeq	r0, r0, ip, lsr #32
     7e0:	01f30004 	mvnseq	r0, r4
     7e4:	00609f50 	rsbeq	r9, r0, r0, asr pc
     7e8:	00700000 	rsbseq	r0, r0, r0
     7ec:	00040000 	andeq	r0, r4, r0
     7f0:	9f5001f3 	svcls	0x005001f3
	...
     800:	0000001c 	andeq	r0, r0, ip, lsl r0
     804:	0000002c 	andeq	r0, r0, ip, lsr #32
     808:	685c0001 	ldmdavs	ip, {r0}^
     80c:	70000000 	andvc	r0, r0, r0
     810:	01000000 	mrseq	r0, (UNDEF: 0)
     814:	00005c00 	andeq	r5, r0, r0, lsl #24
     818:	00000000 	andeq	r0, r0, r0
     81c:	00010000 	andeq	r0, r1, r0
     820:	00000020 	andeq	r0, r0, r0, lsr #32
     824:	00000024 	andeq	r0, r0, r4, lsr #32
     828:	00530001 	subseq	r0, r3, r1
	...
     834:	00002000 	andeq	r2, r0, r0
     838:	00002400 	andeq	r2, r0, r0, lsl #8
     83c:	53000100 	movwpl	r0, #256	; 0x100
	...
     84c:	001c0000 	andseq	r0, ip, r0
     850:	002c0000 	eoreq	r0, ip, r0
     854:	00030000 	andeq	r0, r3, r0
     858:	649f107c 	ldrvs	r1, [pc], #124	; 860 <__code_start__-0x77a0>
     85c:	68000000 	stmdavs	r0, {}	; <UNPREDICTABLE>
     860:	01000000 	mrseq	r0, (UNDEF: 0)
     864:	00685c00 	rsbeq	r5, r8, r0, lsl #24
     868:	00700000 	rsbseq	r0, r0, r0
     86c:	00030000 	andeq	r0, r3, r0
     870:	009f107c 	addseq	r1, pc, ip, ror r0	; <UNPREDICTABLE>
     874:	00000000 	andeq	r0, r0, r0
     878:	01000000 	mrseq	r0, (UNDEF: 0)
     87c:	00006800 	andeq	r6, r0, r0, lsl #16
     880:	00007000 	andeq	r7, r0, r0
     884:	f3000400 	vshl.u8	d0, d0, d0
     888:	009f5001 	addseq	r5, pc, r1
     88c:	00000000 	andeq	r0, r0, r0
     890:	02000000 	andeq	r0, r0, #0, 0
     894:	00002c00 	andeq	r2, r0, r0, lsl #24
     898:	00004800 	andeq	r4, r0, r0, lsl #16
     89c:	f3000400 	vshl.u8	d0, d0, d0
     8a0:	009f5001 	addseq	r5, pc, r1
     8a4:	00000000 	andeq	r0, r0, r0
     8a8:	04000000 	streq	r0, [r0], #-0
     8ac:	00002c00 	andeq	r2, r0, r0, lsl #24
     8b0:	00004800 	andeq	r4, r0, r0, lsl #16
     8b4:	0a000400 	beq	18bc <__code_start__-0x6744>
     8b8:	009f0266 	addseq	r0, pc, r6, ror #4
     8bc:	00000000 	andeq	r0, r0, r0
     8c0:	04000000 	streq	r0, [r0], #-0
     8c4:	00002c00 	andeq	r2, r0, r0, lsl #24
     8c8:	00004800 	andeq	r4, r0, r0, lsl #16
     8cc:	f3000400 	vshl.u8	d0, d0, d0
     8d0:	009f5001 	addseq	r5, pc, r1
	...
     8dc:	00003400 	andeq	r3, r0, r0, lsl #8
     8e0:	00004800 	andeq	r4, r0, r0, lsl #16
     8e4:	5c000100 	stfpls	f0, [r0], {-0}
	...
     8f4:	00000030 	andeq	r0, r0, r0, lsr r0
     8f8:	00000034 	andeq	r0, r0, r4, lsr r0
     8fc:	345c0001 	ldrbcc	r0, [ip], #-1
     900:	48000000 	stmdami	r0, {}	; <UNPREDICTABLE>
     904:	03000000 	movweq	r0, #0
     908:	9f107c00 	svcls	0x00107c00
	...
     914:	00340001 	eorseq	r0, r4, r1
     918:	00380000 	eorseq	r0, r8, r0
     91c:	00040000 	andeq	r0, r4, r0
     920:	9f5001f3 	svcls	0x005001f3
	...
     92c:	003c0001 	eorseq	r0, ip, r1
     930:	00400000 	subeq	r0, r0, r0
     934:	00010000 	andeq	r0, r1, r0
     938:	00000053 	andeq	r0, r0, r3, asr r0
     93c:	00000000 	andeq	r0, r0, r0
     940:	3c000000 	stccc	0, cr0, [r0], {-0}
     944:	40000000 	andmi	r0, r0, r0
     948:	01000000 	mrseq	r0, (UNDEF: 0)
     94c:	00005300 	andeq	r5, r0, r0, lsl #6
     950:	00000000 	andeq	r0, r0, r0
     954:	00020000 	andeq	r0, r2, r0
     958:	0000008c 	andeq	r0, r0, ip, lsl #1
     95c:	000000b4 	strheq	r0, [r0], -r4
     960:	01f30004 	mvnseq	r0, r4
     964:	00009f50 	andeq	r9, r0, r0, asr pc
     968:	00000000 	andeq	r0, r0, r0
     96c:	00040000 	andeq	r0, r4, r0
     970:	0000008c 	andeq	r0, r0, ip, lsl #1
     974:	000000b4 	strheq	r0, [r0], -r4
     978:	01f30004 	mvnseq	r0, r4
     97c:	00009f50 	andeq	r9, r0, r0, asr pc
	...
     988:	00000094 	muleq	r0, r4, r0
     98c:	000000b4 	strheq	r0, [r0], -r4
     990:	005c0001 	subseq	r0, ip, r1
	...
     99c:	90000000 	andls	r0, r0, r0
     9a0:	94000000 	strls	r0, [r0], #-0
     9a4:	01000000 	mrseq	r0, (UNDEF: 0)
     9a8:	00945c00 	addseq	r5, r4, r0, lsl #24
     9ac:	00b40000 	adcseq	r0, r4, r0
     9b0:	00030000 	andeq	r0, r3, r0
     9b4:	009f107c 	addseq	r1, pc, ip, ror r0	; <UNPREDICTABLE>
     9b8:	00000000 	andeq	r0, r0, r0
     9bc:	01000000 	mrseq	r0, (UNDEF: 0)
     9c0:	00009400 	andeq	r9, r0, r0, lsl #8
     9c4:	00009800 	andeq	r9, r0, r0, lsl #16
     9c8:	f3000400 	vshl.u8	d0, d0, d0
     9cc:	009f5001 	addseq	r5, pc, r1
     9d0:	00000000 	andeq	r0, r0, r0
     9d4:	01000000 	mrseq	r0, (UNDEF: 0)
     9d8:	00009c00 	andeq	r9, r0, r0, lsl #24
     9dc:	0000a000 	andeq	sl, r0, r0
     9e0:	53000100 	movwpl	r0, #256	; 0x100
	...
     9ec:	009c0000 	addseq	r0, ip, r0
     9f0:	00a00000 	adceq	r0, r0, r0
     9f4:	00010000 	andeq	r0, r1, r0
     9f8:	00000053 	andeq	r0, r0, r3, asr r0
	...
     a08:	00000400 	andeq	r0, r0, r0, lsl #8
     a0c:	52000100 	andpl	r0, r0, #0
     a10:	00000004 	andeq	r0, r0, r4
     a14:	00000018 	andeq	r0, r0, r8, lsl r0
     a18:	01f30004 	mvnseq	r0, r4
     a1c:	00009f52 	andeq	r9, r0, r2, asr pc
     a20:	00000000 	andeq	r0, r0, r0
     a24:	00020000 	andeq	r0, r2, r0
     a28:	00010100 	andeq	r0, r1, r0, lsl #2
     a2c:	00000000 	andeq	r0, r0, r0
     a30:	00080000 	andeq	r0, r8, r0
     a34:	00010000 	andeq	r0, r1, r0
     a38:	00000850 	andeq	r0, r0, r0, asr r8
     a3c:	00001000 	andeq	r1, r0, r0
     a40:	53000100 	movwpl	r0, #256	; 0x100
     a44:	00000010 	andeq	r0, r0, r0, lsl r0
     a48:	00000014 	andeq	r0, r0, r4, lsl r0
     a4c:	01730003 	cmneq	r3, r3
     a50:	0000149f 	muleq	r0, pc, r4	; <UNPREDICTABLE>
     a54:	00001800 	andeq	r1, r0, r0, lsl #16
     a58:	53000100 	movwpl	r0, #256	; 0x100
	...
     a64:	00040000 	andeq	r0, r4, r0
     a68:	00180000 	andseq	r0, r8, r0
     a6c:	00010000 	andeq	r0, r1, r0
     a70:	00000052 	andeq	r0, r0, r2, asr r0
	...
     a7c:	2c000000 	stccs	0, cr0, [r0], {-0}
     a80:	38000000 	stmdacc	r0, {}	; <UNPREDICTABLE>
     a84:	01000000 	mrseq	r0, (UNDEF: 0)
     a88:	00385000 	eorseq	r5, r8, r0
     a8c:	00480000 	subeq	r0, r8, r0
     a90:	00010000 	andeq	r0, r1, r0
     a94:	00004854 	andeq	r4, r0, r4, asr r8
     a98:	00005800 	andeq	r5, r0, r0, lsl #16
     a9c:	50000100 	andpl	r0, r0, r0, lsl #2
	...
     aa8:	00010100 	andeq	r0, r1, r0, lsl #2
     aac:	00000000 	andeq	r0, r0, r0
     ab0:	00000008 	andeq	r0, r0, r8
     ab4:	08500001 	ldmdaeq	r0, {r0}^
     ab8:	34000000 	strcc	r0, [r0], #-0
     abc:	01000000 	mrseq	r0, (UNDEF: 0)
     ac0:	00005400 	andeq	r5, r0, r0, lsl #8
	...
     ad0:	00000288 	andeq	r0, r0, r8, lsl #5
     ad4:	000002b8 			; <UNDEFINED> instruction: 0x000002b8
     ad8:	b8500001 	ldmdalt	r0, {r0}^
     adc:	04000002 	streq	r0, [r0], #-2
     ae0:	01000007 	tsteq	r0, r7
     ae4:	07045900 	streq	r5, [r4, -r0, lsl #18]
     ae8:	07400000 	strbeq	r0, [r0, -r0]
     aec:	00040000 	andeq	r0, r4, r0
     af0:	9f5001f3 	svcls	0x005001f3
	...
     b00:	02880000 	addeq	r0, r8, #0, 0
     b04:	02a00000 	adceq	r0, r0, #0, 0
     b08:	00010000 	andeq	r0, r1, r0
     b0c:	0002a051 	andeq	sl, r2, r1, asr r0
     b10:	0002b800 	andeq	fp, r2, r0, lsl #16
     b14:	71000300 	mrsvc	r0, LR_irq
     b18:	02b89f01 	adcseq	r9, r8, #1, 30
     b1c:	07400000 	strbeq	r0, [r0, -r0]
     b20:	00040000 	andeq	r0, r4, r0
     b24:	9f5101f3 	svcls	0x005101f3
	...
     b3c:	00000288 	andeq	r0, r0, r8, lsl #5
     b40:	000002b8 			; <UNDEFINED> instruction: 0x000002b8
     b44:	b8520001 	ldmdalt	r2, {r0}^
     b48:	ec000002 	stc	0, cr0, [r0], {2}
     b4c:	01000003 	tsteq	r0, r3
     b50:	03ec5600 	mvneq	r5, #0, 12
     b54:	04b80000 	ldrteq	r0, [r8], #0
     b58:	00010000 	andeq	r0, r1, r0
     b5c:	0004b85b 	andeq	fp, r4, fp, asr r8
     b60:	0004d800 	andeq	sp, r4, r0, lsl #16
     b64:	56000100 	strpl	r0, [r0], -r0, lsl #2
     b68:	000004d8 	ldrdeq	r0, [r0], -r8
     b6c:	0000055c 	andeq	r0, r0, ip, asr r5
     b70:	5c5b0001 	mrrcpl	0, 0, r0, fp, cr1
     b74:	04000005 	streq	r0, [r0], #-5
     b78:	01000007 	tsteq	r0, r7
     b7c:	00005600 	andeq	r5, r0, r0, lsl #12
     b80:	00000000 	andeq	r0, r0, r0
     b84:	00010000 	andeq	r0, r1, r0
     b88:	00000000 	andeq	r0, r0, r0
     b8c:	00010100 	andeq	r0, r1, r0, lsl #2
     b90:	00000000 	andeq	r0, r0, r0
     b94:	00020200 	andeq	r0, r2, r0, lsl #4
     b98:	029c0000 	addseq	r0, ip, #0, 0
     b9c:	02b80000 	adcseq	r0, r8, #0, 0
     ba0:	00010000 	andeq	r0, r1, r0
     ba4:	0002b850 	andeq	fp, r2, r0, asr r8
     ba8:	0002bc00 	andeq	fp, r2, r0, lsl #24
     bac:	54000100 	strpl	r0, [r0], #-256	; 0xffffff00
     bb0:	000002bc 			; <UNDEFINED> instruction: 0x000002bc
     bb4:	000002c0 	andeq	r0, r0, r0, asr #5
     bb8:	01740003 	cmneq	r4, r3
     bbc:	0002c09f 	muleq	r2, pc, r0	; <UNPREDICTABLE>
     bc0:	0002e400 	andeq	lr, r2, r0, lsl #8
     bc4:	54000100 	strpl	r0, [r0], #-256	; 0xffffff00
     bc8:	000002e4 	andeq	r0, r0, r4, ror #5
     bcc:	000002e8 	andeq	r0, r0, r8, ror #5
     bd0:	01740003 	cmneq	r4, r3
     bd4:	0002e89f 	muleq	r2, pc, r8	; <UNPREDICTABLE>
     bd8:	0006d400 	andeq	sp, r6, r0, lsl #8
     bdc:	54000100 	strpl	r0, [r0], #-256	; 0xffffff00
     be0:	000006d4 	ldrdeq	r0, [r0], -r4
     be4:	000006d8 	ldrdeq	r0, [r0], -r8
     be8:	01740003 	cmneq	r4, r3
     bec:	0006d89f 	muleq	r6, pc, r8	; <UNPREDICTABLE>
     bf0:	0006f000 	andeq	pc, r6, r0
     bf4:	54000100 	strpl	r0, [r0], #-256	; 0xffffff00
     bf8:	000006f0 	strdeq	r0, [r0], -r0	; <UNPREDICTABLE>
     bfc:	000006f8 	strdeq	r0, [r0], -r8
     c00:	01740003 	cmneq	r4, r3
     c04:	0006f89f 	muleq	r6, pc, r8	; <UNPREDICTABLE>
     c08:	00070400 	andeq	r0, r7, r0, lsl #8
     c0c:	54000100 	strpl	r0, [r0], #-256	; 0xffffff00
	...
     c1c:	000002a4 	andeq	r0, r0, r4, lsr #5
     c20:	00000704 	andeq	r0, r0, r4, lsl #14
     c24:	04580001 	ldrbeq	r0, [r8], #-1
     c28:	40000007 	andmi	r0, r0, r7
     c2c:	0a000007 	beq	c50 <__code_start__-0x73b0>
     c30:	5101f300 	mrspl	pc, SP_irq	; <UNPREDICTABLE>
     c34:	225001f3 	subscs	r0, r0, #-1073741764	; 0xc000003c
     c38:	009f1c31 	addseq	r1, pc, r1, lsr ip	; <UNPREDICTABLE>
     c3c:	00000000 	andeq	r0, r0, r0
     c40:	01000000 	mrseq	r0, (UNDEF: 0)
     c44:	00000000 	andeq	r0, r0, r0
     c48:	00040800 	andeq	r0, r4, r0, lsl #16
     c4c:	00047400 	andeq	r7, r4, r0, lsl #8
     c50:	57000100 	strpl	r0, [r0, -r0, lsl #2]
     c54:	000004d8 	ldrdeq	r0, [r0], -r8
     c58:	000004fc 	strdeq	r0, [r0], -ip
     c5c:	40570001 	subsmi	r0, r7, r1
     c60:	5c000005 	stcpl	0, cr0, [r0], {5}
     c64:	01000005 	tsteq	r0, r5
     c68:	00005700 	andeq	r5, r0, r0, lsl #14
     c6c:	00000000 	andeq	r0, r0, r0
     c70:	00020000 	andeq	r0, r2, r0
     c74:	04080000 	streq	r0, [r8], #-0
     c78:	04b80000 	ldrteq	r0, [r8], #0
     c7c:	00010000 	andeq	r0, r1, r0
     c80:	0004d85a 	andeq	sp, r4, sl, asr r8
     c84:	00055c00 	andeq	r5, r5, r0, lsl #24
     c88:	5a000100 	bpl	1090 <__code_start__-0x6f70>
	...
     c94:	00000001 	andeq	r0, r0, r1
     c98:	000002ac 	andeq	r0, r0, ip, lsr #5
     c9c:	000002b8 			; <UNDEFINED> instruction: 0x000002b8
     ca0:	b8520001 	ldmdalt	r2, {r0}^
     ca4:	40000002 	andmi	r0, r0, r2
     ca8:	03000007 	movweq	r0, #7
     cac:	7dc89100 	stfvcp	f1, [r8]
	...
     cc0:	00010100 	andeq	r0, r1, r0, lsl #2
	...
     ccc:	04740000 	ldrbteq	r0, [r4], #-0
     cd0:	048c0000 	streq	r0, [ip], #0
     cd4:	00010000 	andeq	r0, r1, r0
     cd8:	00048c50 	andeq	r8, r4, r0, asr ip
     cdc:	0004b800 	andeq	fp, r4, r0, lsl #16
     ce0:	57000100 	strpl	r0, [r0, -r0, lsl #2]
     ce4:	000004fc 	strdeq	r0, [r0], -ip
     ce8:	00000514 	andeq	r0, r0, r4, lsl r5
     cec:	14500001 	ldrbne	r0, [r0], #-1
     cf0:	40000005 	andmi	r0, r0, r5
     cf4:	01000005 	tsteq	r0, r5
     cf8:	05a45700 	streq	r5, [r4, #1792]!	; 0x700
     cfc:	05a40000 	streq	r0, [r4, #0]!
     d00:	00010000 	andeq	r0, r1, r0
     d04:	0005a450 	andeq	sl, r5, r0, asr r4
     d08:	0005ac00 	andeq	sl, r5, r0, lsl #24
     d0c:	57000100 	strpl	r0, [r0, -r0, lsl #2]
     d10:	000005dc 	ldrdeq	r0, [r0], -ip
     d14:	000005e0 	andeq	r0, r0, r0, ror #11
     d18:	10500001 	subsne	r0, r0, r1
     d1c:	14000006 	strne	r0, [r0], #-6
     d20:	01000006 	tsteq	r0, r6
     d24:	06445000 	strbeq	r5, [r4], -r0
     d28:	06480000 	strbeq	r0, [r8], -r0
     d2c:	00010000 	andeq	r0, r1, r0
     d30:	00068c50 	andeq	r8, r6, r0, asr ip
     d34:	00069000 	andeq	r9, r6, r0
     d38:	50000100 	andpl	r0, r0, r0, lsl #2
     d3c:	000006d0 	ldrdeq	r0, [r0], -r0	; <UNPREDICTABLE>
     d40:	000006f0 	strdeq	r0, [r0], -r0	; <UNPREDICTABLE>
     d44:	00570001 	subseq	r0, r7, r1
     d48:	00000000 	andeq	r0, r0, r0
     d4c:	02000000 	andeq	r0, r0, #0, 0
     d50:	00000000 	andeq	r0, r0, r0
     d54:	0002f400 	andeq	pc, r2, r0, lsl #8
     d58:	0002f800 	andeq	pc, r2, r0, lsl #16
     d5c:	30000200 	andcc	r0, r0, r0, lsl #4
     d60:	0002f89f 	muleq	r2, pc, r8	; <UNPREDICTABLE>
     d64:	00031400 	andeq	r1, r3, r0, lsl #8
     d68:	55000100 	strpl	r0, [r0, #-256]	; 0xffffff00
     d6c:	0000031c 	andeq	r0, r0, ip, lsl r3
     d70:	000006f0 	strdeq	r0, [r0], -r0	; <UNPREDICTABLE>
     d74:	00550001 	subseq	r0, r5, r1
     d78:	00000000 	andeq	r0, r0, r0
     d7c:	01000000 	mrseq	r0, (UNDEF: 0)
	...
     d88:	0003b800 	andeq	fp, r3, r0, lsl #16
     d8c:	00045400 	andeq	r5, r4, r0, lsl #8
     d90:	56000100 	strpl	r0, [r0], -r0, lsl #2
     d94:	00000454 	andeq	r0, r0, r4, asr r4
     d98:	000004b8 			; <UNDEFINED> instruction: 0x000004b8
     d9c:	7e7b0003 	cdpvc	0, 7, cr0, cr11, cr3, {0}
     da0:	0004b89f 	muleq	r4, pc, r8	; <UNPREDICTABLE>
     da4:	0004dc00 	andeq	sp, r4, r0, lsl #24
     da8:	56000100 	strpl	r0, [r0], -r0, lsl #2
     dac:	000004dc 	ldrdeq	r0, [r0], -ip
     db0:	00000540 	andeq	r0, r0, r0, asr #10
     db4:	7e7b0003 	cdpvc	0, 7, cr0, cr11, cr3, {0}
     db8:	0005409f 	muleq	r5, pc, r0	; <UNPREDICTABLE>
     dbc:	00055c00 	andeq	r5, r5, r0, lsl #24
     dc0:	56000100 	strpl	r0, [r0], -r0, lsl #2
	...
     dd0:	00700000 	rsbseq	r0, r0, r0
     dd4:	00940000 	addseq	r0, r4, r0
     dd8:	00010000 	andeq	r0, r1, r0
     ddc:	00009450 	andeq	r9, r0, r0, asr r4
     de0:	0000fc00 	andeq	pc, r0, r0, lsl #24
     de4:	70000300 	andvc	r0, r0, r0, lsl #6
     de8:	00fc9f02 	rscseq	r9, ip, r2, lsl #30
     dec:	02240000 	eoreq	r0, r4, #0, 0
     df0:	00040000 	andeq	r0, r4, r0
     df4:	9f5001f3 	svcls	0x005001f3
	...
     e10:	00000070 	andeq	r0, r0, r0, ror r0
     e14:	000000e0 	andeq	r0, r0, r0, ror #1
     e18:	e0510001 	subs	r0, r1, r1
     e1c:	54000000 	strpl	r0, [r0], #-0
     e20:	01000001 	tsteq	r0, r1
     e24:	01545500 	cmpeq	r4, r0, lsl #10
     e28:	01580000 	cmpeq	r8, r0
     e2c:	00010000 	andeq	r0, r1, r0
     e30:	00015851 	andeq	r5, r1, r1, asr r8
     e34:	0001b000 	andeq	fp, r1, r0
     e38:	55000100 	strpl	r0, [r0, #-256]	; 0xffffff00
     e3c:	000001b0 			; <UNDEFINED> instruction: 0x000001b0
     e40:	000001c0 	andeq	r0, r0, r0, asr #3
     e44:	c0510001 	subsgt	r0, r1, r1
     e48:	e4000001 	str	r0, [r0], #-1
     e4c:	01000001 	tsteq	r0, r1
     e50:	01e45500 	mvneq	r5, r0, lsl #10
     e54:	01f80000 	mvnseq	r0, r0
     e58:	00010000 	andeq	r0, r1, r0
     e5c:	0001f851 	andeq	pc, r1, r1, asr r8	; <UNPREDICTABLE>
     e60:	00022400 	andeq	r2, r2, r0, lsl #8
     e64:	55000100 	strpl	r0, [r0, #-256]	; 0xffffff00
	...
     e74:	00000070 	andeq	r0, r0, r0, ror r0
     e78:	00000084 	andeq	r0, r0, r4, lsl #1
     e7c:	84520001 	ldrbhi	r0, [r2], #-1
     e80:	24000000 	strcs	r0, [r0], #-0
     e84:	01000002 	tsteq	r0, r2
     e88:	00005400 	andeq	r5, r0, r0, lsl #8
	...
     e94:	01000000 	mrseq	r0, (UNDEF: 0)
     e98:	00000000 	andeq	r0, r0, r0
     e9c:	00700000 	rsbseq	r0, r0, r0
     ea0:	00f40000 	rscseq	r0, r4, r0
     ea4:	00010000 	andeq	r0, r1, r0
     ea8:	00014c53 	andeq	r4, r1, r3, asr ip
     eac:	00018000 	andeq	r8, r1, r0
     eb0:	53000100 	movwpl	r0, #256	; 0x100
     eb4:	00000180 	andeq	r0, r0, r0, lsl #3
     eb8:	0000018c 	andeq	r0, r0, ip, lsl #3
     ebc:	01f30004 	mvnseq	r0, r4
     ec0:	01b09f53 	asrseq	r9, r3, pc
     ec4:	01e80000 	mvneq	r0, r0
     ec8:	00010000 	andeq	r0, r1, r0
     ecc:	0001e853 	andeq	lr, r1, r3, asr r8
     ed0:	0001ff00 	andeq	pc, r1, r0, lsl #30
     ed4:	5c000100 	stfpls	f0, [r0], {-0}
     ed8:	000001ff 	strdeq	r0, [r0], -pc	; <UNPREDICTABLE>
     edc:	00000224 	andeq	r0, r0, r4, lsr #4
     ee0:	01f30004 	mvnseq	r0, r4
     ee4:	00009f53 	andeq	r9, r0, r3, asr pc
	...
     ef4:	00000070 	andeq	r0, r0, r0, ror r0
     ef8:	0000008c 	andeq	r0, r0, ip, lsl #1
     efc:	00910002 	addseq	r0, r1, r2
     f00:	0000008c 	andeq	r0, r0, ip, lsl #1
     f04:	00000193 	muleq	r0, r3, r1
     f08:	b0520001 	subslt	r0, r2, r1
     f0c:	f4000001 	vst4.8	{d0-d3}, [r0], r1
     f10:	01000001 	tsteq	r0, r1
     f14:	00005200 	andeq	r5, r0, r0, lsl #4
     f18:	00000000 	andeq	r0, r0, r0
     f1c:	00010000 	andeq	r0, r1, r0
     f20:	00010100 	andeq	r0, r1, r0, lsl #2
     f24:	00000000 	andeq	r0, r0, r0
     f28:	01000000 	mrseq	r0, (UNDEF: 0)
     f2c:	00010101 	andeq	r0, r1, r1, lsl #2
     f30:	00010100 	andeq	r0, r1, r0, lsl #2
	...
     f3c:	008c0000 	addeq	r0, ip, r0
     f40:	00fc0000 	rscseq	r0, ip, r0
     f44:	00040000 	andeq	r0, r4, r0
     f48:	9f7fa091 	svcls	0x007fa091
     f4c:	000000fc 	strdeq	r0, [r0], -ip
     f50:	0000013c 	andeq	r0, r0, ip, lsr r1
     f54:	3c500001 	mrrccc	0, 0, r0, r0, cr1	; <UNPREDICTABLE>
     f58:	48000001 	stmdami	r0, {r0}
     f5c:	03000001 	movweq	r0, #1
     f60:	9f027100 	svcls	0x00027100
     f64:	00000148 	andeq	r0, r0, r8, asr #2
     f68:	0000014c 	andeq	r0, r0, ip, asr #2
     f6c:	4c500001 	mrrcmi	0, 0, r0, r0, cr1	; <UNPREDICTABLE>
     f70:	58000001 	stmdapl	r0, {r0}
     f74:	04000001 	streq	r0, [r0], #-1
     f78:	7fa09100 	svcvc	0x00a09100
     f7c:	0001589f 	muleq	r1, pc, r8	; <UNPREDICTABLE>
     f80:	00016c00 	andeq	r6, r1, r0, lsl #24
     f84:	51000100 	mrspl	r0, (UNDEF: 16)
     f88:	0000016c 	andeq	r0, r0, ip, ror #2
     f8c:	00000178 	andeq	r0, r0, r8, ror r1
     f90:	7f710003 	svcvc	0x00710003
     f94:	0001789f 	muleq	r1, pc, r8	; <UNPREDICTABLE>
     f98:	00018400 	andeq	r8, r1, r0, lsl #8
     f9c:	71000300 	mrsvc	r0, LR_irq
     fa0:	01849f01 	orreq	r9, r4, r1, lsl #30
     fa4:	01930000 	orrseq	r0, r3, r0
     fa8:	00010000 	andeq	r0, r1, r0
     fac:	0001b050 	andeq	fp, r1, r0, asr r0
     fb0:	0001b000 	andeq	fp, r1, r0
     fb4:	91000400 	tstls	r0, r0, lsl #8
     fb8:	b09f7fa0 	addslt	r7, pc, r0, lsr #31
     fbc:	b8000001 	stmdalt	r0, {r0}
     fc0:	04000001 	streq	r0, [r0], #-1
     fc4:	7fa19100 	svcvc	0x00a19100
     fc8:	0001b89f 	muleq	r1, pc, r8	; <UNPREDICTABLE>
     fcc:	0001bc00 	andeq	fp, r1, r0, lsl #24
     fd0:	50000100 	andpl	r0, r0, r0, lsl #2
     fd4:	000001bc 			; <UNDEFINED> instruction: 0x000001bc
     fd8:	000001c0 	andeq	r0, r0, r0, asr #3
     fdc:	a0910004 	addsge	r0, r1, r4
     fe0:	01c09f7f 	biceq	r9, r0, pc, ror pc
     fe4:	01d40000 	bicseq	r0, r4, r0
     fe8:	00010000 	andeq	r0, r1, r0
     fec:	0001d450 	andeq	sp, r1, r0, asr r4
     ff0:	0001e400 	andeq	lr, r1, r0, lsl #8
     ff4:	70000300 	andvc	r0, r0, r0, lsl #6
     ff8:	01e49f7f 	mvneq	r9, pc, ror pc
     ffc:	02240000 	eoreq	r0, r4, #0, 0
    1000:	00040000 	andeq	r0, r4, r0
    1004:	9f7fa091 	svcls	0x007fa091
	...
    1010:	01000000 	mrseq	r0, (UNDEF: 0)
    1014:	00000001 	andeq	r0, r0, r1
	...
    1024:	00000090 	muleq	r0, r0, r0
    1028:	000000dc 	ldrdeq	r0, [r0], -ip
    102c:	dc5c0001 	mrrcle	0, 0, r0, ip, cr1
    1030:	f4000000 	vst4.8	{d0-d3}, [r0], r0
    1034:	01000000 	mrseq	r0, (UNDEF: 0)
    1038:	00f45300 	rscseq	r5, r4, r0, lsl #6
    103c:	014c0000 	mrseq	r0, (UNDEF: 76)
    1040:	00010000 	andeq	r0, r1, r0
    1044:	00014c5c 	andeq	r4, r1, ip, asr ip
    1048:	00015800 	andeq	r5, r1, r0, lsl #16
    104c:	53000100 	movwpl	r0, #256	; 0x100
    1050:	00000158 	andeq	r0, r0, r8, asr r1
    1054:	00000174 	andeq	r0, r0, r4, ror r1
    1058:	b05c0001 	subslt	r0, ip, r1
    105c:	c0000001 	andgt	r0, r0, r1
    1060:	01000001 	tsteq	r0, r1
    1064:	01c05300 	biceq	r5, r0, r0, lsl #6
    1068:	01dc0000 	bicseq	r0, ip, r0
    106c:	00010000 	andeq	r0, r1, r0
    1070:	0001e45c 	andeq	lr, r1, ip, asr r4
    1074:	0001e800 	andeq	lr, r1, r0, lsl #16
    1078:	53000100 	movwpl	r0, #256	; 0x100
    107c:	000001e8 	andeq	r0, r0, r8, ror #3
    1080:	000001ff 	strdeq	r0, [r0], -pc	; <UNPREDICTABLE>
    1084:	ff5c0001 			; <UNDEFINED> instruction: 0xff5c0001
    1088:	24000001 	strcs	r0, [r0], #-1
    108c:	04000002 	streq	r0, [r0], #-2
    1090:	5301f300 	movwpl	pc, #4864	; 0x1300	; <UNPREDICTABLE>
    1094:	0000009f 	muleq	r0, pc, r0	; <UNPREDICTABLE>
    1098:	00000000 	andeq	r0, r0, r0
    109c:	01010100 	mrseq	r0, (UNDEF: 17)
    10a0:	00000000 	andeq	r0, r0, r0
    10a4:	0000dc00 	andeq	sp, r0, r0, lsl #24
    10a8:	0000f000 	andeq	pc, r0, r0
    10ac:	30000200 	andcc	r0, r0, r0, lsl #4
    10b0:	0000f09f 	muleq	r0, pc, r0	; <UNPREDICTABLE>
    10b4:	0000f800 	andeq	pc, r0, r0, lsl #16
    10b8:	31000200 	mrscc	r0, R8_usr
    10bc:	0000fc9f 	muleq	r0, pc, ip	; <UNPREDICTABLE>
    10c0:	00014c00 	andeq	r4, r1, r0, lsl #24
    10c4:	56000100 	strpl	r0, [r0], -r0, lsl #2
    10c8:	0000014c 	andeq	r0, r0, ip, asr #2
    10cc:	00000154 	andeq	r0, r0, r4, asr r1
    10d0:	9f300002 	svcls	0x00300002
	...
    10dc:	01000000 	mrseq	r0, (UNDEF: 0)
    10e0:	01000001 	tsteq	r0, r1
    10e4:	00380001 	eorseq	r0, r8, r1
    10e8:	00540000 	subseq	r0, r4, r0
    10ec:	00010000 	andeq	r0, r1, r0
    10f0:	00005450 	andeq	r5, r0, r0, asr r4
    10f4:	00005800 	andeq	r5, r0, r0, lsl #16
    10f8:	52000100 	andpl	r0, r0, #0
    10fc:	00000058 	andeq	r0, r0, r8, asr r0
    1100:	00000060 	andeq	r0, r0, r0, rrx
    1104:	01720003 	cmneq	r2, r3
    1108:	0000609f 	muleq	r0, pc, r0	; <UNPREDICTABLE>
    110c:	00006400 	andeq	r6, r0, r0, lsl #8
    1110:	52000100 	andpl	r0, r0, #0
    1114:	00000064 	andeq	r0, r0, r4, rrx
    1118:	00000070 	andeq	r0, r0, r0, ror r0
    111c:	01720003 	cmneq	r2, r3
    1120:	0000009f 	muleq	r0, pc, r0	; <UNPREDICTABLE>
	...
    112c:	00003800 	andeq	r3, r0, r0, lsl #16
    1130:	00005000 	andeq	r5, r0, r0
    1134:	51000100 	mrspl	r0, (UNDEF: 16)
    1138:	00000050 	andeq	r0, r0, r0, asr r0
    113c:	00000070 	andeq	r0, r0, r0, ror r0
    1140:	01f30004 	mvnseq	r0, r4
    1144:	00009f51 	andeq	r9, r0, r1, asr pc
	...
    1150:	01000000 	mrseq	r0, (UNDEF: 0)
    1154:	00380001 	eorseq	r0, r8, r1
    1158:	00500000 	subseq	r0, r0, r0
    115c:	00010000 	andeq	r0, r1, r0
    1160:	00005052 	andeq	r5, r0, r2, asr r0
    1164:	00005c00 	andeq	r5, r0, r0, lsl #24
    1168:	51000100 	mrspl	r0, (UNDEF: 16)
    116c:	0000005c 	andeq	r0, r0, ip, asr r0
    1170:	00000060 	andeq	r0, r0, r0, rrx
    1174:	01710003 	cmneq	r1, r3
    1178:	0000609f 	muleq	r0, pc, r0	; <UNPREDICTABLE>
    117c:	00007000 	andeq	r7, r0, r0
    1180:	51000100 	mrspl	r0, (UNDEF: 16)
	...
    1190:	00000038 	andeq	r0, r0, r8, lsr r0
    1194:	0000004c 	andeq	r0, r0, ip, asr #32
    1198:	4c530001 	mrrcmi	0, 0, r0, r3, cr1
    119c:	68000000 	stmdavs	r0, {}	; <UNPREDICTABLE>
    11a0:	01000000 	mrseq	r0, (UNDEF: 0)
    11a4:	00005300 	andeq	r5, r0, r0, lsl #6
	...
    11b4:	00400000 	subeq	r0, r0, r0
    11b8:	00480000 	subeq	r0, r8, r0
    11bc:	00010000 	andeq	r0, r1, r0
    11c0:	0000485c 	andeq	r4, r0, ip, asr r8
    11c4:	00004c00 	andeq	r4, r0, r0, lsl #24
    11c8:	72000800 	andvc	r0, r0, #0, 16
    11cc:	1c007300 	stcne	3, cr7, [r0], {-0}
    11d0:	4c9f0123 	ldfmis	f0, [pc], {35}	; 0x23
    11d4:	54000000 	strpl	r0, [r0], #-0
    11d8:	09000000 	stmdbeq	r0, {}	; <UNPREDICTABLE>
    11dc:	f3007200 	vhsub.u8	d7, d0, d0
    11e0:	231c5301 	tstcs	ip, #67108864	; 0x4000000
    11e4:	00549f01 	subseq	r9, r4, r1, lsl #30
    11e8:	00700000 	rsbseq	r0, r0, r0
    11ec:	000a0000 	andeq	r0, sl, r0
    11f0:	f35201f3 	vbsl	q8, q9, <illegal reg q9.5>
    11f4:	231c5301 	tstcs	ip, #67108864	; 0x4000000
    11f8:	00009f01 	andeq	r9, r0, r1, lsl #30
    11fc:	00000000 	andeq	r0, r0, r0
    1200:	00010000 	andeq	r0, r1, r0
    1204:	0000004c 	andeq	r0, r0, ip, asr #32
    1208:	00000070 	andeq	r0, r0, r0, ror r0
    120c:	00500001 	subseq	r0, r0, r1
	...
    1218:	00000101 	andeq	r0, r0, r1, lsl #2
    121c:	00001400 	andeq	r1, r0, r0, lsl #8
    1220:	00001c00 	andeq	r1, r0, r0, lsl #24
    1224:	50000100 	andpl	r0, r0, r0, lsl #2
    1228:	0000001c 	andeq	r0, r0, ip, lsl r0
    122c:	00000024 	andeq	r0, r0, r4, lsr #32
    1230:	01700003 	cmneq	r0, r3
    1234:	0000249f 	muleq	r0, pc, r4	; <UNPREDICTABLE>
    1238:	00003800 	andeq	r3, r0, r0, lsl #16
    123c:	50000100 	andpl	r0, r0, r0, lsl #2
	...
    124c:	00000014 	andeq	r0, r0, r4, lsl r0
    1250:	00000018 	andeq	r0, r0, r8, lsl r0
    1254:	18510001 	ldmdane	r1, {r0}^
    1258:	38000000 	stmdacc	r0, {}	; <UNPREDICTABLE>
    125c:	04000000 	streq	r0, [r0], #-0
    1260:	5101f300 	mrspl	pc, SP_irq	; <UNPREDICTABLE>
    1264:	0000009f 	muleq	r0, pc, r0	; <UNPREDICTABLE>
    1268:	00000000 	andeq	r0, r0, r0
    126c:	18000000 	stmdane	r0, {}	; <UNPREDICTABLE>
    1270:	38000000 	stmdacc	r0, {}	; <UNPREDICTABLE>
    1274:	01000000 	mrseq	r0, (UNDEF: 0)
    1278:	00005100 	andeq	r5, r0, r0, lsl #2
	...
    128c:	00000004 	andeq	r0, r0, r4
    1290:	04500001 	ldrbeq	r0, [r0], #-1
    1294:	0c000000 	stceq	0, cr0, [r0], {-0}
    1298:	03000000 	movweq	r0, #0
    129c:	9f307000 	svcls	0x00307000
    12a0:	0000000c 	andeq	r0, r0, ip
    12a4:	00000014 	andeq	r0, r0, r4, lsl r0
    12a8:	01f30004 	mvnseq	r0, r4
    12ac:	00009f50 	andeq	r9, r0, r0, asr pc
	...
    12b8:	02240000 	eoreq	r0, r4, #0, 0
    12bc:	02680000 	rsbeq	r0, r8, #0, 0
    12c0:	00010000 	andeq	r0, r1, r0
    12c4:	00026850 	andeq	r6, r2, r0, asr r8
    12c8:	00028800 	andeq	r8, r2, r0, lsl #16
    12cc:	f3000400 	vshl.u8	d0, d0, d0
    12d0:	009f5001 	addseq	r5, pc, r1
	...
    12dc:	24000000 	strcs	r0, [r0], #-0
    12e0:	64000002 	strvs	r0, [r0], #-2
    12e4:	01000002 	tsteq	r0, r2
    12e8:	02645100 	rsbeq	r5, r4, #0
    12ec:	02880000 	addeq	r0, r8, #0, 0
    12f0:	00040000 	andeq	r0, r4, r0
    12f4:	9f5101f3 	svcls	0x005101f3
	...
    1300:	00010100 	andeq	r0, r1, r0, lsl #2
    1304:	8ba00000 	blhi	fe80130c <__bss_end__+0xfe7f767c>
    1308:	8ba00000 	blhi	fe801310 <__bss_end__+0xfe7f7680>
    130c:	00010000 	andeq	r0, r1, r0
    1310:	008ba053 	addeq	sl, fp, r3, asr r0
    1314:	008ba400 	addeq	sl, fp, r0, lsl #8
    1318:	73000700 	movwvc	r0, #1792	; 0x700
    131c:	efff0b00 	svc	0x00ff0b00
    1320:	8ba49f1a 	blhi	fe928f90 <__bss_end__+0xfe91f300>
    1324:	8bac0000 	blhi	feb0132c <__bss_end__+0xfeaf769c>
    1328:	00010000 	andeq	r0, r1, r0
    132c:	00000053 	andeq	r0, r0, r3, asr r0
    1330:	00000000 	andeq	r0, r0, r0
    1334:	01010000 	mrseq	r0, (UNDEF: 1)
    1338:	90000000 	andls	r0, r0, r0
    133c:	9000008b 	andls	r0, r0, fp, lsl #1
    1340:	0100008b 	smlabbeq	r0, fp, r0, r0
    1344:	8b905300 	blhi	fe415f4c <__bss_end__+0xfe40c2bc>
    1348:	8b940000 	blhi	fe501350 <__bss_end__+0xfe4f76c0>
    134c:	00070000 	andeq	r0, r7, r0
    1350:	000a0073 	andeq	r0, sl, r3, ror r0
    1354:	949f2110 	ldrls	r2, [pc], #272	; 135c <__code_start__-0x6ca4>
    1358:	9c00008b 	stcls	0, cr0, [r0], {139}	; 0x8b
    135c:	0100008b 	smlabbeq	r0, fp, r0, r0
    1360:	00005300 	andeq	r5, r0, r0, lsl #6
    1364:	00000000 	andeq	r0, r0, r0
    1368:	01000000 	mrseq	r0, (UNDEF: 0)
    136c:	00000001 	andeq	r0, r0, r1
    1370:	0000000c 	andeq	r0, r0, ip
    1374:	00000014 	andeq	r0, r0, r4, lsl r0
    1378:	14530001 	ldrbne	r0, [r3], #-1
    137c:	1c000000 	stcne	0, cr0, [r0], {-0}
    1380:	03000000 	movweq	r0, #0
    1384:	9f047300 	svcls	0x00047300
    1388:	0000001c 	andeq	r0, r0, ip, lsl r0
    138c:	00000023 	andeq	r0, r0, r3, lsr #32
    1390:	00530001 	subseq	r0, r3, r1
    1394:	00000000 	andeq	r0, r0, r0
    1398:	01000000 	mrseq	r0, (UNDEF: 0)
    139c:	008c6400 	addeq	r6, ip, r0, lsl #8
    13a0:	008c8000 	addeq	r8, ip, r0
    13a4:	0c000600 	stceq	6, cr0, [r0], {-0}
    13a8:	2010001c 	andscs	r0, r0, ip, lsl r0
    13ac:	0000009f 	muleq	r0, pc, r0	; <UNPREDICTABLE>
    13b0:	00000000 	andeq	r0, r0, r0
    13b4:	64000200 	strvs	r0, [r0], #-512	; 0xfffffe00
    13b8:	8000008c 	andhi	r0, r0, ip, lsl #1
    13bc:	0600008c 	streq	r0, [r0], -ip, lsl #1
    13c0:	00240c00 	eoreq	r0, r4, r0, lsl #24
    13c4:	009f2010 	addseq	r2, pc, r0, lsl r0	; <UNPREDICTABLE>
    13c8:	00000000 	andeq	r0, r0, r0
    13cc:	03000000 	movweq	r0, #0
    13d0:	008c6400 	addeq	r6, ip, r0, lsl #8
    13d4:	008c8000 	addeq	r8, ip, r0
    13d8:	08000500 	stmdaeq	r0, {r8, sl}
    13dc:	9f2447b4 	svcls	0x002447b4
	...
    13e8:	8c640004 	stclhi	0, cr0, [r4], #-16
    13ec:	8c800000 	stchi	0, cr0, [r0], {0}
    13f0:	00030000 	andeq	r0, r3, r0
    13f4:	009f2008 	addseq	r2, pc, r8
    13f8:	00000000 	andeq	r0, r0, r0
    13fc:	02000000 	andeq	r0, r0, #0, 0
    1400:	00000000 	andeq	r0, r0, r0
    1404:	008c3000 	addeq	r3, ip, r0
    1408:	008c3400 	addeq	r3, ip, r0, lsl #8
    140c:	30000200 	andcc	r0, r0, r0, lsl #4
    1410:	008c349f 	umulleq	r3, ip, pc, r4	; <UNPREDICTABLE>
    1414:	008c3800 	addeq	r3, ip, r0, lsl #16
    1418:	53000100 	movwpl	r0, #256	; 0x100
    141c:	00008c3c 	andeq	r8, r0, ip, lsr ip
    1420:	00008c44 	andeq	r8, r0, r4, asr #24
    1424:	00530001 	subseq	r0, r3, r1
    1428:	00000000 	andeq	r0, r0, r0
    142c:	02000000 	andeq	r0, r0, #0, 0
    1430:	18000000 	stmdane	r0, {}	; <UNPREDICTABLE>
    1434:	1c00008c 	stcne	0, cr0, [r0], {140}	; 0x8c
    1438:	0200008c 	andeq	r0, r0, #140, 0	; 0x8c
    143c:	1c9f3000 	ldcne	0, cr3, [pc], {0}
    1440:	2000008c 	andcs	r0, r0, ip, lsl #1
    1444:	0100008c 	smlabbeq	r0, ip, r0, r0
    1448:	00005000 	andeq	r5, r0, r0
	...
    1454:	006c0000 	rsbeq	r0, ip, r0
    1458:	00780000 	rsbseq	r0, r8, r0
    145c:	00010000 	andeq	r0, r1, r0
    1460:	00007850 	andeq	r7, r0, r0, asr r8
    1464:	00008400 	andeq	r8, r0, r0, lsl #8
    1468:	f3000400 	vshl.u8	d0, d0, d0
    146c:	009f5001 	addseq	r5, pc, r1
	...
    1478:	54000000 	strpl	r0, [r0], #-0
    147c:	60000000 	andvs	r0, r0, r0
    1480:	01000000 	mrseq	r0, (UNDEF: 0)
    1484:	00605000 	rsbeq	r5, r0, r0
    1488:	006c0000 	rsbeq	r0, ip, r0
    148c:	00040000 	andeq	r0, r4, r0
    1490:	9f5001f3 	svcls	0x005001f3
	...
    14a0:	00000030 	andeq	r0, r0, r0, lsr r0
    14a4:	0000003b 	andeq	r0, r0, fp, lsr r0
    14a8:	3b500001 	blcc	14014b4 <__bss_end__+0x13f7824>
    14ac:	54000000 	strpl	r0, [r0], #-0
    14b0:	01000000 	mrseq	r0, (UNDEF: 0)
    14b4:	00005500 	andeq	r5, r0, r0, lsl #10
	...
    14c0:	00000040 	andeq	r0, r0, r0, asr #32
    14c4:	00000054 	andeq	r0, r0, r4, asr r0
    14c8:	00540001 	subseq	r0, r4, r1
	...
    14d4:	00004400 	andeq	r4, r0, r0, lsl #8
    14d8:	00004800 	andeq	r4, r0, r0, lsl #16
    14dc:	50000100 	andpl	r0, r0, r0, lsl #2
	...
    14ec:	00000024 	andeq	r0, r0, r4, lsr #32
    14f0:	00000027 	andeq	r0, r0, r7, lsr #32
    14f4:	27500001 	ldrbcs	r0, [r0, -r1]
    14f8:	30000000 	andcc	r0, r0, r0
    14fc:	01000000 	mrseq	r0, (UNDEF: 0)
    1500:	00005400 	andeq	r5, r0, r0, lsl #8
	...
    1510:	00e80000 	rsceq	r0, r8, r0
    1514:	01000000 	mrseq	r0, (UNDEF: 0)
    1518:	00010000 	andeq	r0, r1, r0
    151c:	00010050 	andeq	r0, r1, r0, asr r0
    1520:	00011000 	andeq	r1, r1, r0
    1524:	f3000400 	vshl.u8	d0, d0, d0
    1528:	109f5001 	addsne	r5, pc, r1
    152c:	14000001 	strne	r0, [r0], #-1
    1530:	01000001 	tsteq	r0, r1
    1534:	01145000 	tsteq	r4, r0
    1538:	011c0000 	tsteq	ip, r0
    153c:	00040000 	andeq	r0, r4, r0
    1540:	9f5001f3 	svcls	0x005001f3
	...
    154c:	00000001 	andeq	r0, r0, r1
    1550:	00f40000 	rscseq	r0, r4, r0
    1554:	01000000 	mrseq	r0, (UNDEF: 0)
    1558:	000b0000 	andeq	r0, fp, r0
    155c:	25350070 	ldrcs	r0, [r5, #-112]!	; 0xffffff90
    1560:	8080b423 	addhi	fp, r0, r3, lsr #8
    1564:	009f0281 	addseq	r0, pc, r1, lsl #5
    1568:	03000001 	movweq	r0, #1
    156c:	01000001 	tsteq	r0, r1
    1570:	01035000 	mrseq	r5, (UNDEF: 3)
    1574:	01100000 	tsteq	r0, r0
    1578:	000c0000 	andeq	r0, ip, r0
    157c:	355001f3 	ldrbcc	r0, [r0, #-499]	; 0xfffffe0d
    1580:	80b42325 	adcshi	r2, r4, r5, lsr #6
    1584:	9f028180 	svcls	0x00028180
	...
    1590:	00f80000 	rscseq	r0, r8, r0
    1594:	01100000 	tsteq	r0, r0
    1598:	00010000 	andeq	r0, r1, r0
    159c:	00000054 	andeq	r0, r0, r4, asr r0
	...
    15ac:	0000cc00 	andeq	ip, r0, r0, lsl #24
    15b0:	0000db00 	andeq	sp, r0, r0, lsl #22
    15b4:	50000100 	andpl	r0, r0, r0, lsl #2
    15b8:	000000db 	ldrdeq	r0, [r0], -fp
    15bc:	000000e0 	andeq	r0, r0, r0, ror #1
    15c0:	01f30004 	mvnseq	r0, r4
    15c4:	00e09f50 	rsceq	r9, r0, r0, asr pc
    15c8:	00e30000 	rsceq	r0, r3, r0
    15cc:	00010000 	andeq	r0, r1, r0
    15d0:	0000e350 	andeq	lr, r0, r0, asr r3
    15d4:	0000e800 	andeq	lr, r0, r0, lsl #16
    15d8:	f3000400 	vshl.u8	d0, d0, d0
    15dc:	009f5001 	addseq	r5, pc, r1
	...
    15ec:	cc000000 	stcgt	0, cr0, [r0], {-0}
    15f0:	db000000 	blle	15f8 <__code_start__-0x6a08>
    15f4:	01000000 	mrseq	r0, (UNDEF: 0)
    15f8:	00db5100 	sbcseq	r5, fp, r0, lsl #2
    15fc:	00e00000 	rsceq	r0, r0, r0
    1600:	00040000 	andeq	r0, r4, r0
    1604:	9f5101f3 	svcls	0x005101f3
    1608:	000000e0 	andeq	r0, r0, r0, ror #1
    160c:	000000e3 	andeq	r0, r0, r3, ror #1
    1610:	e3510001 	cmp	r1, #1, 0
    1614:	e8000000 	stmda	r0, {}	; <UNPREDICTABLE>
    1618:	04000000 	streq	r0, [r0], #-0
    161c:	5101f300 	mrspl	pc, SP_irq	; <UNPREDICTABLE>
    1620:	0000009f 	muleq	r0, pc, r0	; <UNPREDICTABLE>
	...
    162c:	0000bc00 	andeq	fp, r0, r0, lsl #24
    1630:	0000c700 	andeq	ip, r0, r0, lsl #14
    1634:	50000100 	andpl	r0, r0, r0, lsl #2
    1638:	000000c7 	andeq	r0, r0, r7, asr #1
    163c:	000000cc 	andeq	r0, r0, ip, asr #1
    1640:	01f30004 	mvnseq	r0, r4
    1644:	00009f50 	andeq	r9, r0, r0, asr pc
	...
    1650:	00980000 	addseq	r0, r8, r0
    1654:	00b00000 	adcseq	r0, r0, r0
    1658:	00010000 	andeq	r0, r1, r0
    165c:	0000b050 	andeq	fp, r0, r0, asr r0
    1660:	0000bc00 	andeq	fp, r0, r0, lsl #24
    1664:	f3000400 	vshl.u8	d0, d0, d0
    1668:	009f5001 	addseq	r5, pc, r1
	...
    1674:	74000000 	strvc	r0, [r0], #-0
    1678:	8c000000 	stchi	0, cr0, [r0], {-0}
    167c:	01000000 	mrseq	r0, (UNDEF: 0)
    1680:	008c5000 	addeq	r5, ip, r0
    1684:	00980000 	addseq	r0, r8, r0
    1688:	00040000 	andeq	r0, r4, r0
    168c:	9f5001f3 	svcls	0x005001f3
	...
    169c:	00000064 	andeq	r0, r0, r4, rrx
    16a0:	0000006f 	andeq	r0, r0, pc, rrx
    16a4:	6f500001 	svcvs	0x00500001
    16a8:	74000000 	strvc	r0, [r0], #-0
    16ac:	04000000 	streq	r0, [r0], #-0
    16b0:	5001f300 	andpl	pc, r1, r0, lsl #6
    16b4:	0000009f 	muleq	r0, pc, r0	; <UNPREDICTABLE>
	...
    16c4:	00003800 	andeq	r3, r0, r0, lsl #16
    16c8:	50000100 	andpl	r0, r0, r0, lsl #2
    16cc:	00000038 	andeq	r0, r0, r8, lsr r0
    16d0:	00000064 	andeq	r0, r0, r4, rrx
    16d4:	01f30004 	mvnseq	r0, r4
    16d8:	00009f50 	andeq	r9, r0, r0, asr pc
	...
    16e8:	00470000 	subeq	r0, r7, r0
    16ec:	00010000 	andeq	r0, r1, r0
    16f0:	00004751 	andeq	r4, r0, r1, asr r7
    16f4:	00006400 	andeq	r6, r0, r0, lsl #8
    16f8:	f3000400 	vshl.u8	d0, d0, d0
    16fc:	009f5101 	addseq	r5, pc, r1, lsl #2
	...
    1708:	00003400 	andeq	r3, r0, r0, lsl #8
    170c:	00006400 	andeq	r6, r0, r0, lsl #8
    1710:	54000100 	strpl	r0, [r0], #-256	; 0xffffff00
	...
    171c:	00400000 	subeq	r0, r0, r0
    1720:	00640000 	rsbeq	r0, r4, r0
    1724:	00010000 	andeq	r0, r1, r0
    1728:	00000056 	andeq	r0, r0, r6, asr r0
	...
    1734:	00000101 	andeq	r0, r0, r1, lsl #2
    1738:	00004800 	andeq	r4, r0, r0, lsl #16
    173c:	00005000 	andeq	r5, r0, r0
    1740:	50000100 	andpl	r0, r0, r0, lsl #2
    1744:	00000050 	andeq	r0, r0, r0, asr r0
    1748:	00000050 	andeq	r0, r0, r0, asr r0
    174c:	50510001 	subspl	r0, r1, r1
    1750:	54000000 	strpl	r0, [r0], #-0
    1754:	09000000 	stmdbeq	r0, {}	; <UNPREDICTABLE>
    1758:	74007500 	strvc	r7, [r0], #-1280	; 0xfffffb00
    175c:	00712400 	rsbseq	r2, r1, r0, lsl #8
    1760:	00549f21 	subseq	r9, r4, r1, lsr #30
    1764:	005b0000 	subseq	r0, fp, r0
    1768:	00010000 	andeq	r0, r1, r0
    176c:	00000051 	andeq	r0, r0, r1, asr r0
	...
    1778:	00015800 	andeq	r5, r1, r0, lsl #16
    177c:	00016300 	andeq	r6, r1, r0, lsl #6
    1780:	50000100 	andpl	r0, r0, r0, lsl #2
    1784:	00000163 	andeq	r0, r0, r3, ror #2
    1788:	00000188 	andeq	r0, r0, r8, lsl #3
    178c:	00540001 	subseq	r0, r4, r1
	...
    1798:	00014800 	andeq	r4, r1, r0, lsl #16
    179c:	00015800 	andeq	r5, r1, r0, lsl #16
    17a0:	54000100 	strpl	r0, [r0], #-256	; 0xffffff00
	...
    17b4:	0000000f 	andeq	r0, r0, pc
    17b8:	0f500001 	svceq	0x00500001
    17bc:	20000000 	andcs	r0, r0, r0
    17c0:	01000000 	mrseq	r0, (UNDEF: 0)
    17c4:	00005400 	andeq	r5, r0, r0, lsl #8
	...
    17d4:	000f0000 	andeq	r0, pc, r0
    17d8:	00010000 	andeq	r0, r1, r0
    17dc:	00000f51 	andeq	r0, r0, r1, asr pc
    17e0:	00002000 	andeq	r2, r0, r0
    17e4:	55000100 	strpl	r0, [r0, #-256]	; 0xffffff00
	...
    17f4:	00000020 	andeq	r0, r0, r0, lsr #32
    17f8:	0000002f 	andeq	r0, r0, pc, lsr #32
    17fc:	2f500001 	svccs	0x00500001
    1800:	40000000 	andmi	r0, r0, r0
    1804:	01000000 	mrseq	r0, (UNDEF: 0)
    1808:	00005400 	andeq	r5, r0, r0, lsl #8
	...
    1814:	00200000 	eoreq	r0, r0, r0
    1818:	002f0000 	eoreq	r0, pc, r0
    181c:	00010000 	andeq	r0, r1, r0
    1820:	00002f51 	andeq	r2, r0, r1, asr pc
    1824:	00004000 	andeq	r4, r0, r0
    1828:	55000100 	strpl	r0, [r0, #-256]	; 0xffffff00
	...
    1838:	03500000 	cmpeq	r0, #0, 0
    183c:	03980000 	orrseq	r0, r8, #0, 0
    1840:	00010000 	andeq	r0, r1, r0
    1844:	00039850 	andeq	r9, r3, r0, asr r8
    1848:	00039b00 	andeq	r9, r3, r0, lsl #22
    184c:	91000200 	mrsls	r0, R8_usr
    1850:	00039b68 	andeq	r9, r3, r8, ror #22
    1854:	0003b000 	andeq	fp, r3, r0
    1858:	f3000400 	vshl.u8	d0, d0, d0
    185c:	009f5001 	addseq	r5, pc, r1
	...
    1878:	20000000 	andcs	r0, r0, r0
    187c:	7b000002 	blvc	188c <__code_start__-0x6774>
    1880:	01000002 	tsteq	r0, r2
    1884:	027b5000 	rsbseq	r5, fp, #0, 0
    1888:	02840000 	addeq	r0, r4, #0, 0
    188c:	00040000 	andeq	r0, r4, r0
    1890:	9f5001f3 	svcls	0x005001f3
    1894:	00000284 	andeq	r0, r0, r4, lsl #5
    1898:	0000029c 	muleq	r0, ip, r2
    189c:	9c500001 	mrrcls	0, 0, r0, r0, cr1	; <UNPREDICTABLE>
    18a0:	a4000002 	strge	r0, [r0], #-2
    18a4:	04000002 	streq	r0, [r0], #-2
    18a8:	5001f300 	andpl	pc, r1, r0, lsl #6
    18ac:	0002a49f 	muleq	r2, pc, r4	; <UNPREDICTABLE>
    18b0:	0002a700 	andeq	sl, r2, r0, lsl #14
    18b4:	50000100 	andpl	r0, r0, r0, lsl #2
    18b8:	000002a7 	andeq	r0, r0, r7, lsr #5
    18bc:	000002c8 	andeq	r0, r0, r8, asr #5
    18c0:	01f30004 	mvnseq	r0, r4
    18c4:	02c89f50 	sbceq	r9, r8, #80, 30	; 0x140
    18c8:	02e00000 	rsceq	r0, r0, #0, 0
    18cc:	00010000 	andeq	r0, r1, r0
    18d0:	0002e050 	andeq	lr, r2, r0, asr r0
    18d4:	0002e800 	andeq	lr, r2, r0, lsl #16
    18d8:	f3000400 	vshl.u8	d0, d0, d0
    18dc:	e89f5001 	ldm	pc, {r0, ip, lr}	; <UNPREDICTABLE>
    18e0:	eb000002 	bl	18f0 <__code_start__-0x6710>
    18e4:	01000002 	tsteq	r0, r2
    18e8:	02eb5000 	rsceq	r5, fp, #0, 0
    18ec:	03380000 	teqeq	r8, #0, 0
    18f0:	00040000 	andeq	r0, r4, r0
    18f4:	9f5001f3 	svcls	0x005001f3
	...
    1914:	00000220 	andeq	r0, r0, r0, lsr #4
    1918:	00000244 	andeq	r0, r0, r4, asr #4
    191c:	44510001 	ldrbmi	r0, [r1], #-1
    1920:	68000002 	stmdavs	r0, {r1}
    1924:	01000002 	tsteq	r0, r2
    1928:	02685100 	rsbeq	r5, r8, #0
    192c:	027b0000 	rsbseq	r0, fp, #0, 0
    1930:	00030000 	andeq	r0, r3, r0
    1934:	7b9f0171 	blvc	fe7c1f00 <__bss_end__+0xfe7b8270>
    1938:	84000002 	strhi	r0, [r0], #-2
    193c:	17000002 	strne	r0, [r0, -r2]
    1940:	01f33800 	mvnseq	r3, r0, lsl #16
    1944:	5101f351 	tstpl	r1, r1, asr r3	; <UNPREDICTABLE>
    1948:	22244b40 	eorcs	r4, r4, #64, 22	; 0x10000
    194c:	0000080c 	andeq	r0, r0, ip, lsl #16
    1950:	01282d80 	smlawbeq	r8, r0, sp, r2
    1954:	9f131600 	svcls	0x00131600
    1958:	00000284 	andeq	r0, r0, r4, lsl #5
    195c:	00000298 	muleq	r0, r8, r2
    1960:	98510001 	ldmdals	r1, {r0}^
    1964:	a4000002 	strge	r0, [r0], #-2
    1968:	04000002 	streq	r0, [r0], #-2
    196c:	5101f300 	mrspl	pc, SP_irq	; <UNPREDICTABLE>
    1970:	0002a49f 	muleq	r2, pc, r4	; <UNPREDICTABLE>
    1974:	0002a700 	andeq	sl, r2, r0, lsl #14
    1978:	51000100 	mrspl	r0, (UNDEF: 16)
    197c:	000002a7 	andeq	r0, r0, r7, lsr #5
    1980:	000002c8 	andeq	r0, r0, r8, asr #5
    1984:	01f30004 	mvnseq	r0, r4
    1988:	02c89f51 	sbceq	r9, r8, #324	; 0x144
    198c:	02dc0000 	sbcseq	r0, ip, #0, 0
    1990:	00010000 	andeq	r0, r1, r0
    1994:	0002dc51 	andeq	sp, r2, r1, asr ip
    1998:	00033800 	andeq	r3, r3, r0, lsl #16
    199c:	38001700 	stmdacc	r0, {r8, r9, sl, ip}
    19a0:	f35101f3 	vbsl	q8, <illegal reg q8.5>, <illegal reg q9.5>
    19a4:	4b405101 	blmi	1015db0 <__bss_end__+0x100c120>
    19a8:	080c2224 	stmdaeq	ip, {r2, r5, r9, sp}
    19ac:	2d800000 	stccs	0, cr0, [r0]
    19b0:	16000128 	strne	r0, [r0], -r8, lsr #2
    19b4:	00009f13 	andeq	r9, r0, r3, lsl pc
	...
    19c8:	024c0000 	subeq	r0, ip, #0, 0
    19cc:	025c0000 	subseq	r0, ip, #0, 0
    19d0:	00010000 	andeq	r0, r1, r0
    19d4:	00025c52 	andeq	r5, r2, r2, asr ip
    19d8:	00026400 	andeq	r6, r2, r0, lsl #8
    19dc:	03000500 	movweq	r0, #1280	; 0x500
    19e0:	00009884 	andeq	r9, r0, r4, lsl #17
    19e4:	00000264 	andeq	r0, r0, r4, ror #4
    19e8:	0000027b 	andeq	r0, r0, fp, ror r2
    19ec:	c8530001 	ldmdagt	r3, {r0}^
    19f0:	d8000002 	stmdale	r0, {r1}
    19f4:	01000002 	tsteq	r0, r2
    19f8:	02d85200 	sbcseq	r5, r8, #0, 4
    19fc:	02e30000 	rsceq	r0, r3, #0, 0
    1a00:	00050000 	andeq	r0, r5, r0
    1a04:	00988403 	addseq	r8, r8, r3, lsl #8
    1a08:	0002e800 	andeq	lr, r2, r0, lsl #16
    1a0c:	0002eb00 	andeq	lr, r2, r0, lsl #22
    1a10:	53000100 	movwpl	r0, #256	; 0x100
	...
    1a1c:	02300004 	eorseq	r0, r0, #4, 0
    1a20:	02340000 	eorseq	r0, r4, #0, 0
    1a24:	00010000 	andeq	r0, r1, r0
    1a28:	00000051 	andeq	r0, r0, r1, asr r0
    1a2c:	00000000 	andeq	r0, r0, r0
    1a30:	3c000200 	sfmcc	f0, 4, [r0], {-0}
    1a34:	44000002 	strmi	r0, [r0], #-2
    1a38:	02000002 	andeq	r0, r0, #2, 0
    1a3c:	009f3800 	addseq	r3, pc, r0, lsl #16
    1a40:	00000000 	andeq	r0, r0, r0
    1a44:	02000000 	andeq	r0, r0, #0, 0
    1a48:	00023c00 	andeq	r3, r2, r0, lsl #24
    1a4c:	00024400 	andeq	r4, r2, r0, lsl #8
    1a50:	51000100 	mrspl	r0, (UNDEF: 16)
	...
    1a5c:	00000001 	andeq	r0, r0, r1
    1a60:	024c0000 	subeq	r0, ip, #0, 0
    1a64:	02640000 	rsbeq	r0, r4, #0, 0
    1a68:	00010000 	andeq	r0, r1, r0
    1a6c:	0002c851 	andeq	ip, r2, r1, asr r8
    1a70:	0002dc00 	andeq	sp, r2, r0, lsl #24
    1a74:	51000100 	mrspl	r0, (UNDEF: 16)
    1a78:	000002dc 	ldrdeq	r0, [r0], -ip
    1a7c:	000002e8 	andeq	r0, r0, r8, ror #5
    1a80:	f3380017 	vqadd.u64	d0, d8, d7
    1a84:	01f35101 	mvnseq	r5, r1, lsl #2
    1a88:	244b4051 	strbcs	r4, [fp], #-81	; 0xffffffaf
    1a8c:	00080c22 	andeq	r0, r8, r2, lsr #24
    1a90:	282d8000 	stmdacs	sp!, {pc}
    1a94:	13160001 	tstne	r6, #1, 0
    1a98:	0000009f 	muleq	r0, pc, r0	; <UNPREDICTABLE>
    1a9c:	00000000 	andeq	r0, r0, r0
    1aa0:	00000100 	andeq	r0, r0, r0, lsl #2
    1aa4:	00000000 	andeq	r0, r0, r0
    1aa8:	00024c00 	andeq	r4, r2, r0, lsl #24
    1aac:	00025c00 	andeq	r5, r2, r0, lsl #24
    1ab0:	52000100 	andpl	r0, r0, #0
    1ab4:	0000025c 	andeq	r0, r0, ip, asr r2
    1ab8:	00000264 	andeq	r0, r0, r4, ror #4
    1abc:	84030005 	strhi	r0, [r3], #-5
    1ac0:	c8000098 	stmdagt	r0, {r3, r4, r7}
    1ac4:	d8000002 	stmdale	r0, {r1}
    1ac8:	01000002 	tsteq	r0, r2
    1acc:	02d85200 	sbcseq	r5, r8, #0, 4
    1ad0:	02e30000 	rsceq	r0, r3, #0, 0
    1ad4:	00050000 	andeq	r0, r5, r0
    1ad8:	00988403 	addseq	r8, r8, r3, lsl #8
	...
    1ae4:	4c000400 	cfstrsmi	mvf0, [r0], {-0}
    1ae8:	50000002 	andpl	r0, r0, r2
    1aec:	01000002 	tsteq	r0, r2
    1af0:	00005100 	andeq	r5, r0, r0, lsl #2
    1af4:	00000000 	andeq	r0, r0, r0
    1af8:	00030000 	andeq	r0, r3, r0
    1afc:	00000264 	andeq	r0, r0, r4, ror #4
    1b00:	00000268 	andeq	r0, r0, r8, ror #4
    1b04:	00510001 	subseq	r0, r1, r1
    1b08:	00000000 	andeq	r0, r0, r0
    1b0c:	03000000 	movweq	r0, #0
    1b10:	00026400 	andeq	r6, r2, r0, lsl #8
    1b14:	00026800 	andeq	r6, r2, r0, lsl #16
    1b18:	53000100 	movwpl	r0, #256	; 0x100
	...
    1b2c:	000001bc 			; <UNDEFINED> instruction: 0x000001bc
    1b30:	000001d3 	ldrdeq	r0, [r0], -r3
    1b34:	d3500001 	cmple	r0, #1, 0
    1b38:	f0000001 			; <UNDEFINED> instruction: 0xf0000001
    1b3c:	01000001 	tsteq	r0, r1
    1b40:	01f05400 	mvnseq	r5, r0, lsl #8
    1b44:	02080000 	andeq	r0, r8, #0, 0
    1b48:	00010000 	andeq	r0, r1, r0
    1b4c:	00020850 	andeq	r0, r2, r0, asr r8
    1b50:	00022000 	andeq	r2, r2, r0
    1b54:	54000100 	strpl	r0, [r0], #-256	; 0xffffff00
	...
    1b64:	000001d8 	ldrdeq	r0, [r0], -r8
    1b68:	000001e3 	andeq	r0, r0, r3, ror #3
    1b6c:	e3500001 	cmp	r0, #1, 0
    1b70:	f0000001 			; <UNDEFINED> instruction: 0xf0000001
    1b74:	01000001 	tsteq	r0, r1
    1b78:	00005500 	andeq	r5, r0, r0, lsl #10
	...
    1b90:	01240000 			; <UNDEFINED> instruction: 0x01240000
    1b94:	01380000 	teqeq	r8, r0
    1b98:	00010000 	andeq	r0, r1, r0
    1b9c:	00013850 	andeq	r3, r1, r0, asr r8
    1ba0:	00013c00 	andeq	r3, r1, r0, lsl #24
    1ba4:	70000300 	andvc	r0, r0, r0, lsl #6
    1ba8:	013c9f79 	teqeq	ip, r9, ror pc
    1bac:	01600000 	cmneq	r0, r0
    1bb0:	00010000 	andeq	r0, r1, r0
    1bb4:	00016053 	andeq	r6, r1, r3, asr r0
    1bb8:	00017800 	andeq	r7, r1, r0, lsl #16
    1bbc:	50000100 	andpl	r0, r0, r0, lsl #2
    1bc0:	00000178 	andeq	r0, r0, r8, ror r1
    1bc4:	00000180 	andeq	r0, r0, r0, lsl #3
    1bc8:	01f30004 	mvnseq	r0, r4
    1bcc:	01809f50 	orreq	r9, r0, r0, asr pc
    1bd0:	01900000 	orrseq	r0, r0, r0
    1bd4:	00010000 	andeq	r0, r1, r0
    1bd8:	00019053 	andeq	r9, r1, r3, asr r0
    1bdc:	00019f00 	andeq	r9, r1, r0, lsl #30
    1be0:	91000200 	mrsls	r0, R8_usr
    1be4:	00019f68 	andeq	r9, r1, r8, ror #30
    1be8:	0001bc00 	andeq	fp, r1, r0, lsl #24
    1bec:	f3000900 	vmls.i8	d0, d0, d0
    1bf0:	07235001 	streq	r5, [r3, -r1]!
    1bf4:	9f1af809 	svcls	0x001af809
	...
    1c04:	01440000 	mrseq	r0, (UNDEF: 68)
    1c08:	01600000 	cmneq	r0, r0
    1c0c:	00010000 	andeq	r0, r1, r0
    1c10:	00018050 	andeq	r8, r1, r0, asr r0
    1c14:	00019c00 	andeq	r9, r1, r0, lsl #24
    1c18:	50000100 	andpl	r0, r0, r0, lsl #2
    1c1c:	0000019c 	muleq	r0, ip, r1
    1c20:	0000019f 	muleq	r0, pc, r1	; <UNPREDICTABLE>
    1c24:	84030005 	strhi	r0, [r3], #-5
    1c28:	00000098 	muleq	r0, r8, r0
    1c2c:	00000000 	andeq	r0, r0, r0
    1c30:	03000000 	movweq	r0, #0
    1c34:	00013400 	andeq	r3, r1, r0, lsl #8
    1c38:	00013c00 	andeq	r3, r1, r0, lsl #24
    1c3c:	38000200 	stmdacc	r0, {r9}
    1c40:	0000009f 	muleq	r0, pc, r0	; <UNPREDICTABLE>
    1c44:	00000000 	andeq	r0, r0, r0
    1c48:	00000300 	andeq	r0, r0, r0, lsl #6
    1c4c:	00013400 	andeq	r3, r1, r0, lsl #8
    1c50:	00013800 	andeq	r3, r1, r0, lsl #16
    1c54:	50000100 	andpl	r0, r0, r0, lsl #2
    1c58:	00000138 	andeq	r0, r0, r8, lsr r1
    1c5c:	0000013c 	andeq	r0, r0, ip, lsr r1
    1c60:	79700003 	ldmdbvc	r0!, {r0, r1}^
    1c64:	0000009f 	muleq	r0, pc, r0	; <UNPREDICTABLE>
	...
    1c78:	30000000 	andcc	r0, r0, r0
    1c7c:	60000000 	andvs	r0, r0, r0
    1c80:	01000000 	mrseq	r0, (UNDEF: 0)
    1c84:	00605000 	rsbeq	r5, r0, r0
    1c88:	006c0000 	rsbeq	r0, ip, r0
    1c8c:	00050000 	andeq	r0, r5, r0
    1c90:	00988403 	addseq	r8, r8, r3, lsl #8
    1c94:	00006c00 	andeq	r6, r0, r0, lsl #24
    1c98:	00008400 	andeq	r8, r0, r0, lsl #8
    1c9c:	50000100 	andpl	r0, r0, r0, lsl #2
    1ca0:	00000084 	andeq	r0, r0, r4, lsl #1
    1ca4:	0000008c 	andeq	r0, r0, ip, lsl #1
    1ca8:	01f30004 	mvnseq	r0, r4
    1cac:	008c9f50 	addeq	r9, ip, r0, asr pc
    1cb0:	00ac0000 	adceq	r0, ip, r0
    1cb4:	00010000 	andeq	r0, r1, r0
    1cb8:	0000ac50 	andeq	sl, r0, r0, asr ip
    1cbc:	0000af00 	andeq	sl, r0, r0, lsl #30
    1cc0:	91000200 	mrsls	r0, R8_usr
    1cc4:	0000af68 	andeq	sl, r0, r8, ror #30
    1cc8:	0000cc00 	andeq	ip, r0, r0, lsl #24
    1ccc:	f3000400 	vshl.u8	d0, d0, d0
    1cd0:	009f5001 	addseq	r5, pc, r1
	...
    1ce0:	30000000 	andcc	r0, r0, r0
    1ce4:	80000000 	andhi	r0, r0, r0
    1ce8:	01000000 	mrseq	r0, (UNDEF: 0)
    1cec:	00805100 	addeq	r5, r0, r0, lsl #2
    1cf0:	008c0000 	addeq	r0, ip, r0
    1cf4:	00040000 	andeq	r0, r4, r0
    1cf8:	9f5101f3 	svcls	0x005101f3
    1cfc:	0000008c 	andeq	r0, r0, ip, lsl #1
    1d00:	000000a8 	andeq	r0, r0, r8, lsr #1
    1d04:	a8510001 	ldmdage	r1, {r0}^
    1d08:	cc000000 	stcgt	0, cr0, [r0], {-0}
    1d0c:	04000000 	streq	r0, [r0], #-0
    1d10:	5101f300 	mrspl	pc, SP_irq	; <UNPREDICTABLE>
    1d14:	0000009f 	muleq	r0, pc, r0	; <UNPREDICTABLE>
    1d18:	00000000 	andeq	r0, r0, r0
    1d1c:	00000100 	andeq	r0, r0, r0, lsl #2
	...
    1d28:	38000000 	stmdacc	r0, {}	; <UNPREDICTABLE>
    1d2c:	60000000 	andvs	r0, r0, r0
    1d30:	01000000 	mrseq	r0, (UNDEF: 0)
    1d34:	00605000 	rsbeq	r5, r0, r0
    1d38:	006c0000 	rsbeq	r0, ip, r0
    1d3c:	00050000 	andeq	r0, r5, r0
    1d40:	00988403 	addseq	r8, r8, r3, lsl #8
    1d44:	00006c00 	andeq	r6, r0, r0, lsl #24
    1d48:	00008400 	andeq	r8, r0, r0, lsl #8
    1d4c:	50000100 	andpl	r0, r0, r0, lsl #2
    1d50:	00000084 	andeq	r0, r0, r4, lsl #1
    1d54:	0000008c 	andeq	r0, r0, ip, lsl #1
    1d58:	01f30004 	mvnseq	r0, r4
    1d5c:	008c9f50 	addeq	r9, ip, r0, asr pc
    1d60:	00ac0000 	adceq	r0, ip, r0
    1d64:	00010000 	andeq	r0, r1, r0
    1d68:	0000ac50 	andeq	sl, r0, r0, asr ip
    1d6c:	0000af00 	andeq	sl, r0, r0, lsl #30
    1d70:	91000200 	mrsls	r0, R8_usr
    1d74:	0000af68 	andeq	sl, r0, r8, ror #30
    1d78:	0000cc00 	andeq	ip, r0, r0, lsl #24
    1d7c:	f3000400 	vshl.u8	d0, d0, d0
    1d80:	009f5001 	addseq	r5, pc, r1
	...
    1d90:	0b000000 	bleq	1d98 <__code_start__-0x6268>
    1d94:	01000000 	mrseq	r0, (UNDEF: 0)
    1d98:	000b5000 	andeq	r5, fp, r0
    1d9c:	00140000 	andseq	r0, r4, r0
    1da0:	00010000 	andeq	r0, r1, r0
    1da4:	00000054 	andeq	r0, r0, r4, asr r0
	...
    1db4:	00001c00 	andeq	r1, r0, r0, lsl #24
    1db8:	51000100 	mrspl	r0, (UNDEF: 16)
    1dbc:	0000001c 	andeq	r0, r0, ip, lsl r0
    1dc0:	00000034 	andeq	r0, r0, r4, lsr r0
    1dc4:	01f30004 	mvnseq	r0, r4
    1dc8:	00009f51 	andeq	r9, r0, r1, asr pc
    1dcc:	00000000 	andeq	r0, r0, r0
    1dd0:	00020000 	andeq	r0, r2, r0
    1dd4:	01000000 	mrseq	r0, (UNDEF: 0)
    1dd8:	00000001 	andeq	r0, r0, r1
    1ddc:	00000000 	andeq	r0, r0, r0
    1de0:	00000004 	andeq	r0, r0, r4
    1de4:	04500001 	ldrbeq	r0, [r0], #-1
    1de8:	1c000000 	stcne	0, cr0, [r0], {-0}
    1dec:	01000000 	mrseq	r0, (UNDEF: 0)
    1df0:	001c5200 	andseq	r5, ip, r0, lsl #4
    1df4:	00240000 	eoreq	r0, r4, r0
    1df8:	00010000 	andeq	r0, r1, r0
    1dfc:	00002453 	andeq	r2, r0, r3, asr r4
    1e00:	00002800 	andeq	r2, r0, r0, lsl #16
    1e04:	73000300 	movwvc	r0, #768	; 0x300
    1e08:	00289f01 	eoreq	r9, r8, r1, lsl #30
    1e0c:	00340000 	eorseq	r0, r4, r0
    1e10:	00010000 	andeq	r0, r1, r0
    1e14:	00000053 	andeq	r0, r0, r3, asr r0
    1e18:	00000000 	andeq	r0, r0, r0
    1e1c:	00000300 	andeq	r0, r0, r0, lsl #6
    1e20:	00000000 	andeq	r0, r0, r0
    1e24:	00002400 	andeq	r2, r0, r0, lsl #8
    1e28:	51000100 	mrspl	r0, (UNDEF: 16)
    1e2c:	00000024 	andeq	r0, r0, r4, lsr #32
    1e30:	00000034 	andeq	r0, r0, r4, lsr r0
    1e34:	7f710003 	svcvc	0x00710003
    1e38:	0000009f 	muleq	r0, pc, r0	; <UNPREDICTABLE>
	...
    1e44:	00001000 	andeq	r1, r0, r0
    1e48:	00001c00 	andeq	r1, r0, r0, lsl #24
    1e4c:	5c000100 	stfpls	f0, [r0], {-0}
    1e50:	00000024 	andeq	r0, r0, r4, lsr #32
    1e54:	00000034 	andeq	r0, r0, r4, lsr r0
    1e58:	00520001 	subseq	r0, r2, r1
	...
    1e68:	18000000 	stmdane	r0, {}	; <UNPREDICTABLE>
    1e6c:	01000000 	mrseq	r0, (UNDEF: 0)
    1e70:	00185000 	andseq	r5, r8, r0
    1e74:	00240000 	eoreq	r0, r4, r0
    1e78:	00010000 	andeq	r0, r1, r0
    1e7c:	00000050 	andeq	r0, r0, r0, asr r0
	...
    1e8c:	00001c00 	andeq	r1, r0, r0, lsl #24
    1e90:	51000100 	mrspl	r0, (UNDEF: 16)
    1e94:	0000001c 	andeq	r0, r0, ip, lsl r0
    1e98:	0000002c 	andeq	r0, r0, ip, lsr #32
    1e9c:	00510001 	subseq	r0, r1, r1
	...
    1eb0:	00000400 	andeq	r0, r0, r0, lsl #8
    1eb4:	51000100 	mrspl	r0, (UNDEF: 16)
    1eb8:	00000004 	andeq	r0, r0, r4
    1ebc:	0000000c 	andeq	r0, r0, ip
    1ec0:	0c510001 	mrrceq	0, 0, r0, r1, cr1
    1ec4:	20000000 	andcs	r0, r0, r0
    1ec8:	03000000 	movweq	r0, #0
    1ecc:	9f7f7100 	svcls	0x007f7100
	...
    1ed8:	00000002 	andeq	r0, r0, r2
    1edc:	00000000 	andeq	r0, r0, r0
    1ee0:	00040000 	andeq	r0, r4, r0
    1ee4:	00010000 	andeq	r0, r1, r0
    1ee8:	00000450 	andeq	r0, r0, r0, asr r4
    1eec:	00001400 	andeq	r1, r0, r0, lsl #8
    1ef0:	5c000100 	stfpls	f0, [r0], {-0}
    1ef4:	00000014 	andeq	r0, r0, r4, lsl r0
    1ef8:	00000020 	andeq	r0, r0, r0, lsr #32
    1efc:	7f7c0003 	svcvc	0x007c0003
    1f00:	0000009f 	muleq	r0, pc, r0	; <UNPREDICTABLE>
    1f04:	00000000 	andeq	r0, r0, r0
    1f08:	03030000 	movweq	r0, #12288	; 0x3000
    1f0c:	00949400 	addseq	r9, r4, r0, lsl #8
    1f10:	00949400 	addseq	r9, r4, r0, lsl #8
    1f14:	50000100 	andpl	r0, r0, r0, lsl #2
    1f18:	00009494 	muleq	r0, r4, r4
    1f1c:	000094c0 	andeq	r9, r0, r0, asr #9
    1f20:	01f30004 	mvnseq	r0, r4
    1f24:	00009f50 	andeq	r9, r0, r0, asr pc
    1f28:	00000000 	andeq	r0, r0, r0
    1f2c:	03000000 	movweq	r0, #0
    1f30:	94940003 	ldrls	r0, [r4], #3
    1f34:	94940000 	ldrls	r0, [r4], #0
    1f38:	00010000 	andeq	r0, r1, r0
    1f3c:	00949451 	addseq	r9, r4, r1, asr r4
    1f40:	0094c000 	addseq	ip, r4, r0
    1f44:	f3000400 	vshl.u8	d0, d0, d0
    1f48:	009f5101 	addseq	r5, pc, r1, lsl #2
	...
    1f54:	00000303 	andeq	r0, r0, r3, lsl #6
    1f58:	00949400 	addseq	r9, r4, r0, lsl #8
    1f5c:	00949400 	addseq	r9, r4, r0, lsl #8
    1f60:	52000100 	andpl	r0, r0, #0
    1f64:	00009494 	muleq	r0, r4, r4
    1f68:	0000949c 	muleq	r0, ip, r4
    1f6c:	9c520001 	mrrcls	0, 0, r0, r2, cr1
    1f70:	c0000094 	mulgt	r0, r4, r0
    1f74:	03000094 	movweq	r0, #148	; 0x94
    1f78:	9f017200 	svcls	0x00017200
	...
    1f84:	00010102 	andeq	r0, r1, r2, lsl #2
    1f88:	00000000 	andeq	r0, r0, r0
    1f8c:	00009494 	muleq	r0, r4, r4
    1f90:	000094a0 	andeq	r9, r0, r0, lsr #9
    1f94:	a0500001 	subsge	r0, r0, r1
    1f98:	a4000094 	strge	r0, [r0], #-148	; 0xffffff6c
    1f9c:	03000094 	movweq	r0, #148	; 0x94
    1fa0:	9f017000 	svcls	0x00017000
    1fa4:	000094a4 	andeq	r9, r0, r4, lsr #9
    1fa8:	000094b4 			; <UNDEFINED> instruction: 0x000094b4
    1fac:	b8500001 	ldmdalt	r0, {r0}^
    1fb0:	bc000094 	stclt	0, cr0, [r0], {148}	; 0x94
    1fb4:	01000094 	swpeq	r0, r4, [r0]	; <UNPREDICTABLE>
    1fb8:	00005000 	andeq	r5, r0, r0
    1fbc:	00000000 	andeq	r0, r0, r0
    1fc0:	00020000 	andeq	r0, r2, r0
    1fc4:	00000000 	andeq	r0, r0, r0
    1fc8:	00009494 	muleq	r0, r4, r4
    1fcc:	000094a4 	andeq	r9, r0, r4, lsr #9
    1fd0:	a4510001 	ldrbge	r0, [r1], #-1
    1fd4:	a8000094 	stmdage	r0, {r2, r4, r7}
    1fd8:	03000094 	movweq	r0, #148	; 0x94
    1fdc:	9f017100 	svcls	0x00017100
    1fe0:	000094a8 	andeq	r9, r0, r8, lsr #9
    1fe4:	000094c0 	andeq	r9, r0, r0, asr #9
    1fe8:	00510001 	subseq	r0, r1, r1
    1fec:	00000000 	andeq	r0, r0, r0
    1ff0:	Address 0x0000000000001ff0 is out of bounds.


Disassembly of section .debug_aranges:

00000000 <.debug_aranges>:
   0:	0000001c 	andeq	r0, r0, ip, lsl r0
   4:	00000002 	andeq	r0, r0, r2
   8:	00040000 	andeq	r0, r4, r0
   c:	00000000 	andeq	r0, r0, r0
  10:	00008038 	andeq	r8, r0, r8, lsr r0
  14:	000000e0 	andeq	r0, r0, r0, ror #1
	...
  20:	0000001c 	andeq	r0, r0, ip, lsl r0
  24:	03200002 			; <UNDEFINED> instruction: 0x03200002
  28:	00040000 	andeq	r0, r4, r0
  2c:	00000000 	andeq	r0, r0, r0
  30:	00008118 	andeq	r8, r0, r8, lsl r1
  34:	00000290 	muleq	r0, r0, r2
	...
  40:	0000001c 	andeq	r0, r0, ip, lsl r0
  44:	104e0002 	subne	r0, lr, r2
  48:	00040000 	andeq	r0, r4, r0
  4c:	00000000 	andeq	r0, r0, r0
  50:	000083a8 	andeq	r8, r0, r8, lsr #7
  54:	00000018 	andeq	r0, r0, r8, lsl r0
	...
  60:	0000001c 	andeq	r0, r0, ip, lsl r0
  64:	118c0002 	orrne	r0, ip, r2
  68:	00040000 	andeq	r0, r4, r0
  6c:	00000000 	andeq	r0, r0, r0
  70:	000083c0 	andeq	r8, r0, r0, asr #7
  74:	00000058 	andeq	r0, r0, r8, asr r0
	...
  80:	0000001c 	andeq	r0, r0, ip, lsl r0
  84:	132d0002 			; <UNDEFINED> instruction: 0x132d0002
  88:	00040000 	andeq	r0, r4, r0
  8c:	00000000 	andeq	r0, r0, r0
  90:	00008418 	andeq	r8, r0, r8, lsl r4
  94:	00000034 	andeq	r0, r0, r4, lsr r0
	...
  a0:	0000001c 	andeq	r0, r0, ip, lsl r0
  a4:	14240002 	strtne	r0, [r4], #-2
  a8:	00040000 	andeq	r0, r4, r0
  ac:	00000000 	andeq	r0, r0, r0
  b0:	0000844c 	andeq	r8, r0, ip, asr #8
  b4:	00000740 	andeq	r0, r0, r0, asr #14
	...
  c0:	0000001c 	andeq	r0, r0, ip, lsl r0
  c4:	1eff0002 	cdpne	0, 15, cr0, cr15, cr2, {0}
  c8:	00040000 	andeq	r0, r4, r0
  cc:	00000000 	andeq	r0, r0, r0
  d0:	00008b8c 	andeq	r8, r0, ip, lsl #23
  d4:	00000020 	andeq	r0, r0, r0, lsr #32
	...
  e0:	0000001c 	andeq	r0, r0, ip, lsl r0
  e4:	200d0002 	andcs	r0, sp, r2
  e8:	00040000 	andeq	r0, r4, r0
  ec:	00000000 	andeq	r0, r0, r0
  f0:	00008bac 	andeq	r8, r0, ip, lsr #23
  f4:	0000002c 	andeq	r0, r0, ip, lsr #32
	...
 100:	0000001c 	andeq	r0, r0, ip, lsl r0
 104:	21400002 	cmpcs	r0, r2
 108:	00040000 	andeq	r0, r4, r0
 10c:	00000000 	andeq	r0, r0, r0
 110:	00008bd8 	ldrdeq	r8, [r0], -r8	; <UNPREDICTABLE>
 114:	0000003c 	andeq	r0, r0, ip, lsr r0
	...
 120:	0000001c 	andeq	r0, r0, ip, lsl r0
 124:	22cd0002 	sbccs	r0, sp, #2, 0
 128:	00040000 	andeq	r0, r4, r0
 12c:	00000000 	andeq	r0, r0, r0
 130:	00008c14 	andeq	r8, r0, r4, lsl ip
 134:	00000004 	andeq	r0, r0, r4
	...
 140:	0000001c 	andeq	r0, r0, ip, lsl r0
 144:	239f0002 	orrscs	r0, pc, #2, 0
 148:	00040000 	andeq	r0, r4, r0
 14c:	00000000 	andeq	r0, r0, r0
 150:	00008c18 	andeq	r8, r0, r8, lsl ip
 154:	00000080 	andeq	r0, r0, r0, lsl #1
	...
 160:	0000001c 	andeq	r0, r0, ip, lsl r0
 164:	25d90002 	ldrbcs	r0, [r9, #2]
 168:	00040000 	andeq	r0, r4, r0
 16c:	00000000 	andeq	r0, r0, r0
 170:	00008c98 	muleq	r0, r8, ip
 174:	00000084 	andeq	r0, r0, r4, lsl #1
	...
 180:	0000001c 	andeq	r0, r0, ip, lsl r0
 184:	282a0002 	stmdacs	sl!, {r1}
 188:	00040000 	andeq	r0, r4, r0
 18c:	00000000 	andeq	r0, r0, r0
 190:	00008d1c 	andeq	r8, r0, ip, lsl sp
 194:	0000011c 	andeq	r0, r0, ip, lsl r1
	...
 1a0:	0000001c 	andeq	r0, r0, ip, lsl r0
 1a4:	2bd30002 	blcs	ff4c01b4 <__bss_end__+0xff4b6524>
 1a8:	00040000 	andeq	r0, r4, r0
 1ac:	00000000 	andeq	r0, r0, r0
 1b0:	00008e38 	andeq	r8, r0, r8, lsr lr
 1b4:	000001f0 	strdeq	r0, [r0], -r0	; <UNPREDICTABLE>
	...
 1c0:	0000001c 	andeq	r0, r0, ip, lsl r0
 1c4:	31a40002 			; <UNDEFINED> instruction: 0x31a40002
 1c8:	00040000 	andeq	r0, r4, r0
 1cc:	00000000 	andeq	r0, r0, r0
 1d0:	00009028 	andeq	r9, r0, r8, lsr #32
 1d4:	000003b0 			; <UNDEFINED> instruction: 0x000003b0
	...
 1e0:	0000001c 	andeq	r0, r0, ip, lsl r0
 1e4:	3a910002 	bcc	fe4401f4 <__bss_end__+0xfe436564>
 1e8:	00040000 	andeq	r0, r4, r0
 1ec:	00000000 	andeq	r0, r0, r0
 1f0:	000093d8 	ldrdeq	r9, [r0], -r8
 1f4:	0000003c 	andeq	r0, r0, ip, lsr r0
	...
 200:	0000001c 	andeq	r0, r0, ip, lsl r0
 204:	3bde0002 	blcc	ff780214 <__bss_end__+0xff776584>
 208:	00040000 	andeq	r0, r4, r0
 20c:	00000000 	andeq	r0, r0, r0
 210:	00009414 	andeq	r9, r0, r4, lsl r4
 214:	00000034 	andeq	r0, r0, r4, lsr r0
	...
 220:	0000001c 	andeq	r0, r0, ip, lsl r0
 224:	3d190002 	ldccc	0, cr0, [r9, #-8]
 228:	00040000 	andeq	r0, r4, r0
 22c:	00000000 	andeq	r0, r0, r0
 230:	00009448 	andeq	r9, r0, r8, asr #8
 234:	0000002c 	andeq	r0, r0, ip, lsr #32
	...
 240:	0000001c 	andeq	r0, r0, ip, lsl r0
 244:	3e140002 	cdpcc	0, 1, cr0, cr4, cr2, {0}
 248:	00040000 	andeq	r0, r4, r0
 24c:	00000000 	andeq	r0, r0, r0
 250:	00009474 	andeq	r9, r0, r4, ror r4
 254:	00000020 	andeq	r0, r0, r0, lsr #32
	...
 260:	0000001c 	andeq	r0, r0, ip, lsl r0
 264:	3f270002 	svccc	0x00270002
 268:	00040000 	andeq	r0, r4, r0
 26c:	00000000 	andeq	r0, r0, r0
 270:	00009494 	muleq	r0, r4, r4
 274:	0000002c 	andeq	r0, r0, ip, lsr #32
	...
 280:	0000001c 	andeq	r0, r0, ip, lsl r0
 284:	40790002 	rsbsmi	r0, r9, r2
 288:	00040000 	andeq	r0, r4, r0
 28c:	00000000 	andeq	r0, r0, r0
 290:	000094c0 	andeq	r9, r0, r0, asr #9
 294:	00000004 	andeq	r0, r0, r4
	...

Disassembly of section .debug_ranges:

00000000 <.debug_ranges>:
   0:	0000008c 	andeq	r0, r0, ip, lsl #1
   4:	0000008c 	andeq	r0, r0, ip, lsl #1
   8:	00000090 	muleq	r0, r0, r0
   c:	000000cc 	andeq	r0, r0, ip, asr #1
	...
  18:	00000004 	andeq	r0, r0, r4
  1c:	0000002c 	andeq	r0, r0, ip, lsr #32
  20:	0000002c 	andeq	r0, r0, ip, lsr #32
  24:	00000060 	andeq	r0, r0, r0, rrx
  28:	00000060 	andeq	r0, r0, r0, rrx
  2c:	00000070 	andeq	r0, r0, r0, ror r0
  30:	00000070 	andeq	r0, r0, r0, ror r0
  34:	0000008c 	andeq	r0, r0, ip, lsl #1
  38:	0000008c 	andeq	r0, r0, ip, lsl #1
  3c:	000000b4 	strheq	r0, [r0], -r4
	...
  48:	00000004 	andeq	r0, r0, r4
  4c:	0000002c 	andeq	r0, r0, ip, lsr #32
  50:	0000002c 	andeq	r0, r0, ip, lsr #32
  54:	00000048 	andeq	r0, r0, r8, asr #32
  58:	00000054 	andeq	r0, r0, r4, asr r0
  5c:	00000060 	andeq	r0, r0, r0, rrx
  60:	00000060 	andeq	r0, r0, r0, rrx
  64:	00000070 	andeq	r0, r0, r0, ror r0
  68:	00000070 	andeq	r0, r0, r0, ror r0
  6c:	0000008c 	andeq	r0, r0, ip, lsl #1
  70:	0000008c 	andeq	r0, r0, ip, lsl #1
  74:	000000b4 	strheq	r0, [r0], -r4
	...
  80:	00000004 	andeq	r0, r0, r4
  84:	0000002c 	andeq	r0, r0, ip, lsr #32
  88:	0000002c 	andeq	r0, r0, ip, lsr #32
  8c:	00000048 	andeq	r0, r0, r8, asr #32
  90:	00000054 	andeq	r0, r0, r4, asr r0
  94:	00000054 	andeq	r0, r0, r4, asr r0
  98:	00000058 	andeq	r0, r0, r8, asr r0
  9c:	00000060 	andeq	r0, r0, r0, rrx
  a0:	00000060 	andeq	r0, r0, r0, rrx
  a4:	00000070 	andeq	r0, r0, r0, ror r0
  a8:	00000070 	andeq	r0, r0, r0, ror r0
  ac:	0000008c 	andeq	r0, r0, ip, lsl #1
  b0:	0000008c 	andeq	r0, r0, ip, lsl #1
  b4:	000000b4 	strheq	r0, [r0], -r4
	...
  c0:	00000004 	andeq	r0, r0, r4
  c4:	0000001c 	andeq	r0, r0, ip, lsl r0
  c8:	00000070 	andeq	r0, r0, r0, ror r0
  cc:	00000070 	andeq	r0, r0, r0, ror r0
  d0:	00000070 	andeq	r0, r0, r0, ror r0
  d4:	0000008c 	andeq	r0, r0, ip, lsl #1
	...
  e0:	00000004 	andeq	r0, r0, r4
  e4:	0000001c 	andeq	r0, r0, ip, lsl r0
  e8:	00000070 	andeq	r0, r0, r0, ror r0
  ec:	0000008c 	andeq	r0, r0, ip, lsl #1
	...
  f8:	00000004 	andeq	r0, r0, r4
  fc:	00000014 	andeq	r0, r0, r4, lsl r0
 100:	00000078 	andeq	r0, r0, r8, ror r0
 104:	0000007c 	andeq	r0, r0, ip, ror r0
	...
 110:	00000014 	andeq	r0, r0, r4, lsl r0
 114:	0000001c 	andeq	r0, r0, ip, lsl r0
 118:	0000007c 	andeq	r0, r0, ip, ror r0
 11c:	0000008c 	andeq	r0, r0, ip, lsl #1
	...
 128:	0000001c 	andeq	r0, r0, ip, lsl r0
 12c:	0000002c 	andeq	r0, r0, ip, lsr #32
 130:	00000060 	andeq	r0, r0, r0, rrx
 134:	00000060 	andeq	r0, r0, r0, rrx
 138:	00000060 	andeq	r0, r0, r0, rrx
 13c:	00000070 	andeq	r0, r0, r0, ror r0
	...
 148:	0000001c 	andeq	r0, r0, ip, lsl r0
 14c:	0000002c 	andeq	r0, r0, ip, lsr #32
 150:	00000060 	andeq	r0, r0, r0, rrx
 154:	00000070 	andeq	r0, r0, r0, ror r0
	...
 160:	0000002c 	andeq	r0, r0, ip, lsr #32
 164:	0000002c 	andeq	r0, r0, ip, lsr #32
 168:	0000002c 	andeq	r0, r0, ip, lsr #32
 16c:	00000048 	andeq	r0, r0, r8, asr #32
	...
 178:	0000008c 	andeq	r0, r0, ip, lsl #1
 17c:	0000008c 	andeq	r0, r0, ip, lsl #1
 180:	0000008c 	andeq	r0, r0, ip, lsl #1
 184:	000000b4 	strheq	r0, [r0], -r4
	...
 190:	00000114 	andeq	r0, r0, r4, lsl r1
 194:	00000114 	andeq	r0, r0, r4, lsl r1
 198:	00000114 	andeq	r0, r0, r4, lsl r1
 19c:	00000114 	andeq	r0, r0, r4, lsl r1
 1a0:	00000114 	andeq	r0, r0, r4, lsl r1
 1a4:	0000011c 	andeq	r0, r0, ip, lsl r1
 1a8:	00000120 	andeq	r0, r0, r0, lsr #2
 1ac:	00000144 	andeq	r0, r0, r4, asr #2
	...
 1b8:	0000011c 	andeq	r0, r0, ip, lsl r1
 1bc:	0000011c 	andeq	r0, r0, ip, lsl r1
 1c0:	00000120 	andeq	r0, r0, r0, lsr #2
 1c4:	00000130 	andeq	r0, r0, r0, lsr r1
	...
 1d0:	00000214 	andeq	r0, r0, r4, lsl r2
 1d4:	00000218 	andeq	r0, r0, r8, lsl r2
 1d8:	0000021c 	andeq	r0, r0, ip, lsl r2
 1dc:	00000240 	andeq	r0, r0, r0, asr #4
	...
 1e8:	00008b8c 	andeq	r8, r0, ip, lsl #23
 1ec:	00008bac 	andeq	r8, r0, ip, lsr #23
	...
 1f8:	00008c18 	andeq	r8, r0, r8, lsl ip
 1fc:	00008c98 	muleq	r0, r8, ip
	...
 208:	00000134 	andeq	r0, r0, r4, lsr r1
 20c:	00000134 	andeq	r0, r0, r4, lsr r1
 210:	00000134 	andeq	r0, r0, r4, lsr r1
 214:	0000013c 	andeq	r0, r0, ip, lsr r1
	...
 220:	0000024c 	andeq	r0, r0, ip, asr #4
 224:	00000264 	andeq	r0, r0, r4, ror #4
 228:	000002c8 	andeq	r0, r0, r8, asr #5
 22c:	000002e8 	andeq	r0, r0, r8, ror #5
	...
 238:	00009494 	muleq	r0, r4, r4
 23c:	000094c0 	andeq	r9, r0, r0, asr #9
	...

Disassembly of section .debug_line:

00000000 <.debug_line>:
       0:	0000014e 	andeq	r0, r0, lr, asr #2
       4:	009e0003 	addseq	r0, lr, r3
       8:	01020000 	mrseq	r0, (UNDEF: 2)
       c:	000d0efb 	strdeq	r0, [sp], -fp
      10:	01010101 	tsteq	r1, r1, lsl #2
      14:	01000000 	mrseq	r0, (UNDEF: 0)
      18:	2f010000 	svccs	0x00010000
      1c:	72657355 	rsbvc	r7, r5, #1409286145	; 0x54000001
      20:	72652f73 	rsbvc	r2, r5, #460	; 0x1cc
      24:	65626369 	strbvs	r6, [r2, #-873]!	; 0xfffffc97
      28:	442f7261 	strtmi	r7, [pc], #-609	; 30 <__code_start__-0x7fd0>
      2c:	6d75636f 	ldclvs	3, cr6, [r5, #-444]!	; 0xfffffe44
      30:	73746e65 	cmnvc	r4, #1616	; 0x650
      34:	3153432f 	cmpcc	r3, pc, lsr #6
      38:	2f453034 	svccs	0x00453034
      3c:	34317363 	ldrtcc	r7, [r1], #-867	; 0xfffffc9d
      40:	662d4530 			; <UNDEFINED> instruction: 0x662d4530
      44:	6c616e69 	stclvs	14, cr6, [r1], #-420	; 0xfffffe5c
      48:	6f72702d 	svcvs	0x0072702d
      4c:	7463656a 	strbtvc	r6, [r3], #-1386	; 0xfffffa96
      50:	62696c2f 	rsbvs	r6, r9, #12032	; 0x2f00
      54:	34322d73 	ldrtcc	r2, [r2], #-3443	; 0xfffff28d
      58:	2f786c30 	svccs	0x00786c30
      5c:	7062696c 	rsbvc	r6, r2, ip, ror #18
      60:	6e692f69 	cdpvs	15, 6, cr2, cr9, cr9, {3}
      64:	64756c63 	ldrbtvs	r6, [r5], #-3171	; 0xfffff39d
      68:	32000065 	andcc	r0, r0, #101, 0	; 0x65
      6c:	6f656e2d 	svcvs	0x00656e2d
      70:	2e786970 			; <UNDEFINED> instruction: 0x2e786970
      74:	00000063 	andeq	r0, r0, r3, rrx
      78:	69707200 	ldmdbvs	r0!, {r9, ip, sp, lr}^
      7c:	0100682e 	tsteq	r0, lr, lsr #16
      80:	53570000 	cmppl	r7, #0, 0
      84:	32313832 	eorscc	r3, r1, #3276800	; 0x320000
      88:	00682e42 	rsbeq	r2, r8, r2, asr #28
      8c:	67000000 	strvs	r0, [r0, -r0]
      90:	2e6f6970 			; <UNDEFINED> instruction: 0x2e6f6970
      94:	00010068 	andeq	r0, r1, r8, rrx
      98:	6f656e00 	svcvs	0x00656e00
      9c:	65786970 	ldrbvs	r6, [r8, #-2416]!	; 0xfffff690
      a0:	00682e6c 	rsbeq	r2, r8, ip, ror #28
      a4:	00000000 	andeq	r0, r0, r0
      a8:	05002305 	streq	r2, [r0, #-773]	; 0xfffffcfb
      ac:	00803802 	addeq	r3, r0, r2, lsl #16
      b0:	010e0300 	mrseq	r0, ELR_hyp
      b4:	05050106 	streq	r0, [r5, #-262]	; 0xfffffefa
      b8:	9e068306 	cdpls	3, 0, cr8, cr6, cr6, {0}
      bc:	d7bb2f06 	ldrle	r2, [fp, r6, lsl #30]!
      c0:	4b060105 	blmi	1804dc <__bss_end__+0x17684c>
      c4:	0614054a 	ldreq	r0, [r4], -sl, asr #10
      c8:	a4020500 	strge	r0, [r2], #-1280	; 0xfffffb00
      cc:	14000080 	strne	r0, [r0], #-128	; 0xffffff80
      d0:	2f2f0505 	svccs	0x002f0505
      d4:	0f05134f 	svceq	0x0005134f
      d8:	05050106 	streq	r0, [r5, #-262]	; 0xfffffefa
      dc:	09058a06 	stmdbeq	r5, {r1, r2, r9, fp, pc}
      e0:	01140501 	tsteq	r4, r1, lsl #10
      e4:	03060f05 	movweq	r0, #28421	; 0x6f05
      e8:	09050178 	stmdbeq	r5, {r3, r4, r5, r6, r8}
      ec:	062e0903 	strteq	r0, [lr], -r3, lsl #18
      f0:	062e062e 	strteq	r0, [lr], -lr, lsr #12
      f4:	010d054b 	tsteq	sp, fp, asr #10
      f8:	05011805 	streq	r1, [r1, #-2053]	; 0xfffff7fb
      fc:	05010611 	streq	r0, [r1, #-1553]	; 0xfffff9ef
     100:	0402000d 	streq	r0, [r2], #-13
     104:	002f0603 	eoreq	r0, pc, r3, lsl #12
     108:	67030402 	strvs	r0, [r3, -r2, lsl #8]
     10c:	02002505 	andeq	r2, r0, #20971520	; 0x1400000
     110:	05480304 	strbeq	r0, [r8, #-772]	; 0xfffffcfc
     114:	04020026 	streq	r0, [r2], #-38	; 0xffffffda
     118:	05010603 	streq	r0, [r1, #-1539]	; 0xfffff9fd
     11c:	04020018 	streq	r0, [r2], #-24	; 0xffffffe8
     120:	052e0603 	streq	r0, [lr, #-1539]!	; 0xfffff9fd
     124:	04020009 	streq	r0, [r2], #-9
     128:	05010603 	streq	r0, [r1, #-1539]	; 0xfffff9fd
     12c:	0402001c 	streq	r0, [r2], #-28	; 0xffffffe4
     130:	05480602 	strbeq	r0, [r8, #-1538]	; 0xfffff9fe
     134:	04020014 	streq	r0, [r2], #-20	; 0xffffffec
     138:	05050102 	streq	r0, [r5, #-258]	; 0xfffffefe
     13c:	02040200 	andeq	r0, r4, #0, 4
     140:	02000106 	andeq	r0, r0, #-2147483647	; 0x80000001
     144:	062e0204 	strteq	r0, [lr], -r4, lsl #4
     148:	06010535 			; <UNDEFINED> instruction: 0x06010535
     14c:	0006024b 	andeq	r0, r6, fp, asr #4
     150:	04e20101 	strbteq	r0, [r2], #257	; 0x101
     154:	00030000 	andeq	r0, r3, r0
     158:	00000107 	andeq	r0, r0, r7, lsl #2
     15c:	0efb0102 	cdpeq	1, 15, cr0, cr11, cr2, {0}
     160:	0101000d 	tsteq	r1, sp
     164:	00000101 	andeq	r0, r0, r1, lsl #2
     168:	00000100 	andeq	r0, r0, r0, lsl #2
     16c:	73752f01 	cmnvc	r5, #1, 30
     170:	6f6c2f72 	svcvs	0x006c2f72
     174:	2f6c6163 	svccs	0x006c6163
     178:	6c6c6543 	cfstr64vs	mvdx6, [ip], #-268	; 0xfffffef4
     17c:	612f7261 			; <UNDEFINED> instruction: 0x612f7261
     180:	6e2d6d72 	mcrvs	13, 1, r6, cr13, cr2, {3}
     184:	2d656e6f 	stclcs	14, cr6, [r5, #-444]!	; 0xfffffe44
     188:	69626165 	stmdbvs	r2!, {r0, r2, r5, r6, r8, sp, lr}^
     18c:	7365742d 	cmnvc	r5, #754974720	; 0x2d000000
     190:	2d392f74 	ldccs	15, cr2, [r9, #-464]!	; 0xfffffe30
     194:	39313032 	ldmdbcc	r1!, {r1, r4, r5, ip, sp}
     198:	632d3471 			; <UNDEFINED> instruction: 0x632d3471
     19c:	37303173 			; <UNDEFINED> instruction: 0x37303173
     1a0:	696c2f65 	stmdbvs	ip!, {r0, r2, r5, r6, r8, r9, sl, fp, sp}^
     1a4:	63672f62 	cmnvs	r7, #392	; 0x188
     1a8:	72612f63 	rsbvc	r2, r1, #396	; 0x18c
     1ac:	6f6e2d6d 	svcvs	0x006e2d6d
     1b0:	652d656e 	strvs	r6, [sp, #-1390]!	; 0xfffffa92
     1b4:	2f696261 	svccs	0x00696261
     1b8:	2e322e39 	mrccs	14, 1, r2, cr2, cr9, {1}
     1bc:	6e692f31 	mcrvs	15, 3, r2, cr9, cr1, {1}
     1c0:	64756c63 	ldrbtvs	r6, [r5], #-3171	; 0xfffff39d
     1c4:	552f0065 	strpl	r0, [pc, #-101]!	; 167 <__code_start__-0x7e99>
     1c8:	73726573 	cmnvc	r2, #482344960	; 0x1cc00000
     1cc:	6972652f 	ldmdbvs	r2!, {r0, r1, r2, r3, r5, r8, sl, sp, lr}^
     1d0:	61656263 	cmnvs	r5, r3, ror #4
     1d4:	6f442f72 	svcvs	0x00442f72
     1d8:	656d7563 	strbvs	r7, [sp, #-1379]!	; 0xfffffa9d
     1dc:	2f73746e 	svccs	0x0073746e
     1e0:	34315343 	ldrtcc	r5, [r1], #-835	; 0xfffffcbd
     1e4:	632f4530 			; <UNDEFINED> instruction: 0x632f4530
     1e8:	30343173 	eorscc	r3, r4, r3, ror r1
     1ec:	69662d45 	stmdbvs	r6!, {r0, r2, r6, r8, sl, fp, sp}^
     1f0:	2d6c616e 	stfcse	f6, [ip, #-440]!	; 0xfffffe48
     1f4:	6a6f7270 	bvs	1bdcbbc <__bss_end__+0x1bd2f2c>
     1f8:	2f746365 	svccs	0x00746365
     1fc:	7362696c 	cmnvc	r2, #108, 18	; 0x1b0000
     200:	3034322d 	eorscc	r3, r4, sp, lsr #4
     204:	6c2f786c 	stcvs	8, cr7, [pc], #-432	; 5c <__code_start__-0x7fa4>
     208:	69706269 	ldmdbvs	r0!, {r0, r3, r5, r6, r9, sp, lr}^
     20c:	636e692f 	cmnvs	lr, #770048	; 0xbc000
     210:	6564756c 	strbvs	r7, [r4, #-1388]!	; 0xfffffa94
     214:	53570000 	cmppl	r7, #0, 0
     218:	32313832 	eorscc	r3, r1, #3276800	; 0x320000
     21c:	00682e42 	rsbeq	r2, r8, r2, asr #28
     220:	6e000000 	cdpvs	0, 0, cr0, cr0, cr0, {0}
     224:	69706f65 	ldmdbvs	r0!, {r0, r2, r5, r6, r8, r9, sl, fp, sp, lr}^
     228:	2e6c6578 	mcrcs	5, 3, r6, cr12, cr8, {3}
     22c:	00000063 	andeq	r0, r0, r3, rrx
     230:	64747300 	ldrbtvs	r7, [r4], #-768	; 0xfffffd00
     234:	2d746e69 	ldclcs	14, cr6, [r4, #-420]!	; 0xfffffe5c
     238:	2e636367 	cdpcs	3, 6, cr6, cr3, cr7, {3}
     23c:	00010068 	andeq	r0, r1, r8, rrx
     240:	69707200 	ldmdbvs	r0!, {r9, ip, sp, lr}^
     244:	0200682e 	andeq	r6, r0, #3014656	; 0x2e0000
     248:	656e0000 	strbvs	r0, [lr, #-0]!
     24c:	7869706f 	stmdavc	r9!, {r0, r1, r2, r3, r5, r6, ip, sp, lr}^
     250:	682e6c65 	stmdavs	lr!, {r0, r2, r5, r6, sl, fp, sp, lr}
     254:	00000000 	andeq	r0, r0, r0
     258:	6f697067 	svcvs	0x00697067
     25c:	0200682e 	andeq	r6, r0, #3014656	; 0x2e0000
     260:	05000000 	streq	r0, [r0, #-0]
     264:	02050033 	andeq	r0, r5, #51, 0	; 0x33
     268:	00008118 	andeq	r8, r0, r8, lsl r1
     26c:	0101e203 	tsteq	r1, r3, lsl #4
     270:	05050106 	streq	r0, [r5, #-262]	; 0xfffffefa
     274:	0a052f06 	beq	14be94 <__bss_end__+0x142204>
     278:	011a0501 	tsteq	sl, r1, lsl #10
     27c:	03062b05 	movweq	r2, #27397	; 0x6b05
     280:	4a017f9c 	bmi	600f8 <__bss_end__+0x56468>
     284:	052e2605 	streq	r2, [lr, #-1541]!	; 0xfffff9fb
     288:	2e0a030b 	cdpcs	3, 0, cr0, cr10, cr11, {0}
     28c:	0639054a 	ldrteq	r0, [r9], -sl, asr #10
     290:	010b0501 	tsteq	fp, r1, lsl #10
     294:	01011205 	tsteq	r1, r5, lsl #4
     298:	0501062e 	streq	r0, [r1, #-1582]	; 0xfffff9d2
     29c:	0b050124 	bleq	140734 <__bss_end__+0x136aa4>
     2a0:	09054a2e 	stmdbeq	r5, {r1, r2, r3, r5, r9, fp, lr}
     2a4:	00cd0306 	sbceq	r0, sp, r6, lsl #6
     2a8:	03140501 	tsteq	r4, #4194304	; 0x400000
     2ac:	0505016a 	streq	r0, [r5, #-362]	; 0xfffffe96
     2b0:	03140513 	tsteq	r4, #79691776	; 0x4c00000
     2b4:	0505016a 	streq	r0, [r5, #-362]	; 0xfffffe96
     2b8:	011a0514 	tsteq	sl, r4, lsl r5
     2bc:	0e052e01 	cdpeq	14, 0, cr2, cr5, cr1, {0}
     2c0:	05050106 	streq	r0, [r5, #-262]	; 0xfffffefa
     2c4:	14052f06 	strne	r2, [r5], #-3846	; 0xfffff0fa
     2c8:	05015303 	streq	r5, [r1, #-771]	; 0xfffffcfd
     2cc:	26051405 	strcs	r1, [r5], -r5, lsl #8
     2d0:	052e0106 	streq	r0, [lr, #-262]!	; 0xfffffefa
     2d4:	05180639 	ldreq	r0, [r8, #-1593]	; 0xfffff9c7
     2d8:	1205010b 	andne	r0, r5, #-1073741822	; 0xc0000002
     2dc:	062e0101 	strteq	r0, [lr], -r1, lsl #2
     2e0:	01240501 			; <UNDEFINED> instruction: 0x01240501
     2e4:	4a2e0b05 	bmi	b82f00 <__bss_end__+0xb79270>
     2e8:	03062105 	movweq	r2, #24837	; 0x6105
     2ec:	050100da 	streq	r0, [r1, #-218]	; 0xffffff26
     2f0:	0505011a 	streq	r0, [r5, #-282]	; 0xfffffee6
     2f4:	09052e06 	stmdbeq	r5, {r1, r2, r9, sl, fp, sp}
     2f8:	03040200 	movweq	r0, #16896	; 0x4200
     2fc:	02004c06 	andeq	r4, r0, #1536	; 0x600
     300:	05160304 	ldreq	r0, [r6, #-772]	; 0xfffffcfc
     304:	04020014 	streq	r0, [r2], #-20	; 0xffffffec
     308:	01690303 	cmneq	r9, r3, lsl #6
     30c:	02000505 	andeq	r0, r0, #20971520	; 0x1400000
     310:	00130304 	andseq	r0, r3, r4, lsl #6
     314:	01030402 	tsteq	r3, r2, lsl #8
     318:	03040200 	movweq	r0, #16896	; 0x4200
     31c:	04020001 	streq	r0, [r2], #-1
     320:	02000103 	andeq	r0, r0, #-1073741824	; 0xc0000000
     324:	05130304 	ldreq	r0, [r3, #-772]	; 0xfffffcfc
     328:	0402001d 	streq	r0, [r2], #-29	; 0xffffffe3
     32c:	15030603 	strne	r0, [r3, #-1539]	; 0xfffff9fd
     330:	00080501 	andeq	r0, r8, r1, lsl #10
     334:	03030402 	movweq	r0, #13314	; 0x3402
     338:	09052e6b 	stmdbeq	r5, {r0, r1, r3, r5, r6, r9, sl, fp, sp}
     33c:	14054b06 	strne	r4, [r5], #-2822	; 0xfffff4fa
     340:	05016303 	streq	r6, [r1, #-771]	; 0xfffffcfd
     344:	14051305 	strne	r1, [r5], #-773	; 0xfffffcfb
     348:	05016803 	streq	r6, [r1, #-2051]	; 0xfffff7fd
     34c:	1a051405 	bne	145368 <__bss_end__+0x13b6d8>
     350:	052e0101 	streq	r0, [lr, #-257]!	; 0xfffffeff
     354:	0501060e 	streq	r0, [r1, #-1550]	; 0xfffff9f2
     358:	05300605 	ldreq	r0, [r0, #-1541]!	; 0xfffff9fb
     35c:	01580314 	cmpeq	r8, r4, lsl r3
     360:	05140505 	ldreq	r0, [r4, #-1285]	; 0xfffffafb
     364:	05010626 	streq	r0, [r1, #-1574]	; 0xfffff9da
     368:	052e2f01 	streq	r2, [lr, #-3841]!	; 0xfffff0ff
     36c:	d8030609 	stmdale	r3, {r0, r3, r9, sl}
     370:	14050100 	strne	r0, [r5], #-256	; 0xffffff00
     374:	05015b03 	streq	r5, [r1, #-2819]	; 0xfffff4fd
     378:	14051305 	strne	r1, [r5], #-773	; 0xfffffcfb
     37c:	05016d03 	streq	r6, [r1, #-3331]	; 0xfffff2fd
     380:	1a051405 	bne	14539c <__bss_end__+0x13b70c>
     384:	052e0101 	streq	r0, [lr, #-257]!	; 0xfffffeff
     388:	0501060e 	streq	r0, [r1, #-1550]	; 0xfffff9f2
     38c:	05300605 	ldreq	r0, [r0, #-1541]!	; 0xfffff9fb
     390:	01580314 	cmpeq	r8, r4, lsl r3
     394:	05140505 	ldreq	r0, [r4, #-1285]	; 0xfffffafb
     398:	2e010626 	cfmadd32cs	mvax1, mvfx0, mvfx1, mvfx6
     39c:	03063905 	movweq	r3, #26885	; 0x6905
     3a0:	0b05010a 	bleq	1407d0 <__bss_end__+0x136b40>
     3a4:	01120501 	tsteq	r2, r1, lsl #10
     3a8:	01062e01 	tsteq	r6, r1, lsl #28
     3ac:	05012405 	streq	r2, [r1, #-1029]	; 0xfffffbfb
     3b0:	054a2e0b 	strbeq	r2, [sl, #-3595]	; 0xfffff1f5
     3b4:	d0030609 	andle	r0, r3, r9, lsl #12
     3b8:	14050100 	strne	r0, [r5], #-256	; 0xffffff00
     3bc:	05016303 	streq	r6, [r1, #-771]	; 0xfffffcfd
     3c0:	14051305 	strne	r1, [r5], #-773	; 0xfffffcfb
     3c4:	05016e03 	streq	r6, [r1, #-3587]	; 0xfffff1fd
     3c8:	1a051405 	bne	1453e4 <__bss_end__+0x13b754>
     3cc:	052e0101 	streq	r0, [lr, #-257]!	; 0xfffffeff
     3d0:	0501060e 	streq	r0, [r1, #-1550]	; 0xfffff9f2
     3d4:	052f0605 	streq	r0, [pc, #-1541]!	; fffffdd7 <__bss_end__+0xffff6147>
     3d8:	01530314 	cmpeq	r3, r4, lsl r3
     3dc:	05140505 	ldreq	r0, [r4, #-1285]	; 0xfffffafb
     3e0:	2e010626 	cfmadd32cs	mvax1, mvfx0, mvfx1, mvfx6
     3e4:	18063905 	stmdane	r6, {r0, r2, r8, fp, ip, sp}
     3e8:	05010b05 	streq	r0, [r1, #-2821]	; 0xfffff4fb
     3ec:	2e010112 	mcrcs	1, 0, r0, cr1, cr2, {0}
     3f0:	24050106 	strcs	r0, [r5], #-262	; 0xfffffefa
     3f4:	2e0b0501 	cfsh32cs	mvfx0, mvfx11, #1
     3f8:	1c050204 	sfmne	f0, 4, [r5], {4}
     3fc:	7f940306 	svcvc	0x00940306
     400:	0501069e 	streq	r0, [r1, #-1694]	; 0xfffff962
     404:	054d0605 	strbeq	r0, [sp, #-1541]	; 0xfffff9fb
     408:	1a05010a 	bne	140838 <__bss_end__+0x136ba8>
     40c:	06050501 	streq	r0, [r5], -r1, lsl #10
     410:	82130501 	andshi	r0, r3, #4194304	; 0x400000
     414:	02000905 	andeq	r0, r0, #81920	; 0x14000
     418:	2f060304 	svccs	0x00060304
     41c:	14050104 	strne	r0, [r5], #-260	; 0xfffffefc
     420:	03040200 	movweq	r0, #16896	; 0x4200
     424:	6601ce03 	strvs	ip, [r1], -r3, lsl #28
     428:	02000505 	andeq	r0, r0, #20971520	; 0x1400000
     42c:	00170304 	andseq	r0, r7, r4, lsl #6
     430:	68030402 	stmdavs	r3, {r1, sl}
     434:	03040200 	movweq	r0, #16896	; 0x4200
     438:	04020068 	streq	r0, [r2], #-104	; 0xffffff98
     43c:	04660603 	strbteq	r0, [r6], #-1539	; 0xfffff9fd
     440:	00290502 	eoreq	r0, r9, r2, lsl #10
     444:	06030402 	streq	r0, [r3], -r2, lsl #8
     448:	017ea803 	cmneq	lr, r3, lsl #16
     44c:	02002a05 	andeq	r2, r0, #20480	; 0x5000
     450:	01060304 	tsteq	r6, r4, lsl #6
     454:	02001a05 	andeq	r1, r0, #20480	; 0x5000
     458:	2e060304 	cdpcs	3, 0, cr0, cr6, cr4, {0}
     45c:	02000505 	andeq	r0, r0, #20971520	; 0x1400000
     460:	2e060304 	cdpcs	3, 0, cr0, cr6, cr4, {0}
     464:	03040200 	movweq	r0, #16896	; 0x4200
     468:	04160666 	ldreq	r0, [r6], #-1638	; 0xfffff99a
     46c:	03140501 	tsteq	r4, #4194304	; 0x400000
     470:	050101a9 	streq	r0, [r1, #-425]	; 0xfffffe57
     474:	14051305 	strne	r1, [r5], #-773	; 0xfffffcfb
     478:	05017603 	streq	r7, [r1, #-1539]	; 0xfffff9fd
     47c:	14051305 	strne	r1, [r5], #-773	; 0xfffffcfb
     480:	05016603 	streq	r6, [r1, #-1539]	; 0xfffff9fd
     484:	1a051405 	bne	1454a0 <__bss_end__+0x13b810>
     488:	052e0101 	streq	r0, [lr, #-257]!	; 0xfffffeff
     48c:	0501060e 	streq	r0, [r1, #-1550]	; 0xfffff9f2
     490:	052f0605 	streq	r0, [pc, #-1541]!	; fffffe93 <__bss_end__+0xffff6203>
     494:	01530314 	cmpeq	r3, r4, lsl r3
     498:	04140505 	ldreq	r0, [r4], #-1285	; 0xfffffafb
     49c:	a1030602 	tstge	r3, r2, lsl #12
     4a0:	0104017f 	tsteq	r4, pc, ror r1
     4a4:	df032b05 	svcle	0x00032b05
     4a8:	26052e00 	strcs	r2, [r5], -r0, lsl #28
     4ac:	052e2e4a 	streq	r2, [lr, #-3658]!	; 0xfffff1b6
     4b0:	3905180b 	stmdbcc	r5, {r0, r1, r3, fp, ip}
     4b4:	0b052e06 	bleq	14bcd4 <__bss_end__+0x142044>
     4b8:	01120501 	tsteq	r2, r1, lsl #10
     4bc:	01062e01 	tsteq	r6, r1, lsl #28
     4c0:	05012405 	streq	r2, [r1, #-1029]	; 0xfffffbfb
     4c4:	044a2e0b 	strbeq	r2, [sl], #-3595	; 0xfffff1f5
     4c8:	061a0502 	ldreq	r0, [sl], -r2, lsl #10
     4cc:	017f9d03 	cmneq	pc, r3, lsl #26
     4d0:	01061f05 	tsteq	r6, r5, lsl #30
     4d4:	052e0505 	streq	r0, [lr, #-1285]!	; 0xfffffafb
     4d8:	09059f18 	stmdbeq	r5, {r3, r4, r8, r9, sl, fp, ip, pc}
     4dc:	03040200 	movweq	r0, #16896	; 0x4200
     4e0:	18052e06 	stmdane	r5, {r1, r2, r9, sl, fp, sp}
     4e4:	03040200 	movweq	r0, #16896	; 0x4200
     4e8:	09050106 	stmdbeq	r5, {r1, r2, r8}
     4ec:	03040200 	movweq	r0, #16896	; 0x4200
     4f0:	18052f06 	stmdane	r5, {r1, r2, r8, r9, sl, fp, sp}
     4f4:	03040200 	movweq	r0, #16896	; 0x4200
     4f8:	09050106 	stmdbeq	r5, {r1, r2, r8}
     4fc:	03040200 	movweq	r0, #16896	; 0x4200
     500:	18052f06 	stmdane	r5, {r1, r2, r8, r9, sl, fp, sp}
     504:	03040200 	movweq	r0, #16896	; 0x4200
     508:	29050106 	stmdbcs	r5, {r1, r2, r8}
     50c:	03040200 	movweq	r0, #16896	; 0x4200
     510:	1a052b06 	bne	14b130 <__bss_end__+0x1414a0>
     514:	03040200 	movweq	r0, #16896	; 0x4200
     518:	00050501 	andeq	r0, r5, r1, lsl #10
     51c:	06030402 	streq	r0, [r3], -r2, lsl #8
     520:	0631052e 	ldrteq	r0, [r1], -lr, lsr #10
     524:	050106a5 	streq	r0, [r1, #-1701]	; 0xfffff95b
     528:	13670605 	cmnne	r7, #5242880	; 0x500000
     52c:	01063705 	tsteq	r6, r5, lsl #14
     530:	052e0e05 	streq	r0, [lr, #-3589]!	; 0xfffff1fb
     534:	052f0605 	streq	r0, [pc, #-1541]!	; ffffff37 <__bss_end__+0xffff62a7>
     538:	2e010609 	cfmadd32cs	mvax0, mvfx0, mvfx1, mvfx9
     53c:	0605052e 	streq	r0, [r5], -lr, lsr #10
     540:	0f05682f 	svceq	0x0005682f
     544:	05050106 	streq	r0, [r5, #-262]	; 0xfffffefa
     548:	0c052f06 	stceq	15, cr2, [r5], {6}
     54c:	05050106 	streq	r0, [r5, #-262]	; 0xfffffefa
     550:	054b2f06 	strbeq	r2, [fp, #-3846]	; 0xfffff0fa
     554:	05130601 	ldreq	r0, [r3, #-1537]	; 0xfffff9ff
     558:	064d0641 	strbeq	r0, [sp], -r1, asr #12
     55c:	06050501 	streq	r0, [r5], -r1, lsl #10
     560:	05010467 	streq	r0, [r1, #-1127]	; 0xfffffb99
     564:	01b40314 			; <UNDEFINED> instruction: 0x01b40314
     568:	1705052e 	strne	r0, [r5, -lr, lsr #10]
     56c:	062e2e06 	strteq	r2, [lr], -r6, lsl #28
     570:	66066830 			; <UNDEFINED> instruction: 0x66066830
     574:	01050204 	tsteq	r5, r4, lsl #4
     578:	017ec403 	cmneq	lr, r3, lsl #8
     57c:	31062d05 	tstcc	r6, r5, lsl #26
     580:	05050106 	streq	r0, [r5, #-262]	; 0xfffffefa
     584:	09054b06 	stmdbeq	r5, {r1, r2, r8, r9, fp, lr}
     588:	01140501 	tsteq	r4, r1, lsl #10
     58c:	01060505 	tsteq	r6, r5, lsl #10
     590:	044a0d05 	strbeq	r0, [sl], #-3333	; 0xfffff2fb
     594:	03050501 	movweq	r0, #21761	; 0x5501
     598:	2e2e01b4 	mcrcs	1, 1, r0, cr14, cr4, {5}
     59c:	09050204 	stmdbeq	r5, {r2, r9}
     5a0:	03040200 	movweq	r0, #16896	; 0x4200
     5a4:	7ecd0306 	cdpvc	3, 12, cr0, cr13, cr6, {0}
     5a8:	05010401 	streq	r0, [r1, #-1025]	; 0xfffffbff
     5ac:	04020014 	streq	r0, [r2], #-20	; 0xffffffec
     5b0:	01ae0303 			; <UNDEFINED> instruction: 0x01ae0303
     5b4:	0005052e 	andeq	r0, r5, lr, lsr #10
     5b8:	17030402 	strne	r0, [r3, -r2, lsl #8]
     5bc:	03040200 	movweq	r0, #16896	; 0x4200
     5c0:	04020068 	streq	r0, [r2], #-104	; 0xffffff98
     5c4:	02006803 	andeq	r6, r0, #196608	; 0x30000
     5c8:	66060304 	strvs	r0, [r6], -r4, lsl #6
     5cc:	1b050204 	blne	140de4 <__bss_end__+0x137154>
     5d0:	03040200 	movweq	r0, #16896	; 0x4200
     5d4:	7ec80306 	cdpvc	3, 12, cr0, cr8, cr6, {0}
     5d8:	001c0501 	andseq	r0, ip, r1, lsl #10
     5dc:	06030402 	streq	r0, [r3], -r2, lsl #8
     5e0:	00140501 	andseq	r0, r4, r1, lsl #10
     5e4:	06030402 	streq	r0, [r3], -r2, lsl #8
     5e8:	0005052e 	andeq	r0, r5, lr, lsr #10
     5ec:	06030402 	streq	r0, [r3], -r2, lsl #8
     5f0:	04020001 	streq	r0, [r2], #-1
     5f4:	14064a03 	strne	r4, [r6], #-2563	; 0xfffff5fd
     5f8:	4b060105 	blmi	180a14 <__bss_end__+0x176d84>
     5fc:	30061c05 	andcc	r1, r6, r5, lsl #24
     600:	05050106 	streq	r0, [r5, #-262]	; 0xfffffefa
     604:	01052f06 	tsteq	r5, r6, lsl #30
     608:	4b054b06 	blmi	153228 <__bss_end__+0x149598>
     60c:	05053106 	streq	r3, [r5, #-262]	; 0xfffffefa
     610:	06080515 			; <UNDEFINED> instruction: 0x06080515
     614:	06050501 	streq	r0, [r5], -r1, lsl #10
     618:	06160567 	ldreq	r0, [r6], -r7, ror #10
     61c:	052e2e01 	streq	r2, [lr, #-3585]!	; 0xfffff1ff
     620:	052f0605 	streq	r0, [pc, #-1541]!	; 23 <__code_start__-0x7fdd>
     624:	05010616 	streq	r0, [r1, #-1558]	; 0xfffff9ea
     628:	052f0605 	streq	r0, [pc, #-1541]!	; 2b <__code_start__-0x7fd5>
     62c:	2e010616 	mcrcs	6, 0, r0, cr1, cr6, {0}
     630:	022f0105 	eoreq	r0, pc, #1073741825	; 0x40000001
     634:	01010002 	tsteq	r1, r2
     638:	00000113 	andeq	r0, r0, r3, lsl r1
     63c:	00e30003 	rsceq	r0, r3, r3
     640:	01020000 	mrseq	r0, (UNDEF: 2)
     644:	000d0efb 	strdeq	r0, [sp], -fp
     648:	01010101 	tsteq	r1, r1, lsl #2
     64c:	01000000 	mrseq	r0, (UNDEF: 0)
     650:	2e010000 	cdpcs	0, 0, cr0, cr1, cr0, {0}
     654:	62696c2f 	rsbvs	r6, r9, #12032	; 0x2f00
     658:	552f0063 	strpl	r0, [pc, #-99]!	; 5fd <__code_start__-0x7a03>
     65c:	73726573 	cmnvc	r2, #482344960	; 0x1cc00000
     660:	6972652f 	ldmdbvs	r2!, {r0, r1, r2, r3, r5, r8, sl, sp, lr}^
     664:	61656263 	cmnvs	r5, r3, ror #4
     668:	6f442f72 	svcvs	0x00442f72
     66c:	656d7563 	strbvs	r7, [sp, #-1379]!	; 0xfffffa9d
     670:	2f73746e 	svccs	0x0073746e
     674:	34315343 	ldrtcc	r5, [r1], #-835	; 0xfffffcbd
     678:	632f4530 			; <UNDEFINED> instruction: 0x632f4530
     67c:	30343173 	eorscc	r3, r4, r3, ror r1
     680:	69662d45 	stmdbvs	r6!, {r0, r2, r6, r8, sl, fp, sp}^
     684:	2d6c616e 	stfcse	f6, [ip, #-440]!	; 0xfffffe48
     688:	6a6f7270 	bvs	1bdd050 <__bss_end__+0x1bd33c0>
     68c:	2f746365 	svccs	0x00746365
     690:	7362696c 	cmnvc	r2, #108, 18	; 0x1b0000
     694:	3034322d 	eorscc	r3, r4, sp, lsr #4
     698:	6c2f786c 	stcvs	8, cr7, [pc], #-432	; 4f0 <__code_start__-0x7b10>
     69c:	69706269 	ldmdbvs	r0!, {r0, r3, r5, r6, r9, sp, lr}^
     6a0:	636e692f 	cmnvs	lr, #770048	; 0xbc000
     6a4:	6564756c 	strbvs	r7, [r4, #-1388]!	; 0xfffffa94
     6a8:	73752f00 	cmnvc	r5, #0, 30
     6ac:	6f6c2f72 	svcvs	0x006c2f72
     6b0:	2f6c6163 	svccs	0x006c6163
     6b4:	6c6c6543 	cfstr64vs	mvdx6, [ip], #-268	; 0xfffffef4
     6b8:	612f7261 			; <UNDEFINED> instruction: 0x612f7261
     6bc:	6e2d6d72 	mcrvs	13, 1, r6, cr13, cr2, {3}
     6c0:	2d656e6f 	stclcs	14, cr6, [r5, #-444]!	; 0xfffffe44
     6c4:	69626165 	stmdbvs	r2!, {r0, r2, r5, r6, r8, sp, lr}^
     6c8:	7365742d 	cmnvc	r5, #754974720	; 0x2d000000
     6cc:	2d392f74 	ldccs	15, cr2, [r9, #-464]!	; 0xfffffe30
     6d0:	39313032 	ldmdbcc	r1!, {r1, r4, r5, ip, sp}
     6d4:	632d3471 			; <UNDEFINED> instruction: 0x632d3471
     6d8:	37303173 			; <UNDEFINED> instruction: 0x37303173
     6dc:	696c2f65 	stmdbvs	ip!, {r0, r2, r5, r6, r8, r9, sl, fp, sp}^
     6e0:	63672f62 	cmnvs	r7, #392	; 0x188
     6e4:	72612f63 	rsbvc	r2, r1, #396	; 0x18c
     6e8:	6f6e2d6d 	svcvs	0x006e2d6d
     6ec:	652d656e 	strvs	r6, [sp, #-1390]!	; 0xfffffa92
     6f0:	2f696261 	svccs	0x00696261
     6f4:	2e322e39 	mrccs	14, 1, r2, cr2, cr9, {1}
     6f8:	6e692f31 	mcrvs	15, 3, r2, cr9, cr1, {1}
     6fc:	64756c63 	ldrbtvs	r6, [r5], #-3171	; 0xfffff39d
     700:	6d000065 	stcvs	0, cr0, [r0, #-404]	; 0xfffffe6c
     704:	65736d65 	ldrbvs	r6, [r3, #-3429]!	; 0xfffff29b
     708:	00632e74 	rsbeq	r2, r3, r4, ror lr
     70c:	72000001 	andvc	r0, r0, #1, 0
     710:	682e6970 	stmdavs	lr!, {r4, r5, r6, r8, fp, sp, lr}
     714:	00000200 	andeq	r0, r0, r0, lsl #4
     718:	64647473 	strbtvs	r7, [r4], #-1139	; 0xfffffb8d
     71c:	682e6665 	stmdavs	lr!, {r0, r2, r5, r6, r9, sl, sp, lr}
     720:	00000300 	andeq	r0, r0, r0, lsl #6
     724:	00290500 	eoreq	r0, r9, r0, lsl #10
     728:	83a80205 			; <UNDEFINED> instruction: 0x83a80205
     72c:	05150000 	ldreq	r0, [r5, #-0]
     730:	14051305 	strne	r1, [r5], #-773	; 0xfffffcfb
     734:	05050106 	streq	r0, [r5, #-262]	; 0xfffffefa
     738:	0b053006 	bleq	14c758 <__bss_end__+0x142ac8>
     73c:	0a051006 	beq	14475c <__bss_end__+0x13aacc>
     740:	09053006 	stmdbeq	r5, {r1, r2, ip, sp}
     744:	060e054b 	streq	r0, [lr], -fp, asr #10
     748:	02022e01 	andeq	r2, r2, #1, 28
     74c:	32010100 	andcc	r0, r1, #0
     750:	03000001 	movweq	r0, #1
     754:	00010000 	andeq	r0, r1, r0
     758:	fb010200 	blx	40f62 <__bss_end__+0x372d2>
     75c:	01000d0e 	tsteq	r0, lr, lsl #26
     760:	00010101 	andeq	r0, r1, r1, lsl #2
     764:	00010000 	andeq	r0, r1, r0
     768:	2f2e0100 	svccs	0x002e0100
     76c:	6362696c 	cmnvs	r2, #108, 18	; 0x1b0000
     770:	73752f00 	cmnvc	r5, #0, 30
     774:	6f6c2f72 	svcvs	0x006c2f72
     778:	2f6c6163 	svccs	0x006c6163
     77c:	6c6c6543 	cfstr64vs	mvdx6, [ip], #-268	; 0xfffffef4
     780:	612f7261 			; <UNDEFINED> instruction: 0x612f7261
     784:	6e2d6d72 	mcrvs	13, 1, r6, cr13, cr2, {3}
     788:	2d656e6f 	stclcs	14, cr6, [r5, #-444]!	; 0xfffffe44
     78c:	69626165 	stmdbvs	r2!, {r0, r2, r5, r6, r8, sp, lr}^
     790:	7365742d 	cmnvc	r5, #754974720	; 0x2d000000
     794:	2d392f74 	ldccs	15, cr2, [r9, #-464]!	; 0xfffffe30
     798:	39313032 	ldmdbcc	r1!, {r1, r4, r5, ip, sp}
     79c:	632d3471 			; <UNDEFINED> instruction: 0x632d3471
     7a0:	37303173 			; <UNDEFINED> instruction: 0x37303173
     7a4:	696c2f65 	stmdbvs	ip!, {r0, r2, r5, r6, r8, r9, sl, fp, sp}^
     7a8:	63672f62 	cmnvs	r7, #392	; 0x188
     7ac:	72612f63 	rsbvc	r2, r1, #396	; 0x18c
     7b0:	6f6e2d6d 	svcvs	0x006e2d6d
     7b4:	652d656e 	strvs	r6, [sp, #-1390]!	; 0xfffffa92
     7b8:	2f696261 	svccs	0x00696261
     7bc:	2e322e39 	mrccs	14, 1, r2, cr2, cr9, {1}
     7c0:	6e692f31 	mcrvs	15, 3, r2, cr9, cr1, {1}
     7c4:	64756c63 	ldrbtvs	r6, [r5], #-3171	; 0xfffff39d
     7c8:	552f0065 	strpl	r0, [pc, #-101]!	; 76b <__code_start__-0x7895>
     7cc:	73726573 	cmnvc	r2, #482344960	; 0x1cc00000
     7d0:	6972652f 	ldmdbvs	r2!, {r0, r1, r2, r3, r5, r8, sl, sp, lr}^
     7d4:	61656263 	cmnvs	r5, r3, ror #4
     7d8:	6f442f72 	svcvs	0x00442f72
     7dc:	656d7563 	strbvs	r7, [sp, #-1379]!	; 0xfffffa9d
     7e0:	2f73746e 	svccs	0x0073746e
     7e4:	34315343 	ldrtcc	r5, [r1], #-835	; 0xfffffcbd
     7e8:	632f4530 			; <UNDEFINED> instruction: 0x632f4530
     7ec:	30343173 	eorscc	r3, r4, r3, ror r1
     7f0:	69662d45 	stmdbvs	r6!, {r0, r2, r6, r8, sl, fp, sp}^
     7f4:	2d6c616e 	stfcse	f6, [ip, #-440]!	; 0xfffffe48
     7f8:	6a6f7270 	bvs	1bdd1c0 <__bss_end__+0x1bd3530>
     7fc:	2f746365 	svccs	0x00746365
     800:	7362696c 	cmnvc	r2, #108, 18	; 0x1b0000
     804:	3034322d 	eorscc	r3, r4, sp, lsr #4
     808:	6c2f786c 	stcvs	8, cr7, [pc], #-432	; 660 <__code_start__-0x79a0>
     80c:	69706269 	ldmdbvs	r0!, {r0, r3, r5, r6, r9, sp, lr}^
     810:	636e692f 	cmnvs	lr, #770048	; 0xbc000
     814:	6564756c 	strbvs	r7, [r4, #-1388]!	; 0xfffffa94
     818:	72700000 	rsbsvc	r0, r0, #0, 0
     81c:	6b746e69 	blvs	1d1c1c8 <__bss_end__+0x1d12538>
     820:	0100632e 	tsteq	r0, lr, lsr #6
     824:	74730000 	ldrbtvc	r0, [r3], #-0
     828:	67726164 	ldrbvs	r6, [r2, -r4, ror #2]!
     82c:	0200682e 	andeq	r6, r0, #3014656	; 0x2e0000
     830:	70720000 	rsbsvc	r0, r2, r0
     834:	00682e69 	rsbeq	r2, r8, r9, ror #28
     838:	3c000003 	stccc	0, cr0, [r0], {3}
     83c:	6c697562 	cfstr64vs	mvdx7, [r9], #-392	; 0xfffffe78
     840:	6e692d74 	mcrvs	13, 3, r2, cr9, cr4, {3}
     844:	0000003e 	andeq	r0, r0, lr, lsr r0
     848:	2d617600 	stclcs	6, cr7, [r1, #-0]
     84c:	6e697270 	mcrvs	2, 3, r7, cr9, cr0, {3}
     850:	682e6b74 	stmdavs	lr!, {r2, r4, r5, r6, r8, r9, fp, sp, lr}
     854:	00000100 	andeq	r0, r0, r0, lsl #2
     858:	00220500 	eoreq	r0, r2, r0, lsl #10
     85c:	83c00205 	bichi	r0, r0, #1342177280	; 0x50000000
     860:	06170000 	ldreq	r0, [r7], -r0
     864:	06050501 	streq	r0, [r5], -r1, lsl #10
     868:	05141368 	ldreq	r1, [r4, #-872]	; 0xfffffc98
     86c:	12054b09 	andne	r4, r5, #9216	; 0x2400
     870:	05050106 	streq	r0, [r5, #-262]	; 0xfffffefa
     874:	0616bb06 	ldreq	fp, [r6], -r6, lsl #22
     878:	05340666 	ldreq	r0, [r4, #-1638]!	; 0xfffff99a
     87c:	66130601 	ldrvs	r0, [r3], -r1, lsl #12
     880:	01000802 	tsteq	r0, r2, lsl #16
     884:	0000ca01 	andeq	ip, r0, r1, lsl #20
     888:	7c000300 	stcvc	3, cr0, [r0], {-0}
     88c:	02000000 	andeq	r0, r0, #0, 0
     890:	0d0efb01 	vstreq	d15, [lr, #-4]
     894:	01010100 	mrseq	r0, (UNDEF: 17)
     898:	00000001 	andeq	r0, r0, r1
     89c:	01000001 	tsteq	r0, r1
     8a0:	696c2f2e 	stmdbvs	ip!, {r1, r2, r3, r5, r8, r9, sl, fp, sp}^
     8a4:	2f006362 	svccs	0x00006362
     8a8:	72657355 	rsbvc	r7, r5, #1409286145	; 0x54000001
     8ac:	72652f73 	rsbvc	r2, r5, #460	; 0x1cc
     8b0:	65626369 	strbvs	r6, [r2, #-873]!	; 0xfffffc97
     8b4:	442f7261 	strtmi	r7, [pc], #-609	; 8bc <__code_start__-0x7744>
     8b8:	6d75636f 	ldclvs	3, cr6, [r5, #-444]!	; 0xfffffe44
     8bc:	73746e65 	cmnvc	r4, #1616	; 0x650
     8c0:	3153432f 	cmpcc	r3, pc, lsr #6
     8c4:	2f453034 	svccs	0x00453034
     8c8:	34317363 	ldrtcc	r7, [r1], #-867	; 0xfffffc9d
     8cc:	662d4530 			; <UNDEFINED> instruction: 0x662d4530
     8d0:	6c616e69 	stclvs	14, cr6, [r1], #-420	; 0xfffffe5c
     8d4:	6f72702d 	svcvs	0x0072702d
     8d8:	7463656a 	strbtvc	r6, [r3], #-1386	; 0xfffffa96
     8dc:	62696c2f 	rsbvs	r6, r9, #12032	; 0x2f00
     8e0:	34322d73 	ldrtcc	r2, [r2], #-3443	; 0xfffff28d
     8e4:	2f786c30 	svccs	0x00786c30
     8e8:	7062696c 	rsbvc	r6, r2, ip, ror #18
     8ec:	6e692f69 	cdpvs	15, 6, cr2, cr9, cr9, {3}
     8f0:	64756c63 	ldrbtvs	r6, [r5], #-3171	; 0xfffff39d
     8f4:	70000065 	andvc	r0, r0, r5, rrx
     8f8:	2e6b7475 	mcrcs	4, 3, r7, cr11, cr5, {3}
     8fc:	00010063 	andeq	r0, r1, r3, rrx
     900:	69707200 	ldmdbvs	r0!, {r9, ip, sp, lr}^
     904:	0200682e 	andeq	r6, r0, #3014656	; 0x2e0000
     908:	05000000 	streq	r0, [r0, #-0]
     90c:	02050022 	andeq	r0, r5, #34, 0	; 0x22
     910:	00008418 	andeq	r8, r0, r8, lsl r4
     914:	05010615 	streq	r0, [r1, #-1557]	; 0xfffff9eb
     918:	054b0605 	strbeq	r0, [fp, #-1541]	; 0xfffff9fb
     91c:	0402000b 	streq	r0, [r2], #-11
     920:	05050101 	streq	r0, [r5, #-257]	; 0xfffffeff
     924:	01040200 	mrseq	r0, R12_usr
     928:	09052e06 	stmdbeq	r5, {r1, r2, r9, sl, fp, sp}
     92c:	02040200 	andeq	r0, r4, #0, 4
     930:	0f054b06 	svceq	0x00054b06
     934:	02040200 	andeq	r0, r4, #0, 4
     938:	00100565 	andseq	r0, r0, r5, ror #10
     93c:	06020402 	streq	r0, [r2], -r2, lsl #8
     940:	04020001 	streq	r0, [r2], #-1
     944:	05052e02 	streq	r2, [r5, #-3586]	; 0xfffff1fe
     948:	01053206 	tsteq	r5, r6, lsl #4
     94c:	06021306 	streq	r1, [r2], -r6, lsl #6
     950:	1c010100 	stfnes	f0, [r1], {-0}
     954:	03000006 	movweq	r0, #6
     958:	00011600 	andeq	r1, r1, r0, lsl #12
     95c:	fb010200 	blx	41166 <__bss_end__+0x374d6>
     960:	01000d0e 	tsteq	r0, lr, lsl #26
     964:	00010101 	andeq	r0, r1, r1, lsl #2
     968:	00010000 	andeq	r0, r1, r0
     96c:	2f2e0100 	svccs	0x002e0100
     970:	6362696c 	cmnvs	r2, #108, 18	; 0x1b0000
     974:	73752f00 	cmnvc	r5, #0, 30
     978:	6f6c2f72 	svcvs	0x006c2f72
     97c:	2f6c6163 	svccs	0x006c6163
     980:	6c6c6543 	cfstr64vs	mvdx6, [ip], #-268	; 0xfffffef4
     984:	612f7261 			; <UNDEFINED> instruction: 0x612f7261
     988:	6e2d6d72 	mcrvs	13, 1, r6, cr13, cr2, {3}
     98c:	2d656e6f 	stclcs	14, cr6, [r5, #-444]!	; 0xfffffe44
     990:	69626165 	stmdbvs	r2!, {r0, r2, r5, r6, r8, sp, lr}^
     994:	7365742d 	cmnvc	r5, #754974720	; 0x2d000000
     998:	2d392f74 	ldccs	15, cr2, [r9, #-464]!	; 0xfffffe30
     99c:	39313032 	ldmdbcc	r1!, {r1, r4, r5, ip, sp}
     9a0:	632d3471 			; <UNDEFINED> instruction: 0x632d3471
     9a4:	37303173 			; <UNDEFINED> instruction: 0x37303173
     9a8:	696c2f65 	stmdbvs	ip!, {r0, r2, r5, r6, r8, r9, sl, fp, sp}^
     9ac:	63672f62 	cmnvs	r7, #392	; 0x188
     9b0:	72612f63 	rsbvc	r2, r1, #396	; 0x18c
     9b4:	6f6e2d6d 	svcvs	0x006e2d6d
     9b8:	652d656e 	strvs	r6, [sp, #-1390]!	; 0xfffffa92
     9bc:	2f696261 	svccs	0x00696261
     9c0:	2e322e39 	mrccs	14, 1, r2, cr2, cr9, {1}
     9c4:	6e692f31 	mcrvs	15, 3, r2, cr9, cr1, {1}
     9c8:	64756c63 	ldrbtvs	r6, [r5], #-3171	; 0xfffff39d
     9cc:	552f0065 	strpl	r0, [pc, #-101]!	; 96f <__code_start__-0x7691>
     9d0:	73726573 	cmnvc	r2, #482344960	; 0x1cc00000
     9d4:	6972652f 	ldmdbvs	r2!, {r0, r1, r2, r3, r5, r8, sl, sp, lr}^
     9d8:	61656263 	cmnvs	r5, r3, ror #4
     9dc:	6f442f72 	svcvs	0x00442f72
     9e0:	656d7563 	strbvs	r7, [sp, #-1379]!	; 0xfffffa9d
     9e4:	2f73746e 	svccs	0x0073746e
     9e8:	34315343 	ldrtcc	r5, [r1], #-835	; 0xfffffcbd
     9ec:	632f4530 			; <UNDEFINED> instruction: 0x632f4530
     9f0:	30343173 	eorscc	r3, r4, r3, ror r1
     9f4:	69662d45 	stmdbvs	r6!, {r0, r2, r6, r8, sl, fp, sp}^
     9f8:	2d6c616e 	stfcse	f6, [ip, #-440]!	; 0xfffffe48
     9fc:	6a6f7270 	bvs	1bdd3c4 <__bss_end__+0x1bd3734>
     a00:	2f746365 	svccs	0x00746365
     a04:	7362696c 	cmnvc	r2, #108, 18	; 0x1b0000
     a08:	3034322d 	eorscc	r3, r4, sp, lsr #4
     a0c:	6c2f786c 	stcvs	8, cr7, [pc], #-432	; 864 <__code_start__-0x779c>
     a10:	69706269 	ldmdbvs	r0!, {r0, r3, r5, r6, r9, sp, lr}^
     a14:	636e692f 	cmnvs	lr, #770048	; 0xbc000
     a18:	6564756c 	strbvs	r7, [r4, #-1388]!	; 0xfffffa94
     a1c:	61760000 	cmnvs	r6, r0
     a20:	6972702d 	ldmdbvs	r2!, {r0, r2, r3, r5, ip, sp, lr}^
     a24:	2e6b746e 	cdpcs	4, 6, cr7, cr11, cr14, {3}
     a28:	00010063 	andeq	r0, r1, r3, rrx
     a2c:	64747300 	ldrbtvs	r7, [r4], #-768	; 0xfffffd00
     a30:	2d746e69 	ldclcs	14, cr6, [r4, #-420]!	; 0xfffffe5c
     a34:	2e636367 	cdpcs	3, 6, cr6, cr3, cr7, {3}
     a38:	00020068 	andeq	r0, r2, r8, rrx
     a3c:	69707200 	ldmdbvs	r0!, {r9, ip, sp, lr}^
     a40:	0300682e 	movweq	r6, #2094	; 0x82e
     a44:	70720000 	rsbsvc	r0, r2, r0
     a48:	6e692d69 	cdpvs	13, 6, cr2, cr9, cr9, {3}
     a4c:	6e726574 	mrcvs	5, 3, r6, cr2, cr4, {3}
     a50:	682e6c61 	stmdavs	lr!, {r0, r5, r6, sl, fp, sp, lr}
     a54:	00000300 	andeq	r0, r0, r0, lsl #6
     a58:	61647473 	smcvs	18243	; 0x4743
     a5c:	682e6772 	stmdavs	lr!, {r1, r4, r5, r6, r8, r9, sl, sp, lr}
     a60:	00000200 	andeq	r0, r0, r0, lsl #4
     a64:	6975623c 	ldmdbvs	r5!, {r2, r3, r4, r5, r9, sp, lr}^
     a68:	692d746c 	pushvs	{r2, r3, r5, r6, sl, ip, sp, lr}
     a6c:	00003e6e 	andeq	r3, r0, lr, ror #28
     a70:	05000000 	streq	r0, [r0, #-0]
     a74:	0205001b 	andeq	r0, r5, #27, 0
     a78:	0000844c 	andeq	r8, r0, ip, asr #8
     a7c:	05012603 	streq	r2, [r1, #-1539]	; 0xfffff9fd
     a80:	2d05011d 	stfcss	f0, [r5, #-116]	; 0xffffff8c
     a84:	01050106 	tsteq	r5, r6, lsl #2
     a88:	33054a2e 	movwcc	r4, #23086	; 0x5a2e
     a8c:	02055106 	andeq	r5, r5, #-2147483647	; 0x80000001
     a90:	06060513 			; <UNDEFINED> instruction: 0x06060513
     a94:	06020501 	streq	r0, [r2], -r1, lsl #10
     a98:	00080530 	andeq	r0, r8, r0, lsr r5
     a9c:	01010402 	tsteq	r1, r2, lsl #8
     aa0:	02000205 	andeq	r0, r0, #1342177280	; 0x50000000
     aa4:	01060104 	tsteq	r6, r4, lsl #2
     aa8:	02000305 	andeq	r0, r0, #335544320	; 0x14000000
     aac:	2f060204 	svccs	0x00060204
     ab0:	02000805 	andeq	r0, r0, #327680	; 0x50000
     ab4:	01060204 	tsteq	r6, r4, lsl #4
     ab8:	02001505 	andeq	r1, r0, #20971520	; 0x1400000
     abc:	49060204 	stmdbmi	r6, {r2, r9}
     ac0:	02001805 	andeq	r1, r0, #327680	; 0x50000
     ac4:	01060204 	tsteq	r6, r4, lsl #4
     ac8:	02040200 	andeq	r0, r4, #0, 4
     acc:	0602052e 	streq	r0, [r2], -lr, lsr #10
     ad0:	06050530 			; <UNDEFINED> instruction: 0x06050530
     ad4:	06020501 	streq	r0, [r2], -r1, lsl #10
     ad8:	0601054b 	streq	r0, [r1], -fp, asr #10
     adc:	063e0513 			; <UNDEFINED> instruction: 0x063e0513
     ae0:	14020531 	strne	r0, [r2], #-1329	; 0xfffffacf
     ae4:	01060e05 	tsteq	r6, r5, lsl #28
     ae8:	052e0605 	streq	r0, [lr, #-1541]!	; 0xfffff9fb
     aec:	052f0602 	streq	r0, [pc, #-1538]!	; 4f2 <__code_start__-0x7b0e>
     af0:	05010604 	streq	r0, [r1, #-1540]	; 0xfffff9fc
     af4:	052f0603 	streq	r0, [pc, #-1539]!	; 4f9 <__code_start__-0x7b07>
     af8:	05010611 	streq	r0, [r1, #-1553]	; 0xfffff9ef
     afc:	02052e09 	andeq	r2, r5, #144	; 0x90
     b00:	05153006 	ldreq	r3, [r5, #-6]
     b04:	05010607 	streq	r0, [r1, #-1543]	; 0xfffff9f9
     b08:	0b052e02 	bleq	14c318 <__bss_end__+0x142688>
     b0c:	01040200 	mrseq	r0, R12_usr
     b10:	02052e06 	andeq	r2, r5, #96	; 0x60
     b14:	01040200 	mrseq	r0, R12_usr
     b18:	03050106 	movweq	r0, #20742	; 0x5106
     b1c:	03040200 	movweq	r0, #16896	; 0x4200
     b20:	0c052f06 	stceq	15, cr2, [r5], {6}
     b24:	03040200 	movweq	r0, #16896	; 0x4200
     b28:	0a050106 	beq	140f48 <__bss_end__+0x1372b8>
     b2c:	03040200 	movweq	r0, #16896	; 0x4200
     b30:	0017052e 	andseq	r0, r7, lr, lsr #10
     b34:	06030402 	streq	r0, [r3], -r2, lsl #8
     b38:	0402002d 	streq	r0, [r2], #-45	; 0xffffffd3
     b3c:	05010603 	streq	r0, [r1, #-1539]	; 0xfffff9fd
     b40:	05300602 	ldreq	r0, [r0, #-1538]!	; 0xfffff9fe
     b44:	2e010609 	cfmadd32cs	mvax0, mvfx0, mvfx1, mvfx9
     b48:	30060205 	andcc	r0, r6, r5, lsl #4
     b4c:	13060105 	movwne	r0, #24837	; 0x6105
     b50:	31064905 	tstcc	r6, r5, lsl #18
     b54:	02050106 	andeq	r0, r5, #-2147483647	; 0x80000001
     b58:	0405a006 	streq	sl, [r5], #-6
     b5c:	03050106 	movweq	r0, #20742	; 0x5106
     b60:	09052f06 	stmdbeq	r5, {r1, r2, r8, r9, sl, fp, sp}
     b64:	02050106 	andeq	r0, r5, #-2147483647	; 0x80000001
     b68:	05133006 	ldreq	r3, [r3, #-6]
     b6c:	0501060b 	streq	r0, [r1, #-1547]	; 0xfffff9f5
     b70:	06300602 	ldrteq	r0, [r0], -r2, lsl #12
     b74:	0604052e 	streq	r0, [r4], -lr, lsr #10
     b78:	13152402 	tstne	r5, #33554432	; 0x2000000
     b7c:	01060f05 	tsteq	r6, r5, lsl #30
     b80:	4a06052e 	bmi	182040 <__bss_end__+0x1783b0>
     b84:	4b060505 	blmi	181fa0 <__bss_end__+0x178310>
     b88:	06090513 			; <UNDEFINED> instruction: 0x06090513
     b8c:	06050501 	streq	r0, [r5], -r1, lsl #10
     b90:	060b052f 	streq	r0, [fp], -pc, lsr #10
     b94:	000d0510 	andeq	r0, sp, r0, lsl r5
     b98:	2c010402 	cfstrscs	mvf0, [r1], {2}
     b9c:	02000405 	andeq	r0, r0, #83886080	; 0x5000000
     ba0:	34060104 	strcc	r0, [r6], #-260	; 0xfffffefc
     ba4:	02000505 	andeq	r0, r0, #20971520	; 0x1400000
     ba8:	05130104 	ldreq	r0, [r3, #-260]	; 0xfffffefc
     bac:	0402001b 	streq	r0, [r2], #-27	; 0xffffffe5
     bb0:	05010601 	streq	r0, [r1, #-1537]	; 0xfffff9ff
     bb4:	04020007 	streq	r0, [r2], #-7
     bb8:	1805d601 	stmdane	r5, {r0, r9, sl, ip, lr, pc}
     bbc:	01040200 	mrseq	r0, R12_usr
     bc0:	000a052e 	andeq	r0, sl, lr, lsr #10
     bc4:	4a010402 	bmi	41bd4 <__bss_end__+0x37f44>
     bc8:	02000b05 	andeq	r0, r0, #5120	; 0x1400
     bcc:	2f060104 	svccs	0x00060104
     bd0:	02000e05 	andeq	r0, r0, #80	; 0x50
     bd4:	2e060104 	adfcss	f0, f6, f4
     bd8:	02000405 	andeq	r0, r0, #83886080	; 0x5000000
     bdc:	062e0104 	strteq	r0, [lr], -r4, lsl #2
     be0:	0606054b 	streq	r0, [r6], -fp, asr #10
     be4:	06050501 	streq	r0, [r5], -r1, lsl #10
     be8:	060a052f 	streq	r0, [sl], -pc, lsr #10
     bec:	4a070501 	bmi	1c1ff8 <__bss_end__+0x1b8368>
     bf0:	030d052e 	movweq	r0, #54574	; 0xd52e
     bf4:	054a2e76 	strbeq	r2, [sl, #-3702]	; 0xfffff18a
     bf8:	0d050d0b 	stceq	13, cr0, [r5, #-44]	; 0xffffffd4
     bfc:	01040200 	mrseq	r0, R12_usr
     c00:	2e140306 	cdpcs	3, 1, cr0, cr4, cr6, {0}
     c04:	02001105 	andeq	r1, r0, #1073741825	; 0x40000001
     c08:	05130104 	ldreq	r0, [r3, #-260]	; 0xfffffefc
     c0c:	0402002d 	streq	r0, [r2], #-45	; 0xffffffd3
     c10:	05010601 	streq	r0, [r1, #-1537]	; 0xfffff9ff
     c14:	0402002a 	streq	r0, [r2], #-42	; 0xffffffd6
     c18:	16052e01 	strne	r2, [r5], -r1, lsl #28
     c1c:	01040200 	mrseq	r0, R12_usr
     c20:	0014054a 	andseq	r0, r4, sl, asr #10
     c24:	06010402 	streq	r0, [r1], -r2, lsl #8
     c28:	000d054b 	andeq	r0, sp, fp, asr #10
     c2c:	06010402 	streq	r0, [r1], -r2, lsl #8
     c30:	04020001 	streq	r0, [r2], #-1
     c34:	2f064a01 	svccs	0x00064a01
     c38:	01061205 	tsteq	r6, r5, lsl #4
     c3c:	060d054a 	streq	r0, [sp], -sl, asr #10
     c40:	0612052f 	ldreq	r0, [r2], -pc, lsr #10
     c44:	06190501 	ldreq	r0, [r9], -r1, lsl #10
     c48:	0004054b 	andeq	r0, r4, fp, asr #10
     c4c:	03020402 	movweq	r0, #9218	; 0x2402
     c50:	02000111 	andeq	r0, r0, #1073741828	; 0x40000004
     c54:	05010204 	streq	r0, [r1, #-516]	; 0xfffffdfc
     c58:	04020002 	streq	r0, [r2], #-2
     c5c:	09051502 	stmdbeq	r5, {r1, r8, sl, ip}
     c60:	02040200 	andeq	r0, r4, #0, 4
     c64:	02000106 	andeq	r0, r0, #-2147483647	; 0x80000001
     c68:	054a0204 	strbeq	r0, [sl, #-516]	; 0xfffffdfc
     c6c:	04020001 	streq	r0, [r2], #-1
     c70:	04059f02 	streq	r9, [r5], #-3842	; 0xfffff0fe
     c74:	4a6e0306 	bmi	1b81894 <__bss_end__+0x1b77c04>
     c78:	01060905 	tsteq	r6, r5, lsl #18
     c7c:	2f060405 	svccs	0x00060405
     c80:	11060605 	tstne	r6, r5, lsl #12
     c84:	052f0405 	streq	r0, [pc, #-1029]!	; 887 <__code_start__-0x7779>
     c88:	2e63030b 	cdpcs	3, 6, cr0, cr3, cr11, {0}
     c8c:	02001905 	andeq	r1, r0, #81920	; 0x14000
     c90:	03060104 	movweq	r0, #24836	; 0x6104
     c94:	1a052e24 	bne	14c52c <__bss_end__+0x14289c>
     c98:	01040200 	mrseq	r0, R12_usr
     c9c:	00280513 	eoreq	r0, r8, r3, lsl r5
     ca0:	06010402 	streq	r0, [r1], -r2, lsl #8
     ca4:	00250501 	eoreq	r0, r5, r1, lsl #10
     ca8:	2e010402 	cdpcs	4, 0, cr0, cr1, cr2, {0}
     cac:	02001f05 	andeq	r1, r0, #5, 30
     cb0:	054a0104 	strbeq	r0, [sl, #-260]	; 0xfffffefc
     cb4:	0402000b 	streq	r0, [r2], #-11
     cb8:	054b0601 	strbeq	r0, [fp, #-1537]	; 0xfffff9ff
     cbc:	04020004 	streq	r0, [r2], #-4
     cc0:	00010601 	andeq	r0, r1, r1, lsl #12
     cc4:	4a010402 	bmi	41cd4 <__bss_end__+0x38044>
     cc8:	01040200 	mrseq	r0, R12_usr
     ccc:	02004e06 	andeq	r4, r0, #96	; 0x60
     cd0:	00010104 	andeq	r0, r1, r4, lsl #2
     cd4:	01010402 	tsteq	r1, r2, lsl #8
     cd8:	01040200 	mrseq	r0, R12_usr
     cdc:	04020001 	streq	r0, [r2], #-1
     ce0:	002e0601 	eoreq	r0, lr, r1, lsl #12
     ce4:	66010402 	strvs	r0, [r1], -r2, lsl #8
     ce8:	01040200 	mrseq	r0, R12_usr
     cec:	0402002e 	streq	r0, [r2], #-46	; 0xffffffd2
     cf0:	054a0601 	strbeq	r0, [sl, #-1537]	; 0xfffff9ff
     cf4:	7fa60348 	svcvc	0x00a60348
     cf8:	05052008 	streq	r2, [r5, #-8]
     cfc:	2e060113 	mcrcs	1, 0, r0, cr6, cr3, {0}
     d00:	02040200 	andeq	r0, r4, #0, 4
     d04:	02002e06 	andeq	r2, r0, #96	; 0x60
     d08:	00010204 	andeq	r0, r1, r4, lsl #4
     d0c:	13020402 	movwne	r0, #9218	; 0x2402
     d10:	02001105 	andeq	r1, r0, #1073741825	; 0x40000001
     d14:	01060204 	tsteq	r6, r4, lsl #4
     d18:	02000505 	andeq	r0, r0, #20971520	; 0x1400000
     d1c:	4b060204 	blmi	181534 <__bss_end__+0x1778a4>
     d20:	02000705 	andeq	r0, r0, #1310720	; 0x140000
     d24:	01060204 	tsteq	r6, r4, lsl #4
     d28:	4b060905 	blmi	183144 <__bss_end__+0x1794b4>
     d2c:	01060e05 	tsteq	r6, r5, lsl #28
     d30:	02004805 	andeq	r4, r0, #327680	; 0x50000
     d34:	05620104 	strbeq	r0, [r2, #-260]!	; 0xfffffefc
     d38:	04020005 	streq	r0, [r2], #-5
     d3c:	004b0601 	subeq	r0, fp, r1, lsl #12
     d40:	01010402 	tsteq	r1, r2, lsl #8
     d44:	01040200 	mrseq	r0, R12_usr
     d48:	02009e06 	andeq	r9, r0, #96	; 0x60
     d4c:	002e0104 	eoreq	r0, lr, r4, lsl #2
     d50:	06010402 	streq	r0, [r1], -r2, lsl #8
     d54:	0340052e 	movteq	r0, #1326	; 0x52e
     d58:	06d600e1 	ldrbeq	r0, [r6], r1, ror #1
     d5c:	06020501 	streq	r0, [r2], -r1, lsl #10
     d60:	061e059f 			; <UNDEFINED> instruction: 0x061e059f
     d64:	2e120501 	cfmul32cs	mvfx0, mvfx2, mvfx1
     d68:	2f060505 	svccs	0x00060505
     d6c:	05140205 	ldreq	r0, [r4, #-517]	; 0xfffffdfb
     d70:	05010609 	streq	r0, [r1, #-1545]	; 0xfffff9f7
     d74:	054b0605 	strbeq	r0, [fp, #-1541]	; 0xfffff9fb
     d78:	08051302 	stmdaeq	r5, {r1, r8, r9, ip}
     d7c:	02050d06 	andeq	r0, r5, #384	; 0x180
     d80:	06040533 			; <UNDEFINED> instruction: 0x06040533
     d84:	060f054c 	streq	r0, [pc], -ip, asr #10
     d88:	2e090501 	cfsh32cs	mvfx0, mvfx9, #1
     d8c:	2c060805 	stccs	8, cr0, [r6], {5}
     d90:	2e060205 	cdpcs	2, 0, cr0, cr6, cr5, {0}
     d94:	02000d05 	andeq	r0, r0, #320	; 0x140
     d98:	054a0104 	strbeq	r0, [sl, #-260]	; 0xfffffefc
     d9c:	054b0603 	strbeq	r0, [fp, #-1539]	; 0xfffff9fd
     da0:	05010605 	streq	r0, [r1, #-1541]	; 0xfffff9fb
     da4:	054d0608 	strbeq	r0, [sp, #-1544]	; 0xfffff9f8
     da8:	0501060e 	streq	r0, [r1, #-1550]	; 0xfffff9f2
     dac:	04052e0a 	streq	r2, [r5], #-3594	; 0xfffff1f6
     db0:	09052f06 	stmdbeq	r5, {r1, r2, r8, r9, sl, fp, sp}
     db4:	04050106 	streq	r0, [r5], #-262	; 0xfffffefa
     db8:	07052f06 	streq	r2, [r5, -r6, lsl #30]
     dbc:	052e0106 	streq	r0, [lr, #-262]!	; 0xfffffefa
     dc0:	05300604 	ldreq	r0, [r0, #-1540]!	; 0xfffff9fc
     dc4:	05010607 	streq	r0, [r1, #-1543]	; 0xfffff9f9
     dc8:	13300604 	teqne	r0, #4, 12	; 0x400000
     dcc:	060d0514 			; <UNDEFINED> instruction: 0x060d0514
     dd0:	06090510 			; <UNDEFINED> instruction: 0x06090510
     dd4:	06120530 			; <UNDEFINED> instruction: 0x06120530
     dd8:	2e0a0501 	cfsh32cs	mvfx0, mvfx10, #1
     ddc:	05660905 	strbeq	r0, [r6, #-2309]!	; 0xfffff6fb
     de0:	054b0605 	strbeq	r0, [fp, #-1541]	; 0xfffff9fb
     de4:	05010612 	streq	r0, [r1, #-1554]	; 0xfffff9ee
     de8:	0b052e16 	bleq	14c648 <__bss_end__+0x1429b8>
     dec:	0605052e 	streq	r0, [r5], -lr, lsr #10
     df0:	0608052f 	streq	r0, [r8], -pc, lsr #10
     df4:	04052e01 	streq	r2, [r5], #-3585	; 0xfffff1ff
     df8:	4a013006 	bmi	4ce18 <__bss_end__+0x43188>
     dfc:	02001501 	andeq	r1, r0, #4194304	; 0x400000
     e00:	36020104 	strcc	r0, [r2], -r4, lsl #2
     e04:	0402000f 	streq	r0, [r2], #-15
     e08:	02000101 	andeq	r0, r0, #1073741824	; 0x40000000
     e0c:	05d60104 	ldrbeq	r0, [r6, #260]	; 0x104
     e10:	01133411 	tsteq	r3, r1, lsl r4
     e14:	02040200 	andeq	r0, r4, #0, 4
     e18:	0200ba06 	andeq	fp, r0, #24576	; 0x6000
     e1c:	ba060304 	blt	181a34 <__bss_end__+0x177da4>
     e20:	03040200 	movweq	r0, #16896	; 0x4200
     e24:	04020001 	streq	r0, [r2], #-1
     e28:	15051403 	strne	r1, [r5, #-1027]	; 0xfffffbfd
     e2c:	03040200 	movweq	r0, #16896	; 0x4200
     e30:	11050106 	tstne	r5, r6, lsl #2
     e34:	03040200 	movweq	r0, #16896	; 0x4200
     e38:	1a052f06 	bne	14ca58 <__bss_end__+0x142dc8>
     e3c:	03040200 	movweq	r0, #16896	; 0x4200
     e40:	11050106 	tstne	r5, r6, lsl #2
     e44:	03040200 	movweq	r0, #16896	; 0x4200
     e48:	0200d706 	andeq	sp, r0, #1572864	; 0x180000
     e4c:	00130304 	andseq	r0, r3, r4, lsl #6
     e50:	14030402 	strne	r0, [r3], #-1026	; 0xfffffbfe
     e54:	03040200 	movweq	r0, #16896	; 0x4200
     e58:	04020067 	streq	r0, [r2], #-103	; 0xffffff99
     e5c:	14056803 	strne	r6, [r5], #-2051	; 0xfffff7fd
     e60:	03040200 	movweq	r0, #16896	; 0x4200
     e64:	13050106 	movwne	r0, #20742	; 0x5106
     e68:	03040200 	movweq	r0, #16896	; 0x4200
     e6c:	06180582 	ldreq	r0, [r8], -r2, lsl #11
     e70:	061b054e 	ldreq	r0, [fp], -lr, asr #10
     e74:	821a0501 	andshi	r0, sl, #4194304	; 0x400000
     e78:	4b060905 	blmi	183294 <__bss_end__+0x179604>
     e7c:	01060d05 	tsteq	r6, r5, lsl #26
     e80:	0609052e 	streq	r0, [r9], -lr, lsr #10
     e84:	05ba06f3 	ldreq	r0, [sl, #1779]!	; 0x6f3
     e88:	05300615 	ldreq	r0, [r0, #-1557]!	; 0xfffff9eb
     e8c:	05010618 	streq	r0, [r1, #-1560]	; 0xfffff9e8
     e90:	19056617 	stmdbne	r5, {r0, r1, r2, r4, r9, sl, sp, lr}
     e94:	15054b06 	strne	r4, [r5, #-2822]	; 0xfffff4fa
     e98:	666f0306 	strbtvs	r0, [pc], -r6, lsl #6
     e9c:	48061105 	stmdami	r6, {r0, r2, r8, ip}
     ea0:	0905d601 	stmdbeq	r5, {r0, r9, sl, ip, lr, pc}
     ea4:	052e0b03 	streq	r0, [lr, #-2819]!	; 0xfffff4fd
     ea8:	2e01060d 	cfmadd32cs	mvax0, mvfx0, mvfx1, mvfx13
     eac:	f3060905 	vmls.i8	d0, d6, d5
     eb0:	1505ba06 	strne	fp, [r5, #-2566]	; 0xfffff5fa
     eb4:	03062f06 	movweq	r2, #28422	; 0x6f06
     eb8:	19056675 	stmdbne	r5, {r0, r2, r4, r5, r6, r9, sl, sp, lr}
     ebc:	4a130306 	bmi	4c1adc <__bss_end__+0x4b7e4c>
     ec0:	03061505 	movweq	r1, #25861	; 0x6505
     ec4:	0306666d 	movweq	r6, #26221	; 0x666d
     ec8:	ba014a15 	blt	53724 <__bss_end__+0x49a94>
     ecc:	05052e06 	streq	r2, [r5, #-3590]	; 0xfffff1fa
     ed0:	9e011a06 	vmlals.f32	s2, s2, s12
     ed4:	010e032e 	tsteq	lr, lr, lsr #6
     ed8:	01060905 	tsteq	r6, r5, lsl #18
     edc:	08060505 	stmdaeq	r6, {r0, r2, r8, sl}
     ee0:	03040575 	movweq	r0, #17781	; 0x4575
     ee4:	07050118 	smladeq	r5, r8, r1, r0
     ee8:	04050106 	streq	r0, [r5], #-262	; 0xfffffefa
     eec:	05053106 	streq	r3, [r5, #-262]	; 0xfffffefa
     ef0:	052e6703 	streq	r6, [lr, #-1795]!	; 0xfffff8fd
     ef4:	0501061c 	streq	r0, [r1, #-1564]	; 0xfffff9e4
     ef8:	05058209 	streq	r8, [r5, #-521]	; 0xfffffdf7
     efc:	0531f306 	ldreq	pc, [r1, #-774]!	; 0xfffffcfa
     f00:	0501061c 	streq	r0, [r1, #-1564]	; 0xfffff9e4
     f04:	05058209 	streq	r8, [r5, #-521]	; 0xfffffdf7
     f08:	0530f306 	ldreq	pc, [r0, #-774]!	; 0xfffffcfa
     f0c:	0501061b 	streq	r0, [r1, #-1563]	; 0xfffff9e5
     f10:	05058209 	streq	r8, [r5, #-521]	; 0xfffffdf7
     f14:	0530f306 	ldreq	pc, [r0, #-774]!	; 0xfffffcfa
     f18:	05010607 	streq	r0, [r1, #-1543]	; 0xfffff9f9
     f1c:	30830605 	addcc	r0, r3, r5, lsl #12
     f20:	01060905 	tsteq	r6, r5, lsl #18
     f24:	08060505 	stmdaeq	r6, {r0, r2, r8, sl}
     f28:	30110575 	andscc	r0, r1, r5, ror r5
     f2c:	01062205 	tsteq	r6, r5, lsl #4
     f30:	4b060505 	blmi	18234c <__bss_end__+0x1786bc>
     f34:	05831105 	streq	r1, [r3, #261]	; 0x105
     f38:	9e018305 	cdpls	3, 0, cr8, cr1, cr5, {0}
     f3c:	060e0535 			; <UNDEFINED> instruction: 0x060e0535
     f40:	2e0a0501 	cfsh32cs	mvfx0, mvfx10, #1
     f44:	04052d06 	streq	r2, [r5], #-3334	; 0xfffff2fa
     f48:	13050106 	movwne	r0, #20742	; 0x5106
     f4c:	01040200 	mrseq	r0, R12_usr
     f50:	0010054a 	andseq	r0, r0, sl, asr #10
     f54:	2e010402 	cdpcs	4, 0, cr0, cr1, cr2, {0}
     f58:	01040200 	mrseq	r0, R12_usr
     f5c:	06020566 	streq	r0, [r2], -r6, ror #10
     f60:	06070516 			; <UNDEFINED> instruction: 0x06070516
     f64:	06020501 	streq	r0, [r2], -r1, lsl #10
     f68:	0601054b 	streq	r0, [r1], -fp, asr #10
     f6c:	1e026613 	mcrne	6, 0, r6, cr2, cr3, {0}
     f70:	c3010100 	movwgt	r0, #4352	; 0x1100
     f74:	03000000 	movweq	r0, #0
     f78:	00008200 	andeq	r8, r0, r0, lsl #4
     f7c:	fb010200 	blx	41786 <__bss_end__+0x37af6>
     f80:	01000d0e 	tsteq	r0, lr, lsl #26
     f84:	00010101 	andeq	r0, r1, r1, lsl #2
     f88:	00010000 	andeq	r0, r1, r0
     f8c:	2f2e0100 	svccs	0x002e0100
     f90:	66617473 			; <UNDEFINED> instruction: 0x66617473
     f94:	72732d66 	rsbsvc	r2, r3, #6528	; 0x1980
     f98:	552f0063 	strpl	r0, [pc, #-99]!	; f3d <__code_start__-0x70c3>
     f9c:	73726573 	cmnvc	r2, #482344960	; 0x1cc00000
     fa0:	6972652f 	ldmdbvs	r2!, {r0, r1, r2, r3, r5, r8, sl, sp, lr}^
     fa4:	61656263 	cmnvs	r5, r3, ror #4
     fa8:	6f442f72 	svcvs	0x00442f72
     fac:	656d7563 	strbvs	r7, [sp, #-1379]!	; 0xfffffa9d
     fb0:	2f73746e 	svccs	0x0073746e
     fb4:	34315343 	ldrtcc	r5, [r1], #-835	; 0xfffffcbd
     fb8:	632f4530 			; <UNDEFINED> instruction: 0x632f4530
     fbc:	30343173 	eorscc	r3, r4, r3, ror r1
     fc0:	69662d45 	stmdbvs	r6!, {r0, r2, r6, r8, sl, fp, sp}^
     fc4:	2d6c616e 	stfcse	f6, [ip, #-440]!	; 0xfffffe48
     fc8:	6a6f7270 	bvs	1bdd990 <__bss_end__+0x1bd3d00>
     fcc:	2f746365 	svccs	0x00746365
     fd0:	7362696c 	cmnvc	r2, #108, 18	; 0x1b0000
     fd4:	3034322d 	eorscc	r3, r4, sp, lsr #4
     fd8:	6c2f786c 	stcvs	8, cr7, [pc], #-432	; e30 <__code_start__-0x71d0>
     fdc:	69706269 	ldmdbvs	r0!, {r0, r3, r5, r6, r9, sp, lr}^
     fe0:	636e692f 	cmnvs	lr, #770048	; 0xbc000
     fe4:	6564756c 	strbvs	r7, [r4, #-1388]!	; 0xfffffa94
     fe8:	61630000 	cmnvs	r3, r0
     fec:	2e656863 	cdpcs	8, 6, cr6, cr5, cr3, {3}
     ff0:	00010063 	andeq	r0, r1, r3, rrx
     ff4:	69707200 	ldmdbvs	r0!, {r9, ip, sp, lr}^
     ff8:	0200682e 	andeq	r6, r0, #3014656	; 0x2e0000
     ffc:	05000000 	streq	r0, [r0, #-0]
    1000:	02050019 	andeq	r0, r5, #25, 0
    1004:	00008b8c 	andeq	r8, r0, ip, lsl #23
    1008:	13050514 	movwne	r0, #21780	; 0x5514
    100c:	2f020513 	svccs	0x00020513
    1010:	06040513 			; <UNDEFINED> instruction: 0x06040513
    1014:	06050501 	streq	r0, [r5], -r1, lsl #10
    1018:	0601052f 	streq	r0, [r1], -pc, lsr #10
    101c:	061a052f 	ldreq	r0, [sl], -pc, lsr #10
    1020:	13050531 	movwne	r0, #21809	; 0x5531
    1024:	30020513 	andcc	r0, r2, r3, lsl r5
    1028:	06040513 			; <UNDEFINED> instruction: 0x06040513
    102c:	06050501 	streq	r0, [r5], -r1, lsl #10
    1030:	0601052f 	streq	r0, [r1], -pc, lsr #10
    1034:	0002022f 	andeq	r0, r2, pc, lsr #4
    1038:	00a40101 	adceq	r0, r4, r1, lsl #2
    103c:	00030000 	andeq	r0, r3, r0
    1040:	00000089 	andeq	r0, r0, r9, lsl #1
    1044:	0efb0102 	cdpeq	1, 15, cr0, cr11, cr2, {0}
    1048:	0101000d 	tsteq	r1, sp
    104c:	00000101 	andeq	r0, r0, r1, lsl #2
    1050:	00000100 	andeq	r0, r0, r0, lsl #2
    1054:	732f2e01 			; <UNDEFINED> instruction: 0x732f2e01
    1058:	66666174 			; <UNDEFINED> instruction: 0x66666174
    105c:	6372732d 	cmnvs	r2, #-1275068416	; 0xb4000000
    1060:	73552f00 	cmpvc	r5, #0, 30
    1064:	2f737265 	svccs	0x00737265
    1068:	63697265 	cmnvs	r9, #1342177286	; 0x50000006
    106c:	72616562 	rsbvc	r6, r1, #411041792	; 0x18800000
    1070:	636f442f 	cmnvs	pc, #788529152	; 0x2f000000
    1074:	6e656d75 	mcrvs	13, 3, r6, cr5, cr5, {3}
    1078:	432f7374 			; <UNDEFINED> instruction: 0x432f7374
    107c:	30343153 	eorscc	r3, r4, r3, asr r1
    1080:	73632f45 	cmnvc	r3, #276	; 0x114
    1084:	45303431 	ldrmi	r3, [r0, #-1073]!	; 0xfffffbcf
    1088:	6e69662d 	cdpvs	6, 6, cr6, cr9, cr13, {1}
    108c:	702d6c61 	eorvc	r6, sp, r1, ror #24
    1090:	656a6f72 	strbvs	r6, [sl, #-3954]!	; 0xfffff08e
    1094:	6c2f7463 	cfstrsvs	mvf7, [pc], #-396	; f10 <__code_start__-0x70f0>
    1098:	2d736269 	lfmcs	f6, 2, [r3, #-420]!	; 0xfffffe5c
    109c:	6c303432 	cfldrsvs	mvf3, [r0], #-200	; 0xffffff38
    10a0:	696c2f78 	stmdbvs	ip!, {r3, r4, r5, r6, r8, r9, sl, fp, sp}^
    10a4:	2f697062 	svccs	0x00697062
    10a8:	6c636e69 	stclvs	14, cr6, [r3], #-420	; 0xfffffe5c
    10ac:	00656475 	rsbeq	r6, r5, r5, ror r4
    10b0:	656c6300 	strbvs	r6, [ip, #-768]!	; 0xfffffd00
    10b4:	722d6e61 	eorvc	r6, sp, #1552	; 0x610
    10b8:	6f6f6265 	svcvs	0x006f6265
    10bc:	00632e74 	rsbeq	r2, r3, r4, ror lr
    10c0:	72000001 	andvc	r0, r0, #1, 0
    10c4:	682e6970 	stmdavs	lr!, {r4, r5, r6, r8, fp, sp, lr}
    10c8:	00000200 	andeq	r0, r0, r0, lsl #4
    10cc:	00190500 	andseq	r0, r9, r0, lsl #10
    10d0:	8bac0205 	blhi	feb018ec <__bss_end__+0xfeaf7c5c>
    10d4:	05150000 	ldreq	r0, [r5, #-0]
    10d8:	2f832f05 	svccs	0x00832f05
    10dc:	0006024b 	andeq	r0, r6, fp, asr #4
    10e0:	00be0101 	adcseq	r0, lr, r1, lsl #2
    10e4:	00030000 	andeq	r0, r3, r0
    10e8:	00000083 	andeq	r0, r0, r3, lsl #1
    10ec:	0efb0102 	cdpeq	1, 15, cr0, cr11, cr2, {0}
    10f0:	0101000d 	tsteq	r1, sp
    10f4:	00000101 	andeq	r0, r0, r1, lsl #2
    10f8:	00000100 	andeq	r0, r0, r0, lsl #2
    10fc:	732f2e01 			; <UNDEFINED> instruction: 0x732f2e01
    1100:	66666174 			; <UNDEFINED> instruction: 0x66666174
    1104:	6372732d 	cmnvs	r2, #-1275068416	; 0xb4000000
    1108:	73552f00 	cmpvc	r5, #0, 30
    110c:	2f737265 	svccs	0x00737265
    1110:	63697265 	cmnvs	r9, #1342177286	; 0x50000006
    1114:	72616562 	rsbvc	r6, r1, #411041792	; 0x18800000
    1118:	636f442f 	cmnvs	pc, #788529152	; 0x2f000000
    111c:	6e656d75 	mcrvs	13, 3, r6, cr5, cr5, {3}
    1120:	432f7374 			; <UNDEFINED> instruction: 0x432f7374
    1124:	30343153 	eorscc	r3, r4, r3, asr r1
    1128:	73632f45 	cmnvc	r3, #276	; 0x114
    112c:	45303431 	ldrmi	r3, [r0, #-1073]!	; 0xfffffbcf
    1130:	6e69662d 	cdpvs	6, 6, cr6, cr9, cr13, {1}
    1134:	702d6c61 	eorvc	r6, sp, r1, ror #24
    1138:	656a6f72 	strbvs	r6, [sl, #-3954]!	; 0xfffff08e
    113c:	6c2f7463 	cfstrsvs	mvf7, [pc], #-396	; fb8 <__code_start__-0x7048>
    1140:	2d736269 	lfmcs	f6, 2, [r3, #-420]!	; 0xfffffe5c
    1144:	6c303432 	cfldrsvs	mvf3, [r0], #-200	; 0xffffff38
    1148:	696c2f78 	stmdbvs	ip!, {r3, r4, r5, r6, r8, r9, sl, fp, sp}^
    114c:	2f697062 	svccs	0x00697062
    1150:	6c636e69 	stclvs	14, cr6, [r3], #-420	; 0xfffffe5c
    1154:	00656475 	rsbeq	r6, r5, r5, ror r4
    1158:	74736300 	ldrbtvc	r6, [r3], #-768	; 0xfffffd00
    115c:	2e747261 	cdpcs	2, 7, cr7, cr4, cr1, {3}
    1160:	00010063 	andeq	r0, r1, r3, rrx
    1164:	69707200 	ldmdbvs	r0!, {r9, ip, sp, lr}^
    1168:	0200682e 	andeq	r6, r0, #3014656	; 0x2e0000
    116c:	05000000 	streq	r0, [r0, #-0]
    1170:	02050010 	andeq	r0, r5, #16, 0
    1174:	00008bd8 	ldrdeq	r8, [r0], -r8	; <UNPREDICTABLE>
    1178:	2f050515 	svccs	0x00050515
    117c:	05130205 	ldreq	r0, [r3, #-517]	; 0xfffffdfb
    1180:	13301405 	teqne	r0, #83886080	; 0x5000000
    1184:	060a0514 			; <UNDEFINED> instruction: 0x060a0514
    1188:	0531060f 	ldreq	r0, [r1, #-1551]!	; 0xfffff9f1
    118c:	10054b09 	andne	r4, r5, r9, lsl #22
    1190:	054a0106 	strbeq	r0, [sl, #-262]	; 0xfffffefa
    1194:	32300605 	eorscc	r0, r0, #5242880	; 0x500000
    1198:	144a0101 	strbne	r0, [sl], #-257	; 0xfffffeff
    119c:	022f0205 	eoreq	r0, pc, #1342177280	; 0x50000000
    11a0:	01010006 	tsteq	r1, r6
    11a4:	000000a2 	andeq	r0, r0, r2, lsr #1
    11a8:	008a0003 	addeq	r0, sl, r3
    11ac:	01020000 	mrseq	r0, (UNDEF: 2)
    11b0:	000d0efb 	strdeq	r0, [sp], -fp
    11b4:	01010101 	tsteq	r1, r1, lsl #2
    11b8:	01000000 	mrseq	r0, (UNDEF: 0)
    11bc:	2e010000 	cdpcs	0, 0, cr0, cr1, cr0, {0}
    11c0:	6174732f 	cmnvs	r4, pc, lsr #6
    11c4:	732d6666 			; <UNDEFINED> instruction: 0x732d6666
    11c8:	2f006372 	svccs	0x00006372
    11cc:	72657355 	rsbvc	r7, r5, #1409286145	; 0x54000001
    11d0:	72652f73 	rsbvc	r2, r5, #460	; 0x1cc
    11d4:	65626369 	strbvs	r6, [r2, #-873]!	; 0xfffffc97
    11d8:	442f7261 	strtmi	r7, [pc], #-609	; 11e0 <__code_start__-0x6e20>
    11dc:	6d75636f 	ldclvs	3, cr6, [r5, #-444]!	; 0xfffffe44
    11e0:	73746e65 	cmnvc	r4, #1616	; 0x650
    11e4:	3153432f 	cmpcc	r3, pc, lsr #6
    11e8:	2f453034 	svccs	0x00453034
    11ec:	34317363 	ldrtcc	r7, [r1], #-867	; 0xfffffc9d
    11f0:	662d4530 			; <UNDEFINED> instruction: 0x662d4530
    11f4:	6c616e69 	stclvs	14, cr6, [r1], #-420	; 0xfffffe5c
    11f8:	6f72702d 	svcvs	0x0072702d
    11fc:	7463656a 	strbtvc	r6, [r3], #-1386	; 0xfffffa96
    1200:	62696c2f 	rsbvs	r6, r9, #12032	; 0x2f00
    1204:	34322d73 	ldrtcc	r2, [r2], #-3443	; 0xfffff28d
    1208:	2f786c30 	svccs	0x00786c30
    120c:	7062696c 	rsbvc	r6, r2, ip, ror #18
    1210:	6e692f69 	cdpvs	15, 6, cr2, cr9, cr9, {3}
    1214:	64756c63 	ldrbtvs	r6, [r5], #-3171	; 0xfffff39d
    1218:	63000065 	movwvs	r0, #101	; 0x65
    121c:	6f747375 	svcvs	0x00747375
    1220:	6f6c2d6d 	svcvs	0x006c2d6d
    1224:	72656461 	rsbvc	r6, r5, #1627389952	; 0x61000000
    1228:	0100632e 	tsteq	r0, lr, lsr #6
    122c:	70720000 	rsbsvc	r0, r2, r0
    1230:	00682e69 	rsbeq	r2, r8, r9, ror #28
    1234:	00000002 	andeq	r0, r0, r2
    1238:	05001a05 	streq	r1, [r0, #-2565]	; 0xfffff5fb
    123c:	008c1402 	addeq	r1, ip, r2, lsl #8
    1240:	01051500 	tsteq	r5, r0, lsl #10
    1244:	00020214 	andeq	r0, r2, r4, lsl r2
    1248:	00f20101 	rscseq	r0, r2, r1, lsl #2
    124c:	00030000 	andeq	r0, r3, r0
    1250:	00000083 	andeq	r0, r0, r3, lsl #1
    1254:	0efb0102 	cdpeq	1, 15, cr0, cr11, cr2, {0}
    1258:	0101000d 	tsteq	r1, sp
    125c:	00000101 	andeq	r0, r0, r1, lsl #2
    1260:	00000100 	andeq	r0, r0, r0, lsl #2
    1264:	732f2e01 			; <UNDEFINED> instruction: 0x732f2e01
    1268:	66666174 			; <UNDEFINED> instruction: 0x66666174
    126c:	6372732d 	cmnvs	r2, #-1275068416	; 0xb4000000
    1270:	73552f00 	cmpvc	r5, #0, 30
    1274:	2f737265 	svccs	0x00737265
    1278:	63697265 	cmnvs	r9, #1342177286	; 0x50000006
    127c:	72616562 	rsbvc	r6, r1, #411041792	; 0x18800000
    1280:	636f442f 	cmnvs	pc, #788529152	; 0x2f000000
    1284:	6e656d75 	mcrvs	13, 3, r6, cr5, cr5, {3}
    1288:	432f7374 			; <UNDEFINED> instruction: 0x432f7374
    128c:	30343153 	eorscc	r3, r4, r3, asr r1
    1290:	73632f45 	cmnvc	r3, #276	; 0x114
    1294:	45303431 	ldrmi	r3, [r0, #-1073]!	; 0xfffffbcf
    1298:	6e69662d 	cdpvs	6, 6, cr6, cr9, cr13, {1}
    129c:	702d6c61 	eorvc	r6, sp, r1, ror #24
    12a0:	656a6f72 	strbvs	r6, [sl, #-3954]!	; 0xfffff08e
    12a4:	6c2f7463 	cfstrsvs	mvf7, [pc], #-396	; 1120 <__code_start__-0x6ee0>
    12a8:	2d736269 	lfmcs	f6, 2, [r3, #-420]!	; 0xfffffe5c
    12ac:	6c303432 	cfldrsvs	mvf3, [r0], #-200	; 0xffffff38
    12b0:	696c2f78 	stmdbvs	ip!, {r3, r4, r5, r6, r8, r9, sl, fp, sp}^
    12b4:	2f697062 	svccs	0x00697062
    12b8:	6c636e69 	stclvs	14, cr6, [r3], #-420	; 0xfffffe5c
    12bc:	00656475 	rsbeq	r6, r5, r5, ror r4
    12c0:	62657200 	rsbvs	r7, r5, #0, 4
    12c4:	2e746f6f 	cdpcs	15, 7, cr6, cr4, cr15, {3}
    12c8:	00010063 	andeq	r0, r1, r3, rrx
    12cc:	69707200 	ldmdbvs	r0!, {r9, ip, sp, lr}^
    12d0:	0200682e 	andeq	r6, r0, #3014656	; 0x2e0000
    12d4:	05000000 	streq	r0, [r0, #-0]
    12d8:	02050019 	andeq	r0, r5, #25, 0
    12dc:	00008c18 	andeq	r8, r0, r8, lsl ip
    12e0:	05010d03 	streq	r0, [r1, #-3331]	; 0xfffff2fd
    12e4:	31131305 	tstcc	r3, r5, lsl #6
    12e8:	01061305 	tsteq	r6, r5, lsl #6
    12ec:	052f0105 	streq	r0, [pc, #-261]!	; 11ef <__code_start__-0x6e11>
    12f0:	0585061b 	streq	r0, [r5, #1563]	; 0x61b
    12f4:	05141305 	ldreq	r1, [r4, #-773]	; 0xfffffcfb
    12f8:	16052f09 	strne	r2, [r5], -r9, lsl #30
    12fc:	0e050106 	adfeqs	f0, f5, f6
    1300:	0605052e 	streq	r0, [r5], -lr, lsr #10
    1304:	0601052f 	streq	r0, [r1], -pc, lsr #10
    1308:	0617052f 	ldreq	r0, [r7], -pc, lsr #10
    130c:	2f050530 	svccs	0x00050530
    1310:	01060805 	tsteq	r6, r5, lsl #16
    1314:	052e0705 	streq	r0, [lr, #-1797]!	; 0xfffff8fb
    1318:	30500605 	subscc	r0, r0, r5, lsl #12
    131c:	13134d2f 	tstne	r3, #3008	; 0xbc0
    1320:	00671513 	rsbeq	r1, r7, r3, lsl r5
    1324:	67010402 	strvs	r0, [r1, -r2, lsl #8]
    1328:	02000d05 	andeq	r0, r0, #320	; 0x140
    132c:	05010104 	streq	r0, [r1, #-260]	; 0xfffffefc
    1330:	0402000a 	streq	r0, [r2], #-10
    1334:	09050101 	stmdbeq	r5, {r0, r8}
    1338:	022e6d03 	eoreq	r6, lr, #192	; 0xc0
    133c:	0101000c 	tsteq	r1, ip
    1340:	000000f9 	strdeq	r0, [r0], -r9
    1344:	00820003 	addeq	r0, r2, r3
    1348:	01020000 	mrseq	r0, (UNDEF: 2)
    134c:	000d0efb 	strdeq	r0, [sp], -fp
    1350:	01010101 	tsteq	r1, r1, lsl #2
    1354:	01000000 	mrseq	r0, (UNDEF: 0)
    1358:	2e010000 	cdpcs	0, 0, cr0, cr1, cr0, {0}
    135c:	6174732f 	cmnvs	r4, pc, lsr #6
    1360:	732d6666 			; <UNDEFINED> instruction: 0x732d6666
    1364:	2f006372 	svccs	0x00006372
    1368:	72657355 	rsbvc	r7, r5, #1409286145	; 0x54000001
    136c:	72652f73 	rsbvc	r2, r5, #460	; 0x1cc
    1370:	65626369 	strbvs	r6, [r2, #-873]!	; 0xfffffc97
    1374:	442f7261 	strtmi	r7, [pc], #-609	; 137c <__code_start__-0x6c84>
    1378:	6d75636f 	ldclvs	3, cr6, [r5, #-444]!	; 0xfffffe44
    137c:	73746e65 	cmnvc	r4, #1616	; 0x650
    1380:	3153432f 	cmpcc	r3, pc, lsr #6
    1384:	2f453034 	svccs	0x00453034
    1388:	34317363 	ldrtcc	r7, [r1], #-867	; 0xfffffc9d
    138c:	662d4530 			; <UNDEFINED> instruction: 0x662d4530
    1390:	6c616e69 	stclvs	14, cr6, [r1], #-420	; 0xfffffe5c
    1394:	6f72702d 	svcvs	0x0072702d
    1398:	7463656a 	strbtvc	r6, [r3], #-1386	; 0xfffffa96
    139c:	62696c2f 	rsbvs	r6, r9, #12032	; 0x2f00
    13a0:	34322d73 	ldrtcc	r2, [r2], #-3443	; 0xfffff28d
    13a4:	2f786c30 	svccs	0x00786c30
    13a8:	7062696c 	rsbvc	r6, r2, ip, ror #18
    13ac:	6e692f69 	cdpvs	15, 6, cr2, cr9, cr9, {3}
    13b0:	64756c63 	ldrbtvs	r6, [r5], #-3171	; 0xfffff39d
    13b4:	74000065 	strvc	r0, [r0], #-101	; 0xffffff9b
    13b8:	72656d69 	rsbvc	r6, r5, #6720	; 0x1a40
    13bc:	0100632e 	tsteq	r0, lr, lsr #6
    13c0:	70720000 	rsbsvc	r0, r2, r0
    13c4:	00682e69 	rsbeq	r2, r8, r9, ror #28
    13c8:	00000002 	andeq	r0, r0, r2
    13cc:	05002305 	streq	r2, [r0, #-773]	; 0xfffffcfb
    13d0:	008c9802 	addeq	r9, ip, r2, lsl #16
    13d4:	05051500 	streq	r1, [r5, #-1280]	; 0xfffffb00
    13d8:	060c052f 	streq	r0, [ip], -pc, lsr #10
    13dc:	4b010501 	blmi	427e8 <__bss_end__+0x38b58>
    13e0:	4d061f05 	stcmi	15, cr1, [r6, #-20]	; 0xffffffec
    13e4:	2f310505 	svccs	0x00310505
    13e8:	01061205 	tsteq	r6, r5, lsl #4
    13ec:	4b060505 	blmi	182808 <__bss_end__+0x178b78>
    13f0:	0601052f 	streq	r0, [r1], -pc, lsr #10
    13f4:	061c0513 			; <UNDEFINED> instruction: 0x061c0513
    13f8:	0501064c 	streq	r0, [r1, #-1612]	; 0xfffff9b4
    13fc:	054b0605 	strbeq	r0, [fp, #-1541]	; 0xfffff9fb
    1400:	2e010613 	mcrcs	6, 0, r0, cr1, cr3, {0}
    1404:	2f060505 	svccs	0x00060505
    1408:	05130905 	ldreq	r0, [r3, #-2309]	; 0xfffff6fb
    140c:	05010617 	streq	r0, [r1, #-1559]	; 0xfffff9e9
    1410:	052f0609 	streq	r0, [pc, #-1545]!	; e0f <__code_start__-0x71f1>
    1414:	05010611 	streq	r0, [r1, #-1553]	; 0xfffff9ef
    1418:	1c052e0c 	stcne	14, cr2, [r5], {12}
    141c:	01066b06 	tsteq	r6, r6, lsl #22
    1420:	2f060505 	svccs	0x00060505
    1424:	01054a06 	tsteq	r5, r6, lsl #20
    1428:	061e054b 	ldreq	r0, [lr], -fp, asr #10
    142c:	0501062f 	streq	r0, [r1, #-1583]	; 0xfffff9d1
    1430:	062f0605 	strteq	r0, [pc], -r5, lsl #12
    1434:	4b01054a 	blmi	42964 <__bss_end__+0x38cd4>
    1438:	01000202 	tsteq	r0, r2, lsl #4
    143c:	0001bb01 	andeq	fp, r1, r1, lsl #22
    1440:	bf000300 	svclt	0x00000300
    1444:	02000000 	andeq	r0, r0, #0, 0
    1448:	0d0efb01 	vstreq	d15, [lr, #-4]
    144c:	01010100 	mrseq	r0, (UNDEF: 17)
    1450:	00000001 	andeq	r0, r0, r1
    1454:	01000001 	tsteq	r0, r1
    1458:	6d6f682f 	stclvs	8, cr6, [pc, #-188]!	; 13a4 <__code_start__-0x6c5c>
    145c:	6e652f65 	cdpvs	15, 6, cr2, cr5, cr5, {3}
    1460:	72656c67 	rsbvc	r6, r5, #26368	; 0x6700
    1464:	616c632f 	cmnvs	ip, pc, lsr #6
    1468:	632f7373 			; <UNDEFINED> instruction: 0x632f7373
    146c:	30343273 	eorscc	r3, r4, r3, ror r2
    1470:	322d786c 	eorcc	r7, sp, #108, 16	; 0x6c0000
    1474:	72707332 	rsbsvc	r7, r0, #-939524096	; 0xc8000000
    1478:	696c2f2f 	stmdbvs	ip!, {r0, r1, r2, r3, r5, r8, r9, sl, fp, sp}^
    147c:	2f697062 	svccs	0x00697062
    1480:	6c636e69 	stclvs	14, cr6, [r3], #-420	; 0xfffffe5c
    1484:	00656475 	rsbeq	r6, r5, r5, ror r4
    1488:	7273752f 	rsbsvc	r7, r3, #197132288	; 0xbc00000
    148c:	6168732f 	cmnvs	r8, pc, lsr #6
    1490:	672f6572 			; <UNDEFINED> instruction: 0x672f6572
    1494:	612d6363 			; <UNDEFINED> instruction: 0x612d6363
    1498:	6e2d6d72 	mcrvs	13, 1, r6, cr13, cr2, {3}
    149c:	2d656e6f 	stclcs	14, cr6, [r5, #-444]!	; 0xfffffe44
    14a0:	69626165 	stmdbvs	r2!, {r0, r2, r5, r6, r8, sp, lr}^
    14a4:	2e30312d 	rsfcssp	f3, f0, #5.0
    14a8:	30322d33 	eorscc	r2, r2, r3, lsr sp
    14ac:	312e3132 			; <UNDEFINED> instruction: 0x312e3132
    14b0:	696c2f30 	stmdbvs	ip!, {r4, r5, r8, r9, sl, fp, sp}^
    14b4:	63672f62 	cmnvs	r7, #392	; 0x188
    14b8:	72612f63 	rsbvc	r2, r1, #396	; 0x18c
    14bc:	6f6e2d6d 	svcvs	0x006e2d6d
    14c0:	652d656e 	strvs	r6, [sp, #-1390]!	; 0xfffffa92
    14c4:	2f696261 	svccs	0x00696261
    14c8:	332e3031 			; <UNDEFINED> instruction: 0x332e3031
    14cc:	692f312e 	stmdbvs	pc!, {r1, r2, r3, r5, r8, ip, sp}	; <UNPREDICTABLE>
    14d0:	756c636e 	strbvc	r6, [ip, #-878]!	; 0xfffffc92
    14d4:	00006564 	andeq	r6, r0, r4, ror #10
    14d8:	6f697067 	svcvs	0x00697067
    14dc:	0000632e 	andeq	r6, r0, lr, lsr #6
    14e0:	70720000 	rsbsvc	r0, r2, r0
    14e4:	00682e69 	rsbeq	r2, r8, r9, ror #28
    14e8:	73000001 	movwvc	r0, #1
    14ec:	6e696474 	mcrvs	4, 3, r6, cr9, cr4, {3}
    14f0:	63672d74 	cmnvs	r7, #116, 26	; 0x1d00
    14f4:	00682e63 	rsbeq	r2, r8, r3, ror #28
    14f8:	67000002 	strvs	r0, [r0, -r2]
    14fc:	2e6f6970 			; <UNDEFINED> instruction: 0x2e6f6970
    1500:	00010068 	andeq	r0, r1, r8, rrx
    1504:	38050000 	stmdacc	r5, {}	; <UNPREDICTABLE>
    1508:	1c020500 	cfstr32ne	mvfx0, [r2], {-0}
    150c:	0300008d 	movweq	r0, #141	; 0x8d
    1510:	05050127 	streq	r0, [r5, #-295]	; 0xfffffed9
    1514:	06070513 			; <UNDEFINED> instruction: 0x06070513
    1518:	49380501 	ldmdbmi	r8!, {r0, r8, sl}
    151c:	4d060505 	cfstr32mi	mvfx0, [r6, #-20]	; 0xffffffec
    1520:	01060705 	tsteq	r6, r5, lsl #14
    1524:	4c060505 	cfstr32mi	mvfx0, [r6], {5}
    1528:	01061805 	tsteq	r6, r5, lsl #16
    152c:	05ba0e05 	ldreq	r0, [sl, #3589]!	; 0xe05
    1530:	052f0605 	streq	r0, [pc, #-1541]!	; f33 <__code_start__-0x70cd>
    1534:	2e01061c 	mcrcs	6, 0, r0, cr1, cr12, {0}
    1538:	052e0e05 	streq	r0, [lr, #-3589]!	; 0xfffff1fb
    153c:	05300605 	ldreq	r0, [r0, #-1541]!	; 0xfffff9fb
    1540:	05010612 	streq	r0, [r1, #-1554]	; 0xfffff9ee
    1544:	054b0605 	strbeq	r0, [fp, #-1541]	; 0xfffff9fb
    1548:	05010607 	streq	r0, [r1, #-1543]	; 0xfffff9f9
    154c:	134b0605 	movtne	r0, #46597	; 0xb605
    1550:	01052e06 	tsteq	r5, r6, lsl #28
    1554:	0624054b 	strteq	r0, [r4], -fp, asr #10
    1558:	0501064c 	streq	r0, [r1, #-1612]	; 0xfffff9b4
    155c:	052f0605 	streq	r0, [pc, #-1541]!	; f5f <__code_start__-0x70a1>
    1560:	054b0601 	strbeq	r0, [fp, #-1537]	; 0xfffff9ff
    1564:	05310620 	ldreq	r0, [r1, #-1568]!	; 0xfffff9e0
    1568:	07051305 	streq	r1, [r5, -r5, lsl #6]
    156c:	20050106 	andcs	r0, r5, r6, lsl #2
    1570:	06050549 	streq	r0, [r5], -r9, asr #10
    1574:	05660631 	strbeq	r0, [r6, #-1585]!	; 0xfffff9cf
    1578:	21052f01 	tstcs	r5, r1, lsl #30
    157c:	05054d06 	streq	r4, [r5, #-3334]	; 0xfffff2fa
    1580:	06070513 			; <UNDEFINED> instruction: 0x06070513
    1584:	49210501 	stmdbmi	r1!, {r0, r8, sl}
    1588:	31060505 	tstcc	r6, r5, lsl #10
    158c:	01056606 	tsteq	r5, r6, lsl #12
    1590:	0623052f 	strteq	r0, [r3], -pc, lsr #10
    1594:	0501064d 	streq	r0, [r1, #-1613]	; 0xfffff9b3
    1598:	052f0605 	streq	r0, [pc, #-1541]!	; f9b <__code_start__-0x7065>
    159c:	054b0601 	strbeq	r0, [fp, #-1537]	; 0xfffff9ff
    15a0:	0631062b 	ldrteq	r0, [r1], -fp, lsr #12
    15a4:	06050501 	streq	r0, [r5], -r1, lsl #10
    15a8:	0607052f 	streq	r0, [r7], -pc, lsr #10
    15ac:	06090501 	streq	r0, [r9], -r1, lsl #10
    15b0:	062e064b 	strteq	r0, [lr], -fp, asr #12
    15b4:	06010530 			; <UNDEFINED> instruction: 0x06010530
    15b8:	061d052f 	ldreq	r0, [sp], -pc, lsr #10
    15bc:	13050530 	movwne	r0, #21808	; 0x5530
    15c0:	01060705 	tsteq	r6, r5, lsl #14
    15c4:	05491d05 	strbeq	r1, [r9, #-3333]	; 0xfffff2fb
    15c8:	13310605 	teqne	r1, #5242880	; 0x500000
    15cc:	01060e05 	tsteq	r6, r5, lsl #28
    15d0:	2f060505 	svccs	0x00060505
    15d4:	01061705 	tsteq	r6, r5, lsl #14
    15d8:	2e23054a 	cfsh64cs	mvdx0, mvdx3, #42
    15dc:	30050204 	andcc	r0, r5, r4, lsl #4
    15e0:	00dc0306 	sbcseq	r0, ip, r6, lsl #6
    15e4:	0501042e 	streq	r0, [r1, #-1070]	; 0xfffffbd2
    15e8:	a403060c 	strge	r0, [r3], #-1548	; 0xfffff9f4
    15ec:	0105017f 	tsteq	r5, pc, ror r1
    15f0:	2a10052f 	bcs	402ab4 <__bss_end__+0x3f8e24>
    15f4:	02320105 	eorseq	r0, r2, #1073741825	; 0x40000001
    15f8:	01010004 	tsteq	r1, r4
    15fc:	00000205 	andeq	r0, r0, r5, lsl #4
    1600:	00c90003 	sbceq	r0, r9, r3
    1604:	01020000 	mrseq	r0, (UNDEF: 2)
    1608:	000d0efb 	strdeq	r0, [sp], -fp
    160c:	01010101 	tsteq	r1, r1, lsl #2
    1610:	01000000 	mrseq	r0, (UNDEF: 0)
    1614:	2f010000 	svccs	0x00010000
    1618:	656d6f68 	strbvs	r6, [sp, #-3944]!	; 0xfffff098
    161c:	676e652f 	strbvs	r6, [lr, -pc, lsr #10]!
    1620:	2f72656c 	svccs	0x0072656c
    1624:	73616c63 	cmnvc	r1, #25344	; 0x6300
    1628:	73632f73 	cmnvc	r3, #460	; 0x1cc
    162c:	6c303432 	cfldrsvs	mvf3, [r0], #-200	; 0xffffff38
    1630:	32322d78 	eorscc	r2, r2, #120, 26	; 0x1e00
    1634:	2f727073 	svccs	0x00727073
    1638:	62696c2f 	rsbvs	r6, r9, #12032	; 0x2f00
    163c:	692f6970 	stmdbvs	pc!, {r4, r5, r6, r8, fp, sp, lr}	; <UNPREDICTABLE>
    1640:	756c636e 	strbvc	r6, [ip, #-878]!	; 0xfffffc92
    1644:	2f006564 	svccs	0x00006564
    1648:	2f727375 	svccs	0x00727375
    164c:	72616873 	rsbvc	r6, r1, #7536640	; 0x730000
    1650:	63672f65 	cmnvs	r7, #404	; 0x194
    1654:	72612d63 	rsbvc	r2, r1, #6336	; 0x18c0
    1658:	6f6e2d6d 	svcvs	0x006e2d6d
    165c:	652d656e 	strvs	r6, [sp, #-1390]!	; 0xfffffa92
    1660:	2d696261 	sfmcs	f6, 2, [r9, #-388]!	; 0xfffffe7c
    1664:	332e3031 			; <UNDEFINED> instruction: 0x332e3031
    1668:	3230322d 	eorscc	r3, r0, #-805306366	; 0xd0000002
    166c:	30312e31 	eorscc	r2, r1, r1, lsr lr
    1670:	62696c2f 	rsbvs	r6, r9, #12032	; 0x2f00
    1674:	6363672f 	cmnvs	r3, #12320768	; 0xbc0000
    1678:	6d72612f 	ldfvse	f6, [r2, #-188]!	; 0xffffff44
    167c:	6e6f6e2d 	cdpvs	14, 6, cr6, cr15, cr13, {1}
    1680:	61652d65 	cmnvs	r5, r5, ror #26
    1684:	312f6962 			; <UNDEFINED> instruction: 0x312f6962
    1688:	2e332e30 	mrccs	14, 1, r2, cr3, cr0, {1}
    168c:	6e692f31 	mcrvs	15, 3, r2, cr9, cr1, {1}
    1690:	64756c63 	ldrbtvs	r6, [r5], #-3171	; 0xfffff39d
    1694:	75000065 	strvc	r0, [r0, #-101]	; 0xffffff9b
    1698:	2e747261 	cdpcs	2, 7, cr7, cr4, cr1, {3}
    169c:	00000063 	andeq	r0, r0, r3, rrx
    16a0:	72617500 	rsbvc	r7, r1, #0, 10
    16a4:	00682e74 	rsbeq	r2, r8, r4, ror lr
    16a8:	72000001 	andvc	r0, r0, #1, 0
    16ac:	682e6970 	stmdavs	lr!, {r4, r5, r6, r8, fp, sp, lr}
    16b0:	00000100 	andeq	r0, r0, r0, lsl #2
    16b4:	6f697067 	svcvs	0x00697067
    16b8:	0100682e 	tsteq	r0, lr, lsr #16
    16bc:	74730000 	ldrbtvc	r0, [r3], #-0
    16c0:	746e6964 	strbtvc	r6, [lr], #-2404	; 0xfffff69c
    16c4:	6363672d 	cmnvs	r3, #11796480	; 0xb40000
    16c8:	0200682e 	andeq	r6, r0, #3014656	; 0x2e0000
    16cc:	05000000 	streq	r0, [r0, #-0]
    16d0:	02050039 	andeq	r0, r5, #57, 0	; 0x39
    16d4:	00008e38 	andeq	r8, r0, r8, lsr lr
    16d8:	06013003 	streq	r3, [r1], -r3
    16dc:	06050501 	streq	r0, [r5], -r1, lsl #10
    16e0:	06110567 	ldreq	r0, [r1], -r7, ror #10
    16e4:	2e050501 	cfsh32cs	mvfx0, mvfx5, #1
    16e8:	05670105 	strbeq	r0, [r7, #-261]!	; 0xfffffefb
    16ec:	06290638 			; <UNDEFINED> instruction: 0x06290638
    16f0:	06050501 	streq	r0, [r5], -r1, lsl #10
    16f4:	06110567 	ldreq	r0, [r1], -r7, ror #10
    16f8:	2e050501 	cfsh32cs	mvfx0, mvfx5, #1
    16fc:	05670105 	strbeq	r0, [r7, #-261]!	; 0xfffffefb
    1700:	15030616 	strne	r0, [r3, #-1558]	; 0xfffff9ea
    1704:	3505052e 	strcc	r0, [r5, #-1326]	; 0xfffffad2
    1708:	68356867 	ldmdavs	r5!, {r0, r1, r2, r5, r6, fp, sp, lr}
    170c:	852e0c03 	strhi	r0, [lr, #-3075]!	; 0xfffff3fd
    1710:	0369696b 	cmneq	r9, #1753088	; 0x1ac000
    1714:	6b13660c 	blvs	4daf4c <__bss_end__+0x4d12bc>
    1718:	06010567 	streq	r0, [r1], -r7, ror #10
    171c:	0619052f 	ldreq	r0, [r9], -pc, lsr #10
    1720:	05052508 	streq	r2, [r5, #-1288]	; 0xfffffaf8
    1724:	060d0534 			; <UNDEFINED> instruction: 0x060d0534
    1728:	4c010501 	cfstr32mi	mvfx0, [r1], {1}
    172c:	67061905 	strvs	r1, [r6, -r5, lsl #18]
    1730:	05360505 	ldreq	r0, [r6, #-1285]!	; 0xfffffafb
    1734:	0501060d 	streq	r0, [r1, #-1549]	; 0xfffff9f3
    1738:	01054a28 	tsteq	r5, r8, lsr #20
    173c:	06150530 			; <UNDEFINED> instruction: 0x06150530
    1740:	2f050587 	svccs	0x00050587
    1744:	0009052f 	andeq	r0, r9, pc, lsr #10
    1748:	13010402 	movwne	r0, #5122	; 0x1402
    174c:	02000a05 	andeq	r0, r0, #20480	; 0x5000
    1750:	05110104 	ldreq	r0, [r1, #-260]	; 0xfffffefc
    1754:	0402000c 	streq	r0, [r2], #-12
    1758:	05010601 	streq	r0, [r1, #-1537]	; 0xfffff9ff
    175c:	0402000a 	streq	r0, [r2], #-10
    1760:	05052e01 	streq	r2, [r5, #-3585]	; 0xfffff1ff
    1764:	0e054c06 	cdpeq	12, 0, cr4, cr5, cr6, {0}
    1768:	09050106 	stmdbeq	r5, {r1, r2, r8}
    176c:	0605054a 	streq	r0, [r5], -sl, asr #10
    1770:	01052f2f 	tsteq	r5, pc, lsr #30
    1774:	1c051306 	stcne	3, cr1, [r5], {6}
    1778:	01066706 	tsteq	r6, r6, lsl #14
    177c:	4b060505 	blmi	182b98 <__bss_end__+0x178f08>
    1780:	0009052f 	andeq	r0, r9, pc, lsr #10
    1784:	13010402 	movwne	r0, #5122	; 0x1402
    1788:	02000a05 	andeq	r0, r0, #20480	; 0x5000
    178c:	05110104 	ldreq	r0, [r1, #-260]	; 0xfffffefc
    1790:	0402000c 	streq	r0, [r2], #-12
    1794:	05010601 	streq	r0, [r1, #-1537]	; 0xfffff9ff
    1798:	0402000a 	streq	r0, [r2], #-10
    179c:	05052e01 	streq	r2, [r5, #-3585]	; 0xfffff1ff
    17a0:	05674c06 	strbeq	r4, [r7, #-3078]!	; 0xfffff3fa
    17a4:	052f0601 	streq	r0, [pc, #-1537]!	; 11ab <__code_start__-0x6e55>
    17a8:	054c0619 	strbeq	r0, [ip, #-1561]	; 0xfffff9e7
    17ac:	2a052e1b 	bcs	14d020 <__bss_end__+0x143390>
    17b0:	0631052e 	ldrteq	r0, [r1], -lr, lsr #10
    17b4:	2e420501 	cdpcs	5, 4, cr0, cr2, cr1, {0}
    17b8:	31061c05 	tstcc	r6, r5, lsl #24
    17bc:	032f0505 			; <UNDEFINED> instruction: 0x032f0505
    17c0:	0e052e09 	cdpeq	14, 0, cr2, cr5, cr9, {0}
    17c4:	21050106 	tstcs	r5, r6, lsl #2
    17c8:	0301054a 	movweq	r0, #5450	; 0x154a
    17cc:	1a052e0a 	bne	14cffc <__bss_end__+0x14336c>
    17d0:	09056806 	stmdbeq	r5, {r1, r2, fp, sp, lr}
    17d4:	01040200 	mrseq	r0, R12_usr
    17d8:	000a0530 	andeq	r0, sl, r0, lsr r5
    17dc:	11010402 	tstne	r1, r2, lsl #8
    17e0:	02000c05 	andeq	r0, r0, #1280	; 0x500
    17e4:	01060104 	tsteq	r6, r4, lsl #2
    17e8:	02000a05 	andeq	r0, r0, #20480	; 0x5000
    17ec:	052e0104 	streq	r0, [lr, #-260]!	; 0xfffffefc
    17f0:	e8030619 	stmda	r3, {r0, r3, r4, r9, sl}
    17f4:	0505667e 	streq	r6, [r5, #-1662]	; 0xfffff982
    17f8:	672f2f2f 	strvs	r2, [pc, -pc, lsr #30]!
    17fc:	2f060105 	svccs	0x00060105
    1800:	01000402 	tsteq	r0, r2, lsl #8
    1804:	00039301 	andeq	r9, r3, r1, lsl #6
    1808:	b8000300 	stmdalt	r0, {r8, r9}
    180c:	02000000 	andeq	r0, r0, #0, 0
    1810:	0d0efb01 	vstreq	d15, [lr, #-4]
    1814:	01010100 	mrseq	r0, (UNDEF: 17)
    1818:	00000001 	andeq	r0, r0, r1
    181c:	01000001 	tsteq	r0, r1
    1820:	6d6f682f 	stclvs	8, cr6, [pc, #-188]!	; 176c <__code_start__-0x6894>
    1824:	6e652f65 	cdpvs	15, 6, cr2, cr5, cr5, {3}
    1828:	72656c67 	rsbvc	r6, r5, #26368	; 0x6700
    182c:	616c632f 	cmnvs	ip, pc, lsr #6
    1830:	632f7373 			; <UNDEFINED> instruction: 0x632f7373
    1834:	30343273 	eorscc	r3, r4, r3, ror r2
    1838:	322d786c 	eorcc	r7, sp, #108, 16	; 0x6c0000
    183c:	72707332 	rsbsvc	r7, r0, #-939524096	; 0xc8000000
    1840:	696c2f2f 	stmdbvs	ip!, {r0, r1, r2, r3, r5, r8, r9, sl, fp, sp}^
    1844:	2f697062 	svccs	0x00697062
    1848:	6c636e69 	stclvs	14, cr6, [r3], #-420	; 0xfffffe5c
    184c:	00656475 	rsbeq	r6, r5, r5, ror r4
    1850:	7273752f 	rsbsvc	r7, r3, #197132288	; 0xbc00000
    1854:	6168732f 	cmnvs	r8, pc, lsr #6
    1858:	672f6572 			; <UNDEFINED> instruction: 0x672f6572
    185c:	612d6363 			; <UNDEFINED> instruction: 0x612d6363
    1860:	6e2d6d72 	mcrvs	13, 1, r6, cr13, cr2, {3}
    1864:	2d656e6f 	stclcs	14, cr6, [r5, #-444]!	; 0xfffffe44
    1868:	69626165 	stmdbvs	r2!, {r0, r2, r5, r6, r8, sp, lr}^
    186c:	2e30312d 	rsfcssp	f3, f0, #5.0
    1870:	30322d33 	eorscc	r2, r2, r3, lsr sp
    1874:	312e3132 			; <UNDEFINED> instruction: 0x312e3132
    1878:	696c2f30 	stmdbvs	ip!, {r4, r5, r8, r9, sl, fp, sp}^
    187c:	63672f62 	cmnvs	r7, #392	; 0x188
    1880:	72612f63 	rsbvc	r2, r1, #396	; 0x18c
    1884:	6f6e2d6d 	svcvs	0x006e2d6d
    1888:	652d656e 	strvs	r6, [sp, #-1390]!	; 0xfffffa92
    188c:	2f696261 	svccs	0x00696261
    1890:	332e3031 			; <UNDEFINED> instruction: 0x332e3031
    1894:	692f312e 	stmdbvs	pc!, {r1, r2, r3, r5, r8, ip, sp}	; <UNPREDICTABLE>
    1898:	756c636e 	strbvc	r6, [ip, #-878]!	; 0xfffffc92
    189c:	00006564 	andeq	r6, r0, r4, ror #10
    18a0:	6c616d6b 	stclvs	13, cr6, [r1], #-428	; 0xfffffe54
    18a4:	2e636f6c 	cdpcs	15, 6, cr6, cr3, cr12, {3}
    18a8:	00000063 	andeq	r0, r0, r3, rrx
    18ac:	69707200 	ldmdbvs	r0!, {r9, ip, sp, lr}^
    18b0:	0100682e 	tsteq	r0, lr, lsr #16
    18b4:	74730000 	ldrbtvc	r0, [r3], #-0
    18b8:	746e6964 	strbtvc	r6, [lr], #-2404	; 0xfffff69c
    18bc:	6363672d 	cmnvs	r3, #11796480	; 0xb40000
    18c0:	0200682e 	andeq	r6, r0, #3014656	; 0x2e0000
    18c4:	05000000 	streq	r0, [r0, #-0]
    18c8:	0205001e 	andeq	r0, r5, #30, 0
    18cc:	00009028 	andeq	r9, r0, r8, lsr #32
    18d0:	05012703 	streq	r2, [r1, #-1795]	; 0xfffff8fd
    18d4:	31050120 	tstcc	r5, r0, lsr #2
    18d8:	20050106 	andcs	r0, r5, r6, lsl #2
    18dc:	22058306 	andcs	r8, r5, #402653184	; 0x18000000
    18e0:	06350501 	ldrteq	r0, [r5], -r1, lsl #10
    18e4:	061e0501 	ldreq	r0, [lr], -r1, lsl #10
    18e8:	01200583 	smlawbeq	r0, r3, r5, r0
    18ec:	01062d05 	tsteq	r6, r5, lsl #26
    18f0:	85064205 	strhi	r4, [r6, #-517]	; 0xfffffdfb
    18f4:	05050106 	streq	r0, [r5, #-262]	; 0xfffffefa
    18f8:	01144b06 	tsteq	r4, r6, lsl #22
    18fc:	02002e06 	andeq	r2, r0, #96	; 0x60
    1900:	2e060204 	cdpcs	2, 0, cr0, cr6, cr4, {0}
    1904:	02040200 	andeq	r0, r4, #0, 4
    1908:	04020001 	streq	r0, [r2], #-1
    190c:	0d051502 	cfstr32eq	mvfx1, [r5, #-8]
    1910:	02040200 	andeq	r0, r4, #0, 4
    1914:	07050106 	streq	r0, [r5, -r6, lsl #2]
    1918:	02040200 	andeq	r0, r4, #0, 4
    191c:	0609054a 	streq	r0, [r9], -sl, asr #10
    1920:	1505054b 	strne	r0, [r5, #-1355]	; 0xfffffab5
    1924:	01061705 	tsteq	r6, r5, lsl #14
    1928:	054a1005 	strbeq	r1, [sl, #-5]
    192c:	052f0605 	streq	r0, [pc, #-1541]!	; 132f <__code_start__-0x6cd1>
    1930:	0501061b 	streq	r0, [r1, #-1563]	; 0xfffff9e5
    1934:	01052e0e 	tsteq	r5, lr, lsl #28
    1938:	0005052f 	andeq	r0, r5, pc, lsr #10
    193c:	06010402 	streq	r0, [r1], -r2, lsl #8
    1940:	004a7703 	subeq	r7, sl, r3, lsl #14
    1944:	01010402 	tsteq	r1, r2, lsl #8
    1948:	01040200 	mrseq	r0, R12_usr
    194c:	02009e06 	andeq	r9, r0, #96	; 0x60
    1950:	002e0104 	eoreq	r0, lr, r4, lsl #2
    1954:	06010402 	streq	r0, [r1], -r2, lsl #8
    1958:	3209052e 	andcc	r0, r9, #192937984	; 0xb800000
    195c:	2ed60601 	cdpcs	6, 13, cr0, cr6, cr1, {0}
    1960:	19052e06 	stmdbne	r5, {r1, r2, r9, sl, fp, sp}
    1964:	2f0505de 	svccs	0x000505de
    1968:	06080514 			; <UNDEFINED> instruction: 0x06080514
    196c:	4a070501 	bmi	1c2d78 <__bss_end__+0x1b90e8>
    1970:	4b060905 	blmi	183d8c <__bss_end__+0x17a0fc>
    1974:	05130505 	ldreq	r0, [r3, #-1285]	; 0xfffffafb
    1978:	0501060c 	streq	r0, [r1, #-1548]	; 0xfffff9f4
    197c:	13670605 	cmnne	r7, #5242880	; 0x500000
    1980:	67060105 	strvs	r0, [r6, -r5, lsl #2]
    1984:	2a060905 	bcs	183da0 <__bss_end__+0x17a110>
    1988:	28059e01 	stmdacs	r5, {r0, r9, sl, fp, ip, pc}
    198c:	050106a5 	streq	r0, [r1, #-1701]	; 0xfffff95b
    1990:	014b0605 	cmpeq	fp, r5, lsl #12
    1994:	2e062e06 	cdpcs	14, 0, cr2, cr6, cr6, {0}
    1998:	18051301 	stmdane	r5, {r0, r8, r9, ip}
    199c:	05014703 	streq	r4, [r1, #-1795]	; 0xfffff8fd
    19a0:	06011305 	streq	r1, [r1], -r5, lsl #6
    19a4:	150f0601 	strne	r0, [pc, #-1537]	; 13ab <__code_start__-0x6c55>
    19a8:	0e051301 	cdpeq	3, 0, cr1, cr5, cr1, {0}
    19ac:	16050106 	strne	r0, [r5], -r6, lsl #2
    19b0:	05052e2e 	streq	r2, [r5, #-3630]	; 0xfffff1d2
    19b4:	01390306 	teqeq	r9, r6, lsl #6
    19b8:	01060b05 	tsteq	r6, r5, lsl #22
    19bc:	4b060505 	blmi	182dd8 <__bss_end__+0x179148>
    19c0:	01060a05 	tsteq	r6, r5, lsl #20
    19c4:	4b060505 	blmi	182de0 <__bss_end__+0x179150>
    19c8:	01060d05 	tsteq	r6, r5, lsl #26
    19cc:	052e0705 	streq	r0, [lr, #-1797]!	; 0xfffff8fb
    19d0:	05054d01 	streq	r4, [r5, #-3329]	; 0xfffff2ff
    19d4:	01040200 	mrseq	r0, R12_usr
    19d8:	4a780306 	bmi	1e025f8 <__bss_end__+0x1df8968>
    19dc:	01040200 	mrseq	r0, R12_usr
    19e0:	04020001 	streq	r0, [r2], #-1
    19e4:	00ba0601 	adcseq	r0, sl, r1, lsl #12
    19e8:	06010402 	streq	r0, [r1], -r2, lsl #8
    19ec:	3409052e 	strcc	r0, [r9], #-1326	; 0xfffffad2
    19f0:	66820601 	strvs	r0, [r2], r1, lsl #12
    19f4:	20052e06 	andcs	r2, r5, r6, lsl #28
    19f8:	050106db 	streq	r0, [r1, #-1755]	; 0xfffff925
    19fc:	014b0605 	cmpeq	fp, r5, lsl #12
    1a00:	02040200 	andeq	r0, r4, #0, 4
    1a04:	0402004a 	streq	r0, [r2], #-74	; 0xffffffb6
    1a08:	02000102 	andeq	r0, r0, #-2147483648	; 0x80000000
    1a0c:	05130204 	ldreq	r0, [r3, #-516]	; 0xfffffdfc
    1a10:	04020012 	streq	r0, [r2], #-18	; 0xffffffee
    1a14:	00010602 	andeq	r0, r1, r2, lsl #12
    1a18:	2e020402 	cdpcs	4, 0, cr0, cr2, cr2, {0}
    1a1c:	02040200 	andeq	r0, r4, #0, 4
    1a20:	0005052e 	andeq	r0, r5, lr, lsr #10
    1a24:	06020402 	streq	r0, [r2], -r2, lsl #8
    1a28:	0402002f 	streq	r0, [r2], #-47	; 0xffffffd1
    1a2c:	01056702 	tsteq	r5, r2, lsl #14
    1a30:	02040200 	andeq	r0, r4, #0, 4
    1a34:	05051306 	streq	r1, [r5, #-774]	; 0xfffffcfa
    1a38:	01040200 	mrseq	r0, R12_usr
    1a3c:	02006206 	andeq	r6, r0, #1610612736	; 0x60000000
    1a40:	00010104 	andeq	r0, r1, r4, lsl #2
    1a44:	06010402 	streq	r0, [r1], -r2, lsl #8
    1a48:	040200ba 	streq	r0, [r2], #-186	; 0xffffff46
    1a4c:	052e0601 	streq	r0, [lr, #-1537]!	; 0xfffff9ff
    1a50:	9e0a033c 	mcrls	3, 0, r0, cr10, cr12, {1}
    1a54:	05050106 	streq	r0, [r5, #-262]	; 0xfffffefa
    1a58:	06014b06 	streq	r4, [r1], -r6, lsl #22
    1a5c:	012e062e 			; <UNDEFINED> instruction: 0x012e062e
    1a60:	18050113 	stmdane	r5, {r0, r1, r4, r8}
    1a64:	017fad03 	cmneq	pc, r3, lsl #26
    1a68:	05130505 	ldreq	r0, [r3, #-1285]	; 0xfffffafb
    1a6c:	2e010611 	mcrcs	6, 0, r0, cr1, cr1, {0}
    1a70:	d2030505 	andle	r0, r3, #20971520	; 0x1400000
    1a74:	4a060100 	bmi	181e7c <__bss_end__+0x1781ec>
    1a78:	03180513 	tsteq	r8, #79691776	; 0x4c00000
    1a7c:	05017fa3 	streq	r7, [r1, #-4003]	; 0xfffff05d
    1a80:	16051305 	strne	r1, [r5], -r5, lsl #6
    1a84:	054a0106 	strbeq	r0, [sl, #-262]	; 0xfffffefa
    1a88:	e1030605 	tst	r3, r5, lsl #12
    1a8c:	12050100 	andne	r0, r5, #0
    1a90:	05050106 	streq	r0, [r5, #-262]	; 0xfffffefa
    1a94:	18054b06 	stmdane	r5, {r1, r2, r8, r9, fp, lr}
    1a98:	017fa903 	cmneq	pc, r3, lsl #18
    1a9c:	01130505 	tsteq	r3, r5, lsl #10
    1aa0:	050e1805 	streq	r1, [lr, #-2053]	; 0xfffff7fb
    1aa4:	11051305 	tstne	r5, r5, lsl #6
    1aa8:	052e0106 	streq	r0, [lr, #-262]!	; 0xfffffefa
    1aac:	4a061505 	bmi	186ec8 <__bss_end__+0x17d238>
    1ab0:	0e051301 	cdpeq	3, 0, cr1, cr5, cr1, {0}
    1ab4:	052e0106 	streq	r0, [lr, #-262]!	; 0xfffffefa
    1ab8:	052e2e16 	streq	r2, [lr, #-3606]!	; 0xfffff1ea
    1abc:	d6030605 	strle	r0, [r3], -r5, lsl #12
    1ac0:	05010100 	streq	r0, [r1, #-256]	; 0xffffff00
    1ac4:	7f9f0318 	svcvc	0x009f0318
    1ac8:	13050501 	movwne	r0, #21761	; 0x5501
    1acc:	01061905 	tsteq	r6, r5, lsl #18
    1ad0:	0305052e 	movweq	r0, #21806	; 0x552e
    1ad4:	000100e0 	andeq	r0, r1, r0, ror #1
    1ad8:	06020402 	streq	r0, [r2], -r2, lsl #8
    1adc:	0402004a 	streq	r0, [r2], #-74	; 0xffffffb6
    1ae0:	0a051402 	beq	146af0 <__bss_end__+0x13ce60>
    1ae4:	02040200 	andeq	r0, r4, #0, 4
    1ae8:	05050106 	streq	r0, [r5, #-262]	; 0xfffffefa
    1aec:	02040200 	andeq	r0, r4, #0, 4
    1af0:	0c054b06 			; <UNDEFINED> instruction: 0x0c054b06
    1af4:	02040200 	andeq	r0, r4, #0, 4
    1af8:	01050106 	tsteq	r5, r6, lsl #2
    1afc:	02040200 	andeq	r0, r4, #0, 4
    1b00:	0005052f 	andeq	r0, r5, pc, lsr #10
    1b04:	06010402 	streq	r0, [r1], -r2, lsl #8
    1b08:	004a7303 	subeq	r7, sl, r3, lsl #6
    1b0c:	01010402 	tsteq	r1, r2, lsl #8
    1b10:	01040200 	mrseq	r0, R12_usr
    1b14:	02009e06 	andeq	r9, r0, #96	; 0x60
    1b18:	002e0104 	eoreq	r0, lr, r4, lsl #2
    1b1c:	06010402 	streq	r0, [r1], -r2, lsl #8
    1b20:	0402002e 	streq	r0, [r2], #-46	; 0xffffffd2
    1b24:	02002f01 	andeq	r2, r0, #1, 30
    1b28:	002e0104 	eoreq	r0, lr, r4, lsl #2
    1b2c:	d6010402 	strle	r0, [r1], -r2, lsl #8
    1b30:	2e7fb103 	expcse	f3, f3
    1b34:	2e820601 	cdpcs	6, 8, cr0, cr2, cr1, {0}
    1b38:	062e062e 	strteq	r0, [lr], -lr, lsr #12
    1b3c:	0402002e 	streq	r0, [r2], #-46	; 0xffffffd2
    1b40:	d7030601 	strle	r0, [r3, -r1, lsl #12]
    1b44:	02000100 	andeq	r0, r0, #0
    1b48:	002e0104 	eoreq	r0, lr, r4, lsl #2
    1b4c:	d6010402 	strle	r0, [r1], -r2, lsl #8
    1b50:	7b081505 	blvc	206f6c <__bss_end__+0x1fd2dc>
    1b54:	05011705 	streq	r1, [r1, #-1797]	; 0xfffff8fb
    1b58:	18053116 	stmdane	r5, {r1, r2, r4, r8, ip, sp}
    1b5c:	061d0501 	ldreq	r0, [sp], -r1, lsl #10
    1b60:	662b0501 	strtvs	r0, [fp], -r1, lsl #10
    1b64:	4d061905 	vstrmi.16	s2, [r6, #-10]	; <UNPREDICTABLE>
    1b68:	05130505 	ldreq	r0, [r3, #-1285]	; 0xfffffafb
    1b6c:	0501060c 	streq	r0, [r1, #-1548]	; 0xfffff9f4
    1b70:	25054a07 	strcs	r4, [r5, #-2567]	; 0xfffff5f9
    1b74:	01040200 	mrseq	r0, R12_usr
    1b78:	001e054a 	andseq	r0, lr, sl, asr #10
    1b7c:	4a010402 	bmi	42b8c <__bss_end__+0x38efc>
    1b80:	4b060905 	blmi	183f9c <__bss_end__+0x17a30c>
    1b84:	05130505 	ldreq	r0, [r3, #-1285]	; 0xfffffafb
    1b88:	0501060a 	streq	r0, [r1, #-1546]	; 0xfffff9f6
    1b8c:	09056319 	stmdbeq	r5, {r0, r3, r4, r8, r9, sp, lr}
    1b90:	06014c06 	streq	r4, [r1], -r6, lsl #24
    1b94:	022e069e 	eoreq	r0, lr, #165675008	; 0x9e00000
    1b98:	0101000a 	tsteq	r1, sl
    1b9c:	000000bd 	strheq	r0, [r0], -sp
    1ba0:	007f0003 	rsbseq	r0, pc, r3
    1ba4:	01020000 	mrseq	r0, (UNDEF: 2)
    1ba8:	000d0efb 	strdeq	r0, [sp], -fp
    1bac:	01010101 	tsteq	r1, r1, lsl #2
    1bb0:	01000000 	mrseq	r0, (UNDEF: 0)
    1bb4:	2e010000 	cdpcs	0, 0, cr0, cr1, cr0, {0}
    1bb8:	62696c2f 	rsbvs	r6, r9, #12032	; 0x2f00
    1bbc:	552f0063 	strpl	r0, [pc, #-99]!	; 1b61 <__code_start__-0x649f>
    1bc0:	73726573 	cmnvc	r2, #482344960	; 0x1cc00000
    1bc4:	6972652f 	ldmdbvs	r2!, {r0, r1, r2, r3, r5, r8, sl, sp, lr}^
    1bc8:	61656263 	cmnvs	r5, r3, ror #4
    1bcc:	6f442f72 	svcvs	0x00442f72
    1bd0:	656d7563 	strbvs	r7, [sp, #-1379]!	; 0xfffffa9d
    1bd4:	2f73746e 	svccs	0x0073746e
    1bd8:	34315343 	ldrtcc	r5, [r1], #-835	; 0xfffffcbd
    1bdc:	632f4530 			; <UNDEFINED> instruction: 0x632f4530
    1be0:	30343173 	eorscc	r3, r4, r3, ror r1
    1be4:	69662d45 	stmdbvs	r6!, {r0, r2, r6, r8, sl, fp, sp}^
    1be8:	2d6c616e 	stfcse	f6, [ip, #-440]!	; 0xfffffe48
    1bec:	6a6f7270 	bvs	1bde5b4 <__bss_end__+0x1bd4924>
    1bf0:	2f746365 	svccs	0x00746365
    1bf4:	7362696c 	cmnvc	r2, #108, 18	; 0x1b0000
    1bf8:	3034322d 	eorscc	r3, r4, sp, lsr #4
    1bfc:	6c2f786c 	stcvs	8, cr7, [pc], #-432	; 1a54 <__code_start__-0x65ac>
    1c00:	69706269 	ldmdbvs	r0!, {r0, r3, r5, r6, r9, sp, lr}^
    1c04:	636e692f 	cmnvs	lr, #770048	; 0xbc000
    1c08:	6564756c 	strbvs	r7, [r4, #-1388]!	; 0xfffffa94
    1c0c:	75700000 	ldrbvc	r0, [r0, #-0]!
    1c10:	61686374 	smcvs	34356	; 0x8634
    1c14:	00632e72 	rsbeq	r2, r3, r2, ror lr
    1c18:	72000001 	andvc	r0, r0, #1, 0
    1c1c:	682e6970 	stmdavs	lr!, {r4, r5, r6, r8, fp, sp, lr}
    1c20:	00000200 	andeq	r0, r0, r0, lsl #4
    1c24:	00240500 	eoreq	r0, r4, r0, lsl #10
    1c28:	93d80205 	bicsls	r0, r8, #1342177280	; 0x50000000
    1c2c:	06140000 	ldreq	r0, [r4], -r0
    1c30:	06260501 	strteq	r0, [r6], -r1, lsl #10
    1c34:	2e34054a 	cdpcs	5, 3, cr0, cr4, cr10, {2}
    1c38:	01060105 	tsteq	r6, r5, lsl #2
    1c3c:	4f061b05 	svcmi	0x00061b05
    1c40:	05130505 	ldreq	r0, [r3, #-1285]	; 0xfffffafb
    1c44:	05010611 	streq	r0, [r1, #-1553]	; 0xfffff9ef
    1c48:	23056701 	movwcs	r6, #22273	; 0x5701
    1c4c:	05056706 	streq	r6, [r5, #-1798]	; 0xfffff8fa
    1c50:	06110513 			; <UNDEFINED> instruction: 0x06110513
    1c54:	4b010501 	blmi	43060 <__bss_end__+0x393d0>
    1c58:	01000402 	tsteq	r0, r2, lsl #8
    1c5c:	00010901 	andeq	r0, r1, r1, lsl #18
    1c60:	7e000300 	cdpvc	3, 0, cr0, cr0, cr0, {0}
    1c64:	02000000 	andeq	r0, r0, #0, 0
    1c68:	0d0efb01 	vstreq	d15, [lr, #-4]
    1c6c:	01010100 	mrseq	r0, (UNDEF: 17)
    1c70:	00000001 	andeq	r0, r0, r1
    1c74:	01000001 	tsteq	r0, r1
    1c78:	696c2f2e 	stmdbvs	ip!, {r1, r2, r3, r5, r8, r9, sl, fp, sp}^
    1c7c:	2f006362 	svccs	0x00006362
    1c80:	72657355 	rsbvc	r7, r5, #1409286145	; 0x54000001
    1c84:	72652f73 	rsbvc	r2, r5, #460	; 0x1cc
    1c88:	65626369 	strbvs	r6, [r2, #-873]!	; 0xfffffc97
    1c8c:	442f7261 	strtmi	r7, [pc], #-609	; 1c94 <__code_start__-0x636c>
    1c90:	6d75636f 	ldclvs	3, cr6, [r5, #-444]!	; 0xfffffe44
    1c94:	73746e65 	cmnvc	r4, #1616	; 0x650
    1c98:	3153432f 	cmpcc	r3, pc, lsr #6
    1c9c:	2f453034 	svccs	0x00453034
    1ca0:	34317363 	ldrtcc	r7, [r1], #-867	; 0xfffffc9d
    1ca4:	662d4530 			; <UNDEFINED> instruction: 0x662d4530
    1ca8:	6c616e69 	stclvs	14, cr6, [r1], #-420	; 0xfffffe5c
    1cac:	6f72702d 	svcvs	0x0072702d
    1cb0:	7463656a 	strbtvc	r6, [r3], #-1386	; 0xfffffa96
    1cb4:	62696c2f 	rsbvs	r6, r9, #12032	; 0x2f00
    1cb8:	34322d73 	ldrtcc	r2, [r2], #-3443	; 0xfffff28d
    1cbc:	2f786c30 	svccs	0x00786c30
    1cc0:	7062696c 	rsbvc	r6, r2, ip, ror #18
    1cc4:	6e692f69 	cdpvs	15, 6, cr2, cr9, cr9, {3}
    1cc8:	64756c63 	ldrbtvs	r6, [r5], #-3171	; 0xfffff39d
    1ccc:	73000065 	movwvc	r0, #101	; 0x65
    1cd0:	61637274 	smcvs	14116	; 0x3724
    1cd4:	00632e74 	rsbeq	r2, r3, r4, ror lr
    1cd8:	72000001 	andvc	r0, r0, #1, 0
    1cdc:	682e6970 	stmdavs	lr!, {r4, r5, r6, r8, fp, sp, lr}
    1ce0:	00000200 	andeq	r0, r0, r0, lsl #4
    1ce4:	002c0500 	eoreq	r0, ip, r0, lsl #10
    1ce8:	94140205 	ldrls	r0, [r4], #-517	; 0xfffffdfb
    1cec:	05150000 	ldreq	r0, [r5, #-0]
    1cf0:	05131305 	ldreq	r1, [r3, #-773]	; 0xfffffcfb
    1cf4:	0511060b 	ldreq	r0, [r1, #-1547]	; 0xfffff9f5
    1cf8:	04020005 	streq	r0, [r2], #-5
    1cfc:	00300601 	eorseq	r0, r0, r1, lsl #12
    1d00:	15010402 	strne	r0, [r1, #-1026]	; 0xfffffbfe
    1d04:	02000905 	andeq	r0, r0, #81920	; 0x14000
    1d08:	05130104 	ldreq	r0, [r3, #-260]	; 0xfffffefc
    1d0c:	04020010 	streq	r0, [r2], #-16
    1d10:	052e0601 	streq	r0, [lr, #-1537]!	; 0xfffff9ff
    1d14:	0402000b 	streq	r0, [r2], #-11
    1d18:	02002e01 	andeq	r2, r0, #1, 28
    1d1c:	2f060104 	svccs	0x00060104
    1d20:	02000505 	andeq	r0, r0, #20971520	; 0x1400000
    1d24:	01060104 	tsteq	r6, r4, lsl #2
    1d28:	08054e06 	stmdaeq	r5, {r1, r2, r9, sl, fp, lr}
    1d2c:	05050106 	streq	r0, [r5, #-262]	; 0xfffffefa
    1d30:	01040200 	mrseq	r0, R12_usr
    1d34:	09052f06 	stmdbeq	r5, {r1, r2, r8, r9, sl, fp, sp}
    1d38:	01040200 	mrseq	r0, R12_usr
    1d3c:	000b0513 	andeq	r0, fp, r3, lsl r5
    1d40:	06010402 	streq	r0, [r1], -r2, lsl #8
    1d44:	00090501 	andeq	r0, r9, r1, lsl #10
    1d48:	06010402 	streq	r0, [r1], -r2, lsl #8
    1d4c:	000f054b 	andeq	r0, pc, fp, asr #10
    1d50:	06010402 	streq	r0, [r1], -r2, lsl #8
    1d54:	000d0501 	andeq	r0, sp, r1, lsl #10
    1d58:	06010402 	streq	r0, [r1], -r2, lsl #8
    1d5c:	0005052f 	andeq	r0, r5, pc, lsr #10
    1d60:	06010402 	streq	r0, [r1], -r2, lsl #8
    1d64:	00060201 	andeq	r0, r6, r1, lsl #4
    1d68:	00c20101 	sbceq	r0, r2, r1, lsl #2
    1d6c:	00030000 	andeq	r0, r3, r0
    1d70:	0000007e 	andeq	r0, r0, lr, ror r0
    1d74:	0efb0102 	cdpeq	1, 15, cr0, cr11, cr2, {0}
    1d78:	0101000d 	tsteq	r1, sp
    1d7c:	00000101 	andeq	r0, r0, r1, lsl #2
    1d80:	00000100 	andeq	r0, r0, r0, lsl #2
    1d84:	6c2f2e01 	stcvs	14, cr2, [pc], #-4	; 1d88 <__code_start__-0x6278>
    1d88:	00636269 	rsbeq	r6, r3, r9, ror #4
    1d8c:	6573552f 	ldrbvs	r5, [r3, #-1327]!	; 0xfffffad1
    1d90:	652f7372 	strvs	r7, [pc, #-882]!	; 1a26 <__code_start__-0x65da>
    1d94:	62636972 	rsbvs	r6, r3, #1867776	; 0x1c8000
    1d98:	2f726165 	svccs	0x00726165
    1d9c:	75636f44 	strbvc	r6, [r3, #-3908]!	; 0xfffff0bc
    1da0:	746e656d 	strbtvc	r6, [lr], #-1389	; 0xfffffa93
    1da4:	53432f73 	movtpl	r2, #16243	; 0x3f73
    1da8:	45303431 	ldrmi	r3, [r0, #-1073]!	; 0xfffffbcf
    1dac:	3173632f 	cmncc	r3, pc, lsr #6
    1db0:	2d453034 	stclcs	0, cr3, [r5, #-208]	; 0xffffff30
    1db4:	616e6966 	cmnvs	lr, r6, ror #18
    1db8:	72702d6c 	rsbsvc	r2, r0, #108, 26	; 0x1b00
    1dbc:	63656a6f 	cmnvs	r5, #454656	; 0x6f000
    1dc0:	696c2f74 	stmdbvs	ip!, {r2, r4, r5, r6, r8, r9, sl, fp, sp}^
    1dc4:	322d7362 	eorcc	r7, sp, #-2013265919	; 0x88000001
    1dc8:	786c3034 	stmdavc	ip!, {r2, r4, r5, ip, sp}^
    1dcc:	62696c2f 	rsbvs	r6, r9, #12032	; 0x2f00
    1dd0:	692f6970 	stmdbvs	pc!, {r4, r5, r6, r8, fp, sp, lr}	; <UNPREDICTABLE>
    1dd4:	756c636e 	strbvc	r6, [ip, #-878]!	; 0xfffffc92
    1dd8:	00006564 	andeq	r6, r0, r4, ror #10
    1ddc:	63727473 	cmnvs	r2, #1929379840	; 0x73000000
    1de0:	632e706d 			; <UNDEFINED> instruction: 0x632e706d
    1de4:	00000100 	andeq	r0, r0, r0, lsl #2
    1de8:	2e697072 	mcrcs	0, 3, r7, cr9, cr2, {3}
    1dec:	00020068 	andeq	r0, r2, r8, rrx
    1df0:	2a050000 	bcs	141df8 <__bss_end__+0x138168>
    1df4:	48020500 	stmdami	r2, {r8, sl}
    1df8:	14000094 	strne	r0, [r0], #-148	; 0xffffff6c
    1dfc:	05130905 	ldreq	r0, [r3, #-2309]	; 0xfffff6fb
    1e00:	1005010f 	andne	r0, r5, pc, lsl #2
    1e04:	0f050106 	svceq	0x00050106
    1e08:	001c052e 	andseq	r0, ip, lr, lsr #10
    1e0c:	4a010402 	bmi	42e1c <__bss_end__+0x3918c>
    1e10:	02001305 	andeq	r1, r0, #335544320	; 0x14000000
    1e14:	052e0104 	streq	r0, [lr, #-260]!	; 0xfffffefc
    1e18:	052f0611 	streq	r0, [pc, #-1553]!	; 180f <__code_start__-0x67f1>
    1e1c:	2e2e0616 	mcrcs	6, 1, r0, cr14, cr6, {0}
    1e20:	2f060905 	svccs	0x00060905
    1e24:	01061505 	tsteq	r6, r5, lsl #10
    1e28:	022f0105 	eoreq	r0, pc, #1073741825	; 0x40000001
    1e2c:	01010004 	tsteq	r1, r4
    1e30:	000000c0 	andeq	r0, r0, r0, asr #1
    1e34:	007e0003 	rsbseq	r0, lr, r3
    1e38:	01020000 	mrseq	r0, (UNDEF: 2)
    1e3c:	000d0efb 	strdeq	r0, [sp], -fp
    1e40:	01010101 	tsteq	r1, r1, lsl #2
    1e44:	01000000 	mrseq	r0, (UNDEF: 0)
    1e48:	2e010000 	cdpcs	0, 0, cr0, cr1, cr0, {0}
    1e4c:	62696c2f 	rsbvs	r6, r9, #12032	; 0x2f00
    1e50:	552f0063 	strpl	r0, [pc, #-99]!	; 1df5 <__code_start__-0x620b>
    1e54:	73726573 	cmnvc	r2, #482344960	; 0x1cc00000
    1e58:	6972652f 	ldmdbvs	r2!, {r0, r1, r2, r3, r5, r8, sl, sp, lr}^
    1e5c:	61656263 	cmnvs	r5, r3, ror #4
    1e60:	6f442f72 	svcvs	0x00442f72
    1e64:	656d7563 	strbvs	r7, [sp, #-1379]!	; 0xfffffa9d
    1e68:	2f73746e 	svccs	0x0073746e
    1e6c:	34315343 	ldrtcc	r5, [r1], #-835	; 0xfffffcbd
    1e70:	632f4530 			; <UNDEFINED> instruction: 0x632f4530
    1e74:	30343173 	eorscc	r3, r4, r3, ror r1
    1e78:	69662d45 	stmdbvs	r6!, {r0, r2, r6, r8, sl, fp, sp}^
    1e7c:	2d6c616e 	stfcse	f6, [ip, #-440]!	; 0xfffffe48
    1e80:	6a6f7270 	bvs	1bde848 <__bss_end__+0x1bd4bb8>
    1e84:	2f746365 	svccs	0x00746365
    1e88:	7362696c 	cmnvc	r2, #108, 18	; 0x1b0000
    1e8c:	3034322d 	eorscc	r3, r4, sp, lsr #4
    1e90:	6c2f786c 	stcvs	8, cr7, [pc], #-432	; 1ce8 <__code_start__-0x6318>
    1e94:	69706269 	ldmdbvs	r0!, {r0, r3, r5, r6, r9, sp, lr}^
    1e98:	636e692f 	cmnvs	lr, #770048	; 0xbc000
    1e9c:	6564756c 	strbvs	r7, [r4, #-1388]!	; 0xfffffa94
    1ea0:	74730000 	ldrbtvc	r0, [r3], #-0
    1ea4:	79706372 	ldmdbvc	r0!, {r1, r4, r5, r6, r8, r9, sp, lr}^
    1ea8:	0100632e 	tsteq	r0, lr, lsr #6
    1eac:	70720000 	rsbsvc	r0, r2, r0
    1eb0:	00682e69 	rsbeq	r2, r8, r9, ror #28
    1eb4:	00000002 	andeq	r0, r0, r2
    1eb8:	05002a05 	streq	r2, [r0, #-2565]	; 0xfffff5fb
    1ebc:	00947402 	addseq	r7, r4, r2, lsl #8
    1ec0:	05051400 	streq	r1, [r5, #-1024]	; 0xfffffc00
    1ec4:	14051313 	strne	r1, [r5], #-787	; 0xfffffced
    1ec8:	22051106 	andcs	r1, r5, #-2147483647	; 0x80000001
    1ecc:	01040200 	mrseq	r0, R12_usr
    1ed0:	0b052f06 	bleq	14daf0 <__bss_end__+0x143e60>
    1ed4:	01040200 	mrseq	r0, R12_usr
    1ed8:	00150501 	andseq	r0, r5, r1, lsl #10
    1edc:	06010402 	streq	r0, [r1], -r2, lsl #8
    1ee0:	00130501 	andseq	r0, r3, r1, lsl #10
    1ee4:	4a010402 	bmi	42ef4 <__bss_end__+0x39264>
    1ee8:	02000b05 	andeq	r0, r0, #5120	; 0x1400
    1eec:	024a0104 	subeq	r0, sl, #1
    1ef0:	01010006 	tsteq	r1, r6
    1ef4:	00000120 	andeq	r0, r0, r0, lsr #2
    1ef8:	00e40003 	rsceq	r0, r4, r3
    1efc:	01020000 	mrseq	r0, (UNDEF: 2)
    1f00:	000d0efb 	strdeq	r0, [sp], -fp
    1f04:	01010101 	tsteq	r1, r1, lsl #2
    1f08:	01000000 	mrseq	r0, (UNDEF: 0)
    1f0c:	2e010000 	cdpcs	0, 0, cr0, cr1, cr0, {0}
    1f10:	62696c2f 	rsbvs	r6, r9, #12032	; 0x2f00
    1f14:	552f0063 	strpl	r0, [pc, #-99]!	; 1eb9 <__code_start__-0x6147>
    1f18:	73726573 	cmnvc	r2, #482344960	; 0x1cc00000
    1f1c:	6972652f 	ldmdbvs	r2!, {r0, r1, r2, r3, r5, r8, sl, sp, lr}^
    1f20:	61656263 	cmnvs	r5, r3, ror #4
    1f24:	6f442f72 	svcvs	0x00442f72
    1f28:	656d7563 	strbvs	r7, [sp, #-1379]!	; 0xfffffa9d
    1f2c:	2f73746e 	svccs	0x0073746e
    1f30:	34315343 	ldrtcc	r5, [r1], #-835	; 0xfffffcbd
    1f34:	632f4530 			; <UNDEFINED> instruction: 0x632f4530
    1f38:	30343173 	eorscc	r3, r4, r3, ror r1
    1f3c:	69662d45 	stmdbvs	r6!, {r0, r2, r6, r8, sl, fp, sp}^
    1f40:	2d6c616e 	stfcse	f6, [ip, #-440]!	; 0xfffffe48
    1f44:	6a6f7270 	bvs	1bde90c <__bss_end__+0x1bd4c7c>
    1f48:	2f746365 	svccs	0x00746365
    1f4c:	7362696c 	cmnvc	r2, #108, 18	; 0x1b0000
    1f50:	3034322d 	eorscc	r3, r4, sp, lsr #4
    1f54:	6c2f786c 	stcvs	8, cr7, [pc], #-432	; 1dac <__code_start__-0x6254>
    1f58:	69706269 	ldmdbvs	r0!, {r0, r3, r5, r6, r9, sp, lr}^
    1f5c:	636e692f 	cmnvs	lr, #770048	; 0xbc000
    1f60:	6564756c 	strbvs	r7, [r4, #-1388]!	; 0xfffffa94
    1f64:	73752f00 	cmnvc	r5, #0, 30
    1f68:	6f6c2f72 	svcvs	0x006c2f72
    1f6c:	2f6c6163 	svccs	0x006c6163
    1f70:	6c6c6543 	cfstr64vs	mvdx6, [ip], #-268	; 0xfffffef4
    1f74:	612f7261 			; <UNDEFINED> instruction: 0x612f7261
    1f78:	6e2d6d72 	mcrvs	13, 1, r6, cr13, cr2, {3}
    1f7c:	2d656e6f 	stclcs	14, cr6, [r5, #-444]!	; 0xfffffe44
    1f80:	69626165 	stmdbvs	r2!, {r0, r2, r5, r6, r8, sp, lr}^
    1f84:	7365742d 	cmnvc	r5, #754974720	; 0x2d000000
    1f88:	2d392f74 	ldccs	15, cr2, [r9, #-464]!	; 0xfffffe30
    1f8c:	39313032 	ldmdbcc	r1!, {r1, r4, r5, ip, sp}
    1f90:	632d3471 			; <UNDEFINED> instruction: 0x632d3471
    1f94:	37303173 			; <UNDEFINED> instruction: 0x37303173
    1f98:	696c2f65 	stmdbvs	ip!, {r0, r2, r5, r6, r8, r9, sl, fp, sp}^
    1f9c:	63672f62 	cmnvs	r7, #392	; 0x188
    1fa0:	72612f63 	rsbvc	r2, r1, #396	; 0x18c
    1fa4:	6f6e2d6d 	svcvs	0x006e2d6d
    1fa8:	652d656e 	strvs	r6, [sp, #-1390]!	; 0xfffffa92
    1fac:	2f696261 	svccs	0x00696261
    1fb0:	2e322e39 	mrccs	14, 1, r2, cr2, cr9, {1}
    1fb4:	6e692f31 	mcrvs	15, 3, r2, cr9, cr1, {1}
    1fb8:	64756c63 	ldrbtvs	r6, [r5], #-3171	; 0xfffff39d
    1fbc:	73000065 	movwvc	r0, #101	; 0x65
    1fc0:	636e7274 	cmnvs	lr, #116, 4	; 0x40000007
    1fc4:	632e706d 			; <UNDEFINED> instruction: 0x632e706d
    1fc8:	00000100 	andeq	r0, r0, r0, lsl #2
    1fcc:	2e697072 	mcrcs	0, 3, r7, cr9, cr2, {3}
    1fd0:	00020068 	andeq	r0, r2, r8, rrx
    1fd4:	64747300 	ldrbtvs	r7, [r4], #-768	; 0xfffffd00
    1fd8:	2e666564 	cdpcs	5, 6, cr6, cr6, cr4, {3}
    1fdc:	00030068 	andeq	r0, r3, r8, rrx
    1fe0:	39050000 	stmdbcc	r5, {}	; <UNPREDICTABLE>
    1fe4:	94020500 	strls	r0, [r2], #-1280	; 0xfffffb00
    1fe8:	15000094 	strne	r0, [r0, #-148]	; 0xffffff6c
    1fec:	13130505 	tstne	r3, #20971520	; 0x1400000
    1ff0:	06010a05 	streq	r0, [r1], -r5, lsl #20
    1ff4:	09054a01 	stmdbeq	r5, {r0, r9, fp, lr}
    1ff8:	0c052f06 	stceq	15, cr2, [r5], {6}
    1ffc:	13050106 	movwne	r0, #20742	; 0x5106
    2000:	2e0b052e 	cfsh32cs	mvfx0, mvfx11, #30
    2004:	4b060d05 	blmi	185420 <__bss_end__+0x17b790>
    2008:	01061b05 	tsteq	r6, r5, lsl #22
    200c:	300c052e 	andcc	r0, ip, lr, lsr #10
    2010:	022f0105 	eoreq	r0, pc, #1073741825	; 0x40000001
    2014:	01010002 	tsteq	r1, r2
    2018:	000000af 	andeq	r0, r0, pc, lsr #1
    201c:	00930003 	addseq	r0, r3, r3
    2020:	01020000 	mrseq	r0, (UNDEF: 2)
    2024:	000d0efb 	strdeq	r0, [sp], -fp
    2028:	01010101 	tsteq	r1, r1, lsl #2
    202c:	01000000 	mrseq	r0, (UNDEF: 0)
    2030:	2e010000 	cdpcs	0, 0, cr0, cr1, cr0, {0}
    2034:	6174732f 	cmnvs	r4, pc, lsr #6
    2038:	732d6666 			; <UNDEFINED> instruction: 0x732d6666
    203c:	2f006372 	svccs	0x00006372
    2040:	72657355 	rsbvc	r7, r5, #1409286145	; 0x54000001
    2044:	72652f73 	rsbvc	r2, r5, #460	; 0x1cc
    2048:	65626369 	strbvs	r6, [r2, #-873]!	; 0xfffffc97
    204c:	442f7261 	strtmi	r7, [pc], #-609	; 2054 <__code_start__-0x5fac>
    2050:	6d75636f 	ldclvs	3, cr6, [r5, #-444]!	; 0xfffffe44
    2054:	73746e65 	cmnvc	r4, #1616	; 0x650
    2058:	3153432f 	cmpcc	r3, pc, lsr #6
    205c:	2f453034 	svccs	0x00453034
    2060:	34317363 	ldrtcc	r7, [r1], #-867	; 0xfffffc9d
    2064:	662d4530 			; <UNDEFINED> instruction: 0x662d4530
    2068:	6c616e69 	stclvs	14, cr6, [r1], #-420	; 0xfffffe5c
    206c:	6f72702d 	svcvs	0x0072702d
    2070:	7463656a 	strbtvc	r6, [r3], #-1386	; 0xfffffa96
    2074:	62696c2f 	rsbvs	r6, r9, #12032	; 0x2f00
    2078:	34322d73 	ldrtcc	r2, [r2], #-3443	; 0xfffff28d
    207c:	2f786c30 	svccs	0x00786c30
    2080:	7062696c 	rsbvc	r6, r2, ip, ror #18
    2084:	6e692f69 	cdpvs	15, 6, cr2, cr9, cr9, {3}
    2088:	64756c63 	ldrbtvs	r6, [r5], #-3171	; 0xfffff39d
    208c:	64000065 	strvs	r0, [r0], #-101	; 0xffffff9b
    2090:	75616665 	strbvc	r6, [r1, #-1637]!	; 0xfffff99b
    2094:	722d746c 	eorvc	r7, sp, #108, 8	; 0x6c000000
    2098:	6f6f6265 	svcvs	0x006f6265
    209c:	61632d74 	smcvs	13012	; 0x32d4
    20a0:	756f6c6c 	strbvc	r6, [pc, #-3180]!	; 143c <__code_start__-0x6bc4>
    20a4:	00632e74 	rsbeq	r2, r3, r4, ror lr
    20a8:	72000001 	andvc	r0, r0, #1, 0
    20ac:	682e6970 	stmdavs	lr!, {r4, r5, r6, r8, fp, sp, lr}
    20b0:	00000200 	andeq	r0, r0, r0, lsl #4
    20b4:	001b0500 	andseq	r0, fp, r0, lsl #10
    20b8:	94c00205 	strbls	r0, [r0], #517	; 0x205
    20bc:	05140000 	ldreq	r0, [r4, #-0]
    20c0:	0105011c 	tsteq	r5, ip, lsl r1
    20c4:	02020106 	andeq	r0, r2, #-2147483647	; 0x80000001
    20c8:	Address 0x00000000000020c8 is out of bounds.


Disassembly of section .debug_str:

00000000 <.debug_str>:
   0:	5f6f656e 	svcpl	0x006f656e
   4:	646e6168 	strbtvs	r6, [lr], #-360	; 0xfffffe98
   8:	7000656c 	andvc	r6, r0, ip, ror #10
   c:	6563616c 	strbvs	r6, [r3, #-364]!	; 0xfffffe94
  10:	7275635f 	rsbsvc	r6, r5, #2080374785	; 0x7c000001
  14:	00726f73 	rsbseq	r6, r2, r3, ror pc
  18:	5f786970 	svcpl	0x00786970
  1c:	006e6970 	rsbeq	r6, lr, r0, ror r9
  20:	706d6f63 	rsbvc	r6, sp, r3, ror #30
  24:	61736e65 	cmnvs	r3, r5, ror #28
  28:	6e6f6974 			; <UNDEFINED> instruction: 0x6e6f6974
  2c:	6f656e00 	svcvs	0x00656e00
  30:	5f786970 	svcpl	0x00786970
  34:	74697277 	strbtvc	r7, [r9], #-631	; 0xfffffd89
  38:	6f6e0065 	svcvs	0x006e0065
  3c:	69616d74 	stmdbvs	r1!, {r2, r4, r5, r6, r8, sl, fp, sp, lr}^
  40:	706e006e 	rsbvc	r0, lr, lr, rrx
  44:	6c657869 	stclvs	8, cr7, [r5], #-420	; 0xfffffe5c
  48:	656e0073 	strbvs	r0, [lr, #-115]!	; 0xffffff8d
  4c:	7869706f 	stmdavc	r9!, {r0, r1, r2, r3, r5, r6, ip, sp, lr}^
  50:	696e695f 	stmdbvs	lr!, {r0, r1, r2, r3, r4, r6, r8, fp, sp, lr}^
  54:	6e750074 	mrcvs	0, 3, r0, cr5, cr4, {3}
  58:	6e676973 			; <UNDEFINED> instruction: 0x6e676973
  5c:	63206465 			; <UNDEFINED> instruction: 0x63206465
  60:	00726168 	rsbseq	r6, r2, r8, ror #2
  64:	616c6564 	cmnvs	ip, r4, ror #10
  68:	736d5f79 	cmnvc	sp, #484	; 0x1e4
  6c:	6f687300 	svcvs	0x00687300
  70:	75207472 	strvc	r7, [r0, #-1138]!	; 0xfffffb8e
  74:	6769736e 	strbvs	r7, [r9, -lr, ror #6]!
  78:	2064656e 	rsbcs	r6, r4, lr, ror #10
  7c:	00746e69 	rsbseq	r6, r4, r9, ror #28
  80:	706f656e 	rsbvc	r6, pc, lr, ror #10
  84:	665f7869 	ldrbvs	r7, [pc], -r9, ror #16
  88:	6873756c 	ldmdavs	r3!, {r2, r3, r5, r6, r8, sl, ip, sp, lr}^
  8c:	69706700 	ldmdbvs	r0!, {r8, r9, sl, sp, lr}^
  90:	65735f6f 	ldrbvs	r5, [r3, #-3951]!	; 0xfffff091
  94:	756f5f74 	strbvc	r5, [pc, #-3956]!	; fffff128 <__bss_end__+0xffff5498>
  98:	74757074 	ldrbtvc	r7, [r5], #-116	; 0xffffff8c
  9c:	6e2d3200 	cdpvs	2, 2, cr3, cr13, cr0, {0}
  a0:	69706f65 	ldmdbvs	r0!, {r0, r2, r5, r6, r8, r9, sl, fp, sp, lr}^
  a4:	00632e78 	rsbeq	r2, r3, r8, ror lr
  a8:	676e6f6c 	strbvs	r6, [lr, -ip, ror #30]!
  ac:	6e6f6c20 	cdpvs	12, 6, cr6, cr15, cr0, {1}
  b0:	6e752067 	cdpvs	0, 7, cr2, cr5, cr7, {3}
  b4:	6e676973 			; <UNDEFINED> instruction: 0x6e676973
  b8:	69206465 	stmdbvs	r0!, {r0, r2, r5, r6, sl, sp, lr}
  bc:	6e00746e 	cdpvs	4, 0, cr7, cr0, cr14, {3}
  c0:	745f6f65 	ldrbvc	r6, [pc], #-3941	; c8 <__code_start__-0x7f38>
  c4:	6e6f6c00 	cdpvs	12, 6, cr6, cr15, cr0, {0}
  c8:	6f6c2067 	svcvs	0x006c2067
  cc:	6920676e 	stmdbvs	r0!, {r1, r2, r3, r5, r6, r8, r9, sl, sp, lr}
  d0:	7200746e 	andvc	r7, r0, #1845493760	; 0x6e000000
  d4:	705f6970 	subsvc	r6, pc, r0, ror r9	; <UNPREDICTABLE>
  d8:	68637475 	stmdavs	r3!, {r0, r2, r4, r5, r6, sl, ip, sp, lr}^
  dc:	47007261 	strmi	r7, [r0, -r1, ror #4]
  e0:	4320554e 			; <UNDEFINED> instruction: 0x4320554e
  e4:	39203939 	stmdbcc	r0!, {r0, r3, r4, r5, r8, fp, ip, sp}
  e8:	312e322e 			; <UNDEFINED> instruction: 0x312e322e
  ec:	31303220 	teqcc	r0, r0, lsr #4
  f0:	32303139 	eorscc	r3, r0, #1073741838	; 0x4000000e
  f4:	72282035 	eorvc	r2, r8, #53, 0	; 0x35
  f8:	61656c65 	cmnvs	r5, r5, ror #24
  fc:	20296573 	eorcs	r6, r9, r3, ror r5
 100:	4d52415b 	ldfmie	f4, [r2, #-364]	; 0xfffffe94
 104:	6d72612f 	ldfvse	f6, [r2, #-188]!	; 0xffffff44
 108:	622d392d 	eorvs	r3, sp, #737280	; 0xb4000
 10c:	636e6172 	cmnvs	lr, #-2147483620	; 0x8000001c
 110:	65722068 	ldrbvs	r2, [r2, #-104]!	; 0xffffff98
 114:	69736976 	ldmdbvs	r3!, {r1, r2, r4, r5, r6, r8, fp, sp, lr}^
 118:	32206e6f 	eorcc	r6, r0, #1776	; 0x6f0
 11c:	39353737 	ldmdbcc	r5!, {r0, r1, r2, r4, r5, r8, r9, sl, ip, sp}
 120:	2d205d39 	stccs	13, cr5, [r0, #-228]!	; 0xffffff1c
 124:	7570636d 	ldrbvc	r6, [r0, #-877]!	; 0xfffffc93
 128:	6d72613d 	ldfvse	f6, [r2, #-244]!	; 0xffffff0c
 12c:	36373131 			; <UNDEFINED> instruction: 0x36373131
 130:	2d667a6a 	vstmdbcs	r6!, {s15-s120}
 134:	6d2d2073 	stcvs	0, cr2, [sp, #-460]!	; 0xfffffe34
 138:	656e7574 	strbvs	r7, [lr, #-1396]!	; 0xfffffa8c
 13c:	6d72613d 	ldfvse	f6, [r2, #-244]!	; 0xffffff0c
 140:	36373131 			; <UNDEFINED> instruction: 0x36373131
 144:	2d667a6a 	vstmdbcs	r6!, {s15-s120}
 148:	6d2d2073 	stcvs	0, cr2, [sp, #-460]!	; 0xfffffe34
 14c:	616f6c66 	cmnvs	pc, r6, ror #24
 150:	62612d74 	rsbvs	r2, r1, #116, 26	; 0x1d00
 154:	6f733d69 	svcvs	0x00733d69
 158:	2d207466 	cfstrscs	mvf7, [r0, #-408]!	; 0xfffffe68
 15c:	6d72616d 	ldfvse	f6, [r2, #-436]!	; 0xfffffe4c
 160:	616d2d20 	cmnvs	sp, r0, lsr #26
 164:	3d686372 	stclcc	3, cr6, [r8, #-456]!	; 0xfffffe38
 168:	766d7261 	strbtvc	r7, [sp], -r1, ror #4
 16c:	207a6b36 	rsbscs	r6, sl, r6, lsr fp
 170:	6467672d 	strbtvs	r6, [r7], #-1837	; 0xfffff8d3
 174:	4f2d2062 	svcmi	0x002d2062
 178:	732d2031 			; <UNDEFINED> instruction: 0x732d2031
 17c:	673d6474 			; <UNDEFINED> instruction: 0x673d6474
 180:	3939756e 	ldmdbcc	r9!, {r1, r2, r3, r5, r6, r8, sl, ip, sp, lr}
 184:	66662d20 	strbtvs	r2, [r6], -r0, lsr #26
 188:	73656572 	cmnvc	r5, #478150656	; 0x1c800000
 18c:	646e6174 	strbtvs	r6, [lr], #-372	; 0xfffffe8c
 190:	00676e69 	rsbeq	r6, r7, r9, ror #28
 194:	726f6873 	rsbvc	r6, pc, #7536640	; 0x730000
 198:	6e692074 	mcrvs	0, 3, r2, cr9, cr4, {3}
 19c:	6e650074 	mcrvs	0, 3, r0, cr5, cr4, {3}
 1a0:	656c6261 	strbvs	r6, [ip, #-609]!	; 0xfffffd9f
 1a4:	6361635f 	cmnvs	r1, #2080374785	; 0x7c000001
 1a8:	2f006568 	svccs	0x00006568
 1ac:	72657355 	rsbvc	r7, r5, #1409286145	; 0x54000001
 1b0:	72652f73 	rsbvc	r2, r5, #460	; 0x1cc
 1b4:	65626369 	strbvs	r6, [r2, #-873]!	; 0xfffffc97
 1b8:	442f7261 	strtmi	r7, [pc], #-609	; 1c0 <__code_start__-0x7e40>
 1bc:	6d75636f 	ldclvs	3, cr6, [r5, #-444]!	; 0xfffffe44
 1c0:	73746e65 	cmnvc	r4, #1616	; 0x650
 1c4:	3153432f 	cmpcc	r3, pc, lsr #6
 1c8:	2f453034 	svccs	0x00453034
 1cc:	34317363 	ldrtcc	r7, [r1], #-867	; 0xfffffc9d
 1d0:	662d4530 			; <UNDEFINED> instruction: 0x662d4530
 1d4:	6c616e69 	stclvs	14, cr6, [r1], #-420	; 0xfffffe5c
 1d8:	6f72702d 	svcvs	0x0072702d
 1dc:	7463656a 	strbtvc	r6, [r3], #-1386	; 0xfffffa96
 1e0:	6c65722f 	sfmvs	f7, 2, [r5], #-188	; 0xffffff44
 1e4:	6e617665 	cdpvs	6, 6, cr7, cr1, cr5, {3}
 1e8:	616c2d74 	smcvs	49876	; 0xc2d4
 1ec:	6c2f7362 	stcvs	3, cr7, [pc], #-392	; 6c <__code_start__-0x7f94>
 1f0:	74686769 	strbtvc	r6, [r8], #-1897	; 0xfffff897
 1f4:	73632d73 	cmnvc	r3, #7360	; 0x1cc0
 1f8:	6c303432 	cfldrsvs	mvf3, [r0], #-200	; 0xffffff38
 1fc:	2d342d78 	ldccs	13, cr2, [r4, #-480]!	; 0xfffffe20
 200:	38327377 	ldmdacc	r2!, {r0, r1, r2, r4, r5, r6, r8, r9, ip, sp, lr}
 204:	2f623231 	svccs	0x00623231
 208:	65646f63 	strbvs	r6, [r4, #-3939]!	; 0xfffff09d
 20c:	69727700 	ldmdbvs	r2!, {r8, r9, sl, ip, sp, lr}^
 210:	305f6574 	subscc	r6, pc, r4, ror r5	; <UNPREDICTABLE>
 214:	69727700 	ldmdbvs	r2!, {r8, r9, sl, ip, sp, lr}^
 218:	315f6574 	cmpcc	pc, r4, ror r5	; <UNPREDICTABLE>
 21c:	6f656e00 	svcvs	0x00656e00
 220:	7869705f 	stmdavc	r9!, {r0, r1, r2, r3, r4, r6, ip, sp, lr}^
 224:	5f006c65 	svcpl	0x00006c65
 228:	0074756f 	rsbseq	r7, r4, pc, ror #10
 22c:	73657274 	cmnvc	r5, #116, 4	; 0x40000007
 230:	6e007465 	cdpvs	4, 0, cr7, cr0, cr5, {3}
 234:	69706f65 	ldmdbvs	r0!, {r0, r2, r5, r6, r8, r9, sl, fp, sp, lr}^
 238:	6c635f78 	stclvs	15, cr5, [r3], #-480	; 0xfffffe20
 23c:	00726165 	rsbseq	r6, r2, r5, ror #2
 240:	5f786970 	svcpl	0x00786970
 244:	646e6573 	strbtvs	r6, [lr], #-1395	; 0xfffffa8d
 248:	00746962 	rsbseq	r6, r4, r2, ror #18
 24c:	616c6564 	cmnvs	ip, r4, ror #10
 250:	636e5f79 	cmnvs	lr, #484	; 0x1e4
 254:	656c6379 	strbvs	r6, [ip, #-889]!	; 0xfffffc87
 258:	656d0073 	strbvs	r0, [sp, #-115]!	; 0xffffff8d
 25c:	7465736d 	strbtvc	r7, [r5], #-877	; 0xfffffc93
 260:	465f5f00 	ldrbmi	r5, [pc], -r0, lsl #30
 264:	54434e55 	strbpl	r4, [r3], #-3669	; 0xfffff1ab
 268:	5f4e4f49 	svcpl	0x004e4f49
 26c:	5f6e005f 	svcpl	0x006e005f
 270:	00637963 	rsbeq	r7, r3, r3, ror #18
 274:	5f786970 	svcpl	0x00786970
 278:	646e6573 	strbtvs	r6, [lr], #-1395	; 0xfffffa8d
 27c:	65747962 	ldrbvs	r7, [r4, #-2402]!	; 0xfffff69e
 280:	61747300 	cmnvs	r4, r0, lsl #6
 284:	635f7472 	cmpvs	pc, #1912602624	; 0x72000000
 288:	75006379 	strvc	r6, [r0, #-889]	; 0xfffffc87
 28c:	33746e69 	cmncc	r4, #1680	; 0x690
 290:	00745f32 	rsbseq	r5, r4, r2, lsr pc
 294:	7869706e 	stmdavc	r9!, {r1, r2, r3, r5, r6, ip, sp, lr}^
 298:	6e006c65 	cdpvs	12, 0, cr6, cr0, cr5, {3}
 29c:	69706f65 	ldmdbvs	r0!, {r0, r2, r5, r6, r8, r9, sl, fp, sp, lr}^
 2a0:	61665f78 	smcvs	26104	; 0x65f8
 2a4:	635f7473 	cmpvs	pc, #1929379840	; 0x73000000
 2a8:	7261656c 	rsbvc	r6, r1, #108, 10	; 0x1b000000
 2ac:	6f656e00 	svcvs	0x00656e00
 2b0:	65786970 	ldrbvs	r6, [r8, #-2416]!	; 0xfffff690
 2b4:	00632e6c 	rsbeq	r2, r3, ip, ror #28
 2b8:	6f697067 	svcvs	0x00697067
 2bc:	7465735f 	strbtvc	r7, [r5], #-863	; 0xfffffca1
 2c0:	5f6e6f5f 	svcpl	0x006e6f5f
 2c4:	00776172 	rsbseq	r6, r7, r2, ror r1
 2c8:	746e6975 	strbtvc	r6, [lr], #-2421	; 0xfffff68b
 2cc:	00745f38 	rsbseq	r5, r4, r8, lsr pc
 2d0:	6c616d6b 	stclvs	13, cr6, [r1], #-428	; 0xfffffe54
 2d4:	00636f6c 	rsbeq	r6, r3, ip, ror #30
 2d8:	6f697067 	svcvs	0x00697067
 2dc:	7465735f 	strbtvc	r7, [r5], #-863	; 0xfffffca1
 2e0:	66666f5f 	uqsaxvs	r6, r6, pc	; <UNPREDICTABLE>
 2e4:	7761725f 			; <UNDEFINED> instruction: 0x7761725f
 2e8:	554c4600 	strbpl	r4, [ip, #-1536]	; 0xfffffa00
 2ec:	6e004853 	mcrvs	8, 0, r4, cr0, cr3, {2}
 2f0:	69706f65 	ldmdbvs	r0!, {r0, r2, r5, r6, r8, r9, sl, fp, sp, lr}^
 2f4:	65735f78 	ldrbvs	r5, [r3, #-3960]!	; 0xfffff088
 2f8:	6970646e 	ldmdbvs	r0!, {r1, r2, r3, r5, r6, sl, sp, lr}^
 2fc:	006c6578 	rsbeq	r6, ip, r8, ror r5
 300:	20554e47 	subscs	r4, r5, r7, asr #28
 304:	20393943 	eorscs	r3, r9, r3, asr #18
 308:	2e322e39 	mrccs	14, 1, r2, cr2, cr9, {1}
 30c:	30322031 	eorscc	r2, r2, r1, lsr r0
 310:	30313931 	eorscc	r3, r1, r1, lsr r9
 314:	28203532 	stmdacs	r0!, {r1, r4, r5, r8, sl, ip, sp}
 318:	656c6572 	strbvs	r6, [ip, #-1394]!	; 0xfffffa8e
 31c:	29657361 	stmdbcs	r5!, {r0, r5, r6, r8, r9, ip, sp, lr}^
 320:	52415b20 	subpl	r5, r1, #32, 22	; 0x8000
 324:	72612f4d 	rsbvc	r2, r1, #308	; 0x134
 328:	2d392d6d 	ldccs	13, cr2, [r9, #-436]!	; 0xfffffe4c
 32c:	6e617262 	cdpvs	2, 6, cr7, cr1, cr2, {3}
 330:	72206863 	eorvc	r6, r0, #6488064	; 0x630000
 334:	73697665 	cmnvc	r9, #105906176	; 0x6500000
 338:	206e6f69 	rsbcs	r6, lr, r9, ror #30
 33c:	35373732 	ldrcc	r3, [r7, #-1842]!	; 0xfffff8ce
 340:	205d3939 	subscs	r3, sp, r9, lsr r9
 344:	70636d2d 	rsbvc	r6, r3, sp, lsr #26
 348:	72613d75 	rsbvc	r3, r1, #7488	; 0x1d40
 34c:	3731316d 	ldrcc	r3, [r1, -sp, ror #2]!
 350:	667a6a36 			; <UNDEFINED> instruction: 0x667a6a36
 354:	2d20732d 	stccs	3, cr7, [r0, #-180]!	; 0xffffff4c
 358:	6e75746d 	cdpvs	4, 7, cr7, cr5, cr13, {3}
 35c:	72613d65 	rsbvc	r3, r1, #6464	; 0x1940
 360:	3731316d 	ldrcc	r3, [r1, -sp, ror #2]!
 364:	667a6a36 			; <UNDEFINED> instruction: 0x667a6a36
 368:	2d20732d 	stccs	3, cr7, [r0, #-180]!	; 0xffffff4c
 36c:	6f6c666d 	svcvs	0x006c666d
 370:	612d7461 			; <UNDEFINED> instruction: 0x612d7461
 374:	733d6962 	teqvc	sp, #1605632	; 0x188000
 378:	2074666f 	rsbscs	r6, r4, pc, ror #12
 37c:	72616d2d 	rsbvc	r6, r1, #2880	; 0xb40
 380:	6d2d206d 	stcvs	0, cr2, [sp, #-436]!	; 0xfffffe4c
 384:	68637261 	stmdavs	r3!, {r0, r5, r6, r9, ip, sp, lr}^
 388:	6d72613d 	ldfvse	f6, [r2, #-244]!	; 0xffffff0c
 38c:	7a6b3676 	bvc	1acdd6c <__bss_end__+0x1ac40dc>
 390:	67672d20 	strbvs	r2, [r7, -r0, lsr #26]!
 394:	2d206264 	sfmcs	f6, 4, [r0, #-400]!	; 0xfffffe70
 398:	62646767 	rsbvs	r6, r4, #27000832	; 0x19c0000
 39c:	674f2d20 	strbvs	r2, [pc, -r0, lsr #26]
 3a0:	674f2d20 	strbvs	r2, [pc, -r0, lsr #26]
 3a4:	74732d20 	ldrbtvc	r2, [r3], #-3360	; 0xfffff2e0
 3a8:	6e673d64 	cdpvs	13, 6, cr3, cr7, cr4, {3}
 3ac:	20393975 	eorscs	r3, r9, r5, ror r9
 3b0:	6474732d 	ldrbtvs	r7, [r4], #-813	; 0xfffffcd3
 3b4:	756e673d 	strbvc	r6, [lr, #-1853]!	; 0xfffff8c3
 3b8:	2d203939 			; <UNDEFINED> instruction: 0x2d203939
 3bc:	65726666 	ldrbvs	r6, [r2, #-1638]!	; 0xfffff99a
 3c0:	61747365 	cmnvs	r4, r5, ror #6
 3c4:	6e69646e 	cdpvs	4, 6, cr6, cr9, cr14, {3}
 3c8:	69730067 	ldmdbvs	r3!, {r0, r1, r2, r5, r6}^
 3cc:	745f657a 	ldrbvc	r6, [pc], #-1402	; 3d4 <__code_start__-0x7c2c>
 3d0:	73552f00 	cmpvc	r5, #0, 30
 3d4:	2f737265 	svccs	0x00737265
 3d8:	63697265 	cmnvs	r9, #1342177286	; 0x50000006
 3dc:	72616562 	rsbvc	r6, r1, #411041792	; 0x18800000
 3e0:	636f442f 	cmnvs	pc, #788529152	; 0x2f000000
 3e4:	6e656d75 	mcrvs	13, 3, r6, cr5, cr5, {3}
 3e8:	432f7374 			; <UNDEFINED> instruction: 0x432f7374
 3ec:	30343153 	eorscc	r3, r4, r3, asr r1
 3f0:	73632f45 	cmnvc	r3, #276	; 0x114
 3f4:	45303431 	ldrmi	r3, [r0, #-1073]!	; 0xfffffbcf
 3f8:	6e69662d 	cdpvs	6, 6, cr6, cr9, cr13, {1}
 3fc:	702d6c61 	eorvc	r6, sp, r1, ror #24
 400:	656a6f72 	strbvs	r6, [sl, #-3954]!	; 0xfffff08e
 404:	6c2f7463 	cfstrsvs	mvf7, [pc], #-396	; 280 <__code_start__-0x7d80>
 408:	2d736269 	lfmcs	f6, 2, [r3, #-420]!	; 0xfffffe5c
 40c:	6c303432 	cfldrsvs	mvf3, [r0], #-200	; 0xffffff38
 410:	696c2f78 	stmdbvs	ip!, {r3, r4, r5, r6, r8, r9, sl, fp, sp}^
 414:	00697062 	rsbeq	r7, r9, r2, rrx
 418:	696c2f2e 	stmdbvs	ip!, {r1, r2, r3, r5, r8, r9, sl, fp, sp}^
 41c:	6d2f6362 	stcvs	3, cr6, [pc, #-392]!	; 29c <__code_start__-0x7d64>
 420:	65736d65 	ldrbvs	r6, [r3, #-3429]!	; 0xfffff29b
 424:	00632e74 	rsbeq	r2, r3, r4, ror lr
 428:	73677261 	cmnvc	r7, #268435462	; 0x10000006
 42c:	5f617600 	svcpl	0x00617600
 430:	6e697270 	mcrvs	2, 3, r7, cr9, cr0, {3}
 434:	5f006b74 	svcpl	0x00006b74
 438:	756e675f 	strbvc	r6, [lr, #-1887]!	; 0xfffff8a1
 43c:	61765f63 	cmnvs	r6, r3, ror #30
 440:	73696c5f 	cmnvc	r9, #24320	; 0x5f00
 444:	5f5f0074 	svcpl	0x005f0074
 448:	2e007061 	cdpcs	0, 0, cr7, cr0, cr1, {3}
 44c:	62696c2f 	rsbvs	r6, r9, #12032	; 0x2f00
 450:	72702f63 	rsbsvc	r2, r0, #396	; 0x18c
 454:	6b746e69 	blvs	1d1be00 <__bss_end__+0x1d12170>
 458:	5f00632e 	svcpl	0x0000632e
 45c:	5f61765f 	svcpl	0x0061765f
 460:	7473696c 	ldrbtvc	r6, [r3], #-2412	; 0xfffff694
 464:	746e6900 	strbtvc	r6, [lr], #-2304	; 0xfffff700
 468:	616e7265 	cmnvs	lr, r5, ror #4
 46c:	75705f6c 	ldrbvc	r5, [r0, #-3948]!	; 0xfffff094
 470:	2e006b74 	vmovcs.16	d0[1], r6
 474:	62696c2f 	rsbvs	r6, r9, #12032	; 0x2f00
 478:	75702f63 	ldrbvc	r2, [r0, #-3939]!	; 0xfffff09d
 47c:	632e6b74 			; <UNDEFINED> instruction: 0x632e6b74
 480:	64736900 	ldrbtvs	r6, [r3], #-2304	; 0xfffff700
 484:	74696769 	strbtvc	r6, [r9], #-1897	; 0xfffff897
 488:	6e697500 	cdpvs	5, 6, cr7, cr9, cr0, {0}
 48c:	5f343674 	svcpl	0x00343674
 490:	2f2e0074 	svccs	0x002e0074
 494:	6362696c 	cmnvs	r2, #108, 18	; 0x1b0000
 498:	2d61762f 	stclcs	6, cr7, [r1, #-188]!	; 0xffffff44
 49c:	6e697270 	mcrvs	2, 3, r7, cr9, cr0, {3}
 4a0:	632e6b74 			; <UNDEFINED> instruction: 0x632e6b74
 4a4:	635f5f00 	cmpvs	pc, #0, 30
 4a8:	5f65646f 	svcpl	0x0065646f
 4ac:	72617473 	rsbvc	r7, r1, #1929379840	; 0x73000000
 4b0:	005f5f74 	subseq	r5, pc, r4, ror pc	; <UNPREDICTABLE>
 4b4:	73625f5f 	cmnvc	r2, #380	; 0x17c
 4b8:	74735f73 	ldrbtvc	r5, [r3], #-3955	; 0xfffff08d
 4bc:	5f747261 	svcpl	0x00747261
 4c0:	6977005f 	ldmdbvs	r7!, {r0, r1, r2, r3, r4, r6}^
 4c4:	00687464 	rsbeq	r7, r8, r4, ror #8
 4c8:	61656c63 	cmnvs	r5, r3, ror #24
 4cc:	65725f6e 	ldrbvs	r5, [r2, #-3950]!	; 0xfffff092
 4d0:	746f6f62 	strbtvc	r6, [pc], #-3938	; 4d8 <__code_start__-0x7b28>
 4d4:	645f5f00 	ldrbvs	r5, [pc], #-3840	; 4dc <__code_start__-0x7b24>
 4d8:	5f617461 	svcpl	0x00617461
 4dc:	5f646e65 	svcpl	0x00646e65
 4e0:	7570005f 	ldrbvc	r0, [r0, #-95]!	; 0xffffffa1
 4e4:	665f6374 			; <UNDEFINED> instruction: 0x665f6374
 4e8:	5f5f0070 	svcpl	0x005f0070
 4ec:	5f737362 	svcpl	0x00737362
 4f0:	5f646e65 	svcpl	0x00646e65
 4f4:	5f5f005f 	svcpl	0x005f005f
 4f8:	70616568 	rsbvc	r6, r1, r8, ror #10
 4fc:	6174735f 	cmnvs	r4, pc, asr r3
 500:	5f5f7472 	svcpl	0x005f7472
 504:	69707200 	ldmdbvs	r0!, {r9, ip, sp, lr}^
 508:	7465735f 	strbtvc	r7, [r5], #-863	; 0xfffffca1
 50c:	74756f5f 	ldrbtvc	r6, [r5], #-3935	; 0xfffff0a1
 510:	00747570 	rsbseq	r7, r4, r0, ror r5
 514:	5f746d66 	svcpl	0x00746d66
 518:	72617473 	rsbvc	r7, r1, #1929379840	; 0x73000000
 51c:	74730074 	ldrbtvc	r0, [r3], #-116	; 0xffffff8c
 520:	79706372 	ldmdbvc	r0!, {r1, r4, r5, r6, r8, r9, sp, lr}^
 524:	67656e00 	strbvs	r6, [r5, -r0, lsl #28]!
 528:	6e00705f 	mcrvs	0, 0, r7, cr0, cr15, {2}
 52c:	00316d75 	eorseq	r6, r1, r5, ror sp
 530:	6f635f5f 	svcvs	0x00635f5f
 534:	655f6564 	ldrbvs	r6, [pc, #-1380]	; ffffffd8 <__bss_end__+0xffff6348>
 538:	5f5f646e 	svcpl	0x005f646e
 53c:	696d6500 	stmdbvs	sp!, {r8, sl, sp, lr}^
 540:	75700074 	ldrbvc	r0, [r0, #-116]!	; 0xffffff8c
 544:	665f7374 			; <UNDEFINED> instruction: 0x665f7374
 548:	65720070 	ldrbvs	r0, [r2, #-112]!	; 0xffffff90
 54c:	73726576 	cmnvc	r2, #494927872	; 0x1d800000
 550:	74730065 	ldrbtvc	r0, [r3], #-101	; 0xffffff9b
 554:	74616372 	strbtvc	r6, [r1], #-882	; 0xfffffc8e
 558:	72747300 	rsbsvc	r7, r4, #0, 6
 55c:	00706d63 	rsbseq	r6, r0, r3, ror #26
 560:	61645f5f 	cmnvs	r4, pc, asr pc
 564:	735f6174 	cmpvc	pc, #29
 568:	74726174 	ldrbtvc	r6, [r2], #-372	; 0xfffffe8c
 56c:	5f005f5f 	svcpl	0x00005f5f
 570:	6f72705f 	svcvs	0x0072705f
 574:	6e655f67 	cdpvs	15, 6, cr5, cr5, cr7, {3}
 578:	005f5f64 	subseq	r5, pc, r4, ror #30
 57c:	6e727473 	mrcvs	4, 3, r7, cr2, cr3, {3}
 580:	00706d63 	rsbseq	r6, r0, r3, ror #26
 584:	65736162 	ldrbvs	r6, [r3, #-354]!	; 0xfffffe9e
 588:	67697300 	strbvs	r7, [r9, -r0, lsl #6]!
 58c:	5f64656e 	svcpl	0x0064656e
 590:	69640070 	stmdbvs	r4!, {r4, r5, r6}^
 594:	6c626173 	stfvse	f6, [r2], #-460	; 0xfffffe34
 598:	61635f65 	cmnvs	r3, r5, ror #30
 59c:	00656863 	rsbeq	r6, r5, r3, ror #16
 5a0:	74732f2e 	ldrbtvc	r2, [r3], #-3886	; 0xfffff0d2
 5a4:	2d666661 	stclcs	6, cr6, [r6, #-388]!	; 0xfffffe7c
 5a8:	2f637273 	svccs	0x00637273
 5ac:	68636163 	stmdavs	r3!, {r0, r1, r5, r6, r8, sp, lr}^
 5b0:	00632e65 	rsbeq	r2, r3, r5, ror #28
 5b4:	5f697072 	svcpl	0x00697072
 5b8:	6f626572 	svcvs	0x00626572
 5bc:	2e00746f 	cdpcs	4, 0, cr7, cr0, cr15, {3}
 5c0:	6174732f 	cmnvs	r4, pc, lsr #6
 5c4:	732d6666 			; <UNDEFINED> instruction: 0x732d6666
 5c8:	632f6372 			; <UNDEFINED> instruction: 0x632f6372
 5cc:	6e61656c 	cdpvs	5, 6, cr6, cr1, cr12, {3}
 5d0:	6265722d 	rsbvs	r7, r5, #-805306366	; 0xd0000002
 5d4:	2e746f6f 	cdpcs	15, 7, cr6, cr4, cr15, {3}
 5d8:	61750063 	cmnvs	r5, r3, rrx
 5dc:	665f7472 			; <UNDEFINED> instruction: 0x665f7472
 5e0:	6873756c 	ldmdavs	r3!, {r2, r3, r5, r6, r8, sl, ip, sp, lr}^
 5e4:	0078745f 	rsbseq	r7, r8, pc, asr r4
 5e8:	7473635f 	ldrbtvc	r6, [r3], #-863	; 0xfffffca1
 5ec:	00747261 	rsbseq	r7, r4, r1, ror #4
 5f0:	5f737362 	svcpl	0x00737362
 5f4:	00646e65 	rsbeq	r6, r4, r5, ror #28
 5f8:	74726175 	ldrbtvc	r6, [r2], #-373	; 0xfffffe8b
 5fc:	696e695f 	stmdbvs	lr!, {r0, r1, r2, r3, r4, r6, r8, fp, sp, lr}^
 600:	75630074 	strbvc	r0, [r3, #-116]!	; 0xffffff8c
 604:	6d6f7473 	cfstrdvs	mvd7, [pc, #-460]!	; 440 <__code_start__-0x7bc0>
 608:	616f6c5f 	cmnvs	pc, pc, asr ip	; <UNPREDICTABLE>
 60c:	00726564 	rsbseq	r6, r2, r4, ror #10
 610:	74732f2e 	ldrbtvc	r2, [r3], #-3886	; 0xfffff0d2
 614:	2d666661 	stclcs	6, cr6, [r6, #-388]!	; 0xfffffe7c
 618:	2f637273 	svccs	0x00637273
 61c:	61747363 	cmnvs	r4, r3, ror #6
 620:	632e7472 			; <UNDEFINED> instruction: 0x632e7472
 624:	732f2e00 			; <UNDEFINED> instruction: 0x732f2e00
 628:	66666174 			; <UNDEFINED> instruction: 0x66666174
 62c:	6372732d 	cmnvs	r2, #-1275068416	; 0xb4000000
 630:	7375632f 	cmnvc	r5, #-1140850688	; 0xbc000000
 634:	2d6d6f74 	stclcs	15, cr6, [sp, #-464]!	; 0xfffffe30
 638:	64616f6c 	strbtvs	r6, [r1], #-3948	; 0xfffff094
 63c:	632e7265 			; <UNDEFINED> instruction: 0x632e7265
 640:	62657200 	rsbvs	r7, r5, #0, 4
 644:	5f746f6f 	svcpl	0x00746f6f
 648:	6c6c6163 	stfvse	f6, [ip], #-396	; 0xfffffe74
 64c:	0074756f 	rsbseq	r7, r4, pc, ror #10
 650:	575f4d50 			; <UNDEFINED> instruction: 0x575f4d50
 654:	00474f44 	subeq	r4, r7, r4, asr #30
 658:	33545550 	cmpcc	r4, #80, 10	; 0x14000000
 65c:	65730032 	ldrbvs	r0, [r3, #-50]!	; 0xffffffce
 660:	73755f74 	cmnvc	r5, #116, 30	; 0x1d0
 664:	6c5f7265 	lfmvs	f7, 2, [pc], {101}	; 0x65
 668:	6c657665 	stclvs	6, cr7, [r5], #-404	; 0xfffffe6c
 66c:	732f2e00 			; <UNDEFINED> instruction: 0x732f2e00
 670:	66666174 			; <UNDEFINED> instruction: 0x66666174
 674:	6372732d 	cmnvs	r2, #-1275068416	; 0xb4000000
 678:	6265722f 	rsbvs	r7, r5, #-268435454	; 0xf0000002
 67c:	2e746f6f 	cdpcs	15, 7, cr6, cr4, cr15, {3}
 680:	4d500063 	ldclmi	0, cr0, [r0, #-396]	; 0xfffffe74
 684:	5341505f 	movtpl	r5, #4191	; 0x105f
 688:	524f5753 	subpl	r5, pc, #21757952	; 0x14c0000
 68c:	74610044 	strbtvc	r0, [r1], #-68	; 0xffffffbc
 690:	6573755f 	ldrbvs	r7, [r3, #-1375]!	; 0xfffffaa1
 694:	656c5f72 	strbvs	r5, [ip, #-3954]!	; 0xfffff08e
 698:	006c6576 	rsbeq	r6, ip, r6, ror r5
 69c:	525f4d50 	subspl	r4, pc, #80, 26	; 0x1400
 6a0:	5f435453 	svcpl	0x00435453
 6a4:	46435257 			; <UNDEFINED> instruction: 0x46435257
 6a8:	55465f47 	strbpl	r5, [r6, #-3911]	; 0xfffff0b9
 6ac:	525f4c4c 	subspl	r4, pc, #76, 24	; 0x4c00
 6b0:	54455345 	strbpl	r5, [r5], #-837	; 0xfffffcbb
 6b4:	5f4d5000 	svcpl	0x004d5000
 6b8:	43545352 	cmpmi	r4, #1207959553	; 0x48000001
 6bc:	73706300 	cmnvc	r0, #0, 6
 6c0:	65640072 	strbvs	r0, [r4, #-114]!	; 0xffffff8e
 6c4:	61625f76 	smcvs	9718	; 0x25f6
 6c8:	65697272 	strbvs	r7, [r9, #-626]!	; 0xfffffd8e
 6cc:	65640072 	strbvs	r0, [r4, #-114]!	; 0xffffff8e
 6d0:	5f79616c 	svcpl	0x0079616c
 6d4:	00636573 	rsbeq	r6, r3, r3, ror r5
 6d8:	74732f2e 	ldrbtvc	r2, [r3], #-3886	; 0xfffff0d2
 6dc:	2d666661 	stclcs	6, cr6, [r6, #-388]!	; 0xfffffe7c
 6e0:	2f637273 	svccs	0x00637273
 6e4:	656d6974 	strbvs	r6, [sp, #-2420]!	; 0xfffff68c
 6e8:	00632e72 	rsbeq	r2, r3, r2, ror lr
 6ec:	33544547 	cmpcc	r4, #297795584	; 0x11c00000
 6f0:	69740032 	ldmdbvs	r4!, {r1, r4, r5}^
 6f4:	5f72656d 	svcpl	0x0072656d
 6f8:	5f746567 	svcpl	0x00746567
 6fc:	63657375 	cmnvs	r5, #-738197503	; 0xd4000001
 700:	6c656400 	cfstrdvs	mvd6, [r5], #-0
 704:	755f7961 	ldrbvc	r7, [pc, #-2401]	; fffffdab <__bss_end__+0xffff611b>
 708:	69740073 	ldmdbvs	r4!, {r0, r1, r4, r5, r6}^
 70c:	5f72656d 	svcpl	0x0072656d
 710:	5f746567 	svcpl	0x00746567
 714:	63657375 	cmnvs	r5, #-738197503	; 0xd4000001
 718:	7761725f 			; <UNDEFINED> instruction: 0x7761725f
 71c:	69706700 	ldmdbvs	r0!, {r8, r9, sl, sp, lr}^
 720:	6c635f6f 	stclvs	15, cr5, [r3], #-444	; 0xfffffe44
 724:	67003072 	smlsdxvs	r0, r2, r0, r3
 728:	5f6f6970 	svcpl	0x006f6970
 72c:	30746573 	rsbscc	r6, r4, r3, ror r5
 730:	69706700 	ldmdbvs	r0!, {r8, r9, sl, sp, lr}^
 734:	72775f6f 	rsbsvc	r5, r7, #444	; 0x1bc
 738:	00657469 	rsbeq	r7, r5, r9, ror #8
 73c:	4f495047 	svcmi	0x00495047
 740:	4e55465f 	mrcmi	6, 2, r4, cr5, cr15, {2}
 744:	554f5f43 	strbpl	r5, [pc, #-3907]	; fffff809 <__bss_end__+0xffff5b79>
 748:	54555054 	ldrbpl	r5, [r5], #-84	; 0xffffffac
 74c:	56454400 	strbpl	r4, [r5], -r0, lsl #8
 750:	4c41565f 	mcrrmi	6, 5, r5, r1, cr15
 754:	67003233 	smladxvs	r0, r3, r2, r3
 758:	5f6f6970 	svcpl	0x006f6970
 75c:	64616572 	strbtvs	r6, [r1], #-1394	; 0xfffffa8e
 760:	49504700 	ldmdbmi	r0, {r8, r9, sl, lr}^
 764:	55465f4f 	strbpl	r5, [r6, #-3919]	; 0xfffff0b1
 768:	415f434e 	cmpmi	pc, lr, asr #6
 76c:	0030544c 	eorseq	r5, r0, ip, asr #8
 770:	4f495047 	svcmi	0x00495047
 774:	4e55465f 	mrcmi	6, 2, r4, cr5, cr15, {2}
 778:	4c415f43 	mcrrmi	15, 4, r5, r1, cr3
 77c:	47003154 	smlsdmi	r0, r4, r1, r3
 780:	5f4f4950 	svcpl	0x004f4950
 784:	434e5546 	movtmi	r5, #58694	; 0xe546
 788:	544c415f 	strbpl	r4, [ip], #-351	; 0xfffffea1
 78c:	50470032 	subpl	r0, r7, r2, lsr r0
 790:	465f4f49 	ldrbmi	r4, [pc], -r9, asr #30
 794:	5f434e55 	svcpl	0x00434e55
 798:	33544c41 	cmpcc	r4, #16640	; 0x4100
 79c:	49504700 	ldmdbmi	r0, {r8, r9, sl, lr}^
 7a0:	55465f4f 	strbpl	r5, [r6, #-3919]	; 0xfffff0b1
 7a4:	415f434e 	cmpmi	pc, lr, asr #6
 7a8:	0035544c 	eorseq	r5, r5, ip, asr #8
 7ac:	6f697067 	svcvs	0x00697067
 7b0:	7465735f 	strbtvc	r7, [r5], #-863	; 0xfffffca1
 7b4:	706e695f 	rsbvc	r6, lr, pc, asr r9
 7b8:	2f007475 	svccs	0x00007475
 7bc:	656d6f68 	strbvs	r6, [sp, #-3944]!	; 0xfffff098
 7c0:	676e652f 	strbvs	r6, [lr, -pc, lsr #10]!
 7c4:	2f72656c 	svccs	0x0072656c
 7c8:	73616c63 	cmnvc	r1, #25344	; 0x6300
 7cc:	73632f73 	cmnvc	r3, #460	; 0x1cc
 7d0:	6c303432 	cfldrsvs	mvf3, [r0], #-200	; 0xffffff38
 7d4:	32322d78 	eorscc	r2, r2, #120, 26	; 0x1e00
 7d8:	2f727073 	svccs	0x00727073
 7dc:	7062696c 	rsbvc	r6, r2, ip, ror #18
 7e0:	74732f69 	ldrbtvc	r2, [r3], #-3945	; 0xfffff097
 7e4:	2d666661 	stclcs	6, cr6, [r6, #-388]!	; 0xfffffe7c
 7e8:	76697270 			; <UNDEFINED> instruction: 0x76697270
 7ec:	00657461 	rsbeq	r7, r5, r1, ror #8
 7f0:	6f697067 	svcvs	0x00697067
 7f4:	7465735f 	strbtvc	r7, [r5], #-863	; 0xfffffca1
 7f8:	66666f5f 	uqsaxvs	r6, r6, pc	; <UNPREDICTABLE>
 7fc:	6e756600 	cdpvs	6, 7, cr6, cr5, cr0, {0}
 800:	70670063 	rsbvc	r0, r7, r3, rrx
 804:	665f6f69 	ldrbvs	r6, [pc], -r9, ror #30
 808:	5f636e75 	svcpl	0x00636e75
 80c:	4e470074 	mcrmi	0, 2, r0, cr7, cr4, {3}
 810:	39432055 	stmdbcc	r3, {r0, r2, r4, r6, sp}^
 814:	30312039 	eorscc	r2, r1, r9, lsr r0
 818:	312e332e 			; <UNDEFINED> instruction: 0x312e332e
 81c:	32303220 	eorscc	r3, r0, #32, 4
 820:	32383031 	eorscc	r3, r8, #49, 0	; 0x31
 824:	72282034 	eorvc	r2, r8, #52, 0	; 0x34
 828:	61656c65 	cmnvs	r5, r5, ror #24
 82c:	20296573 	eorcs	r6, r9, r3, ror r5
 830:	70636d2d 	rsbvc	r6, r3, sp, lsr #26
 834:	72613d75 	rsbvc	r3, r1, #7488	; 0x1d40
 838:	3731316d 	ldrcc	r3, [r1, -sp, ror #2]!
 83c:	667a6a36 			; <UNDEFINED> instruction: 0x667a6a36
 840:	2d20732d 	stccs	3, cr7, [r0, #-180]!	; 0xffffff4c
 844:	6e75746d 	cdpvs	4, 7, cr7, cr5, cr13, {3}
 848:	72613d65 	rsbvc	r3, r1, #6464	; 0x1940
 84c:	3731316d 	ldrcc	r3, [r1, -sp, ror #2]!
 850:	667a6a36 			; <UNDEFINED> instruction: 0x667a6a36
 854:	2d20732d 	stccs	3, cr7, [r0, #-180]!	; 0xffffff4c
 858:	6f6c666d 	svcvs	0x006c666d
 85c:	612d7461 			; <UNDEFINED> instruction: 0x612d7461
 860:	733d6962 	teqvc	sp, #1605632	; 0x188000
 864:	2074666f 	rsbscs	r6, r4, pc, ror #12
 868:	72616d2d 	rsbvc	r6, r1, #2880	; 0xb40
 86c:	6d2d206d 	stcvs	0, cr2, [sp, #-436]!	; 0xfffffe4c
 870:	68637261 	stmdavs	r3!, {r0, r5, r6, r9, ip, sp, lr}^
 874:	6d72613d 	ldfvse	f6, [r2, #-244]!	; 0xffffff0c
 878:	7a6b3676 	bvc	1ace258 <__bss_end__+0x1ac45c8>
 87c:	67672d20 	strbvs	r2, [r7, -r0, lsr #26]!
 880:	2d206264 	sfmcs	f6, 4, [r0, #-400]!	; 0xfffffe70
 884:	2d20674f 	stccs	7, cr6, [r0, #-316]!	; 0xfffffec4
 888:	3d647473 	cfstrdcc	mvd7, [r4, #-460]!	; 0xfffffe34
 88c:	39756e67 	ldmdbcc	r5!, {r0, r1, r2, r5, r6, r9, sl, fp, sp, lr}^
 890:	662d2039 			; <UNDEFINED> instruction: 0x662d2039
 894:	65657266 	strbvs	r7, [r5, #-614]!	; 0xfffffd9a
 898:	6e617473 	mcrvs	4, 3, r7, cr1, cr3, {3}
 89c:	676e6964 	strbvs	r6, [lr, -r4, ror #18]!
 8a0:	69706700 	ldmdbvs	r0!, {r8, r9, sl, sp, lr}^
 8a4:	656c5f6f 	strbvs	r5, [ip, #-3951]!	; 0xfffff091
 8a8:	47003076 	smlsdxmi	r0, r6, r0, r3
 8ac:	5f4f4950 	svcpl	0x004f4950
 8b0:	434e5546 	movtmi	r5, #58694	; 0xe546
 8b4:	544c415f 	strbpl	r4, [ip], #-351	; 0xfffffea1
 8b8:	61620034 	cmnvs	r2, r4, lsr r0
 8bc:	67006b6e 	strvs	r6, [r0, -lr, ror #22]
 8c0:	2e6f6970 			; <UNDEFINED> instruction: 0x2e6f6970
 8c4:	50470063 	subpl	r0, r7, r3, rrx
 8c8:	465f4f49 	ldrbmi	r4, [pc], -r9, asr #30
 8cc:	5f434e55 	svcpl	0x00434e55
 8d0:	55504e49 	ldrbpl	r4, [r0, #-3657]	; 0xfffff1b7
 8d4:	70670054 	rsbvc	r0, r7, r4, asr r0
 8d8:	735f6f69 	cmpvc	pc, #420	; 0x1a4
 8dc:	665f7465 	ldrbvs	r7, [pc], -r5, ror #8
 8e0:	74636e75 	strbtvc	r6, [r3], #-3701	; 0xfffff18b
 8e4:	006e6f69 	rsbeq	r6, lr, r9, ror #30
 8e8:	6f697067 	svcvs	0x00697067
 8ec:	7465735f 	strbtvc	r7, [r5], #-863	; 0xfffffca1
 8f0:	006e6f5f 	rsbeq	r6, lr, pc, asr pc
 8f4:	33747570 	cmncc	r4, #112, 10	; 0x1c000000
 8f8:	61620032 	cmnvs	r2, r2, lsr r0
 8fc:	765f6475 			; <UNDEFINED> instruction: 0x765f6475
 900:	73006c61 	movwvc	r6, #3169	; 0xc61
 904:	00746174 	rsbseq	r6, r4, r4, ror r1
 908:	74726175 	ldrbtvc	r6, [r2], #-373	; 0xfffffe8b
 90c:	6e61635f 	mcrvs	3, 3, r6, cr1, cr15, {2}
 910:	7465675f 	strbtvc	r6, [r5], #-1887	; 0xfffff8a1
 914:	75610063 	strbvc	r0, [r1, #-99]!	; 0xffffff9d
 918:	65705f78 	ldrbvs	r5, [r0, #-3960]!	; 0xfffff088
 91c:	68706972 	ldmdavs	r0!, {r1, r4, r5, r6, r8, fp, sp, lr}^
 920:	61750073 	cmnvs	r5, r3, ror r0
 924:	632e7472 			; <UNDEFINED> instruction: 0x632e7472
 928:	72617500 	rsbvc	r7, r1, #0, 10
 92c:	61635f74 	smcvs	13812	; 0x35f4
 930:	75705f6e 	ldrbvc	r5, [r0, #-3950]!	; 0xfffff092
 934:	75006374 	strvc	r6, [r0, #-884]	; 0xfffffc8c
 938:	5f747261 	svcpl	0x00747261
 93c:	695f7874 	ldmdbvs	pc, {r2, r4, r5, r6, fp, ip, sp, lr}^	; <UNPREDICTABLE>
 940:	6d655f73 	stclvs	15, cr5, [r5, #-460]!	; 0xfffffe34
 944:	00797470 	rsbseq	r7, r9, r0, ror r4
 948:	64756162 	ldrbtvs	r6, [r5], #-354	; 0xfffffe9e
 94c:	78756100 	ldmdavc	r5!, {r8, sp, lr}^
 950:	616e655f 	cmnvs	lr, pc, asr r5
 954:	73656c62 	cmnvc	r5, #25088	; 0x6200
 958:	72617500 	rsbvc	r7, r1, #0, 10
 95c:	65675f74 	strbvs	r5, [r7, #-3956]!	; 0xfffff08c
 960:	63006374 	movwvs	r6, #884	; 0x374
 964:	006c746e 	rsbeq	r7, ip, lr, ror #8
 968:	74726175 	ldrbtvc	r6, [r2], #-373	; 0xfffffe8b
 96c:	7369645f 	cmnvc	r9, #1593835520	; 0x5f000000
 970:	656c6261 	strbvs	r6, [ip, #-609]!	; 0xfffffd9f
 974:	72617500 	rsbvc	r7, r1, #0, 10
 978:	61685f74 	smcvs	34292	; 0x85f4
 97c:	61645f73 	smcvs	17907	; 0x45f3
 980:	6f006174 	svcvs	0x00006174
 984:	6e695f72 	mcrvs	15, 3, r5, cr9, cr2, {3}
 988:	73003233 	movwvc	r3, #563	; 0x233
 98c:	74617263 	strbtvc	r7, [r1], #-611	; 0xfffffd9d
 990:	75006863 	strvc	r6, [r0, #-2147]	; 0xfffff79d
 994:	00747261 	rsbseq	r7, r4, r1, ror #4
 998:	5f646e61 	svcpl	0x00646e61
 99c:	32336e69 	eorscc	r6, r3, #1680	; 0x690
 9a0:	72617500 	rsbvc	r7, r1, #0, 10
 9a4:	75705f74 	ldrbvc	r5, [r0, #-3956]!	; 0xfffff08c
 9a8:	67006374 	smlsdxvs	r0, r4, r3, r6
 9ac:	32337465 	eorscc	r7, r3, #1694498816	; 0x65000000
 9b0:	616d6b00 	cmnvs	sp, r0, lsl #22
 9b4:	636f6c6c 	cmnvs	pc, #108, 24	; 0x6c00
 9b8:	6165685f 	cmnvs	r5, pc, asr r8
 9bc:	74735f70 	ldrbtvc	r5, [r3], #-3952	; 0xfffff090
 9c0:	00747261 	rsbseq	r7, r4, r1, ror #4
 9c4:	5f78616d 	svcpl	0x0078616d
 9c8:	7479626e 	ldrbtvc	r6, [r9], #-622	; 0xfffffd92
 9cc:	5f007365 	svcpl	0x00007365
 9d0:	72646461 	rsbvc	r6, r4, #1627389952	; 0x61000000
 9d4:	72666b00 	rsbvc	r6, r6, #0, 22
 9d8:	68006565 	stmdavs	r0, {r0, r2, r5, r6, r8, sl, sp, lr}
 9dc:	5f706165 	svcpl	0x00706165
 9e0:	0078616d 	rsbseq	r6, r8, sp, ror #2
 9e4:	6572666b 	ldrbvs	r6, [r2, #-1643]!	; 0xfffff995
 9e8:	6c615f65 	stclvs	15, cr5, [r1], #-404	; 0xfffffe6c
 9ec:	6f72006c 	svcvs	0x0072006c
 9f0:	75646e75 	strbvc	r6, [r4, #-3701]!	; 0xfffff18b
 9f4:	65680070 	strbvs	r0, [r8, #-112]!	; 0xffffff90
 9f8:	69007061 	stmdbvs	r0, {r0, r5, r6, ip, sp, lr}
 9fc:	5f74696e 	svcpl	0x0074696e
 a00:	666b0070 			; <UNDEFINED> instruction: 0x666b0070
 a04:	5f656572 	svcpl	0x00656572
 a08:	00706f70 	rsbseq	r6, r0, r0, ror pc
 a0c:	67696c61 	strbvs	r6, [r9, -r1, ror #24]!
 a10:	6e656d6e 	cdpvs	13, 6, cr6, cr5, cr14, {3}
 a14:	616d0074 	smcvs	53252	; 0xd004
 a18:	33755f78 	cmncc	r5, #120, 30	; 0x1e0
 a1c:	6e4f0032 	mcrvs	0, 2, r0, cr15, cr2, {1}
 a20:	00424d65 	subeq	r4, r2, r5, ror #26
 a24:	6c616d6b 	stclvs	13, cr6, [r1], #-428	; 0xfffffe54
 a28:	5f636f6c 	svcpl	0x00636f6c
 a2c:	70616568 	rsbvc	r6, r1, r8, ror #10
 a30:	646e655f 	strbtvs	r6, [lr], #-1375	; 0xfffffaa1
 a34:	616d6b00 	cmnvs	sp, r0, lsl #22
 a38:	636f6c6c 	cmnvs	pc, #108, 24	; 0x6c00
 a3c:	746f6e5f 	strbtvc	r6, [pc], #-3679	; a44 <__code_start__-0x75bc>
 a40:	6f72657a 	svcvs	0x0072657a
 a44:	5f736900 	svcpl	0x00736900
 a48:	32776f70 	rsbscc	r6, r7, #112, 30	; 0x1c0
 a4c:	616d6b00 	cmnvs	sp, r0, lsl #22
 a50:	636f6c6c 	cmnvs	pc, #108, 24	; 0x6c00
 a54:	6b00632e 	blvs	19714 <__bss_end__+0xfa84>
 a58:	6c6c616d 	stfvse	f6, [ip], #-436	; 0xfffffe4c
 a5c:	695f636f 	ldmdbvs	pc, {r0, r1, r2, r3, r5, r6, r8, r9, sp, lr}^	; <UNPREDICTABLE>
 a60:	0074696e 	rsbseq	r6, r4, lr, ror #18
 a64:	615f7369 	cmpvs	pc, r9, ror #6
 a68:	6e67696c 	vnmulvs.f16	s13, s14, s25	; <UNPREDICTABLE>
 a6c:	64006465 	strvs	r6, [r0], #-1125	; 0xfffffb9b
 a70:	6c62756f 	cfstr64vs	mvdx7, [r2], #-444	; 0xfffffe44
 a74:	6d6b0065 	stclvs	0, cr0, [fp, #-404]!	; 0xfffffe6c
 a78:	6f6c6c61 	svcvs	0x006c6c61
 a7c:	65685f63 	strbvs	r5, [r8, #-3939]!	; 0xfffff09d
 a80:	705f7061 	subsvc	r7, pc, r1, rrx
 a84:	6b007274 	blvs	1d45c <__bss_end__+0x137cc>
 a88:	6c6c616d 	stfvse	f6, [ip], #-436	; 0xfffffe4c
 a8c:	695f636f 	ldmdbvs	pc, {r0, r1, r2, r3, r5, r6, r8, r9, sp, lr}^	; <UNPREDICTABLE>
 a90:	5f74696e 	svcpl	0x0074696e
 a94:	5f746573 	svcpl	0x00746573
 a98:	72617473 	rsbvc	r7, r1, #1929379840	; 0x73000000
 a9c:	70720074 	rsbsvc	r0, r2, r4, ror r0
 aa0:	65725f69 	ldrbvs	r5, [r2, #-3945]!	; 0xfffff097
 aa4:	5f746573 	svcpl	0x00746573
 aa8:	63747570 	cmnvs	r4, #112, 10	; 0x1c000000
 aac:	616d6b00 	cmnvs	sp, r0, lsl #22
 ab0:	636f6c6c 	cmnvs	pc, #108, 24	; 0x6c00
 ab4:	696c615f 	stmdbvs	ip!, {r0, r1, r2, r3, r4, r6, r8, sp, lr}^
 ab8:	64656e67 	strbtvs	r6, [r5], #-3687	; 0xfffff199
 abc:	746e6900 	strbtvc	r6, [lr], #-2304	; 0xfffff700
 ac0:	616e7265 	cmnvs	lr, r5, ror #4
 ac4:	75705f6c 	ldrbvc	r5, [r0, #-3948]!	; 0xfffff094
 ac8:	61686374 	smcvs	34356	; 0x8634
 acc:	70720072 	rsbsvc	r0, r2, r2, ror r0
 ad0:	65735f69 	ldrbvs	r5, [r3, #-3945]!	; 0xfffff097
 ad4:	75705f74 	ldrbvc	r5, [r0, #-3956]!	; 0xfffff08c
 ad8:	2e006374 	mcrcs	3, 0, r6, cr0, cr4, {3}
 adc:	62696c2f 	rsbvs	r6, r9, #12032	; 0x2f00
 ae0:	75702f63 	ldrbvc	r2, [r0, #-3939]!	; 0xfffff09d
 ae4:	61686374 	smcvs	34356	; 0x8634
 ae8:	00632e72 	rsbeq	r2, r3, r2, ror lr
 aec:	74736564 	ldrbtvc	r6, [r3], #-1380	; 0xfffffa9c
 af0:	6c2f2e00 	stcvs	14, cr2, [pc], #-0	; af8 <__code_start__-0x7508>
 af4:	2f636269 	svccs	0x00636269
 af8:	63727473 	cmnvs	r2, #1929379840	; 0x73000000
 afc:	632e7461 			; <UNDEFINED> instruction: 0x632e7461
 b00:	6c2f2e00 	stcvs	14, cr2, [pc], #-0	; b08 <__code_start__-0x74f8>
 b04:	2f636269 	svccs	0x00636269
 b08:	63727473 	cmnvs	r2, #1929379840	; 0x73000000
 b0c:	632e706d 			; <UNDEFINED> instruction: 0x632e706d
 b10:	6c2f2e00 	stcvs	14, cr2, [pc], #-0	; b18 <__code_start__-0x74e8>
 b14:	2f636269 	svccs	0x00636269
 b18:	63727473 	cmnvs	r2, #1929379840	; 0x73000000
 b1c:	632e7970 			; <UNDEFINED> instruction: 0x632e7970
 b20:	6c2f2e00 	stcvs	14, cr2, [pc], #-0	; b28 <__code_start__-0x74d8>
 b24:	2f636269 	svccs	0x00636269
 b28:	6e727473 	mrcvs	4, 3, r7, cr2, cr3, {3}
 b2c:	2e706d63 	cdpcs	13, 7, cr6, cr0, cr3, {3}
 b30:	2f2e0063 	svccs	0x002e0063
 b34:	66617473 			; <UNDEFINED> instruction: 0x66617473
 b38:	72732d66 	rsbsvc	r2, r3, #6528	; 0x1980
 b3c:	65642f63 	strbvs	r2, [r4, #-3939]!	; 0xfffff09d
 b40:	6c756166 	ldfvse	f6, [r5], #-408	; 0xfffffe68
 b44:	65722d74 	ldrbvs	r2, [r2, #-3444]!	; 0xfffff28c
 b48:	746f6f62 	strbtvc	r6, [pc], #-3938	; b50 <__code_start__-0x74b0>
 b4c:	6c61632d 	stclvs	3, cr6, [r1], #-180	; 0xffffff4c
 b50:	74756f6c 	ldrbtvc	r6, [r5], #-3948	; 0xfffff094
 b54:	Address 0x0000000000000b54 is out of bounds.


Disassembly of section .debug_frame:

00000000 <.debug_frame>:
   0:	0000000c 	andeq	r0, r0, ip
   4:	ffffffff 			; <UNDEFINED> instruction: 0xffffffff
   8:	7c020001 	stcvc	0, cr0, [r2], {1}
   c:	000d0c0e 	andeq	r0, sp, lr, lsl #24
  10:	00000020 	andeq	r0, r0, r0, lsr #32
  14:	00000000 	andeq	r0, r0, r0
  18:	00008038 	andeq	r8, r0, r8, lsr r0
  1c:	0000006c 	andeq	r0, r0, ip, rrx
  20:	84100e42 	ldrhi	r0, [r0], #-3650	; 0xfffff1be
  24:	86038504 	strhi	r8, [r3], -r4, lsl #10
  28:	42018e02 	andmi	r8, r1, #2, 28
  2c:	0e70180e 	cdpeq	8, 7, cr1, cr0, cr14, {0}
  30:	00000010 	andeq	r0, r0, r0, lsl r0
  34:	0000001c 	andeq	r0, r0, ip, lsl r0
  38:	00000000 	andeq	r0, r0, r0
  3c:	000080a4 	andeq	r8, r0, r4, lsr #1
  40:	00000074 	andeq	r0, r0, r4, ror r0
  44:	84180e42 	ldrhi	r0, [r8], #-3650	; 0xfffff1be
  48:	86058506 	strhi	r8, [r5], -r6, lsl #10
  4c:	88038704 	stmdahi	r3, {r2, r8, r9, sl, pc}
  50:	00018e02 	andeq	r8, r1, r2, lsl #28
  54:	0000000c 	andeq	r0, r0, ip
  58:	ffffffff 			; <UNDEFINED> instruction: 0xffffffff
  5c:	7c020001 	stcvc	0, cr0, [r2], {1}
  60:	000d0c0e 	andeq	r0, sp, lr, lsl #24
  64:	00000014 	andeq	r0, r0, r4, lsl r0
  68:	00000054 	andeq	r0, r0, r4, asr r0
  6c:	00008118 	andeq	r8, r0, r8, lsl r1
  70:	000000b4 	strheq	r0, [r0], -r4
  74:	84080e42 	strhi	r0, [r8], #-3650	; 0xfffff1be
  78:	00018e02 	andeq	r8, r1, r2, lsl #28
  7c:	00000020 	andeq	r0, r0, r0, lsr #32
  80:	00000054 	andeq	r0, r0, r4, asr r0
  84:	000081cc 	andeq	r8, r0, ip, asr #3
  88:	000000d0 	ldrdeq	r0, [r0], -r0	; <UNPREDICTABLE>
  8c:	84200e42 	strthi	r0, [r0], #-3650	; 0xfffff1be
  90:	86078508 	strhi	r8, [r7], -r8, lsl #10
  94:	88058706 	stmdahi	r5, {r1, r2, r8, r9, sl, pc}
  98:	8a038904 	bhi	e24b0 <__bss_end__+0xd8820>
  9c:	00018e02 	andeq	r8, r1, r2, lsl #28
  a0:	0000001c 	andeq	r0, r0, ip, lsl r0
  a4:	00000054 	andeq	r0, r0, r4, asr r0
  a8:	0000829c 	muleq	r0, ip, r2
  ac:	00000044 	andeq	r0, r0, r4, asr #32
  b0:	84180e42 	ldrhi	r0, [r8], #-3650	; 0xfffff1be
  b4:	86058506 	strhi	r8, [r5], -r6, lsl #10
  b8:	88038704 	stmdahi	r3, {r2, r8, r9, sl, pc}
  bc:	00018e02 	andeq	r8, r1, r2, lsl #28
  c0:	00000018 	andeq	r0, r0, r8, lsl r0
  c4:	00000054 	andeq	r0, r0, r4, asr r0
  c8:	000082e0 	andeq	r8, r0, r0, ror #5
  cc:	00000038 	andeq	r0, r0, r8, lsr r0
  d0:	84100e42 	ldrhi	r0, [r0], #-3650	; 0xfffff1be
  d4:	86038504 	strhi	r8, [r3], -r4, lsl #10
  d8:	00018e02 	andeq	r8, r1, r2, lsl #28
  dc:	0000001c 	andeq	r0, r0, ip, lsl r0
  e0:	00000054 	andeq	r0, r0, r4, asr r0
  e4:	00008318 	andeq	r8, r0, r8, lsl r3
  e8:	00000058 	andeq	r0, r0, r8, asr r0
  ec:	84180e42 	ldrhi	r0, [r8], #-3650	; 0xfffff1be
  f0:	86058506 	strhi	r8, [r5], -r6, lsl #10
  f4:	88038704 	stmdahi	r3, {r2, r8, r9, sl, pc}
  f8:	00018e02 	andeq	r8, r1, r2, lsl #28
  fc:	00000014 	andeq	r0, r0, r4, lsl r0
 100:	00000054 	andeq	r0, r0, r4, asr r0
 104:	00008370 	andeq	r8, r0, r0, ror r3
 108:	00000010 	andeq	r0, r0, r0, lsl r0
 10c:	84080e42 	strhi	r0, [r8], #-3650	; 0xfffff1be
 110:	00018e02 	andeq	r8, r1, r2, lsl #28
 114:	0000000c 	andeq	r0, r0, ip
 118:	00000054 	andeq	r0, r0, r4, asr r0
 11c:	00008380 	andeq	r8, r0, r0, lsl #7
 120:	00000028 	andeq	r0, r0, r8, lsr #32
 124:	0000000c 	andeq	r0, r0, ip
 128:	ffffffff 			; <UNDEFINED> instruction: 0xffffffff
 12c:	7c020001 	stcvc	0, cr0, [r2], {1}
 130:	000d0c0e 	andeq	r0, sp, lr, lsl #24
 134:	0000000c 	andeq	r0, r0, ip
 138:	00000124 	andeq	r0, r0, r4, lsr #2
 13c:	000083a8 	andeq	r8, r0, r8, lsr #7
 140:	00000018 	andeq	r0, r0, r8, lsl r0
 144:	0000000c 	andeq	r0, r0, ip
 148:	ffffffff 			; <UNDEFINED> instruction: 0xffffffff
 14c:	7c020001 	stcvc	0, cr0, [r2], {1}
 150:	000d0c0e 	andeq	r0, sp, lr, lsl #24
 154:	00000034 	andeq	r0, r0, r4, lsr r0
 158:	00000144 	andeq	r0, r0, r4, asr #2
 15c:	000083c0 	andeq	r8, r0, r0, asr #7
 160:	00000058 	andeq	r0, r0, r8, asr r0
 164:	80100e42 	andshi	r0, r0, r2, asr #28
 168:	82038104 	andhi	r8, r3, #1
 16c:	42018302 	andmi	r8, r1, #134217728	; 0x8000000
 170:	07841c0e 	streq	r1, [r4, lr, lsl #24]
 174:	058e0685 	streq	r0, [lr, #1669]	; 0x685
 178:	5c280e42 	stcpl	14, cr0, [r8], #-264	; 0xfffffef8
 17c:	ce421c0e 	cdpgt	12, 4, cr1, cr2, cr14, {0}
 180:	100ec4c5 	andne	ip, lr, r5, asr #9
 184:	c1c2c342 	bicgt	ip, r2, r2, asr #6
 188:	00000ec0 	andeq	r0, r0, r0, asr #29
 18c:	0000000c 	andeq	r0, r0, ip
 190:	ffffffff 			; <UNDEFINED> instruction: 0xffffffff
 194:	7c020001 	stcvc	0, cr0, [r2], {1}
 198:	000d0c0e 	andeq	r0, sp, lr, lsl #24
 19c:	00000014 	andeq	r0, r0, r4, lsl r0
 1a0:	0000018c 	andeq	r0, r0, ip, lsl #3
 1a4:	00008418 	andeq	r8, r0, r8, lsl r4
 1a8:	00000034 	andeq	r0, r0, r4, lsr r0
 1ac:	84080e42 	strhi	r0, [r8], #-3650	; 0xfffff1be
 1b0:	00018e02 	andeq	r8, r1, r2, lsl #28
 1b4:	0000000c 	andeq	r0, r0, ip
 1b8:	ffffffff 			; <UNDEFINED> instruction: 0xffffffff
 1bc:	7c020001 	stcvc	0, cr0, [r2], {1}
 1c0:	000d0c0e 	andeq	r0, sp, lr, lsl #24
 1c4:	0000000c 	andeq	r0, r0, ip
 1c8:	000001b4 			; <UNDEFINED> instruction: 0x000001b4
 1cc:	0000844c 	andeq	r8, r0, ip, asr #8
 1d0:	00000014 	andeq	r0, r0, r4, lsl r0
 1d4:	0000000c 	andeq	r0, r0, ip
 1d8:	000001b4 			; <UNDEFINED> instruction: 0x000001b4
 1dc:	00008460 	andeq	r8, r0, r0, ror #8
 1e0:	00000024 	andeq	r0, r0, r4, lsr #32
 1e4:	0000000c 	andeq	r0, r0, ip
 1e8:	000001b4 			; <UNDEFINED> instruction: 0x000001b4
 1ec:	00008484 	andeq	r8, r0, r4, lsl #9
 1f0:	00000038 	andeq	r0, r0, r8, lsr r0
 1f4:	00000024 	andeq	r0, r0, r4, lsr #32
 1f8:	000001b4 			; <UNDEFINED> instruction: 0x000001b4
 1fc:	000084bc 			; <UNDEFINED> instruction: 0x000084bc
 200:	000001b4 			; <UNDEFINED> instruction: 0x000001b4
 204:	84140e42 	ldrhi	r0, [r4], #-3650	; 0xfffff1be
 208:	86048505 	strhi	r8, [r4], -r5, lsl #10
 20c:	8e028703 	cdphi	7, 0, cr8, cr2, cr3, {0}
 210:	600e4201 	andvs	r4, lr, r1, lsl #4
 214:	0e0a9a02 	vmlaeq.f32	s18, s20, s4
 218:	000b4214 	andeq	r4, fp, r4, lsl r2
 21c:	00000014 	andeq	r0, r0, r4, lsl r0
 220:	000001b4 			; <UNDEFINED> instruction: 0x000001b4
 224:	00008670 	andeq	r8, r0, r0, ror r6
 228:	00000064 	andeq	r0, r0, r4, rrx
 22c:	8e040e54 	mcrhi	14, 0, r0, cr4, cr4, {2}
 230:	100e4201 	andne	r4, lr, r1, lsl #4
 234:	0000002c 	andeq	r0, r0, ip, lsr #32
 238:	000001b4 			; <UNDEFINED> instruction: 0x000001b4
 23c:	000086d4 	ldrdeq	r8, [r0], -r4
 240:	000004b8 			; <UNDEFINED> instruction: 0x000004b8
 244:	84240e42 	strthi	r0, [r4], #-3650	; 0xfffff1be
 248:	86088509 	strhi	r8, [r8], -r9, lsl #10
 24c:	88068707 	stmdahi	r6, {r0, r1, r2, r8, r9, sl, pc}
 250:	8a048905 	bhi	12266c <__bss_end__+0x1189dc>
 254:	8e028b03 	vmlahi.f64	d8, d2, d3
 258:	b80e4201 	stmdalt	lr, {r0, r9, lr}
 25c:	02380302 	eorseq	r0, r8, #134217728	; 0x8000000
 260:	0000240e 	andeq	r2, r0, lr, lsl #8
 264:	0000000c 	andeq	r0, r0, ip
 268:	ffffffff 			; <UNDEFINED> instruction: 0xffffffff
 26c:	7c020001 	stcvc	0, cr0, [r2], {1}
 270:	000d0c0e 	andeq	r0, sp, lr, lsl #24
 274:	0000000c 	andeq	r0, r0, ip
 278:	00000264 	andeq	r0, r0, r4, ror #4
 27c:	00008b8c 	andeq	r8, r0, ip, lsl #23
 280:	00000010 	andeq	r0, r0, r0, lsl r0
 284:	0000000c 	andeq	r0, r0, ip
 288:	00000264 	andeq	r0, r0, r4, ror #4
 28c:	00008b9c 	muleq	r0, ip, fp
 290:	00000010 	andeq	r0, r0, r0, lsl r0
 294:	0000000c 	andeq	r0, r0, ip
 298:	ffffffff 			; <UNDEFINED> instruction: 0xffffffff
 29c:	7c020001 	stcvc	0, cr0, [r2], {1}
 2a0:	000d0c0e 	andeq	r0, sp, lr, lsl #24
 2a4:	00000014 	andeq	r0, r0, r4, lsl r0
 2a8:	00000294 	muleq	r0, r4, r2
 2ac:	00008bac 	andeq	r8, r0, ip, lsr #23
 2b0:	0000002c 	andeq	r0, r0, ip, lsr #32
 2b4:	84080e42 	strhi	r0, [r8], #-3650	; 0xfffff1be
 2b8:	00018e02 	andeq	r8, r1, r2, lsl #28
 2bc:	0000000c 	andeq	r0, r0, ip
 2c0:	ffffffff 			; <UNDEFINED> instruction: 0xffffffff
 2c4:	7c020001 	stcvc	0, cr0, [r2], {1}
 2c8:	000d0c0e 	andeq	r0, sp, lr, lsl #24
 2cc:	00000014 	andeq	r0, r0, r4, lsl r0
 2d0:	000002bc 			; <UNDEFINED> instruction: 0x000002bc
 2d4:	00008bd8 	ldrdeq	r8, [r0], -r8	; <UNPREDICTABLE>
 2d8:	0000003c 	andeq	r0, r0, ip, lsr r0
 2dc:	84080e42 	strhi	r0, [r8], #-3650	; 0xfffff1be
 2e0:	00018e02 	andeq	r8, r1, r2, lsl #28
 2e4:	0000000c 	andeq	r0, r0, ip
 2e8:	ffffffff 			; <UNDEFINED> instruction: 0xffffffff
 2ec:	7c020001 	stcvc	0, cr0, [r2], {1}
 2f0:	000d0c0e 	andeq	r0, sp, lr, lsl #24
 2f4:	0000000c 	andeq	r0, r0, ip
 2f8:	000002e4 	andeq	r0, r0, r4, ror #5
 2fc:	00008c14 	andeq	r8, r0, r4, lsl ip
 300:	00000004 	andeq	r0, r0, r4
 304:	0000000c 	andeq	r0, r0, ip
 308:	ffffffff 			; <UNDEFINED> instruction: 0xffffffff
 30c:	7c020001 	stcvc	0, cr0, [r2], {1}
 310:	000d0c0e 	andeq	r0, sp, lr, lsl #24
 314:	0000000c 	andeq	r0, r0, ip
 318:	00000304 	andeq	r0, r0, r4, lsl #6
 31c:	00008c18 	andeq	r8, r0, r8, lsl ip
 320:	00000018 	andeq	r0, r0, r8, lsl r0
 324:	0000000c 	andeq	r0, r0, ip
 328:	00000304 	andeq	r0, r0, r4, lsl #6
 32c:	00008c30 	andeq	r8, r0, r0, lsr ip
 330:	00000014 	andeq	r0, r0, r4, lsl r0
 334:	00000014 	andeq	r0, r0, r4, lsl r0
 338:	00000304 	andeq	r0, r0, r4, lsl #6
 33c:	00008c44 	andeq	r8, r0, r4, asr #24
 340:	00000054 	andeq	r0, r0, r4, asr r0
 344:	84080e42 	strhi	r0, [r8], #-3650	; 0xfffff1be
 348:	00018e02 	andeq	r8, r1, r2, lsl #28
 34c:	0000000c 	andeq	r0, r0, ip
 350:	ffffffff 			; <UNDEFINED> instruction: 0xffffffff
 354:	7c020001 	stcvc	0, cr0, [r2], {1}
 358:	000d0c0e 	andeq	r0, sp, lr, lsl #24
 35c:	00000014 	andeq	r0, r0, r4, lsl r0
 360:	0000034c 	andeq	r0, r0, ip, asr #6
 364:	00008c98 	muleq	r0, r8, ip
 368:	00000014 	andeq	r0, r0, r4, lsl r0
 36c:	84080e42 	strhi	r0, [r8], #-3650	; 0xfffff1be
 370:	00018e02 	andeq	r8, r1, r2, lsl #28
 374:	00000014 	andeq	r0, r0, r4, lsl r0
 378:	0000034c 	andeq	r0, r0, ip, asr #6
 37c:	00008cac 	andeq	r8, r0, ip, lsr #25
 380:	0000001c 	andeq	r0, r0, ip, lsl r0
 384:	84080e42 	strhi	r0, [r8], #-3650	; 0xfffff1be
 388:	00018e02 	andeq	r8, r1, r2, lsl #28
 38c:	00000018 	andeq	r0, r0, r8, lsl r0
 390:	0000034c 	andeq	r0, r0, ip, asr #6
 394:	00008cc8 	andeq	r8, r0, r8, asr #25
 398:	00000024 	andeq	r0, r0, r4, lsr #32
 39c:	84100e42 	ldrhi	r0, [r0], #-3650	; 0xfffff1be
 3a0:	86038504 	strhi	r8, [r3], -r4, lsl #10
 3a4:	00018e02 	andeq	r8, r1, r2, lsl #28
 3a8:	00000014 	andeq	r0, r0, r4, lsl r0
 3ac:	0000034c 	andeq	r0, r0, ip, asr #6
 3b0:	00008cec 	andeq	r8, r0, ip, ror #25
 3b4:	00000018 	andeq	r0, r0, r8, lsl r0
 3b8:	84080e42 	strhi	r0, [r8], #-3650	; 0xfffff1be
 3bc:	00018e02 	andeq	r8, r1, r2, lsl #28
 3c0:	00000014 	andeq	r0, r0, r4, lsl r0
 3c4:	0000034c 	andeq	r0, r0, ip, asr #6
 3c8:	00008d04 	andeq	r8, r0, r4, lsl #26
 3cc:	00000018 	andeq	r0, r0, r8, lsl r0
 3d0:	84080e42 	strhi	r0, [r8], #-3650	; 0xfffff1be
 3d4:	00018e02 	andeq	r8, r1, r2, lsl #28
 3d8:	0000000c 	andeq	r0, r0, ip
 3dc:	ffffffff 			; <UNDEFINED> instruction: 0xffffffff
 3e0:	7c020001 	stcvc	0, cr0, [r2], {1}
 3e4:	000d0c0e 	andeq	r0, sp, lr, lsl #24
 3e8:	00000018 	andeq	r0, r0, r8, lsl r0
 3ec:	000003d8 	ldrdeq	r0, [r0], -r8
 3f0:	00008d1c 	andeq	r8, r0, ip, lsl sp
 3f4:	00000064 	andeq	r0, r0, r4, rrx
 3f8:	84100e46 	ldrhi	r0, [r0], #-3654	; 0xfffff1ba
 3fc:	86038504 	strhi	r8, [r3], -r4, lsl #10
 400:	00018e02 	andeq	r8, r1, r2, lsl #28
 404:	00000014 	andeq	r0, r0, r4, lsl r0
 408:	000003d8 	ldrdeq	r0, [r0], -r8
 40c:	00008d80 	andeq	r8, r0, r0, lsl #27
 410:	00000010 	andeq	r0, r0, r0, lsl r0
 414:	84080e42 	strhi	r0, [r8], #-3650	; 0xfffff1be
 418:	00018e02 	andeq	r8, r1, r2, lsl #28
 41c:	00000014 	andeq	r0, r0, r4, lsl r0
 420:	000003d8 	ldrdeq	r0, [r0], -r8
 424:	00008d90 	muleq	r0, r0, sp
 428:	00000024 	andeq	r0, r0, r4, lsr #32
 42c:	84080e46 	strhi	r0, [r8], #-3654	; 0xfffff1ba
 430:	00018e02 	andeq	r8, r1, r2, lsl #28
 434:	00000014 	andeq	r0, r0, r4, lsl r0
 438:	000003d8 	ldrdeq	r0, [r0], -r8
 43c:	00008db4 			; <UNDEFINED> instruction: 0x00008db4
 440:	00000024 	andeq	r0, r0, r4, lsr #32
 444:	84080e46 	strhi	r0, [r8], #-3654	; 0xfffff1ba
 448:	00018e02 	andeq	r8, r1, r2, lsl #28
 44c:	00000014 	andeq	r0, r0, r4, lsl r0
 450:	000003d8 	ldrdeq	r0, [r0], -r8
 454:	00008dd8 	ldrdeq	r8, [r0], -r8	; <UNPREDICTABLE>
 458:	00000010 	andeq	r0, r0, r0, lsl r0
 45c:	84080e42 	strhi	r0, [r8], #-3650	; 0xfffff1be
 460:	00018e02 	andeq	r8, r1, r2, lsl #28
 464:	00000014 	andeq	r0, r0, r4, lsl r0
 468:	000003d8 	ldrdeq	r0, [r0], -r8
 46c:	00008de8 	andeq	r8, r0, r8, ror #27
 470:	0000001c 	andeq	r0, r0, ip, lsl r0
 474:	84080e42 	strhi	r0, [r8], #-3650	; 0xfffff1be
 478:	00018e02 	andeq	r8, r1, r2, lsl #28
 47c:	00000018 	andeq	r0, r0, r8, lsl r0
 480:	000003d8 	ldrdeq	r0, [r0], -r8
 484:	00008e04 	andeq	r8, r0, r4, lsl #28
 488:	00000034 	andeq	r0, r0, r4, lsr r0
 48c:	84080e46 	strhi	r0, [r8], #-3654	; 0xfffff1ba
 490:	4e018e02 	cdpmi	14, 0, cr8, cr1, cr2, {0}
 494:	cec4000e 	cdpgt	0, 12, cr0, cr4, cr14, {0}
 498:	0000000c 	andeq	r0, r0, ip
 49c:	ffffffff 			; <UNDEFINED> instruction: 0xffffffff
 4a0:	7c020001 	stcvc	0, cr0, [r2], {1}
 4a4:	000d0c0e 	andeq	r0, sp, lr, lsl #24
 4a8:	00000018 	andeq	r0, r0, r8, lsl r0
 4ac:	00000498 	muleq	r0, r8, r4
 4b0:	00008e38 	andeq	r8, r0, r8, lsr lr
 4b4:	00000020 	andeq	r0, r0, r0, lsr #32
 4b8:	84100e42 	ldrhi	r0, [r0], #-3650	; 0xfffff1be
 4bc:	86038504 	strhi	r8, [r3], -r4, lsl #10
 4c0:	00018e02 	andeq	r8, r1, r2, lsl #28
 4c4:	00000018 	andeq	r0, r0, r8, lsl r0
 4c8:	00000498 	muleq	r0, r8, r4
 4cc:	00008e58 	andeq	r8, r0, r8, asr lr
 4d0:	00000020 	andeq	r0, r0, r0, lsr #32
 4d4:	84100e42 	ldrhi	r0, [r0], #-3650	; 0xfffff1be
 4d8:	86038504 	strhi	r8, [r3], -r4, lsl #10
 4dc:	00018e02 	andeq	r8, r1, r2, lsl #28
 4e0:	00000014 	andeq	r0, r0, r4, lsl r0
 4e4:	00000498 	muleq	r0, r8, r4
 4e8:	00008e78 	andeq	r8, r0, r8, ror lr
 4ec:	000000b0 	strheq	r0, [r0], -r0	; <UNPREDICTABLE>
 4f0:	84080e42 	strhi	r0, [r8], #-3650	; 0xfffff1be
 4f4:	00018e02 	andeq	r8, r1, r2, lsl #28
 4f8:	00000014 	andeq	r0, r0, r4, lsl r0
 4fc:	00000498 	muleq	r0, r8, r4
 500:	00008f28 	andeq	r8, r0, r8, lsr #30
 504:	00000018 	andeq	r0, r0, r8, lsl r0
 508:	84080e42 	strhi	r0, [r8], #-3650	; 0xfffff1be
 50c:	00018e02 	andeq	r8, r1, r2, lsl #28
 510:	00000014 	andeq	r0, r0, r4, lsl r0
 514:	00000498 	muleq	r0, r8, r4
 518:	00008f40 	andeq	r8, r0, r0, asr #30
 51c:	00000020 	andeq	r0, r0, r0, lsr #32
 520:	84080e42 	strhi	r0, [r8], #-3650	; 0xfffff1be
 524:	00018e02 	andeq	r8, r1, r2, lsl #28
 528:	00000014 	andeq	r0, r0, r4, lsl r0
 52c:	00000498 	muleq	r0, r8, r4
 530:	00008f60 	andeq	r8, r0, r0, ror #30
 534:	00000030 	andeq	r0, r0, r0, lsr r0
 538:	84080e42 	strhi	r0, [r8], #-3650	; 0xfffff1be
 53c:	00018e02 	andeq	r8, r1, r2, lsl #28
 540:	00000014 	andeq	r0, r0, r4, lsl r0
 544:	00000498 	muleq	r0, r8, r4
 548:	00008f90 	muleq	r0, r0, pc	; <UNPREDICTABLE>
 54c:	00000030 	andeq	r0, r0, r0, lsr r0
 550:	84080e42 	strhi	r0, [r8], #-3650	; 0xfffff1be
 554:	00018e02 	andeq	r8, r1, r2, lsl #28
 558:	00000014 	andeq	r0, r0, r4, lsl r0
 55c:	00000498 	muleq	r0, r8, r4
 560:	00008fc0 	andeq	r8, r0, r0, asr #31
 564:	00000010 	andeq	r0, r0, r0, lsl r0
 568:	84080e42 	strhi	r0, [r8], #-3650	; 0xfffff1be
 56c:	00018e02 	andeq	r8, r1, r2, lsl #28
 570:	00000014 	andeq	r0, r0, r4, lsl r0
 574:	00000498 	muleq	r0, r8, r4
 578:	00008fd0 	ldrdeq	r8, [r0], -r0
 57c:	00000020 	andeq	r0, r0, r0, lsr #32
 580:	84080e42 	strhi	r0, [r8], #-3650	; 0xfffff1be
 584:	00018e02 	andeq	r8, r1, r2, lsl #28
 588:	00000014 	andeq	r0, r0, r4, lsl r0
 58c:	00000498 	muleq	r0, r8, r4
 590:	00008ff0 	strdeq	r8, [r0], -r0
 594:	00000014 	andeq	r0, r0, r4, lsl r0
 598:	84080e42 	strhi	r0, [r8], #-3650	; 0xfffff1be
 59c:	00018e02 	andeq	r8, r1, r2, lsl #28
 5a0:	00000014 	andeq	r0, r0, r4, lsl r0
 5a4:	00000498 	muleq	r0, r8, r4
 5a8:	00009004 	andeq	r9, r0, r4
 5ac:	00000024 	andeq	r0, r0, r4, lsr #32
 5b0:	84080e42 	strhi	r0, [r8], #-3650	; 0xfffff1be
 5b4:	00018e02 	andeq	r8, r1, r2, lsl #28
 5b8:	0000000c 	andeq	r0, r0, ip
 5bc:	ffffffff 			; <UNDEFINED> instruction: 0xffffffff
 5c0:	7c020001 	stcvc	0, cr0, [r2], {1}
 5c4:	000d0c0e 	andeq	r0, sp, lr, lsl #24
 5c8:	0000000c 	andeq	r0, r0, ip
 5cc:	000005b8 			; <UNDEFINED> instruction: 0x000005b8
 5d0:	00009028 	andeq	r9, r0, r8, lsr #32
 5d4:	00000010 	andeq	r0, r0, r0, lsl r0
 5d8:	0000000c 	andeq	r0, r0, ip
 5dc:	000005b8 			; <UNDEFINED> instruction: 0x000005b8
 5e0:	00009038 	andeq	r9, r0, r8, lsr r0
 5e4:	00000010 	andeq	r0, r0, r0, lsl r0
 5e8:	0000000c 	andeq	r0, r0, ip
 5ec:	000005b8 			; <UNDEFINED> instruction: 0x000005b8
 5f0:	00009048 	andeq	r9, r0, r8, asr #32
 5f4:	00000010 	andeq	r0, r0, r0, lsl r0
 5f8:	0000001c 	andeq	r0, r0, ip, lsl r0
 5fc:	000005b8 			; <UNDEFINED> instruction: 0x000005b8
 600:	00009058 	andeq	r9, r0, r8, asr r0
 604:	0000009c 	muleq	r0, ip, r0
 608:	8e040e42 	cdphi	14, 0, cr0, cr4, cr2, {2}
 60c:	100e4201 	andne	r4, lr, r1, lsl #4
 610:	040e0a58 	streq	r0, [lr], #-2648	; 0xfffff5a8
 614:	00000b42 	andeq	r0, r0, r2, asr #22
 618:	00000014 	andeq	r0, r0, r4, lsl r0
 61c:	000005b8 			; <UNDEFINED> instruction: 0x000005b8
 620:	000090f4 	strdeq	r9, [r0], -r4
 624:	00000058 	andeq	r0, r0, r8, asr r0
 628:	84080e42 	strhi	r0, [r8], #-3650	; 0xfffff1be
 62c:	00018e02 	andeq	r8, r1, r2, lsl #28
 630:	0000001c 	andeq	r0, r0, ip, lsl r0
 634:	000005b8 			; <UNDEFINED> instruction: 0x000005b8
 638:	0000914c 	andeq	r9, r0, ip, asr #2
 63c:	00000098 	muleq	r0, r8, r0
 640:	8e040e42 	cdphi	14, 0, cr0, cr4, cr2, {2}
 644:	100e4201 	andne	r4, lr, r1, lsl #4
 648:	040e0a58 	streq	r0, [lr], #-2648	; 0xfffff5a8
 64c:	00000b42 	andeq	r0, r0, r2, asr #22
 650:	00000020 	andeq	r0, r0, r0, lsr #32
 654:	000005b8 			; <UNDEFINED> instruction: 0x000005b8
 658:	000091e4 	andeq	r9, r0, r4, ror #3
 65c:	00000064 	andeq	r0, r0, r4, rrx
 660:	840c0e42 	strhi	r0, [ip], #-3650	; 0xfffff1be
 664:	8e028503 	cfsh32hi	mvfx8, mvfx2, #3
 668:	180e4201 	stmdane	lr, {r0, r9, lr}
 66c:	0c0e0a54 			; <UNDEFINED> instruction: 0x0c0e0a54
 670:	00000b42 	andeq	r0, r0, r2, asr #22
 674:	0000001c 	andeq	r0, r0, ip, lsl r0
 678:	000005b8 			; <UNDEFINED> instruction: 0x000005b8
 67c:	00009248 	andeq	r9, r0, r8, asr #4
 680:	00000118 	andeq	r0, r0, r8, lsl r1
 684:	8e040e42 	cdphi	14, 0, cr0, cr4, cr2, {2}
 688:	100e4201 	andne	r4, lr, r1, lsl #4
 68c:	040e0a6c 	streq	r0, [lr], #-2668	; 0xfffff594
 690:	00000b42 	andeq	r0, r0, r2, asr #22
 694:	0000000c 	andeq	r0, r0, ip
 698:	000005b8 			; <UNDEFINED> instruction: 0x000005b8
 69c:	00009360 	andeq	r9, r0, r0, ror #6
 6a0:	00000004 	andeq	r0, r0, r4
 6a4:	0000000c 	andeq	r0, r0, ip
 6a8:	000005b8 			; <UNDEFINED> instruction: 0x000005b8
 6ac:	00009364 	andeq	r9, r0, r4, ror #6
 6b0:	00000014 	andeq	r0, r0, r4, lsl r0
 6b4:	00000014 	andeq	r0, r0, r4, lsl r0
 6b8:	000005b8 			; <UNDEFINED> instruction: 0x000005b8
 6bc:	00009378 	andeq	r9, r0, r8, ror r3
 6c0:	00000060 	andeq	r0, r0, r0, rrx
 6c4:	8e040e58 	mcrhi	14, 0, r0, cr4, cr8, {2}
 6c8:	100e4201 	andne	r4, lr, r1, lsl #4
 6cc:	0000000c 	andeq	r0, r0, ip
 6d0:	ffffffff 			; <UNDEFINED> instruction: 0xffffffff
 6d4:	7c020001 	stcvc	0, cr0, [r2], {1}
 6d8:	000d0c0e 	andeq	r0, sp, lr, lsl #24
 6dc:	00000014 	andeq	r0, r0, r4, lsl r0
 6e0:	000006cc 	andeq	r0, r0, ip, asr #13
 6e4:	000093d8 	ldrdeq	r9, [r0], -r8
 6e8:	00000014 	andeq	r0, r0, r4, lsl r0
 6ec:	84080e42 	strhi	r0, [r8], #-3650	; 0xfffff1be
 6f0:	00018e02 	andeq	r8, r1, r2, lsl #28
 6f4:	0000000c 	andeq	r0, r0, ip
 6f8:	000006cc 	andeq	r0, r0, ip, asr #13
 6fc:	000093ec 	andeq	r9, r0, ip, ror #7
 700:	00000018 	andeq	r0, r0, r8, lsl r0
 704:	0000000c 	andeq	r0, r0, ip
 708:	000006cc 	andeq	r0, r0, ip, asr #13
 70c:	00009404 	andeq	r9, r0, r4, lsl #8
 710:	00000010 	andeq	r0, r0, r0, lsl r0
 714:	0000000c 	andeq	r0, r0, ip
 718:	ffffffff 			; <UNDEFINED> instruction: 0xffffffff
 71c:	7c020001 	stcvc	0, cr0, [r2], {1}
 720:	000d0c0e 	andeq	r0, sp, lr, lsl #24
 724:	0000000c 	andeq	r0, r0, ip
 728:	00000714 	andeq	r0, r0, r4, lsl r7
 72c:	00009414 	andeq	r9, r0, r4, lsl r4
 730:	00000034 	andeq	r0, r0, r4, lsr r0
 734:	0000000c 	andeq	r0, r0, ip
 738:	ffffffff 			; <UNDEFINED> instruction: 0xffffffff
 73c:	7c020001 	stcvc	0, cr0, [r2], {1}
 740:	000d0c0e 	andeq	r0, sp, lr, lsl #24
 744:	0000000c 	andeq	r0, r0, ip
 748:	00000734 	andeq	r0, r0, r4, lsr r7
 74c:	00009448 	andeq	r9, r0, r8, asr #8
 750:	0000002c 	andeq	r0, r0, ip, lsr #32
 754:	0000000c 	andeq	r0, r0, ip
 758:	ffffffff 			; <UNDEFINED> instruction: 0xffffffff
 75c:	7c020001 	stcvc	0, cr0, [r2], {1}
 760:	000d0c0e 	andeq	r0, sp, lr, lsl #24
 764:	0000000c 	andeq	r0, r0, ip
 768:	00000754 	andeq	r0, r0, r4, asr r7
 76c:	00009474 	andeq	r9, r0, r4, ror r4
 770:	00000020 	andeq	r0, r0, r0, lsr #32
 774:	0000000c 	andeq	r0, r0, ip
 778:	ffffffff 			; <UNDEFINED> instruction: 0xffffffff
 77c:	7c020001 	stcvc	0, cr0, [r2], {1}
 780:	000d0c0e 	andeq	r0, sp, lr, lsl #24
 784:	0000000c 	andeq	r0, r0, ip
 788:	00000774 	andeq	r0, r0, r4, ror r7
 78c:	00009494 	muleq	r0, r4, r4
 790:	0000002c 	andeq	r0, r0, ip, lsr #32
 794:	0000000c 	andeq	r0, r0, ip
 798:	ffffffff 			; <UNDEFINED> instruction: 0xffffffff
 79c:	7c020001 	stcvc	0, cr0, [r2], {1}
 7a0:	000d0c0e 	andeq	r0, sp, lr, lsl #24
 7a4:	0000000c 	andeq	r0, r0, ip
 7a8:	00000794 	muleq	r0, r4, r7
 7ac:	000094c0 	andeq	r9, r0, r0, asr #9
 7b0:	00000004 	andeq	r0, r0, r4
