
tests/1-i2s-test.elf:     file format elf32-littlearm


Disassembly of section .text:

00008000 <__code_start__>:
    8000:	e3a00013 	mov	r0, #19, 0
    8004:	e3800080 	orr	r0, r0, #128, 0	; 0x80
    8008:	e129f000 	msr	CPSR_fc, r0
    800c:	e3a01000 	mov	r1, #0, 0
    8010:	ee071f95 	mcr	15, 0, r1, cr7, cr5, {4}
    8014:	e3a0d302 	mov	sp, #134217728	; 0x8000000
    8018:	e3a0b000 	mov	fp, #0, 0
    801c:	eb0002d2 	bl	8b6c <_cstart>
    8020:	eb0002f2 	bl	8bf0 <rpi_reboot>

00008024 <PUT32>:
    8024:	e5801000 	str	r1, [r0]
    8028:	e12fff1e 	bx	lr

0000802c <GET32>:
    802c:	e5900000 	ldr	r0, [r0]
    8030:	e12fff1e 	bx	lr

00008034 <BRANCHTO>:
    8034:	e12fff10 	bx	r0

00008038 <notmain>:
    8038:	e92d4070 	push	{r4, r5, r6, lr}
    803c:	eb0002b7 	bl	8b20 <enable_cache>
    8040:	eb00001e 	bl	80c0 <i2s_init>
    8044:	e59f4028 	ldr	r4, [pc, #40]	; 8074 <notmain+0x3c>
    8048:	e59f5028 	ldr	r5, [pc, #40]	; 8078 <notmain+0x40>
    804c:	eb000073 	bl	8220 <i2s_read_sample>
    8050:	e1a02000 	mov	r2, r0
    8054:	e1a00005 	mov	r0, r5
    8058:	e1a01002 	mov	r1, r2
    805c:	eb0000bc 	bl	8354 <printk>
    8060:	e2544001 	subs	r4, r4, #1, 0
    8064:	1afffff8 	bne	804c <notmain+0x14>
    8068:	e59f000c 	ldr	r0, [pc, #12]	; 807c <notmain+0x44>
    806c:	e8bd4070 	pop	{r4, r5, r6, lr}
    8070:	ea0000b7 	b	8354 <printk>
    8074:	000186a0 	andeq	r8, r1, r0, lsr #13
    8078:	000090c0 	andeq	r9, r0, r0, asr #1
    807c:	000090c8 	andeq	r9, r0, r8, asr #1

00008080 <bits_set.part.0>:
    8080:	e52de004 	push	{lr}		; (str lr, [sp, #-4]!)
    8084:	e59f201c 	ldr	r2, [pc, #28]	; 80a8 <bits_set.part.0+0x28>
    8088:	e24dd00c 	sub	sp, sp, #12, 0
    808c:	e3a03058 	mov	r3, #88, 0	; 0x58
    8090:	e59f1014 	ldr	r1, [pc, #20]	; 80ac <bits_set.part.0+0x2c>
    8094:	e58d2000 	str	r2, [sp]
    8098:	e59f0010 	ldr	r0, [pc, #16]	; 80b0 <bits_set.part.0+0x30>
    809c:	e59f2010 	ldr	r2, [pc, #16]	; 80b4 <bits_set.part.0+0x34>
    80a0:	eb0000ab 	bl	8354 <printk>
    80a4:	eb0002a5 	bl	8b40 <clean_reboot>
    80a8:	0000913c 	andeq	r9, r0, ip, lsr r1
    80ac:	000090d0 	ldrdeq	r9, [r0], -r0
    80b0:	00009128 	andeq	r9, r0, r8, lsr #2
    80b4:	00009180 	andeq	r9, r0, r0, lsl #3

000080b8 <CM_reg_value>:
    80b8:	e380045a 	orr	r0, r0, #1509949440	; 0x5a000000
    80bc:	e12fff1e 	bx	lr

000080c0 <i2s_init>:
    80c0:	e92d4010 	push	{r4, lr}
    80c4:	e59f0128 	ldr	r0, [pc, #296]	; 81f4 <i2s_init+0x134>
    80c8:	e24dd008 	sub	sp, sp, #8, 0
    80cc:	ebffffd6 	bl	802c <GET32>
    80d0:	e3100001 	tst	r0, #1, 0
    80d4:	1a00003e 	bne	81d4 <i2s_init+0x114>
    80d8:	e3a01004 	mov	r1, #4, 0
    80dc:	e3a00012 	mov	r0, #18, 0
    80e0:	eb0002f8 	bl	8cc8 <gpio_set_function>
    80e4:	e3a01004 	mov	r1, #4, 0
    80e8:	e3a00013 	mov	r0, #19, 0
    80ec:	eb0002f5 	bl	8cc8 <gpio_set_function>
    80f0:	e3a01004 	mov	r1, #4, 0
    80f4:	e3a00014 	mov	r0, #20, 0
    80f8:	eb0002f2 	bl	8cc8 <gpio_set_function>
    80fc:	e3a00012 	mov	r0, #18, 0
    8100:	eb00030d 	bl	8d3c <gpio_set_on>
    8104:	e3a00013 	mov	r0, #19, 0
    8108:	eb00030b 	bl	8d3c <gpio_set_on>
    810c:	e3a00014 	mov	r0, #20, 0
    8110:	eb000309 	bl	8d3c <gpio_set_on>
    8114:	eb0002a4 	bl	8bac <dev_barrier>
    8118:	e59f00d8 	ldr	r0, [pc, #216]	; 81f8 <i2s_init+0x138>
    811c:	ebffffc2 	bl	802c <GET32>
    8120:	e59f10d4 	ldr	r1, [pc, #212]	; 81fc <i2s_init+0x13c>
    8124:	e3c00c06 	bic	r0, r0, #1536	; 0x600
    8128:	e3c0000f 	bic	r0, r0, #15, 0
    812c:	e1801001 	orr	r1, r0, r1
    8130:	e59f00c0 	ldr	r0, [pc, #192]	; 81f8 <i2s_init+0x138>
    8134:	ebffffba 	bl	8024 <PUT32>
    8138:	e59f10c0 	ldr	r1, [pc, #192]	; 8200 <i2s_init+0x140>
    813c:	e59f00c0 	ldr	r0, [pc, #192]	; 8204 <i2s_init+0x144>
    8140:	ebffffb7 	bl	8024 <PUT32>
    8144:	e59f00ac 	ldr	r0, [pc, #172]	; 81f8 <i2s_init+0x138>
    8148:	ebffffb7 	bl	802c <GET32>
    814c:	e380145a 	orr	r1, r0, #1509949440	; 0x5a000000
    8150:	e3811010 	orr	r1, r1, #16, 0
    8154:	e59f009c 	ldr	r0, [pc, #156]	; 81f8 <i2s_init+0x138>
    8158:	ebffffb1 	bl	8024 <PUT32>
    815c:	eb000292 	bl	8bac <dev_barrier>
    8160:	e59f00a0 	ldr	r0, [pc, #160]	; 8208 <i2s_init+0x148>
    8164:	ebffffb0 	bl	802c <GET32>
    8168:	e1a01a20 	lsr	r1, r0, #20
    816c:	e1a01a01 	lsl	r1, r1, #20
    8170:	e3811b3f 	orr	r1, r1, #64512	; 0xfc00
    8174:	e3811020 	orr	r1, r1, #32, 0
    8178:	e59f0088 	ldr	r0, [pc, #136]	; 8208 <i2s_init+0x148>
    817c:	ebffffa8 	bl	8024 <PUT32>
    8180:	e59f0084 	ldr	r0, [pc, #132]	; 820c <i2s_init+0x14c>
    8184:	ebffffa8 	bl	802c <GET32>
    8188:	e3c0180f 	bic	r1, r0, #983040	; 0xf0000
    818c:	e3811103 	orr	r1, r1, #-1073741824	; 0xc0000000
    8190:	e3811702 	orr	r1, r1, #524288	; 0x80000
    8194:	e59f0070 	ldr	r0, [pc, #112]	; 820c <i2s_init+0x14c>
    8198:	ebffffa1 	bl	8024 <PUT32>
    819c:	e59f0050 	ldr	r0, [pc, #80]	; 81f4 <i2s_init+0x134>
    81a0:	ebffffa1 	bl	802c <GET32>
    81a4:	e3801403 	orr	r1, r0, #50331648	; 0x3000000
    81a8:	e3811013 	orr	r1, r1, #19, 0
    81ac:	e59f0040 	ldr	r0, [pc, #64]	; 81f4 <i2s_init+0x134>
    81b0:	ebffff9b 	bl	8024 <PUT32>
    81b4:	e59f4038 	ldr	r4, [pc, #56]	; 81f4 <i2s_init+0x134>
    81b8:	e1a00004 	mov	r0, r4
    81bc:	ebffff9a 	bl	802c <GET32>
    81c0:	e3100401 	tst	r0, #16777216	; 0x1000000
    81c4:	0afffffb 	beq	81b8 <i2s_init+0xf8>
    81c8:	e28dd008 	add	sp, sp, #8, 0
    81cc:	e8bd4010 	pop	{r4, lr}
    81d0:	ea000275 	b	8bac <dev_barrier>
    81d4:	e59f2034 	ldr	r2, [pc, #52]	; 8210 <i2s_init+0x150>
    81d8:	e3a0301d 	mov	r3, #29, 0
    81dc:	e59f1030 	ldr	r1, [pc, #48]	; 8214 <i2s_init+0x154>
    81e0:	e58d2000 	str	r2, [sp]
    81e4:	e59f002c 	ldr	r0, [pc, #44]	; 8218 <i2s_init+0x158>
    81e8:	e59f202c 	ldr	r2, [pc, #44]	; 821c <i2s_init+0x15c>
    81ec:	eb000058 	bl	8354 <printk>
    81f0:	eb000252 	bl	8b40 <clean_reboot>
    81f4:	20203000 	eorcs	r3, r0, r0
    81f8:	20101098 	mulscs	r0, r8, r0
    81fc:	5a000601 	bpl	9a08 <__data_end__+0x20>
    8200:	5a006cd8 	bpl	23568 <__bss_end__+0x19780>
    8204:	2010109c 	mulscs	r0, ip, r0
    8208:	20203008 	eorcs	r3, r0, r8
    820c:	2020300c 	eorcs	r3, r0, ip
    8210:	0000915c 	andeq	r9, r0, ip, asr r1
    8214:	00009154 	andeq	r9, r0, r4, asr r1
    8218:	00009128 	andeq	r9, r0, r8, lsr #2
    821c:	0000918c 	andeq	r9, r0, ip, lsl #3

00008220 <i2s_read_sample>:
    8220:	e92d4010 	push	{r4, lr}
    8224:	eb000260 	bl	8bac <dev_barrier>
    8228:	e59f4018 	ldr	r4, [pc, #24]	; 8248 <i2s_read_sample+0x28>
    822c:	e1a00004 	mov	r0, r4
    8230:	ebffff7d 	bl	802c <GET32>
    8234:	e3100601 	tst	r0, #1048576	; 0x100000
    8238:	0afffffb 	beq	822c <i2s_read_sample+0xc>
    823c:	e8bd4010 	pop	{r4, lr}
    8240:	e59f0004 	ldr	r0, [pc, #4]	; 824c <i2s_read_sample+0x2c>
    8244:	eaffff78 	b	802c <GET32>
    8248:	20203000 	eorcs	r3, r0, r0
    824c:	20203004 	eorcs	r3, r0, r4

00008250 <fft_fixed_cfft>:
    8250:	e92d41f0 	push	{r4, r5, r6, r7, r8, lr}
    8254:	e3a04001 	mov	r4, #1, 0
    8258:	e1a07214 	lsl	r7, r4, r2
    825c:	e3570b01 	cmp	r7, #1024	; 0x400
    8260:	8a000025 	bhi	82fc <fft_fixed_cfft+0xac>
    8264:	e1570004 	cmp	r7, r4
    8268:	83a0c000 	movhi	ip, #0, 0
    826c:	8247e001 	subhi	lr, r7, #1, 0
    8270:	82806002 	addhi	r6, r0, #2, 0
    8274:	82815002 	addhi	r5, r1, #2, 0
    8278:	9a00001d 	bls	82f4 <fft_fixed_cfft+0xa4>
    827c:	e1a03007 	mov	r3, r7
    8280:	e1a030a3 	lsr	r3, r3, #1
    8284:	e083200c 	add	r2, r3, ip
    8288:	e152000e 	cmp	r2, lr
    828c:	8afffffb 	bhi	8280 <fft_fixed_cfft+0x30>
    8290:	e2432001 	sub	r2, r3, #1, 0
    8294:	e00cc002 	and	ip, ip, r2
    8298:	e08cc003 	add	ip, ip, r3
    829c:	e15c0004 	cmp	ip, r4
    82a0:	9a000008 	bls	82c8 <fft_fixed_cfft+0x78>
    82a4:	e1a0308c 	lsl	r3, ip, #1
    82a8:	e19080f3 	ldrsh	r8, [r0, r3]
    82ac:	e1d620f0 	ldrsh	r2, [r6]
    82b0:	e1c680b0 	strh	r8, [r6]
    82b4:	e18020b3 	strh	r2, [r0, r3]
    82b8:	e1d520f0 	ldrsh	r2, [r5]
    82bc:	e19180f3 	ldrsh	r8, [r1, r3]
    82c0:	e1c580b0 	strh	r8, [r5]
    82c4:	e18120b3 	strh	r2, [r1, r3]
    82c8:	e2844001 	add	r4, r4, #1, 0
    82cc:	e1570004 	cmp	r7, r4
    82d0:	e2866002 	add	r6, r6, #2, 0
    82d4:	e2855002 	add	r5, r5, #2, 0
    82d8:	1affffe7 	bne	827c <fft_fixed_cfft+0x2c>
    82dc:	e3a03008 	mov	r3, #8, 0
    82e0:	e59f202c 	ldr	r2, [pc, #44]	; 8314 <fft_fixed_cfft+0xc4>
    82e4:	e59f102c 	ldr	r1, [pc, #44]	; 8318 <fft_fixed_cfft+0xc8>
    82e8:	e59f002c 	ldr	r0, [pc, #44]	; 831c <fft_fixed_cfft+0xcc>
    82ec:	eb000018 	bl	8354 <printk>
    82f0:	eb000212 	bl	8b40 <clean_reboot>
    82f4:	e3a00000 	mov	r0, #0, 0
    82f8:	e8bd81f0 	pop	{r4, r5, r6, r7, r8, pc}
    82fc:	e3a0300f 	mov	r3, #15, 0
    8300:	e59f2018 	ldr	r2, [pc, #24]	; 8320 <fft_fixed_cfft+0xd0>
    8304:	e59f1018 	ldr	r1, [pc, #24]	; 8324 <fft_fixed_cfft+0xd4>
    8308:	e59f0018 	ldr	r0, [pc, #24]	; 8328 <fft_fixed_cfft+0xd8>
    830c:	eb000010 	bl	8354 <printk>
    8310:	eb00020a 	bl	8b40 <clean_reboot>
    8314:	00009244 	andeq	r9, r0, r4, asr #4
    8318:	000091d0 	ldrdeq	r9, [r0], -r0
    831c:	000091d8 	ldrdeq	r9, [r0], -r8
    8320:	00009234 	andeq	r9, r0, r4, lsr r2
    8324:	00009198 	muleq	r0, r8, r1
    8328:	000091a0 	andeq	r9, r0, r0, lsr #3

0000832c <fft_fixed_rfft>:
    832c:	e3a0306a 	mov	r3, #106, 0	; 0x6a
    8330:	e92d4010 	push	{r4, lr}
    8334:	e59f200c 	ldr	r2, [pc, #12]	; 8348 <fft_fixed_rfft+0x1c>
    8338:	e59f100c 	ldr	r1, [pc, #12]	; 834c <fft_fixed_rfft+0x20>
    833c:	e59f000c 	ldr	r0, [pc, #12]	; 8350 <fft_fixed_rfft+0x24>
    8340:	eb000003 	bl	8354 <printk>
    8344:	eb0001fd 	bl	8b40 <clean_reboot>
    8348:	00009254 	andeq	r9, r0, r4, asr r2
    834c:	00009198 	muleq	r0, r8, r1
    8350:	00009204 	andeq	r9, r0, r4, lsl #4

00008354 <printk>:
    8354:	e92d000f 	push	{r0, r1, r2, r3}
    8358:	e92d4030 	push	{r4, r5, lr}
    835c:	e24dd00c 	sub	sp, sp, #12, 0
    8360:	e28d301c 	add	r3, sp, #28, 0
    8364:	e58d3004 	str	r3, [sp, #4]
    8368:	e59f5034 	ldr	r5, [pc, #52]	; 83a4 <printk+0x50>
    836c:	e59d2018 	ldr	r2, [sp, #24]
    8370:	e3a01b01 	mov	r1, #1024	; 0x400
    8374:	e1a00005 	mov	r0, r5
    8378:	eb0000ba 	bl	8668 <va_printk>
    837c:	e1a04000 	mov	r4, r0
    8380:	e59f3020 	ldr	r3, [pc, #32]	; 83a8 <printk+0x54>
    8384:	e5933000 	ldr	r3, [r3]
    8388:	e1a00005 	mov	r0, r5
    838c:	e12fff33 	blx	r3
    8390:	e1a00004 	mov	r0, r4
    8394:	e28dd00c 	add	sp, sp, #12, 0
    8398:	e8bd4030 	pop	{r4, r5, lr}
    839c:	e28dd010 	add	sp, sp, #16, 0
    83a0:	e12fff1e 	bx	lr
    83a4:	000099e8 	andeq	r9, r0, r8, ror #19
    83a8:	000099e0 	andeq	r9, r0, r0, ror #19

000083ac <internal_putk>:
    83ac:	e92d4010 	push	{r4, lr}
    83b0:	e1a04000 	mov	r4, r0
    83b4:	e5d40000 	ldrb	r0, [r4]
    83b8:	e3500000 	cmp	r0, #0, 0
    83bc:	0a000004 	beq	83d4 <internal_putk+0x28>
    83c0:	e59f3014 	ldr	r3, [pc, #20]	; 83dc <internal_putk+0x30>
    83c4:	e5933000 	ldr	r3, [r3]
    83c8:	e12fff33 	blx	r3
    83cc:	e2844001 	add	r4, r4, #1, 0
    83d0:	eafffff7 	b	83b4 <internal_putk+0x8>
    83d4:	e3a00001 	mov	r0, #1, 0
    83d8:	e8bd8010 	pop	{r4, pc}
    83dc:	000099e4 	andeq	r9, r0, r4, ror #19

000083e0 <isdigit>:
    83e0:	e2400030 	sub	r0, r0, #48, 0	; 0x30
    83e4:	e3500009 	cmp	r0, #9, 0
    83e8:	83a00000 	movhi	r0, #0, 0
    83ec:	93a00001 	movls	r0, #1, 0
    83f0:	e12fff1e 	bx	lr

000083f4 <pad>:
    83f4:	e0401001 	sub	r1, r0, r1
    83f8:	e1510002 	cmp	r1, r2
    83fc:	b3a03020 	movlt	r3, #32, 0
    8400:	b4c03001 	strblt	r3, [r0], #1
    8404:	b2811001 	addlt	r1, r1, #1, 0
    8408:	bafffffa 	blt	83f8 <pad+0x4>
    840c:	e3a03000 	mov	r3, #0, 0
    8410:	e5c03000 	strb	r3, [r0]
    8414:	e12fff1e 	bx	lr

00008418 <reverse>:
    8418:	e042c003 	sub	ip, r2, r3
    841c:	e28cc001 	add	ip, ip, #1, 0
    8420:	e15c0001 	cmp	ip, r1
    8424:	c04cc001 	subgt	ip, ip, r1
    8428:	c083300c 	addgt	r3, r3, ip
    842c:	e2421001 	sub	r1, r2, #1, 0
    8430:	e1a02000 	mov	r2, r0
    8434:	e1510003 	cmp	r1, r3
    8438:	2451c001 	ldrbcs	ip, [r1], #-1
    843c:	24c2c001 	strbcs	ip, [r2], #1
    8440:	2afffffb 	bcs	8434 <reverse+0x1c>
    8444:	e3a03000 	mov	r3, #0, 0
    8448:	e5c23000 	strb	r3, [r2]
    844c:	e12fff1e 	bx	lr

00008450 <emit>:
    8450:	e92d40f0 	push	{r4, r5, r6, r7, lr}
    8454:	e24dd04c 	sub	sp, sp, #76, 0	; 0x4c
    8458:	e1a05001 	mov	r5, r1
    845c:	e1a04002 	mov	r4, r2
    8460:	e59d2060 	ldr	r2, [sp, #96]	; 0x60
    8464:	e1520004 	cmp	r2, r4
    8468:	c2442001 	subgt	r2, r4, #1, 0
    846c:	e1a0c003 	mov	ip, r3
    8470:	e2400002 	sub	r0, r0, #2, 0
    8474:	e350000e 	cmp	r0, #14, 0
    8478:	979ff100 	ldrls	pc, [pc, r0, lsl #2]
    847c:	ea000050 	b	85c4 <emit+0x174>
    8480:	0000859c 	muleq	r0, ip, r5
    8484:	000085c4 	andeq	r8, r0, r4, asr #11
    8488:	000085c4 	andeq	r8, r0, r4, asr #11
    848c:	000085c4 	andeq	r8, r0, r4, asr #11
    8490:	000085c4 	andeq	r8, r0, r4, asr #11
    8494:	000085c4 	andeq	r8, r0, r4, asr #11
    8498:	00008590 	muleq	r0, r0, r5
    849c:	000085c4 	andeq	r8, r0, r4, asr #11
    84a0:	000084bc 			; <UNDEFINED> instruction: 0x000084bc
    84a4:	000085c4 	andeq	r8, r0, r4, asr #11
    84a8:	000085c4 	andeq	r8, r0, r4, asr #11
    84ac:	000085c4 	andeq	r8, r0, r4, asr #11
    84b0:	000085c4 	andeq	r8, r0, r4, asr #11
    84b4:	000085c4 	andeq	r8, r0, r4, asr #11
    84b8:	00008534 	andeq	r8, r0, r4, lsr r5
    84bc:	e59d1064 	ldr	r1, [sp, #100]	; 0x64
    84c0:	e2511000 	subs	r1, r1, #0, 0
    84c4:	13a01001 	movne	r1, #1, 0
    84c8:	e0111fa3 	ands	r1, r1, r3, lsr #31
    84cc:	0a000016 	beq	852c <emit+0xdc>
    84d0:	e263c000 	rsb	ip, r3, #0, 0
    84d4:	e3a06001 	mov	r6, #1, 0
    84d8:	e28d0008 	add	r0, sp, #8, 0
    84dc:	e59f3100 	ldr	r3, [pc, #256]	; 85e4 <emit+0x194>
    84e0:	e0831c93 	umull	r1, r3, r3, ip
    84e4:	e1a031a3 	lsr	r3, r3, #3
    84e8:	e1a0e003 	mov	lr, r3
    84ec:	e0833103 	add	r3, r3, r3, lsl #2
    84f0:	e04c3083 	sub	r3, ip, r3, lsl #1
    84f4:	e1a01000 	mov	r1, r0
    84f8:	e2800001 	add	r0, r0, #1, 0
    84fc:	e59f70e4 	ldr	r7, [pc, #228]	; 85e8 <emit+0x198>
    8500:	e7d73003 	ldrb	r3, [r7, r3]
    8504:	e5c13000 	strb	r3, [r1]
    8508:	e1a0300c 	mov	r3, ip
    850c:	e1a0c00e 	mov	ip, lr
    8510:	e3530009 	cmp	r3, #9, 0
    8514:	8afffff0 	bhi	84dc <emit+0x8c>
    8518:	e3560000 	cmp	r6, #0, 0
    851c:	13a0302d 	movne	r3, #45, 0	; 0x2d
    8520:	15c03000 	strbne	r3, [r0]
    8524:	12810002 	addne	r0, r1, #2, 0
    8528:	ea00000f 	b	856c <emit+0x11c>
    852c:	e3a06000 	mov	r6, #0, 0
    8530:	eaffffe8 	b	84d8 <emit+0x88>
    8534:	e28d1008 	add	r1, sp, #8, 0
    8538:	e20c000f 	and	r0, ip, #15, 0
    853c:	e59fe0a8 	ldr	lr, [pc, #168]	; 85ec <emit+0x19c>
    8540:	e7de0000 	ldrb	r0, [lr, r0]
    8544:	e5c10000 	strb	r0, [r1]
    8548:	e2811001 	add	r1, r1, #1, 0
    854c:	e35c000f 	cmp	ip, #15, 0
    8550:	e1a0c22c 	lsr	ip, ip, #4
    8554:	8afffff7 	bhi	8538 <emit+0xe8>
    8558:	e1a00001 	mov	r0, r1
    855c:	e3a03078 	mov	r3, #120, 0	; 0x78
    8560:	e4c03002 	strb	r3, [r0], #2
    8564:	e3a03030 	mov	r3, #48, 0	; 0x30
    8568:	e5c13001 	strb	r3, [r1, #1]
    856c:	e28d1008 	add	r1, sp, #8, 0
    8570:	ebffff9f 	bl	83f4 <pad>
    8574:	e1a02000 	mov	r2, r0
    8578:	e28d3008 	add	r3, sp, #8, 0
    857c:	e1a01004 	mov	r1, r4
    8580:	e1a00005 	mov	r0, r5
    8584:	ebffffa3 	bl	8418 <reverse>
    8588:	e28dd04c 	add	sp, sp, #76, 0	; 0x4c
    858c:	e8bd80f0 	pop	{r4, r5, r6, r7, pc}
    8590:	e5cd3008 	strb	r3, [sp, #8]
    8594:	e28d0009 	add	r0, sp, #9, 0
    8598:	eafffff3 	b	856c <emit+0x11c>
    859c:	e28d0008 	add	r0, sp, #8, 0
    85a0:	e20c1001 	and	r1, ip, #1, 0
    85a4:	e59fe044 	ldr	lr, [pc, #68]	; 85f0 <emit+0x1a0>
    85a8:	e7de1001 	ldrb	r1, [lr, r1]
    85ac:	e5c01000 	strb	r1, [r0]
    85b0:	e2800001 	add	r0, r0, #1, 0
    85b4:	e35c0001 	cmp	ip, #1, 0
    85b8:	e1a0c0ac 	lsr	ip, ip, #1
    85bc:	8afffff7 	bhi	85a0 <emit+0x150>
    85c0:	eaffffe9 	b	856c <emit+0x11c>
    85c4:	e59f3028 	ldr	r3, [pc, #40]	; 85f4 <emit+0x1a4>
    85c8:	e58d3000 	str	r3, [sp]
    85cc:	e3a03079 	mov	r3, #121, 0	; 0x79
    85d0:	e59f2020 	ldr	r2, [pc, #32]	; 85f8 <emit+0x1a8>
    85d4:	e59f1020 	ldr	r1, [pc, #32]	; 85fc <emit+0x1ac>
    85d8:	e59f0020 	ldr	r0, [pc, #32]	; 8600 <emit+0x1b0>
    85dc:	ebffff5c 	bl	8354 <printk>
    85e0:	eb000156 	bl	8b40 <clean_reboot>
    85e4:	cccccccd 	stclgt	12, cr12, [ip], {205}	; 0xcd
    85e8:	0000927c 	andeq	r9, r0, ip, ror r2
    85ec:	00009288 	andeq	r9, r0, r8, lsl #5
    85f0:	0000929c 	muleq	r0, ip, r2
    85f4:	00009278 	andeq	r9, r0, r8, ror r2
    85f8:	000093a8 	andeq	r9, r0, r8, lsr #7
    85fc:	00009264 	andeq	r9, r0, r4, ror #4
    8600:	00009128 	andeq	r9, r0, r8, lsr #2

00008604 <rpi_set_output>:
    8604:	e3500000 	cmp	r0, #0, 0
    8608:	0a000006 	beq	8628 <rpi_set_output+0x24>
    860c:	e59f303c 	ldr	r3, [pc, #60]	; 8650 <rpi_set_output+0x4c>
    8610:	e5830000 	str	r0, [r3]
    8614:	e3510000 	cmp	r1, #0, 0
    8618:	012fff1e 	bxeq	lr
    861c:	e59f3030 	ldr	r3, [pc, #48]	; 8654 <rpi_set_output+0x50>
    8620:	e5831000 	str	r1, [r3]
    8624:	e12fff1e 	bx	lr
    8628:	e52de004 	push	{lr}		; (str lr, [sp, #-4]!)
    862c:	e24dd00c 	sub	sp, sp, #12, 0
    8630:	e59f3020 	ldr	r3, [pc, #32]	; 8658 <rpi_set_output+0x54>
    8634:	e58d3000 	str	r3, [sp]
    8638:	e3a03020 	mov	r3, #32, 0
    863c:	e59f2018 	ldr	r2, [pc, #24]	; 865c <rpi_set_output+0x58>
    8640:	e59f1018 	ldr	r1, [pc, #24]	; 8660 <rpi_set_output+0x5c>
    8644:	e59f0018 	ldr	r0, [pc, #24]	; 8664 <rpi_set_output+0x60>
    8648:	ebffff41 	bl	8354 <printk>
    864c:	eb00013b 	bl	8b40 <clean_reboot>
    8650:	000099e4 	andeq	r9, r0, r4, ror #19
    8654:	000099e0 	andeq	r9, r0, r0, ror #19
    8658:	000092a0 	andeq	r9, r0, r0, lsr #5
    865c:	000093b0 			; <UNDEFINED> instruction: 0x000093b0
    8660:	00009264 	andeq	r9, r0, r4, ror #4
    8664:	00009128 	andeq	r9, r0, r8, lsr #2

00008668 <va_printk>:
    8668:	e92d4ff0 	push	{r4, r5, r6, r7, r8, r9, sl, fp, lr}
    866c:	e24ddf45 	sub	sp, sp, #276	; 0x114
    8670:	e1a09000 	mov	r9, r0
    8674:	e58d2008 	str	r2, [sp, #8]
    8678:	e58d300c 	str	r3, [sp, #12]
    867c:	e2411001 	sub	r1, r1, #1, 0
    8680:	e0808001 	add	r8, r0, r1
    8684:	e3a03000 	mov	r3, #0, 0
    8688:	e5c03000 	strb	r3, [r0]
    868c:	e1a04000 	mov	r4, r0
    8690:	e1a06002 	mov	r6, r2
    8694:	ea000001 	b	86a0 <va_printk+0x38>
    8698:	e2866001 	add	r6, r6, #1, 0
    869c:	e4c43001 	strb	r3, [r4], #1
    86a0:	e5d63000 	ldrb	r3, [r6]
    86a4:	e3530000 	cmp	r3, #0, 0
    86a8:	0a000108 	beq	8ad0 <va_printk+0x468>
    86ac:	e1540008 	cmp	r4, r8
    86b0:	2a000106 	bcs	8ad0 <va_printk+0x468>
    86b4:	e3530025 	cmp	r3, #37, 0	; 0x25
    86b8:	1afffff6 	bne	8698 <va_printk+0x30>
    86bc:	e5d62001 	ldrb	r2, [r6, #1]
    86c0:	e3520025 	cmp	r2, #37, 0	; 0x25
    86c4:	04c43001 	strbeq	r3, [r4], #1
    86c8:	02866002 	addeq	r6, r6, #2, 0
    86cc:	0afffff3 	beq	86a0 <va_printk+0x38>
    86d0:	e2866001 	add	r6, r6, #1, 0
    86d4:	e3a05000 	mov	r5, #0, 0
    86d8:	e5d67000 	ldrb	r7, [r6]
    86dc:	e1a0a007 	mov	sl, r7
    86e0:	e1a00007 	mov	r0, r7
    86e4:	ebffff3d 	bl	83e0 <isdigit>
    86e8:	e3500000 	cmp	r0, #0, 0
    86ec:	0a000004 	beq	8704 <va_printk+0x9c>
    86f0:	e0855105 	add	r5, r5, r5, lsl #2
    86f4:	e0875085 	add	r5, r7, r5, lsl #1
    86f8:	e2455030 	sub	r5, r5, #48, 0	; 0x30
    86fc:	e2866001 	add	r6, r6, #1, 0
    8700:	eafffff4 	b	86d8 <va_printk+0x70>
    8704:	e355001f 	cmp	r5, #31, 0
    8708:	8a00001a 	bhi	8778 <va_printk+0x110>
    870c:	e2477062 	sub	r7, r7, #98, 0	; 0x62
    8710:	e3570016 	cmp	r7, #22, 0
    8714:	979ff107 	ldrls	pc, [pc, r7, lsl #2]
    8718:	ea0000d4 	b	8a70 <va_printk+0x408>
    871c:	000089f4 	strdeq	r8, [r0], -r4
    8720:	00008a3c 	andeq	r8, r0, ip, lsr sl
    8724:	00008954 	andeq	r8, r0, r4, asr r9
    8728:	00008a70 	andeq	r8, r0, r0, ror sl
    872c:	0000893c 	andeq	r8, r0, ip, lsr r9
    8730:	00008a70 	andeq	r8, r0, r0, ror sl
    8734:	00008a70 	andeq	r8, r0, r0, ror sl
    8738:	00008a70 	andeq	r8, r0, r0, ror sl
    873c:	00008a70 	andeq	r8, r0, r0, ror sl
    8740:	00008a70 	andeq	r8, r0, r0, ror sl
    8744:	00008798 	muleq	r0, r8, r7
    8748:	00008a70 	andeq	r8, r0, r0, ror sl
    874c:	00008a70 	andeq	r8, r0, r0, ror sl
    8750:	00008a70 	andeq	r8, r0, r0, ror sl
    8754:	000089c0 	andeq	r8, r0, r0, asr #19
    8758:	00008a70 	andeq	r8, r0, r0, ror sl
    875c:	00008a70 	andeq	r8, r0, r0, ror sl
    8760:	00008a28 	andeq	r8, r0, r8, lsr #20
    8764:	00008a70 	andeq	r8, r0, r0, ror sl
    8768:	0000898c 	andeq	r8, r0, ip, lsl #19
    876c:	00008a70 	andeq	r8, r0, r0, ror sl
    8770:	00008a70 	andeq	r8, r0, r0, ror sl
    8774:	000089c0 	andeq	r8, r0, r0, asr #19
    8778:	e59f3364 	ldr	r3, [pc, #868]	; 8ae4 <va_printk+0x47c>
    877c:	e58d3000 	str	r3, [sp]
    8780:	e3a03098 	mov	r3, #152, 0	; 0x98
    8784:	e59f235c 	ldr	r2, [pc, #860]	; 8ae8 <va_printk+0x480>
    8788:	e59f135c 	ldr	r1, [pc, #860]	; 8aec <va_printk+0x484>
    878c:	e59f035c 	ldr	r0, [pc, #860]	; 8af0 <va_printk+0x488>
    8790:	ebfffeef 	bl	8354 <printk>
    8794:	eb0000e9 	bl	8b40 <clean_reboot>
    8798:	e3a02003 	mov	r2, #3, 0
    879c:	e59f1350 	ldr	r1, [pc, #848]	; 8af4 <va_printk+0x48c>
    87a0:	e1a00006 	mov	r0, r6
    87a4:	eb000239 	bl	9090 <strncmp>
    87a8:	e3500000 	cmp	r0, #0, 0
    87ac:	0a000005 	beq	87c8 <va_printk+0x160>
    87b0:	e3a02003 	mov	r2, #3, 0
    87b4:	e59f133c 	ldr	r1, [pc, #828]	; 8af8 <va_printk+0x490>
    87b8:	e1a00006 	mov	r0, r6
    87bc:	eb000233 	bl	9090 <strncmp>
    87c0:	e3500000 	cmp	r0, #0, 0
    87c4:	1a000033 	bne	8898 <va_printk+0x230>
    87c8:	e286b002 	add	fp, r6, #2, 0
    87cc:	e59d300c 	ldr	r3, [sp, #12]
    87d0:	e2833007 	add	r3, r3, #7, 0
    87d4:	e3c33007 	bic	r3, r3, #7, 0
    87d8:	e2832008 	add	r2, r3, #8, 0
    87dc:	e58d200c 	str	r2, [sp, #12]
    87e0:	e593a000 	ldr	sl, [r3]
    87e4:	e5937004 	ldr	r7, [r3, #4]
    87e8:	e1a01007 	mov	r1, r7
    87ec:	e59f0308 	ldr	r0, [pc, #776]	; 8afc <va_printk+0x494>
    87f0:	ebfffed7 	bl	8354 <printk>
    87f4:	e1a0100a 	mov	r1, sl
    87f8:	e59f0300 	ldr	r0, [pc, #768]	; 8b00 <va_printk+0x498>
    87fc:	ebfffed4 	bl	8354 <printk>
    8800:	e3a02003 	mov	r2, #3, 0
    8804:	e59f12e8 	ldr	r1, [pc, #744]	; 8af4 <va_printk+0x48c>
    8808:	e1a00006 	mov	r0, r6
    880c:	eb00021f 	bl	9090 <strncmp>
    8810:	e3500000 	cmp	r0, #0, 0
    8814:	0a000027 	beq	88b8 <va_printk+0x250>
    8818:	e3a02003 	mov	r2, #3, 0
    881c:	e59f12d4 	ldr	r1, [pc, #724]	; 8af8 <va_printk+0x490>
    8820:	e1a00006 	mov	r0, r6
    8824:	eb000219 	bl	9090 <strncmp>
    8828:	e3500000 	cmp	r0, #0, 0
    882c:	1a00003b 	bne	8920 <va_printk+0x2b8>
    8830:	e3a06000 	mov	r6, #0, 0
    8834:	e58d6004 	str	r6, [sp, #4]
    8838:	e58d5000 	str	r5, [sp]
    883c:	e1a03007 	mov	r3, r7
    8840:	e3a02080 	mov	r2, #128, 0	; 0x80
    8844:	e28d1010 	add	r1, sp, #16, 0
    8848:	e3a0000a 	mov	r0, #10, 0
    884c:	ebfffeff 	bl	8450 <emit>
    8850:	e1a07000 	mov	r7, r0
    8854:	e58d6004 	str	r6, [sp, #4]
    8858:	e58d5000 	str	r5, [sp]
    885c:	e1a0300a 	mov	r3, sl
    8860:	e3a02080 	mov	r2, #128, 0	; 0x80
    8864:	e28d1090 	add	r1, sp, #144, 0	; 0x90
    8868:	e3a0000a 	mov	r0, #10, 0
    886c:	ebfffef7 	bl	8450 <emit>
    8870:	e59f128c 	ldr	r1, [pc, #652]	; 8b04 <va_printk+0x49c>
    8874:	e28d0010 	add	r0, sp, #16, 0
    8878:	eb0001f1 	bl	9044 <strcmp>
    887c:	e1500006 	cmp	r0, r6
    8880:	1a000021 	bne	890c <va_printk+0x2a4>
    8884:	e28d1090 	add	r1, sp, #144, 0	; 0x90
    8888:	e28d0010 	add	r0, sp, #16, 0
    888c:	eb0001f7 	bl	9070 <strcpy>
    8890:	e1a0600b 	mov	r6, fp
    8894:	ea00003a 	b	8984 <va_printk+0x31c>
    8898:	e59f3268 	ldr	r3, [pc, #616]	; 8b08 <va_printk+0x4a0>
    889c:	e58d3000 	str	r3, [sp]
    88a0:	e3a0309f 	mov	r3, #159, 0	; 0x9f
    88a4:	e59f223c 	ldr	r2, [pc, #572]	; 8ae8 <va_printk+0x480>
    88a8:	e59f123c 	ldr	r1, [pc, #572]	; 8aec <va_printk+0x484>
    88ac:	e59f023c 	ldr	r0, [pc, #572]	; 8af0 <va_printk+0x488>
    88b0:	ebfffea7 	bl	8354 <printk>
    88b4:	eb0000a1 	bl	8b40 <clean_reboot>
    88b8:	e3a06000 	mov	r6, #0, 0
    88bc:	e58d6004 	str	r6, [sp, #4]
    88c0:	e58d5000 	str	r5, [sp]
    88c4:	e1a03007 	mov	r3, r7
    88c8:	e3a02080 	mov	r2, #128, 0	; 0x80
    88cc:	e28d1010 	add	r1, sp, #16, 0
    88d0:	e3a00010 	mov	r0, #16, 0
    88d4:	ebfffedd 	bl	8450 <emit>
    88d8:	e1a07000 	mov	r7, r0
    88dc:	e58d6004 	str	r6, [sp, #4]
    88e0:	e58d5000 	str	r5, [sp]
    88e4:	e1a0300a 	mov	r3, sl
    88e8:	e3a02080 	mov	r2, #128, 0	; 0x80
    88ec:	e28d1090 	add	r1, sp, #144, 0	; 0x90
    88f0:	e3a00010 	mov	r0, #16, 0
    88f4:	ebfffed5 	bl	8450 <emit>
    88f8:	e28d1092 	add	r1, sp, #146, 0	; 0x92
    88fc:	e28d0010 	add	r0, sp, #16, 0
    8900:	eb0001c2 	bl	9010 <strcat>
    8904:	e1a0600b 	mov	r6, fp
    8908:	ea00001d 	b	8984 <va_printk+0x31c>
    890c:	e28d1090 	add	r1, sp, #144, 0	; 0x90
    8910:	e28d0010 	add	r0, sp, #16, 0
    8914:	eb0001bd 	bl	9010 <strcat>
    8918:	e1a0600b 	mov	r6, fp
    891c:	ea000018 	b	8984 <va_printk+0x31c>
    8920:	e58d6000 	str	r6, [sp]
    8924:	e3a030b6 	mov	r3, #182, 0	; 0xb6
    8928:	e59f21b8 	ldr	r2, [pc, #440]	; 8ae8 <va_printk+0x480>
    892c:	e59f11b8 	ldr	r1, [pc, #440]	; 8aec <va_printk+0x484>
    8930:	e59f01d4 	ldr	r0, [pc, #468]	; 8b0c <va_printk+0x4a4>
    8934:	ebfffe86 	bl	8354 <printk>
    8938:	eb000080 	bl	8b40 <clean_reboot>
    893c:	e3a030be 	mov	r3, #190, 0	; 0xbe
    8940:	e59f21a0 	ldr	r2, [pc, #416]	; 8ae8 <va_printk+0x480>
    8944:	e59f11a0 	ldr	r1, [pc, #416]	; 8aec <va_printk+0x484>
    8948:	e59f01c0 	ldr	r0, [pc, #448]	; 8b10 <va_printk+0x4a8>
    894c:	ebfffe80 	bl	8354 <printk>
    8950:	eb00007a 	bl	8b40 <clean_reboot>
    8954:	e59d300c 	ldr	r3, [sp, #12]
    8958:	e2832004 	add	r2, r3, #4, 0
    895c:	e58d200c 	str	r2, [sp, #12]
    8960:	e5933000 	ldr	r3, [r3]
    8964:	e3a02001 	mov	r2, #1, 0
    8968:	e58d2004 	str	r2, [sp, #4]
    896c:	e58d5000 	str	r5, [sp]
    8970:	e3a02080 	mov	r2, #128, 0	; 0x80
    8974:	e28d1010 	add	r1, sp, #16, 0
    8978:	e3a0000a 	mov	r0, #10, 0
    897c:	ebfffeb3 	bl	8450 <emit>
    8980:	e1a07000 	mov	r7, r0
    8984:	e2866001 	add	r6, r6, #1, 0
    8988:	ea00004a 	b	8ab8 <va_printk+0x450>
    898c:	e59d300c 	ldr	r3, [sp, #12]
    8990:	e2832004 	add	r2, r3, #4, 0
    8994:	e58d200c 	str	r2, [sp, #12]
    8998:	e5933000 	ldr	r3, [r3]
    899c:	e3a02000 	mov	r2, #0, 0
    89a0:	e58d2004 	str	r2, [sp, #4]
    89a4:	e58d5000 	str	r5, [sp]
    89a8:	e3a02080 	mov	r2, #128, 0	; 0x80
    89ac:	e28d1010 	add	r1, sp, #16, 0
    89b0:	e3a0000a 	mov	r0, #10, 0
    89b4:	ebfffea5 	bl	8450 <emit>
    89b8:	e1a07000 	mov	r7, r0
    89bc:	eafffff0 	b	8984 <va_printk+0x31c>
    89c0:	e59d300c 	ldr	r3, [sp, #12]
    89c4:	e2832004 	add	r2, r3, #4, 0
    89c8:	e58d200c 	str	r2, [sp, #12]
    89cc:	e5933000 	ldr	r3, [r3]
    89d0:	e3a02000 	mov	r2, #0, 0
    89d4:	e58d2004 	str	r2, [sp, #4]
    89d8:	e58d5000 	str	r5, [sp]
    89dc:	e3a02080 	mov	r2, #128, 0	; 0x80
    89e0:	e28d1010 	add	r1, sp, #16, 0
    89e4:	e3a00010 	mov	r0, #16, 0
    89e8:	ebfffe98 	bl	8450 <emit>
    89ec:	e1a07000 	mov	r7, r0
    89f0:	eaffffe3 	b	8984 <va_printk+0x31c>
    89f4:	e59d300c 	ldr	r3, [sp, #12]
    89f8:	e2832004 	add	r2, r3, #4, 0
    89fc:	e58d200c 	str	r2, [sp, #12]
    8a00:	e5933000 	ldr	r3, [r3]
    8a04:	e3a02000 	mov	r2, #0, 0
    8a08:	e58d2004 	str	r2, [sp, #4]
    8a0c:	e58d5000 	str	r5, [sp]
    8a10:	e3a02080 	mov	r2, #128, 0	; 0x80
    8a14:	e28d1010 	add	r1, sp, #16, 0
    8a18:	e3a00002 	mov	r0, #2, 0
    8a1c:	ebfffe8b 	bl	8450 <emit>
    8a20:	e1a07000 	mov	r7, r0
    8a24:	eaffffd6 	b	8984 <va_printk+0x31c>
    8a28:	e59d300c 	ldr	r3, [sp, #12]
    8a2c:	e2832004 	add	r2, r3, #4, 0
    8a30:	e58d200c 	str	r2, [sp, #12]
    8a34:	e5937000 	ldr	r7, [r3]
    8a38:	eaffffd1 	b	8984 <va_printk+0x31c>
    8a3c:	e59d300c 	ldr	r3, [sp, #12]
    8a40:	e2832004 	add	r2, r3, #4, 0
    8a44:	e58d200c 	str	r2, [sp, #12]
    8a48:	e5933000 	ldr	r3, [r3]
    8a4c:	e3a02000 	mov	r2, #0, 0
    8a50:	e58d2004 	str	r2, [sp, #4]
    8a54:	e58d5000 	str	r5, [sp]
    8a58:	e3a02080 	mov	r2, #128, 0	; 0x80
    8a5c:	e28d1010 	add	r1, sp, #16, 0
    8a60:	e3a00008 	mov	r0, #8, 0
    8a64:	ebfffe79 	bl	8450 <emit>
    8a68:	e1a07000 	mov	r7, r0
    8a6c:	eaffffc4 	b	8984 <va_printk+0x31c>
    8a70:	e3a03000 	mov	r3, #0, 0
    8a74:	e5c63001 	strb	r3, [r6, #1]
    8a78:	e1a0200a 	mov	r2, sl
    8a7c:	e1a0100a 	mov	r1, sl
    8a80:	e59f008c 	ldr	r0, [pc, #140]	; 8b14 <va_printk+0x4ac>
    8a84:	ebfffe32 	bl	8354 <printk>
    8a88:	e59f3088 	ldr	r3, [pc, #136]	; 8b18 <va_printk+0x4b0>
    8a8c:	e5933000 	ldr	r3, [r3]
    8a90:	e59d0008 	ldr	r0, [sp, #8]
    8a94:	e12fff33 	blx	r3
    8a98:	e3a030e2 	mov	r3, #226, 0	; 0xe2
    8a9c:	e59f2044 	ldr	r2, [pc, #68]	; 8ae8 <va_printk+0x480>
    8aa0:	e59f1044 	ldr	r1, [pc, #68]	; 8aec <va_printk+0x484>
    8aa4:	e59f0070 	ldr	r0, [pc, #112]	; 8b1c <va_printk+0x4b4>
    8aa8:	ebfffe29 	bl	8354 <printk>
    8aac:	eb000023 	bl	8b40 <clean_reboot>
    8ab0:	e2877001 	add	r7, r7, #1, 0
    8ab4:	e4c43001 	strb	r3, [r4], #1
    8ab8:	e1540008 	cmp	r4, r8
    8abc:	2afffef7 	bcs	86a0 <va_printk+0x38>
    8ac0:	e5d73000 	ldrb	r3, [r7]
    8ac4:	e3530000 	cmp	r3, #0, 0
    8ac8:	1afffff8 	bne	8ab0 <va_printk+0x448>
    8acc:	eafffef3 	b	86a0 <va_printk+0x38>
    8ad0:	e3a03000 	mov	r3, #0, 0
    8ad4:	e4c43001 	strb	r3, [r4], #1
    8ad8:	e0440009 	sub	r0, r4, r9
    8adc:	e28ddf45 	add	sp, sp, #276	; 0x114
    8ae0:	e8bd8ff0 	pop	{r4, r5, r6, r7, r8, r9, sl, fp, pc}
    8ae4:	000092a8 	andeq	r9, r0, r8, lsr #5
    8ae8:	000093c0 	andeq	r9, r0, r0, asr #7
    8aec:	00009264 	andeq	r9, r0, r4, ror #4
    8af0:	00009128 	andeq	r9, r0, r8, lsr #2
    8af4:	000092b4 			; <UNDEFINED> instruction: 0x000092b4
    8af8:	000092b8 			; <UNDEFINED> instruction: 0x000092b8
    8afc:	000092bc 			; <UNDEFINED> instruction: 0x000092bc
    8b00:	000092c4 	andeq	r9, r0, r4, asr #5
    8b04:	00009278 	andeq	r9, r0, r8, ror r2
    8b08:	000092cc 	andeq	r9, r0, ip, asr #5
    8b0c:	00009308 	andeq	r9, r0, r8, lsl #6
    8b10:	00009330 	andeq	r9, r0, r0, lsr r3
    8b14:	00009358 	andeq	r9, r0, r8, asr r3
    8b18:	000099e0 	andeq	r9, r0, r0, ror #19
    8b1c:	00009388 	andeq	r9, r0, r8, lsl #7

00008b20 <enable_cache>:
    8b20:	ee113f10 	mrc	15, 0, r3, cr1, cr0, {0}
    8b24:	e3833b06 	orr	r3, r3, #6144	; 0x1800
    8b28:	ee013f10 	mcr	15, 0, r3, cr1, cr0, {0}
    8b2c:	e12fff1e 	bx	lr

00008b30 <disable_cache>:
    8b30:	ee113f10 	mrc	15, 0, r3, cr1, cr0, {0}
    8b34:	e3c33b06 	bic	r3, r3, #6144	; 0x1800
    8b38:	ee013f10 	mcr	15, 0, r3, cr1, cr0, {0}
    8b3c:	e12fff1e 	bx	lr

00008b40 <clean_reboot>:
    8b40:	e92d4010 	push	{r4, lr}
    8b44:	e59f3018 	ldr	r3, [pc, #24]	; 8b64 <clean_reboot+0x24>
    8b48:	e5933000 	ldr	r3, [r3]
    8b4c:	e59f0014 	ldr	r0, [pc, #20]	; 8b68 <clean_reboot+0x28>
    8b50:	e12fff33 	blx	r3
    8b54:	eb000110 	bl	8f9c <uart_flush_tx>
    8b58:	e3a0000a 	mov	r0, #10, 0
    8b5c:	eb00004d 	bl	8c98 <delay_ms>
    8b60:	eb000022 	bl	8bf0 <rpi_reboot>
    8b64:	000099e0 	andeq	r9, r0, r0, ror #19
    8b68:	000093cc 	andeq	r9, r0, ip, asr #7

00008b6c <_cstart>:
    8b6c:	e92d4010 	push	{r4, lr}
    8b70:	eb00000c 	bl	8ba8 <custom_loader>
    8b74:	e59f3024 	ldr	r3, [pc, #36]	; 8ba0 <_cstart+0x34>
    8b78:	e59f2024 	ldr	r2, [pc, #36]	; 8ba4 <_cstart+0x38>
    8b7c:	e1530002 	cmp	r3, r2
    8b80:	33a02000 	movcc	r2, #0, 0
    8b84:	34832004 	strcc	r2, [r3], #4
    8b88:	3afffffa 	bcc	8b78 <_cstart+0xc>
    8b8c:	eb0000a4 	bl	8e24 <uart_init>
    8b90:	e3a03001 	mov	r3, #1, 0
    8b94:	ee0f3f1c 	mcr	15, 0, r3, cr15, cr12, {0}
    8b98:	ebfffd26 	bl	8038 <notmain>
    8b9c:	ebffffe7 	bl	8b40 <clean_reboot>
    8ba0:	000099e8 	andeq	r9, r0, r8, ror #19
    8ba4:	00009de8 	andeq	r9, r0, r8, ror #27

00008ba8 <custom_loader>:
    8ba8:	e12fff1e 	bx	lr

00008bac <dev_barrier>:
    8bac:	ea000002 	b	8bbc <dsb>

00008bb0 <dmb>:
    8bb0:	e3a00000 	mov	r0, #0, 0
    8bb4:	ee070fba 	mcr	15, 0, r0, cr7, cr10, {5}
    8bb8:	e12fff1e 	bx	lr

00008bbc <dsb>:
    8bbc:	ee070f9a 	mcr	15, 0, r0, cr7, cr10, {4}
    8bc0:	e12fff1e 	bx	lr

00008bc4 <at_user_level>:
    8bc4:	e10f0000 	mrs	r0, CPSR
    8bc8:	e200001f 	and	r0, r0, #31, 0
    8bcc:	e3500010 	cmp	r0, #16, 0
    8bd0:	13a00000 	movne	r0, #0, 0
    8bd4:	03a00001 	moveq	r0, #1, 0
    8bd8:	e12fff1e 	bx	lr

00008bdc <set_user_level>:
    8bdc:	e10f3000 	mrs	r3, CPSR
    8be0:	e3c3301f 	bic	r3, r3, #31, 0
    8be4:	e3833010 	orr	r3, r3, #16, 0
    8be8:	e129f003 	msr	CPSR_fc, r3
    8bec:	e12fff1e 	bx	lr

00008bf0 <rpi_reboot>:
    8bf0:	e92d4010 	push	{r4, lr}
    8bf4:	ebfffff2 	bl	8bc4 <at_user_level>
    8bf8:	e3500000 	cmp	r0, #0, 0
    8bfc:	1a00000a 	bne	8c2c <rpi_reboot+0x3c>
    8c00:	eb00012d 	bl	90bc <reboot_callout>
    8c04:	eb0000e4 	bl	8f9c <uart_flush_tx>
    8c08:	e3a0000a 	mov	r0, #10, 0
    8c0c:	eb000021 	bl	8c98 <delay_ms>
    8c10:	e59f101c 	ldr	r1, [pc, #28]	; 8c34 <rpi_reboot+0x44>
    8c14:	e59f001c 	ldr	r0, [pc, #28]	; 8c38 <rpi_reboot+0x48>
    8c18:	ebfffd01 	bl	8024 <PUT32>
    8c1c:	e59f1018 	ldr	r1, [pc, #24]	; 8c3c <rpi_reboot+0x4c>
    8c20:	e59f0018 	ldr	r0, [pc, #24]	; 8c40 <rpi_reboot+0x50>
    8c24:	ebfffcfe 	bl	8024 <PUT32>
    8c28:	eafffffe 	b	8c28 <rpi_reboot+0x38>
    8c2c:	ebffffea 	bl	8bdc <set_user_level>
    8c30:	eafffff2 	b	8c00 <rpi_reboot+0x10>
    8c34:	5a000001 	bpl	8c40 <rpi_reboot+0x50>
    8c38:	20100024 	andscs	r0, r0, r4, lsr #32
    8c3c:	5a000020 	bpl	8cc4 <delay_sec+0x14>
    8c40:	2010001c 	andscs	r0, r0, ip, lsl r0

00008c44 <timer_get_usec_raw>:
    8c44:	e92d4010 	push	{r4, lr}
    8c48:	e59f0004 	ldr	r0, [pc, #4]	; 8c54 <timer_get_usec_raw+0x10>
    8c4c:	ebfffcf6 	bl	802c <GET32>
    8c50:	e8bd8010 	pop	{r4, pc}
    8c54:	20003004 	andcs	r3, r0, r4

00008c58 <timer_get_usec>:
    8c58:	e92d4010 	push	{r4, lr}
    8c5c:	ebffffd2 	bl	8bac <dev_barrier>
    8c60:	ebfffff7 	bl	8c44 <timer_get_usec_raw>
    8c64:	e1a04000 	mov	r4, r0
    8c68:	ebffffcf 	bl	8bac <dev_barrier>
    8c6c:	e1a00004 	mov	r0, r4
    8c70:	e8bd8010 	pop	{r4, pc}

00008c74 <delay_us>:
    8c74:	e92d4070 	push	{r4, r5, r6, lr}
    8c78:	e1a05000 	mov	r5, r0
    8c7c:	ebfffff5 	bl	8c58 <timer_get_usec>
    8c80:	e1a04000 	mov	r4, r0
    8c84:	ebfffff3 	bl	8c58 <timer_get_usec>
    8c88:	e0400004 	sub	r0, r0, r4
    8c8c:	e1500005 	cmp	r0, r5
    8c90:	3afffffb 	bcc	8c84 <delay_us+0x10>
    8c94:	e8bd8070 	pop	{r4, r5, r6, pc}

00008c98 <delay_ms>:
    8c98:	e92d4010 	push	{r4, lr}
    8c9c:	e0603280 	rsb	r3, r0, r0, lsl #5
    8ca0:	e0800103 	add	r0, r0, r3, lsl #2
    8ca4:	e1a00180 	lsl	r0, r0, #3
    8ca8:	ebfffff1 	bl	8c74 <delay_us>
    8cac:	e8bd8010 	pop	{r4, pc}

00008cb0 <delay_sec>:
    8cb0:	e92d4010 	push	{r4, lr}
    8cb4:	e0603280 	rsb	r3, r0, r0, lsl #5
    8cb8:	e0800103 	add	r0, r0, r3, lsl #2
    8cbc:	e1a00180 	lsl	r0, r0, #3
    8cc0:	ebfffff4 	bl	8c98 <delay_ms>
    8cc4:	e8bd8010 	pop	{r4, pc}

00008cc8 <gpio_set_function>:
    8cc8:	e350001f 	cmp	r0, #31, 0
    8ccc:	812fff1e 	bxhi	lr
    8cd0:	e92d4070 	push	{r4, r5, r6, lr}
    8cd4:	e1a05001 	mov	r5, r1
    8cd8:	e3d13007 	bics	r3, r1, #7, 0
    8cdc:	18bd8070 	popne	{r4, r5, r6, pc}
    8ce0:	e59f3040 	ldr	r3, [pc, #64]	; 8d28 <gpio_set_function+0x60>
    8ce4:	e0832093 	umull	r2, r3, r3, r0
    8ce8:	e1a031a3 	lsr	r3, r3, #3
    8cec:	e1a02003 	mov	r2, r3
    8cf0:	e0833103 	add	r3, r3, r3, lsl #2
    8cf4:	e0403083 	sub	r3, r0, r3, lsl #1
    8cf8:	e0834083 	add	r4, r3, r3, lsl #1
    8cfc:	e2820302 	add	r0, r2, #134217728	; 0x8000000
    8d00:	e2800702 	add	r0, r0, #524288	; 0x80000
    8d04:	e1a06100 	lsl	r6, r0, #2
    8d08:	e1a00006 	mov	r0, r6
    8d0c:	ebfffcc6 	bl	802c <GET32>
    8d10:	e3a01007 	mov	r1, #7, 0
    8d14:	e1c01411 	bic	r1, r0, r1, lsl r4
    8d18:	e1811415 	orr	r1, r1, r5, lsl r4
    8d1c:	e1a00006 	mov	r0, r6
    8d20:	ebfffcbf 	bl	8024 <PUT32>
    8d24:	e8bd8070 	pop	{r4, r5, r6, pc}
    8d28:	cccccccd 	stclgt	12, cr12, [ip], {205}	; 0xcd

00008d2c <gpio_set_output>:
    8d2c:	e92d4010 	push	{r4, lr}
    8d30:	e3a01001 	mov	r1, #1, 0
    8d34:	ebffffe3 	bl	8cc8 <gpio_set_function>
    8d38:	e8bd8010 	pop	{r4, pc}

00008d3c <gpio_set_on>:
    8d3c:	e350001f 	cmp	r0, #31, 0
    8d40:	812fff1e 	bxhi	lr
    8d44:	e92d4010 	push	{r4, lr}
    8d48:	e3a01001 	mov	r1, #1, 0
    8d4c:	e1a01011 	lsl	r1, r1, r0
    8d50:	e59f0004 	ldr	r0, [pc, #4]	; 8d5c <gpio_set_on+0x20>
    8d54:	ebfffcb2 	bl	8024 <PUT32>
    8d58:	e8bd8010 	pop	{r4, pc}
    8d5c:	2020001c 	eorcs	r0, r0, ip, lsl r0

00008d60 <gpio_set_off>:
    8d60:	e350001f 	cmp	r0, #31, 0
    8d64:	812fff1e 	bxhi	lr
    8d68:	e92d4010 	push	{r4, lr}
    8d6c:	e3a01001 	mov	r1, #1, 0
    8d70:	e1a01011 	lsl	r1, r1, r0
    8d74:	e59f0004 	ldr	r0, [pc, #4]	; 8d80 <gpio_set_off+0x20>
    8d78:	ebfffca9 	bl	8024 <PUT32>
    8d7c:	e8bd8010 	pop	{r4, pc}
    8d80:	20200028 	eorcs	r0, r0, r8, lsr #32

00008d84 <gpio_set_input>:
    8d84:	e92d4010 	push	{r4, lr}
    8d88:	e3a01000 	mov	r1, #0, 0
    8d8c:	ebffffcd 	bl	8cc8 <gpio_set_function>
    8d90:	e8bd8010 	pop	{r4, pc}

00008d94 <gpio_write>:
    8d94:	e92d4010 	push	{r4, lr}
    8d98:	e3510000 	cmp	r1, #0, 0
    8d9c:	0a000001 	beq	8da8 <gpio_write+0x14>
    8da0:	ebffffe5 	bl	8d3c <gpio_set_on>
    8da4:	e8bd8010 	pop	{r4, pc}
    8da8:	ebffffec 	bl	8d60 <gpio_set_off>
    8dac:	e8bd8010 	pop	{r4, pc}

00008db0 <gpio_read>:
    8db0:	e350001f 	cmp	r0, #31, 0
    8db4:	8a000007 	bhi	8dd8 <gpio_read+0x28>
    8db8:	e92d4010 	push	{r4, lr}
    8dbc:	e200401f 	and	r4, r0, #31, 0
    8dc0:	e59f3018 	ldr	r3, [pc, #24]	; 8de0 <gpio_read+0x30>
    8dc4:	e08302a0 	add	r0, r3, r0, lsr #5
    8dc8:	ebfffc97 	bl	802c <GET32>
    8dcc:	e1a00430 	lsr	r0, r0, r4
    8dd0:	e2000001 	and	r0, r0, #1, 0
    8dd4:	e8bd8010 	pop	{r4, pc}
    8dd8:	e3e00000 	mvn	r0, #0, 0
    8ddc:	e12fff1e 	bx	lr
    8de0:	20200034 	eorcs	r0, r0, r4, lsr r0

00008de4 <and_in32>:
    8de4:	e92d4070 	push	{r4, r5, r6, lr}
    8de8:	e1a04000 	mov	r4, r0
    8dec:	e1a05001 	mov	r5, r1
    8df0:	ebfffc8d 	bl	802c <GET32>
    8df4:	e0001005 	and	r1, r0, r5
    8df8:	e1a00004 	mov	r0, r4
    8dfc:	ebfffc88 	bl	8024 <PUT32>
    8e00:	e8bd8070 	pop	{r4, r5, r6, pc}

00008e04 <or_in32>:
    8e04:	e92d4070 	push	{r4, r5, r6, lr}
    8e08:	e1a04000 	mov	r4, r0
    8e0c:	e1a05001 	mov	r5, r1
    8e10:	ebfffc85 	bl	802c <GET32>
    8e14:	e1801005 	orr	r1, r0, r5
    8e18:	e1a00004 	mov	r0, r4
    8e1c:	ebfffc80 	bl	8024 <PUT32>
    8e20:	e8bd8070 	pop	{r4, r5, r6, pc}

00008e24 <uart_init>:
    8e24:	e92d4010 	push	{r4, lr}
    8e28:	e3a01002 	mov	r1, #2, 0
    8e2c:	e3a0000e 	mov	r0, #14, 0
    8e30:	ebffffa4 	bl	8cc8 <gpio_set_function>
    8e34:	e3a01002 	mov	r1, #2, 0
    8e38:	e3a0000f 	mov	r0, #15, 0
    8e3c:	ebffffa1 	bl	8cc8 <gpio_set_function>
    8e40:	ebffff59 	bl	8bac <dev_barrier>
    8e44:	e3a01001 	mov	r1, #1, 0
    8e48:	e59f0064 	ldr	r0, [pc, #100]	; 8eb4 <uart_init+0x90>
    8e4c:	ebffffec 	bl	8e04 <or_in32>
    8e50:	ebffff55 	bl	8bac <dev_barrier>
    8e54:	e59f405c 	ldr	r4, [pc, #92]	; 8eb8 <uart_init+0x94>
    8e58:	e3a01000 	mov	r1, #0, 0
    8e5c:	e1a00004 	mov	r0, r4
    8e60:	ebfffc6f 	bl	8024 <PUT32>
    8e64:	e3a01000 	mov	r1, #0, 0
    8e68:	e59f004c 	ldr	r0, [pc, #76]	; 8ebc <uart_init+0x98>
    8e6c:	ebfffc6c 	bl	8024 <PUT32>
    8e70:	e3a01003 	mov	r1, #3, 0
    8e74:	e59f0044 	ldr	r0, [pc, #68]	; 8ec0 <uart_init+0x9c>
    8e78:	ebfffc69 	bl	8024 <PUT32>
    8e7c:	e3a01000 	mov	r1, #0, 0
    8e80:	e59f003c 	ldr	r0, [pc, #60]	; 8ec4 <uart_init+0xa0>
    8e84:	ebfffc66 	bl	8024 <PUT32>
    8e88:	e3a010c7 	mov	r1, #199, 0	; 0xc7
    8e8c:	e59f0034 	ldr	r0, [pc, #52]	; 8ec8 <uart_init+0xa4>
    8e90:	ebfffc63 	bl	8024 <PUT32>
    8e94:	e59f1030 	ldr	r1, [pc, #48]	; 8ecc <uart_init+0xa8>
    8e98:	e59f0030 	ldr	r0, [pc, #48]	; 8ed0 <uart_init+0xac>
    8e9c:	ebfffc60 	bl	8024 <PUT32>
    8ea0:	e3a01003 	mov	r1, #3, 0
    8ea4:	e1a00004 	mov	r0, r4
    8ea8:	ebfffc5d 	bl	8024 <PUT32>
    8eac:	ebffff3e 	bl	8bac <dev_barrier>
    8eb0:	e8bd8010 	pop	{r4, pc}
    8eb4:	20215004 	eorcs	r5, r1, r4
    8eb8:	20215060 	eorcs	r5, r1, r0, rrx
    8ebc:	20215044 	eorcs	r5, r1, r4, asr #32
    8ec0:	2021504c 	eorcs	r5, r1, ip, asr #32
    8ec4:	20215050 	eorcs	r5, r1, r0, asr r0
    8ec8:	20215048 	eorcs	r5, r1, r8, asr #32
    8ecc:	0000010e 	andeq	r0, r0, lr, lsl #2
    8ed0:	20215068 	eorcs	r5, r1, r8, rrx

00008ed4 <uart_can_getc>:
    8ed4:	e92d4010 	push	{r4, lr}
    8ed8:	e59f0008 	ldr	r0, [pc, #8]	; 8ee8 <uart_can_getc+0x14>
    8edc:	ebfffc52 	bl	802c <GET32>
    8ee0:	e2000001 	and	r0, r0, #1, 0
    8ee4:	e8bd8010 	pop	{r4, pc}
    8ee8:	20215064 	eorcs	r5, r1, r4, rrx

00008eec <uart_can_putc>:
    8eec:	e92d4010 	push	{r4, lr}
    8ef0:	e59f0010 	ldr	r0, [pc, #16]	; 8f08 <uart_can_putc+0x1c>
    8ef4:	ebfffc4c 	bl	802c <GET32>
    8ef8:	e3100002 	tst	r0, #2, 0
    8efc:	13a00001 	movne	r0, #1, 0
    8f00:	03a00000 	moveq	r0, #0, 0
    8f04:	e8bd8010 	pop	{r4, pc}
    8f08:	20215064 	eorcs	r5, r1, r4, rrx

00008f0c <uart_getc>:
    8f0c:	e92d4010 	push	{r4, lr}
    8f10:	ebffff25 	bl	8bac <dev_barrier>
    8f14:	ebffffee 	bl	8ed4 <uart_can_getc>
    8f18:	e3500000 	cmp	r0, #0, 0
    8f1c:	0afffffc 	beq	8f14 <uart_getc+0x8>
    8f20:	e59f0010 	ldr	r0, [pc, #16]	; 8f38 <uart_getc+0x2c>
    8f24:	ebfffc40 	bl	802c <GET32>
    8f28:	e6ef4070 	uxtb	r4, r0
    8f2c:	ebffff1e 	bl	8bac <dev_barrier>
    8f30:	e1a00004 	mov	r0, r4
    8f34:	e8bd8010 	pop	{r4, pc}
    8f38:	20215040 	eorcs	r5, r1, r0, asr #32

00008f3c <uart_putc>:
    8f3c:	e92d4010 	push	{r4, lr}
    8f40:	e1a04000 	mov	r4, r0
    8f44:	ebffff18 	bl	8bac <dev_barrier>
    8f48:	ebffffe7 	bl	8eec <uart_can_putc>
    8f4c:	e3500000 	cmp	r0, #0, 0
    8f50:	0afffffc 	beq	8f48 <uart_putc+0xc>
    8f54:	e6ef1074 	uxtb	r1, r4
    8f58:	e59f0008 	ldr	r0, [pc, #8]	; 8f68 <uart_putc+0x2c>
    8f5c:	ebfffc30 	bl	8024 <PUT32>
    8f60:	ebffff11 	bl	8bac <dev_barrier>
    8f64:	e8bd8010 	pop	{r4, pc}
    8f68:	20215040 	eorcs	r5, r1, r0, asr #32

00008f6c <uart_has_data>:
    8f6c:	e92d4010 	push	{r4, lr}
    8f70:	ebffff0d 	bl	8bac <dev_barrier>
    8f74:	ebffffd6 	bl	8ed4 <uart_can_getc>
    8f78:	e8bd8010 	pop	{r4, pc}

00008f7c <uart_tx_is_empty>:
    8f7c:	e92d4010 	push	{r4, lr}
    8f80:	ebffff09 	bl	8bac <dev_barrier>
    8f84:	e59f000c 	ldr	r0, [pc, #12]	; 8f98 <uart_tx_is_empty+0x1c>
    8f88:	ebfffc27 	bl	802c <GET32>
    8f8c:	e1a004a0 	lsr	r0, r0, #9
    8f90:	e2000001 	and	r0, r0, #1, 0
    8f94:	e8bd8010 	pop	{r4, pc}
    8f98:	20215064 	eorcs	r5, r1, r4, rrx

00008f9c <uart_flush_tx>:
    8f9c:	e92d4010 	push	{r4, lr}
    8fa0:	ebfffff5 	bl	8f7c <uart_tx_is_empty>
    8fa4:	e3500000 	cmp	r0, #0, 0
    8fa8:	0afffffc 	beq	8fa0 <uart_flush_tx+0x4>
    8fac:	e8bd8010 	pop	{r4, pc}

00008fb0 <uart_disable>:
    8fb0:	e92d4010 	push	{r4, lr}
    8fb4:	ebfffff8 	bl	8f9c <uart_flush_tx>
    8fb8:	ebfffefb 	bl	8bac <dev_barrier>
    8fbc:	e3e01001 	mvn	r1, #1, 0
    8fc0:	e59f0008 	ldr	r0, [pc, #8]	; 8fd0 <uart_disable+0x20>
    8fc4:	ebffff86 	bl	8de4 <and_in32>
    8fc8:	ebfffef7 	bl	8bac <dev_barrier>
    8fcc:	e8bd8010 	pop	{r4, pc}
    8fd0:	20215004 	eorcs	r5, r1, r4

00008fd4 <internal_putchar>:
    8fd4:	e92d4010 	push	{r4, lr}
    8fd8:	e1a04000 	mov	r4, r0
    8fdc:	ebffffd6 	bl	8f3c <uart_putc>
    8fe0:	e1a00004 	mov	r0, r4
    8fe4:	e8bd8010 	pop	{r4, pc}

00008fe8 <rpi_reset_putc>:
    8fe8:	e59f3008 	ldr	r3, [pc, #8]	; 8ff8 <rpi_reset_putc+0x10>
    8fec:	e59f2008 	ldr	r2, [pc, #8]	; 8ffc <rpi_reset_putc+0x14>
    8ff0:	e5832000 	str	r2, [r3]
    8ff4:	e12fff1e 	bx	lr
    8ff8:	000099e4 	andeq	r9, r0, r4, ror #19
    8ffc:	00008fd4 	ldrdeq	r8, [r0], -r4

00009000 <rpi_set_putc>:
    9000:	e59f3004 	ldr	r3, [pc, #4]	; 900c <rpi_set_putc+0xc>
    9004:	e5830000 	str	r0, [r3]
    9008:	e12fff1e 	bx	lr
    900c:	000099e4 	andeq	r9, r0, r4, ror #19

00009010 <strcat>:
    9010:	e1a02000 	mov	r2, r0
    9014:	e1a03002 	mov	r3, r2
    9018:	e2822001 	add	r2, r2, #1, 0
    901c:	e5d3c000 	ldrb	ip, [r3]
    9020:	e35c0000 	cmp	ip, #0, 0
    9024:	1afffffa 	bne	9014 <strcat+0x4>
    9028:	e2433001 	sub	r3, r3, #1, 0
    902c:	e5d12000 	ldrb	r2, [r1]
    9030:	e2811001 	add	r1, r1, #1, 0
    9034:	e5e32001 	strb	r2, [r3, #1]!
    9038:	e3520000 	cmp	r2, #0, 0
    903c:	1afffffa 	bne	902c <strcat+0x1c>
    9040:	e12fff1e 	bx	lr

00009044 <strcmp>:
    9044:	e5d03000 	ldrb	r3, [r0]
    9048:	e3530000 	cmp	r3, #0, 0
    904c:	0a000004 	beq	9064 <strcmp+0x20>
    9050:	e5d12000 	ldrb	r2, [r1]
    9054:	e1530002 	cmp	r3, r2
    9058:	02800001 	addeq	r0, r0, #1, 0
    905c:	02811001 	addeq	r1, r1, #1, 0
    9060:	0afffff7 	beq	9044 <strcmp>
    9064:	e5d10000 	ldrb	r0, [r1]
    9068:	e0430000 	sub	r0, r3, r0
    906c:	e12fff1e 	bx	lr

00009070 <strcpy>:
    9070:	e1a0c000 	mov	ip, r0
    9074:	e5d12000 	ldrb	r2, [r1]
    9078:	e2811001 	add	r1, r1, #1, 0
    907c:	e5cc2000 	strb	r2, [ip]
    9080:	e28cc001 	add	ip, ip, #1, 0
    9084:	e3520000 	cmp	r2, #0, 0
    9088:	1afffff9 	bne	9074 <strcpy+0x4>
    908c:	e12fff1e 	bx	lr

00009090 <strncmp>:
    9090:	e3520000 	cmp	r2, #0, 0
    9094:	e2422001 	sub	r2, r2, #1, 0
    9098:	0a000005 	beq	90b4 <strncmp+0x24>
    909c:	e4d03001 	ldrb	r3, [r0], #1
    90a0:	e4d1c001 	ldrb	ip, [r1], #1
    90a4:	e153000c 	cmp	r3, ip
    90a8:	0afffff8 	beq	9090 <strncmp>
    90ac:	e043000c 	sub	r0, r3, ip
    90b0:	e12fff1e 	bx	lr
    90b4:	e3a00000 	mov	r0, #0, 0
    90b8:	e12fff1e 	bx	lr

000090bc <reboot_callout>:
    90bc:	e12fff1e 	bx	lr

Disassembly of section .rodata:

000090c0 <__FUNCTION__.3985-0xc0>:
    90c0:	25207825 	strcs	r7, [r0, #-2085]!	; 0xfffff7db
    90c4:	00000a64 	andeq	r0, r0, r4, ror #20
    90c8:	656e6f64 	strbvs	r6, [lr, #-3940]!	; 0xfffff09c
    90cc:	00000a21 	andeq	r0, r0, r1, lsr #20
    90d0:	6573552f 	ldrbvs	r5, [r3, #-1327]!	; 0xfffffad1
    90d4:	6a2f7372 	bvs	be5ea4 <__bss_end__+0xbdc0bc>
    90d8:	65696d61 	strbvs	r6, [r9, #-3425]!	; 0xfffff29f
    90dc:	636f442f 	cmnvs	pc, #788529152	; 0x2f000000
    90e0:	6e656d75 	mcrvs	13, 3, r6, cr5, cr5, {3}
    90e4:	432f7374 			; <UNDEFINED> instruction: 0x432f7374
    90e8:	30343153 	eorscc	r3, r4, r3, asr r1
    90ec:	73632f45 	cmnvc	r3, #276	; 0x114
    90f0:	45303431 	ldrmi	r3, [r0, #-1073]!	; 0xfffffbcf
    90f4:	6e69662d 	cdpvs	6, 6, cr6, cr9, cr13, {1}
    90f8:	702d6c61 	eorvc	r6, sp, r1, ror #24
    90fc:	656a6f72 	strbvs	r6, [sl, #-3954]!	; 0xfffff08e
    9100:	6c2f7463 	cfstrsvs	mvf7, [pc], #-396	; 8f7c <uart_tx_is_empty>
    9104:	2d736269 	lfmcs	f6, 2, [r3, #-420]!	; 0xfffffe5c
    9108:	6c303432 	cfldrsvs	mvf3, [r0], #-200	; 0xffffff38
    910c:	696c2f78 	stmdbvs	ip!, {r3, r4, r5, r6, r8, r9, sl, fp, sp}^
    9110:	2f697062 	svccs	0x00697062
    9114:	6362696c 	cmnvs	r2, #108, 18	; 0x1b0000
    9118:	7469622f 	strbtvc	r6, [r9], #-559	; 0xfffffdd1
    911c:	7075732d 	rsbsvc	r7, r5, sp, lsr #6
    9120:	74726f70 	ldrbtvc	r6, [r2], #-3952	; 0xfffff090
    9124:	0000682e 	andeq	r6, r0, lr, lsr #16
    9128:	494e4150 	stmdbmi	lr, {r4, r6, r8, lr}^
    912c:	73253a43 			; <UNDEFINED> instruction: 0x73253a43
    9130:	3a73253a 	bcc	1cd2620 <__bss_end__+0x1cc8838>
    9134:	253a6425 	ldrcs	r6, [sl, #-1061]!	; 0xfffffbdb
    9138:	00000a73 	andeq	r0, r0, r3, ror sl
    913c:	74696228 	strbtvc	r6, [r9], #-552	; 0xfffffdd8
    9140:	616d5f73 	smcvs	54771	; 0xd5f3
    9144:	6e286b73 	vmovvs.16	d8[3], r6
    9148:	20262029 	eorcs	r2, r6, r9, lsr #32
    914c:	3d202976 			; <UNDEFINED> instruction: 0x3d202976
    9150:	0076203d 	rsbseq	r2, r6, sp, lsr r0
    9154:	2e733269 	cdpcs	2, 7, cr3, cr3, cr9, {3}
    9158:	00000063 	andeq	r0, r0, r3, rrx
    915c:	5f746962 	svcpl	0x00746962
    9160:	6f5f7369 	svcvs	0x005f7369
    9164:	47286666 	strmi	r6, [r8, -r6, ror #12]!
    9168:	32335445 	eorscc	r5, r3, #1157627904	; 0x45000000
    916c:	5f534328 	svcpl	0x00534328
    9170:	202c2941 	eorcs	r2, ip, r1, asr #18
    9174:	5f533249 	svcpl	0x00533249
    9178:	455f5343 	ldrbmi	r5, [pc, #-835]	; 8e3d <uart_init+0x19>
    917c:	0000294e 	andeq	r2, r0, lr, asr #18

00009180 <__FUNCTION__.3985>:
    9180:	73746962 	cmnvc	r4, #1605632	; 0x188000
    9184:	7465735f 	strbtvc	r7, [r5], #-863	; 0xfffffca1
    9188:	00000000 	andeq	r0, r0, r0

0000918c <__FUNCTION__.4099>:
    918c:	5f733269 	svcpl	0x00733269
    9190:	74696e69 	strbtvc	r6, [r9], #-3689	; 0xfffff197
    9194:	00000000 	andeq	r0, r0, r0
    9198:	2e746666 	cdpcs	6, 7, cr6, cr4, cr6, {3}
    919c:	00000063 	andeq	r0, r0, r3, rrx
    91a0:	494e4150 	stmdbmi	lr, {r4, r6, r8, lr}^
    91a4:	73253a43 			; <UNDEFINED> instruction: 0x73253a43
    91a8:	3a73253a 	bcc	1cd2698 <__bss_end__+0x1cc88b0>
    91ac:	663a6425 	ldrtvs	r6, [sl], -r5, lsr #8
    91b0:	665f7466 	ldrbvs	r7, [pc], -r6, ror #8
    91b4:	64657869 	strbtvs	r7, [r5], #-2153	; 0xfffff797
    91b8:	6666635f 			; <UNDEFINED> instruction: 0x6666635f
    91bc:	46203a74 			; <UNDEFINED> instruction: 0x46203a74
    91c0:	74205446 	strtvc	r5, [r0], #-1094	; 0xfffffbba
    91c4:	6c206f6f 	stcvs	15, cr6, [r0], #-444	; 0xfffffe44
    91c8:	0a676e6f 	beq	19e4b8c <__bss_end__+0x19dada4>
    91cc:	00000000 	andeq	r0, r0, r0
    91d0:	2e746666 	cdpcs	6, 7, cr6, cr4, cr6, {3}
    91d4:	00000068 	andeq	r0, r0, r8, rrx
    91d8:	494e4150 	stmdbmi	lr, {r4, r6, r8, lr}^
    91dc:	73253a43 			; <UNDEFINED> instruction: 0x73253a43
    91e0:	3a73253a 	bcc	1cd26d0 <__bss_end__+0x1cc88e8>
    91e4:	693a6425 	ldmdbvs	sl!, {r0, r2, r5, sl, sp, lr}
    91e8:	656c706d 	strbvs	r7, [ip, #-109]!	; 0xffffff93
    91ec:	746e656d 	strbtvc	r6, [lr], #-1389	; 0xfffffa93
    91f0:	69687420 	stmdbvs	r8!, {r5, sl, ip, sp, lr}^
    91f4:	75662073 	strbvc	r2, [r6, #-115]!	; 0xffffff8d
    91f8:	6974636e 	ldmdbvs	r4!, {r1, r2, r3, r5, r6, r8, r9, sp, lr}^
    91fc:	0a216e6f 	beq	864bc0 <__bss_end__+0x85add8>
    9200:	0000000a 	andeq	r0, r0, sl
    9204:	494e4150 	stmdbmi	lr, {r4, r6, r8, lr}^
    9208:	73253a43 			; <UNDEFINED> instruction: 0x73253a43
    920c:	3a73253a 	bcc	1cd26fc <__bss_end__+0x1cc8914>
    9210:	663a6425 	ldrtvs	r6, [sl], -r5, lsr #8
    9214:	665f7466 	ldrbvs	r7, [pc], -r6, ror #8
    9218:	64657869 	strbtvs	r7, [r5], #-2153	; 0xfffff797
    921c:	6666725f 			; <UNDEFINED> instruction: 0x6666725f
    9220:	73203a74 			; <UNDEFINED> instruction: 0x73203a74
    9224:	736d6565 	cmnvc	sp, #423624704	; 0x19400000
    9228:	6f726220 	svcvs	0x00726220
    922c:	0a6e656b 	beq	1ba27e0 <__bss_end__+0x1b989f8>
    9230:	00000000 	andeq	r0, r0, r0

00009234 <__FUNCTION__.3970>:
    9234:	5f746666 	svcpl	0x00746666
    9238:	65786966 	ldrbvs	r6, [r8, #-2406]!	; 0xfffff69a
    923c:	66635f64 	strbtvs	r5, [r3], -r4, ror #30
    9240:	00007466 	andeq	r7, r0, r6, ror #8

00009244 <__FUNCTION__.3942>:
    9244:	5f746666 	svcpl	0x00746666
    9248:	65786966 	ldrbvs	r6, [r8, #-2406]!	; 0xfffff69a
    924c:	756d5f64 	strbvc	r5, [sp, #-3940]!	; 0xfffff09c
    9250:	0000006c 	andeq	r0, r0, ip, rrx

00009254 <__FUNCTION__.4015>:
    9254:	5f746666 	svcpl	0x00746666
    9258:	65786966 	ldrbvs	r6, [r8, #-2406]!	; 0xfffff69a
    925c:	66725f64 	ldrbtvs	r5, [r2], -r4, ror #30
    9260:	00007466 	andeq	r7, r0, r6, ror #8
    9264:	696c2f2e 	stmdbvs	ip!, {r1, r2, r3, r5, r8, r9, sl, fp, sp}^
    9268:	762f6362 	strtvc	r6, [pc], -r2, ror #6
    926c:	72702d61 	rsbsvc	r2, r0, #6208	; 0x1840
    9270:	6b746e69 	blvs	1d24c1c <__bss_end__+0x1d1ae34>
    9274:	0000632e 	andeq	r6, r0, lr, lsr #6
    9278:	00000030 	andeq	r0, r0, r0, lsr r0
    927c:	33323130 	teqcc	r2, #12
    9280:	37363534 			; <UNDEFINED> instruction: 0x37363534
    9284:	00003938 	andeq	r3, r0, r8, lsr r9
    9288:	33323130 	teqcc	r2, #12
    928c:	37363534 			; <UNDEFINED> instruction: 0x37363534
    9290:	62613938 	rsbvs	r3, r1, #56, 18	; 0xe0000
    9294:	66656463 	strbtvs	r6, [r5], -r3, ror #8
    9298:	00000000 	andeq	r0, r0, r0
    929c:	00003130 	andeq	r3, r0, r0, lsr r1
    92a0:	63747570 	cmnvs	r4, #112, 10	; 0x1c000000
    92a4:	0070665f 	rsbseq	r6, r0, pc, asr r6
    92a8:	74646977 	strbtvc	r6, [r4], #-2423	; 0xfffff689
    92ac:	203c2068 	eorscs	r2, ip, r8, rrx
    92b0:	00003233 	andeq	r3, r0, r3, lsr r2
    92b4:	00786c6c 	rsbseq	r6, r8, ip, ror #24
    92b8:	00646c6c 	rsbeq	r6, r4, ip, ror #24
    92bc:	253d3078 	ldrcs	r3, [sp, #-120]!	; 0xffffff88
    92c0:	00000a78 	andeq	r0, r0, r8, ror sl
    92c4:	253d3178 	ldrcs	r3, [sp, #-376]!	; 0xfffffe88
    92c8:	00000a78 	andeq	r0, r0, r8, ror sl
    92cc:	6e727473 	mrcvs	4, 3, r7, cr2, cr3, {3}
    92d0:	28706d63 	ldmdacs	r0!, {r0, r1, r5, r6, r8, sl, fp, sp, lr}^
    92d4:	202c7974 	eorcs	r7, ip, r4, ror r9
    92d8:	786c6c22 	stmdavc	ip!, {r1, r5, sl, fp, sp, lr}^
    92dc:	33202c22 			; <UNDEFINED> instruction: 0x33202c22
    92e0:	3d3d2029 	ldccc	0, cr2, [sp, #-164]!	; 0xffffff5c
    92e4:	7c203020 	stcvc	0, cr3, [r0], #-128	; 0xffffff80
    92e8:	7473207c 	ldrbtvc	r2, [r3], #-124	; 0xffffff84
    92ec:	6d636e72 	stclvs	14, cr6, [r3, #-456]!	; 0xfffffe38
    92f0:	79742870 	ldmdbvc	r4!, {r4, r5, r6, fp, sp}^
    92f4:	6c22202c 	stcvs	0, cr2, [r2], #-176	; 0xffffff50
    92f8:	2c22646c 	cfstrscs	mvf6, [r2], #-432	; 0xfffffe50
    92fc:	20293320 	eorcs	r3, r9, r0, lsr #6
    9300:	30203d3d 	eorcc	r3, r0, sp, lsr sp
    9304:	00000000 	andeq	r0, r0, r0
    9308:	494e4150 	stmdbmi	lr, {r4, r6, r8, lr}^
    930c:	73253a43 			; <UNDEFINED> instruction: 0x73253a43
    9310:	3a73253a 	bcc	1cd2800 <__bss_end__+0x1cc8a18>
    9314:	693a6425 	ldmdbvs	sl!, {r0, r2, r5, sl, sp, lr}
    9318:	736f706d 	cmnvc	pc, #109, 0	; 0x6d
    931c:	6c626973 			; <UNDEFINED> instruction: 0x6c626973
    9320:	66203a65 	strtvs	r3, [r0], -r5, ror #20
    9324:	3c3d746d 	cfldrscc	mvf7, [sp], #-436	; 0xfffffe4c
    9328:	0a3e7325 	beq	fa5fc4 <__bss_end__+0xf9c1dc>
    932c:	0000000a 	andeq	r0, r0, sl
    9330:	494e4150 	stmdbmi	lr, {r4, r6, r8, lr}^
    9334:	73253a43 			; <UNDEFINED> instruction: 0x73253a43
    9338:	3a73253a 	bcc	1cd2828 <__bss_end__+0x1cc8a40>
    933c:	663a6425 	ldrtvs	r6, [sl], -r5, lsr #8
    9340:	74616f6c 	strbtvc	r6, [r1], #-3948	; 0xfffff094
    9344:	746f6e20 	strbtvc	r6, [pc], #-3616	; 934c <__FUNCTION__.4015+0xf8>
    9348:	616e6520 	cmnvs	lr, r0, lsr #10
    934c:	64656c62 	strbtvs	r6, [r5], #-3170	; 0xfffff39e
    9350:	0a212121 	beq	8517dc <__bss_end__+0x8479f4>
    9354:	00000000 	andeq	r0, r0, r0
    9358:	6e697270 	mcrvs	2, 3, r7, cr9, cr0, {3}
    935c:	203a6b74 	eorscs	r6, sl, r4, ror fp
    9360:	20746f6e 	rsbscs	r6, r4, lr, ror #30
    9364:	646e6168 	strbtvs	r6, [lr], #-360	; 0xfffffe98
    9368:	676e696c 	strbvs	r6, [lr, -ip, ror #18]!
    936c:	65707320 	ldrbvs	r7, [r0, #-800]!	; 0xfffffce0
    9370:	69666963 	stmdbvs	r6!, {r0, r1, r5, r6, r8, fp, sp, lr}^
    9374:	27207265 	strcs	r7, [r0, -r5, ror #4]!
    9378:	20276325 	eorcs	r6, r7, r5, lsr #6
    937c:	63736128 	cmnvs	r3, #10
    9380:	253d6969 	ldrcs	r6, [sp, #-2409]!	; 0xfffff697
    9384:	000a2964 	andeq	r2, sl, r4, ror #18
    9388:	494e4150 	stmdbmi	lr, {r4, r6, r8, lr}^
    938c:	73253a43 			; <UNDEFINED> instruction: 0x73253a43
    9390:	3a73253a 	bcc	1cd2880 <__bss_end__+0x1cc8a98>
    9394:	703a6425 	eorsvc	r6, sl, r5, lsr #8
    9398:	746e6972 	strbtvc	r6, [lr], #-2418	; 0xfffff68e
    939c:	7265206b 	rsbvc	r2, r5, #107, 0	; 0x6b
    93a0:	0a726f72 	beq	1ca5170 <__bss_end__+0x1c9b388>
    93a4:	0000000a 	andeq	r0, r0, sl

000093a8 <__FUNCTION__.4008>:
    93a8:	74696d65 	strbtvc	r6, [r9], #-3429	; 0xfffff29b
    93ac:	00000000 	andeq	r0, r0, r0

000093b0 <__FUNCTION__.3956>:
    93b0:	5f697072 	svcpl	0x00697072
    93b4:	5f746573 	svcpl	0x00746573
    93b8:	7074756f 	rsbsvc	r7, r4, pc, ror #10
    93bc:	00007475 	andeq	r7, r0, r5, ror r4

000093c0 <__FUNCTION__.4034>:
    93c0:	705f6176 	subsvc	r6, pc, r6, ror r1	; <UNPREDICTABLE>
    93c4:	746e6972 	strbtvc	r6, [lr], #-2418	; 0xfffff68e
    93c8:	0000006b 	andeq	r0, r0, fp, rrx
    93cc:	454e4f44 	strbmi	r4, [lr, #-3908]	; 0xfffff0bc
    93d0:	0a212121 	beq	85185c <__bss_end__+0x847a74>
	...

Disassembly of section .data:

000093d8 <cm_regs>:
    93d8:	20101000 	andscs	r1, r0, r0

000093dc <i2s_regs>:
    93dc:	20203000 	eorcs	r3, r0, r0

000093e0 <FFT_SINE_LUT>:
    93e0:	00c90000 	sbceq	r0, r9, r0
    93e4:	025b0192 	subseq	r0, fp, #-2147483612	; 0x80000024
    93e8:	03ed0324 	mvneq	r0, #36, 6	; 0x90000000
    93ec:	057e04b6 	ldrbeq	r0, [lr, #-1206]!	; 0xfffffb4a
    93f0:	07100647 	ldreq	r0, [r0, -r7, asr #12]
    93f4:	08a107d9 	stmiaeq	r1!, {r0, r3, r4, r6, r7, r8, r9, sl}
    93f8:	0a32096a 	beq	c8b9a8 <__bss_end__+0xc81bc0>
    93fc:	0bc30afb 	bleq	ff0cbff0 <__bss_end__+0xff0c2208>
    9400:	0d530c8b 	ldcleq	12, cr0, [r3, #-556]	; 0xfffffdd4
    9404:	0ee30e1b 	mcreq	14, 7, r0, cr3, cr11, {0}
    9408:	10720fab 	rsbsne	r0, r2, fp, lsr #31
    940c:	12001139 	andne	r1, r0, #1073741838	; 0x4000000e
    9410:	138e12c7 	orrne	r1, lr, #1879048204	; 0x7000000c
    9414:	151b1455 	ldrne	r1, [fp, #-1109]	; 0xfffffbab
    9418:	16a715e1 	strtne	r1, [r7], r1, ror #11
    941c:	1833176d 	ldmdane	r3!, {r0, r2, r3, r5, r6, r8, r9, sl, ip}
    9420:	19bd18f8 	ldmibne	sp!, {r3, r4, r5, r6, r7, fp, ip}
    9424:	1b461a82 	blne	118fe34 <__bss_end__+0x118604c>
    9428:	1ccf1c0b 	stclne	12, cr1, [pc], {11}
    942c:	1e561d93 	mrcne	13, 2, r1, cr6, cr3, {4}
    9430:	1fdc1f19 	svcne	0x00dc1f19
    9434:	2161209f 			; <UNDEFINED> instruction: 0x2161209f
    9438:	22e42223 	rsccs	r2, r4, #805306370	; 0x30000002
    943c:	246723a6 	strbtcs	r2, [r7], #-934	; 0xfffffc5a
    9440:	25e72527 	strbcs	r2, [r7, #1319]!	; 0x527
    9444:	276726a7 	strbcs	r2, [r7, -r7, lsr #13]!
    9448:	28e52826 	stmiacs	r5!, {r1, r2, r5, fp, sp}^
    944c:	2a6129a3 	bcs	1853ae0 <__bss_end__+0x1849cf8>
    9450:	2bdb2b1e 	blcs	ff6d40d0 <__bss_end__+0xff6ca2e8>
    9454:	2d542c98 	ldclcs	12, cr2, [r4, #-608]	; 0xfffffda0
    9458:	2ecc2e10 	mcrcs	14, 6, r2, cr12, cr0, {0}
    945c:	30412f86 	subcc	r2, r1, r6, lsl #31
    9460:	31b430fb 	ldrshcc	r3, [r4, fp]!
    9464:	3326326d 			; <UNDEFINED> instruction: 0x3326326d
    9468:	349633de 	ldrcc	r3, [r6], #990	; 0x3de
    946c:	3603354d 	strcc	r3, [r3], -sp, asr #10
    9470:	376f36b9 			; <UNDEFINED> instruction: 0x376f36b9
    9474:	38d83824 	ldmcc	r8, {r2, r5, fp, ip, sp}^
    9478:	3a3f398c 	bcc	fd7ab0 <__bss_end__+0xfcdcc8>
    947c:	3ba43af2 	blcc	fe91804c <__bss_end__+0xfe90e264>
    9480:	3d073c56 	stccc	12, cr3, [r7, #-344]	; 0xfffffea8
    9484:	3e673db7 	mcrcc	13, 3, r3, cr7, cr7, {5}
    9488:	3fc53f16 	svccc	0x00c53f16
    948c:	41204073 			; <UNDEFINED> instruction: 0x41204073
    9490:	427941cd 	rsbsmi	r4, r9, #1073741875	; 0x40000033
    9494:	43d04325 	bicsmi	r4, r0, #-1811939328	; 0x94000000
    9498:	4523447a 	strmi	r4, [r3, #-1146]!	; 0xfffffb86
    949c:	467445cc 	ldrbtmi	r4, [r4], -ip, asr #11
    94a0:	47c3471c 	bfimi	r4, ip, (invalid: 14:3)
    94a4:	490e4869 	stmdbmi	lr, {r0, r3, r5, r6, fp, lr}
    94a8:	4a5749b3 	bmi	15dbb7c <__bss_end__+0x15d1d94>
    94ac:	4b9d4afa 	blmi	fe75c09c <__bss_end__+0xfe7522b4>
    94b0:	4ce04c3f 	stclmi	12, cr4, [r0], #252	; 0xfc
    94b4:	4e204d80 	cdpmi	13, 2, cr4, cr0, cr0, {4}
    94b8:	4f5d4ebf 	svcmi	0x005d4ebf
    94bc:	50974ffa 			; <UNDEFINED> instruction: 0x50974ffa
    94c0:	51ce5133 	bicpl	r5, lr, r3, lsr r1
    94c4:	53015268 	movwpl	r5, #4712	; 0x1268
    94c8:	5432539a 	ldrtpl	r5, [r2], #-922	; 0xfffffc66
    94cc:	555f54c9 	ldrbpl	r5, [pc, #-1225]	; 900b <rpi_set_putc+0xb>
    94d0:	568955f4 			; <UNDEFINED> instruction: 0x568955f4
    94d4:	57b0571d 			; <UNDEFINED> instruction: 0x57b0571d
    94d8:	58d35842 	ldmpl	r3, {r1, r6, fp, ip, lr}^
    94dc:	59f35963 	ldmibpl	r3!, {r0, r1, r5, r6, r8, fp, ip, lr}^
    94e0:	5b0f5a81 	blpl	3dfeec <__bss_end__+0x3d6104>
    94e4:	5c285b9c 			; <UNDEFINED> instruction: 0x5c285b9c
    94e8:	5d3d5cb3 	ldcpl	12, cr5, [sp, #-716]!	; 0xfffffd34
    94ec:	5e4f5dc6 	cdppl	13, 4, cr5, cr15, cr6, {6}
    94f0:	5f5d5ed6 	svcpl	0x005d5ed6
    94f4:	60675fe2 	rsbvs	r5, r7, r2, ror #31
    94f8:	616e60eb 	cmnvs	lr, fp, ror #1
    94fc:	627161f0 	rsbsvs	r6, r1, #60	; 0x3c
    9500:	637062f1 	cmnvs	r0, #268435471	; 0x1000000f
    9504:	646b63ee 	strbtvs	r6, [fp], #-1006	; 0xfffffc12
    9508:	656264e7 	strbvs	r6, [r2, #-1255]!	; 0xfffffb19
    950c:	665665dd 			; <UNDEFINED> instruction: 0x665665dd
    9510:	674566ce 	strbvs	r6, [r5, -lr, asr #13]
    9514:	683167bc 	ldmdavs	r1!, {r2, r3, r4, r5, r7, r8, r9, sl, sp, lr}
    9518:	691968a5 	ldmdbvs	r9, {r0, r2, r5, r7, fp, sp, lr}
    951c:	69fc698b 	ldmibvs	ip!, {r0, r1, r3, r7, r8, fp, sp, lr}^
    9520:	6adb6a6c 	bvs	ff6e3ed8 <__bss_end__+0xff6da0f0>
    9524:	6bb76b4a 	blvs	fede4254 <__bss_end__+0xfedda46c>
    9528:	6c8e6c23 	stcvs	12, cr6, [lr], {35}	; 0x23
    952c:	6d616cf8 	stclvs	12, cr6, [r1, #-992]!	; 0xfffffc20
    9530:	6e306dc9 	cdpvs	13, 3, cr6, cr0, cr9, {6}
    9534:	6efa6e95 	mrcvs	14, 7, r6, cr10, cr5, {4}
    9538:	6fc06f5e 	svcvs	0x00c06f5e
    953c:	70827022 	addvc	r7, r2, r2, lsr #32
    9540:	714070e1 	smlalttvc	r7, r0, r1, r0
    9544:	71f9719d 			; <UNDEFINED> instruction: 0x71f9719d
    9548:	72ae7254 	adcvc	r7, lr, #84, 4	; 0x40000005
    954c:	735e7306 	cmpvc	lr, #402653184	; 0x18000000
    9550:	740a73b5 	strvc	r7, [sl], #-949	; 0xfffffc4b
    9554:	74b1745e 	ldrtvc	r7, [r1], #1118	; 0x45e
    9558:	75547503 	ldrbvc	r7, [r4, #-1283]	; 0xfffffafd
    955c:	75f375a4 	ldrbvc	r7, [r3, #1444]!	; 0x5a4
    9560:	768d7640 	strvc	r7, [sp], r0, asr #12
    9564:	772276d8 			; <UNDEFINED> instruction: 0x772276d8
    9568:	77b3776b 	ldrvc	r7, [r3, fp, ror #14]!
    956c:	783f77f9 	ldmdavc	pc!, {r0, r3, r4, r5, r6, r7, r8, r9, sl, ip, sp, lr}	; <UNPREDICTABLE>
    9570:	78c67883 	stmiavc	r6, {r0, r1, r7, fp, ip, sp, lr}^
    9574:	79497908 	stmdbvc	r9, {r3, r8, fp, ip, sp, lr}^
    9578:	79c77989 	stmibvc	r7, {r0, r3, r7, r8, fp, ip, sp, lr}^
    957c:	7a417a04 	bvc	1067d94 <__bss_end__+0x105dfac>
    9580:	7ab57a7c 	bvc	fed67f78 <__bss_end__+0xfed5e190>
    9584:	7b257aee 	blvc	968144 <__bss_end__+0x95e35c>
    9588:	7b917b5c 	blvc	fe468300 <__bss_end__+0xfe45e518>
    958c:	7bf77bc4 	blvc	ffde84a4 <__bss_end__+0xffdde6bc>
    9590:	7c597c29 	mrrcvc	12, 2, r7, r9, cr9
    9594:	7cb67c88 	ldcvc	12, cr7, [r6], #544	; 0x220
    9598:	7d0e7ce2 	stcvc	12, cr7, [lr, #-904]	; 0xfffffc78
    959c:	7d617d38 	stclvc	13, cr7, [r1, #-224]!	; 0xffffff20
    95a0:	7db07d89 	ldcvc	13, cr7, [r0, #548]!	; 0x224
    95a4:	7df97dd5 	ldclvc	13, cr7, [r9, #852]!	; 0x354
    95a8:	7e3e7e1c 	mrcvc	14, 1, r7, cr14, cr12, {0}
    95ac:	7e7e7e5e 	mrcvc	14, 3, r7, cr14, cr14, {2}
    95b0:	7eb97e9c 	mrcvc	14, 5, r7, cr9, cr12, {4}
    95b4:	7eef7ed4 	mcrvc	14, 7, r7, cr15, cr4, {6}
    95b8:	7f207f08 	svcvc	0x00207f08
    95bc:	7f4c7f37 	svcvc	0x004c7f37
    95c0:	7f747f61 	svcvc	0x00747f61
    95c4:	7f967f86 	svcvc	0x00967f86
    95c8:	7fb47fa6 	svcvc	0x00b47fa6
    95cc:	7fcd7fc1 	svcvc	0x00cd7fc1
    95d0:	7fe07fd7 	svcvc	0x00e07fd7
    95d4:	7fef7fe8 	svcvc	0x00ef7fe8
    95d8:	7ff97ff5 	svcvc	0x00f97ff5
    95dc:	7ffe7ffc 	svcvc	0x00fe7ffc
    95e0:	7ffe7fff 	svcvc	0x00fe7fff
    95e4:	7ff97ffc 	svcvc	0x00f97ffc
    95e8:	7fef7ff5 	svcvc	0x00ef7ff5
    95ec:	7fe07fe8 	svcvc	0x00e07fe8
    95f0:	7fcd7fd7 	svcvc	0x00cd7fd7
    95f4:	7fb47fc1 	svcvc	0x00b47fc1
    95f8:	7f967fa6 	svcvc	0x00967fa6
    95fc:	7f747f86 	svcvc	0x00747f86
    9600:	7f4c7f61 	svcvc	0x004c7f61
    9604:	7f207f37 	svcvc	0x00207f37
    9608:	7eef7f08 	cdpvc	15, 14, cr7, cr15, cr8, {0}
    960c:	7eb97ed4 	mrcvc	14, 5, r7, cr9, cr4, {6}
    9610:	7e7e7e9c 	mrcvc	14, 3, r7, cr14, cr12, {4}
    9614:	7e3e7e5e 	mrcvc	14, 1, r7, cr14, cr14, {2}
    9618:	7df97e1c 	ldclvc	14, cr7, [r9, #112]!	; 0x70
    961c:	7db07dd5 	ldcvc	13, cr7, [r0, #852]!	; 0x354
    9620:	7d617d89 	stclvc	13, cr7, [r1, #-548]!	; 0xfffffddc
    9624:	7d0e7d38 	stcvc	13, cr7, [lr, #-224]	; 0xffffff20
    9628:	7cb67ce2 	ldcvc	12, cr7, [r6], #904	; 0x388
    962c:	7c597c88 	mrrcvc	12, 8, r7, r9, cr8
    9630:	7bf77c29 	blvc	ffde86dc <__bss_end__+0xffdde8f4>
    9634:	7b917bc4 	blvc	fe46854c <__bss_end__+0xfe45e764>
    9638:	7b257b5c 	blvc	9683b0 <__bss_end__+0x95e5c8>
    963c:	7ab57aee 	bvc	fed681fc <__bss_end__+0xfed5e414>
    9640:	7a417a7c 	bvc	1068038 <__bss_end__+0x105e250>
    9644:	79c77a04 	stmibvc	r7, {r2, r9, fp, ip, sp, lr}^
    9648:	79497989 	stmdbvc	r9, {r0, r3, r7, r8, fp, ip, sp, lr}^
    964c:	78c67908 	stmiavc	r6, {r3, r8, fp, ip, sp, lr}^
    9650:	783f7883 	ldmdavc	pc!, {r0, r1, r7, fp, ip, sp, lr}	; <UNPREDICTABLE>
    9654:	77b377f9 			; <UNDEFINED> instruction: 0x77b377f9
    9658:	7722776b 	strvc	r7, [r2, -fp, ror #14]!
    965c:	768d76d8 	pkhtbvc	r7, sp, r8, asr #13
    9660:	75f37640 	ldrbvc	r7, [r3, #1600]!	; 0x640
    9664:	755475a4 	ldrbvc	r7, [r4, #-1444]	; 0xfffffa5c
    9668:	74b17503 	ldrtvc	r7, [r1], #1283	; 0x503
    966c:	740a745e 	strvc	r7, [sl], #-1118	; 0xfffffba2
    9670:	735e73b5 	cmpvc	lr, #-738197502	; 0xd4000002
    9674:	72ae7306 	adcvc	r7, lr, #402653184	; 0x18000000
    9678:	71f97254 	mvnsvc	r7, r4, asr r2
    967c:	7140719d 			; <UNDEFINED> instruction: 0x7140719d
    9680:	708270e1 	addvc	r7, r2, r1, ror #1
    9684:	6fc07022 	svcvs	0x00c07022
    9688:	6efa6f5e 	mrcvs	15, 7, r6, cr10, cr14, {2}
    968c:	6e306e95 	mrcvs	14, 1, r6, cr0, cr5, {4}
    9690:	6d616dc9 	stclvs	13, cr6, [r1, #-804]!	; 0xfffffcdc
    9694:	6c8e6cf8 	stcvs	12, cr6, [lr], {248}	; 0xf8
    9698:	6bb76c23 	blvs	fede472c <__bss_end__+0xfedda944>
    969c:	6adb6b4a 	bvs	ff6e43cc <__bss_end__+0xff6da5e4>
    96a0:	69fc6a6c 	ldmibvs	ip!, {r2, r3, r5, r6, r9, fp, sp, lr}^
    96a4:	6919698b 	ldmdbvs	r9, {r0, r1, r3, r7, r8, fp, sp, lr}
    96a8:	683168a5 	ldmdavs	r1!, {r0, r2, r5, r7, fp, sp, lr}
    96ac:	674567bc 			; <UNDEFINED> instruction: 0x674567bc
    96b0:	665666ce 	ldrbvs	r6, [r6], -lr, asr #13
    96b4:	656265dd 	strbvs	r6, [r2, #-1501]!	; 0xfffffa23
    96b8:	646b64e7 	strbtvs	r6, [fp], #-1255	; 0xfffffb19
    96bc:	637063ee 	cmnvs	r0, #-1207959549	; 0xb8000003
    96c0:	627162f1 	rsbsvs	r6, r1, #268435471	; 0x1000000f
    96c4:	616e61f0 	strdvs	r6, [lr, #-16]!
    96c8:	606760eb 	rsbvs	r6, r7, fp, ror #1
    96cc:	5f5d5fe2 	svcpl	0x005d5fe2
    96d0:	5e4f5ed6 	mcrpl	14, 2, r5, cr15, cr6, {6}
    96d4:	5d3d5dc6 	ldcpl	13, cr5, [sp, #-792]!	; 0xfffffce8
    96d8:	5c285cb3 	stcpl	12, cr5, [r8], #-716	; 0xfffffd34
    96dc:	5b0f5b9c 	blpl	3e0554 <__bss_end__+0x3d676c>
    96e0:	59f35a81 	ldmibpl	r3!, {r0, r7, r9, fp, ip, lr}^
    96e4:	58d35963 	ldmpl	r3, {r0, r1, r5, r6, r8, fp, ip, lr}^
    96e8:	57b05842 	ldrpl	r5, [r0, r2, asr #16]!
    96ec:	5689571d 	pkhbtpl	r5, r9, sp, lsl #14
    96f0:	555f55f4 	ldrbpl	r5, [pc, #-1524]	; 9104 <__code_end__+0x44>
    96f4:	543254c9 	ldrtpl	r5, [r2], #-1225	; 0xfffffb37
    96f8:	5301539a 	movwpl	r5, #5018	; 0x139a
    96fc:	51ce5268 	bicpl	r5, lr, r8, ror #4
    9700:	50975133 	addspl	r5, r7, r3, lsr r1
    9704:	4f5d4ffa 	svcmi	0x005d4ffa
    9708:	4e204ebf 	mcrmi	14, 1, r4, cr0, cr15, {5}
    970c:	4ce04d80 	stclmi	13, cr4, [r0], #512	; 0x200
    9710:	4b9d4c3f 	blmi	fe75c814 <__bss_end__+0xfe752a2c>
    9714:	4a574afa 	bmi	15dc304 <__bss_end__+0x15d251c>
    9718:	490e49b3 	stmdbmi	lr, {r0, r1, r4, r5, r7, r8, fp, lr}
    971c:	47c34869 	strbmi	r4, [r3, r9, ror #16]
    9720:	4674471c 			; <UNDEFINED> instruction: 0x4674471c
    9724:	452345cc 	strmi	r4, [r3, #-1484]!	; 0xfffffa34
    9728:	43d0447a 	bicsmi	r4, r0, #2046820352	; 0x7a000000
    972c:	42794325 	rsbsmi	r4, r9, #-1811939328	; 0x94000000
    9730:	412041cd 	smlawtmi	r0, sp, r1, r4
    9734:	3fc54073 	svccc	0x00c54073
    9738:	3e673f16 	mcrcc	15, 3, r3, cr7, cr6, {0}
    973c:	3d073db7 	stccc	13, cr3, [r7, #-732]	; 0xfffffd24
    9740:	3ba43c56 	blcc	fe9188a0 <__bss_end__+0xfe90eab8>
    9744:	3a3f3af2 	bcc	fd8314 <__bss_end__+0xfce52c>
    9748:	38d8398c 	ldmcc	r8, {r2, r3, r7, r8, fp, ip, sp}^
    974c:	376f3824 	strbcc	r3, [pc, -r4, lsr #16]!
    9750:	360336b9 			; <UNDEFINED> instruction: 0x360336b9
    9754:	3496354d 	ldrcc	r3, [r6], #1357	; 0x54d
    9758:	332633de 			; <UNDEFINED> instruction: 0x332633de
    975c:	31b4326d 			; <UNDEFINED> instruction: 0x31b4326d
    9760:	304130fb 	strdcc	r3, [r1], #-11
    9764:	2ecc2f86 	cdpcs	15, 12, cr2, cr12, cr6, {4}
    9768:	2d542e10 	ldclcs	14, cr2, [r4, #-64]	; 0xffffffc0
    976c:	2bdb2c98 	blcs	ff6d49d4 <__bss_end__+0xff6cabec>
    9770:	2a612b1e 	bcs	18543f0 <__bss_end__+0x184a608>
    9774:	28e529a3 	stmiacs	r5!, {r0, r1, r5, r7, r8, fp, sp}^
    9778:	27672826 	strbcs	r2, [r7, -r6, lsr #16]!
    977c:	25e726a7 	strbcs	r2, [r7, #1703]!	; 0x6a7
    9780:	24672527 	strbtcs	r2, [r7], #-1319	; 0xfffffad9
    9784:	22e423a6 	rsccs	r2, r4, #-1744830462	; 0x98000002
    9788:	21612223 	cmncs	r1, r3, lsr #4
    978c:	1fdc209f 	svcne	0x00dc209f
    9790:	1e561f19 	mrcne	15, 2, r1, cr6, cr9, {0}
    9794:	1ccf1d93 	stclne	13, cr1, [pc], {147}	; 0x93
    9798:	1b461c0b 	blne	11907cc <__bss_end__+0x11869e4>
    979c:	19bd1a82 	ldmibne	sp!, {r1, r7, r9, fp, ip}
    97a0:	183318f8 	ldmdane	r3!, {r3, r4, r5, r6, r7, fp, ip}
    97a4:	16a7176d 	strtne	r1, [r7], sp, ror #14
    97a8:	151b15e1 	ldrne	r1, [fp, #-1505]	; 0xfffffa1f
    97ac:	138e1455 	orrne	r1, lr, #1426063360	; 0x55000000
    97b0:	120012c7 	andne	r1, r0, #1879048204	; 0x7000000c
    97b4:	10721139 	rsbsne	r1, r2, r9, lsr r1
    97b8:	0ee30fab 	cdpeq	15, 14, cr0, cr3, cr11, {5}
    97bc:	0d530e1b 	ldcleq	14, cr0, [r3, #-108]	; 0xffffff94
    97c0:	0bc30c8b 	bleq	ff0cc9f4 <__bss_end__+0xff0c2c0c>
    97c4:	0a320afb 	beq	c8c3b8 <__bss_end__+0xc825d0>
    97c8:	08a1096a 	stmiaeq	r1!, {r1, r3, r5, r6, r8, fp}
    97cc:	071007d9 			; <UNDEFINED> instruction: 0x071007d9
    97d0:	057e0647 	ldrbeq	r0, [lr, #-1607]!	; 0xfffff9b9
    97d4:	03ed04b6 	mvneq	r0, #-1241513984	; 0xb6000000
    97d8:	025b0324 	subseq	r0, fp, #36, 6	; 0x90000000
    97dc:	00c90192 	smulleq	r0, r9, r2, r1
    97e0:	ff370000 			; <UNDEFINED> instruction: 0xff370000
    97e4:	fda5fe6e 	stc2	14, cr15, [r5, #440]!	; 0x1b8
    97e8:	fc13fcdc 	ldc2	12, cr15, [r3], {220}	; 0xdc
    97ec:	fa82fb4a 	blx	fe0c851c <__bss_end__+0xfe0be734>
    97f0:	f8f0f9b9 			; <UNDEFINED> instruction: 0xf8f0f9b9
    97f4:	f75ff827 	pld	[pc, -r7, lsr #16]
    97f8:	f5cef696 			; <UNDEFINED> instruction: 0xf5cef696
    97fc:	f43df505 			; <UNDEFINED> instruction: 0xf43df505
    9800:	f2adf375 	vrsra.s32	<illegal reg q7.5>, <illegal reg q10.5>, #19
    9804:	f11df1e5 			; <UNDEFINED> instruction: 0xf11df1e5
    9808:	ef8ef055 	svc	0x008ef055
    980c:	ee00eec7 	cdp	14, 0, cr14, cr0, cr7, {6}
    9810:	ec72ed39 	ldcl	13, cr14, [r2], #-228	; 0xffffff1c
    9814:	eae5ebab 	b	ff9846c8 <__bss_end__+0xff97a8e0>
    9818:	e959ea1f 	ldmdb	r9, {r0, r1, r2, r3, r4, r9, fp, sp, lr, pc}^
    981c:	e7cde893 	bfi	lr, r3, (invalid: 17:13)
    9820:	e643e708 	strb	lr, [r3], -r8, lsl #14
    9824:	e4bae57e 	ldrt	lr, [sl], #1406	; 0x57e
    9828:	e331e3f5 	teq	r1, #-738197501	; 0xd4000003
    982c:	e1aae26d 			; <UNDEFINED> instruction: 0xe1aae26d
    9830:	e024e0e7 	eor	lr, r4, r7, ror #1
    9834:	de9fdf61 	cdple	15, 9, cr13, cr15, cr1, {3}
    9838:	dd1cdddd 	ldcle	13, cr13, [ip, #-884]	; 0xfffffc8c
    983c:	db99dc5a 	blle	fe6809ac <__bss_end__+0xfe676bc4>
    9840:	da19dad9 	ble	6803ac <__bss_end__+0x6765c4>
    9844:	d899d959 	ldmle	r9, {r0, r3, r4, r6, r8, fp, ip, lr, pc}
    9848:	d71bd7da 			; <UNDEFINED> instruction: 0xd71bd7da
    984c:	d59fd65d 	ldrle	sp, [pc, #1629]	; 9eb1 <__bss_end__+0xc9>
    9850:	d425d4e2 	strtle	sp, [r5], #-1250	; 0xfffffb1e
    9854:	d2acd368 	adcle	sp, ip, #104, 6	; 0xa0000001
    9858:	d134d1f0 	teqle	r4, r0	; <illegal shifter operand>
    985c:	cfbfd07a 	svcgt	0x00bfd07a
    9860:	ce4ccf05 	cdpgt	15, 4, cr12, cr12, cr5, {0}
    9864:	ccdacd93 	ldclgt	13, cr12, [sl], {147}	; 0x93
    9868:	cb6acc22 	blgt	1abc8f8 <__bss_end__+0x1ab2b10>
    986c:	c9fdcab3 	ldmibgt	sp!, {r0, r1, r4, r5, r7, r9, fp, lr, pc}^
    9870:	c891c947 	ldmgt	r1, {r0, r1, r2, r6, r8, fp, lr, pc}
    9874:	c728c7dc 			; <UNDEFINED> instruction: 0xc728c7dc
    9878:	c5c1c674 	strbgt	ip, [r1, #1652]	; 0x674
    987c:	c45cc50e 	ldrbgt	ip, [ip], #-1294	; 0xfffffaf2
    9880:	c2f9c3aa 	rscsgt	ip, r9, #-1476395006	; 0xa8000002
    9884:	c199c249 	orrsgt	ip, r9, r9, asr #4
    9888:	c03bc0ea 	eorsgt	ip, fp, sl, ror #1
    988c:	bee0bf8d 	cdplt	15, 14, cr11, cr0, cr13, {4}
    9890:	bd87be33 	stclt	14, cr11, [r7, #204]	; 0xcc
    9894:	bc30bcdb 	ldclt	12, cr11, [r0], #-876	; 0xfffffc94
    9898:	baddbb86 	blt	ff7786b8 <__bss_end__+0xff76e8d0>
    989c:	b98cba34 	stmiblt	ip, {r2, r4, r5, r9, fp, ip, sp, pc}
    98a0:	b83db8e4 	ldmdalt	sp!, {r2, r5, r6, r7, fp, ip, sp, pc}
    98a4:	b6f2b797 	usatlt	fp, #18, r7, lsl #15
    98a8:	b5a9b64d 	strlt	fp, [r9, #1613]!	; 0x64d
    98ac:	b463b506 	strbtlt	fp, [r3], #-1286	; 0xfffffafa
    98b0:	b320b3c1 			; <UNDEFINED> instruction: 0xb320b3c1
    98b4:	b1e0b280 	mvnlt	fp, r0, lsl #5
    98b8:	b0a3b141 	adclt	fp, r3, r1, asr #2
    98bc:	af69b006 	svcge	0x0069b006
    98c0:	ae32aecd 	cdpge	14, 3, cr10, cr2, cr13, {6}
    98c4:	acffad98 	ldclge	13, cr10, [pc], #608	; 9b2c <__data_end__+0x144>
    98c8:	abceac66 	blge	ff3b4a68 <__bss_end__+0xff3aac80>
    98cc:	aaa1ab37 	bge	fe8745b0 <__bss_end__+0xfe86a7c8>
    98d0:	a977aa0c 	ldmdbge	r7!, {r2, r3, r9, fp, sp, pc}^
    98d4:	a850a8e3 	ldmdage	r0, {r0, r1, r5, r6, r7, fp, sp, pc}^
    98d8:	a72da7be 			; <UNDEFINED> instruction: 0xa72da7be
    98dc:	a60da69d 			; <UNDEFINED> instruction: 0xa60da69d
    98e0:	a4f1a57f 	ldrbtge	sl, [r1], #1407	; 0x57f
    98e4:	a3d8a464 	bicsge	sl, r8, #100, 8	; 0x64000000
    98e8:	a2c3a34d 	sbcge	sl, r3, #872415233	; 0x34000001
    98ec:	a1b1a23a 			; <UNDEFINED> instruction: 0xa1b1a23a
    98f0:	a0a3a12a 	adcge	sl, r3, sl, lsr #2
    98f4:	9f99a01e 	svcls	0x0099a01e
    98f8:	9e929f15 	mrcls	15, 4, r9, cr2, cr5, {0}
    98fc:	9d8f9e10 	stcls	14, cr9, [pc, #64]	; 9944 <FFT_SINE_LUT+0x564>
    9900:	9c909d0f 	ldcls	13, cr9, [r0], {15}
    9904:	9b959c12 	blls	fe570954 <__bss_end__+0xfe566b6c>
    9908:	9a9e9b19 	bls	fe7b0574 <__bss_end__+0xfe7a678c>
    990c:	99aa9a23 	stmibls	sl!, {r0, r1, r5, r9, fp, ip, pc}
    9910:	98bb9932 	ldmls	fp!, {r1, r4, r5, r8, fp, ip, pc}
    9914:	97cf9844 	strbls	r9, [pc, r4, asr #16]
    9918:	96e7975b 	usatls	r9, #7, fp, asr #14
    991c:	96049675 			; <UNDEFINED> instruction: 0x96049675
    9920:	95259594 	strls	r9, [r5, #-1428]!	; 0xfffffa6c
    9924:	944994b6 	strbls	r9, [r9], #-1206	; 0xfffffb4a
    9928:	937293dd 	cmnls	r2, #1946157059	; 0x74000003
    992c:	929f9308 	addsls	r9, pc, #8, 6	; 0x20000000
    9930:	91d09237 	bicsls	r9, r0, r7, lsr r2
    9934:	9106916b 	tstls	r6, fp, ror #2
    9938:	904090a2 	subls	r9, r0, r2, lsr #1
    993c:	8f7e8fde 	svchi	0x007e8fde
    9940:	8ec08f1f 	mcrhi	15, 6, r8, cr0, cr15, {0}
    9944:	8e078e63 	cdphi	14, 0, cr8, cr7, cr3, {3}
    9948:	8d528dac 	ldclhi	13, cr8, [r2, #-688]	; 0xfffffd50
    994c:	8ca28cfa 	stchi	12, cr8, [r2], #1000	; 0x3e8
    9950:	8bf68c4b 	blhi	ffdaca84 <__bss_end__+0xffda2c9c>
    9954:	8b4f8ba2 	blhi	13ec7e4 <__bss_end__+0x13e29fc>
    9958:	8aac8afd 	bhi	feb2c554 <__bss_end__+0xfeb2276c>
    995c:	8a0d8a5c 	bhi	36c2d4 <__bss_end__+0x3624ec>
    9960:	897389c0 	ldmdbhi	r3!, {r6, r7, r8, fp, pc}^
    9964:	88de8928 	ldmhi	lr, {r3, r5, r8, fp, pc}^
    9968:	884d8895 	stmdahi	sp, {r0, r2, r4, r7, fp, pc}^
    996c:	87c18807 	strbhi	r8, [r1, r7, lsl #16]
    9970:	873a877d 			; <UNDEFINED> instruction: 0x873a877d
    9974:	86b786f8 			; <UNDEFINED> instruction: 0x86b786f8
    9978:	86398677 			; <UNDEFINED> instruction: 0x86398677
    997c:	85bf85fc 	ldrhi	r8, [pc, #1532]!	; 9f80 <__bss_end__+0x198>
    9980:	854b8584 	strbhi	r8, [fp, #-1412]	; 0xfffffa7c
    9984:	84db8512 	ldrbhi	r8, [fp], #1298	; 0x512
    9988:	846f84a4 	strbthi	r8, [pc], #-1188	; 9990 <FFT_SINE_LUT+0x5b0>
    998c:	8409843c 	strhi	r8, [r9], #-1084	; 0xfffffbc4
    9990:	83a783d7 			; <UNDEFINED> instruction: 0x83a783d7
    9994:	834a8378 	movthi	r8, #41848	; 0xa378
    9998:	82f2831e 	rscshi	r8, r2, #2013265920	; 0x78000000
    999c:	829f82c8 	addshi	r8, pc, #200, 4	; 0x8000000c
    99a0:	82508277 	subshi	r8, r0, #1879048199	; 0x70000007
    99a4:	8207822b 	andhi	r8, r7, #-1342177278	; 0xb0000002
    99a8:	81c281e4 	bichi	r8, r2, r4, ror #3
    99ac:	818281a2 	orrhi	r8, r2, r2, lsr #3
    99b0:	81478164 	cmphi	r7, r4, ror #2
    99b4:	8111812c 	tsthi	r1, ip, lsr #2
    99b8:	80e080f8 	strdhi	r8, [r0], #8	; <UNPREDICTABLE>
    99bc:	80b480c9 	adcshi	r8, r4, r9, asr #1
    99c0:	808c809f 	umullhi	r8, ip, pc, r0	; <UNPREDICTABLE>
    99c4:	806a807a 	rsbhi	r8, sl, sl, ror r0
    99c8:	804c805a 	subhi	r8, ip, sl, asr r0
    99cc:	8033803f 	eorshi	r8, r3, pc, lsr r0
    99d0:	80208029 	eorhi	r8, r0, r9, lsr #32
    99d4:	80118018 	andshi	r8, r1, r8, lsl r0
    99d8:	8007800b 	andhi	r8, r7, fp
    99dc:	80028004 	andhi	r8, r2, r4

000099e0 <putk>:
    99e0:	000083ac 	andeq	r8, r0, ip, lsr #7

000099e4 <rpi_putchar>:
    99e4:	00008fd4 	ldrdeq	r8, [r0], -r4

Disassembly of section .bss:

000099e8 <__bss_start__>:
	...

Disassembly of section .ARM.attributes:

00000000 <.ARM.attributes>:
   0:	00002a41 	andeq	r2, r0, r1, asr #20
   4:	61656100 	cmnvs	r5, r0, lsl #2
   8:	01006962 	tsteq	r0, r2, ror #18
   c:	00000020 	andeq	r0, r0, r0, lsr #32
  10:	4b5a3605 	blmi	168d82c <__bss_end__+0x1683a44>
  14:	08070600 	stmdaeq	r7, {r9, sl}
  18:	12010901 	andne	r0, r1, #16384	; 0x4000
  1c:	15011404 	strne	r1, [r1, #-1028]	; 0xfffffbfc
  20:	18031701 	stmdane	r3, {r0, r8, r9, sl, ip}
  24:	22011a01 	andcs	r1, r1, #4096	; 0x1000
  28:	Address 0x0000000000000028 is out of bounds.


Disassembly of section .comment:

00000000 <.comment>:
   0:	3a434347 	bcc	10d0d24 <__bss_end__+0x10c6f3c>
   4:	4e472820 	cdpmi	8, 4, cr2, cr7, cr0, {1}
   8:	6f542055 	svcvs	0x00542055
   c:	20736c6f 	rsbscs	r6, r3, pc, ror #24
  10:	20726f66 	rsbscs	r6, r2, r6, ror #30
  14:	206d7241 	rsbcs	r7, sp, r1, asr #4
  18:	65626d45 	strbvs	r6, [r2, #-3397]!	; 0xfffff2bb
  1c:	64656464 	strbtvs	r6, [r5], #-1124	; 0xfffffb9c
  20:	6f725020 	svcvs	0x00725020
  24:	73736563 	cmnvc	r3, #415236096	; 0x18c00000
  28:	2073726f 	rsbscs	r7, r3, pc, ror #4
  2c:	30322d39 	eorscc	r2, r2, r9, lsr sp
  30:	712d3931 			; <UNDEFINED> instruction: 0x712d3931
  34:	616d2d34 	cmnvs	sp, r4, lsr sp
  38:	29726f6a 	ldmdbcs	r2!, {r1, r3, r5, r6, r8, r9, sl, fp, sp, lr}^
  3c:	322e3920 	eorcc	r3, lr, #32, 18	; 0x80000
  40:	3220312e 	eorcc	r3, r0, #-2147483637	; 0x8000000b
  44:	31393130 	teqcc	r9, r0, lsr r1
  48:	20353230 	eorscs	r3, r5, r0, lsr r2
  4c:	6c657228 	sfmvs	f7, 2, [r5], #-160	; 0xffffff60
  50:	65736165 	ldrbvs	r6, [r3, #-357]!	; 0xfffffe9b
  54:	415b2029 	cmpmi	fp, r9, lsr #32
  58:	612f4d52 			; <UNDEFINED> instruction: 0x612f4d52
  5c:	392d6d72 	pushcc	{r1, r4, r5, r6, r8, sl, fp, sp, lr}
  60:	6172622d 	cmnvs	r2, sp, lsr #4
  64:	2068636e 	rsbcs	r6, r8, lr, ror #6
  68:	69766572 	ldmdbvs	r6!, {r1, r4, r5, r6, r8, sl, sp, lr}^
  6c:	6e6f6973 			; <UNDEFINED> instruction: 0x6e6f6973
  70:	37373220 	ldrcc	r3, [r7, -r0, lsr #4]!
  74:	5d393935 			; <UNDEFINED> instruction: 0x5d393935
  78:	43434700 	movtmi	r4, #14080	; 0x3700
  7c:	4728203a 			; <UNDEFINED> instruction: 0x4728203a
  80:	4120554e 			; <UNDEFINED> instruction: 0x4120554e
  84:	45206d72 	strmi	r6, [r0, #-3442]!	; 0xfffff28e
  88:	6465626d 	strbtvs	r6, [r5], #-621	; 0xfffffd93
  8c:	20646564 	rsbcs	r6, r4, r4, ror #10
  90:	6c6f6f54 	stclvs	15, cr6, [pc], #-336	; ffffff48 <__bss_end__+0xffff6160>
  94:	69616863 	stmdbvs	r1!, {r0, r1, r5, r6, fp, sp, lr}^
  98:	3031206e 	eorscc	r2, r1, lr, rrx
  9c:	322d332e 	eorcc	r3, sp, #-1207959552	; 0xb8000000
  a0:	2e313230 	mrccs	2, 1, r3, cr1, cr0, {1}
  a4:	20293031 	eorcs	r3, r9, r1, lsr r0
  a8:	332e3031 			; <UNDEFINED> instruction: 0x332e3031
  ac:	3220312e 	eorcc	r3, r0, #-2147483637	; 0x8000000b
  b0:	30313230 	eorscc	r3, r1, r0, lsr r2
  b4:	20343238 	eorscs	r3, r4, r8, lsr r2
  b8:	6c657228 	sfmvs	f7, 2, [r5], #-160	; 0xffffff60
  bc:	65736165 	ldrbvs	r6, [r3, #-357]!	; 0xfffffe9b
  c0:	Address 0x00000000000000c0 is out of bounds.


Disassembly of section .debug_info:

00000000 <.debug_info>:
       0:	00000187 	andeq	r0, r0, r7, lsl #3
       4:	00000004 	andeq	r0, r0, r4
       8:	01040000 	mrseq	r0, (UNDEF: 4)
       c:	000000b6 	strheq	r0, [r0], -r6
      10:	00001e0c 	andeq	r1, r0, ip, lsl #28
      14:	00004800 	andeq	r4, r0, r0, lsl #16
      18:	00803800 	addeq	r3, r0, r0, lsl #16
      1c:	00004800 	andeq	r4, r0, r0, lsl #16
      20:	00000000 	andeq	r0, r0, r0
      24:	05040200 	streq	r0, [r4, #-512]	; 0xfffffe00
      28:	00746e69 	rsbseq	r6, r4, r9, ror #28
      2c:	3b070403 	blcc	1c1040 <__bss_end__+0x1b7258>
      30:	03000000 	movweq	r0, #0
      34:	00aa0601 	adceq	r0, sl, r1, lsl #12
      38:	02030000 	andeq	r0, r3, #0, 0
      3c:	00018f05 	andeq	r8, r1, r5, lsl #30
      40:	03a20400 			; <UNDEFINED> instruction: 0x03a20400
      44:	28040000 	stmdacs	r4, {}	; <UNPREDICTABLE>
      48:	00004d18 	andeq	r4, r0, r8, lsl sp
      4c:	05040300 	streq	r0, [r4, #-768]	; 0xfffffd00
      50:	00000005 	andeq	r0, r0, r5
      54:	00050803 	andeq	r0, r5, r3, lsl #16
      58:	03000000 	movweq	r0, #0
      5c:	00a80801 	adceq	r0, r8, r1, lsl #16
      60:	02030000 	andeq	r0, r3, #0, 0
      64:	00017307 	andeq	r7, r1, r7, lsl #6
      68:	07040300 	streq	r0, [r4, -r0, lsl #6]
      6c:	00000036 	andeq	r0, r0, r6, lsr r0
      70:	31070803 	tstcc	r7, r3, lsl #16
      74:	05000000 	streq	r0, [r0, #-0]
      78:	00000025 	andeq	r0, r0, r5, lsr #32
      7c:	00000086 	andeq	r0, r0, r6, lsl #1
      80:	00002506 	andeq	r2, r0, r6, lsl #10
      84:	a6070000 	strge	r0, [r7], -r0
      88:	02000001 	andeq	r0, r0, #1, 0
      8c:	00920e1c 	addseq	r0, r2, ip, lsl lr
      90:	04080000 	streq	r0, [r8], #-0
      94:	00000077 	andeq	r0, r0, r7, ror r0
      98:	00002505 	andeq	r2, r0, r5, lsl #10
      9c:	0000a700 	andeq	sl, r0, r0, lsl #14
      a0:	00a70600 	adceq	r0, r7, r0, lsl #12
      a4:	08000000 	stmdaeq	r0, {}	; <UNPREDICTABLE>
      a8:	0000b404 	andeq	fp, r0, r4, lsl #8
      ac:	08010300 	stmdaeq	r1, {r8, r9}
      b0:	000000b1 	strheq	r0, [r0], -r1
      b4:	0000ad09 	andeq	sl, r0, r9, lsl #26
      b8:	077f0700 	ldrbeq	r0, [pc, -r0, lsl #14]!
      bc:	21020000 	mrscs	r0, (UNDEF: 2)
      c0:	0000c50e 	andeq	ip, r0, lr, lsl #10
      c4:	98040800 	stmdals	r4, {fp}
      c8:	0a000000 	beq	d0 <__code_start__-0x7f30>
      cc:	0000016b 	andeq	r0, r0, fp, ror #2
      d0:	38060801 	stmdacc	r6, {r0, fp}
      d4:	48000080 	stmdami	r0, {r7}
      d8:	01000000 	mrseq	r0, (UNDEF: 0)
      dc:	00015a9c 	muleq	r1, ip, sl
      e0:	00000b00 	andeq	r0, r0, r0, lsl #22
      e4:	01340000 	teqeq	r4, r0
      e8:	690c0000 	stmdbvs	ip, {}	; <UNPREDICTABLE>
      ec:	0e100100 	mufeqs	f0, f0, f0
      f0:	00000025 	andeq	r0, r0, r5, lsr #32
      f4:	00000002 	andeq	r0, r0, r2
      f8:	00000000 	andeq	r0, r0, r0
      fc:	0080480d 	addeq	r4, r0, sp, lsl #16
     100:	00001800 	andeq	r1, r0, r0, lsl #16
     104:	00170e00 	andseq	r0, r7, r0, lsl #28
     108:	11010000 	mrsne	r0, (UNDEF: 1)
     10c:	00004111 	andeq	r4, r0, r1, lsl r1
     110:	00001a00 	andeq	r1, r0, r0, lsl #20
     114:	00001600 	andeq	r1, r0, r0, lsl #12
     118:	80500f00 	subshi	r0, r0, r0, lsl #30
     11c:	015a0000 	cmpeq	sl, r0
     120:	60100000 	andsvs	r0, r0, r0
     124:	66000080 	strvs	r0, [r0], -r0, lsl #1
     128:	11000001 	tstne	r0, r1
     12c:	75025001 	strvc	r5, [r2, #-1]
     130:	00000000 	andeq	r0, r0, r0
     134:	0080400f 	addeq	r4, r0, pc
     138:	00017200 	andeq	r7, r1, r0, lsl #4
     13c:	80440f00 	subhi	r0, r4, r0, lsl #30
     140:	017e0000 	cmneq	lr, r0
     144:	74120000 	ldrvc	r0, [r2], #-0
     148:	66000080 	strvs	r0, [r0], -r0, lsl #1
     14c:	11000001 	tstne	r0, r1
     150:	03055001 	movweq	r5, #20481	; 0x5001
     154:	000090c8 	andeq	r9, r0, r8, asr #1
     158:	0e130000 	cdpeq	0, 1, cr0, cr3, cr0, {0}
     15c:	0e000000 	cdpeq	0, 0, cr0, cr0, cr0, {0}
     160:	03000000 	movweq	r0, #0
     164:	fa130981 	blx	4c2770 <__bss_end__+0x4b8988>
     168:	fa000006 	blx	188 <__code_start__-0x7e78>
     16c:	02000006 	andeq	r0, r0, #6, 0
     170:	99130628 	ldmdbls	r3, {r3, r5, r9, sl}
     174:	99000001 	stmdbls	r0, {r0}
     178:	02000001 	andeq	r0, r0, #1, 0
     17c:	861306a5 	ldrhi	r0, [r3], -r5, lsr #13
     180:	86000001 	strhi	r0, [r0], -r1
     184:	03000001 	movweq	r0, #1
     188:	1800067e 	stmdane	r0, {r1, r2, r3, r4, r5, r6, r9, sl}
     18c:	0400000a 	streq	r0, [r0], #-10
     190:	00010700 	andeq	r0, r1, r0, lsl #14
     194:	b6010400 	strlt	r0, [r1], -r0, lsl #8
     198:	0c000000 	stceq	0, cr0, [r0], {-0}
     19c:	0000026d 	andeq	r0, r0, sp, ror #4
     1a0:	00000048 	andeq	r0, r0, r8, asr #32
     1a4:	00008080 	andeq	r8, r0, r0, lsl #1
     1a8:	000001d0 	ldrdeq	r0, [r0], -r0	; <UNPREDICTABLE>
     1ac:	00000166 	andeq	r0, r0, r6, ror #2
     1b0:	69050402 	stmdbvs	r5, {r1, sl}
     1b4:	0300746e 	movweq	r7, #1134	; 0x46e
     1b8:	003b0704 	eorseq	r0, fp, r4, lsl #14
     1bc:	01030000 	mrseq	r0, (UNDEF: 3)
     1c0:	0000aa06 	andeq	sl, r0, r6, lsl #20
     1c4:	05020300 	streq	r0, [r2, #-768]	; 0xfffffd00
     1c8:	0000018f 	andeq	r0, r0, pc, lsl #3
     1cc:	0003a204 	andeq	sl, r3, r4, lsl #4
     1d0:	18280300 	stmdane	r8!, {r8, r9}
     1d4:	0000004d 	andeq	r0, r0, sp, asr #32
     1d8:	05050403 	streq	r0, [r5, #-1027]	; 0xfffffbfd
     1dc:	03000000 	movweq	r0, #0
     1e0:	00000508 	andeq	r0, r0, r8, lsl #10
     1e4:	01030000 	mrseq	r0, (UNDEF: 3)
     1e8:	0000a808 	andeq	sl, r0, r8, lsl #16
     1ec:	07020300 	streq	r0, [r2, -r0, lsl #6]
     1f0:	00000173 	andeq	r0, r0, r3, ror r1
     1f4:	0003a104 	andeq	sl, r3, r4, lsl #2
     1f8:	19340300 	ldmdbne	r4!, {r8, r9}
     1fc:	00000075 	andeq	r0, r0, r5, ror r0
     200:	36070403 	strcc	r0, [r7], -r3, lsl #8
     204:	03000000 	movweq	r0, #0
     208:	00310708 	eorseq	r0, r1, r8, lsl #14
     20c:	25050000 	strcs	r0, [r5, #-0]
     210:	92000000 	andls	r0, r0, #0, 0
     214:	06000000 	streq	r0, [r0], -r0
     218:	00000025 	andeq	r0, r0, r5, lsr #32
     21c:	01a60700 			; <UNDEFINED> instruction: 0x01a60700
     220:	1c040000 	stcne	0, cr0, [r4], {-0}
     224:	00009e0e 	andeq	r9, r0, lr, lsl #28
     228:	83040800 	movwhi	r0, #18432	; 0x4800
     22c:	05000000 	streq	r0, [r0, #-0]
     230:	00000025 	andeq	r0, r0, r5, lsr #32
     234:	000000b3 	strheq	r0, [r0], -r3
     238:	0000b306 	andeq	fp, r0, r6, lsl #6
     23c:	04080000 	streq	r0, [r8], #-0
     240:	000000c0 	andeq	r0, r0, r0, asr #1
     244:	b1080103 	tstlt	r8, r3, lsl #2
     248:	09000000 	stmdbeq	r0, {}	; <UNPREDICTABLE>
     24c:	000000b9 	strheq	r0, [r0], -r9
     250:	00077f07 	andeq	r7, r7, r7, lsl #30
     254:	0e210400 	cdpeq	4, 2, cr0, cr1, cr0, {0}
     258:	000000d1 	ldrdeq	r0, [r0], -r1
     25c:	00a40408 	adceq	r0, r4, r8, lsl #8
     260:	070a0000 	streq	r0, [sl, -r0]
     264:	00005b01 	andeq	r5, r0, r1, lsl #22
     268:	0e0c0600 	cfmadd32eq	mvax0, mvfx0, mvfx12, mvfx0
     26c:	00000116 	andeq	r0, r0, r6, lsl r1
     270:	0003860b 	andeq	r8, r3, fp, lsl #12
     274:	2a0b0000 	bcs	2c027c <__bss_end__+0x2b6494>
     278:	01000002 	tsteq	r0, r2
     27c:	0003590b 	andeq	r5, r3, fp, lsl #18
     280:	730b0400 	movwvc	r0, #46080	; 0xb400
     284:	05000002 	streq	r0, [r0, #-2]
     288:	0002820b 	andeq	r8, r2, fp, lsl #4
     28c:	910b0600 	tstls	fp, r0, lsl #12
     290:	07000002 	streq	r0, [r0, -r2]
     294:	0002a00b 	andeq	sl, r2, fp
     298:	af0b0300 	svcge	0x000b0300
     29c:	02000002 	andeq	r0, r0, #2, 0
     2a0:	05240c00 	streq	r0, [r4, #-3072]!	; 0xfffff400
     2a4:	01940910 	orrseq	r0, r4, r0, lsl r9
     2a8:	630d0000 	movwvs	r0, #53248	; 0xd000
     2ac:	11050073 	tstne	r5, r3, ror r0
     2b0:	0000690e 	andeq	r6, r0, lr, lsl #18
     2b4:	e80e0000 	stmda	lr, {}	; <UNPREDICTABLE>
     2b8:	05000003 	streq	r0, [r0, #-3]
     2bc:	00690e12 	rsbeq	r0, r9, r2, lsl lr
     2c0:	0e040000 	cdpeq	0, 0, cr0, cr4, cr0, {0}
     2c4:	00000254 	andeq	r0, r0, r4, asr r2
     2c8:	690e1305 	stmdbvs	lr, {r0, r2, r8, r9, ip}
     2cc:	08000000 	stmdaeq	r0, {}	; <UNPREDICTABLE>
     2d0:	0004f80e 	andeq	pc, r4, lr, lsl #16
     2d4:	0e140500 	cfmul32eq	mvfx0, mvfx4, mvfx0
     2d8:	00000069 	andeq	r0, r0, r9, rrx
     2dc:	04c30e0c 	strbeq	r0, [r3], #3596	; 0xe0c
     2e0:	15050000 	strne	r0, [r5, #-0]
     2e4:	0000690e 	andeq	r6, r0, lr, lsl #18
     2e8:	760e1000 	strvc	r1, [lr], -r0
     2ec:	05000004 	streq	r0, [r0, #-4]
     2f0:	00690e16 	rsbeq	r0, r9, r6, lsl lr
     2f4:	0e140000 	cdpeq	0, 1, cr0, cr4, cr0, {0}
     2f8:	0000023b 	andeq	r0, r0, fp, lsr r2
     2fc:	690e1705 	stmdbvs	lr, {r0, r2, r8, r9, sl, ip}
     300:	18000000 	stmdane	r0, {}	; <UNPREDICTABLE>
     304:	0001ea0e 	andeq	lr, r1, lr, lsl #20
     308:	0e180500 	cfmul32eq	mvfx0, mvfx8, mvfx0
     30c:	00000069 	andeq	r0, r0, r9, rrx
     310:	021a0e1c 	andseq	r0, sl, #28, 28	; 0x1c0
     314:	19050000 	stmdbne	r5, {}	; <UNPREDICTABLE>
     318:	0000690e 	andeq	r6, r0, lr, lsl #18
     31c:	04002000 	streq	r2, [r0], #-0
     320:	0000021f 	andeq	r0, r0, pc, lsl r2
     324:	16031a05 	strne	r1, [r3], -r5, lsl #20
     328:	0f000001 	svceq	0x00000001
     32c:	00000194 	muleq	r0, r4, r1
     330:	5b01070a 	blpl	41f60 <__bss_end__+0x38178>
     334:	05000000 	streq	r0, [r0, #-0]
     338:	02020e31 	andeq	r0, r2, #784	; 0x310
     33c:	c90b0000 	stmdbgt	fp, {}	; <UNPREDICTABLE>
     340:	00000001 	andeq	r0, r0, r1
     344:	0004b70b 	andeq	fp, r4, fp, lsl #14
     348:	bc0b0100 	stflts	f0, [fp], {-0}
     34c:	04000001 	streq	r0, [r0], #-1
     350:	0004110b 	andeq	r1, r4, fp, lsl #2
     354:	d60b0700 	strle	r0, [fp], -r0, lsl #14
     358:	08000004 	stmdaeq	r0, {r2}
     35c:	0003bb0b 	andeq	fp, r3, fp, lsl #22
     360:	2f0b0e00 	svccs	0x000b0e00
     364:	10000003 	andne	r0, r0, r3
     368:	0003960b 	andeq	r9, r3, fp, lsl #12
     36c:	6b0b1200 	blvs	2c4b74 <__bss_end__+0x2bad8c>
     370:	14000004 	strne	r0, [r0], #-4
     374:	00036e0b 	andeq	r6, r3, fp, lsl #28
     378:	fb0b1600 	blx	2c5b82 <__bss_end__+0x2bbd9a>
     37c:	17000002 	strne	r0, [r0, -r2]
     380:	00042f0b 	andeq	r2, r4, fp, lsl #30
     384:	590b1800 	stmdbpl	fp, {fp, ip}
     388:	19000002 	stmdbne	r0, {r1}
     38c:	01070a00 	tsteq	r7, r0, lsl #20
     390:	0000005b 	andeq	r0, r0, fp, asr r0
     394:	290e4205 	stmdbcs	lr, {r0, r2, r9, lr}
     398:	0b000002 	bleq	3a8 <__code_start__-0x7c58>
     39c:	000003ed 	andeq	r0, r0, sp, ror #7
     3a0:	04e60b00 	strbteq	r0, [r6], #2816	; 0xb00
     3a4:	0b090000 	bleq	2403ac <__bss_end__+0x2365c4>
     3a8:	000003aa 	andeq	r0, r0, sl, lsr #7
     3ac:	05180b0a 	ldreq	r0, [r8, #-2826]	; 0xfffff4f6
     3b0:	00130000 	andseq	r0, r3, r0
     3b4:	5b01070a 	blpl	41fe4 <__bss_end__+0x381fc>
     3b8:	05000000 	streq	r0, [r0, #-0]
     3bc:	02800e4a 	addeq	r0, r0, #1184	; 0x4a0
     3c0:	3b0b0000 	blcc	2c03c8 <__bss_end__+0x2b65e0>
     3c4:	00000004 	andeq	r0, r0, r4
     3c8:	0002cf0b 	andeq	ip, r2, fp, lsl #30
     3cc:	590b0300 	stmdbpl	fp, {r8, r9}
     3d0:	04000004 	streq	r0, [r0], #-4
     3d4:	0003080b 	andeq	r0, r3, fp, lsl #16
     3d8:	210b0d00 	tstcs	fp, r0, lsl #26
     3dc:	0e000004 	cdpeq	0, 0, cr0, cr0, cr4, {0}
     3e0:	00020b0b 	andeq	r0, r2, fp, lsl #22
     3e4:	ff0b0f00 			; <UNDEFINED> instruction: 0xff0b0f00
     3e8:	10000003 	andne	r0, r0, r3
     3ec:	0001d80b 	andeq	sp, r1, fp, lsl #16
     3f0:	f90b1300 			; <UNDEFINED> instruction: 0xf90b1300
     3f4:	14000001 	strne	r0, [r0], #-1
     3f8:	0004ff0b 	andeq	pc, r4, fp, lsl #30
     3fc:	da0b1d00 	ble	2c7804 <__bss_end__+0x2bda1c>
     400:	1e000003 	cdpne	0, 0, cr0, cr0, cr3, {0}
     404:	0004850b 	andeq	r8, r4, fp, lsl #10
     408:	0c001f00 	stceq	15, cr1, [r0], {-0}
     40c:	096d05a0 	stmdbeq	sp!, {r5, r7, r8, sl}^
     410:	000002b1 			; <UNDEFINED> instruction: 0x000002b1
     414:	0004a60e 	andeq	sl, r4, lr, lsl #12
     418:	0e6e0500 	cdpeq	5, 6, cr0, cr14, cr0, {0}
     41c:	000002b1 			; <UNDEFINED> instruction: 0x000002b1
     420:	024b0e00 	subeq	r0, fp, #0, 28
     424:	6f050000 	svcvs	0x00050000
     428:	0000690e 	andeq	r6, r0, lr, lsl #18
     42c:	1a0e9800 	bne	3a6434 <__bss_end__+0x39c64c>
     430:	05000003 	streq	r0, [r0, #-3]
     434:	00690e70 	rsbeq	r0, r9, r0, ror lr
     438:	009c0000 	addseq	r0, ip, r0
     43c:	00006910 	andeq	r6, r0, r0, lsl r9
     440:	0002c100 	andeq	ip, r2, r0, lsl #2
     444:	002c1100 	eoreq	r1, ip, r0, lsl #2
     448:	00250000 	eoreq	r0, r5, r0
     44c:	0001b204 	andeq	fp, r1, r4, lsl #4
     450:	03710500 	cmneq	r1, #0, 10
     454:	00000280 	andeq	r0, r0, r0, lsl #5
     458:	0002c10f 	andeq	ip, r2, pc, lsl #2
     45c:	02be1200 	adcseq	r1, lr, #0, 4
     460:	04020000 	streq	r0, [r2], #-0
     464:	0002e416 	andeq	lr, r2, r6, lsl r4
     468:	dc030500 	cfstr32le	mvfx0, [r3], {-0}
     46c:	08000093 	stmdaeq	r0, {r0, r1, r4, r7}
     470:	0001a004 	andeq	sl, r1, r4
     474:	03d21200 	bicseq	r1, r2, #0, 4
     478:	05020000 	streq	r0, [r2, #-0]
     47c:	0002fc15 	andeq	pc, r2, r5, lsl ip	; <UNPREDICTABLE>
     480:	d8030500 	stmdale	r3, {r8, sl}
     484:	08000093 	stmdaeq	r0, {r0, r1, r4, r7}
     488:	0002cd04 	andeq	ip, r2, r4, lsl #26
     48c:	04070a00 	streq	r0, [r7], #-2560	; 0xfffff600
     490:	0000002c 	andeq	r0, r0, ip, lsr #32
     494:	47060902 	strmi	r0, [r6, -r2, lsl #18]
     498:	13000003 	movwne	r0, #3
     49c:	00000242 	andeq	r0, r0, r2, asr #4
     4a0:	20101098 	mulscs	r0, r8, r0
     4a4:	00026513 	andeq	r6, r2, r3, lsl r5
     4a8:	10109c00 	andsne	r9, r0, r0, lsl #24
     4ac:	01f21320 	mvnseq	r1, r0, lsr #6
     4b0:	30080000 	andcc	r0, r8, r0
     4b4:	68132020 	ldmdavs	r3, {r5, sp}
     4b8:	0c000003 	stceq	0, cr0, [r0], {3}
     4bc:	13202030 			; <UNDEFINED> instruction: 0x13202030
     4c0:	000001d3 	ldrdeq	r0, [r0], -r3
     4c4:	20203000 	eorcs	r3, r0, r0
     4c8:	00051113 	andeq	r1, r5, r3, lsl r1
     4cc:	20300400 	eorscs	r0, r0, r0, lsl #8
     4d0:	0e140020 	cdpeq	0, 1, cr0, cr4, cr0, {1}
     4d4:	02000000 	andeq	r0, r0, #0, 0
     4d8:	00410965 	subeq	r0, r1, r5, ror #18
     4dc:	82200000 	eorhi	r0, r0, #0, 0
     4e0:	00300000 	eorseq	r0, r0, r0
     4e4:	9c010000 	stcls	0, cr0, [r1], {-0}
     4e8:	000003a6 	andeq	r0, r0, r6, lsr #7
     4ec:	6c617615 	stclvs	6, cr7, [r1], #-84	; 0xffffffac
     4f0:	0e670200 	cdpeq	2, 6, cr0, cr7, cr0, {0}
     4f4:	0000002c 	andeq	r0, r0, ip, lsr #32
     4f8:	0000003c 	andeq	r0, r0, ip, lsr r0
     4fc:	00000038 	andeq	r0, r0, r8, lsr r0
     500:	00822816 	addeq	r2, r2, r6, lsl r8
     504:	0009c700 	andeq	ip, r9, r0, lsl #14
     508:	82341700 	eorshi	r1, r4, #0, 14
     50c:	09d30000 	ldmibeq	r3, {}^	; <UNPREDICTABLE>
     510:	03920000 	orrseq	r0, r2, #0, 0
     514:	01180000 	tsteq	r8, r0
     518:	00740250 	rsbseq	r0, r4, r0, asr r2
     51c:	82481900 	subhi	r1, r8, #0, 18
     520:	09d30000 	ldmibeq	r3, {}^	; <UNPREDICTABLE>
     524:	01180000 	tsteq	r8, r0
     528:	040c0550 	streq	r0, [ip], #-1360	; 0xfffffab0
     52c:	00202030 	eoreq	r2, r0, r0, lsr r0
     530:	01861a00 	orreq	r1, r6, r0, lsl #20
     534:	1c020000 	stcne	0, cr0, [r2], {-0}
     538:	0080c006 	addeq	ip, r0, r6
     53c:	00016000 	andeq	r6, r1, r0
     540:	659c0100 	ldrvs	r0, [ip, #256]	; 0x100
     544:	1b000007 	blne	568 <__code_start__-0x7a98>
     548:	00000322 	andeq	r0, r0, r2, lsr #6
     54c:	00000775 	andeq	r0, r0, r5, ror r7
     550:	918c0305 	orrls	r0, ip, r5, lsl #6
     554:	76150000 	ldrvc	r0, [r5], -r0
     558:	02006c61 	andeq	r6, r0, #24832	; 0x6100
     55c:	002c0e2c 	eoreq	r0, ip, ip, lsr #28
     560:	008b0000 	addeq	r0, fp, r0
     564:	005b0000 	subseq	r0, fp, r0
     568:	7a1c0000 	bvc	700570 <__bss_end__+0x6f6788>
     56c:	20000007 	andcs	r0, r0, r7
     570:	53000081 	movwpl	r0, #129	; 0x81
     574:	00001800 	andeq	r1, r0, r0, lsl #16
     578:	0b2f0200 	bleq	bc0d80 <__bss_end__+0xbb6f98>
     57c:	00000403 	andeq	r0, r0, r3, lsl #8
     580:	00078b1d 	andeq	r8, r7, sp, lsl fp
     584:	00022d00 	andeq	r2, r2, r0, lsl #26
     588:	00022b00 	andeq	r2, r2, r0, lsl #22
     58c:	7a1e0000 	bvc	780594 <__bss_end__+0x7767ac>
     590:	4c000007 	stcmi	0, cr0, [r0], {7}
     594:	07000081 	streq	r0, [r0, -r1, lsl #1]
     598:	00814c00 	addeq	r4, r1, r0, lsl #24
     59c:	00000000 	andeq	r0, r0, r0
     5a0:	0b3c0200 	bleq	f00da8 <__bss_end__+0xef6fc0>
     5a4:	0000042b 	andeq	r0, r0, fp, lsr #8
     5a8:	00078b1d 	andeq	r8, r7, sp, lsl fp
     5ac:	00024c00 	andeq	r4, r2, r0, lsl #24
     5b0:	00024a00 	andeq	r4, r2, r0, lsl #20
     5b4:	981c0000 	ldmdals	ip, {}	; <UNPREDICTABLE>
     5b8:	68000007 	stmdavs	r0, {r0, r1, r2}
     5bc:	2a000081 	bcs	7c8 <__code_start__-0x7838>
     5c0:	00003000 	andeq	r3, r0, r0
     5c4:	0b450200 	bleq	1140dcc <__bss_end__+0x1136fe4>
     5c8:	00000489 	andeq	r0, r0, r9, lsl #9
     5cc:	0007c91d 	andeq	ip, r7, sp, lsl r9
     5d0:	00026500 	andeq	r6, r2, r0, lsl #10
     5d4:	00026300 	andeq	r6, r2, r0, lsl #6
     5d8:	07be1d00 	ldreq	r1, [lr, r0, lsl #26]!
     5dc:	027c0000 	rsbseq	r0, ip, #0, 0
     5e0:	027a0000 	rsbseq	r0, sl, #0, 0
     5e4:	b31d0000 	tstlt	sp, #0, 0
     5e8:	92000007 	andls	r0, r0, #7, 0
     5ec:	90000002 	andls	r0, r0, r2
     5f0:	1d000002 	stcne	0, cr0, [r0, #-8]
     5f4:	000007a9 	andeq	r0, r0, r9, lsr #15
     5f8:	000002a8 	andeq	r0, r0, r8, lsr #5
     5fc:	000002a6 	andeq	r0, r0, r6, lsr #5
     600:	0000301f 	andeq	r3, r0, pc, lsl r0
     604:	07e22000 	strbeq	r2, [r2, r0]!
     608:	02c80000 	sbceq	r0, r8, #0, 0
     60c:	02c60000 	sbceq	r0, r6, #0, 0
     610:	00000000 	andeq	r0, r0, r0
     614:	0008cd1c 	andeq	ip, r8, ip, lsl sp
     618:	00818800 	addeq	r8, r1, r0, lsl #16
     61c:	50003000 	andpl	r3, r0, r0
     620:	02000000 	andeq	r0, r0, #0, 0
     624:	04bf0b4b 	ldrteq	r0, [pc], #2891	; 62c <__code_start__-0x79d4>
     628:	e81d0000 	ldmda	sp, {}	; <UNPREDICTABLE>
     62c:	de000008 	cdple	0, 0, cr0, cr0, cr8, {0}
     630:	dc000002 	stcle	0, cr0, [r0], {2}
     634:	1d000002 	stcne	0, cr0, [r0, #-8]
     638:	000008de 	ldrdeq	r0, [r0], -lr
     63c:	000002f4 	strdeq	r0, [r0], -r4
     640:	000002f2 	strdeq	r0, [r0], -r2
     644:	00005021 	andeq	r5, r0, r1, lsr #32
     648:	cd1e0000 	ldcgt	0, cr0, [lr, #-0]
     64c:	a4000008 	strge	r0, [r0], #-8
     650:	19000081 	stmdbne	r0, {r0, r7}
     654:	0081a400 	addeq	sl, r1, r0, lsl #8
     658:	00000000 	andeq	r0, r0, r0
     65c:	0b570200 	bleq	15c0e64 <__bss_end__+0x15b707c>
     660:	000004f4 	strdeq	r0, [r0], -r4
     664:	0008e81d 	andeq	lr, r8, sp, lsl r8
     668:	00031600 	andeq	r1, r3, r0, lsl #12
     66c:	00031400 	andeq	r1, r3, r0, lsl #8
     670:	08de1d00 	ldmeq	lr, {r8, sl, fp, ip}^
     674:	032c0000 			; <UNDEFINED> instruction: 0x032c0000
     678:	032a0000 			; <UNDEFINED> instruction: 0x032a0000
     67c:	1c000000 	stcne	0, cr0, [r0], {-0}
     680:	00000870 	andeq	r0, r0, r0, ror r8
     684:	000081c0 	andeq	r8, r0, r0, asr #3
     688:	00680000 	rsbeq	r0, r8, r0
     68c:	5a020000 	bpl	80694 <__bss_end__+0x768ac>
     690:	0005560b 	andeq	r5, r5, fp, lsl #12
     694:	088b1d00 	stmeq	fp, {r8, sl, fp, ip}
     698:	03490000 	movteq	r0, #36864	; 0x9000
     69c:	03470000 	movteq	r0, #28672	; 0x7000
     6a0:	811d0000 	tsthi	sp, r0
     6a4:	5f000008 	svcpl	0x00000008
     6a8:	5d000003 	stcpl	0, cr0, [r0, #-12]
     6ac:	22000003 	andcs	r0, r0, #3, 0
     6b0:	00000898 	muleq	r0, r8, r8
     6b4:	000081c0 	andeq	r8, r0, r0, asr #3
     6b8:	81c00002 	bichi	r0, r0, r2
     6bc:	00000000 	andeq	r0, r0, r0
     6c0:	24010000 	strcs	r0, [r1], #-0
     6c4:	08b31d0c 	ldmeq	r3!, {r2, r3, r8, sl, fp, ip}
     6c8:	03740000 	cmneq	r4, #0, 0
     6cc:	03720000 	cmneq	r2, #0, 0
     6d0:	a91d0000 	ldmdbge	sp, {}	; <UNPREDICTABLE>
     6d4:	8a000008 	bhi	6fc <__code_start__-0x7904>
     6d8:	88000003 	stmdahi	r0, {r0, r1}
     6dc:	00000003 	andeq	r0, r0, r3
     6e0:	80d01700 	sbcshi	r1, r0, r0, lsl #14
     6e4:	09d30000 	ldmibeq	r3, {}^	; <UNPREDICTABLE>
     6e8:	056d0000 	strbeq	r0, [sp, #-0]!
     6ec:	01180000 	tsteq	r8, r0
     6f0:	000c0550 	andeq	r0, ip, r0, asr r5
     6f4:	00202030 	eoreq	r2, r0, r0, lsr r0
     6f8:	0080e417 	addeq	lr, r0, r7, lsl r4
     6fc:	0009df00 	andeq	sp, r9, r0, lsl #30
     700:	00058500 	andeq	r8, r5, r0, lsl #10
     704:	50011800 	andpl	r1, r1, r0, lsl #16
     708:	01184201 	tsteq	r8, r1, lsl #4
     70c:	00340151 	eorseq	r0, r4, r1, asr r1
     710:	0080f017 	addeq	pc, r0, r7, lsl r0	; <UNPREDICTABLE>
     714:	0009df00 	andeq	sp, r9, r0, lsl #30
     718:	00059d00 	andeq	r9, r5, r0, lsl #26
     71c:	50011800 	andpl	r1, r1, r0, lsl #16
     720:	01184301 	tsteq	r8, r1, lsl #6
     724:	00340151 	eorseq	r0, r4, r1, asr r1
     728:	0080fc17 	addeq	pc, r0, r7, lsl ip	; <UNPREDICTABLE>
     72c:	0009df00 	andeq	sp, r9, r0, lsl #30
     730:	0005b500 	andeq	fp, r5, r0, lsl #10
     734:	50011800 	andpl	r1, r1, r0, lsl #16
     738:	01184401 	tsteq	r8, r1, lsl #8
     73c:	00340151 	eorseq	r0, r4, r1, asr r1
     740:	00810417 	addeq	r0, r1, r7, lsl r4
     744:	0009eb00 	andeq	lr, r9, r0, lsl #22
     748:	0005c800 	andeq	ip, r5, r0, lsl #16
     74c:	50011800 	andpl	r1, r1, r0, lsl #16
     750:	17004201 	strne	r4, [r0, -r1, lsl #4]
     754:	0000810c 	andeq	r8, r0, ip, lsl #2
     758:	000009eb 	andeq	r0, r0, fp, ror #19
     75c:	000005db 	ldrdeq	r0, [r0], -fp
     760:	01500118 	cmpeq	r0, r8, lsl r1
     764:	14170043 	ldrne	r0, [r7], #-67	; 0xffffffbd
     768:	eb000081 	bl	974 <__code_start__-0x768c>
     76c:	ee000009 	cdp	0, 0, cr0, cr0, cr9, {0}
     770:	18000005 	stmdane	r0, {r0, r2}
     774:	44015001 	strmi	r5, [r1], #-1
     778:	81181600 	tsthi	r8, r0, lsl #12
     77c:	09c70000 	stmibeq	r7, {}^	; <UNPREDICTABLE>
     780:	20170000 	andscs	r0, r7, r0
     784:	d3000081 	movwle	r0, #129	; 0x81
     788:	0e000009 	cdpeq	0, 0, cr0, cr0, cr9, {0}
     78c:	18000006 	stmdane	r0, {r1, r2}
     790:	0c055001 	stceq	0, cr5, [r5], {1}
     794:	20101098 	mulscs	r0, r8, r0
     798:	81381700 	teqhi	r8, r0, lsl #14
     79c:	09f70000 	ldmibeq	r7!, {}^	; <UNPREDICTABLE>
     7a0:	06250000 	strteq	r0, [r5], -r0
     7a4:	01180000 	tsteq	r8, r0
     7a8:	980c0550 	stmdals	ip, {r4, r6, r8, sl}
     7ac:	00201010 	eoreq	r1, r0, r0, lsl r0
     7b0:	00814417 	addeq	r4, r1, r7, lsl r4
     7b4:	0009f700 	andeq	pc, r9, r0, lsl #14
     7b8:	00064500 	andeq	r4, r6, r0, lsl #10
     7bc:	50011800 	andpl	r1, r1, r0, lsl #16
     7c0:	109c0c05 	addsne	r0, ip, r5, lsl #24
     7c4:	01182010 	tsteq	r8, r0, lsl r0
     7c8:	d80c0551 	stmdale	ip, {r0, r4, r6, r8, sl}
     7cc:	005a006c 	subseq	r0, sl, ip, rrx
     7d0:	00814c17 	addeq	r4, r1, r7, lsl ip
     7d4:	0009d300 	andeq	sp, r9, r0, lsl #6
     7d8:	00065c00 	andeq	r5, r6, r0, lsl #24
     7dc:	50011800 	andpl	r1, r1, r0, lsl #16
     7e0:	10980c05 	addsne	r0, r8, r5, lsl #24
     7e4:	17002010 	smladne	r0, r0, r0, r2
     7e8:	0000815c 	andeq	r8, r0, ip, asr r1
     7ec:	000009f7 	strdeq	r0, [r0], -r7
     7f0:	00000673 	andeq	r0, r0, r3, ror r6
     7f4:	05500118 	ldrbeq	r0, [r0, #-280]	; 0xfffffee8
     7f8:	1010980c 	andsne	r9, r0, ip, lsl #16
     7fc:	60160020 	andsvs	r0, r6, r0, lsr #32
     800:	c7000081 	strgt	r0, [r0, -r1, lsl #1]
     804:	17000009 	strne	r0, [r0, -r9]
     808:	00008168 	andeq	r8, r0, r8, ror #2
     80c:	000009d3 	ldrdeq	r0, [r0], -r3
     810:	00000693 	muleq	r0, r3, r6
     814:	05500118 	ldrbeq	r0, [r0, #-280]	; 0xfffffee8
     818:	2030080c 	eorscs	r0, r0, ip, lsl #16
     81c:	80170020 	andshi	r0, r7, r0, lsr #32
     820:	f7000081 			; <UNDEFINED> instruction: 0xf7000081
     824:	aa000009 	bge	850 <__code_start__-0x77b0>
     828:	18000006 	stmdane	r0, {r1, r2}
     82c:	0c055001 	stceq	0, cr5, [r5], {1}
     830:	20203008 	eorcs	r3, r0, r8
     834:	81881700 	orrhi	r1, r8, r0, lsl #14
     838:	09d30000 	ldmibeq	r3, {}^	; <UNPREDICTABLE>
     83c:	06c10000 	strbeq	r0, [r1], r0
     840:	01180000 	tsteq	r8, r0
     844:	0c0c0550 	cfstr32eq	mvfx0, [ip], {80}	; 0x50
     848:	00202030 	eoreq	r2, r0, r0, lsr r0
     84c:	00819c17 	addeq	r9, r1, r7, lsl ip
     850:	0009f700 	andeq	pc, r9, r0, lsl #14
     854:	0006d800 	andeq	sp, r6, r0, lsl #16
     858:	50011800 	andpl	r1, r1, r0, lsl #16
     85c:	300c0c05 	andcc	r0, ip, r5, lsl #24
     860:	17002020 	strne	r2, [r0, -r0, lsr #32]
     864:	000081a4 	andeq	r8, r0, r4, lsr #3
     868:	000009d3 	ldrdeq	r0, [r0], -r3
     86c:	000006ef 	andeq	r0, r0, pc, ror #13
     870:	05500118 	ldrbeq	r0, [r0, #-280]	; 0xfffffee8
     874:	2030000c 	eorscs	r0, r0, ip
     878:	b4170020 	ldrlt	r0, [r7], #-32	; 0xffffffe0
     87c:	f7000081 			; <UNDEFINED> instruction: 0xf7000081
     880:	06000009 	streq	r0, [r0], -r9
     884:	18000007 	stmdane	r0, {r0, r1, r2}
     888:	0c055001 	stceq	0, cr5, [r5], {1}
     88c:	20203000 	eorcs	r3, r0, r0
     890:	81c01700 	bichi	r1, r0, r0, lsl #14
     894:	09d30000 	ldmibeq	r3, {}^	; <UNPREDICTABLE>
     898:	071a0000 	ldreq	r0, [sl, -r0]
     89c:	01180000 	tsteq	r8, r0
     8a0:	00740250 	rsbseq	r0, r4, r0, asr r2
     8a4:	81d42300 	bicshi	r2, r4, r0, lsl #6
     8a8:	09c70000 	stmibeq	r7, {}^	; <UNPREDICTABLE>
     8ac:	f0170000 			; <UNDEFINED> instruction: 0xf0170000
     8b0:	03000081 	movweq	r0, #129	; 0x81
     8b4:	5b00000a 	blpl	8e4 <__code_start__-0x771c>
     8b8:	18000007 	stmdane	r0, {r0, r1, r2}
     8bc:	03055001 	movweq	r5, #20481	; 0x5001
     8c0:	00009128 	andeq	r9, r0, r8, lsr #2
     8c4:	05510118 	ldrbeq	r0, [r1, #-280]	; 0xfffffee8
     8c8:	00915403 	addseq	r5, r1, r3, lsl #8
     8cc:	52011800 	andpl	r1, r1, #0, 16
     8d0:	918c0305 	orrls	r0, ip, r5, lsl #6
     8d4:	01180000 	tsteq	r8, r0
     8d8:	184d0153 	stmdane	sp, {r0, r1, r4, r6, r8}^
     8dc:	05007d02 	streq	r7, [r0, #-3330]	; 0xfffff2fe
     8e0:	00915c03 	addseq	r5, r1, r3, lsl #24
     8e4:	f4160000 			; <UNDEFINED> instruction: 0xf4160000
     8e8:	0f000081 	svceq	0x00000081
     8ec:	0000000a 	andeq	r0, r0, sl
     8f0:	0000c010 	andeq	ip, r0, r0, lsl r0
     8f4:	00077500 	andeq	r7, r7, r0, lsl #10
     8f8:	002c1100 	eoreq	r1, ip, r0, lsl #2
     8fc:	00080000 	andeq	r0, r8, r0
     900:	00076509 	andeq	r6, r7, r9, lsl #10
     904:	03792400 	cmneq	r9, #0, 8
     908:	15020000 	strne	r0, [r2, #-0]
     90c:	0000690a 	andeq	r6, r0, sl, lsl #18
     910:	07980100 	ldreq	r0, [r8, r0, lsl #2]
     914:	76250000 	strtvc	r0, [r5], -r0
     918:	02006c61 	andeq	r6, r0, #24832	; 0x6100
     91c:	00692015 	rsbeq	r2, r9, r5, lsl r0
     920:	26000000 	strcs	r0, [r0], -r0
     924:	000003c9 	andeq	r0, r0, r9, asr #7
     928:	69014d01 	stmdbvs	r1, {r0, r8, sl, fp, lr}
     92c:	03000000 	movweq	r0, #0
     930:	000007ed 	andeq	r0, r0, sp, ror #15
     934:	01007825 	tsteq	r0, r5, lsr #16
     938:	0069134d 	rsbeq	r1, r9, sp, asr #6
     93c:	6c250000 	stcvs	0, cr0, [r5], #-0
     940:	4d010062 	stcmi	0, cr0, [r1, #-392]	; 0xfffffe78
     944:	00002c1f 	andeq	r2, r0, pc, lsl ip
     948:	62752500 	rsbsvs	r2, r5, #0, 10
     94c:	2c4d0100 	stfcse	f0, [sp], {-0}
     950:	0000002c 	andeq	r0, r0, ip, lsr #32
     954:	01007625 	tsteq	r0, r5, lsr #12
     958:	0069394d 	rsbeq	r3, r9, sp, asr #18
     95c:	221b0000 	andscs	r0, fp, #0, 0
     960:	75000003 	strvc	r0, [r0, #-3]
     964:	05000007 	streq	r0, [r0, #-7]
     968:	00918003 	addseq	r8, r1, r3
     96c:	006e2700 	rsbeq	r2, lr, r0, lsl #14
     970:	2c0e5601 	stccs	6, cr5, [lr], {1}
     974:	00000000 	andeq	r0, r0, r0
     978:	0002e726 	andeq	lr, r2, r6, lsr #14
     97c:	01410100 	mrseq	r0, (UNDEF: 81)
     980:	00000069 	andeq	r0, r0, r9, rrx
     984:	00083403 	andeq	r3, r8, r3, lsl #8
     988:	00782500 	rsbseq	r2, r8, r0, lsl #10
     98c:	69134101 	ldmdbvs	r3, {r0, r8, lr}
     990:	25000000 	strcs	r0, [r0, #-0]
     994:	0100626c 	tsteq	r0, ip, ror #4
     998:	002c1f41 	eoreq	r1, ip, r1, asr #30
     99c:	75250000 	strvc	r0, [r5, #-0]!
     9a0:	41010062 	tstmi	r1, r2, rrx
     9a4:	00002c2c 	andeq	r2, r0, ip, lsr #24
     9a8:	03222800 			; <UNDEFINED> instruction: 0x03222800
     9ac:	07750000 	ldrbeq	r0, [r5, -r0]!
     9b0:	80290000 	eorhi	r0, r9, r0
     9b4:	01000004 	tsteq	r0, r4
     9b8:	00690e45 	rsbeq	r0, r9, r5, asr #28
     9bc:	26000000 	strcs	r0, [r0], -r0
     9c0:	0000047b 	andeq	r0, r0, fp, ror r4
     9c4:	69182f01 	ldmdbvs	r8, {r0, r8, r9, sl, fp, sp}
     9c8:	03000000 	movweq	r0, #0
     9cc:	0000085b 	andeq	r0, r0, fp, asr r8
     9d0:	0002e12a 	andeq	lr, r2, sl, lsr #2
     9d4:	2b2f0100 	blcs	bc0ddc <__bss_end__+0xbb6ff4>
     9d8:	0000002c 	andeq	r0, r0, ip, lsr #32
     9dc:	00032228 	andeq	r2, r3, r8, lsr #4
     9e0:	00086b00 	andeq	r6, r8, r0, lsl #22
     9e4:	c0100000 	andsgt	r0, r0, r0
     9e8:	6b000000 	blvs	9f0 <__code_start__-0x7610>
     9ec:	11000008 	tstne	r0, r8
     9f0:	0000002c 	andeq	r0, r0, ip, lsr #32
     9f4:	5b090009 	blpl	240a20 <__bss_end__+0x236c38>
     9f8:	26000008 	strcs	r0, [r0], -r8
     9fc:	000002f0 	strdeq	r0, [r0], -r0	; <UNPREDICTABLE>
     a00:	2c012301 	stccs	3, cr2, [r1], {1}
     a04:	03000000 	movweq	r0, #0
     a08:	00000898 	muleq	r0, r8, r8
     a0c:	01007825 	tsteq	r0, r5, lsr #16
     a10:	00691523 	rsbeq	r1, r9, r3, lsr #10
     a14:	62250000 	eorvs	r0, r5, #0, 0
     a18:	01007469 	tsteq	r0, r9, ror #8
     a1c:	002c2123 	eoreq	r2, ip, r3, lsr #2
     a20:	26000000 	strcs	r0, [r0], -r0
     a24:	0000034f 	andeq	r0, r0, pc, asr #6
     a28:	2c011e01 	stccs	14, cr1, [r1], {1}
     a2c:	03000000 	movweq	r0, #0
     a30:	000008cd 	andeq	r0, r0, sp, asr #17
     a34:	01007825 	tsteq	r0, r5, lsr #16
     a38:	0069141e 	rsbeq	r1, r9, lr, lsl r4
     a3c:	62250000 	eorvs	r0, r5, #0, 0
     a40:	01007469 	tsteq	r0, r9, ror #8
     a44:	002c201e 	eoreq	r2, ip, lr, lsl r0
     a48:	222b0000 	eorcs	r0, fp, #0, 0
     a4c:	6b000003 	blvs	a60 <__code_start__-0x75a0>
     a50:	4f000008 	svcmi	0x00000008
     a54:	00000003 	andeq	r0, r0, r3
     a58:	0002c726 	andeq	ip, r2, r6, lsr #14
     a5c:	010e0100 	mrseq	r0, (UNDEF: 30)
     a60:	00000069 	andeq	r0, r0, r9, rrx
     a64:	00090203 	andeq	r0, r9, r3, lsl #4
     a68:	00782500 	rsbseq	r2, r8, r0, lsl #10
     a6c:	69120e01 	ldmdbvs	r2, {r0, r9, sl, fp}
     a70:	25000000 	strcs	r0, [r0, #-0]
     a74:	00746962 	rsbseq	r6, r4, r2, ror #18
     a78:	2c1e0e01 	ldccs	14, cr0, [lr], {1}
     a7c:	2b000000 	blcs	a84 <__code_start__-0x757c>
     a80:	00000322 	andeq	r0, r0, r2, lsr #6
     a84:	00000912 	andeq	r0, r0, r2, lsl r9
     a88:	000002c7 	andeq	r0, r0, r7, asr #5
     a8c:	00c01000 	sbceq	r1, r0, r0
     a90:	09120000 	ldmdbeq	r2, {}	; <UNPREDICTABLE>
     a94:	2c110000 	ldccs	0, cr0, [r1], {-0}
     a98:	07000000 	streq	r0, [r0, -r0]
     a9c:	09020900 	stmdbeq	r2, {r8, fp}
     aa0:	982c0000 	stmdals	ip!, {}	; <UNPREDICTABLE>
     aa4:	80000007 	andhi	r0, r0, r7
     aa8:	38000080 	stmdacc	r0, {r7}
     aac:	01000000 	mrseq	r0, (UNDEF: 0)
     ab0:	0009a69c 	muleq	r9, ip, r6
     ab4:	07e22d00 	strbeq	r2, [r2, r0, lsl #26]!
     ab8:	c91d0000 	ldmdbgt	sp, {}	; <UNPREDICTABLE>
     abc:	9f000007 	svcls	0x00000007
     ac0:	9d000003 	stcls	0, cr0, [r0, #-12]
     ac4:	1d000003 	stcne	0, cr0, [r0, #-12]
     ac8:	000007be 			; <UNDEFINED> instruction: 0x000007be
     acc:	000003b9 			; <UNDEFINED> instruction: 0x000003b9
     ad0:	000003b7 			; <UNDEFINED> instruction: 0x000003b7
     ad4:	0007b31d 	andeq	fp, r7, sp, lsl r3
     ad8:	0003d300 	andeq	sp, r3, r0, lsl #6
     adc:	0003d100 	andeq	sp, r3, r0, lsl #2
     ae0:	07a91d00 	streq	r1, [r9, r0, lsl #26]!
     ae4:	03ed0000 	mvneq	r0, #0, 0
     ae8:	03eb0000 	mvneq	r0, #0, 0
     aec:	a4170000 	ldrge	r0, [r7], #-0
     af0:	03000080 	movweq	r0, #128	; 0x80
     af4:	9c00000a 	stcls	0, cr0, [r0], {10}
     af8:	18000009 	stmdane	r0, {r0, r3}
     afc:	03055001 	movweq	r5, #20481	; 0x5001
     b00:	00009128 	andeq	r9, r0, r8, lsr #2
     b04:	05510118 	ldrbeq	r0, [r1, #-280]	; 0xfffffee8
     b08:	0090d003 	addseq	sp, r0, r3
     b0c:	52011800 	andpl	r1, r1, #0, 16
     b10:	91800305 	orrls	r0, r0, r5, lsl #6
     b14:	01180000 	tsteq	r8, r0
     b18:	58080253 	stmdapl	r8, {r0, r1, r4, r6, r9}
     b1c:	007d0218 	rsbseq	r0, sp, r8, lsl r2
     b20:	913c0305 	teqls	ip, r5, lsl #6
     b24:	16000000 	strne	r0, [r0], -r0
     b28:	000080a8 	andeq	r8, r0, r8, lsr #1
     b2c:	00000a0f 	andeq	r0, r0, pc, lsl #20
     b30:	077a2c00 	ldrbeq	r2, [sl, -r0, lsl #24]!
     b34:	80b80000 	adcshi	r0, r8, r0
     b38:	00080000 	andeq	r0, r8, r0
     b3c:	9c010000 	stcls	0, cr0, [r1], {-0}
     b40:	000009c7 	andeq	r0, r0, r7, asr #19
     b44:	00078b1d 	andeq	r8, r7, sp, lsl fp
     b48:	00040900 	andeq	r0, r4, r0, lsl #18
     b4c:	00040500 	andeq	r0, r4, r0, lsl #10
     b50:	4d2e0000 	stcmi	0, cr0, [lr, #-0]
     b54:	4d000004 	stcmi	0, cr0, [r0, #-16]
     b58:	04000004 	streq	r0, [r0], #-4
     b5c:	3c2e06a1 	stccc	6, cr0, [lr], #-644	; 0xfffffd7c
     b60:	3c000003 	stccc	0, cr0, [r0], {3}
     b64:	04000003 	streq	r0, [r0], #-3
     b68:	942e0ac7 	strtls	r0, [lr], #-2759	; 0xfffff539
     b6c:	94000004 	strls	r0, [r0], #-4
     b70:	06000004 	streq	r0, [r0], -r4
     b74:	ca2e0619 	bgt	b823e0 <__bss_end__+0xb785f8>
     b78:	ca000004 	bgt	b90 <__code_start__-0x7470>
     b7c:	06000004 	streq	r0, [r0], -r4
     b80:	b12e0627 			; <UNDEFINED> instruction: 0xb12e0627
     b84:	b1000004 	tstlt	r0, r4
     b88:	04000004 	streq	r0, [r0], #-4
     b8c:	fa2e06b2 	blx	b8265c <__bss_end__+0xb78874>
     b90:	fa000006 	blx	bb0 <__code_start__-0x7450>
     b94:	04000006 	streq	r0, [r0], #-6
     b98:	422e0628 	eormi	r0, lr, #40, 12	; 0x2800000
     b9c:	42000003 	andmi	r0, r0, #3, 0
     ba0:	04000003 	streq	r0, [r0], #-3
     ba4:	a200066e 	andge	r0, r0, #115343360	; 0x6e00000
     ba8:	04000005 	streq	r0, [r0], #-5
     bac:	0003a800 	andeq	sl, r3, r0, lsl #16
     bb0:	b6010400 	strlt	r0, [r1], -r0, lsl #8
     bb4:	0c000000 	stceq	0, cr0, [r0], {-0}
     bb8:	00000582 	andeq	r0, r0, r2, lsl #11
     bbc:	00000048 	andeq	r0, r0, r8, asr #32
     bc0:	00008250 	andeq	r8, r0, r0, asr r2
     bc4:	00000104 	andeq	r0, r0, r4, lsl #2
     bc8:	00000cdf 	ldrdeq	r0, [r0], -pc	; <UNPREDICTABLE>
     bcc:	69050402 	stmdbvs	r5, {r1, sl}
     bd0:	0300746e 	movweq	r7, #1134	; 0x46e
     bd4:	003b0704 	eorseq	r0, fp, r4, lsl #14
     bd8:	01030000 	mrseq	r0, (UNDEF: 3)
     bdc:	0000aa06 	andeq	sl, r0, r6, lsl #20
     be0:	05e60400 	strbeq	r0, [r6, #1024]!	; 0x400
     be4:	25030000 	strcs	r0, [r3, #-0]
     be8:	00004618 	andeq	r4, r0, r8, lsl r6
     bec:	05020300 	streq	r0, [r2, #-768]	; 0xfffffd00
     bf0:	0000018f 	andeq	r0, r0, pc, lsl #3
     bf4:	0003a204 	andeq	sl, r3, r4, lsl #4
     bf8:	18280300 	stmdane	r8!, {r8, r9}
     bfc:	00000059 	andeq	r0, r0, r9, asr r0
     c00:	05050403 	streq	r0, [r5, #-1027]	; 0xfffffbfd
     c04:	03000000 	movweq	r0, #0
     c08:	00000508 	andeq	r0, r0, r8, lsl #10
     c0c:	01030000 	mrseq	r0, (UNDEF: 3)
     c10:	0000a808 	andeq	sl, r0, r8, lsl #16
     c14:	07020300 	streq	r0, [r2, -r0, lsl #6]
     c18:	00000173 	andeq	r0, r0, r3, ror r1
     c1c:	36070403 	strcc	r0, [r7], -r3, lsl #8
     c20:	03000000 	movweq	r0, #0
     c24:	00310708 	eorseq	r0, r1, r8, lsl #14
     c28:	25050000 	strcs	r0, [r5, #-0]
     c2c:	92000000 	andls	r0, r0, #0, 0
     c30:	06000000 	streq	r0, [r0], -r0
     c34:	00000025 	andeq	r0, r0, r5, lsr #32
     c38:	01a60700 			; <UNDEFINED> instruction: 0x01a60700
     c3c:	1c040000 	stcne	0, cr0, [r4], {-0}
     c40:	00009e0e 	andeq	r9, r0, lr, lsl #28
     c44:	83040800 	movwhi	r0, #18432	; 0x4800
     c48:	05000000 	streq	r0, [r0, #-0]
     c4c:	00000025 	andeq	r0, r0, r5, lsr #32
     c50:	000000b3 	strheq	r0, [r0], -r3
     c54:	0000b306 	andeq	fp, r0, r6, lsl #6
     c58:	04080000 	streq	r0, [r8], #-0
     c5c:	000000c0 	andeq	r0, r0, r0, asr #1
     c60:	b1080103 	tstlt	r8, r3, lsl #2
     c64:	09000000 	stmdbeq	r0, {}	; <UNPREDICTABLE>
     c68:	000000b9 	strheq	r0, [r0], -r9
     c6c:	00077f07 	andeq	r7, r7, r7, lsl #30
     c70:	0e210400 	cdpeq	4, 2, cr0, cr1, cr0, {0}
     c74:	000000d1 	ldrdeq	r0, [r0], -r1
     c78:	00a40408 	adceq	r0, r4, r8, lsl #8
     c7c:	3a0a0000 	bcc	280c84 <__bss_end__+0x276e9c>
     c80:	e8000000 	stmda	r0, {}	; <UNPREDICTABLE>
     c84:	0b000000 	bleq	c8c <__code_start__-0x7374>
     c88:	0000002c 	andeq	r0, r0, ip, lsr #32
     c8c:	0c0002ff 	sfmeq	f0, 4, [r0], {255}	; 0xff
     c90:	000005fd 	strdeq	r0, [r0], -sp
     c94:	d7090a05 	strle	r0, [r9, -r5, lsl #20]
     c98:	05000000 	streq	r0, [r0, #-0]
     c9c:	0093e003 	addseq	lr, r3, r3
     ca0:	059e0d00 	ldreq	r0, [lr, #3328]	; 0xd00
     ca4:	69010000 	stmdbvs	r1, {}	; <UNPREDICTABLE>
     ca8:	00004d09 	andeq	r4, r0, r9, lsl #26
     cac:	00832c00 	addeq	r2, r3, r0, lsl #24
     cb0:	00002800 	andeq	r2, r0, r0, lsl #16
     cb4:	e29c0100 	adds	r0, ip, #0
     cb8:	0e000001 	cdpeq	0, 0, cr0, cr0, cr1, {0}
     cbc:	00000bef 	andeq	r0, r0, pc, ror #23
     cc0:	e2216901 	eor	r6, r1, #16384	; 0x4000
     cc4:	2e000001 	cdpcs	0, 0, cr0, cr0, cr1, {0}
     cc8:	2a000004 	bcs	ce0 <__code_start__-0x7320>
     ccc:	0e000004 	cdpeq	0, 0, cr0, cr0, cr4, {0}
     cd0:	00000540 	andeq	r0, r0, r0, asr #10
     cd4:	4d2f6901 			; <UNDEFINED> instruction: 0x4d2f6901
     cd8:	53000000 	movwpl	r0, #0
     cdc:	4f000004 	svcmi	0x00000004
     ce0:	0e000004 	cdpeq	0, 0, cr0, cr0, cr4, {0}
     ce4:	00000566 	andeq	r0, r0, r6, ror #10
     ce8:	2c426901 	mcrrcs	9, 0, r6, r2, cr1	; <UNPREDICTABLE>
     cec:	78000000 	stmdavc	r0, {}	; <UNPREDICTABLE>
     cf0:	74000004 	strvc	r0, [r0], #-4
     cf4:	0f000004 	svceq	0x00000004
     cf8:	00000322 	andeq	r0, r0, r2, lsr #6
     cfc:	000001f8 	strdeq	r0, [r0], -r8
     d00:	92540305 	subsls	r0, r4, #335544320	; 0x14000000
     d04:	69100000 	ldmdbvs	r0, {}	; <UNPREDICTABLE>
     d08:	0d6c0100 	stfeqe	f0, [ip, #-0]
     d0c:	0000004d 	andeq	r0, r0, sp, asr #32
     d10:	01004e10 	tsteq	r0, r0, lsl lr
     d14:	002c0e6d 	eoreq	r0, ip, sp, ror #28
     d18:	98110000 	ldmdals	r1, {}	; <UNPREDICTABLE>
     d1c:	01000005 	tsteq	r0, r5
     d20:	004d0d6e 	subeq	r0, sp, lr, ror #26
     d24:	8d110000 	ldchi	0, cr0, [r1, #-0]
     d28:	01000005 	tsteq	r0, r5
     d2c:	01e20e6f 	mvneq	r0, pc, ror #28
     d30:	61110000 	tstvs	r1, r0
     d34:	01000005 	tsteq	r0, r5
     d38:	01e20e70 	mvneq	r0, r0, ror lr
     d3c:	a9120000 	ldmdbge	r2, {}	; <UNPREDICTABLE>
     d40:	11000001 	tstne	r0, r1
     d44:	0000053b 	andeq	r0, r0, fp, lsr r5
     d48:	3a117601 	bcc	45e554 <__bss_end__+0x45476c>
     d4c:	00000000 	andeq	r0, r0, r0
     d50:	00834413 	addeq	r4, r3, r3, lsl r4
     d54:	00058d00 	andeq	r8, r5, r0, lsl #26
     d58:	0001d800 	andeq	sp, r1, r0, lsl #16
     d5c:	50011400 	andpl	r1, r1, r0, lsl #8
     d60:	92040305 	andls	r0, r4, #335544320	; 0x14000000
     d64:	01140000 	tsteq	r4, r0
     d68:	98030551 	stmdals	r3, {r0, r4, r6, r8, sl}
     d6c:	14000091 	strne	r0, [r0], #-145	; 0xffffff6f
     d70:	03055201 	movweq	r5, #20993	; 0x5201
     d74:	00009254 	andeq	r9, r0, r4, asr r2
     d78:	02530114 	subseq	r0, r3, #5
     d7c:	15006a08 	strne	r6, [r0, #-2568]	; 0xfffff5f8
     d80:	00008348 	andeq	r8, r0, r8, asr #6
     d84:	00000599 	muleq	r0, r9, r5
     d88:	3a040800 	bcc	102d90 <__bss_end__+0xf8fa8>
     d8c:	0a000000 	beq	d94 <__code_start__-0x726c>
     d90:	000000c0 	andeq	r0, r0, r0, asr #1
     d94:	000001f8 	strdeq	r0, [r0], -r8
     d98:	00002c16 	andeq	r2, r0, r6, lsl ip
     d9c:	09000e00 	stmdbeq	r0, {r9, sl, fp}
     da0:	000001e8 	andeq	r0, r0, r8, ror #3
     da4:	0005ee0d 	andeq	lr, r5, sp, lsl #28
     da8:	090a0100 	stmdbeq	sl, {r8}
     dac:	0000004d 	andeq	r0, r0, sp, asr #32
     db0:	00008250 	andeq	r8, r0, r0, asr r2
     db4:	000000dc 	ldrdeq	r0, [r0], -ip
     db8:	05079c01 	streq	r9, [r7, #-3073]	; 0xfffff3ff
     dbc:	8d0e0000 	stchi	0, cr0, [lr, #-0]
     dc0:	01000005 	tsteq	r0, r5
     dc4:	01e2210a 	mvneq	r2, sl, lsl #2
     dc8:	04a50000 	strteq	r0, [r5], #0
     dcc:	04990000 	ldreq	r0, [r9], #0
     dd0:	610e0000 	mrsvs	r0, (UNDEF: 14)
     dd4:	01000005 	tsteq	r0, r5
     dd8:	01e2300a 	mvneq	r3, sl
     ddc:	05000000 	streq	r0, [r0, #-0]
     de0:	04f80000 	ldrbteq	r0, [r8], #0
     de4:	400e0000 	andmi	r0, lr, r0
     de8:	01000005 	tsteq	r0, r5
     dec:	003a3e0a 	eorseq	r3, sl, sl, lsl #28
     df0:	05420000 	strbeq	r0, [r2, #-0]
     df4:	053a0000 	ldreq	r0, [sl, #-0]!
     df8:	660e0000 	strvs	r0, [lr], -r0
     dfc:	01000005 	tsteq	r0, r5
     e00:	002c510a 	eoreq	r5, ip, sl, lsl #2
     e04:	05840000 	streq	r0, [r4]
     e08:	057c0000 	ldrbeq	r0, [ip, #-0]!
     e0c:	6e170000 	cdpvs	0, 1, cr0, cr7, cr0, {0}
     e10:	0e0c0100 	adfeqe	f0, f4, f0
     e14:	0000002c 	andeq	r0, r0, ip, lsr #32
     e18:	000005c0 	andeq	r0, r0, r0, asr #11
     e1c:	000005be 			; <UNDEFINED> instruction: 0x000005be
     e20:	0003220f 	andeq	r2, r3, pc, lsl #4
     e24:	0001f800 	andeq	pc, r1, r0, lsl #16
     e28:	34030500 	strcc	r0, [r3], #-1280	; 0xfffffb00
     e2c:	18000092 	stmdane	r0, {r1, r4, r7}
     e30:	00000598 	muleq	r0, r8, r5
     e34:	4d0d1201 	sfmmi	f1, 4, [sp, #-4]
     e38:	d5000000 	strle	r0, [r0, #-0]
     e3c:	d3000005 	movwle	r0, #5
     e40:	18000005 	stmdane	r0, {r0, r2}
     e44:	00000532 	andeq	r0, r0, r2, lsr r5
     e48:	4d0d1301 	stcmi	3, cr1, [sp, #-4]
     e4c:	f1000000 	cps	#0
     e50:	e9000005 	stmdb	r0, {r0, r2}
     e54:	17000005 	strne	r0, [r0, -r5]
     e58:	006e656c 	rsbeq	r6, lr, ip, ror #10
     e5c:	2c0e2901 			; <UNDEFINED> instruction: 0x2c0e2901
     e60:	29000000 	stmdbcs	r0, {}	; <UNPREDICTABLE>
     e64:	27000006 	strcs	r0, [r0, -r6]
     e68:	11000006 	tstne	r0, r6
     e6c:	000005c9 	andeq	r0, r0, r9, asr #11
     e70:	3a0d2a01 	bcc	34b67c <__bss_end__+0x341894>
     e74:	19000000 	stmdbne	r0, {}	; <UNPREDICTABLE>
     e78:	00000080 	andeq	r0, r0, r0, lsl #1
     e7c:	00000334 	andeq	r0, r0, r4, lsr r3
     e80:	00052918 	andeq	r2, r5, r8, lsl r9
     e84:	13160100 	tstne	r6, #0
     e88:	0000002c 	andeq	r0, r0, ip, lsr #32
     e8c:	00000643 	andeq	r0, r0, r3, asr #12
     e90:	0000063d 	andeq	r0, r0, sp, lsr r6
     e94:	0082801a 	addeq	r8, r2, sl, lsl r0
     e98:	00004800 	andeq	r4, r0, r0, lsl #16
     e9c:	656c1700 	strbvs	r1, [ip, #-1792]!	; 0xfffff900
     ea0:	1701006e 	strne	r0, [r1, -lr, rrx]
     ea4:	00002c12 	andeq	r2, r0, r2, lsl ip
     ea8:	00067200 	andeq	r7, r6, r0, lsl #4
     eac:	00066e00 	andeq	r6, r6, r0, lsl #28
     eb0:	060a1800 	streq	r1, [sl], -r0, lsl #16
     eb4:	21010000 	mrscs	r0, (UNDEF: 1)
     eb8:	00003a11 	andeq	r3, r0, r1, lsl sl
     ebc:	00069600 	andeq	r9, r6, r0, lsl #12
     ec0:	00069200 	andeq	r9, r6, r0, lsl #4
     ec4:	05ad1800 	streq	r1, [sp, #2048]!	; 0x800
     ec8:	24010000 	strcs	r0, [r1], #-0
     ecc:	00003a11 	andeq	r3, r0, r1, lsl sl
     ed0:	0006ba00 	andeq	fp, r6, r0, lsl #20
     ed4:	0006b800 	andeq	fp, r6, r0, lsl #16
     ed8:	1b000000 	blne	ee0 <__code_start__-0x7120>
     edc:	000082dc 	ldrdeq	r8, [r0], -ip
     ee0:	00000018 	andeq	r0, r0, r8, lsl r0
     ee4:	000004cf 	andeq	r0, r0, pc, asr #9
     ee8:	00057c18 	andeq	r7, r5, r8, lsl ip
     eec:	112c0100 			; <UNDEFINED> instruction: 0x112c0100
     ef0:	0000004d 	andeq	r0, r0, sp, asr #32
     ef4:	000006cf 	andeq	r0, r0, pc, asr #13
     ef8:	000006cd 	andeq	r0, r0, sp, asr #13
     efc:	00055318 	andeq	r5, r5, r8, lsl r3
     f00:	12420100 	subne	r0, r2, #0
     f04:	0000002c 	andeq	r0, r0, ip, lsr #32
     f08:	000006e5 	andeq	r0, r0, r5, ror #13
     f0c:	000006e3 	andeq	r0, r0, r3, ror #13
     f10:	00038512 	andeq	r8, r3, r2, lsl r5
     f14:	00691000 	rsbeq	r1, r9, r0
     f18:	2c1b3001 	ldccs	0, cr3, [fp], {1}
     f1c:	1c000000 	stcne	0, cr0, [r0], {-0}
     f20:	01006a10 	tsteq	r0, r0, lsl sl
     f24:	003a1931 	eorseq	r1, sl, r1, lsr r9
     f28:	00000000 	andeq	r0, r0, r0
     f2c:	0082dc1a 	addeq	sp, r2, sl, lsl ip
     f30:	00001800 	andeq	r1, r0, r0, lsl #16
     f34:	05e11800 	strbeq	r1, [r1, #2048]!	; 0x800
     f38:	43010000 	movwmi	r0, #4096	; 0x1000
     f3c:	00002c17 	andeq	r2, r0, r7, lsl ip
     f40:	0006fb00 	andeq	pc, r6, r0, lsl #22
     f44:	0006f900 	andeq	pc, r6, r0, lsl #18
     f48:	82dc1a00 	sbcshi	r1, ip, #0, 20
     f4c:	00180000 	andseq	r0, r8, r0
     f50:	6a170000 	bvs	5c0f58 <__bss_end__+0x5b7170>
     f54:	15440100 	strbne	r0, [r4, #-256]	; 0xffffff00
     f58:	0000004d 	andeq	r0, r0, sp, asr #32
     f5c:	00000713 	andeq	r0, r0, r3, lsl r7
     f60:	0000070f 	andeq	r0, r0, pc, lsl #14
     f64:	00058818 	andeq	r8, r5, r8, lsl r8
     f68:	15460100 	strbne	r0, [r6, #-256]	; 0xffffff00
     f6c:	0000003a 	andeq	r0, r0, sl, lsr r0
     f70:	00000735 	andeq	r0, r0, r5, lsr r7
     f74:	00000733 	andeq	r0, r0, r3, lsr r7
     f78:	00055c18 	andeq	r5, r5, r8, lsl ip
     f7c:	15470100 	strbne	r0, [r7, #-256]	; 0xffffff00
     f80:	0000003a 	andeq	r0, r0, sl, lsr r0
     f84:	0000074e 	andeq	r0, r0, lr, asr #14
     f88:	0000074c 	andeq	r0, r0, ip, asr #14
     f8c:	0082dc1a 	addeq	sp, r2, sl, lsl ip
     f90:	00001800 	andeq	r1, r0, r0, lsl #16
     f94:	00691700 	rsbeq	r1, r9, r0, lsl #14
     f98:	2c1b5201 	lfmcs	f5, 4, [fp], {1}
     f9c:	6b000000 	blvs	fa4 <__code_start__-0x705c>
     fa0:	69000007 	stmdbvs	r0, {r0, r1, r2}
     fa4:	1a000007 	bne	fc8 <__code_start__-0x7038>
     fa8:	000082dc 	ldrdeq	r8, [r0], -ip
     fac:	00000018 	andeq	r0, r0, r8, lsl r0
     fb0:	00054911 	andeq	r4, r5, r1, lsl r9
     fb4:	19540100 	ldmdbne	r4, {r8}^
     fb8:	0000003a 	andeq	r0, r0, sl, lsr r0
     fbc:	00061411 	andeq	r1, r6, r1, lsl r4
     fc0:	19550100 	ldmdbne	r5, {r8}^
     fc4:	0000003a 	andeq	r0, r0, sl, lsr r0
     fc8:	00061e11 	andeq	r1, r6, r1, lsl lr
     fcc:	19560100 	ldmdbne	r6, {r8}^
     fd0:	0000003a 	andeq	r0, r0, sl, lsr r0
     fd4:	0005d711 	andeq	sp, r5, r1, lsl r7
     fd8:	19570100 	ldmdbne	r7, {r8}^
     fdc:	0000003a 	andeq	r0, r0, sl, lsr r0
     fe0:	0005071d 	andeq	r0, r5, sp, lsl r7
     fe4:	0082dc00 	addeq	sp, r2, r0, lsl #24
     fe8:	82dc1200 	sbcshi	r1, ip, #0, 4
     fec:	00180000 	andseq	r0, r8, r0
     ff0:	54010000 	strpl	r0, [r1], #-0
     ff4:	05181e25 	ldreq	r1, [r8, #-3621]	; 0xfffff1db
     ff8:	221f0000 	andscs	r0, pc, #0, 0
     ffc:	83000005 	movwhi	r0, #5
    1000:	7f000007 	svcvc	0x00000007
    1004:	20000007 	andcs	r0, r0, r7
    1008:	0000052c 	andeq	r0, r0, ip, lsr #10
    100c:	00053620 	andeq	r3, r5, r0, lsr #12
    1010:	05431d00 	strbeq	r1, [r3, #-3328]	; 0xfffff300
    1014:	82dc0000 	sbcshi	r0, ip, #0, 0
    1018:	dc140000 	ldcle	0, cr0, [r4], {-0}
    101c:	18000082 	stmdane	r0, {r1, r7}
    1020:	02000000 	andeq	r0, r0, #0, 0
    1024:	541e1112 	ldrpl	r1, [lr], #-274	; 0xfffffeee
    1028:	1f000005 	svcne	0x00000005
    102c:	0000055e 	andeq	r0, r0, lr, asr r5
    1030:	000007aa 	andeq	r0, r0, sl, lsr #15
    1034:	000007a6 	andeq	r0, r0, r6, lsr #15
    1038:	0082f013 	addeq	pc, r2, r3, lsl r0	; <UNPREDICTABLE>
    103c:	00058d00 	andeq	r8, r5, r0, lsl #26
    1040:	0004bf00 	andeq	fp, r4, r0, lsl #30
    1044:	50011400 	andpl	r1, r1, r0, lsl #8
    1048:	91d80305 	bicsls	r0, r8, r5, lsl #6
    104c:	01140000 	tsteq	r4, r0
    1050:	d0030551 	andle	r0, r3, r1, asr r5
    1054:	14000091 	strne	r0, [r0], #-145	; 0xffffff6f
    1058:	03055201 	movweq	r5, #20993	; 0x5201
    105c:	00009244 	andeq	r9, r0, r4, asr #4
    1060:	01530114 	cmpeq	r3, r4, lsl r1
    1064:	f4150038 			; <UNDEFINED> instruction: 0xf4150038
    1068:	99000082 	stmdbls	r0, {r1, r7}
    106c:	00000005 	andeq	r0, r0, r5
    1070:	00000000 	andeq	r0, r0, r0
    1074:	10130000 	andsne	r0, r3, r0
    1078:	8d000083 	stchi	0, cr0, [r0, #-524]	; 0xfffffdf4
    107c:	fd000005 	stc2	0, cr0, [r0, #-20]	; 0xffffffec
    1080:	14000004 	strne	r0, [r0], #-4
    1084:	03055001 	movweq	r5, #20481	; 0x5001
    1088:	000091a0 	andeq	r9, r0, r0, lsr #3
    108c:	05510114 	ldrbeq	r0, [r1, #-276]	; 0xfffffeec
    1090:	00919803 	addseq	r9, r1, r3, lsl #16
    1094:	52011400 	andpl	r1, r1, #0, 8
    1098:	92340305 	eorsls	r0, r4, #335544320	; 0x14000000
    109c:	01140000 	tsteq	r4, r0
    10a0:	003f0153 	eorseq	r0, pc, r3, asr r1	; <UNPREDICTABLE>
    10a4:	00831415 	addeq	r1, r3, r5, lsl r4
    10a8:	00059900 	andeq	r9, r5, r0, lsl #18
    10ac:	b7210000 	strlt	r0, [r1, -r0]!
    10b0:	02000005 	andeq	r0, r0, #5, 0
    10b4:	003a1011 	eorseq	r1, sl, r1, lsl r0
    10b8:	43030000 	movwmi	r0, #12288	; 0x3000
    10bc:	22000005 	andcs	r0, r0, #5, 0
    10c0:	11020061 	tstne	r2, r1, rrx
    10c4:	00003a2a 	andeq	r3, r0, sl, lsr #20
    10c8:	00622200 	rsbeq	r2, r2, r0, lsl #4
    10cc:	3a351102 	bcc	d454dc <__bss_end__+0xd3b6f4>
    10d0:	10000000 	andne	r0, r0, r0
    10d4:	12020063 	andne	r0, r2, #99, 0	; 0x63
    10d8:	00004d0d 	andeq	r4, r0, sp, lsl #26
    10dc:	05921100 	ldreq	r1, [r2, #256]	; 0x100
    10e0:	14020000 	strne	r0, [r2], #-0
    10e4:	00004d0d 	andeq	r4, r0, sp, lsl #26
    10e8:	6e210000 	cdpvs	0, 2, cr0, cr1, cr0, {0}
    10ec:	02000005 	andeq	r0, r0, #5, 0
    10f0:	004d1007 	subeq	r1, sp, r7
    10f4:	78030000 	stmdavc	r3, {}	; <UNPREDICTABLE>
    10f8:	22000005 	andcs	r0, r0, #5, 0
    10fc:	07020061 	streq	r0, [r2, -r1, rrx]
    1100:	00003a26 	andeq	r3, r0, r6, lsr #20
    1104:	00622200 	rsbeq	r2, r2, r0, lsl #4
    1108:	3a310702 	bcc	c42d18 <__bss_end__+0xc38f30>
    110c:	0f000000 	svceq	0x00000000
    1110:	00000322 	andeq	r0, r0, r2, lsr #6
    1114:	00000588 	andeq	r0, r0, r8, lsl #11
    1118:	92440305 	subls	r0, r4, #335544320	; 0x14000000
    111c:	0a000000 	beq	1124 <__code_start__-0x6edc>
    1120:	000000c0 	andeq	r0, r0, r0, asr #1
    1124:	00000588 	andeq	r0, r0, r8, lsl #11
    1128:	00002c16 	andeq	r2, r0, r6, lsl ip
    112c:	09000d00 	stmdbeq	r0, {r8, sl, fp}
    1130:	00000578 	andeq	r0, r0, r8, ror r5
    1134:	0006fa23 	andeq	pc, r6, r3, lsr #20
    1138:	0006fa00 	andeq	pc, r6, r0, lsl #20
    113c:	06280400 	strteq	r0, [r8], -r0, lsl #8
    1140:	00034223 	andeq	r4, r3, r3, lsr #4
    1144:	00034200 	andeq	r4, r3, r0, lsl #4
    1148:	066e0400 	strbteq	r0, [lr], -r0, lsl #8
    114c:	00019d00 	andeq	r9, r1, r0, lsl #26
    1150:	7f000400 	svcvc	0x00000400
    1154:	04000005 	streq	r0, [r0], #-5
    1158:	00062801 	andeq	r2, r6, r1, lsl #16
    115c:	075c0c00 	ldrbeq	r0, [ip, -r0, lsl #24]
    1160:	07100000 	ldreq	r0, [r0, -r0]
    1164:	83540000 	cmphi	r4, #0, 0
    1168:	00580000 	subseq	r0, r8, r0
    116c:	0f210000 	svceq	0x00210000
    1170:	01020000 	mrseq	r0, (UNDEF: 2)
    1174:	02000007 	andeq	r0, r0, #7, 0
    1178:	00311b28 	eorseq	r1, r1, r8, lsr #22
    117c:	6c030000 	stcvs	0, cr0, [r3], {-0}
    1180:	04000007 	streq	r0, [r0], #-7
    1184:	00480004 	subeq	r0, r8, r4
    1188:	57040000 	strpl	r0, [r4, -r0]
    118c:	48000007 	stmdami	r0, {r0, r1, r2}
    1190:	00000000 	andeq	r0, r0, r0
    1194:	02040500 	andeq	r0, r4, #0, 10
    1198:	0000076e 	andeq	r0, r0, lr, ror #14
    119c:	25186302 	ldrcs	r6, [r8, #-770]	; 0xfffffcfe
    11a0:	06000000 	streq	r0, [r0], -r0
    11a4:	6e690504 	cdpvs	5, 6, cr0, cr9, cr4, {0}
    11a8:	04070074 	streq	r0, [r7], #-116	; 0xffffff8c
    11ac:	00003b07 	andeq	r3, r0, r7, lsl #22
    11b0:	06010700 	streq	r0, [r1], -r0, lsl #14
    11b4:	000000aa 	andeq	r0, r0, sl, lsr #1
    11b8:	8f050207 	svchi	0x00050207
    11bc:	07000001 	streq	r0, [r0, -r1]
    11c0:	00050504 	andeq	r0, r5, r4, lsl #10
    11c4:	08070000 	stmdaeq	r7, {}	; <UNPREDICTABLE>
    11c8:	00000005 	andeq	r0, r0, r5
    11cc:	08010700 	stmdaeq	r1, {r8, r9, sl}
    11d0:	000000a8 	andeq	r0, r0, r8, lsr #1
    11d4:	73070207 	movwvc	r0, #29191	; 0x7207
    11d8:	07000001 	streq	r0, [r0, -r1]
    11dc:	00360704 	eorseq	r0, r6, r4, lsl #14
    11e0:	08070000 	stmdaeq	r7, {}	; <UNPREDICTABLE>
    11e4:	00003107 	andeq	r3, r0, r7, lsl #2
    11e8:	00560800 	subseq	r0, r6, r0, lsl #16
    11ec:	00ab0000 	adceq	r0, fp, r0
    11f0:	56090000 	strpl	r0, [r9], -r0
    11f4:	00000000 	andeq	r0, r0, r0
    11f8:	0001a60a 	andeq	sl, r1, sl, lsl #12
    11fc:	0e1c0300 	cdpeq	3, 1, cr0, cr12, cr0, {0}
    1200:	000000b7 	strheq	r0, [r0], -r7
    1204:	009c040b 	addseq	r0, ip, fp, lsl #8
    1208:	56080000 	strpl	r0, [r8], -r0
    120c:	cc000000 	stcgt	0, cr0, [r0], {-0}
    1210:	09000000 	stmdbeq	r0, {}	; <UNPREDICTABLE>
    1214:	000000cc 	andeq	r0, r0, ip, asr #1
    1218:	d9040b00 	stmdble	r4, {r8, r9, fp}
    121c:	07000000 	streq	r0, [r0, -r0]
    1220:	00b10801 	adcseq	r0, r1, r1, lsl #16
    1224:	d20c0000 	andle	r0, ip, #0, 0
    1228:	0a000000 	beq	1230 <__code_start__-0x6dd0>
    122c:	0000077f 	andeq	r0, r0, pc, ror r7
    1230:	ea0e2103 	b	389644 <__bss_end__+0x37f85c>
    1234:	0b000000 	bleq	123c <__code_start__-0x6dc4>
    1238:	0000bd04 	andeq	fp, r0, r4, lsl #26
    123c:	06fa0d00 	ldrbteq	r0, [sl], r0, lsl #26
    1240:	06010000 	streq	r0, [r1], -r0
    1244:	00005605 	andeq	r5, r0, r5, lsl #12
    1248:	00835400 	addeq	r5, r3, r0, lsl #8
    124c:	00005800 	andeq	r5, r0, r0, lsl #16
    1250:	839c0100 	orrshi	r0, ip, #0
    1254:	0e000001 	cdpeq	0, 0, cr0, cr0, cr1, {0}
    1258:	00746d66 	rsbseq	r6, r4, r6, ror #26
    125c:	cc180601 	ldcgt	6, cr0, [r8], {1}
    1260:	02000000 	andeq	r0, r0, #0, 0
    1264:	100f7091 	mulne	pc, r1, r0	; <UNPREDICTABLE>
    1268:	00667562 	rsbeq	r7, r6, r2, ror #10
    126c:	83110801 	tsthi	r1, #65536	; 0x10000
    1270:	05000001 	streq	r0, [r0, #-1]
    1274:	0099e803 	addseq	lr, r9, r3, lsl #16
    1278:	06f21100 	ldrbteq	r1, [r2], r0, lsl #2
    127c:	09010000 	stmdbeq	r1, {}	; <UNPREDICTABLE>
    1280:	00004a0d 	andeq	r4, r0, sp, lsl #20
    1284:	5c910200 	lfmpl	f0, 4, [r1], {0}
    1288:	007a7312 	rsbseq	r7, sl, r2, lsl r3
    128c:	560d0c01 	strpl	r0, [sp], -r1, lsl #24
    1290:	d3000000 	movwle	r0, #0
    1294:	cd000007 	stcgt	0, cr0, [r0, #-28]	; 0xffffffe4
    1298:	13000007 	movwne	r0, #7
    129c:	0000837c 	andeq	r8, r0, ip, ror r3
    12a0:	00000194 	muleq	r0, r4, r1
    12a4:	00000176 	andeq	r0, r0, r6, ror r1
    12a8:	02500114 	subseq	r0, r0, #5
    12ac:	01140075 	tsteq	r4, r5, ror r0
    12b0:	000a0351 	andeq	r0, sl, r1, asr r3
    12b4:	52011404 	andpl	r1, r1, #4, 8	; 0x4000000
    12b8:	06489103 	strbeq	r9, [r8], -r3, lsl #2
    12bc:	02530114 	subseq	r0, r3, #5
    12c0:	15004c91 	strne	r4, [r0, #-3217]	; 0xfffff36f
    12c4:	00008390 	muleq	r0, r0, r3
    12c8:	02500114 	subseq	r0, r0, #5
    12cc:	00000075 	andeq	r0, r0, r5, ror r0
    12d0:	0000d216 	andeq	sp, r0, r6, lsl r2
    12d4:	00019400 	andeq	r9, r1, r0, lsl #8
    12d8:	005d1700 	subseq	r1, sp, r0, lsl #14
    12dc:	03ff0000 	mvnseq	r0, #0, 0
    12e0:	06f71800 	ldrbteq	r1, [r7], r0, lsl #16
    12e4:	06f70000 	ldrbteq	r0, [r7], r0
    12e8:	02050000 	andeq	r0, r5, #0, 0
    12ec:	00f30005 	rscseq	r0, r3, r5
    12f0:	00040000 	andeq	r0, r4, r0
    12f4:	000006c1 	andeq	r0, r0, r1, asr #13
    12f8:	06280104 	strteq	r0, [r8], -r4, lsl #2
    12fc:	840c0000 	strhi	r0, [ip], #-0
    1300:	10000007 	andne	r0, r0, r7
    1304:	ac000007 	stcge	0, cr0, [r0], {7}
    1308:	34000083 	strcc	r0, [r0], #-131	; 0xffffff7d
    130c:	57000000 	strpl	r0, [r0, -r0]
    1310:	02000010 	andeq	r0, r0, #16, 0
    1314:	6e690504 	cdpvs	5, 6, cr0, cr9, cr4, {0}
    1318:	04030074 	streq	r0, [r3], #-116	; 0xffffff8c
    131c:	00003b07 	andeq	r3, r0, r7, lsl #22
    1320:	06010300 	streq	r0, [r1], -r0, lsl #6
    1324:	000000aa 	andeq	r0, r0, sl, lsr #1
    1328:	8f050203 	svchi	0x00050203
    132c:	03000001 	movweq	r0, #1
    1330:	00050504 	andeq	r0, r5, r4, lsl #10
    1334:	08030000 	stmdaeq	r3, {}	; <UNPREDICTABLE>
    1338:	00000005 	andeq	r0, r0, r5
    133c:	08010300 	stmdaeq	r1, {r8, r9}
    1340:	000000a8 	andeq	r0, r0, r8, lsr #1
    1344:	73070203 	movwvc	r0, #29187	; 0x7203
    1348:	03000001 	movweq	r0, #1
    134c:	00360704 	eorseq	r0, r6, r4, lsl #14
    1350:	08030000 	stmdaeq	r3, {}	; <UNPREDICTABLE>
    1354:	00003107 	andeq	r3, r0, r7, lsl #2
    1358:	00250400 	eoreq	r0, r5, r0, lsl #8
    135c:	007a0000 	rsbseq	r0, sl, r0
    1360:	25050000 	strcs	r0, [r5, #-0]
    1364:	00000000 	andeq	r0, r0, r0
    1368:	0001a606 	andeq	sl, r1, r6, lsl #12
    136c:	0e1c0200 	cdpeq	2, 1, cr0, cr12, cr0, {0}
    1370:	00000086 	andeq	r0, r0, r6, lsl #1
    1374:	006b0407 	rsbeq	r0, fp, r7, lsl #8
    1378:	25040000 	strcs	r0, [r4, #-0]
    137c:	9b000000 	blls	1384 <__code_start__-0x6c7c>
    1380:	05000000 	streq	r0, [r0, #-0]
    1384:	0000009b 	muleq	r0, fp, r0
    1388:	a8040700 	stmdage	r4, {r8, r9, sl}
    138c:	03000000 	movweq	r0, #0
    1390:	00b10801 	adcseq	r0, r1, r1, lsl #16
    1394:	a1080000 	mrsge	r0, (UNDEF: 8)
    1398:	06000000 	streq	r0, [r0], -r0
    139c:	0000077f 	andeq	r0, r0, pc, ror r7
    13a0:	b90e2102 	stmdblt	lr, {r1, r8, sp}
    13a4:	07000000 	streq	r0, [r0, -r0]
    13a8:	00008c04 	andeq	r8, r0, r4, lsl #24
    13ac:	00ad0900 	adceq	r0, sp, r0, lsl #18
    13b0:	0c010000 	stceq	0, cr0, [r1], {-0}
    13b4:	e0030507 	and	r0, r3, r7, lsl #10
    13b8:	0a000099 	beq	1624 <__code_start__-0x69dc>
    13bc:	00000776 	andeq	r0, r0, r6, ror r7
    13c0:	25050401 	strcs	r0, [r5, #-1025]	; 0xfffffbff
    13c4:	ac000000 	stcge	0, cr0, [r0], {-0}
    13c8:	34000083 	strcc	r0, [r0], #-131	; 0xffffff7d
    13cc:	01000000 	mrseq	r0, (UNDEF: 0)
    13d0:	00700b9c 			; <UNDEFINED> instruction: 0x00700b9c
    13d4:	9b1f0401 	blls	7c23e0 <__bss_end__+0x7b85f8>
    13d8:	00000000 	andeq	r0, r0, r0
    13dc:	fc000008 	stc2	0, cr0, [r0], {8}
    13e0:	00000007 	andeq	r0, r0, r7
    13e4:	000ad700 	andeq	sp, sl, r0, lsl #14
    13e8:	5f000400 	svcpl	0x00000400
    13ec:	04000007 	streq	r0, [r0], #-7
    13f0:	00062801 	andeq	r2, r6, r1, lsl #16
    13f4:	07a30c00 	streq	r0, [r3, r0, lsl #24]!
    13f8:	07100000 	ldreq	r0, [r0, -r0]
    13fc:	83e00000 	mvnhi	r0, #0, 0
    1400:	07400000 	strbeq	r0, [r0, -r0]
    1404:	11250000 			; <UNDEFINED> instruction: 0x11250000
    1408:	04020000 	streq	r0, [r2], #-0
    140c:	746e6905 	strbtvc	r6, [lr], #-2309	; 0xfffff6fb
    1410:	07040300 	streq	r0, [r4, -r0, lsl #6]
    1414:	0000003b 	andeq	r0, r0, fp, lsr r0
    1418:	aa060103 	bge	18182c <__bss_end__+0x177a44>
    141c:	03000000 	movweq	r0, #0
    1420:	018f0502 	orreq	r0, pc, r2, lsl #10
    1424:	04030000 	streq	r0, [r3], #-0
    1428:	00000505 	andeq	r0, r0, r5, lsl #10
    142c:	05080300 	streq	r0, [r8, #-768]	; 0xfffffd00
    1430:	00000000 	andeq	r0, r0, r0
    1434:	a8080103 	stmdage	r8, {r0, r1, r8}
    1438:	03000000 	movweq	r0, #0
    143c:	01730702 	cmneq	r3, r2, lsl #14
    1440:	a1040000 	mrsge	r0, (UNDEF: 4)
    1444:	02000003 	andeq	r0, r0, #3, 0
    1448:	00691934 	rsbeq	r1, r9, r4, lsr r9
    144c:	04030000 	streq	r0, [r3], #-0
    1450:	00003607 	andeq	r3, r0, r7, lsl #12
    1454:	079a0400 	ldreq	r0, [sl, r0, lsl #8]
    1458:	37020000 	strcc	r0, [r2, -r0]
    145c:	00007c19 	andeq	r7, r0, r9, lsl ip
    1460:	07080300 	streq	r0, [r8, -r0, lsl #6]
    1464:	00000031 	andeq	r0, r0, r1, lsr r0
    1468:	00002505 	andeq	r2, r0, r5, lsl #10
    146c:	00009200 	andeq	r9, r0, r0, lsl #4
    1470:	00250600 	eoreq	r0, r5, r0, lsl #12
    1474:	07000000 	streq	r0, [r0, -r0]
    1478:	000001a6 	andeq	r0, r0, r6, lsr #3
    147c:	9e0e1c03 	cdpls	12, 0, cr1, cr14, cr3, {0}
    1480:	08000000 	stmdaeq	r0, {}	; <UNPREDICTABLE>
    1484:	00008304 	andeq	r8, r0, r4, lsl #6
    1488:	00250500 	eoreq	r0, r5, r0, lsl #10
    148c:	00b30000 	adcseq	r0, r3, r0
    1490:	b3060000 	movwlt	r0, #24576	; 0x6000
    1494:	00000000 	andeq	r0, r0, r0
    1498:	00c00408 	sbceq	r0, r0, r8, lsl #8
    149c:	01030000 	mrseq	r0, (UNDEF: 3)
    14a0:	0000b108 	andeq	fp, r0, r8, lsl #2
    14a4:	00b90900 	adcseq	r0, r9, r0, lsl #18
    14a8:	7f070000 	svcvc	0x00070000
    14ac:	03000007 	movweq	r0, #7
    14b0:	00d10e21 	sbcseq	r0, r1, r1, lsr #28
    14b4:	04080000 	streq	r0, [r8], #-0
    14b8:	000000a4 	andeq	r0, r0, r4, lsr #1
    14bc:	0007b607 	andeq	fp, r7, r7, lsl #12
    14c0:	0d0b0400 	cfstrseq	mvf0, [fp, #-0]
    14c4:	000000b9 	strheq	r0, [r0], -r9
    14c8:	00083407 	andeq	r3, r8, r7, lsl #8
    14cc:	0d0c0400 	cfstrseq	mvf0, [ip, #-0]
    14d0:	000000b9 	strheq	r0, [r0], -r9
    14d4:	0007c507 	andeq	ip, r7, r7, lsl #10
    14d8:	0d0d0400 	cfstrseq	mvf0, [sp, #-0]
    14dc:	000000b9 	strheq	r0, [r0], -r9
    14e0:	0007ee07 	andeq	lr, r7, r7, lsl #28
    14e4:	0d0e0400 	cfstrseq	mvf0, [lr, #-0]
    14e8:	000000b9 	strheq	r0, [r0], -r9
    14ec:	00086407 	andeq	r6, r8, r7, lsl #8
    14f0:	0d0f0400 	cfstrseq	mvf0, [pc, #-0]	; 14f8 <__code_start__-0x6b08>
    14f4:	000000b9 	strheq	r0, [r0], -r9
    14f8:	0007d907 	andeq	sp, r7, r7, lsl #18
    14fc:	0d100400 	cfldrseq	mvf0, [r0, #-0]
    1500:	000000b9 	strheq	r0, [r0], -r9
    1504:	00087307 	andeq	r7, r8, r7, lsl #6
    1508:	0d110400 	cfldrseq	mvf0, [r1, #-0]
    150c:	000000b9 	strheq	r0, [r0], -r9
    1510:	0007fa07 	andeq	pc, r7, r7, lsl #20
    1514:	0d120400 	cfldrseq	mvf0, [r2, #-0]
    1518:	000000b9 	strheq	r0, [r0], -r9
    151c:	00070104 	andeq	r0, r7, r4, lsl #2
    1520:	1b280500 	blne	a02928 <__bss_end__+0x9f8b40>
    1524:	00000143 	andeq	r0, r0, r3, asr #2
    1528:	00076c0a 	andeq	r6, r7, sl, lsl #24
    152c:	00060400 	andeq	r0, r6, r0, lsl #8
    1530:	0000015a 	andeq	r0, r0, sl, asr r1
    1534:	0007570b 	andeq	r5, r7, fp, lsl #14
    1538:	00015a00 	andeq	r5, r1, r0, lsl #20
    153c:	0c000000 	stceq	0, cr0, [r0], {-0}
    1540:	076e0404 	strbeq	r0, [lr, -r4, lsl #8]!
    1544:	63050000 	movwvs	r0, #20480	; 0x5000
    1548:	00013718 	andeq	r3, r1, r8, lsl r7
    154c:	06f70d00 	ldrbteq	r0, [r7], r0, lsl #26
    1550:	81010000 	mrshi	r0, (UNDEF: 1)
    1554:	00002505 	andeq	r2, r0, r5, lsl #10
    1558:	00866800 	addeq	r6, r6, r0, lsl #16
    155c:	0004b800 	andeq	fp, r4, r0, lsl #16
    1560:	179c0100 	ldrne	r0, [ip, r0, lsl #2]
    1564:	0e000007 	cdpeq	0, 0, cr0, cr0, cr7, {0}
    1568:	00667562 	rsbeq	r7, r6, r2, ror #10
    156c:	17158101 	ldrne	r8, [r5, -r1, lsl #2]
    1570:	24000007 	strcs	r0, [r0], #-7
    1574:	1e000008 	cdpne	0, 0, cr0, cr0, cr8, {0}
    1578:	0e000008 	cdpeq	0, 0, cr0, cr0, cr8, {0}
    157c:	8101006e 	tsthi	r1, lr, rrx
    1580:	0000251e 	andeq	r2, r0, lr, lsl r5
    1584:	00085600 	andeq	r5, r8, r0, lsl #12
    1588:	00085000 	andeq	r5, r8, r0
    158c:	6d660e00 	stclvs	14, cr0, [r6, #-0]
    1590:	81010074 	tsthi	r1, r4, ror r0
    1594:	0000b32d 	andeq	fp, r0, sp, lsr #6
    1598:	00089000 	andeq	r9, r8, r0
    159c:	00088400 	andeq	r8, r8, r0, lsl #8
    15a0:	06f20f00 	ldrbteq	r0, [r2], r0, lsl #30
    15a4:	81010000 	mrshi	r0, (UNDEF: 1)
    15a8:	00015c3a 	andeq	r5, r1, sl, lsr ip
    15ac:	d4910300 	ldrle	r0, [r1], #768	; 0x300
    15b0:	0070107d 	rsbseq	r1, r0, sp, ror r0
    15b4:	17088201 	strne	r8, [r8, -r1, lsl #4]
    15b8:	ee000007 	cdp	0, 0, cr0, cr0, cr7, {0}
    15bc:	da000008 	ble	15e4 <__code_start__-0x6a1c>
    15c0:	10000008 	andne	r0, r0, r8
    15c4:	82010065 	andhi	r0, r1, #101, 0	; 0x65
    15c8:	00071712 	andeq	r1, r7, r2, lsl r7
    15cc:	00097000 	andeq	r7, r9, r0
    15d0:	00096c00 	andeq	r6, r9, r0, lsl #24
    15d4:	30781000 	rsbscc	r1, r8, r0
    15d8:	0e830100 	rmfeqs	f0, f3, f0
    15dc:	0000005d 	andeq	r0, r0, sp, asr r0
    15e0:	0000099d 	muleq	r0, sp, r9
    15e4:	00000997 	muleq	r0, r7, r9
    15e8:	00317810 	eorseq	r7, r1, r0, lsl r8
    15ec:	5d118301 	ldcpl	3, cr8, [r1, #-4]
    15f0:	ca000000 	bgt	15f8 <__code_start__-0x6a08>
    15f4:	c6000009 	strgt	r0, [r0], -r9
    15f8:	11000009 	tstne	r0, r9
    15fc:	00000818 	andeq	r0, r0, r8, lsl r8
    1600:	b3118601 	tstlt	r1, #1048576	; 0x100000
    1604:	ec000000 	stc	0, cr0, [r0], {-0}
    1608:	e8000009 	stmda	r0, {r0, r3}
    160c:	12000009 	andne	r0, r0, #9, 0
    1610:	00000322 	andeq	r0, r0, r2, lsr #6
    1614:	0000072d 	andeq	r0, r0, sp, lsr #14
    1618:	93c00305 	bicls	r0, r0, #335544320	; 0x14000000
    161c:	d0130000 	andsle	r0, r3, r0
    1620:	00000086 	andeq	r0, r0, r6, lsl #1
    1624:	10000004 	andne	r0, r0, r4
    1628:	91010073 	tstls	r1, r3, ror r0
    162c:	0007170a 	andeq	r1, r7, sl, lsl #14
    1630:	000a2200 	andeq	r2, sl, r0, lsl #4
    1634:	000a0c00 	andeq	r0, sl, r0, lsl #24
    1638:	756e1400 	strbvc	r1, [lr, #-1024]!	; 0xfffffc00
    163c:	9101006d 	tstls	r1, sp, rrx
    1640:	0007320d 	andeq	r3, r7, sp, lsl #4
    1644:	d8910300 	ldmle	r1, {r8, r9}
    1648:	082f157d 	stmdaeq	pc!, {r0, r2, r3, r4, r5, r6, r8, sl, ip}	; <UNPREDICTABLE>
    164c:	91010000 	mrsls	r0, (UNDEF: 1)
    1650:	00073217 	andeq	r3, r7, r7, lsl r2
    1654:	d8910300 	ldmle	r1, {r8, r9}
    1658:	07d3117e 			; <UNDEFINED> instruction: 0x07d3117e
    165c:	92010000 	andls	r0, r1, #0, 0
    1660:	00002c0d 	andeq	r2, r0, sp, lsl #24
    1664:	000aa900 	andeq	sl, sl, r0, lsl #18
    1668:	000aa300 	andeq	sl, sl, r0, lsl #6
    166c:	87981600 	ldrhi	r1, [r8, r0, lsl #12]
    1670:	01a40000 			; <UNDEFINED> instruction: 0x01a40000
    1674:	05390000 	ldreq	r0, [r9, #-0]!
    1678:	74100000 	ldrvc	r0, [r0], #-0
    167c:	9e010079 	mcrls	0, 0, r0, cr1, cr9, {3}
    1680:	0000b31d 	andeq	fp, r0, sp, lsl r3
    1684:	000add00 	andeq	sp, sl, r0, lsl #26
    1688:	000ad300 	andeq	sp, sl, r0, lsl #6
    168c:	78781700 	ldmdavc	r8!, {r8, r9, sl, ip}^
    1690:	1aa20100 	bne	fe881a98 <__bss_end__+0xfe877cb0>
    1694:	00000070 	andeq	r0, r0, r0, ror r0
    1698:	0087a818 	addeq	sl, r7, r8, lsl r8
    169c:	000a9200 	andeq	r9, sl, r0, lsl #4
    16a0:	0002d500 	andeq	sp, r2, r0, lsl #10
    16a4:	50011900 	andpl	r1, r1, r0, lsl #18
    16a8:	19007602 	stmdbne	r0, {r1, r9, sl, ip, sp, lr}
    16ac:	03055101 	movweq	r5, #20737	; 0x5101
    16b0:	000092b4 			; <UNDEFINED> instruction: 0x000092b4
    16b4:	01520119 	cmpeq	r2, r9, lsl r1
    16b8:	c0180033 	andsgt	r0, r8, r3, lsr r0
    16bc:	92000087 	andls	r0, r0, #135, 0	; 0x87
    16c0:	f700000a 			; <UNDEFINED> instruction: 0xf700000a
    16c4:	19000002 	stmdbne	r0, {r1}
    16c8:	76025001 	strvc	r5, [r2], -r1
    16cc:	51011900 	tstpl	r1, r0, lsl #18
    16d0:	92b80305 	adcsls	r0, r8, #335544320	; 0x14000000
    16d4:	01190000 	tsteq	r9, r0
    16d8:	00330152 	eorseq	r0, r3, r2, asr r1
    16dc:	0087f418 	addeq	pc, r7, r8, lsl r4	; <UNPREDICTABLE>
    16e0:	000a9e00 	andeq	r9, sl, r0, lsl #28
    16e4:	00031400 	andeq	r1, r3, r0, lsl #8
    16e8:	50011900 	andpl	r1, r1, r0, lsl #18
    16ec:	92bc0305 	adcsls	r0, ip, #335544320	; 0x14000000
    16f0:	01190000 	tsteq	r9, r0
    16f4:	00770251 	rsbseq	r0, r7, r1, asr r2
    16f8:	88001800 	stmdahi	r0, {fp, ip}
    16fc:	0a9e0000 	beq	fe781704 <__bss_end__+0xfe77791c>
    1700:	03310000 	teqeq	r1, #0, 0
    1704:	01190000 	tsteq	r9, r0
    1708:	c4030550 	strgt	r0, [r3], #-1360	; 0xfffffab0
    170c:	19000092 	stmdbne	r0, {r1, r4, r7}
    1710:	7a025101 	bvc	95b1c <__bss_end__+0x8bd34>
    1714:	10180000 	andsne	r0, r8, r0
    1718:	92000088 	andls	r0, r0, #136, 0	; 0x88
    171c:	5300000a 	movwpl	r0, #10
    1720:	19000003 	stmdbne	r0, {r0, r1}
    1724:	76025001 	strvc	r5, [r2], -r1
    1728:	51011900 	tstpl	r1, r0, lsl #18
    172c:	92b40305 	adcsls	r0, r4, #335544320	; 0x14000000
    1730:	01190000 	tsteq	r9, r0
    1734:	00330152 	eorseq	r0, r3, r2, asr r1
    1738:	00882818 	addeq	r2, r8, r8, lsl r8
    173c:	000a9200 	andeq	r9, sl, r0, lsl #4
    1740:	00037500 	andeq	r7, r3, r0, lsl #10
    1744:	50011900 	andpl	r1, r1, r0, lsl #18
    1748:	19007602 	stmdbne	r0, {r1, r9, sl, ip, sp, lr}
    174c:	03055101 	movweq	r5, #20737	; 0x5101
    1750:	000092b8 			; <UNDEFINED> instruction: 0x000092b8
    1754:	01520119 	cmpeq	r2, r9, lsl r1
    1758:	50180033 	andspl	r0, r8, r3, lsr r0
    175c:	42000088 	andmi	r0, r0, #136, 0	; 0x88
    1760:	a9000007 	stmdbge	r0, {r0, r1, r2}
    1764:	19000003 	stmdbne	r0, {r0, r1}
    1768:	3a015001 	bcc	55774 <__bss_end__+0x4b98c>
    176c:	03510119 	cmpeq	r1, #1073741830	; 0x40000006
    1770:	197dd091 	ldmdbne	sp!, {r0, r4, r7, ip, lr, pc}^
    1774:	08025201 	stmdaeq	r2, {r0, r9, ip, lr}
    1778:	53011980 	movwpl	r1, #6528	; 0x1980
    177c:	19007702 	stmdbne	r0, {r1, r8, r9, sl, ip, sp, lr}
    1780:	02007d02 	andeq	r7, r0, #128	; 0x80
    1784:	02190075 	andseq	r0, r9, #117, 0	; 0x75
    1788:	7602047d 			; <UNDEFINED> instruction: 0x7602047d
    178c:	70180000 	andsvc	r0, r8, r0
    1790:	42000088 	andmi	r0, r0, #136, 0	; 0x88
    1794:	dd000007 	stcle	0, cr0, [r0, #-28]	; 0xffffffe4
    1798:	19000003 	stmdbne	r0, {r0, r1}
    179c:	3a015001 	bcc	557a8 <__bss_end__+0x4b9c0>
    17a0:	03510119 	cmpeq	r1, #1073741830	; 0x40000006
    17a4:	197ed091 	ldmdbne	lr!, {r0, r4, r7, ip, lr, pc}^
    17a8:	08025201 	stmdaeq	r2, {r0, r9, ip, lr}
    17ac:	53011980 	movwpl	r1, #6528	; 0x1980
    17b0:	19007a02 	stmdbne	r0, {r1, r9, fp, ip, sp, lr}
    17b4:	02007d02 	andeq	r7, r0, #128	; 0x80
    17b8:	02190075 	andseq	r0, r9, #117, 0	; 0x75
    17bc:	7602047d 			; <UNDEFINED> instruction: 0x7602047d
    17c0:	7c180000 	ldcvc	0, cr0, [r8], {-0}
    17c4:	aa000088 	bge	19ec <__code_start__-0x6614>
    17c8:	fb00000a 	blx	17fa <__code_start__-0x6806>
    17cc:	19000003 	stmdbne	r0, {r0, r1}
    17d0:	91035001 	tstls	r3, r1
    17d4:	01197dd0 			; <UNDEFINED> instruction: 0x01197dd0
    17d8:	78030551 	stmdavc	r3, {r0, r4, r6, r8, sl}
    17dc:	00000092 	muleq	r0, r2, r0
    17e0:	00889018 	addeq	r9, r8, r8, lsl r0
    17e4:	000ab600 	andeq	fp, sl, r0, lsl #12
    17e8:	00041700 	andeq	r1, r4, r0, lsl #14
    17ec:	50011900 	andpl	r1, r1, r0, lsl #18
    17f0:	7dd09103 	ldfvcp	f1, [r0, #12]
    17f4:	03510119 	cmpeq	r1, #1073741830	; 0x40000006
    17f8:	007ed091 			; <UNDEFINED> instruction: 0x007ed091
    17fc:	0088b418 	addeq	fp, r8, r8, lsl r4
    1800:	000a9e00 	andeq	r9, sl, r0, lsl #28
    1804:	00045000 	andeq	r5, r4, r0
    1808:	50011900 	andpl	r1, r1, r0, lsl #18
    180c:	91280305 			; <UNDEFINED> instruction: 0x91280305
    1810:	01190000 	tsteq	r9, r0
    1814:	64030551 	strvs	r0, [r3], #-1361	; 0xfffffaaf
    1818:	19000092 	stmdbne	r0, {r1, r4, r7}
    181c:	03055201 	movweq	r5, #20993	; 0x5201
    1820:	000093c0 	andeq	r9, r0, r0, asr #7
    1824:	02530119 	subseq	r0, r3, #1073741830	; 0x40000006
    1828:	02199f08 	andseq	r9, r9, #8, 30
    182c:	0305007d 	movweq	r0, #20605	; 0x507d
    1830:	000092cc 	andeq	r9, r0, ip, asr #5
    1834:	88b81a00 	ldmhi	r8!, {r9, fp, ip}
    1838:	0ac20000 	beq	ff081840 <__bss_end__+0xff077a58>
    183c:	d8180000 	ldmdale	r8, {}	; <UNPREDICTABLE>
    1840:	42000088 	andmi	r0, r0, #136, 0	; 0x88
    1844:	8d000007 	stchi	0, cr0, [r0, #-28]	; 0xffffffe4
    1848:	19000004 	stmdbne	r0, {r2}
    184c:	40015001 	andmi	r5, r1, r1
    1850:	03510119 	cmpeq	r1, #1073741830	; 0x40000006
    1854:	197dd091 	ldmdbne	sp!, {r0, r4, r7, ip, lr, pc}^
    1858:	08025201 	stmdaeq	r2, {r0, r9, ip, lr}
    185c:	53011980 	movwpl	r1, #6528	; 0x1980
    1860:	19007702 	stmdbne	r0, {r1, r8, r9, sl, ip, sp, lr}
    1864:	02007d02 	andeq	r7, r0, #128	; 0x80
    1868:	02190075 	andseq	r0, r9, #117, 0	; 0x75
    186c:	7602047d 			; <UNDEFINED> instruction: 0x7602047d
    1870:	f8180000 			; <UNDEFINED> instruction: 0xf8180000
    1874:	42000088 	andmi	r0, r0, #136, 0	; 0x88
    1878:	c1000007 	tstgt	r0, r7
    187c:	19000004 	stmdbne	r0, {r2}
    1880:	40015001 	andmi	r5, r1, r1
    1884:	03510119 	cmpeq	r1, #1073741830	; 0x40000006
    1888:	197ed091 	ldmdbne	lr!, {r0, r4, r7, ip, lr, pc}^
    188c:	08025201 	stmdaeq	r2, {r0, r9, ip, lr}
    1890:	53011980 	movwpl	r1, #6528	; 0x1980
    1894:	19007a02 	stmdbne	r0, {r1, r9, fp, ip, sp, lr}
    1898:	02007d02 	andeq	r7, r0, #128	; 0x80
    189c:	02190075 	andseq	r0, r9, #117, 0	; 0x75
    18a0:	7602047d 			; <UNDEFINED> instruction: 0x7602047d
    18a4:	04180000 	ldreq	r0, [r8], #-0
    18a8:	ce000089 	cdpgt	0, 0, cr0, cr0, cr9, {4}
    18ac:	dd00000a 	stcle	0, cr0, [r0, #-40]	; 0xffffffd8
    18b0:	19000004 	stmdbne	r0, {r2}
    18b4:	91035001 	tstls	r3, r1
    18b8:	01197dd0 			; <UNDEFINED> instruction: 0x01197dd0
    18bc:	d2910351 	addsle	r0, r1, #1140850689	; 0x44000001
    18c0:	1818007e 	ldmdane	r8, {r1, r2, r3, r4, r5, r6}
    18c4:	ce000089 	cdpgt	0, 0, cr0, cr0, cr9, {4}
    18c8:	f900000a 			; <UNDEFINED> instruction: 0xf900000a
    18cc:	19000004 	stmdbne	r0, {r2}
    18d0:	91035001 	tstls	r3, r1
    18d4:	01197dd0 			; <UNDEFINED> instruction: 0x01197dd0
    18d8:	d0910351 	addsle	r0, r1, r1, asr r3
    18dc:	3818007e 	ldmdacc	r8, {r1, r2, r3, r4, r5, r6}
    18e0:	9e000089 	cdpls	0, 0, cr0, cr0, cr9, {4}
    18e4:	2f00000a 	svccs	0x0000000a
    18e8:	19000005 	stmdbne	r0, {r0, r2}
    18ec:	03055001 	movweq	r5, #20481	; 0x5001
    18f0:	00009308 	andeq	r9, r0, r8, lsl #6
    18f4:	05510119 	ldrbeq	r0, [r1, #-281]	; 0xfffffee7
    18f8:	00926403 	addseq	r6, r2, r3, lsl #8
    18fc:	52011900 	andpl	r1, r1, #0, 18
    1900:	93c00305 	bicls	r0, r0, #335544320	; 0x14000000
    1904:	01190000 	tsteq	r9, r0
    1908:	b6080253 			; <UNDEFINED> instruction: 0xb6080253
    190c:	007d0219 	rsbseq	r0, sp, r9, lsl r2
    1910:	00007602 	andeq	r7, r0, r2, lsl #12
    1914:	00893c1a 	addeq	r3, r9, sl, lsl ip
    1918:	000ac200 	andeq	ip, sl, r0, lsl #4
    191c:	e8180000 	ldmda	r8, {}	; <UNPREDICTABLE>
    1920:	c0000086 	andgt	r0, r0, r6, lsl #1
    1924:	4d000009 	stcmi	0, cr0, [r0, #-36]	; 0xffffffdc
    1928:	19000005 	stmdbne	r0, {r0, r2}
    192c:	77025001 	strvc	r5, [r2, -r1]
    1930:	94180000 	ldrls	r0, [r8], #-0
    1934:	9e000087 	cdpls	0, 0, cr0, cr0, cr7, {4}
    1938:	8600000a 	strhi	r0, [r0], -sl
    193c:	19000005 	stmdbne	r0, {r0, r2}
    1940:	03055001 	movweq	r5, #20481	; 0x5001
    1944:	00009128 	andeq	r9, r0, r8, lsr #2
    1948:	05510119 	ldrbeq	r0, [r1, #-281]	; 0xfffffee7
    194c:	00926403 	addseq	r6, r2, r3, lsl #8
    1950:	52011900 	andpl	r1, r1, #0, 18
    1954:	93c00305 	bicls	r0, r0, #335544320	; 0x14000000
    1958:	01190000 	tsteq	r9, r0
    195c:	98080253 	stmdals	r8, {r0, r1, r4, r6, r9}
    1960:	007d0219 	rsbseq	r0, sp, r9, lsl r2
    1964:	92a80305 	adcls	r0, r8, #335544320	; 0x14000000
    1968:	1a000000 	bne	1970 <__code_start__-0x6690>
    196c:	00008798 	muleq	r0, r8, r7
    1970:	00000ac2 	andeq	r0, r0, r2, asr #21
    1974:	00895018 	addeq	r5, r9, r8, lsl r0
    1978:	000a9e00 	andeq	r9, sl, r0, lsl #28
    197c:	0005be00 	andeq	fp, r5, r0, lsl #28
    1980:	50011900 	andpl	r1, r1, r0, lsl #18
    1984:	93300305 	teqls	r0, #335544320	; 0x14000000
    1988:	01190000 	tsteq	r9, r0
    198c:	64030551 	strvs	r0, [r3], #-1361	; 0xfffffaaf
    1990:	19000092 	stmdbne	r0, {r1, r4, r7}
    1994:	03055201 	movweq	r5, #20993	; 0x5201
    1998:	000093c0 	andeq	r9, r0, r0, asr #7
    199c:	02530119 	subseq	r0, r3, #1073741830	; 0x40000006
    19a0:	1a00be08 	bne	311c8 <__bss_end__+0x273e0>
    19a4:	00008954 	andeq	r8, r0, r4, asr r9
    19a8:	00000ac2 	andeq	r0, r0, r2, asr #21
    19ac:	00898018 	addeq	r8, r9, r8, lsl r0
    19b0:	00074200 	andeq	r4, r7, r0, lsl #4
    19b4:	0005f400 	andeq	pc, r5, r0, lsl #8
    19b8:	50011900 	andpl	r1, r1, r0, lsl #18
    19bc:	01193a01 	tsteq	r9, r1, lsl #20
    19c0:	d0910351 	addsle	r0, r1, r1, asr r3
    19c4:	5201197d 	andpl	r1, r1, #2048000	; 0x1f4000
    19c8:	19800802 	stmibne	r0, {r1, fp}
    19cc:	02007d02 	andeq	r7, r0, #128	; 0x80
    19d0:	02190075 	andseq	r0, r9, #117, 0	; 0x75
    19d4:	3101047d 	tstcc	r1, sp, ror r4
    19d8:	89b81800 	ldmibhi	r8!, {fp, ip}
    19dc:	07420000 	strbeq	r0, [r2, -r0]
    19e0:	06210000 	strteq	r0, [r1], -r0
    19e4:	01190000 	tsteq	r9, r0
    19e8:	193a0150 	ldmdbne	sl!, {r4, r6, r8}
    19ec:	91035101 	tstls	r3, r1, lsl #2
    19f0:	01197dd0 			; <UNDEFINED> instruction: 0x01197dd0
    19f4:	80080252 	andhi	r0, r8, r2, asr r2
    19f8:	007d0219 	rsbseq	r0, sp, r9, lsl r2
    19fc:	19007502 	stmdbne	r0, {r1, r8, sl, ip, sp, lr}
    1a00:	01047d02 	tsteq	r4, r2, lsl #26
    1a04:	ec180030 	ldc	0, cr0, [r8], {48}	; 0x30
    1a08:	42000089 	andmi	r0, r0, #137, 0	; 0x89
    1a0c:	4e000007 	cdpmi	0, 0, cr0, cr0, cr7, {0}
    1a10:	19000006 	stmdbne	r0, {r1, r2}
    1a14:	40015001 	andmi	r5, r1, r1
    1a18:	03510119 	cmpeq	r1, #1073741830	; 0x40000006
    1a1c:	197dd091 	ldmdbne	sp!, {r0, r4, r7, ip, lr, pc}^
    1a20:	08025201 	stmdaeq	r2, {r0, r9, ip, lr}
    1a24:	7d021980 	vstrvc.16	s2, [r2, #-256]	; 0xffffff00	; <UNPREDICTABLE>
    1a28:	00750200 	rsbseq	r0, r5, r0, lsl #4
    1a2c:	047d0219 	ldrbteq	r0, [sp], #-537	; 0xfffffde7
    1a30:	18003001 	stmdane	r0, {r0, ip, sp}
    1a34:	00008a20 	andeq	r8, r0, r0, lsr #20
    1a38:	00000742 	andeq	r0, r0, r2, asr #14
    1a3c:	0000067b 	andeq	r0, r0, fp, ror r6
    1a40:	01500119 	cmpeq	r0, r9, lsl r1
    1a44:	51011932 	tstpl	r1, r2, lsr r9
    1a48:	7dd09103 	ldfvcp	f1, [r0, #12]
    1a4c:	02520119 	subseq	r0, r2, #1073741830	; 0x40000006
    1a50:	02198008 	andseq	r8, r9, #8, 0
    1a54:	7502007d 	strvc	r0, [r2, #-125]	; 0xffffff83
    1a58:	7d021900 	vstrvc.16	s2, [r2, #-0]	; <UNPREDICTABLE>
    1a5c:	00300104 	eorseq	r0, r0, r4, lsl #2
    1a60:	008a6818 	addeq	r6, sl, r8, lsl r8
    1a64:	00074200 	andeq	r4, r7, r0, lsl #4
    1a68:	0006a800 	andeq	sl, r6, r0, lsl #16
    1a6c:	50011900 	andpl	r1, r1, r0, lsl #18
    1a70:	01193801 	tsteq	r9, r1, lsl #16
    1a74:	d0910351 	addsle	r0, r1, r1, asr r3
    1a78:	5201197d 	andpl	r1, r1, #2048000	; 0x1f4000
    1a7c:	19800802 	stmibne	r0, {r1, fp}
    1a80:	02007d02 	andeq	r7, r0, #128	; 0x80
    1a84:	02190075 	andseq	r0, r9, #117, 0	; 0x75
    1a88:	3001047d 	andcc	r0, r1, sp, ror r4
    1a8c:	8a881800 	bhi	fe207a94 <__bss_end__+0xfe1fdcac>
    1a90:	0a9e0000 	beq	fe781a98 <__bss_end__+0xfe777cb0>
    1a94:	06cb0000 	strbeq	r0, [fp], r0
    1a98:	01190000 	tsteq	r9, r0
    1a9c:	58030550 	stmdapl	r3, {r4, r6, r8, sl}
    1aa0:	19000093 	stmdbne	r0, {r0, r1, r4, r7}
    1aa4:	7a025101 	bvc	95eb0 <__bss_end__+0x8c0c8>
    1aa8:	52011900 	andpl	r1, r1, #0, 18
    1aac:	00007a02 	andeq	r7, r0, r2, lsl #20
    1ab0:	008a981b 	addeq	r9, sl, fp, lsl r8
    1ab4:	0006dd00 	andeq	sp, r6, r0, lsl #26
    1ab8:	50011900 	andpl	r1, r1, r0, lsl #18
    1abc:	7dc89104 	stfvcp	f1, [r8, #16]
    1ac0:	ac180006 	ldcge	0, cr0, [r8], {6}
    1ac4:	9e00008a 	cdpls	0, 0, cr0, cr0, cr10, {4}
    1ac8:	0c00000a 	stceq	0, cr0, [r0], {10}
    1acc:	19000007 	stmdbne	r0, {r0, r1, r2}
    1ad0:	03055001 	movweq	r5, #20481	; 0x5001
    1ad4:	00009388 	andeq	r9, r0, r8, lsl #7
    1ad8:	05510119 	ldrbeq	r0, [r1, #-281]	; 0xfffffee7
    1adc:	00926403 	addseq	r6, r2, r3, lsl #8
    1ae0:	52011900 	andpl	r1, r1, #0, 18
    1ae4:	93c00305 	bicls	r0, r0, #335544320	; 0x14000000
    1ae8:	01190000 	tsteq	r9, r0
    1aec:	e2080253 	and	r0, r8, #805306373	; 0x30000005
    1af0:	8ab01a00 	bhi	fec082f8 <__bss_end__+0xfebfe510>
    1af4:	0ac20000 	beq	ff081afc <__bss_end__+0xff077d14>
    1af8:	00000000 	andeq	r0, r0, r0
    1afc:	00b90408 	adcseq	r0, r9, r8, lsl #8
    1b00:	c01c0000 	andsgt	r0, ip, r0
    1b04:	2d000000 	stccs	0, cr0, [r0, #-0]
    1b08:	1d000007 	stcne	0, cr0, [r0, #-28]	; 0xffffffe4
    1b0c:	0000002c 	andeq	r0, r0, ip, lsr #32
    1b10:	1d090009 	stcne	0, cr0, [r9, #-36]	; 0xffffffdc
    1b14:	1c000007 	stcne	0, cr0, [r0], {7}
    1b18:	000000b9 	strheq	r0, [r0], -r9
    1b1c:	00000742 	andeq	r0, r0, r2, asr #14
    1b20:	00002c1d 	andeq	r2, r0, sp, lsl ip
    1b24:	1e007f00 	cdpne	15, 0, cr7, cr0, cr0, {0}
    1b28:	00000841 	andeq	r0, r0, r1, asr #16
    1b2c:	17014901 	strne	r4, [r1, -r1, lsl #18]
    1b30:	50000007 	andpl	r0, r0, r7
    1b34:	b4000084 	strlt	r0, [r0], #-132	; 0xffffff7c
    1b38:	01000001 	tsteq	r0, r1
    1b3c:	0008ab9c 	muleq	r8, ip, fp
    1b40:	08881f00 	stmeq	r8, {r8, r9, sl, fp, ip}
    1b44:	49010000 	stmdbmi	r1, {}	; <UNPREDICTABLE>
    1b48:	00002c0f 	andeq	r2, r0, pc, lsl #24
    1b4c:	000b2600 	andeq	r2, fp, r0, lsl #12
    1b50:	000b2000 	andeq	r2, fp, r0
    1b54:	73640e00 	cmnvc	r4, #0, 28
    1b58:	49010074 	stmdbmi	r1, {r2, r4, r5, r6}
    1b5c:	0007171b 	andeq	r1, r7, fp, lsl r7
    1b60:	000b6400 	andeq	r6, fp, r0, lsl #8
    1b64:	000b5400 	andeq	r5, fp, r0, lsl #8
    1b68:	006e0e00 	rsbeq	r0, lr, r0, lsl #28
    1b6c:	25244901 	strcs	r4, [r4, #-2305]!	; 0xfffff6ff
    1b70:	c8000000 	stmdagt	r0, {}	; <UNPREDICTABLE>
    1b74:	c400000b 	strgt	r0, [r0], #-11
    1b78:	0e00000b 	cdpeq	0, 0, cr0, cr0, cr11, {0}
    1b7c:	006c6176 	rsbeq	r6, ip, r6, ror r1
    1b80:	252b4901 	strcs	r4, [fp, #-2305]!	; 0xfffff6ff
    1b84:	f2000000 	vhadd.s8	d0, d0, d0
    1b88:	e600000b 	str	r0, [r0], -fp
    1b8c:	1f00000b 	svcne	0x0000000b
    1b90:	000007d3 	ldrdeq	r0, [r0], -r3
    1b94:	25344901 	ldrcs	r4, [r4, #-2305]!	; 0xfffff6ff
    1b98:	48000000 	stmdami	r0, {}	; <UNPREDICTABLE>
    1b9c:	4200000c 	andmi	r0, r0, #12, 0
    1ba0:	0f00000c 	svceq	0x0000000c
    1ba4:	0000088d 	andeq	r0, r0, sp, lsl #17
    1ba8:	253f4901 	ldrcs	r4, [pc, #-2305]!	; 12af <__code_start__-0x6d51>
    1bac:	02000000 	andeq	r0, r0, #0, 0
    1bb0:	62140491 	andsvs	r0, r4, #-1862270976	; 0x91000000
    1bb4:	01006675 	tsteq	r0, r5, ror r6
    1bb8:	08ab074e 	stmiaeq	fp!, {r1, r2, r3, r6, r8, r9, sl}
    1bbc:	91030000 	mrsls	r0, (UNDEF: 3)
    1bc0:	70107fa8 	andsvc	r7, r0, r8, lsr #31
    1bc4:	114e0100 	mrsne	r0, (UNDEF: 94)
    1bc8:	00000717 	andeq	r0, r0, r7, lsl r7
    1bcc:	00000c92 	muleq	r0, r2, ip
    1bd0:	00000c72 	andeq	r0, r0, r2, ror ip
    1bd4:	01007510 	tsteq	r0, r0, lsl r5
    1bd8:	002c0b4f 	eoreq	r0, ip, pc, asr #22
    1bdc:	0d780000 	ldcleq	0, cr0, [r8, #-0]
    1be0:	0d640000 	stcleq	0, cr0, [r4, #-0]
    1be4:	22120000 	andscs	r0, r2, #0, 0
    1be8:	cb000003 	blgt	1bfc <__code_start__-0x6404>
    1bec:	05000008 	streq	r0, [r0, #-8]
    1bf0:	0093a803 	addseq	sl, r3, r3, lsl #16
    1bf4:	84bc1600 	ldrthi	r1, [ip], #1536	; 0x600
    1bf8:	00780000 	rsbseq	r0, r8, r0
    1bfc:	08320000 	ldmdaeq	r2!, {}	; <UNPREDICTABLE>
    1c00:	29110000 	ldmdbcs	r1, {}	; <UNPREDICTABLE>
    1c04:	01000008 	tsteq	r0, r8
    1c08:	002c0d54 	eoreq	r0, ip, r4, asr sp
    1c0c:	0df90000 	ldcleq	0, cr0, [r9]
    1c10:	0df10000 	ldcleq	0, cr0, [r1]
    1c14:	18000000 	stmdane	r0, {}	; <UNPREDICTABLE>
    1c18:	00008574 	andeq	r8, r0, r4, ror r5
    1c1c:	0000095d 	andeq	r0, r0, sp, asr r9
    1c20:	00000847 	andeq	r0, r0, r7, asr #16
    1c24:	03510119 	cmpeq	r1, #1073741830	; 0x40000006
    1c28:	007fa091 			; <UNDEFINED> instruction: 0x007fa091
    1c2c:	00858818 	addeq	r8, r5, r8, lsl r8
    1c30:	0008d000 	andeq	sp, r8, r0
    1c34:	00086800 	andeq	r6, r8, r0, lsl #16
    1c38:	50011900 	andpl	r1, r1, r0, lsl #18
    1c3c:	19007502 	stmdbne	r0, {r1, r8, sl, ip, sp, lr}
    1c40:	74025101 	strvc	r5, [r2], #-257	; 0xfffffeff
    1c44:	53011900 	movwpl	r1, #6400	; 0x1900
    1c48:	7fa09103 	svcvc	0x00a09103
    1c4c:	85e01800 	strbhi	r1, [r0, #2048]!	; 0x800
    1c50:	0a9e0000 	beq	fe781c58 <__bss_end__+0xfe777e70>
    1c54:	08a10000 	stmiaeq	r1!, {}	; <UNPREDICTABLE>
    1c58:	01190000 	tsteq	r9, r0
    1c5c:	28030550 	stmdacs	r3, {r4, r6, r8, sl}
    1c60:	19000091 	stmdbne	r0, {r0, r4, r7}
    1c64:	03055101 	movweq	r5, #20737	; 0x5101
    1c68:	00009264 	andeq	r9, r0, r4, ror #4
    1c6c:	05520119 	ldrbeq	r0, [r2, #-281]	; 0xfffffee7
    1c70:	0093a803 	addseq	sl, r3, r3, lsl #16
    1c74:	53011900 	movwpl	r1, #6400	; 0x1900
    1c78:	19790802 	ldmdbne	r9!, {r1, fp}^
    1c7c:	05007d02 	streq	r7, [r0, #-3330]	; 0xfffff2fe
    1c80:	00927803 	addseq	r7, r2, r3, lsl #16
    1c84:	e41a0000 	ldr	r0, [sl], #-0
    1c88:	c2000085 	andgt	r0, r0, #133, 0	; 0x85
    1c8c:	0000000a 	andeq	r0, r0, sl
    1c90:	0000b91c 	andeq	fp, r0, ip, lsl r9
    1c94:	0008bb00 	andeq	fp, r8, r0, lsl #22
    1c98:	002c1d00 	eoreq	r1, ip, r0, lsl #26
    1c9c:	003f0000 	eorseq	r0, pc, r0
    1ca0:	0000c01c 	andeq	ip, r0, ip, lsl r0
    1ca4:	0008cb00 	andeq	ip, r8, r0, lsl #22
    1ca8:	002c1d00 	eoreq	r1, ip, r0, lsl #26
    1cac:	00040000 	andeq	r0, r4, r0
    1cb0:	0008bb09 	andeq	fp, r8, r9, lsl #22
    1cb4:	084e1e00 	stmdaeq	lr, {r9, sl, fp, ip}^
    1cb8:	38010000 	stmdacc	r1, {}	; <UNPREDICTABLE>
    1cbc:	0007170e 	andeq	r1, r7, lr, lsl #14
    1cc0:	00841800 	addeq	r1, r4, r0, lsl #16
    1cc4:	00003800 	andeq	r3, r0, r0, lsl #16
    1cc8:	5d9c0100 	ldfpls	f0, [ip]
    1ccc:	0e000009 	cdpeq	0, 0, cr0, cr0, cr9, {0}
    1cd0:	00747364 	rsbseq	r7, r4, r4, ror #6
    1cd4:	171c3801 	ldrne	r3, [ip, -r1, lsl #16]
    1cd8:	3a000007 	bcc	1cfc <__code_start__-0x6304>
    1cdc:	3000000e 	andcc	r0, r0, lr
    1ce0:	0e00000e 	cdpeq	0, 0, cr0, cr0, cr14, {0}
    1ce4:	3801006e 	stmdacc	r1, {r1, r2, r3, r5, r6}
    1ce8:	00002525 	andeq	r2, r0, r5, lsr #10
    1cec:	000e8100 	andeq	r8, lr, r0, lsl #2
    1cf0:	000e7d00 	andeq	r7, lr, r0, lsl #26
    1cf4:	00700e00 	rsbseq	r0, r0, r0, lsl #28
    1cf8:	172e3801 	strne	r3, [lr, -r1, lsl #16]!
    1cfc:	aa000007 	bge	1d20 <__code_start__-0x62e0>
    1d00:	a200000e 	andge	r0, r0, #14, 0
    1d04:	1f00000e 	svcne	0x0000000e
    1d08:	0000081c 	andeq	r0, r0, ip, lsl r8
    1d0c:	17373801 	ldrne	r3, [r7, -r1, lsl #16]!
    1d10:	e4000007 	str	r0, [r0], #-7
    1d14:	e000000e 	and	r0, r0, lr
    1d18:	1000000e 	andne	r0, r0, lr
    1d1c:	006e656c 	rsbeq	r6, lr, ip, ror #10
    1d20:	25063a01 	strcs	r3, [r6, #-2561]	; 0xfffff5ff
    1d24:	0a000000 	beq	1d2c <__code_start__-0x62d4>
    1d28:	0200000f 	andeq	r0, r0, #15, 0
    1d2c:	1000000f 	andne	r0, r0, pc
    1d30:	3e010073 	mcrcc	0, 0, r0, cr1, cr3, {3}
    1d34:	00071708 	andeq	r1, r7, r8, lsl #14
    1d38:	000f5800 	andeq	r5, pc, r0, lsl #16
    1d3c:	000f5600 	andeq	r5, pc, r0, lsl #12
    1d40:	70200000 	eorvc	r0, r0, r0
    1d44:	01006461 	tsteq	r0, r1, ror #8
    1d48:	07170e2e 	ldreq	r0, [r7, -lr, lsr #28]
    1d4c:	83f40000 	mvnshi	r0, #0, 0
    1d50:	00240000 	eoreq	r0, r4, r0
    1d54:	9c010000 	stcls	0, cr0, [r1], {-0}
    1d58:	000009c0 	andeq	r0, r0, r0, asr #19
    1d5c:	0100700e 	tsteq	r0, lr
    1d60:	0717182e 	ldreq	r1, [r7, -lr, lsr #16]
    1d64:	0f710000 	svceq	0x00710000
    1d68:	0f6b0000 	svceq	0x006b0000
    1d6c:	881f0000 	ldmdahi	pc, {}	; <UNPREDICTABLE>
    1d70:	01000008 	tsteq	r0, r8
    1d74:	0717222e 	ldreq	r2, [r7, -lr, lsr #4]
    1d78:	0fa00000 	svceq	0x00a00000
    1d7c:	0f9c0000 	svceq	0x009c0000
    1d80:	d30f0000 	movwle	r0, #61440	; 0xf000
    1d84:	01000007 	tsteq	r0, r7
    1d88:	00252c2e 	eoreq	r2, r5, lr, lsr #24
    1d8c:	52010000 	andpl	r0, r1, #0, 0
    1d90:	6e656c10 	mcrvs	12, 3, r6, cr5, cr0, {0}
    1d94:	062f0100 	strteq	r0, [pc], -r0, lsl #2
    1d98:	00000025 	andeq	r0, r0, r5, lsr #32
    1d9c:	00000fc3 	andeq	r0, r0, r3, asr #31
    1da0:	00000fc1 	andeq	r0, r0, r1, asr #31
    1da4:	07921e00 	ldreq	r1, [r2, r0, lsl #28]
    1da8:	27010000 	strcs	r0, [r1, -r0]
    1dac:	0000250c 	andeq	r2, r0, ip, lsl #10
    1db0:	0083e000 	addeq	lr, r3, r0
    1db4:	00001400 	andeq	r1, r0, r0, lsl #8
    1db8:	ed9c0100 	ldfs	f0, [ip]
    1dbc:	0e000009 	cdpeq	0, 0, cr0, cr0, cr9, {0}
    1dc0:	27010063 	strcs	r0, [r1, -r3, rrx]
    1dc4:	00002518 	andeq	r2, r0, r8, lsl r5
    1dc8:	000fdc00 	andeq	sp, pc, r0, lsl #24
    1dcc:	000fd600 	andeq	sp, pc, r0, lsl #12
    1dd0:	09210000 	stmdbeq	r1!, {}	; <UNPREDICTABLE>
    1dd4:	01000008 	tsteq	r0, r8
    1dd8:	8604061f 			; <UNDEFINED> instruction: 0x8604061f
    1ddc:	00640000 	rsbeq	r0, r4, r0
    1de0:	9c010000 	stcls	0, cr0, [r1], {-0}
    1de4:	00000a7d 	andeq	r0, r0, sp, ror sl
    1de8:	0007e61f 	andeq	lr, r7, pc, lsl r6
    1dec:	1b1f0100 	blne	7c21f4 <__bss_end__+0x7b840c>
    1df0:	0000009e 	muleq	r0, lr, r0
    1df4:	0000100e 	andeq	r1, r0, lr
    1df8:	0000100a 	andeq	r1, r0, sl
    1dfc:	0008461f 	andeq	r4, r8, pc, lsl r6
    1e00:	301f0100 	andscc	r0, pc, r0, lsl #2
    1e04:	000000d1 	ldrdeq	r0, [r0], -r1
    1e08:	00001033 	andeq	r1, r0, r3, lsr r0
    1e0c:	0000102f 	andeq	r1, r0, pc, lsr #32
    1e10:	00032212 	andeq	r2, r3, r2, lsl r2
    1e14:	000a8d00 	andeq	r8, sl, r0, lsl #26
    1e18:	b0030500 	andlt	r0, r3, r0, lsl #10
    1e1c:	18000093 	stmdane	r0, {r0, r1, r4, r7}
    1e20:	0000864c 	andeq	r8, r0, ip, asr #12
    1e24:	00000a9e 	muleq	r0, lr, sl
    1e28:	00000a73 	andeq	r0, r0, r3, ror sl
    1e2c:	05500119 	ldrbeq	r0, [r0, #-281]	; 0xfffffee7
    1e30:	00912803 	addseq	r2, r1, r3, lsl #16
    1e34:	51011900 	tstpl	r1, r0, lsl #18
    1e38:	92640305 	rsbls	r0, r4, #335544320	; 0x14000000
    1e3c:	01190000 	tsteq	r9, r0
    1e40:	b0030552 	andlt	r0, r3, r2, asr r5
    1e44:	19000093 	stmdbne	r0, {r0, r1, r4, r7}
    1e48:	08025301 	stmdaeq	r2, {r0, r8, r9, ip, lr}
    1e4c:	7d021920 	vstrvc.16	s2, [r2, #-64]	; 0xffffffc0	; <UNPREDICTABLE>
    1e50:	a0030500 	andge	r0, r3, r0, lsl #10
    1e54:	00000092 	muleq	r0, r2, r0
    1e58:	0086501a 	addeq	r5, r6, sl, lsl r0
    1e5c:	000ac200 	andeq	ip, sl, r0, lsl #4
    1e60:	c01c0000 	andsgt	r0, ip, r0
    1e64:	8d000000 	stchi	0, cr0, [r0, #-0]
    1e68:	1d00000a 	stcne	0, cr0, [r0, #-40]	; 0xffffffd8
    1e6c:	0000002c 	andeq	r0, r0, ip, lsr #32
    1e70:	7d09000e 	stcvc	0, cr0, [r9, #-56]	; 0xffffffc8
    1e74:	2200000a 	andcs	r0, r0, #10, 0
    1e78:	00000880 	andeq	r0, r0, r0, lsl #17
    1e7c:	00000880 	andeq	r0, r0, r0, lsl #17
    1e80:	2205f003 	andcs	pc, r5, #3, 0
    1e84:	000006fa 	strdeq	r0, [r0], -sl
    1e88:	000006fa 	strdeq	r0, [r0], -sl
    1e8c:	22062803 	andcs	r2, r6, #196608	; 0x30000
    1e90:	0000085d 	andeq	r0, r0, sp, asr r8
    1e94:	0000085d 	andeq	r0, r0, sp, asr r8
    1e98:	2205ef03 	andcs	lr, r5, #3, 30
    1e9c:	00000822 	andeq	r0, r0, r2, lsr #16
    1ea0:	00000822 	andeq	r0, r0, r2, lsr #16
    1ea4:	2207f203 	andcs	pc, r7, #805306368	; 0x30000000
    1ea8:	00000342 	andeq	r0, r0, r2, asr #6
    1eac:	00000342 	andeq	r0, r0, r2, asr #6
    1eb0:	22066e03 	andcs	r6, r6, #3, 28	; 0x30
    1eb4:	00000856 	andeq	r0, r0, r6, asr r8
    1eb8:	00000856 	andeq	r0, r0, r6, asr r8
    1ebc:	0007f303 	andeq	pc, r7, r3, lsl #6
    1ec0:	0000010a 	andeq	r0, r0, sl, lsl #2
    1ec4:	09690004 	stmdbeq	r9!, {r2}^
    1ec8:	01040000 	mrseq	r0, (UNDEF: 4)
    1ecc:	00000628 	andeq	r0, r0, r8, lsr #12
    1ed0:	0008a40c 	andeq	sl, r8, ip, lsl #8
    1ed4:	00071000 	andeq	r1, r7, r0
    1ed8:	0000a000 	andeq	sl, r0, r0
    1edc:	00000000 	andeq	r0, r0, r0
    1ee0:	00174500 	andseq	r4, r7, r0, lsl #10
    1ee4:	05040200 	streq	r0, [r4, #-512]	; 0xfffffe00
    1ee8:	00746e69 	rsbseq	r6, r4, r9, ror #28
    1eec:	3b070403 	blcc	1c2f00 <__bss_end__+0x1b9118>
    1ef0:	03000000 	movweq	r0, #0
    1ef4:	00aa0601 	adceq	r0, sl, r1, lsl #12
    1ef8:	02030000 	andeq	r0, r3, #0, 0
    1efc:	00018f05 	andeq	r8, r1, r5, lsl #30
    1f00:	05040300 	streq	r0, [r4, #-768]	; 0xfffffd00
    1f04:	00000005 	andeq	r0, r0, r5
    1f08:	00050803 	andeq	r0, r5, r3, lsl #16
    1f0c:	03000000 	movweq	r0, #0
    1f10:	00a80801 	adceq	r0, r8, r1, lsl #16
    1f14:	02030000 	andeq	r0, r3, #0, 0
    1f18:	00017307 	andeq	r7, r1, r7, lsl #6
    1f1c:	07040300 	streq	r0, [r4, -r0, lsl #6]
    1f20:	00000036 	andeq	r0, r0, r6, lsr r0
    1f24:	31070803 	tstcc	r7, r3, lsl #16
    1f28:	04000000 	streq	r0, [r0], #-0
    1f2c:	00000025 	andeq	r0, r0, r5, lsr #32
    1f30:	0000007a 	andeq	r0, r0, sl, ror r0
    1f34:	00002505 	andeq	r2, r0, r5, lsl #10
    1f38:	a6060000 	strge	r0, [r6], -r0
    1f3c:	02000001 	andeq	r0, r0, #1, 0
    1f40:	00860e1c 	addeq	r0, r6, ip, lsl lr
    1f44:	04070000 	streq	r0, [r7], #-0
    1f48:	0000006b 	andeq	r0, r0, fp, rrx
    1f4c:	00002504 	andeq	r2, r0, r4, lsl #10
    1f50:	00009b00 	andeq	r9, r0, r0, lsl #22
    1f54:	009b0500 	addseq	r0, fp, r0, lsl #10
    1f58:	07000000 	streq	r0, [r0, -r0]
    1f5c:	0000a804 	andeq	sl, r0, r4, lsl #16
    1f60:	08010300 	stmdaeq	r1, {r8, r9}
    1f64:	000000b1 	strheq	r0, [r0], -r1
    1f68:	0000a108 	andeq	sl, r0, r8, lsl #2
    1f6c:	077f0600 	ldrbeq	r0, [pc, -r0, lsl #12]!
    1f70:	21020000 	mrscs	r0, (UNDEF: 2)
    1f74:	0000b90e 	andeq	fp, r0, lr, lsl #18
    1f78:	8c040700 	stchi	7, cr0, [r4], {-0}
    1f7c:	09000000 	stmdbeq	r0, {}	; <UNPREDICTABLE>
    1f80:	00000896 	muleq	r0, r6, r8
    1f84:	30060c01 	andcc	r0, r6, r1, lsl #24
    1f88:	1000008b 	andne	r0, r0, fp, lsl #1
    1f8c:	01000000 	mrseq	r0, (UNDEF: 0)
    1f90:	0000e89c 	muleq	r0, ip, r8
    1f94:	00720a00 	rsbseq	r0, r2, r0, lsl #20
    1f98:	2c0e0d01 	stccs	13, cr0, [lr], {1}
    1f9c:	5a000000 	bpl	1fa4 <__code_start__-0x605c>
    1fa0:	54000010 	strpl	r0, [r0], #-16
    1fa4:	00000010 	andeq	r0, r0, r0, lsl r0
    1fa8:	0001990b 	andeq	r9, r1, fp, lsl #18
    1fac:	06030100 	streq	r0, [r3], -r0, lsl #2
    1fb0:	00008b20 	andeq	r8, r0, r0, lsr #22
    1fb4:	00000010 	andeq	r0, r0, r0, lsl r0
    1fb8:	720a9c01 	andvc	r9, sl, #256	; 0x100
    1fbc:	0e040100 	adfeqs	f0, f4, f0
    1fc0:	0000002c 	andeq	r0, r0, ip, lsr #32
    1fc4:	0000108f 	andeq	r1, r0, pc, lsl #1
    1fc8:	00001089 	andeq	r1, r0, r9, lsl #1
    1fcc:	012f0000 			; <UNDEFINED> instruction: 0x012f0000
    1fd0:	00040000 	andeq	r0, r4, r0
    1fd4:	00000a12 	andeq	r0, r0, r2, lsl sl
    1fd8:	06280104 	strteq	r0, [r8], -r4, lsl #2
    1fdc:	cc0c0000 	stcgt	0, cr0, [ip], {-0}
    1fe0:	10000008 	andne	r0, r0, r8
    1fe4:	40000007 	andmi	r0, r0, r7
    1fe8:	2c00008b 	stccs	0, cr0, [r0], {139}	; 0x8b
    1fec:	0c000000 	stceq	0, cr0, [r0], {-0}
    1ff0:	02000018 	andeq	r0, r0, #24, 0
    1ff4:	6e690504 	cdpvs	5, 6, cr0, cr9, cr4, {0}
    1ff8:	04030074 	streq	r0, [r3], #-116	; 0xffffff8c
    1ffc:	00003b07 	andeq	r3, r0, r7, lsl #22
    2000:	06010300 	streq	r0, [r1], -r0, lsl #6
    2004:	000000aa 	andeq	r0, r0, sl, lsr #1
    2008:	8f050203 	svchi	0x00050203
    200c:	03000001 	movweq	r0, #1
    2010:	00050504 	andeq	r0, r5, r4, lsl #10
    2014:	08030000 	stmdaeq	r3, {}	; <UNPREDICTABLE>
    2018:	00000005 	andeq	r0, r0, r5
    201c:	08010300 	stmdaeq	r1, {r8, r9}
    2020:	000000a8 	andeq	r0, r0, r8, lsr #1
    2024:	73070203 	movwvc	r0, #29187	; 0x7203
    2028:	03000001 	movweq	r0, #1
    202c:	00360704 	eorseq	r0, r6, r4, lsl #14
    2030:	08030000 	stmdaeq	r3, {}	; <UNPREDICTABLE>
    2034:	00003107 	andeq	r3, r0, r7, lsl #2
    2038:	00250400 	eoreq	r0, r5, r0, lsl #8
    203c:	007a0000 	rsbseq	r0, sl, r0
    2040:	25050000 	strcs	r0, [r5, #-0]
    2044:	00000000 	andeq	r0, r0, r0
    2048:	0001a606 	andeq	sl, r1, r6, lsl #12
    204c:	0e1c0200 	cdpeq	2, 1, cr0, cr12, cr0, {0}
    2050:	00000086 	andeq	r0, r0, r6, lsl #1
    2054:	006b0407 	rsbeq	r0, fp, r7, lsl #8
    2058:	25040000 	strcs	r0, [r4, #-0]
    205c:	9b000000 	blls	2064 <__code_start__-0x5f9c>
    2060:	05000000 	streq	r0, [r0, #-0]
    2064:	0000009b 	muleq	r0, fp, r0
    2068:	a8040700 	stmdage	r4, {r8, r9, sl}
    206c:	03000000 	movweq	r0, #0
    2070:	00b10801 	adcseq	r0, r1, r1, lsl #16
    2074:	a1080000 	mrsge	r0, (UNDEF: 8)
    2078:	06000000 	streq	r0, [r0], -r0
    207c:	0000077f 	andeq	r0, r0, pc, ror r7
    2080:	b90e2102 	stmdblt	lr, {r1, r8, sp}
    2084:	07000000 	streq	r0, [r0, -r0]
    2088:	00008c04 	andeq	r8, r0, r4, lsl #24
    208c:	03420900 	movteq	r0, #10496	; 0x2900
    2090:	04010000 	streq	r0, [r1], #-0
    2094:	008b4006 	addeq	r4, fp, r6
    2098:	00002c00 	andeq	r2, r0, r0, lsl #24
    209c:	0e9c0100 	fmleqe	f0, f4, f0
    20a0:	0a000001 	beq	20ac <__code_start__-0x5f54>
    20a4:	00008b54 	andeq	r8, r0, r4, asr fp
    20a8:	000000e8 	andeq	r0, r0, r8, ror #1
    20ac:	0550010b 	ldrbeq	r0, [r0, #-267]	; 0xfffffef5
    20b0:	0093cc03 	addseq	ip, r3, r3, lsl #24
    20b4:	580c0000 	stmdapl	ip, {}	; <UNPREDICTABLE>
    20b8:	0e00008b 	cdpeq	0, 0, cr0, cr0, cr11, {4}
    20bc:	0d000001 	stceq	0, cr0, [r0, #-4]
    20c0:	00008b60 	andeq	r8, r0, r0, ror #22
    20c4:	0000011a 	andeq	r0, r0, sl, lsl r1
    20c8:	00000104 	andeq	r0, r0, r4, lsl #2
    20cc:	0150010b 	cmpeq	r0, fp, lsl #2
    20d0:	640c003a 	strvs	r0, [ip], #-58	; 0xffffffc6
    20d4:	2600008b 	strcs	r0, [r0], -fp, lsl #1
    20d8:	00000001 	andeq	r0, r0, r1
    20dc:	0008e70e 	andeq	lr, r8, lr, lsl #14
    20e0:	0008e700 	andeq	lr, r8, r0, lsl #14
    20e4:	064d0200 	strbeq	r0, [sp], -r0, lsl #4
    20e8:	0008c30e 	andeq	ip, r8, lr, lsl #6
    20ec:	0008c300 	andeq	ip, r8, r0, lsl #6
    20f0:	06580200 	ldrbeq	r0, [r8], -r0, lsl #4
    20f4:	0008b80e 	andeq	fp, r8, lr, lsl #16
    20f8:	0008b800 	andeq	fp, r8, r0, lsl #16
    20fc:	066b0200 	strbteq	r0, [fp], -r0, lsl #4
    2100:	00018900 	andeq	r8, r1, r0, lsl #18
    2104:	d2000400 	andle	r0, r0, #0, 8
    2108:	0400000a 	streq	r0, [r0], #-10
    210c:	00062801 	andeq	r2, r6, r1, lsl #16
    2110:	091d0c00 	ldmdbeq	sp, {sl, fp}
    2114:	07100000 	ldreq	r0, [r0, -r0]
    2118:	8b6c0000 	blhi	1b02120 <__bss_end__+0x1af8338>
    211c:	003c0000 	eorseq	r0, ip, r0
    2120:	18b40000 	ldmne	r4!, {}	; <UNPREDICTABLE>
    2124:	04020000 	streq	r0, [r2], #-0
    2128:	746e6905 	strbtvc	r6, [lr], #-2309	; 0xfffff6fb
    212c:	07040300 	streq	r0, [r4, -r0, lsl #6]
    2130:	0000003b 	andeq	r0, r0, fp, lsr r0
    2134:	aa060103 	bge	182548 <__bss_end__+0x178760>
    2138:	03000000 	movweq	r0, #0
    213c:	018f0502 	orreq	r0, pc, r2, lsl #10
    2140:	04030000 	streq	r0, [r3], #-0
    2144:	00000505 	andeq	r0, r0, r5, lsl #10
    2148:	05080300 	streq	r0, [r8, #-768]	; 0xfffffd00
    214c:	00000000 	andeq	r0, r0, r0
    2150:	a8080103 	stmdage	r8, {r0, r1, r8}
    2154:	03000000 	movweq	r0, #0
    2158:	01730702 	cmneq	r3, r2, lsl #14
    215c:	04030000 	streq	r0, [r3], #-0
    2160:	00003607 	andeq	r3, r0, r7, lsl #12
    2164:	07080300 	streq	r0, [r8, -r0, lsl #6]
    2168:	00000031 	andeq	r0, r0, r1, lsr r0
    216c:	00002504 	andeq	r2, r0, r4, lsl #10
    2170:	00007a00 	andeq	r7, r0, r0, lsl #20
    2174:	00250500 	eoreq	r0, r5, r0, lsl #10
    2178:	06000000 	streq	r0, [r0], -r0
    217c:	000001a6 	andeq	r0, r0, r6, lsr #3
    2180:	860e1c02 	strhi	r1, [lr], -r2, lsl #24
    2184:	07000000 	streq	r0, [r0, -r0]
    2188:	00006b04 	andeq	r6, r0, r4, lsl #22
    218c:	00250400 	eoreq	r0, r5, r0, lsl #8
    2190:	009b0000 	addseq	r0, fp, r0
    2194:	9b050000 	blls	14219c <__bss_end__+0x1383b4>
    2198:	00000000 	andeq	r0, r0, r0
    219c:	00a80407 	adceq	r0, r8, r7, lsl #8
    21a0:	01030000 	mrseq	r0, (UNDEF: 3)
    21a4:	0000b108 	andeq	fp, r0, r8, lsl #2
    21a8:	00a10800 	adceq	r0, r1, r0, lsl #16
    21ac:	7f060000 	svcvc	0x00060000
    21b0:	02000007 	andeq	r0, r0, #7, 0
    21b4:	00b90e21 	adcseq	r0, r9, r1, lsr #28
    21b8:	04070000 	streq	r0, [r7], #-0
    21bc:	0000008c 	andeq	r0, r0, ip, lsl #1
    21c0:	0008f509 	andeq	pc, r8, r9, lsl #10
    21c4:	06040100 	streq	r0, [r4], -r0, lsl #2
    21c8:	00008b6c 	andeq	r8, r0, ip, ror #22
    21cc:	0000003c 	andeq	r0, r0, ip, lsr r0
    21d0:	01549c01 	cmpeq	r4, r1, lsl #24
    21d4:	c5060000 	strgt	r0, [r6, #-0]
    21d8:	01000007 	tsteq	r0, r7
    21dc:	00251005 	eoreq	r1, r5, r5
    21e0:	ee060000 	cdp	0, 0, cr0, cr6, cr0, {0}
    21e4:	01000007 	tsteq	r0, r7
    21e8:	00251f05 	eoreq	r1, r5, r5, lsl #30
    21ec:	6b0a0000 	blvs	2821f4 <__bss_end__+0x27840c>
    21f0:	01000001 	tsteq	r0, r1
    21f4:	620b0706 	andvs	r0, fp, #1572864	; 0x180000
    21f8:	01007373 	tsteq	r0, r3, ror r3
    21fc:	01540a0a 	cmpeq	r4, sl, lsl #20
    2200:	10c40000 	sbcne	r0, r4, r0
    2204:	10be0000 	adcsne	r0, lr, r0
    2208:	fd0c0000 	stc2	0, cr0, [ip, #-0]
    220c:	01000008 	tsteq	r0, r8
    2210:	01540a0b 	cmpeq	r4, fp, lsl #20
    2214:	900d0000 	andls	r0, sp, r0
    2218:	0800008b 	stmdaeq	r0, {r0, r1, r3, r7}
    221c:	2f000000 	svccs	0x00000000
    2220:	0e000001 	cdpeq	0, 0, cr0, cr0, cr1, {0}
    2224:	01006e69 	tsteq	r0, r9, ror #28
    2228:	002c0514 	eoreq	r0, ip, r4, lsl r5
    222c:	00010000 	andeq	r0, r1, r0
    2230:	008b740f 	addeq	r7, fp, pc, lsl #8
    2234:	00015a00 	andeq	r5, r1, r0, lsl #20
    2238:	8b900f00 	blhi	fe405e40 <__bss_end__+0xfe3fc058>
    223c:	01670000 	cmneq	r7, r0
    2240:	9c0f0000 	stcls	0, cr0, [pc], {-0}
    2244:	7300008b 	movwvc	r0, #139	; 0x8b
    2248:	0f000001 	svceq	0x00000001
    224c:	00008ba0 	andeq	r8, r0, r0, lsr #23
    2250:	00000180 	andeq	r0, r0, r0, lsl #3
    2254:	25040700 	strcs	r0, [r4, #-1792]	; 0xfffff900
    2258:	10000000 	andne	r0, r0, r0
    225c:	0000090f 	andeq	r0, r0, pc, lsl #18
    2260:	0000090f 	andeq	r0, r0, pc, lsl #18
    2264:	06013602 	streq	r3, [r1], -r2, lsl #12
    2268:	00090511 	andeq	r0, r9, r1, lsl r5
    226c:	00090500 	andeq	r0, r9, r0, lsl #10
    2270:	063b0200 	ldrteq	r0, [fp], -r0, lsl #4
    2274:	00016b10 	andeq	r6, r1, r0, lsl fp
    2278:	00016b00 	andeq	r6, r1, r0, lsl #22
    227c:	010a0200 	mrseq	r0, R10_fiq
    2280:	03421106 	movteq	r1, #8454	; 0x2106
    2284:	03420000 	movteq	r0, #8192	; 0x2000
    2288:	6e020000 	cdpvs	0, 0, cr0, cr2, cr0, {0}
    228c:	00ce0006 	sbceq	r0, lr, r6
    2290:	00040000 	andeq	r0, r4, r0
    2294:	00000bce 	andeq	r0, r0, lr, asr #23
    2298:	06280104 	strteq	r0, [r8], -r4, lsl #2
    229c:	320c0000 	andcc	r0, ip, #0, 0
    22a0:	10000009 	andne	r0, r0, r9
    22a4:	a8000007 	stmdage	r0, {r0, r1, r2}
    22a8:	0400008b 	streq	r0, [r0], #-139	; 0xffffff75
    22ac:	76000000 	strvc	r0, [r0], -r0
    22b0:	02000019 	andeq	r0, r0, #25, 0
    22b4:	6e690504 	cdpvs	5, 6, cr0, cr9, cr4, {0}
    22b8:	04030074 	streq	r0, [r3], #-116	; 0xffffff8c
    22bc:	00003b07 	andeq	r3, r0, r7, lsl #22
    22c0:	06010300 	streq	r0, [r1], -r0, lsl #6
    22c4:	000000aa 	andeq	r0, r0, sl, lsr #1
    22c8:	8f050203 	svchi	0x00050203
    22cc:	03000001 	movweq	r0, #1
    22d0:	00050504 	andeq	r0, r5, r4, lsl #10
    22d4:	08030000 	stmdaeq	r3, {}	; <UNPREDICTABLE>
    22d8:	00000005 	andeq	r0, r0, r5
    22dc:	08010300 	stmdaeq	r1, {r8, r9}
    22e0:	000000a8 	andeq	r0, r0, r8, lsr #1
    22e4:	73070203 	movwvc	r0, #29187	; 0x7203
    22e8:	03000001 	movweq	r0, #1
    22ec:	00360704 	eorseq	r0, r6, r4, lsl #14
    22f0:	08030000 	stmdaeq	r3, {}	; <UNPREDICTABLE>
    22f4:	00003107 	andeq	r3, r0, r7, lsl #2
    22f8:	00250400 	eoreq	r0, r5, r0, lsl #8
    22fc:	007a0000 	rsbseq	r0, sl, r0
    2300:	25050000 	strcs	r0, [r5, #-0]
    2304:	00000000 	andeq	r0, r0, r0
    2308:	0001a606 	andeq	sl, r1, r6, lsl #12
    230c:	0e1c0200 	cdpeq	2, 1, cr0, cr12, cr0, {0}
    2310:	00000086 	andeq	r0, r0, r6, lsl #1
    2314:	006b0407 	rsbeq	r0, fp, r7, lsl #8
    2318:	25040000 	strcs	r0, [r4, #-0]
    231c:	9b000000 	blls	2324 <__code_start__-0x5cdc>
    2320:	05000000 	streq	r0, [r0, #-0]
    2324:	0000009b 	muleq	r0, fp, r0
    2328:	a8040700 	stmdage	r4, {r8, r9, sl}
    232c:	03000000 	movweq	r0, #0
    2330:	00b10801 	adcseq	r0, r1, r1, lsl #16
    2334:	a1080000 	mrsge	r0, (UNDEF: 8)
    2338:	06000000 	streq	r0, [r0], -r0
    233c:	0000077f 	andeq	r0, r0, pc, ror r7
    2340:	b90e2102 	stmdblt	lr, {r1, r8, sp}
    2344:	07000000 	streq	r0, [r0, -r0]
    2348:	00008c04 	andeq	r8, r0, r4, lsl #24
    234c:	090f0900 	stmdbeq	pc, {r8, fp}	; <UNPREDICTABLE>
    2350:	04010000 	streq	r0, [r1], #-0
    2354:	008ba806 	addeq	sl, fp, r6, lsl #16
    2358:	00000400 	andeq	r0, r0, r0, lsl #8
    235c:	009c0100 	addseq	r0, ip, r0, lsl #2
    2360:	00000236 	andeq	r0, r0, r6, lsr r2
    2364:	0c470004 	mcrreq	0, 0, r0, r7, cr4
    2368:	01040000 	mrseq	r0, (UNDEF: 4)
    236c:	00000628 	andeq	r0, r0, r8, lsr #12
    2370:	0009740c 	andeq	r7, r9, ip, lsl #8
    2374:	00071000 	andeq	r1, r7, r0
    2378:	0000b000 	andeq	fp, r0, r0
    237c:	00000000 	andeq	r0, r0, r0
    2380:	001a1c00 	andseq	r1, sl, r0, lsl #24
    2384:	05040200 	streq	r0, [r4, #-512]	; 0xfffffe00
    2388:	00746e69 	rsbseq	r6, r4, r9, ror #28
    238c:	00002503 	andeq	r2, r0, r3, lsl #10
    2390:	07040400 	streq	r0, [r4, -r0, lsl #8]
    2394:	0000003b 	andeq	r0, r0, fp, lsr r0
    2398:	aa060104 	bge	1827b0 <__bss_end__+0x1789c8>
    239c:	04000000 	streq	r0, [r0], #-0
    23a0:	018f0502 	orreq	r0, pc, r2, lsl #10
    23a4:	04040000 	streq	r0, [r4], #-0
    23a8:	00000505 	andeq	r0, r0, r5, lsl #10
    23ac:	05080400 	streq	r0, [r8, #-1024]	; 0xfffffc00
    23b0:	00000000 	andeq	r0, r0, r0
    23b4:	a8080104 	stmdage	r8, {r2, r8}
    23b8:	04000000 	streq	r0, [r0], #-0
    23bc:	01730702 	cmneq	r3, r2, lsl #14
    23c0:	04040000 	streq	r0, [r4], #-0
    23c4:	00003607 	andeq	r3, r0, r7, lsl #12
    23c8:	07080400 	streq	r0, [r8, -r0, lsl #8]
    23cc:	00000031 	andeq	r0, r0, r1, lsr r0
    23d0:	00002505 	andeq	r2, r0, r5, lsl #10
    23d4:	00007f00 	andeq	r7, r0, r0, lsl #30
    23d8:	00250600 	eoreq	r0, r5, r0, lsl #12
    23dc:	07000000 	streq	r0, [r0, -r0]
    23e0:	000001a6 	andeq	r0, r0, r6, lsr #3
    23e4:	8b0e1c02 	blhi	3893f4 <__bss_end__+0x37f60c>
    23e8:	08000000 	stmdaeq	r0, {}	; <UNPREDICTABLE>
    23ec:	00007004 	andeq	r7, r0, r4
    23f0:	00250500 	eoreq	r0, r5, r0, lsl #10
    23f4:	00a00000 	adceq	r0, r0, r0
    23f8:	a0060000 	andge	r0, r6, r0
    23fc:	00000000 	andeq	r0, r0, r0
    2400:	00ad0408 	adceq	r0, sp, r8, lsl #8
    2404:	01040000 	mrseq	r0, (UNDEF: 4)
    2408:	0000b108 	andeq	fp, r0, r8, lsl #2
    240c:	00a60300 	adceq	r0, r6, r0, lsl #6
    2410:	7f070000 	svcvc	0x00070000
    2414:	02000007 	andeq	r0, r0, #7, 0
    2418:	00be0e21 	adcseq	r0, lr, r1, lsr #28
    241c:	04080000 	streq	r0, [r8], #-0
    2420:	00000091 	muleq	r0, r1, r0
    2424:	00099809 	andeq	r9, r9, r9, lsl #16
    2428:	110d0100 	mrsne	r0, (UNDEF: 29)
    242c:	00000031 	andeq	r0, r0, r1, lsr r0
    2430:	0008b80a 	andeq	fp, r8, sl, lsl #16
    2434:	061f0100 	ldreq	r0, [pc], -r0, lsl #2
    2438:	00008bf0 	strdeq	r8, [r0], -r0
    243c:	00000054 	andeq	r0, r0, r4, asr r0
    2440:	01ae9c01 			; <UNDEFINED> instruction: 0x01ae9c01
    2444:	bc0b0000 	stclt	0, cr0, [fp], {-0}
    2448:	01000009 	tsteq	r0, r9
    244c:	002c0f2c 	eoreq	r0, ip, ip, lsr #30
    2450:	10f10000 	rscsne	r0, r1, r0
    2454:	10ef0000 	rscne	r0, pc, r0
    2458:	5d0b0000 	stcpl	0, cr0, [fp, #-0]
    245c:	01000009 	tsteq	r0, r9
    2460:	002c0f2d 	eoreq	r0, ip, sp, lsr #30
    2464:	110b0000 	mrsne	r0, (UNDEF: 11)
    2468:	11090000 	mrsne	r0, (UNDEF: 9)
    246c:	890b0000 	stmdbhi	fp, {}	; <UNPREDICTABLE>
    2470:	01000009 	tsteq	r0, r9
    2474:	002c0f2e 	eoreq	r0, ip, lr, lsr #30
    2478:	11250000 			; <UNDEFINED> instruction: 0x11250000
    247c:	11230000 			; <UNDEFINED> instruction: 0x11230000
    2480:	a30b0000 	movwge	r0, #45056	; 0xb000
    2484:	01000009 	tsteq	r0, r9
    2488:	002c0f2f 	eoreq	r0, ip, pc, lsr #30
    248c:	113e0000 	teqne	lr, r0
    2490:	113c0000 	teqne	ip, r0
    2494:	f80c0000 			; <UNDEFINED> instruction: 0xf80c0000
    2498:	d900008b 	stmdble	r0, {r0, r1, r3, r7}
    249c:	0c000001 	stceq	0, cr0, [r0], {1}
    24a0:	00008c04 	andeq	r8, r0, r4, lsl #24
    24a4:	00000208 	andeq	r0, r0, r8, lsl #4
    24a8:	008c080c 	addeq	r0, ip, ip, lsl #16
    24ac:	00021500 	andeq	r1, r2, r0, lsl #10
    24b0:	8c100d00 	ldchi	13, cr0, [r0], {-0}
    24b4:	02210000 	eoreq	r0, r1, #0, 0
    24b8:	01640000 	cmneq	r4, r0
    24bc:	010e0000 	mrseq	r0, (UNDEF: 14)
    24c0:	003a0150 	eorseq	r0, sl, r0, asr r1
    24c4:	008c1c0d 	addeq	r1, ip, sp, lsl #24
    24c8:	00022d00 	andeq	r2, r2, r0, lsl #26
    24cc:	00018400 	andeq	r8, r1, r0, lsl #8
    24d0:	50010e00 	andpl	r0, r1, r0, lsl #28
    24d4:	00240c05 	eoreq	r0, r4, r5, lsl #24
    24d8:	010e2010 	tsteq	lr, r0, lsl r0
    24dc:	010c0551 	tsteq	ip, r1, asr r5
    24e0:	005a0000 	subseq	r0, sl, r0
    24e4:	008c280d 	addeq	r2, ip, sp, lsl #16
    24e8:	00022d00 	andeq	r2, r2, r0, lsl #26
    24ec:	0001a400 	andeq	sl, r1, r0, lsl #8
    24f0:	50010e00 	andpl	r0, r1, r0, lsl #28
    24f4:	001c0c05 	andseq	r0, ip, r5, lsl #24
    24f8:	010e2010 	tsteq	lr, r0, lsl r0
    24fc:	200c0551 	andcs	r0, ip, r1, asr r5
    2500:	005a0000 	subseq	r0, sl, r0
    2504:	008c300c 	addeq	r3, ip, ip
    2508:	0001ae00 	andeq	sl, r1, r0, lsl #28
    250c:	650f0000 	strvs	r0, [pc, #-0]	; 2514 <__code_start__-0x5aec>
    2510:	01000009 	tsteq	r0, r9
    2514:	8bdc0617 	blhi	ff703d78 <__bss_end__+0xff6f9f90>
    2518:	00140000 	andseq	r0, r4, r0
    251c:	9c010000 	stcls	0, cr0, [r1], {-0}
    2520:	000001d9 	ldrdeq	r0, [r0], -r9
    2524:	0009c40b 	andeq	ip, r9, fp, lsl #8
    2528:	0e180100 	mufeqe	f0, f0, f0
    252c:	00000031 	andeq	r0, r0, r1, lsr r0
    2530:	00001159 	andeq	r1, r0, r9, asr r1
    2534:	00001153 	andeq	r1, r0, r3, asr r1
    2538:	09951000 	ldmibeq	r5, {ip}
    253c:	0e010000 	cdpeq	0, 0, cr0, cr1, cr0, {0}
    2540:	00002505 	andeq	r2, r0, r5, lsl #10
    2544:	008bc400 	addeq	ip, fp, r0, lsl #8
    2548:	00001800 	andeq	r1, r0, r0, lsl #16
    254c:	089c0100 	ldmeq	ip, {r8}
    2550:	0b000002 	bleq	2560 <__code_start__-0x5aa0>
    2554:	000009c4 	andeq	r0, r0, r4, asr #19
    2558:	310e0f01 	tstcc	lr, r1, lsl #30
    255c:	87000000 	strhi	r0, [r0, -r0]
    2560:	83000011 	movwhi	r0, #17
    2564:	00000011 	andeq	r0, r0, r1, lsl r0
    2568:	00094e11 	andeq	r4, r9, r1, lsl lr
    256c:	00094e00 	andeq	r4, r9, r0, lsl #28
    2570:	013b0200 	teqeq	fp, r0, lsl #4
    2574:	08e71206 	stmiaeq	r7!, {r1, r2, r9, ip}^
    2578:	08e70000 	stmiaeq	r7!, {}^	; <UNPREDICTABLE>
    257c:	4d020000 	stcmi	0, cr0, [r2, #-0]
    2580:	08c31206 	stmiaeq	r3, {r1, r2, r9, ip}^
    2584:	08c30000 	stmiaeq	r3, {}^	; <UNPREDICTABLE>
    2588:	58020000 	stmdapl	r2, {}	; <UNPREDICTABLE>
    258c:	04b11206 	ldrteq	r1, [r1], #518	; 0x206
    2590:	04b10000 	ldrteq	r0, [r1], #0
    2594:	b2020000 	andlt	r0, r2, #0, 0
    2598:	024d0006 	subeq	r0, sp, #6, 0
    259c:	00040000 	andeq	r0, r4, r0
    25a0:	00000d6c 	andeq	r0, r0, ip, ror #26
    25a4:	06280104 	strteq	r0, [r8], -r4, lsl #2
    25a8:	d30c0000 	movwle	r0, #49152	; 0xc000
    25ac:	10000009 	andne	r0, r0, r9
    25b0:	44000007 	strmi	r0, [r0], #-7
    25b4:	8400008c 	strhi	r0, [r0], #-140	; 0xffffff74
    25b8:	12000000 	andne	r0, r0, #0, 0
    25bc:	0200001b 	andeq	r0, r0, #27, 0
    25c0:	6e690504 	cdpvs	5, 6, cr0, cr9, cr4, {0}
    25c4:	04030074 	streq	r0, [r3], #-116	; 0xffffff8c
    25c8:	00003b07 	andeq	r3, r0, r7, lsl #22
    25cc:	06010300 	streq	r0, [r1], -r0, lsl #6
    25d0:	000000aa 	andeq	r0, r0, sl, lsr #1
    25d4:	8f050203 	svchi	0x00050203
    25d8:	03000001 	movweq	r0, #1
    25dc:	00050504 	andeq	r0, r5, r4, lsl #10
    25e0:	08030000 	stmdaeq	r3, {}	; <UNPREDICTABLE>
    25e4:	00000005 	andeq	r0, r0, r5
    25e8:	08010300 	stmdaeq	r1, {r8, r9}
    25ec:	000000a8 	andeq	r0, r0, r8, lsr #1
    25f0:	73070203 	movwvc	r0, #29187	; 0x7203
    25f4:	03000001 	movweq	r0, #1
    25f8:	00360704 	eorseq	r0, r6, r4, lsl #14
    25fc:	08030000 	stmdaeq	r3, {}	; <UNPREDICTABLE>
    2600:	00003107 	andeq	r3, r0, r7, lsl #2
    2604:	00250400 	eoreq	r0, r5, r0, lsl #8
    2608:	007a0000 	rsbseq	r0, sl, r0
    260c:	25050000 	strcs	r0, [r5, #-0]
    2610:	00000000 	andeq	r0, r0, r0
    2614:	0001a606 	andeq	sl, r1, r6, lsl #12
    2618:	0e1c0200 	cdpeq	2, 1, cr0, cr12, cr0, {0}
    261c:	00000086 	andeq	r0, r0, r6, lsl #1
    2620:	006b0407 	rsbeq	r0, fp, r7, lsl #8
    2624:	25040000 	strcs	r0, [r4, #-0]
    2628:	9b000000 	blls	2630 <__code_start__-0x59d0>
    262c:	05000000 	streq	r0, [r0, #-0]
    2630:	0000009b 	muleq	r0, fp, r0
    2634:	a8040700 	stmdage	r4, {r8, r9, sl}
    2638:	03000000 	movweq	r0, #0
    263c:	00b10801 	adcseq	r0, r1, r1, lsl #16
    2640:	a1080000 	mrsge	r0, (UNDEF: 8)
    2644:	06000000 	streq	r0, [r0], -r0
    2648:	0000077f 	andeq	r0, r0, pc, ror r7
    264c:	b90e2102 	stmdblt	lr, {r1, r8, sp}
    2650:	07000000 	streq	r0, [r0, -r0]
    2654:	00008c04 	andeq	r8, r0, r4, lsl #24
    2658:	09c90900 	stmibeq	r9, {r8, fp}^
    265c:	1e010000 	cdpne	0, 0, cr0, cr1, cr0, {0}
    2660:	008cb006 	addeq	fp, ip, r6
    2664:	00001800 	andeq	r1, r0, r0, lsl #16
    2668:	099c0100 	ldmibeq	ip, {r8}
    266c:	0a000001 	beq	2678 <__code_start__-0x5988>
    2670:	00636573 	rsbeq	r6, r3, r3, ror r5
    2674:	2c191e01 	ldccs	14, cr1, [r9], {1}
    2678:	aa000000 	bge	2680 <__code_start__-0x5980>
    267c:	a6000011 			; <UNDEFINED> instruction: 0xa6000011
    2680:	0b000011 	bleq	26cc <__code_start__-0x5934>
    2684:	00008cc4 	andeq	r8, r0, r4, asr #25
    2688:	00000109 	andeq	r0, r0, r9, lsl #2
    268c:	1150010c 	cmpne	r0, ip, lsl #2
    2690:	355001f3 	ldrbcc	r0, [r0, #-499]	; 0xfffffe0d
    2694:	5001f324 	andpl	pc, r1, r4, lsr #6
    2698:	f324321c 	vqsub.u32	d3, d4, d12
    269c:	33225001 			; <UNDEFINED> instruction: 0x33225001
    26a0:	09000024 	stmdbeq	r0, {r2, r5}
    26a4:	000008c3 	andeq	r0, r0, r3, asr #17
    26a8:	98061b01 	stmdals	r6, {r0, r8, r9, fp, ip}
    26ac:	1800008c 	stmdane	r0, {r2, r3, r7}
    26b0:	01000000 	mrseq	r0, (UNDEF: 0)
    26b4:	0001529c 	muleq	r1, ip, r2
    26b8:	736d0a00 	cmnvc	sp, #0, 20
    26bc:	181b0100 	ldmdane	fp, {r8}
    26c0:	0000002c 	andeq	r0, r0, ip, lsr #32
    26c4:	000011cf 	andeq	r1, r0, pc, asr #3
    26c8:	000011cb 	andeq	r1, r0, fp, asr #3
    26cc:	008cac0b 	addeq	sl, ip, fp, lsl #24
    26d0:	00015200 	andeq	r5, r1, r0, lsl #4
    26d4:	50010c00 	andpl	r0, r1, r0, lsl #24
    26d8:	5001f311 	andpl	pc, r1, r1, lsl r3	; <UNPREDICTABLE>
    26dc:	01f32435 	mvnseq	r2, r5, lsr r4
    26e0:	24321c50 	ldrtcs	r1, [r2], #-3152	; 0xfffff3b0
    26e4:	225001f3 	subscs	r0, r0, #-1073741764	; 0xc000003c
    26e8:	00002433 	andeq	r2, r0, r3, lsr r4
    26ec:	0009f609 	andeq	pc, r9, r9, lsl #12
    26f0:	06120100 	ldreq	r0, [r2], -r0, lsl #2
    26f4:	00008c74 	andeq	r8, r0, r4, ror ip
    26f8:	00000024 	andeq	r0, r0, r4, lsr #32
    26fc:	01c29c01 	biceq	r9, r2, r1, lsl #24
    2700:	750a0000 	strvc	r0, [sl, #-0]
    2704:	12010073 	andne	r0, r1, #115, 0	; 0x73
    2708:	00002c18 	andeq	r2, r0, r8, lsl ip
    270c:	0011f400 	andseq	pc, r1, r0, lsl #8
    2710:	0011f000 	andseq	pc, r1, r0
    2714:	62720d00 	rsbsvs	r0, r2, #0, 26
    2718:	0e130100 	mufeqs	f0, f3, f0
    271c:	0000002c 	andeq	r0, r0, ip, lsr #32
    2720:	00001214 	andeq	r1, r0, r4, lsl r2
    2724:	00001212 	andeq	r1, r0, r2, lsl r2
    2728:	008c840e 	addeq	r8, ip, lr, lsl #8
    272c:	00001400 	andeq	r1, r0, r0, lsl #8
    2730:	0001b800 	andeq	fp, r1, r0, lsl #16
    2734:	61720d00 	cmnvs	r2, r0, lsl #26
    2738:	12150100 	andsne	r0, r5, #0
    273c:	0000002c 	andeq	r0, r0, ip, lsr #32
    2740:	00001229 	andeq	r1, r0, r9, lsr #4
    2744:	00001227 	andeq	r1, r0, r7, lsr #4
    2748:	008c880f 	addeq	r8, ip, pc, lsl #16
    274c:	0001c200 	andeq	ip, r1, r0, lsl #4
    2750:	800f0000 	andhi	r0, pc, r0
    2754:	c200008c 	andgt	r0, r0, #140, 0	; 0x8c
    2758:	00000001 	andeq	r0, r0, r1
    275c:	0009e710 	andeq	lr, r9, r0, lsl r7
    2760:	0a090100 	beq	242b68 <__bss_end__+0x238d80>
    2764:	0000002c 	andeq	r0, r0, ip, lsr #32
    2768:	00008c58 	andeq	r8, r0, r8, asr ip
    276c:	0000001c 	andeq	r0, r0, ip, lsl r0
    2770:	020a9c01 	andeq	r9, sl, #256	; 0x100
    2774:	750d0000 	strvc	r0, [sp, #-0]
    2778:	0e0d0100 	adfeqe	f0, f5, f0
    277c:	0000002c 	andeq	r0, r0, ip, lsr #32
    2780:	00001240 	andeq	r1, r0, r0, asr #4
    2784:	0000123c 	andeq	r1, r0, ip, lsr r2
    2788:	008c600f 	addeq	r6, ip, pc
    278c:	00023800 	andeq	r3, r2, r0, lsl #16
    2790:	8c640f00 	stclhi	15, cr0, [r4], #-0
    2794:	020a0000 	andeq	r0, sl, #0, 0
    2798:	6c0f0000 	stcvs	0, cr0, [pc], {-0}
    279c:	3800008c 	stmdacc	r0, {r2, r3, r7}
    27a0:	00000002 	andeq	r0, r0, r2
    27a4:	0009ff10 	andeq	pc, r9, r0, lsl pc	; <UNPREDICTABLE>
    27a8:	0a040100 	beq	102bb0 <__bss_end__+0xf8dc8>
    27ac:	0000002c 	andeq	r0, r0, ip, lsr #32
    27b0:	00008c44 	andeq	r8, r0, r4, asr #24
    27b4:	00000014 	andeq	r0, r0, r4, lsl r0
    27b8:	02389c01 	eorseq	r9, r8, #256	; 0x100
    27bc:	500b0000 	andpl	r0, fp, r0
    27c0:	4400008c 	strmi	r0, [r0], #-140	; 0xffffff74
    27c4:	0c000002 	stceq	0, cr0, [r0], {2}
    27c8:	0c055001 	stceq	0, cr5, [r5], {1}
    27cc:	20003004 	andcs	r3, r0, r4
    27d0:	4d110000 	ldcmi	0, cr0, [r1, #-0]
    27d4:	4d000004 	stcmi	0, cr0, [r0, #-16]
    27d8:	02000004 	andeq	r0, r0, #4, 0
    27dc:	3c1106a1 	ldccc	6, cr0, [r1], {161}	; 0xa1
    27e0:	3c000003 	stccc	0, cr0, [r0], {3}
    27e4:	02000003 	andeq	r0, r0, #3, 0
    27e8:	a5000ac7 	strge	r0, [r0, #-2759]	; 0xfffff539
    27ec:	04000003 	streq	r0, [r0], #-3
    27f0:	000e6d00 	andeq	r6, lr, r0, lsl #26
    27f4:	b7010400 	strlt	r0, [r1, -r0, lsl #8]
    27f8:	0c00000a 	stceq	0, cr0, [r0], {10}
    27fc:	00000b59 	andeq	r0, r0, r9, asr fp
    2800:	00000a54 	andeq	r0, r0, r4, asr sl
    2804:	00008cc8 	andeq	r8, r0, r8, asr #25
    2808:	0000011c 	andeq	r0, r0, ip, lsl r1
    280c:	00001c0f 	andeq	r1, r0, pc, lsl #24
    2810:	69050402 	stmdbvs	r5, {r1, sl}
    2814:	0300746e 	movweq	r7, #1134	; 0x46e
    2818:	003b0704 	eorseq	r0, fp, r4, lsl #14
    281c:	2c040000 	stccs	0, cr0, [r4], {-0}
    2820:	03000000 	movweq	r0, #0
    2824:	00aa0601 	adceq	r0, sl, r1, lsl #12
    2828:	02030000 	andeq	r0, r3, #0, 0
    282c:	00018f05 	andeq	r8, r1, r5, lsl #30
    2830:	05040300 	streq	r0, [r4, #-768]	; 0xfffffd00
    2834:	00000005 	andeq	r0, r0, r5
    2838:	00050803 	andeq	r0, r5, r3, lsl #16
    283c:	03000000 	movweq	r0, #0
    2840:	00a80801 	adceq	r0, r8, r1, lsl #16
    2844:	02030000 	andeq	r0, r3, #0, 0
    2848:	00017307 	andeq	r7, r1, r7, lsl #6
    284c:	03a10500 			; <UNDEFINED> instruction: 0x03a10500
    2850:	34030000 	strcc	r0, [r3], #-0
    2854:	00006e19 	andeq	r6, r0, r9, lsl lr
    2858:	07040300 	streq	r0, [r4, -r0, lsl #6]
    285c:	00000036 	andeq	r0, r0, r6, lsr r0
    2860:	31070803 	tstcc	r7, r3, lsl #16
    2864:	03000000 	movweq	r0, #0
    2868:	00b10801 	adcseq	r0, r1, r1, lsl #16
    286c:	07060000 	streq	r0, [r6, -r0]
    2870:	00005401 	andeq	r5, r0, r1, lsl #8
    2874:	0e0c0400 	cfcpyseq	mvf0, mvf12
    2878:	000000c2 	andeq	r0, r0, r2, asr #1
    287c:	00038607 	andeq	r8, r3, r7, lsl #12
    2880:	2a070000 	bcs	1c2888 <__bss_end__+0x1b8aa0>
    2884:	01000002 	tsteq	r0, r2
    2888:	00035907 	andeq	r5, r3, r7, lsl #18
    288c:	73070400 	movwvc	r0, #29696	; 0x7400
    2890:	05000002 	streq	r0, [r0, #-2]
    2894:	00028207 	andeq	r8, r2, r7, lsl #4
    2898:	91070600 	tstls	r7, r0, lsl #12
    289c:	07000002 	streq	r0, [r0, -r2]
    28a0:	0002a007 	andeq	sl, r2, r7
    28a4:	af070300 	svcge	0x00070300
    28a8:	02000002 	andeq	r0, r0, #2, 0
    28ac:	0aab0500 	beq	feac3cb4 <__bss_end__+0xfeab9ecc>
    28b0:	15040000 	strne	r0, [r4, #-0]
    28b4:	00008303 	andeq	r8, r0, r3, lsl #6
    28b8:	0a1c0800 	beq	7048c0 <__bss_end__+0x6faad8>
    28bc:	1d010000 	stcne	0, cr0, [r1, #-0]
    28c0:	00003317 	andeq	r3, r0, r7, lsl r3
    28c4:	20001c00 	andcs	r1, r0, r0, lsl #24
    28c8:	0a120820 	beq	484950 <__bss_end__+0x47ab68>
    28cc:	1e010000 	cdpne	0, 0, cr0, cr1, cr0, {0}
    28d0:	00003317 	andeq	r3, r0, r7, lsl r3
    28d4:	20002800 	andcs	r2, r0, r0, lsl #16
    28d8:	0b4a0820 	bleq	1284960 <__bss_end__+0x127ab78>
    28dc:	1f010000 	svcne	0x00010000
    28e0:	00003317 	andeq	r3, r0, r7, lsl r3
    28e4:	20003400 	andcs	r3, r0, r0, lsl #8
    28e8:	0a3b0920 	beq	ec4d70 <__bss_end__+0xebaf88>
    28ec:	55010000 	strpl	r0, [r1, #-0]
    28f0:	00002505 	andeq	r2, r0, r5, lsl #10
    28f4:	008db000 	addeq	fp, sp, r0
    28f8:	00003400 	andeq	r3, r0, r0, lsl #8
    28fc:	6e9c0100 	fmlvse	f0, f4, f0
    2900:	0a000001 	beq	290c <__code_start__-0x56f4>
    2904:	006e6970 	rsbeq	r6, lr, r0, ror r9
    2908:	2c185501 	cfldr32cs	mvfx5, [r8], {1}
    290c:	66000000 	strvs	r0, [r0], -r0
    2910:	5e000012 	mcrpl	0, 0, r0, cr0, cr2, {0}
    2914:	0b000012 	bleq	2964 <__code_start__-0x569c>
    2918:	00000b54 	andeq	r0, r0, r4, asr fp
    291c:	2c0e5801 	stccs	8, cr5, [lr], {1}
    2920:	a6000000 	strge	r0, [r0], -r0
    2924:	a0000012 	andge	r0, r0, r2, lsl r0
    2928:	0c000012 	stceq	0, cr0, [r0], {18}
    292c:	0066666f 	rsbeq	r6, r6, pc, ror #12
    2930:	2c0e5901 			; <UNDEFINED> instruction: 0x2c0e5901
    2934:	e6000000 	str	r0, [r0], -r0
    2938:	e4000012 	str	r0, [r0], #-18	; 0xffffffee
    293c:	0d000012 	stceq	0, cr0, [r0, #-72]	; 0xffffffb8
    2940:	00008dcc 	andeq	r8, r0, ip, asr #27
    2944:	00000390 	muleq	r0, r0, r3
    2948:	0b50010e 	bleq	1402d88 <__bss_end__+0x13f8fa0>
    294c:	355001f3 	ldrbcc	r0, [r0, #-499]	; 0xfffffe0d
    2950:	80b42325 	adcshi	r2, r4, r5, lsr #6
    2954:	00028180 	andeq	r8, r2, r0, lsl #3
    2958:	0a260f00 	beq	986560 <__bss_end__+0x97c778>
    295c:	4e010000 	cdpmi	0, 0, cr0, cr1, cr0, {0}
    2960:	008d9406 	addeq	r9, sp, r6, lsl #8
    2964:	00001c00 	andeq	r1, r0, r0, lsl #24
    2968:	c99c0100 	ldmibgt	ip, {r8}
    296c:	0a000001 	beq	2978 <__code_start__-0x5688>
    2970:	006e6970 	rsbeq	r6, lr, r0, ror r9
    2974:	2c1a4e01 	ldccs	14, cr4, [sl], {1}
    2978:	01000000 	mrseq	r0, (UNDEF: 0)
    297c:	f9000013 			; <UNDEFINED> instruction: 0xf9000013
    2980:	0a000012 	beq	29d0 <__code_start__-0x5630>
    2984:	4e010076 	mcrmi	0, 0, r0, cr1, cr6, {3}
    2988:	00002c28 	andeq	r2, r0, r8, lsr #24
    298c:	00134300 	andseq	r4, r3, r0, lsl #6
    2990:	00133b00 	andseq	r3, r3, r0, lsl #22
    2994:	8da41000 	stchi	0, cr1, [r4]
    2998:	02510000 	subseq	r0, r1, #0, 0
    299c:	01bf0000 			; <UNDEFINED> instruction: 0x01bf0000
    29a0:	010e0000 	mrseq	r0, (UNDEF: 14)
    29a4:	01f30350 	mvnseq	r0, r0, asr r3
    29a8:	ac110050 	ldcge	0, cr0, [r1], {80}	; 0x50
    29ac:	0a00008d 	beq	2be8 <__code_start__-0x5418>
    29b0:	00000002 	andeq	r0, r0, r2
    29b4:	000a450f 	andeq	r4, sl, pc, lsl #10
    29b8:	06490100 	strbeq	r0, [r9], -r0, lsl #2
    29bc:	00008d84 	andeq	r8, r0, r4, lsl #27
    29c0:	00000010 	andeq	r0, r0, r0, lsl r0
    29c4:	020a9c01 	andeq	r9, sl, #256	; 0x100
    29c8:	700a0000 	andvc	r0, sl, r0
    29cc:	01006e69 	tsteq	r0, r9, ror #28
    29d0:	002c1e49 	eoreq	r1, ip, r9, asr #28
    29d4:	13810000 	orrne	r0, r1, #0, 0
    29d8:	137d0000 	cmnne	sp, #0, 0
    29dc:	900d0000 	andls	r0, sp, r0
    29e0:	d900008d 	stmdble	r0, {r0, r2, r3, r7}
    29e4:	0e000002 	cdpeq	0, 0, cr0, cr0, cr2, {0}
    29e8:	f3035001 	vhadd.u8	d5, d3, d1
    29ec:	010e5001 	tsteq	lr, r1
    29f0:	00300151 	eorseq	r0, r0, r1, asr r1
    29f4:	0a890f00 	beq	fe2465fc <__bss_end__+0xfe23c814>
    29f8:	42010000 	andmi	r0, r1, #0, 0
    29fc:	008d6006 	addeq	r6, sp, r6
    2a00:	00002400 	andeq	r2, r0, r0, lsl #8
    2a04:	519c0100 	orrspl	r0, ip, r0, lsl #2
    2a08:	0a000002 	beq	2a18 <__code_start__-0x55e8>
    2a0c:	006e6970 	rsbeq	r6, lr, r0, ror r9
    2a10:	2c1c4201 	lfmcs	f4, 4, [ip], {1}
    2a14:	a6000000 	strge	r0, [r0], -r0
    2a18:	a2000013 	andge	r0, r0, #19, 0
    2a1c:	0d000013 	stceq	0, cr0, [r0, #-76]	; 0xffffffb4
    2a20:	00008d7c 	andeq	r8, r0, ip, ror sp
    2a24:	0000039c 	muleq	r0, ip, r3
    2a28:	0550010e 	ldrbeq	r0, [r0, #-270]	; 0xfffffef2
    2a2c:	2000280c 	andcs	r2, r0, ip, lsl #16
    2a30:	51010e20 	tstpl	r1, r0, lsr #28
    2a34:	01f33105 	mvnseq	r3, r5, lsl #2
    2a38:	00002450 	andeq	r2, r0, r0, asr r4
    2a3c:	0004ca0f 	andeq	ip, r4, pc, lsl #20
    2a40:	063b0100 	ldrteq	r0, [fp], -r0, lsl #2
    2a44:	00008d3c 	andeq	r8, r0, ip, lsr sp
    2a48:	00000024 	andeq	r0, r0, r4, lsr #32
    2a4c:	02989c01 	addseq	r9, r8, #256	; 0x100
    2a50:	700a0000 	andvc	r0, sl, r0
    2a54:	01006e69 	tsteq	r0, r9, ror #28
    2a58:	002c1b3b 	eoreq	r1, ip, fp, lsr fp
    2a5c:	13cb0000 	bicne	r0, fp, #0, 0
    2a60:	13c70000 	bicne	r0, r7, #0, 0
    2a64:	580d0000 	stmdapl	sp, {}	; <UNPREDICTABLE>
    2a68:	9c00008d 	stcls	0, cr0, [r0], {141}	; 0x8d
    2a6c:	0e000003 	cdpeq	0, 0, cr0, cr0, cr3, {0}
    2a70:	0c055001 	stceq	0, cr5, [r5], {1}
    2a74:	2020001c 	eorcs	r0, r0, ip, lsl r0
    2a78:	0551010e 	ldrbeq	r0, [r1, #-270]	; 0xfffffef2
    2a7c:	5001f331 	andpl	pc, r1, r1, lsr r3	; <UNPREDICTABLE>
    2a80:	0f000024 	svceq	0x00000024
    2a84:	00000a96 	muleq	r0, r6, sl
    2a88:	2c063601 	stccs	6, cr3, [r6], {1}
    2a8c:	1000008d 	andne	r0, r0, sp, lsl #1
    2a90:	01000000 	mrseq	r0, (UNDEF: 0)
    2a94:	0002d99c 	muleq	r2, ip, r9
    2a98:	69700a00 	ldmdbvs	r0!, {r9, fp}^
    2a9c:	3601006e 	strcc	r0, [r1], -lr, rrx
    2aa0:	00002c1f 	andeq	r2, r0, pc, lsl ip
    2aa4:	0013f000 	andseq	pc, r3, r0
    2aa8:	0013ec00 	andseq	lr, r3, r0, lsl #24
    2aac:	8d380d00 	ldchi	13, cr0, [r8, #-0]
    2ab0:	02d90000 	sbcseq	r0, r9, #0, 0
    2ab4:	010e0000 	mrseq	r0, (UNDEF: 14)
    2ab8:	01f30350 	mvnseq	r0, r0, asr r3
    2abc:	51010e50 	tstpl	r1, r0, asr lr
    2ac0:	00003101 	andeq	r3, r0, r1, lsl #2
    2ac4:	0004940f 	andeq	r9, r4, pc, lsl #8
    2ac8:	06280100 	strteq	r0, [r8], -r0, lsl #2
    2acc:	00008cc8 	andeq	r8, r0, r8, asr #25
    2ad0:	00000064 	andeq	r0, r0, r4, rrx
    2ad4:	03749c01 	cmneq	r4, #256	; 0x100
    2ad8:	700a0000 	andvc	r0, sl, r0
    2adc:	01006e69 	tsteq	r0, r9, ror #28
    2ae0:	002c2128 	eoreq	r2, ip, r8, lsr #2
    2ae4:	14150000 	ldrne	r0, [r5], #-0
    2ae8:	14110000 	ldrne	r0, [r1], #-0
    2aec:	a6120000 	ldrge	r0, [r2], -r0
    2af0:	0100000a 	tsteq	r0, sl
    2af4:	00c23228 	sbceq	r3, r2, r8, lsr #4
    2af8:	143a0000 	ldrtne	r0, [sl], #-0
    2afc:	14360000 	ldrtne	r0, [r6], #-0
    2b00:	6f0c0000 	svcvs	0x000c0000
    2b04:	01006666 	tsteq	r0, r6, ror #12
    2b08:	002c0e2d 	eoreq	r0, ip, sp, lsr #28
    2b0c:	145d0000 	ldrbne	r0, [sp], #-0
    2b10:	145b0000 	ldrbne	r0, [fp], #-0
    2b14:	670c0000 	strvs	r0, [ip, -r0]
    2b18:	0e2e0100 	sufeqe	f0, f6, f0
    2b1c:	0000002c 	andeq	r0, r0, ip, lsr #32
    2b20:	00001472 	andeq	r1, r0, r2, ror r4
    2b24:	00001470 	andeq	r1, r0, r0, ror r4
    2b28:	0100760c 	tsteq	r0, ip, lsl #12
    2b2c:	002c0e30 	eoreq	r0, ip, r0, lsr lr
    2b30:	148d0000 	strne	r0, [sp], #0
    2b34:	14850000 	strne	r0, [r5], #0
    2b38:	10100000 	andsne	r0, r0, r0
    2b3c:	9000008d 	andls	r0, r0, sp, lsl #1
    2b40:	63000003 	movwvs	r0, #3
    2b44:	0e000003 	cdpeq	0, 0, cr0, cr0, cr3, {0}
    2b48:	76025001 	strvc	r5, [r2], -r1
    2b4c:	240d0000 	strcs	r0, [sp], #-0
    2b50:	9c00008d 	stcls	0, cr0, [r0], {141}	; 0x8d
    2b54:	0e000003 	cdpeq	0, 0, cr0, cr0, cr3, {0}
    2b58:	76025001 	strvc	r5, [r2], -r1
    2b5c:	13000000 	movwne	r0, #0
    2b60:	00000a31 	andeq	r0, r0, r1, lsr sl
    2b64:	6218b602 	andsvs	fp, r8, #2097152	; 0x200000
    2b68:	03000000 	movweq	r0, #0
    2b6c:	00000390 	muleq	r0, r0, r3
    2b70:	02007814 	andeq	r7, r0, #20, 16	; 0x140000
    2b74:	00622bb6 	strhteq	r2, [r2], #-182	; 0xffffff4a
    2b78:	15000000 	strne	r0, [r0, #-0]
    2b7c:	0000033c 	andeq	r0, r0, ip, lsr r3
    2b80:	0000033c 	andeq	r0, r0, ip, lsr r3
    2b84:	150ac702 	strne	ip, [sl, #-1794]	; 0xfffff8fe
    2b88:	000004b1 			; <UNDEFINED> instruction: 0x000004b1
    2b8c:	000004b1 			; <UNDEFINED> instruction: 0x000004b1
    2b90:	0006b202 	andeq	fp, r6, r2, lsl #4
    2b94:	000005cd 	andeq	r0, r0, sp, asr #11
    2b98:	0fca0004 	svceq	0x00ca0004
    2b9c:	01040000 	mrseq	r0, (UNDEF: 4)
    2ba0:	00000ab7 			; <UNDEFINED> instruction: 0x00000ab7
    2ba4:	000b8e0c 	andeq	r8, fp, ip, lsl #28
    2ba8:	000a5400 	andeq	r5, sl, r0, lsl #8
    2bac:	008de400 	addeq	lr, sp, r0, lsl #8
    2bb0:	0001f000 	andeq	pc, r1, r0
    2bb4:	001dce00 	andseq	ip, sp, r0, lsl #28
    2bb8:	05040200 	streq	r0, [r4, #-512]	; 0xfffffe00
    2bbc:	00746e69 	rsbseq	r6, r4, r9, ror #28
    2bc0:	3b070403 	blcc	1c3bd4 <__bss_end__+0x1b9dec>
    2bc4:	04000000 	streq	r0, [r0], #-0
    2bc8:	0000002c 	andeq	r0, r0, ip, lsr #32
    2bcc:	aa060103 	bge	182fe0 <__bss_end__+0x1791f8>
    2bd0:	03000000 	movweq	r0, #0
    2bd4:	018f0502 	orreq	r0, pc, r2, lsl #10
    2bd8:	04030000 	streq	r0, [r3], #-0
    2bdc:	00000505 	andeq	r0, r0, r5, lsl #10
    2be0:	05080300 	streq	r0, [r8, #-768]	; 0xfffffd00
    2be4:	00000000 	andeq	r0, r0, r0
    2be8:	a8080103 	stmdage	r8, {r0, r1, r8}
    2bec:	03000000 	movweq	r0, #0
    2bf0:	01730702 	cmneq	r3, r2, lsl #14
    2bf4:	a1050000 	mrsge	r0, (UNDEF: 5)
    2bf8:	05000003 	streq	r0, [r0, #-3]
    2bfc:	006e1934 	rsbeq	r1, lr, r4, lsr r9
    2c00:	04030000 	streq	r0, [r3], #-0
    2c04:	00003607 	andeq	r3, r0, r7, lsl #12
    2c08:	07080300 	streq	r0, [r8, -r0, lsl #6]
    2c0c:	00000031 	andeq	r0, r0, r1, lsr r0
    2c10:	b1080103 	tstlt	r8, r3, lsl #2
    2c14:	06000000 	streq	r0, [r0], -r0
    2c18:	00540107 	subseq	r0, r4, r7, lsl #2
    2c1c:	0c040000 	stceq	0, cr0, [r4], {-0}
    2c20:	0000c20e 	andeq	ip, r0, lr, lsl #4
    2c24:	03860700 	orreq	r0, r6, #0, 14
    2c28:	07000000 	streq	r0, [r0, -r0]
    2c2c:	0000022a 	andeq	r0, r0, sl, lsr #4
    2c30:	03590701 	cmpeq	r9, #262144	; 0x40000
    2c34:	07040000 	streq	r0, [r4, -r0]
    2c38:	00000273 	andeq	r0, r0, r3, ror r2
    2c3c:	02820705 	addeq	r0, r2, #1310720	; 0x140000
    2c40:	07060000 	streq	r0, [r6, -r0]
    2c44:	00000291 	muleq	r0, r1, r2
    2c48:	02a00707 	adceq	r0, r0, #1835008	; 0x1c0000
    2c4c:	07030000 	streq	r0, [r3, -r0]
    2c50:	000002af 	andeq	r0, r0, pc, lsr #5
    2c54:	82080002 	andhi	r0, r8, #2, 0
    2c58:	2c00000b 	stccs	0, cr0, [r0], {11}
    2c5c:	5e080602 	cfmadd32pl	mvax0, mvfx0, mvfx8, mvfx2
    2c60:	09000001 	stmdbeq	r0, {r0}
    2c64:	02006f69 	andeq	r6, r0, #420	; 0x1a4
    2c68:	00330909 	eorseq	r0, r3, r9, lsl #18
    2c6c:	09000000 	stmdbeq	r0, {}	; <UNPREDICTABLE>
    2c70:	00726569 	rsbseq	r6, r2, r9, ror #10
    2c74:	33090a02 	movwcc	r0, #39426	; 0x9a02
    2c78:	04000000 	streq	r0, [r0], #-0
    2c7c:	72696909 	rsbvc	r6, r9, #147456	; 0x24000
    2c80:	09110200 	ldmdbeq	r1, {r9}
    2c84:	00000033 	andeq	r0, r0, r3, lsr r0
    2c88:	636c0908 	cmnvs	ip, #8, 18	; 0x20000
    2c8c:	13020072 	movwne	r0, #8306	; 0x2072
    2c90:	00003309 	andeq	r3, r0, r9, lsl #6
    2c94:	6d090c00 	stcvs	12, cr0, [r9, #-0]
    2c98:	02007263 	andeq	r7, r0, #805306374	; 0x30000006
    2c9c:	00330914 	eorseq	r0, r3, r4, lsl r9
    2ca0:	09100000 	ldmdbeq	r0, {}	; <UNPREDICTABLE>
    2ca4:	0072736c 	rsbseq	r7, r2, ip, ror #6
    2ca8:	33091502 	movwcc	r1, #38146	; 0x9502
    2cac:	14000000 	strne	r0, [r0], #-0
    2cb0:	72736d09 	rsbsvc	r6, r3, #576	; 0x240
    2cb4:	09160200 	ldmdbeq	r6, {r9}
    2cb8:	00000033 	andeq	r0, r0, r3, lsr r0
    2cbc:	0bfc0a18 	bleq	fff05524 <__bss_end__+0xffefb73c>
    2cc0:	17020000 	strne	r0, [r2, -r0]
    2cc4:	00003309 	andeq	r3, r0, r9, lsl #6
    2cc8:	d40a1c00 	strle	r1, [sl], #-3072	; 0xfffff400
    2ccc:	0200000b 	andeq	r0, r0, #11, 0
    2cd0:	0033091b 	eorseq	r0, r3, fp, lsl r9
    2cd4:	0a200000 	beq	802cdc <__bss_end__+0x7f8ef4>
    2cd8:	00000b6f 	andeq	r0, r0, pc, ror #22
    2cdc:	33091d02 	movwcc	r1, #40194	; 0x9d02
    2ce0:	24000000 	strcs	r0, [r0], #-0
    2ce4:	000bb90a 	andeq	fp, fp, sl, lsl #18
    2ce8:	091e0200 	ldmdbeq	lr, {r9}
    2cec:	00000033 	andeq	r0, r0, r3, lsr r0
    2cf0:	be0b0028 	cdplt	0, 0, cr0, cr11, cr8, {1}
    2cf4:	0100000b 	tsteq	r0, fp
    2cf8:	01740908 	cmneq	r4, r8, lsl #18
    2cfc:	50040000 	andpl	r0, r4, r0
    2d00:	040c2021 	streq	r2, [ip], #-33	; 0xffffffdf
    2d04:	00000033 	andeq	r0, r0, r3, lsr r0
    2d08:	00016e0d 	andeq	r6, r1, sp, lsl #28
    2d0c:	0c040b00 			; <UNDEFINED> instruction: 0x0c040b00
    2d10:	29010000 	stmdbcs	r1, {}	; <UNPREDICTABLE>
    2d14:	00018f23 	andeq	r8, r1, r3, lsr #30
    2d18:	21504000 	cmpcs	r0, r0
    2d1c:	c2040c20 	andgt	r0, r4, #32, 24	; 0x2000
    2d20:	0d000000 	stceq	0, cr0, [r0, #-0]
    2d24:	00000189 	andeq	r0, r0, r9, lsl #3
    2d28:	0008e70e 	andeq	lr, r8, lr, lsl #14
    2d2c:	06cc0100 	strbeq	r0, [ip], r0, lsl #2
    2d30:	00008f9c 	muleq	r0, ip, pc	; <UNPREDICTABLE>
    2d34:	00000014 	andeq	r0, r0, r4, lsl r0
    2d38:	01b49c01 			; <UNDEFINED> instruction: 0x01b49c01
    2d3c:	a40f0000 	strge	r0, [pc], #-0	; 2d44 <__code_start__-0x52bc>
    2d40:	b400008f 	strlt	r0, [r0], #-143	; 0xffffff71
    2d44:	00000001 	andeq	r0, r0, r1
    2d48:	000ba810 	andeq	sl, fp, r0, lsl r8
    2d4c:	05b60100 	ldreq	r0, [r6, #256]!	; 0x100
    2d50:	00000025 	andeq	r0, r0, r5, lsr #32
    2d54:	00008f7c 	andeq	r8, r0, ip, ror pc
    2d58:	00000020 	andeq	r0, r0, r0, lsr #32
    2d5c:	01eb9c01 	mvneq	r9, r1, lsl #24
    2d60:	840f0000 	strhi	r0, [pc], #-0	; 2d68 <__code_start__-0x5298>
    2d64:	a000008f 	andge	r0, r0, pc, lsl #1
    2d68:	11000005 	tstne	r0, r5
    2d6c:	00008f8c 	andeq	r8, r0, ip, lsl #31
    2d70:	000005ac 	andeq	r0, r0, ip, lsr #11
    2d74:	05500112 	ldrbeq	r0, [r0, #-274]	; 0xfffffeee
    2d78:	2150640c 	cmpcs	r0, ip, lsl #8
    2d7c:	10000020 	andne	r0, r0, r0, lsr #32
    2d80:	00000be6 	andeq	r0, r0, r6, ror #23
    2d84:	2505b301 	strcs	fp, [r5, #-769]	; 0xfffffcff
    2d88:	6c000000 	stcvs	0, cr0, [r0], {-0}
    2d8c:	1000008f 	andne	r0, r0, pc, lsl #1
    2d90:	01000000 	mrseq	r0, (UNDEF: 0)
    2d94:	0002189c 	muleq	r2, ip, r8
    2d98:	8f740f00 	svchi	0x00740f00
    2d9c:	05a00000 	streq	r0, [r0, #0]!
    2da0:	780f0000 	stmdavc	pc, {}	; <UNPREDICTABLE>
    2da4:	0900008f 	stmdbeq	r0, {r0, r1, r2, r3, r7}
    2da8:	00000003 	andeq	r0, r0, r3
    2dac:	000c120e 	andeq	r1, ip, lr, lsl #4
    2db0:	06ab0100 	strteq	r0, [fp], r0, lsl #2
    2db4:	00008f3c 	andeq	r8, r0, ip, lsr pc
    2db8:	00000030 	andeq	r0, r0, r0, lsr r0
    2dbc:	027c9c01 	rsbseq	r9, ip, #256	; 0x100
    2dc0:	63130000 	tstvs	r3, #0, 0
    2dc4:	19ab0100 	stmibne	fp!, {r8}
    2dc8:	0000002c 	andeq	r0, r0, ip, lsr #32
    2dcc:	000014cd 	andeq	r1, r0, sp, asr #9
    2dd0:	000014c9 	andeq	r1, r0, r9, asr #9
    2dd4:	008f480f 	addeq	r4, pc, pc, lsl #16
    2dd8:	0005a000 	andeq	sl, r5, r0
    2ddc:	8f4c0f00 	svchi	0x004c0f00
    2de0:	02db0000 	sbcseq	r0, fp, #0, 0
    2de4:	60140000 	andsvs	r0, r4, r0
    2de8:	b800008f 	stmdalt	r0, {r0, r1, r2, r3, r7}
    2dec:	72000005 	andvc	r0, r0, #5, 0
    2df0:	12000002 	andne	r0, r0, #2, 0
    2df4:	0c055001 	stceq	0, cr5, [r5], {1}
    2df8:	20215040 	eorcs	r5, r1, r0, asr #32
    2dfc:	05510112 	ldrbeq	r0, [r1, #-274]	; 0xfffffeee
    2e00:	ff080074 			; <UNDEFINED> instruction: 0xff080074
    2e04:	640f001a 	strvs	r0, [pc], #-26	; 2e0c <__code_start__-0x51f4>
    2e08:	a000008f 	andge	r0, r0, pc, lsl #1
    2e0c:	00000005 	andeq	r0, r0, r5
    2e10:	000bca10 	andeq	ip, fp, r0, lsl sl
    2e14:	05a30100 	streq	r0, [r3, #256]!	; 0x100
    2e18:	00000025 	andeq	r0, r0, r5, lsr #32
    2e1c:	00008f0c 	andeq	r8, r0, ip, lsl #30
    2e20:	00000030 	andeq	r0, r0, r0, lsr r0
    2e24:	02db9c01 	sbcseq	r9, fp, #256	; 0x100
    2e28:	63150000 	tstvs	r5, #0, 0
    2e2c:	09a70100 	stmibeq	r7!, {r8}
    2e30:	00000025 	andeq	r0, r0, r5, lsr #32
    2e34:	000014ed 	andeq	r1, r0, sp, ror #9
    2e38:	000014eb 	andeq	r1, r0, fp, ror #9
    2e3c:	008f140f 	addeq	r1, pc, pc, lsl #8
    2e40:	0005a000 	andeq	sl, r5, r0
    2e44:	8f180f00 	svchi	0x00180f00
    2e48:	03090000 	movweq	r0, #36864	; 0x9000
    2e4c:	28140000 	ldmdacs	r4, {}	; <UNPREDICTABLE>
    2e50:	ac00008f 	stcge	0, cr0, [r0], {143}	; 0x8f
    2e54:	d1000005 	tstle	r0, r5
    2e58:	12000002 	andne	r0, r0, #2, 0
    2e5c:	0c055001 	stceq	0, cr5, [r5], {1}
    2e60:	20215040 	eorcs	r5, r1, r0, asr #32
    2e64:	8f300f00 	svchi	0x00300f00
    2e68:	05a00000 	streq	r0, [r0, #0]!
    2e6c:	10000000 	andne	r0, r0, r0
    2e70:	00000b95 	muleq	r0, r5, fp
    2e74:	25059401 	strcs	r9, [r5, #-1025]	; 0xfffffbff
    2e78:	ec000000 	stc	0, cr0, [r0], {-0}
    2e7c:	2000008e 	andcs	r0, r0, lr, lsl #1
    2e80:	01000000 	mrseq	r0, (UNDEF: 0)
    2e84:	0003099c 	muleq	r3, ip, r9
    2e88:	8ef81100 	cdphi	1, 15, cr1, cr8, cr0, {0}
    2e8c:	05ac0000 	streq	r0, [ip, #0]!
    2e90:	01120000 	tsteq	r2, r0
    2e94:	640c0550 	strvs	r0, [ip], #-1360	; 0xfffffab0
    2e98:	00202150 	eoreq	r2, r0, r0, asr r1
    2e9c:	0b741000 	bleq	1d06ea4 <__bss_end__+0x1cfd0bc>
    2ea0:	8b010000 	blhi	42ea8 <__bss_end__+0x390c0>
    2ea4:	00002505 	andeq	r2, r0, r5, lsl #10
    2ea8:	008ed400 	addeq	sp, lr, r0, lsl #8
    2eac:	00001800 	andeq	r1, r0, r0, lsl #16
    2eb0:	379c0100 	ldrcc	r0, [ip, r0, lsl #2]
    2eb4:	11000003 	tstne	r0, r3
    2eb8:	00008ee0 	andeq	r8, r0, r0, ror #29
    2ebc:	000005ac 	andeq	r0, r0, ip, lsr #11
    2ec0:	05500112 	ldrbeq	r0, [r0, #-274]	; 0xfffffeee
    2ec4:	2150640c 	cmpcs	r0, ip, lsl #8
    2ec8:	0e000020 	cdpeq	0, 0, cr0, cr0, cr0, {1}
    2ecc:	00000905 	andeq	r0, r0, r5, lsl #18
    2ed0:	24064501 	strcs	r4, [r6], #-1281	; 0xfffffaff
    2ed4:	b000008e 	andlt	r0, r0, lr, lsl #1
    2ed8:	01000000 	mrseq	r0, (UNDEF: 0)
    2edc:	0004849c 	muleq	r4, ip, r4
    2ee0:	0b661600 	bleq	19886e8 <__bss_end__+0x197e900>
    2ee4:	7e010000 	cdpvc	0, 0, cr0, cr1, cr0, {0}
    2ee8:	0000620e 	andeq	r6, r0, lr, lsl #4
    2eec:	14010e00 	strne	r0, [r1], #-3584	; 0xfffff200
    2ef0:	00008e34 	andeq	r8, r0, r4, lsr lr
    2ef4:	000005c4 	andeq	r0, r0, r4, asr #11
    2ef8:	00000373 	andeq	r0, r0, r3, ror r3
    2efc:	01500112 	cmpeq	r0, r2, lsl r1
    2f00:	5101123e 	tstpl	r1, lr, lsr r2
    2f04:	14003201 	strne	r3, [r0], #-513	; 0xfffffdff
    2f08:	00008e40 	andeq	r8, r0, r0, asr #28
    2f0c:	000005c4 	andeq	r0, r0, r4, asr #11
    2f10:	0000038b 	andeq	r0, r0, fp, lsl #7
    2f14:	01500112 	cmpeq	r0, r2, lsl r1
    2f18:	5101123f 	tstpl	r1, pc, lsr r2
    2f1c:	0f003201 	svceq	0x00003201
    2f20:	00008e44 	andeq	r8, r0, r4, asr #28
    2f24:	000005a0 	andeq	r0, r0, r0, lsr #11
    2f28:	008e5014 	addeq	r5, lr, r4, lsl r0
    2f2c:	00053d00 	andeq	r3, r5, r0, lsl #26
    2f30:	0003b000 	andeq	fp, r3, r0
    2f34:	50011200 	andpl	r1, r1, r0, lsl #4
    2f38:	50040c05 	andpl	r0, r4, r5, lsl #24
    2f3c:	01122021 	tsteq	r2, r1, lsr #32
    2f40:	00310151 	eorseq	r0, r1, r1, asr r1
    2f44:	008e540f 	addeq	r5, lr, pc, lsl #8
    2f48:	0005a000 	andeq	sl, r5, r0
    2f4c:	8e641400 	cdphi	4, 6, cr1, cr4, cr0, {0}
    2f50:	05b80000 	ldreq	r0, [r8, #0]!
    2f54:	03d20000 	bicseq	r0, r2, #0, 0
    2f58:	01120000 	tsteq	r2, r0
    2f5c:	00740250 	rsbseq	r0, r4, r0, asr r2
    2f60:	01510112 	cmpeq	r1, r2, lsl r1
    2f64:	70140030 	andsvc	r0, r4, r0, lsr r0
    2f68:	b800008e 	stmdalt	r0, {r1, r2, r3, r7}
    2f6c:	ee000005 	cdp	0, 0, cr0, cr0, cr5, {0}
    2f70:	12000003 	andne	r0, r0, #3, 0
    2f74:	0c055001 	stceq	0, cr5, [r5], {1}
    2f78:	20215044 	eorcs	r5, r1, r4, asr #32
    2f7c:	01510112 	cmpeq	r1, r2, lsl r1
    2f80:	7c140030 	ldcvc	0, cr0, [r4], {48}	; 0x30
    2f84:	b800008e 	stmdalt	r0, {r1, r2, r3, r7}
    2f88:	0a000005 	beq	2fa4 <__code_start__-0x505c>
    2f8c:	12000004 	andne	r0, r0, #4, 0
    2f90:	0c055001 	stceq	0, cr5, [r5], {1}
    2f94:	2021504c 	eorcs	r5, r1, ip, asr #32
    2f98:	01510112 	cmpeq	r1, r2, lsl r1
    2f9c:	88140033 	ldmdahi	r4, {r0, r1, r4, r5}
    2fa0:	b800008e 	stmdalt	r0, {r1, r2, r3, r7}
    2fa4:	26000005 	strcs	r0, [r0], -r5
    2fa8:	12000004 	andne	r0, r0, #4, 0
    2fac:	0c055001 	stceq	0, cr5, [r5], {1}
    2fb0:	20215050 	eorcs	r5, r1, r0, asr r0
    2fb4:	01510112 	cmpeq	r1, r2, lsl r1
    2fb8:	94140030 	ldrls	r0, [r4], #-48	; 0xffffffd0
    2fbc:	b800008e 	stmdalt	r0, {r1, r2, r3, r7}
    2fc0:	43000005 	movwmi	r0, #5
    2fc4:	12000004 	andne	r0, r0, #4, 0
    2fc8:	0c055001 	stceq	0, cr5, [r5], {1}
    2fcc:	20215048 	eorcs	r5, r1, r8, asr #32
    2fd0:	02510112 	subseq	r0, r1, #-2147483644	; 0x80000004
    2fd4:	1400c708 	strne	ip, [r0], #-1800	; 0xfffff8f8
    2fd8:	00008ea0 	andeq	r8, r0, r0, lsr #29
    2fdc:	000005b8 			; <UNDEFINED> instruction: 0x000005b8
    2fe0:	00000461 	andeq	r0, r0, r1, ror #8
    2fe4:	05500112 	ldrbeq	r0, [r0, #-274]	; 0xfffffeee
    2fe8:	2150680c 	cmpcs	r0, ip, lsl #16
    2fec:	51011220 	tstpl	r1, r0, lsr #4
    2ff0:	010e0a03 	tsteq	lr, r3, lsl #20
    2ff4:	8eac1400 	cdphi	4, 10, cr1, cr12, cr0, {0}
    2ff8:	05b80000 	ldreq	r0, [r8, #0]!
    2ffc:	047a0000 	ldrbteq	r0, [sl], #-0
    3000:	01120000 	tsteq	r2, r0
    3004:	00740250 	rsbseq	r0, r4, r0, asr r2
    3008:	01510112 	cmpeq	r1, r2, lsl r1
    300c:	b00f0033 	andlt	r0, pc, r3, lsr r0	; <UNPREDICTABLE>
    3010:	a000008e 	andge	r0, r0, lr, lsl #1
    3014:	00000005 	andeq	r0, r0, r5
    3018:	000bd90e 	andeq	sp, fp, lr, lsl #18
    301c:	06350100 	ldrteq	r0, [r5], -r0, lsl #2
    3020:	00008fb0 			; <UNDEFINED> instruction: 0x00008fb0
    3024:	00000024 	andeq	r0, r0, r4, lsr #32
    3028:	04d39c01 	ldrbeq	r9, [r3], #3073	; 0xc01
    302c:	b80f0000 	stmdalt	pc, {}	; <UNPREDICTABLE>
    3030:	9400008f 	strls	r0, [r0], #-143	; 0xffffff71
    3034:	0f000001 	svceq	0x00000001
    3038:	00008fbc 			; <UNDEFINED> instruction: 0x00008fbc
    303c:	000005a0 	andeq	r0, r0, r0, lsr #11
    3040:	008fc814 	addeq	ip, pc, r4, lsl r8	; <UNPREDICTABLE>
    3044:	0004d300 	andeq	sp, r4, r0, lsl #6
    3048:	0004c900 	andeq	ip, r4, r0, lsl #18
    304c:	50011200 	andpl	r1, r1, r0, lsl #4
    3050:	50040c05 	andpl	r0, r4, r5, lsl #24
    3054:	01122021 	tsteq	r2, r1, lsr #32
    3058:	fe090251 	mcr2	2, 0, r0, cr9, cr1, {2}
    305c:	8fcc0f00 	svchi	0x00cc0f00
    3060:	05a00000 	streq	r0, [r0, #0]!
    3064:	17000000 	strne	r0, [r0, -r0]
    3068:	00000c09 	andeq	r0, r0, r9, lsl #24
    306c:	e40d3101 	str	r3, [sp], #-257	; 0xfffffeff
    3070:	2000008d 	andcs	r0, r0, sp, lsl #1
    3074:	01000000 	mrseq	r0, (UNDEF: 0)
    3078:	0005369c 	muleq	r5, ip, r6
    307c:	0ba31800 	bleq	fe8c9084 <__bss_end__+0xfe8bf29c>
    3080:	31010000 	mrscc	r0, (UNDEF: 1)
    3084:	00053625 	andeq	r3, r5, r5, lsr #12
    3088:	00150400 	andseq	r0, r5, r0, lsl #8
    308c:	00150000 	andseq	r0, r5, r0
    3090:	61761300 	cmnvs	r6, r0, lsl #6
    3094:	3101006c 	tstcc	r1, ip, rrx
    3098:	00002c34 	andeq	r2, r0, r4, lsr ip
    309c:	00152600 	andseq	r2, r5, r0, lsl #12
    30a0:	00152200 	andseq	r2, r5, r0, lsl #4
    30a4:	8df41400 	cfldrdhi	mvd1, [r4]
    30a8:	05ac0000 	streq	r0, [ip, #0]!
    30ac:	05250000 	streq	r0, [r5, #-0]!
    30b0:	01120000 	tsteq	r2, r0
    30b4:	00740250 	rsbseq	r0, r4, r0, asr r2
    30b8:	8e001100 	adfhis	f1, f0, f0
    30bc:	05b80000 	ldreq	r0, [r8, #0]!
    30c0:	01120000 	tsteq	r2, r0
    30c4:	00740250 	rsbseq	r0, r4, r0, asr r2
    30c8:	040c0000 	streq	r0, [ip], #-0
    30cc:	0000053c 	andeq	r0, r0, ip, lsr r5
    30d0:	0bf41719 	bleq	ffd08d3c <__bss_end__+0xffcfef54>
    30d4:	2e010000 	cdpcs	0, 0, cr0, cr1, cr0, {0}
    30d8:	008e040d 	addeq	r0, lr, sp, lsl #8
    30dc:	00002000 	andeq	r2, r0, r0
    30e0:	a09c0100 	addsge	r0, ip, r0, lsl #2
    30e4:	18000005 	stmdane	r0, {r0, r2}
    30e8:	00000ba3 	andeq	r0, r0, r3, lsr #23
    30ec:	36242e01 	strtcc	r2, [r4], -r1, lsl #28
    30f0:	48000005 	stmdami	r0, {r0, r2}
    30f4:	44000015 	strmi	r0, [r0], #-21	; 0xffffffeb
    30f8:	13000015 	movwne	r0, #21
    30fc:	006c6176 	rsbeq	r6, ip, r6, ror r1
    3100:	2c332e01 	ldccs	14, cr2, [r3], #-4
    3104:	6a000000 	bvs	310c <__code_start__-0x4ef4>
    3108:	66000015 			; <UNDEFINED> instruction: 0x66000015
    310c:	14000015 	strne	r0, [r0], #-21	; 0xffffffeb
    3110:	00008e14 	andeq	r8, r0, r4, lsl lr
    3114:	000005ac 	andeq	r0, r0, ip, lsr #11
    3118:	0000058f 	andeq	r0, r0, pc, lsl #11
    311c:	02500112 	subseq	r0, r0, #-2147483644	; 0x80000004
    3120:	11000074 	tstne	r0, r4, ror r0
    3124:	00008e20 	andeq	r8, r0, r0, lsr #28
    3128:	000005b8 			; <UNDEFINED> instruction: 0x000005b8
    312c:	02500112 	subseq	r0, r0, #-2147483644	; 0x80000004
    3130:	00000074 	andeq	r0, r0, r4, ror r0
    3134:	00044d1a 	andeq	r4, r4, sl, lsl sp
    3138:	00044d00 	andeq	r4, r4, r0, lsl #26
    313c:	06a10300 	strteq	r0, [r1], r0, lsl #6
    3140:	000c1c1a 	andeq	r1, ip, sl, lsl ip
    3144:	000c1c00 	andeq	r1, ip, r0, lsl #24
    3148:	0bc80300 	bleq	ff203d50 <__bss_end__+0xff1f9f68>
    314c:	000b601a 	andeq	r6, fp, sl, lsl r0
    3150:	000b6000 	andeq	r6, fp, r0
    3154:	06b30300 	ldrteq	r0, [r3], r0, lsl #6
    3158:	0004941a 	andeq	r9, r4, sl, lsl r4
    315c:	00049400 	andeq	r9, r4, r0, lsl #8
    3160:	06190400 	ldreq	r0, [r9], -r0, lsl #8
    3164:	00014900 	andeq	r4, r1, r0, lsl #18
    3168:	62000400 	andvs	r0, r0, #0, 8
    316c:	04000011 	streq	r0, [r0], #-17	; 0xffffffef
    3170:	00062801 	andeq	r2, r6, r1, lsl #16
    3174:	0c400c00 	mcrreq	12, 0, r0, r0, cr0
    3178:	07100000 	ldreq	r0, [r0, -r0]
    317c:	8fd40000 	svchi	0x00d40000
    3180:	003c0000 	eorseq	r0, ip, r0
    3184:	1fd70000 	svcne	0x00d70000
    3188:	04020000 	streq	r0, [r2], #-0
    318c:	746e6905 	strbtvc	r6, [lr], #-2309	; 0xfffff6fb
    3190:	07040300 	streq	r0, [r4, -r0, lsl #6]
    3194:	0000003b 	andeq	r0, r0, fp, lsr r0
    3198:	aa060103 	bge	1835ac <__bss_end__+0x1797c4>
    319c:	03000000 	movweq	r0, #0
    31a0:	018f0502 	orreq	r0, pc, r2, lsl #10
    31a4:	04030000 	streq	r0, [r3], #-0
    31a8:	00000505 	andeq	r0, r0, r5, lsl #10
    31ac:	05080300 	streq	r0, [r8, #-768]	; 0xfffffd00
    31b0:	00000000 	andeq	r0, r0, r0
    31b4:	a8080103 	stmdage	r8, {r0, r1, r8}
    31b8:	03000000 	movweq	r0, #0
    31bc:	01730702 	cmneq	r3, r2, lsl #14
    31c0:	04030000 	streq	r0, [r3], #-0
    31c4:	00003607 	andeq	r3, r0, r7, lsl #12
    31c8:	07080300 	streq	r0, [r8, -r0, lsl #6]
    31cc:	00000031 	andeq	r0, r0, r1, lsr r0
    31d0:	00002504 	andeq	r2, r0, r4, lsl #10
    31d4:	00007a00 	andeq	r7, r0, r0, lsl #20
    31d8:	00250500 	eoreq	r0, r5, r0, lsl #10
    31dc:	06000000 	streq	r0, [r0], -r0
    31e0:	000001a6 	andeq	r0, r0, r6, lsr #3
    31e4:	860e1c02 	strhi	r1, [lr], -r2, lsl #24
    31e8:	07000000 	streq	r0, [r0, -r0]
    31ec:	00006b04 	andeq	r6, r0, r4, lsl #22
    31f0:	00250400 	eoreq	r0, r5, r0, lsl #8
    31f4:	009b0000 	addseq	r0, fp, r0
    31f8:	9b050000 	blls	143200 <__bss_end__+0x139418>
    31fc:	00000000 	andeq	r0, r0, r0
    3200:	00a80407 	adceq	r0, r8, r7, lsl #8
    3204:	01030000 	mrseq	r0, (UNDEF: 3)
    3208:	0000b108 	andeq	fp, r0, r8, lsl #2
    320c:	00a10800 	adceq	r0, r1, r0, lsl #16
    3210:	7f060000 	svcvc	0x00060000
    3214:	02000007 	andeq	r0, r0, #7, 0
    3218:	00b90e21 	adcseq	r0, r9, r1, lsr #28
    321c:	04070000 	streq	r0, [r7], #-0
    3220:	0000008c 	andeq	r0, r0, ip, lsl #1
    3224:	00007a09 	andeq	r7, r0, r9, lsl #20
    3228:	07060100 	streq	r0, [r6, -r0, lsl #2]
    322c:	99e40305 	stmibls	r4!, {r0, r2, r8, r9}^
    3230:	330a0000 	movwcc	r0, #40960	; 0xa000
    3234:	0100000c 	tsteq	r0, ip
    3238:	9000060b 	andls	r0, r0, fp, lsl #12
    323c:	00100000 	andseq	r0, r0, r0
    3240:	9c010000 	stcls	0, cr0, [r1], {-0}
    3244:	000000f1 	strdeq	r0, [r0], -r1
    3248:	0070660b 	rsbseq	r6, r0, fp, lsl #12
    324c:	86190b01 	ldrhi	r0, [r9], -r1, lsl #22
    3250:	01000000 	mrseq	r0, (UNDEF: 0)
    3254:	510c0050 	qaddpl	r0, r0, ip
    3258:	0100000c 	tsteq	r0, ip
    325c:	8fe80608 	svchi	0x00e80608
    3260:	00180000 	andseq	r0, r8, r0
    3264:	9c010000 	stcls	0, cr0, [r1], {-0}
    3268:	000c220d 	andeq	r2, ip, sp, lsl #4
    326c:	0c030100 	stfeqs	f0, [r3], {-0}
    3270:	00000025 	andeq	r0, r0, r5, lsr #32
    3274:	00008fd4 	ldrdeq	r8, [r0], -r4
    3278:	00000014 	andeq	r0, r0, r4, lsl r0
    327c:	01409c01 	cmpeq	r0, r1, lsl #24
    3280:	630e0000 	movwvs	r0, #57344	; 0xe000
    3284:	21030100 	mrscs	r0, (UNDEF: 19)
    3288:	00000025 	andeq	r0, r0, r5, lsr #32
    328c:	0000158c 	andeq	r1, r0, ip, lsl #11
    3290:	00001588 	andeq	r1, r0, r8, lsl #11
    3294:	008fe00f 	addeq	lr, pc, pc
    3298:	00014000 	andeq	r4, r1, r0
    329c:	50011000 	andpl	r1, r1, r0
    32a0:	00007402 	andeq	r7, r0, r2, lsl #8
    32a4:	0c121100 	ldfeqs	f1, [r2], {-0}
    32a8:	0c120000 	ldceq	0, cr0, [r2], {-0}
    32ac:	42020000 	andmi	r0, r2, #0, 0
    32b0:	01370006 	teqeq	r7, r6
    32b4:	00040000 	andeq	r0, r4, r0
    32b8:	00001271 	andeq	r1, r0, r1, ror r2
    32bc:	06280104 	strteq	r0, [r8], -r4, lsl #2
    32c0:	650c0000 	strvs	r0, [ip, #-0]
    32c4:	1000000c 	andne	r0, r0, ip
    32c8:	10000007 	andne	r0, r0, r7
    32cc:	34000090 	strcc	r0, [r0], #-144	; 0xffffff70
    32d0:	98000000 	stmdals	r0, {}	; <UNPREDICTABLE>
    32d4:	02000020 	andeq	r0, r0, #32, 0
    32d8:	6e690504 	cdpvs	5, 6, cr0, cr9, cr4, {0}
    32dc:	04030074 	streq	r0, [r3], #-116	; 0xffffff8c
    32e0:	00003b07 	andeq	r3, r0, r7, lsl #22
    32e4:	06010300 	streq	r0, [r1], -r0, lsl #6
    32e8:	000000aa 	andeq	r0, r0, sl, lsr #1
    32ec:	8f050203 	svchi	0x00050203
    32f0:	03000001 	movweq	r0, #1
    32f4:	00050504 	andeq	r0, r5, r4, lsl #10
    32f8:	08030000 	stmdaeq	r3, {}	; <UNPREDICTABLE>
    32fc:	00000005 	andeq	r0, r0, r5
    3300:	08010300 	stmdaeq	r1, {r8, r9}
    3304:	000000a8 	andeq	r0, r0, r8, lsr #1
    3308:	73070203 	movwvc	r0, #29187	; 0x7203
    330c:	03000001 	movweq	r0, #1
    3310:	00360704 	eorseq	r0, r6, r4, lsl #14
    3314:	08030000 	stmdaeq	r3, {}	; <UNPREDICTABLE>
    3318:	00003107 	andeq	r3, r0, r7, lsl #2
    331c:	00250400 	eoreq	r0, r5, r0, lsl #8
    3320:	007a0000 	rsbseq	r0, sl, r0
    3324:	25050000 	strcs	r0, [r5, #-0]
    3328:	00000000 	andeq	r0, r0, r0
    332c:	0001a606 	andeq	sl, r1, r6, lsl #12
    3330:	0e1c0200 	cdpeq	2, 1, cr0, cr12, cr0, {0}
    3334:	00000086 	andeq	r0, r0, r6, lsl #1
    3338:	006b0407 	rsbeq	r0, fp, r7, lsl #8
    333c:	25040000 	strcs	r0, [r4, #-0]
    3340:	9b000000 	blls	3348 <__code_start__-0x4cb8>
    3344:	05000000 	streq	r0, [r0, #-0]
    3348:	0000009b 	muleq	r0, fp, r0
    334c:	a8040700 	stmdage	r4, {r8, r9, sl}
    3350:	03000000 	movweq	r0, #0
    3354:	00b10801 	adcseq	r0, r1, r1, lsl #16
    3358:	a1080000 	mrsge	r0, (UNDEF: 8)
    335c:	06000000 	streq	r0, [r0], -r0
    3360:	0000077f 	andeq	r0, r0, pc, ror r7
    3364:	b90e2102 	stmdblt	lr, {r1, r8, sp}
    3368:	07000000 	streq	r0, [r0, -r0]
    336c:	00008c04 	andeq	r8, r0, r4, lsl #24
    3370:	08560900 	ldmdaeq	r6, {r8, fp}^
    3374:	04010000 	streq	r0, [r1], #-0
    3378:	00013407 	andeq	r3, r1, r7, lsl #8
    337c:	00901000 	addseq	r1, r0, r0
    3380:	00003400 	andeq	r3, r0, r0, lsl #8
    3384:	349c0100 	ldrcc	r0, [ip], #256	; 0x100
    3388:	0a000001 	beq	3394 <__code_start__-0x4c6c>
    338c:	00000c60 	andeq	r0, r0, r0, ror #24
    3390:	34150401 	ldrcc	r0, [r5], #-1025	; 0xfffffbff
    3394:	01000001 	tsteq	r0, r1
    3398:	72730b50 	rsbsvc	r0, r3, #80, 22	; 0x14000
    339c:	04010063 	streq	r0, [r1], #-99	; 0xffffff9d
    33a0:	00009b27 	andeq	r9, r0, r7, lsr #22
    33a4:	0015ae00 	andseq	sl, r5, r0, lsl #28
    33a8:	0015aa00 	andseq	sl, r5, r0, lsl #20
    33ac:	31730c00 	cmncc	r3, r0, lsl #24
    33b0:	0b050100 	bleq	1437b8 <__bss_end__+0x1399d0>
    33b4:	00000134 	andeq	r0, r0, r4, lsr r1
    33b8:	000015d9 	ldrdeq	r1, [r0], -r9
    33bc:	000015cf 	andeq	r1, r0, pc, asr #11
    33c0:	0032730c 	eorseq	r7, r2, ip, lsl #6
    33c4:	9b110601 	blls	444bd0 <__bss_end__+0x43ade8>
    33c8:	1e000000 	cdpne	0, 0, cr0, cr0, cr0, {0}
    33cc:	1a000016 	bne	342c <__code_start__-0x4bd4>
    33d0:	0c000016 	stceq	0, cr0, [r0], {22}
    33d4:	07010063 	streq	r0, [r1, -r3, rrx]
    33d8:	0000a10a 	andeq	sl, r0, sl, lsl #2
    33dc:	00164200 	andseq	r4, r6, r0, lsl #4
    33e0:	00163e00 	andseq	r3, r6, r0, lsl #28
    33e4:	04070000 	streq	r0, [r7], #-0
    33e8:	000000a1 	andeq	r0, r0, r1, lsr #1
    33ec:	0000f700 	andeq	pc, r0, r0, lsl #14
    33f0:	27000400 	strcs	r0, [r0, -r0, lsl #8]
    33f4:	04000013 	streq	r0, [r0], #-19	; 0xffffffed
    33f8:	00062801 	andeq	r2, r6, r1, lsl #16
    33fc:	0c750c00 	ldcleq	12, cr0, [r5], #-0
    3400:	07100000 	ldreq	r0, [r0, -r0]
    3404:	90440000 	subls	r0, r4, r0
    3408:	002c0000 	eoreq	r0, ip, r0
    340c:	21a50000 			; <UNDEFINED> instruction: 0x21a50000
    3410:	04020000 	streq	r0, [r2], #-0
    3414:	746e6905 	strbtvc	r6, [lr], #-2309	; 0xfffff6fb
    3418:	07040300 	streq	r0, [r4, -r0, lsl #6]
    341c:	0000003b 	andeq	r0, r0, fp, lsr r0
    3420:	aa060103 	bge	183834 <__bss_end__+0x179a4c>
    3424:	03000000 	movweq	r0, #0
    3428:	018f0502 	orreq	r0, pc, r2, lsl #10
    342c:	04030000 	streq	r0, [r3], #-0
    3430:	00000505 	andeq	r0, r0, r5, lsl #10
    3434:	05080300 	streq	r0, [r8, #-768]	; 0xfffffd00
    3438:	00000000 	andeq	r0, r0, r0
    343c:	a8080103 	stmdage	r8, {r0, r1, r8}
    3440:	03000000 	movweq	r0, #0
    3444:	01730702 	cmneq	r3, r2, lsl #14
    3448:	04030000 	streq	r0, [r3], #-0
    344c:	00003607 	andeq	r3, r0, r7, lsl #12
    3450:	07080300 	streq	r0, [r8, -r0, lsl #6]
    3454:	00000031 	andeq	r0, r0, r1, lsr r0
    3458:	00002504 	andeq	r2, r0, r4, lsl #10
    345c:	00007a00 	andeq	r7, r0, r0, lsl #20
    3460:	00250500 	eoreq	r0, r5, r0, lsl #10
    3464:	06000000 	streq	r0, [r0], -r0
    3468:	000001a6 	andeq	r0, r0, r6, lsr #3
    346c:	860e1c02 	strhi	r1, [lr], -r2, lsl #24
    3470:	07000000 	streq	r0, [r0, -r0]
    3474:	00006b04 	andeq	r6, r0, r4, lsl #22
    3478:	00250400 	eoreq	r0, r5, r0, lsl #8
    347c:	009b0000 	addseq	r0, fp, r0
    3480:	9b050000 	blls	143488 <__bss_end__+0x1396a0>
    3484:	00000000 	andeq	r0, r0, r0
    3488:	00a80407 	adceq	r0, r8, r7, lsl #8
    348c:	01030000 	mrseq	r0, (UNDEF: 3)
    3490:	0000b108 	andeq	fp, r0, r8, lsl #2
    3494:	00a10800 	adceq	r0, r1, r0, lsl #16
    3498:	7f060000 	svcvc	0x00060000
    349c:	02000007 	andeq	r0, r0, #7, 0
    34a0:	00b90e21 	adcseq	r0, r9, r1, lsr #28
    34a4:	04070000 	streq	r0, [r7], #-0
    34a8:	0000008c 	andeq	r0, r0, ip, lsl #1
    34ac:	00085d09 	andeq	r5, r8, r9, lsl #26
    34b0:	05030100 	streq	r0, [r3, #-256]	; 0xffffff00
    34b4:	00000025 	andeq	r0, r0, r5, lsr #32
    34b8:	00009044 	andeq	r9, r0, r4, asr #32
    34bc:	0000002c 	andeq	r0, r0, ip, lsr #32
    34c0:	610a9c01 	tstvs	sl, r1, lsl #24
    34c4:	18030100 	stmdane	r3, {r8}
    34c8:	0000009b 	muleq	r0, fp, r0
    34cc:	00001664 	andeq	r1, r0, r4, ror #12
    34d0:	00001660 	andeq	r1, r0, r0, ror #12
    34d4:	0100620a 	tsteq	r0, sl, lsl #4
    34d8:	009b2703 	addseq	r2, fp, r3, lsl #14
    34dc:	16860000 	strne	r0, [r6], r0
    34e0:	16820000 	strne	r0, [r2], r0
    34e4:	00000000 	andeq	r0, r0, r0
    34e8:	0000010f 	andeq	r0, r0, pc, lsl #2
    34ec:	13b60004 			; <UNDEFINED> instruction: 0x13b60004
    34f0:	01040000 	mrseq	r0, (UNDEF: 4)
    34f4:	00000628 	andeq	r0, r0, r8, lsr #12
    34f8:	000c850c 	andeq	r8, ip, ip, lsl #10
    34fc:	00071000 	andeq	r1, r7, r0
    3500:	00907000 	addseq	r7, r0, r0
    3504:	00002000 	andeq	r2, r0, r0
    3508:	00226b00 	eoreq	r6, r2, r0, lsl #22
    350c:	05040200 	streq	r0, [r4, #-512]	; 0xfffffe00
    3510:	00746e69 	rsbseq	r6, r4, r9, ror #28
    3514:	3b070403 	blcc	1c4528 <__bss_end__+0x1ba740>
    3518:	03000000 	movweq	r0, #0
    351c:	00aa0601 	adceq	r0, sl, r1, lsl #12
    3520:	02030000 	andeq	r0, r3, #0, 0
    3524:	00018f05 	andeq	r8, r1, r5, lsl #30
    3528:	05040300 	streq	r0, [r4, #-768]	; 0xfffffd00
    352c:	00000005 	andeq	r0, r0, r5
    3530:	00050803 	andeq	r0, r5, r3, lsl #16
    3534:	03000000 	movweq	r0, #0
    3538:	00a80801 	adceq	r0, r8, r1, lsl #16
    353c:	02030000 	andeq	r0, r3, #0, 0
    3540:	00017307 	andeq	r7, r1, r7, lsl #6
    3544:	07040300 	streq	r0, [r4, -r0, lsl #6]
    3548:	00000036 	andeq	r0, r0, r6, lsr r0
    354c:	31070803 	tstcc	r7, r3, lsl #16
    3550:	04000000 	streq	r0, [r0], #-0
    3554:	00000025 	andeq	r0, r0, r5, lsr #32
    3558:	0000007a 	andeq	r0, r0, sl, ror r0
    355c:	00002505 	andeq	r2, r0, r5, lsl #10
    3560:	a6060000 	strge	r0, [r6], -r0
    3564:	02000001 	andeq	r0, r0, #1, 0
    3568:	00860e1c 	addeq	r0, r6, ip, lsl lr
    356c:	04070000 	streq	r0, [r7], #-0
    3570:	0000006b 	andeq	r0, r0, fp, rrx
    3574:	00002504 	andeq	r2, r0, r4, lsl #10
    3578:	00009b00 	andeq	r9, r0, r0, lsl #22
    357c:	009b0500 	addseq	r0, fp, r0, lsl #10
    3580:	07000000 	streq	r0, [r0, -r0]
    3584:	0000a804 	andeq	sl, r0, r4, lsl #16
    3588:	08010300 	stmdaeq	r1, {r8, r9}
    358c:	000000b1 	strheq	r0, [r0], -r1
    3590:	0000a108 	andeq	sl, r0, r8, lsl #2
    3594:	077f0600 	ldrbeq	r0, [pc, -r0, lsl #12]!
    3598:	21020000 	mrscs	r0, (UNDEF: 2)
    359c:	0000b90e 	andeq	fp, r0, lr, lsl #18
    35a0:	8c040700 	stchi	7, cr0, [r4], {-0}
    35a4:	09000000 	stmdbeq	r0, {}	; <UNPREDICTABLE>
    35a8:	00000822 	andeq	r0, r0, r2, lsr #16
    35ac:	0c070301 	stceq	3, cr0, [r7], {1}
    35b0:	70000001 	andvc	r0, r0, r1
    35b4:	20000090 	mulcs	r0, r0, r0
    35b8:	01000000 	mrseq	r0, (UNDEF: 0)
    35bc:	00010c9c 	muleq	r1, ip, ip
    35c0:	31730a00 	cmncc	r3, r0, lsl #20
    35c4:	15030100 	strne	r0, [r3, #-256]	; 0xffffff00
    35c8:	0000010c 	andeq	r0, r0, ip, lsl #2
    35cc:	730b5001 	movwvc	r5, #45057	; 0xb001
    35d0:	03010032 	movweq	r0, #4146	; 0x1032
    35d4:	00009b26 	andeq	r9, r0, r6, lsr #22
    35d8:	0016aa00 	andseq	sl, r6, r0, lsl #20
    35dc:	0016a400 	andseq	sl, r6, r0, lsl #8
    35e0:	00730c00 	rsbseq	r0, r3, r0, lsl #24
    35e4:	0c140401 	cfldrseq	mvf0, [r4], {1}
    35e8:	db000001 	blle	35f4 <__code_start__-0x4a0c>
    35ec:	d5000016 	strle	r0, [r0, #-22]	; 0xffffffea
    35f0:	00000016 	andeq	r0, r0, r6, lsl r0
    35f4:	00a10407 	adceq	r0, r1, r7, lsl #8
    35f8:	4e000000 	cdpmi	0, 0, cr0, cr0, cr0, {0}
    35fc:	04000001 	streq	r0, [r0], #-1
    3600:	00146c00 	andseq	r6, r4, r0, lsl #24
    3604:	28010400 	stmdacs	r1, {sl}
    3608:	0c000006 	stceq	0, cr0, [r0], {6}
    360c:	00000c9c 	muleq	r0, ip, ip
    3610:	00000710 	andeq	r0, r0, r0, lsl r7
    3614:	000000c0 	andeq	r0, r0, r0, asr #1
    3618:	00000000 	andeq	r0, r0, r0
    361c:	0000232f 	andeq	r2, r0, pc, lsr #6
    3620:	69050402 	stmdbvs	r5, {r1, sl}
    3624:	0300746e 	movweq	r7, #1134	; 0x46e
    3628:	00000c95 	muleq	r0, r5, ip
    362c:	3817d103 	ldmdacc	r7, {r0, r1, r8, ip, lr, pc}
    3630:	04000000 	streq	r0, [r0], #-0
    3634:	003b0704 	eorseq	r0, fp, r4, lsl #14
    3638:	01040000 	mrseq	r0, (UNDEF: 4)
    363c:	0000aa06 	andeq	sl, r0, r6, lsl #20
    3640:	05020400 	streq	r0, [r2, #-1024]	; 0xfffffc00
    3644:	0000018f 	andeq	r0, r0, pc, lsl #3
    3648:	05050404 	streq	r0, [r5, #-1028]	; 0xfffffbfc
    364c:	04000000 	streq	r0, [r0], #-0
    3650:	00000508 	andeq	r0, r0, r8, lsl #10
    3654:	01040000 	mrseq	r0, (UNDEF: 4)
    3658:	0000a808 	andeq	sl, r0, r8, lsl #16
    365c:	005b0500 	subseq	r0, fp, r0, lsl #10
    3660:	02040000 	andeq	r0, r4, #0, 0
    3664:	00017307 	andeq	r7, r1, r7, lsl #6
    3668:	07040400 	streq	r0, [r4, -r0, lsl #8]
    366c:	00000036 	andeq	r0, r0, r6, lsr r0
    3670:	31070804 	tstcc	r7, r4, lsl #16
    3674:	06000000 	streq	r0, [r0], -r0
    3678:	00000025 	andeq	r0, r0, r5, lsr #32
    367c:	0000008b 	andeq	r0, r0, fp, lsl #1
    3680:	00002507 	andeq	r2, r0, r7, lsl #10
    3684:	a6080000 	strge	r0, [r8], -r0
    3688:	02000001 	andeq	r0, r0, #1, 0
    368c:	00970e1c 	addseq	r0, r7, ip, lsl lr
    3690:	04090000 	streq	r0, [r9], #-0
    3694:	0000007c 	andeq	r0, r0, ip, ror r0
    3698:	00002506 	andeq	r2, r0, r6, lsl #10
    369c:	0000ac00 	andeq	sl, r0, r0, lsl #24
    36a0:	00ac0700 	adceq	r0, ip, r0, lsl #14
    36a4:	09000000 	stmdbeq	r0, {}	; <UNPREDICTABLE>
    36a8:	0000b904 	andeq	fp, r0, r4, lsl #18
    36ac:	08010400 	stmdaeq	r1, {sl}
    36b0:	000000b1 	strheq	r0, [r0], -r1
    36b4:	0000b205 	andeq	fp, r0, r5, lsl #4
    36b8:	077f0800 	ldrbeq	r0, [pc, -r0, lsl #16]!
    36bc:	21020000 	mrscs	r0, (UNDEF: 2)
    36c0:	0000ca0e 	andeq	ip, r0, lr, lsl #20
    36c4:	9d040900 	vstrls.16	s0, [r4, #-0]	; <UNPREDICTABLE>
    36c8:	0a000000 	beq	36d0 <__code_start__-0x4930>
    36cc:	00000880 	andeq	r0, r0, r0, lsl #17
    36d0:	25050401 	strcs	r0, [r5, #-1025]	; 0xfffffbff
    36d4:	90000000 	andls	r0, r0, r0
    36d8:	2c000090 	stccs	0, cr0, [r0], {144}	; 0x90
    36dc:	01000000 	mrseq	r0, (UNDEF: 0)
    36e0:	00014b9c 	muleq	r1, ip, fp
    36e4:	735f0b00 	cmpvc	pc, #0, 22
    36e8:	04010031 	streq	r0, [r1], #-49	; 0xffffffcf
    36ec:	0000ac19 	andeq	sl, r0, r9, lsl ip
    36f0:	00170a00 	andseq	r0, r7, r0, lsl #20
    36f4:	00170600 	andseq	r0, r7, r0, lsl #12
    36f8:	735f0b00 	cmpvc	pc, #0, 22
    36fc:	04010032 	streq	r0, [r1], #-50	; 0xffffffce
    3700:	0000ac2a 	andeq	sl, r0, sl, lsr #24
    3704:	00172f00 	andseq	r2, r7, r0, lsl #30
    3708:	00172b00 	andseq	r2, r7, r0, lsl #22
    370c:	006e0b00 	rsbeq	r0, lr, r0, lsl #22
    3710:	2c360401 	cfldrscs	mvf0, [r6], #-4
    3714:	56000000 	strpl	r0, [r0], -r0
    3718:	50000017 	andpl	r0, r0, r7, lsl r0
    371c:	0c000017 	stceq	0, cr0, [r0], {23}
    3720:	01003173 	tsteq	r0, r3, ror r1
    3724:	014b1a05 	cmpeq	fp, r5, lsl #20
    3728:	17890000 	strne	r0, [r9, r0]
    372c:	17810000 	strne	r0, [r1, r0]
    3730:	730c0000 	movwvc	r0, #49152	; 0xc000
    3734:	05010032 	streq	r0, [r1, #-50]	; 0xffffffce
    3738:	00014b2c 	andeq	r4, r1, ip, lsr #22
    373c:	0017c500 	andseq	ip, r7, r0, lsl #10
    3740:	0017bf00 	andseq	fp, r7, r0, lsl #30
    3744:	04090000 	streq	r0, [r9], #-0
    3748:	00000062 	andeq	r0, r0, r2, rrx
    374c:	0000ce00 	andeq	ip, r0, r0, lsl #28
    3750:	20000400 	andcs	r0, r0, r0, lsl #8
    3754:	04000015 	streq	r0, [r0], #-21	; 0xffffffeb
    3758:	00062801 	andeq	r2, r6, r1, lsl #16
    375c:	0cad0c00 	stceq	12, cr0, [sp]
    3760:	07100000 	ldreq	r0, [r0, -r0]
    3764:	90bc0000 	adcsls	r0, ip, r0
    3768:	00040000 	andeq	r0, r4, r0
    376c:	24530000 	ldrbcs	r0, [r3], #-0
    3770:	04020000 	streq	r0, [r2], #-0
    3774:	746e6905 	strbtvc	r6, [lr], #-2309	; 0xfffff6fb
    3778:	07040300 	streq	r0, [r4, -r0, lsl #6]
    377c:	0000003b 	andeq	r0, r0, fp, lsr r0
    3780:	aa060103 	bge	183b94 <__bss_end__+0x179dac>
    3784:	03000000 	movweq	r0, #0
    3788:	018f0502 	orreq	r0, pc, r2, lsl #10
    378c:	04030000 	streq	r0, [r3], #-0
    3790:	00000505 	andeq	r0, r0, r5, lsl #10
    3794:	05080300 	streq	r0, [r8, #-768]	; 0xfffffd00
    3798:	00000000 	andeq	r0, r0, r0
    379c:	a8080103 	stmdage	r8, {r0, r1, r8}
    37a0:	03000000 	movweq	r0, #0
    37a4:	01730702 	cmneq	r3, r2, lsl #14
    37a8:	04030000 	streq	r0, [r3], #-0
    37ac:	00003607 	andeq	r3, r0, r7, lsl #12
    37b0:	07080300 	streq	r0, [r8, -r0, lsl #6]
    37b4:	00000031 	andeq	r0, r0, r1, lsr r0
    37b8:	00002504 	andeq	r2, r0, r4, lsl #10
    37bc:	00007a00 	andeq	r7, r0, r0, lsl #20
    37c0:	00250500 	eoreq	r0, r5, r0, lsl #10
    37c4:	06000000 	streq	r0, [r0], -r0
    37c8:	000001a6 	andeq	r0, r0, r6, lsr #3
    37cc:	860e1c02 	strhi	r1, [lr], -r2, lsl #24
    37d0:	07000000 	streq	r0, [r0, -r0]
    37d4:	00006b04 	andeq	r6, r0, r4, lsl #22
    37d8:	00250400 	eoreq	r0, r5, r0, lsl #8
    37dc:	009b0000 	addseq	r0, fp, r0
    37e0:	9b050000 	blls	1437e8 <__bss_end__+0x139a00>
    37e4:	00000000 	andeq	r0, r0, r0
    37e8:	00a80407 	adceq	r0, r8, r7, lsl #8
    37ec:	01030000 	mrseq	r0, (UNDEF: 3)
    37f0:	0000b108 	andeq	fp, r0, r8, lsl #2
    37f4:	00a10800 	adceq	r0, r1, r0, lsl #16
    37f8:	7f060000 	svcvc	0x00060000
    37fc:	02000007 	andeq	r0, r0, #7, 0
    3800:	00b90e21 	adcseq	r0, r9, r1, lsr #28
    3804:	04070000 	streq	r0, [r7], #-0
    3808:	0000008c 	andeq	r0, r0, ip, lsl #1
    380c:	00094e09 	andeq	r4, r9, r9, lsl #28
    3810:	06030100 	streq	r0, [r3], -r0, lsl #2
    3814:	000090bc 	strheq	r9, [r0], -ip
    3818:	00000004 	andeq	r0, r0, r4
    381c:	Address 0x000000000000381c is out of bounds.


Disassembly of section .debug_abbrev:

00000000 <.debug_abbrev>:
       0:	25011101 	strcs	r1, [r1, #-257]	; 0xfffffeff
       4:	030b130e 	movweq	r1, #45838	; 0xb30e
       8:	110e1b0e 	tstne	lr, lr, lsl #22
       c:	10061201 	andne	r1, r6, r1, lsl #4
      10:	02000017 	andeq	r0, r0, #23, 0
      14:	0b0b0024 	bleq	2c00ac <__bss_end__+0x2b62c4>
      18:	08030b3e 	stmdaeq	r3, {r1, r2, r3, r4, r5, r8, r9, fp}
      1c:	24030000 	strcs	r0, [r3], #-0
      20:	3e0b0b00 	vmlacc.f64	d0, d11, d0
      24:	000e030b 	andeq	r0, lr, fp, lsl #6
      28:	00160400 	andseq	r0, r6, r0, lsl #8
      2c:	0b3a0e03 	bleq	e83840 <__bss_end__+0xe79a58>
      30:	0b390b3b 	bleq	e42d24 <__bss_end__+0xe38f3c>
      34:	00001349 	andeq	r1, r0, r9, asr #6
      38:	27011505 	strcs	r1, [r1, -r5, lsl #10]
      3c:	01134919 	tsteq	r3, r9, lsl r9
      40:	06000013 			; <UNDEFINED> instruction: 0x06000013
      44:	13490005 	movtne	r0, #36869	; 0x9005
      48:	34070000 	strcc	r0, [r7], #-0
      4c:	3a0e0300 	bcc	380c54 <__bss_end__+0x376e6c>
      50:	390b3b0b 	stmdbcc	fp, {r0, r1, r3, r8, r9, fp, ip, sp}
      54:	3f13490b 	svccc	0x0013490b
      58:	00193c19 	andseq	r3, r9, r9, lsl ip
      5c:	000f0800 	andeq	r0, pc, r0, lsl #16
      60:	13490b0b 	movtne	r0, #39691	; 0x9b0b
      64:	26090000 	strcs	r0, [r9], -r0
      68:	00134900 	andseq	r4, r3, r0, lsl #18
      6c:	012e0a00 			; <UNDEFINED> instruction: 0x012e0a00
      70:	0e03193f 			; <UNDEFINED> instruction: 0x0e03193f
      74:	0b3b0b3a 	bleq	ec2d64 <__bss_end__+0xeb8f7c>
      78:	19270b39 	stmdbne	r7!, {r0, r3, r4, r5, r8, r9, fp}
      7c:	06120111 			; <UNDEFINED> instruction: 0x06120111
      80:	42971840 	addsmi	r1, r7, #64, 16	; 0x400000
      84:	00130119 	andseq	r0, r3, r9, lsl r1
      88:	010b0b00 	tsteq	fp, r0, lsl #22
      8c:	13011755 	movwne	r1, #5973	; 0x1755
      90:	340c0000 	strcc	r0, [ip], #-0
      94:	3a080300 	bcc	200c9c <__bss_end__+0x1f6eb4>
      98:	390b3b0b 	stmdbcc	fp, {r0, r1, r3, r8, r9, fp, ip, sp}
      9c:	0213490b 	andseq	r4, r3, #180224	; 0x2c000
      a0:	1742b717 	smlaldne	fp, r2, r7, r7
      a4:	0b0d0000 	bleq	3400ac <__bss_end__+0x3362c4>
      a8:	12011101 	andne	r1, r1, #1073741824	; 0x40000000
      ac:	0e000006 	cdpeq	0, 0, cr0, cr0, cr6, {0}
      b0:	0e030034 	mcreq	0, 0, r0, cr3, cr4, {1}
      b4:	0b3b0b3a 	bleq	ec2da4 <__bss_end__+0xeb8fbc>
      b8:	13490b39 	movtne	r0, #39737	; 0x9b39
      bc:	42b71702 	adcsmi	r1, r7, #524288	; 0x80000
      c0:	0f000017 	svceq	0x00000017
      c4:	00018289 	andeq	r8, r1, r9, lsl #5
      c8:	13310111 	teqne	r1, #1073741828	; 0x40000004
      cc:	89100000 	ldmdbhi	r0, {}	; <UNPREDICTABLE>
      d0:	11010182 	smlabbne	r1, r2, r1, r0
      d4:	00133101 	andseq	r3, r3, r1, lsl #2
      d8:	828a1100 	addhi	r1, sl, #0
      dc:	18020001 	stmdane	r2, {r0}
      e0:	00184291 	mulseq	r8, r1, r2
      e4:	82891200 	addhi	r1, r9, #0, 4
      e8:	01110101 	tsteq	r1, r1, lsl #2
      ec:	31194295 			; <UNDEFINED> instruction: 0x31194295
      f0:	13000013 	movwne	r0, #19
      f4:	193f002e 	ldmdbne	pc!, {r1, r2, r3, r5}	; <UNPREDICTABLE>
      f8:	0e6e193c 			; <UNDEFINED> instruction: 0x0e6e193c
      fc:	0b3a0e03 	bleq	e83910 <__bss_end__+0xe79b28>
     100:	0b390b3b 	bleq	e42df4 <__bss_end__+0xe3900c>
     104:	01000000 	mrseq	r0, (UNDEF: 0)
     108:	0e250111 	mcreq	1, 1, r0, cr5, cr1, {0}
     10c:	0e030b13 	vmoveq.32	d3[0], r0
     110:	01110e1b 	tsteq	r1, fp, lsl lr
     114:	17100612 			; <UNDEFINED> instruction: 0x17100612
     118:	24020000 	strcs	r0, [r2], #-0
     11c:	3e0b0b00 	vmlacc.f64	d0, d11, d0
     120:	0008030b 	andeq	r0, r8, fp, lsl #6
     124:	00240300 	eoreq	r0, r4, r0, lsl #6
     128:	0b3e0b0b 	bleq	f82d5c <__bss_end__+0xf78f74>
     12c:	00000e03 	andeq	r0, r0, r3, lsl #28
     130:	03001604 	movweq	r1, #1540	; 0x604
     134:	3b0b3a0e 	blcc	2ce974 <__bss_end__+0x2c4b8c>
     138:	490b390b 	stmdbmi	fp, {r0, r1, r3, r8, fp, ip, sp}
     13c:	05000013 	streq	r0, [r0, #-19]	; 0xffffffed
     140:	19270115 	stmdbne	r7!, {r0, r2, r4, r8}
     144:	13011349 	movwne	r1, #4937	; 0x1349
     148:	05060000 	streq	r0, [r6, #-0]
     14c:	00134900 	andseq	r4, r3, r0, lsl #18
     150:	00340700 	eorseq	r0, r4, r0, lsl #14
     154:	0b3a0e03 	bleq	e83968 <__bss_end__+0xe79b80>
     158:	0b390b3b 	bleq	e42e4c <__bss_end__+0xe39064>
     15c:	193f1349 	ldmdbne	pc!, {r0, r3, r6, r8, r9, ip}	; <UNPREDICTABLE>
     160:	0000193c 	andeq	r1, r0, ip, lsr r9
     164:	0b000f08 	bleq	3d8c <__code_start__-0x4274>
     168:	0013490b 	andseq	r4, r3, fp, lsl #18
     16c:	00260900 	eoreq	r0, r6, r0, lsl #18
     170:	00001349 	andeq	r1, r0, r9, asr #6
     174:	3e01040a 	cdpcc	4, 0, cr0, cr1, cr10, {0}
     178:	490b0b0b 	stmdbmi	fp, {r0, r1, r3, r8, r9, fp}
     17c:	3b0b3a13 	blcc	2ce9d0 <__bss_end__+0x2c4be8>
     180:	010b390b 	tsteq	fp, fp, lsl #18
     184:	0b000013 	bleq	1d8 <__code_start__-0x7e28>
     188:	0e030028 	cdpeq	0, 0, cr0, cr3, cr8, {1}
     18c:	00000b1c 	andeq	r0, r0, ip, lsl fp
     190:	0b01130c 	bleq	44dc8 <__bss_end__+0x3afe0>
     194:	3b0b3a0b 	blcc	2ce9c8 <__bss_end__+0x2c4be0>
     198:	010b390b 	tsteq	fp, fp, lsl #18
     19c:	0d000013 	stceq	0, cr0, [r0, #-76]	; 0xffffffb4
     1a0:	0803000d 	stmdaeq	r3, {r0, r2, r3}
     1a4:	0b3b0b3a 	bleq	ec2e94 <__bss_end__+0xeb90ac>
     1a8:	13490b39 	movtne	r0, #39737	; 0x9b39
     1ac:	00000b38 	andeq	r0, r0, r8, lsr fp
     1b0:	03000d0e 	movweq	r0, #3342	; 0xd0e
     1b4:	3b0b3a0e 	blcc	2ce9f4 <__bss_end__+0x2c4c0c>
     1b8:	490b390b 	stmdbmi	fp, {r0, r1, r3, r8, fp, ip, sp}
     1bc:	000b3813 	andeq	r3, fp, r3, lsl r8
     1c0:	00350f00 	eorseq	r0, r5, r0, lsl #30
     1c4:	00001349 	andeq	r1, r0, r9, asr #6
     1c8:	49010110 	stmdbmi	r1, {r4, r8}
     1cc:	00130113 	andseq	r0, r3, r3, lsl r1
     1d0:	00211100 	eoreq	r1, r1, r0, lsl #2
     1d4:	0b2f1349 	bleq	bc4f00 <__bss_end__+0xbbb118>
     1d8:	34120000 	ldrcc	r0, [r2], #-0
     1dc:	3a0e0300 	bcc	380de4 <__bss_end__+0x376ffc>
     1e0:	390b3b0b 	stmdbcc	fp, {r0, r1, r3, r8, r9, fp, ip, sp}
     1e4:	3f13490b 	svccc	0x0013490b
     1e8:	00180219 	andseq	r0, r8, r9, lsl r2
     1ec:	00281300 	eoreq	r1, r8, r0, lsl #6
     1f0:	061c0e03 	ldreq	r0, [ip], -r3, lsl #28
     1f4:	2e140000 	cdpcs	0, 1, cr0, cr4, cr0, {0}
     1f8:	03193f01 	tsteq	r9, #1, 30
     1fc:	3b0b3a0e 	blcc	2cea3c <__bss_end__+0x2c4c54>
     200:	270b390b 	strcs	r3, [fp, -fp, lsl #18]
     204:	11134919 	tstne	r3, r9, lsl r9
     208:	40061201 	andmi	r1, r6, r1, lsl #4
     20c:	19429718 	stmdbne	r2, {r3, r4, r8, r9, sl, ip, pc}^
     210:	00001301 	andeq	r1, r0, r1, lsl #6
     214:	03003415 	movweq	r3, #1045	; 0x415
     218:	3b0b3a08 	blcc	2cea40 <__bss_end__+0x2c4c58>
     21c:	490b390b 	stmdbmi	fp, {r0, r1, r3, r8, fp, ip, sp}
     220:	b7170213 			; <UNDEFINED> instruction: 0xb7170213
     224:	00001742 	andeq	r1, r0, r2, asr #14
     228:	01828916 	orreq	r8, r2, r6, lsl r9
     22c:	31011100 	mrscc	r1, (UNDEF: 17)
     230:	17000013 	smladne	r0, r3, r0, r0
     234:	01018289 	smlabbeq	r1, r9, r2, r8
     238:	13310111 	teqne	r1, #1073741828	; 0x40000004
     23c:	00001301 	andeq	r1, r0, r1, lsl #6
     240:	01828a18 	orreq	r8, r2, r8, lsl sl
     244:	91180200 	tstls	r8, r0, lsl #4
     248:	00001842 	andeq	r1, r0, r2, asr #16
     24c:	01828919 	orreq	r8, r2, r9, lsl r9
     250:	95011101 	strls	r1, [r1, #-257]	; 0xfffffeff
     254:	13311942 	teqne	r1, #1081344	; 0x108000
     258:	2e1a0000 	cdpcs	0, 1, cr0, cr10, cr0, {0}
     25c:	03193f01 	tsteq	r9, #1, 30
     260:	3b0b3a0e 	blcc	2ceaa0 <__bss_end__+0x2c4cb8>
     264:	270b390b 	strcs	r3, [fp, -fp, lsl #18]
     268:	12011119 	andne	r1, r1, #1073741830	; 0x40000006
     26c:	97184006 	ldrls	r4, [r8, -r6]
     270:	13011942 	movwne	r1, #6466	; 0x1942
     274:	341b0000 	ldrcc	r0, [fp], #-0
     278:	490e0300 	stmdbmi	lr, {r8, r9}
     27c:	02193413 	andseq	r3, r9, #318767104	; 0x13000000
     280:	1c000018 	stcne	0, cr0, [r0], {24}
     284:	1331011d 	teqne	r1, #1073741831	; 0x40000007
     288:	42b80152 	adcsmi	r0, r8, #-2147483628	; 0x80000014
     28c:	58175505 	ldmdapl	r7, {r0, r2, r8, sl, ip, lr}
     290:	570b590b 	strpl	r5, [fp, -fp, lsl #18]
     294:	0013010b 	andseq	r0, r3, fp, lsl #2
     298:	00051d00 	andeq	r1, r5, r0, lsl #26
     29c:	17021331 	smladxne	r2, r1, r3, r1
     2a0:	001742b7 			; <UNDEFINED> instruction: 0x001742b7
     2a4:	011d1e00 	tsteq	sp, r0, lsl #28
     2a8:	01521331 	cmpeq	r2, r1, lsr r3
     2ac:	110542b8 			; <UNDEFINED> instruction: 0x110542b8
     2b0:	58061201 	stmdapl	r6, {r0, r9, ip}
     2b4:	570b590b 	strpl	r5, [fp, -fp, lsl #18]
     2b8:	0013010b 	andseq	r0, r3, fp, lsl #2
     2bc:	010b1f00 	tsteq	fp, r0, lsl #30
     2c0:	00001755 	andeq	r1, r0, r5, asr r7
     2c4:	31003420 	tstcc	r0, r0, lsr #8
     2c8:	b7170213 			; <UNDEFINED> instruction: 0xb7170213
     2cc:	00001742 	andeq	r1, r0, r2, asr #14
     2d0:	55000b21 	strpl	r0, [r0, #-2849]	; 0xfffff4df
     2d4:	22000017 	andcs	r0, r0, #23, 0
     2d8:	1331011d 	teqne	r1, #1073741831	; 0x40000007
     2dc:	42b80152 	adcsmi	r0, r8, #-2147483628	; 0x80000014
     2e0:	12011105 	andne	r1, r1, #1073741825	; 0x40000001
     2e4:	590b5806 	stmdbpl	fp, {r1, r2, fp, ip, lr}
     2e8:	000b570b 	andeq	r5, fp, fp, lsl #14
     2ec:	82892300 	addhi	r2, r9, #0, 6
     2f0:	01110001 	tsteq	r1, r1
     2f4:	31194295 			; <UNDEFINED> instruction: 0x31194295
     2f8:	24000013 	strcs	r0, [r0], #-19	; 0xffffffed
     2fc:	193f012e 	ldmdbne	pc!, {r1, r2, r3, r5, r8}	; <UNPREDICTABLE>
     300:	0b3a0e03 	bleq	e83b14 <__bss_end__+0xe79d2c>
     304:	0b390b3b 	bleq	e42ff8 <__bss_end__+0xe39210>
     308:	13491927 	movtne	r1, #39207	; 0x9927
     30c:	13010b20 	movwne	r0, #6944	; 0x1b20
     310:	05250000 	streq	r0, [r5, #-0]!
     314:	3a080300 	bcc	200f1c <__bss_end__+0x1f7134>
     318:	390b3b0b 	stmdbcc	fp, {r0, r1, r3, r8, r9, fp, ip, sp}
     31c:	0013490b 	andseq	r4, r3, fp, lsl #18
     320:	012e2600 			; <UNDEFINED> instruction: 0x012e2600
     324:	0b3a0e03 	bleq	e83b38 <__bss_end__+0xe79d50>
     328:	0b390b3b 	bleq	e4301c <__bss_end__+0xe39234>
     32c:	13491927 	movtne	r1, #39207	; 0x9927
     330:	13010b20 	movwne	r0, #6944	; 0x1b20
     334:	34270000 	strtcc	r0, [r7], #-0
     338:	3a080300 	bcc	200f40 <__bss_end__+0x1f7158>
     33c:	390b3b0b 	stmdbcc	fp, {r0, r1, r3, r8, r9, fp, ip, sp}
     340:	0013490b 	andseq	r4, r3, fp, lsl #18
     344:	00342800 	eorseq	r2, r4, r0, lsl #16
     348:	13490e03 	movtne	r0, #40451	; 0x9e03
     34c:	00001934 	andeq	r1, r0, r4, lsr r9
     350:	03003429 	movweq	r3, #1065	; 0x429
     354:	3b0b3a0e 	blcc	2ceb94 <__bss_end__+0x2c4dac>
     358:	490b390b 	stmdbmi	fp, {r0, r1, r3, r8, fp, ip, sp}
     35c:	2a000013 	bcs	3b0 <__code_start__-0x7c50>
     360:	0e030005 	cdpeq	0, 0, cr0, cr3, cr5, {0}
     364:	0b3b0b3a 	bleq	ec3054 <__bss_end__+0xeb926c>
     368:	13490b39 	movtne	r0, #39737	; 0x9b39
     36c:	342b0000 	strtcc	r0, [fp], #-0
     370:	490e0300 	stmdbmi	lr, {r8, r9}
     374:	1c193413 	cfldrsne	mvf3, [r9], {19}
     378:	2c00000e 	stccs	0, cr0, [r0], {14}
     37c:	1331012e 	teqne	r1, #-2147483637	; 0x8000000b
     380:	06120111 			; <UNDEFINED> instruction: 0x06120111
     384:	42971840 	addsmi	r1, r7, #64, 16	; 0x400000
     388:	00130119 	andseq	r0, r3, r9, lsl r1
     38c:	00342d00 	eorseq	r2, r4, r0, lsl #26
     390:	00001331 	andeq	r1, r0, r1, lsr r3
     394:	3f002e2e 	svccc	0x00002e2e
     398:	6e193c19 	mrcvs	12, 0, r3, cr9, cr9, {0}
     39c:	3a0e030e 	bcc	380fdc <__bss_end__+0x3771f4>
     3a0:	390b3b0b 	stmdbcc	fp, {r0, r1, r3, r8, r9, fp, ip, sp}
     3a4:	0000000b 	andeq	r0, r0, fp
     3a8:	25011101 	strcs	r1, [r1, #-257]	; 0xfffffeff
     3ac:	030b130e 	movweq	r1, #45838	; 0xb30e
     3b0:	110e1b0e 	tstne	lr, lr, lsl #22
     3b4:	10061201 	andne	r1, r6, r1, lsl #4
     3b8:	02000017 	andeq	r0, r0, #23, 0
     3bc:	0b0b0024 	bleq	2c0454 <__bss_end__+0x2b666c>
     3c0:	08030b3e 	stmdaeq	r3, {r1, r2, r3, r4, r5, r8, r9, fp}
     3c4:	24030000 	strcs	r0, [r3], #-0
     3c8:	3e0b0b00 	vmlacc.f64	d0, d11, d0
     3cc:	000e030b 	andeq	r0, lr, fp, lsl #6
     3d0:	00160400 	andseq	r0, r6, r0, lsl #8
     3d4:	0b3a0e03 	bleq	e83be8 <__bss_end__+0xe79e00>
     3d8:	0b390b3b 	bleq	e430cc <__bss_end__+0xe392e4>
     3dc:	00001349 	andeq	r1, r0, r9, asr #6
     3e0:	27011505 	strcs	r1, [r1, -r5, lsl #10]
     3e4:	01134919 	tsteq	r3, r9, lsl r9
     3e8:	06000013 			; <UNDEFINED> instruction: 0x06000013
     3ec:	13490005 	movtne	r0, #36869	; 0x9005
     3f0:	34070000 	strcc	r0, [r7], #-0
     3f4:	3a0e0300 	bcc	380ffc <__bss_end__+0x377214>
     3f8:	390b3b0b 	stmdbcc	fp, {r0, r1, r3, r8, r9, fp, ip, sp}
     3fc:	3f13490b 	svccc	0x0013490b
     400:	00193c19 	andseq	r3, r9, r9, lsl ip
     404:	000f0800 	andeq	r0, pc, r0, lsl #16
     408:	13490b0b 	movtne	r0, #39691	; 0x9b0b
     40c:	26090000 	strcs	r0, [r9], -r0
     410:	00134900 	andseq	r4, r3, r0, lsl #18
     414:	01010a00 	tsteq	r1, r0, lsl #20
     418:	13011349 	movwne	r1, #4937	; 0x1349
     41c:	210b0000 	mrscs	r0, (UNDEF: 11)
     420:	2f134900 	svccs	0x00134900
     424:	0c000005 	stceq	0, cr0, [r0], {5}
     428:	0e030034 	mcreq	0, 0, r0, cr3, cr4, {1}
     42c:	0b3b0b3a 	bleq	ec311c <__bss_end__+0xeb9334>
     430:	13490b39 	movtne	r0, #39737	; 0x9b39
     434:	1802193f 	stmdane	r2, {r0, r1, r2, r3, r4, r5, r8, fp, ip}
     438:	2e0d0000 	cdpcs	0, 0, cr0, cr13, cr0, {0}
     43c:	03193f01 	tsteq	r9, #1, 30
     440:	3b0b3a0e 	blcc	2cec80 <__bss_end__+0x2c4e98>
     444:	270b390b 	strcs	r3, [fp, -fp, lsl #18]
     448:	11134919 	tstne	r3, r9, lsl r9
     44c:	40061201 	andmi	r1, r6, r1, lsl #4
     450:	19429718 	stmdbne	r2, {r3, r4, r8, r9, sl, ip, pc}^
     454:	00001301 	andeq	r1, r0, r1, lsl #6
     458:	0300050e 	movweq	r0, #1294	; 0x50e
     45c:	3b0b3a0e 	blcc	2cec9c <__bss_end__+0x2c4eb4>
     460:	490b390b 	stmdbmi	fp, {r0, r1, r3, r8, fp, ip, sp}
     464:	b7170213 			; <UNDEFINED> instruction: 0xb7170213
     468:	00001742 	andeq	r1, r0, r2, asr #14
     46c:	0300340f 	movweq	r3, #1039	; 0x40f
     470:	3413490e 	ldrcc	r4, [r3], #-2318	; 0xfffff6f2
     474:	00180219 	andseq	r0, r8, r9, lsl r2
     478:	00341000 	eorseq	r1, r4, r0
     47c:	0b3a0803 	bleq	e82490 <__bss_end__+0xe786a8>
     480:	0b390b3b 	bleq	e43174 <__bss_end__+0xe3938c>
     484:	00001349 	andeq	r1, r0, r9, asr #6
     488:	03003411 	movweq	r3, #1041	; 0x411
     48c:	3b0b3a0e 	blcc	2ceccc <__bss_end__+0x2c4ee4>
     490:	490b390b 	stmdbmi	fp, {r0, r1, r3, r8, fp, ip, sp}
     494:	12000013 	andne	r0, r0, #19, 0
     498:	1301010b 	movwne	r0, #4363	; 0x110b
     49c:	89130000 	ldmdbhi	r3, {}	; <UNPREDICTABLE>
     4a0:	11010182 	smlabbne	r1, r2, r1, r0
     4a4:	01133101 	tsteq	r3, r1, lsl #2
     4a8:	14000013 	strne	r0, [r0], #-19	; 0xffffffed
     4ac:	0001828a 	andeq	r8, r1, sl, lsl #5
     4b0:	42911802 	addsmi	r1, r1, #131072	; 0x20000
     4b4:	15000018 	strne	r0, [r0, #-24]	; 0xffffffe8
     4b8:	00018289 	andeq	r8, r1, r9, lsl #5
     4bc:	13310111 	teqne	r1, #1073741828	; 0x40000004
     4c0:	21160000 	tstcs	r6, r0
     4c4:	2f134900 	svccs	0x00134900
     4c8:	1700000b 	strne	r0, [r0, -fp]
     4cc:	08030034 	stmdaeq	r3, {r2, r4, r5}
     4d0:	0b3b0b3a 	bleq	ec31c0 <__bss_end__+0xeb93d8>
     4d4:	13490b39 	movtne	r0, #39737	; 0x9b39
     4d8:	42b71702 	adcsmi	r1, r7, #524288	; 0x80000
     4dc:	18000017 	stmdane	r0, {r0, r1, r2, r4}
     4e0:	0e030034 	mcreq	0, 0, r0, cr3, cr4, {1}
     4e4:	0b3b0b3a 	bleq	ec31d4 <__bss_end__+0xeb93ec>
     4e8:	13490b39 	movtne	r0, #39737	; 0x9b39
     4ec:	42b71702 	adcsmi	r1, r7, #524288	; 0x80000
     4f0:	19000017 	stmdbne	r0, {r0, r1, r2, r4}
     4f4:	1755010b 	ldrbne	r0, [r5, -fp, lsl #2]
     4f8:	00001301 	andeq	r1, r0, r1, lsl #6
     4fc:	11010b1a 	tstne	r1, sl, lsl fp
     500:	00061201 	andeq	r1, r6, r1, lsl #4
     504:	010b1b00 	tsteq	fp, r0, lsl #22
     508:	06120111 			; <UNDEFINED> instruction: 0x06120111
     50c:	00001301 	andeq	r1, r0, r1, lsl #6
     510:	00010b1c 	andeq	r0, r1, ip, lsl fp
     514:	011d1d00 	tsteq	sp, r0, lsl #26
     518:	01521331 	cmpeq	r2, r1, lsr r3
     51c:	110b42b8 			; <UNDEFINED> instruction: 0x110b42b8
     520:	58061201 	stmdapl	r6, {r0, r9, ip}
     524:	570b590b 	strpl	r5, [fp, -fp, lsl #18]
     528:	1e00000b 	cdpne	0, 0, cr0, cr0, cr11, {0}
     52c:	13310005 	teqne	r1, #5, 0
     530:	051f0000 	ldreq	r0, [pc, #-0]	; 538 <__code_start__-0x7ac8>
     534:	02133100 	andseq	r3, r3, #0
     538:	1742b717 	smlaldne	fp, r2, r7, r7
     53c:	34200000 	strtcc	r0, [r0], #-0
     540:	00133100 	andseq	r3, r3, r0, lsl #2
     544:	012e2100 			; <UNDEFINED> instruction: 0x012e2100
     548:	0e03193f 			; <UNDEFINED> instruction: 0x0e03193f
     54c:	0b3b0b3a 	bleq	ec323c <__bss_end__+0xeb9454>
     550:	19270b39 	stmdbne	r7!, {r0, r3, r4, r5, r8, r9, fp}
     554:	0b201349 	bleq	805280 <__bss_end__+0x7fb498>
     558:	00001301 	andeq	r1, r0, r1, lsl #6
     55c:	03000522 	movweq	r0, #1314	; 0x522
     560:	3b0b3a08 	blcc	2ced88 <__bss_end__+0x2c4fa0>
     564:	490b390b 	stmdbmi	fp, {r0, r1, r3, r8, fp, ip, sp}
     568:	23000013 	movwcs	r0, #19
     56c:	193f002e 	ldmdbne	pc!, {r1, r2, r3, r5}	; <UNPREDICTABLE>
     570:	0e6e193c 			; <UNDEFINED> instruction: 0x0e6e193c
     574:	0b3a0e03 	bleq	e83d88 <__bss_end__+0xe79fa0>
     578:	0b390b3b 	bleq	e4326c <__bss_end__+0xe39484>
     57c:	01000000 	mrseq	r0, (UNDEF: 0)
     580:	0e250111 	mcreq	1, 1, r0, cr5, cr1, {0}
     584:	0e030b13 	vmoveq.32	d3[0], r0
     588:	01110e1b 	tsteq	r1, fp, lsl lr
     58c:	17100612 			; <UNDEFINED> instruction: 0x17100612
     590:	16020000 	strne	r0, [r2], -r0
     594:	3a0e0300 	bcc	38119c <__bss_end__+0x3773b4>
     598:	390b3b0b 	stmdbcc	fp, {r0, r1, r3, r8, r9, fp, ip, sp}
     59c:	0013490b 	andseq	r4, r3, fp, lsl #18
     5a0:	01130300 	tsteq	r3, r0, lsl #6
     5a4:	0b0b0e03 	bleq	2c3db8 <__bss_end__+0x2b9fd0>
     5a8:	0b3b0b3a 	bleq	ec3298 <__bss_end__+0xeb94b0>
     5ac:	00001301 	andeq	r1, r0, r1, lsl #6
     5b0:	03000d04 	movweq	r0, #3332	; 0xd04
     5b4:	3813490e 	ldmdacc	r3, {r1, r2, r3, r8, fp, lr}
     5b8:	0019340b 	andseq	r3, r9, fp, lsl #8
     5bc:	000f0500 	andeq	r0, pc, r0, lsl #10
     5c0:	00000b0b 	andeq	r0, r0, fp, lsl #22
     5c4:	0b002406 	bleq	95e4 <FFT_SINE_LUT+0x204>
     5c8:	030b3e0b 	movweq	r3, #48651	; 0xbe0b
     5cc:	07000008 	streq	r0, [r0, -r8]
     5d0:	0b0b0024 	bleq	2c0668 <__bss_end__+0x2b6880>
     5d4:	0e030b3e 	vmoveq.16	d3[0], r0
     5d8:	15080000 	strne	r0, [r8, #-0]
     5dc:	49192701 	ldmdbmi	r9, {r0, r8, r9, sl, sp}
     5e0:	00130113 	andseq	r0, r3, r3, lsl r1
     5e4:	00050900 	andeq	r0, r5, r0, lsl #18
     5e8:	00001349 	andeq	r1, r0, r9, asr #6
     5ec:	0300340a 	movweq	r3, #1034	; 0x40a
     5f0:	3b0b3a0e 	blcc	2cee30 <__bss_end__+0x2c5048>
     5f4:	490b390b 	stmdbmi	fp, {r0, r1, r3, r8, fp, ip, sp}
     5f8:	3c193f13 	ldccc	15, cr3, [r9], {19}
     5fc:	0b000019 	bleq	668 <__code_start__-0x7998>
     600:	0b0b000f 	bleq	2c0644 <__bss_end__+0x2b685c>
     604:	00001349 	andeq	r1, r0, r9, asr #6
     608:	4900260c 	stmdbmi	r0, {r2, r3, r9, sl, sp}
     60c:	0d000013 	stceq	0, cr0, [r0, #-76]	; 0xffffffb4
     610:	193f012e 	ldmdbne	pc!, {r1, r2, r3, r5, r8}	; <UNPREDICTABLE>
     614:	0b3a0e03 	bleq	e83e28 <__bss_end__+0xe7a040>
     618:	0b390b3b 	bleq	e4330c <__bss_end__+0xe39524>
     61c:	13491927 	movtne	r1, #39207	; 0x9927
     620:	06120111 			; <UNDEFINED> instruction: 0x06120111
     624:	42971840 	addsmi	r1, r7, #64, 16	; 0x400000
     628:	00130119 	andseq	r0, r3, r9, lsl r1
     62c:	00050e00 	andeq	r0, r5, r0, lsl #28
     630:	0b3a0803 	bleq	e82644 <__bss_end__+0xe7885c>
     634:	0b390b3b 	bleq	e43328 <__bss_end__+0xe39540>
     638:	18021349 	stmdane	r2, {r0, r3, r6, r8, r9, ip}
     63c:	180f0000 	stmdane	pc, {}	; <UNPREDICTABLE>
     640:	10000000 	andne	r0, r0, r0
     644:	08030034 	stmdaeq	r3, {r2, r4, r5}
     648:	0b3b0b3a 	bleq	ec3338 <__bss_end__+0xeb9550>
     64c:	13490b39 	movtne	r0, #39737	; 0x9b39
     650:	00001802 	andeq	r1, r0, r2, lsl #16
     654:	03003411 	movweq	r3, #1041	; 0x411
     658:	3b0b3a0e 	blcc	2cee98 <__bss_end__+0x2c50b0>
     65c:	490b390b 	stmdbmi	fp, {r0, r1, r3, r8, fp, ip, sp}
     660:	00180213 	andseq	r0, r8, r3, lsl r2
     664:	00341200 	eorseq	r1, r4, r0, lsl #4
     668:	0b3a0803 	bleq	e8267c <__bss_end__+0xe78894>
     66c:	0b390b3b 	bleq	e43360 <__bss_end__+0xe39578>
     670:	17021349 	strne	r1, [r2, -r9, asr #6]
     674:	001742b7 			; <UNDEFINED> instruction: 0x001742b7
     678:	82891300 	addhi	r1, r9, #0, 6
     67c:	01110101 	tsteq	r1, r1, lsl #2
     680:	13011331 	movwne	r1, #4913	; 0x1331
     684:	8a140000 	bhi	50068c <__bss_end__+0x4f68a4>
     688:	02000182 	andeq	r0, r0, #-2147483616	; 0x80000020
     68c:	18429118 	stmdane	r2, {r3, r4, r8, ip, pc}^
     690:	89150000 	ldmdbhi	r5, {}	; <UNPREDICTABLE>
     694:	11010182 	smlabbne	r1, r2, r1, r0
     698:	16000001 	strne	r0, [r0], -r1
     69c:	13490101 	movtne	r0, #37121	; 0x9101
     6a0:	00001301 	andeq	r1, r0, r1, lsl #6
     6a4:	49002117 	stmdbmi	r0, {r0, r1, r2, r4, r8, sp}
     6a8:	00052f13 	andeq	r2, r5, r3, lsl pc
     6ac:	002e1800 	eoreq	r1, lr, r0, lsl #16
     6b0:	193c193f 	ldmdbne	ip!, {r0, r1, r2, r3, r4, r5, r8, fp, ip}
     6b4:	0e030e6e 	cdpeq	14, 0, cr0, cr3, cr14, {3}
     6b8:	0b3b0b3a 	bleq	ec33a8 <__bss_end__+0xeb95c0>
     6bc:	00000b39 	andeq	r0, r0, r9, lsr fp
     6c0:	01110100 	tsteq	r1, r0, lsl #2
     6c4:	0b130e25 	bleq	4c3f60 <__bss_end__+0x4ba178>
     6c8:	0e1b0e03 	cdpeq	14, 1, cr0, cr11, cr3, {0}
     6cc:	06120111 			; <UNDEFINED> instruction: 0x06120111
     6d0:	00001710 	andeq	r1, r0, r0, lsl r7
     6d4:	0b002402 	bleq	96e4 <FFT_SINE_LUT+0x304>
     6d8:	030b3e0b 	movweq	r3, #48651	; 0xbe0b
     6dc:	03000008 	movweq	r0, #8
     6e0:	0b0b0024 	bleq	2c0778 <__bss_end__+0x2b6990>
     6e4:	0e030b3e 	vmoveq.16	d3[0], r0
     6e8:	15040000 	strne	r0, [r4, #-0]
     6ec:	49192701 	ldmdbmi	r9, {r0, r8, r9, sl, sp}
     6f0:	00130113 	andseq	r0, r3, r3, lsl r1
     6f4:	00050500 	andeq	r0, r5, r0, lsl #10
     6f8:	00001349 	andeq	r1, r0, r9, asr #6
     6fc:	03003406 	movweq	r3, #1030	; 0x406
     700:	3b0b3a0e 	blcc	2cef40 <__bss_end__+0x2c5158>
     704:	490b390b 	stmdbmi	fp, {r0, r1, r3, r8, fp, ip, sp}
     708:	3c193f13 	ldccc	15, cr3, [r9], {19}
     70c:	07000019 	smladeq	r0, r9, r0, r0
     710:	0b0b000f 	bleq	2c0754 <__bss_end__+0x2b696c>
     714:	00001349 	andeq	r1, r0, r9, asr #6
     718:	49002608 	stmdbmi	r0, {r3, r9, sl, sp}
     71c:	09000013 	stmdbeq	r0, {r0, r1, r4}
     720:	13470034 	movtne	r0, #28724	; 0x7034
     724:	0b3b0b3a 	bleq	ec3414 <__bss_end__+0xeb962c>
     728:	18020b39 	stmdane	r2, {r0, r3, r4, r5, r8, r9, fp}
     72c:	2e0a0000 	cdpcs	0, 0, cr0, cr10, cr0, {0}
     730:	03193f01 	tsteq	r9, #1, 30
     734:	3b0b3a0e 	blcc	2cef74 <__bss_end__+0x2c518c>
     738:	270b390b 	strcs	r3, [fp, -fp, lsl #18]
     73c:	11134919 	tstne	r3, r9, lsl r9
     740:	40061201 	andmi	r1, r6, r1, lsl #4
     744:	19429618 	stmdbne	r2, {r3, r4, r9, sl, ip, pc}^
     748:	050b0000 	streq	r0, [fp, #-0]
     74c:	3a080300 	bcc	201354 <__bss_end__+0x1f756c>
     750:	390b3b0b 	stmdbcc	fp, {r0, r1, r3, r8, r9, fp, ip, sp}
     754:	0213490b 	andseq	r4, r3, #180224	; 0x2c000
     758:	1742b717 	smlaldne	fp, r2, r7, r7
     75c:	01000000 	mrseq	r0, (UNDEF: 0)
     760:	0e250111 	mcreq	1, 1, r0, cr5, cr1, {0}
     764:	0e030b13 	vmoveq.32	d3[0], r0
     768:	01110e1b 	tsteq	r1, fp, lsl lr
     76c:	17100612 			; <UNDEFINED> instruction: 0x17100612
     770:	24020000 	strcs	r0, [r2], #-0
     774:	3e0b0b00 	vmlacc.f64	d0, d11, d0
     778:	0008030b 	andeq	r0, r8, fp, lsl #6
     77c:	00240300 	eoreq	r0, r4, r0, lsl #6
     780:	0b3e0b0b 	bleq	f833b4 <__bss_end__+0xf795cc>
     784:	00000e03 	andeq	r0, r0, r3, lsl #28
     788:	03001604 	movweq	r1, #1540	; 0x604
     78c:	3b0b3a0e 	blcc	2cefcc <__bss_end__+0x2c51e4>
     790:	490b390b 	stmdbmi	fp, {r0, r1, r3, r8, fp, ip, sp}
     794:	05000013 	streq	r0, [r0, #-19]	; 0xffffffed
     798:	19270115 	stmdbne	r7!, {r0, r2, r4, r8}
     79c:	13011349 	movwne	r1, #4937	; 0x1349
     7a0:	05060000 	streq	r0, [r6, #-0]
     7a4:	00134900 	andseq	r4, r3, r0, lsl #18
     7a8:	00340700 	eorseq	r0, r4, r0, lsl #14
     7ac:	0b3a0e03 	bleq	e83fc0 <__bss_end__+0xe7a1d8>
     7b0:	0b390b3b 	bleq	e434a4 <__bss_end__+0xe396bc>
     7b4:	193f1349 	ldmdbne	pc!, {r0, r3, r6, r8, r9, ip}	; <UNPREDICTABLE>
     7b8:	0000193c 	andeq	r1, r0, ip, lsr r9
     7bc:	0b000f08 	bleq	43e4 <__code_start__-0x3c1c>
     7c0:	0013490b 	andseq	r4, r3, fp, lsl #18
     7c4:	00260900 	eoreq	r0, r6, r0, lsl #18
     7c8:	00001349 	andeq	r1, r0, r9, asr #6
     7cc:	0301130a 	movweq	r1, #4874	; 0x130a
     7d0:	3a0b0b0e 	bcc	2c3410 <__bss_end__+0x2b9628>
     7d4:	010b3b0b 	tsteq	fp, fp, lsl #22
     7d8:	0b000013 	bleq	82c <__code_start__-0x77d4>
     7dc:	0e03000d 	cdpeq	0, 0, cr0, cr3, cr13, {0}
     7e0:	0b381349 	bleq	e0550c <__bss_end__+0xdfb724>
     7e4:	00001934 	andeq	r1, r0, r4, lsr r9
     7e8:	0b000f0c 	bleq	4420 <__code_start__-0x3be0>
     7ec:	0d00000b 	stceq	0, cr0, [r0, #-44]	; 0xffffffd4
     7f0:	193f012e 	ldmdbne	pc!, {r1, r2, r3, r5, r8}	; <UNPREDICTABLE>
     7f4:	0b3a0e03 	bleq	e84008 <__bss_end__+0xe7a220>
     7f8:	0b390b3b 	bleq	e434ec <__bss_end__+0xe39704>
     7fc:	13491927 	movtne	r1, #39207	; 0x9927
     800:	06120111 			; <UNDEFINED> instruction: 0x06120111
     804:	42971840 	addsmi	r1, r7, #64, 16	; 0x400000
     808:	00130119 	andseq	r0, r3, r9, lsl r1
     80c:	00050e00 	andeq	r0, r5, r0, lsl #28
     810:	0b3a0803 	bleq	e82824 <__bss_end__+0xe78a3c>
     814:	0b390b3b 	bleq	e43508 <__bss_end__+0xe39720>
     818:	17021349 	strne	r1, [r2, -r9, asr #6]
     81c:	001742b7 			; <UNDEFINED> instruction: 0x001742b7
     820:	00050f00 	andeq	r0, r5, r0, lsl #30
     824:	0b3a0e03 	bleq	e84038 <__bss_end__+0xe7a250>
     828:	0b390b3b 	bleq	e4351c <__bss_end__+0xe39734>
     82c:	18021349 	stmdane	r2, {r0, r3, r6, r8, r9, ip}
     830:	34100000 	ldrcc	r0, [r0], #-0
     834:	3a080300 	bcc	20143c <__bss_end__+0x1f7654>
     838:	390b3b0b 	stmdbcc	fp, {r0, r1, r3, r8, r9, fp, ip, sp}
     83c:	0213490b 	andseq	r4, r3, #180224	; 0x2c000
     840:	1742b717 	smlaldne	fp, r2, r7, r7
     844:	34110000 	ldrcc	r0, [r1], #-0
     848:	3a0e0300 	bcc	381450 <__bss_end__+0x377668>
     84c:	390b3b0b 	stmdbcc	fp, {r0, r1, r3, r8, r9, fp, ip, sp}
     850:	0213490b 	andseq	r4, r3, #180224	; 0x2c000
     854:	1742b717 	smlaldne	fp, r2, r7, r7
     858:	34120000 	ldrcc	r0, [r2], #-0
     85c:	490e0300 	stmdbmi	lr, {r8, r9}
     860:	02193413 	andseq	r3, r9, #318767104	; 0x13000000
     864:	13000018 	movwne	r0, #24
     868:	0111010b 	tsteq	r1, fp, lsl #2
     86c:	00000612 	andeq	r0, r0, r2, lsl r6
     870:	03003414 	movweq	r3, #1044	; 0x414
     874:	3b0b3a08 	blcc	2cf09c <__bss_end__+0x2c52b4>
     878:	490b390b 	stmdbmi	fp, {r0, r1, r3, r8, fp, ip, sp}
     87c:	00180213 	andseq	r0, r8, r3, lsl r2
     880:	00341500 	eorseq	r1, r4, r0, lsl #10
     884:	0b3a0e03 	bleq	e84098 <__bss_end__+0xe7a2b0>
     888:	0b390b3b 	bleq	e4357c <__bss_end__+0xe39794>
     88c:	18021349 	stmdane	r2, {r0, r3, r6, r8, r9, ip}
     890:	0b160000 	bleq	580898 <__bss_end__+0x576ab0>
     894:	12011101 	andne	r1, r1, #1073741824	; 0x40000000
     898:	00130106 	andseq	r0, r3, r6, lsl #2
     89c:	00341700 	eorseq	r1, r4, r0, lsl #14
     8a0:	0b3a0803 	bleq	e828b4 <__bss_end__+0xe78acc>
     8a4:	0b390b3b 	bleq	e43598 <__bss_end__+0xe397b0>
     8a8:	00001349 	andeq	r1, r0, r9, asr #6
     8ac:	01828918 	orreq	r8, r2, r8, lsl r9
     8b0:	31011101 	tstcc	r1, r1, lsl #2
     8b4:	00130113 	andseq	r0, r3, r3, lsl r1
     8b8:	828a1900 	addhi	r1, sl, #0, 18
     8bc:	18020001 	stmdane	r2, {r0}
     8c0:	00184291 	mulseq	r8, r1, r2
     8c4:	82891a00 	addhi	r1, r9, #0, 20
     8c8:	01110001 	tsteq	r1, r1
     8cc:	00001331 	andeq	r1, r0, r1, lsr r3
     8d0:	0182891b 	orreq	r8, r2, fp, lsl r9
     8d4:	01011101 	tsteq	r1, r1, lsl #2
     8d8:	1c000013 	stcne	0, cr0, [r0], {19}
     8dc:	13490101 	movtne	r0, #37121	; 0x9101
     8e0:	00001301 	andeq	r1, r0, r1, lsl #6
     8e4:	4900211d 	stmdbmi	r0, {r0, r2, r3, r4, r8, sp}
     8e8:	000b2f13 	andeq	r2, fp, r3, lsl pc
     8ec:	012e1e00 			; <UNDEFINED> instruction: 0x012e1e00
     8f0:	0b3a0e03 	bleq	e84104 <__bss_end__+0xe7a31c>
     8f4:	0b390b3b 	bleq	e435e8 <__bss_end__+0xe39800>
     8f8:	13491927 	movtne	r1, #39207	; 0x9927
     8fc:	06120111 			; <UNDEFINED> instruction: 0x06120111
     900:	42971840 	addsmi	r1, r7, #64, 16	; 0x400000
     904:	00130119 	andseq	r0, r3, r9, lsl r1
     908:	00051f00 	andeq	r1, r5, r0, lsl #30
     90c:	0b3a0e03 	bleq	e84120 <__bss_end__+0xe7a338>
     910:	0b390b3b 	bleq	e43604 <__bss_end__+0xe3981c>
     914:	17021349 	strne	r1, [r2, -r9, asr #6]
     918:	001742b7 			; <UNDEFINED> instruction: 0x001742b7
     91c:	012e2000 			; <UNDEFINED> instruction: 0x012e2000
     920:	0b3a0803 	bleq	e82934 <__bss_end__+0xe78b4c>
     924:	0b390b3b 	bleq	e43618 <__bss_end__+0xe39830>
     928:	13491927 	movtne	r1, #39207	; 0x9927
     92c:	06120111 			; <UNDEFINED> instruction: 0x06120111
     930:	42971840 	addsmi	r1, r7, #64, 16	; 0x400000
     934:	00130119 	andseq	r0, r3, r9, lsl r1
     938:	012e2100 			; <UNDEFINED> instruction: 0x012e2100
     93c:	0e03193f 			; <UNDEFINED> instruction: 0x0e03193f
     940:	0b3b0b3a 	bleq	ec3630 <__bss_end__+0xeb9848>
     944:	19270b39 	stmdbne	r7!, {r0, r3, r4, r5, r8, r9, fp}
     948:	06120111 			; <UNDEFINED> instruction: 0x06120111
     94c:	42971840 	addsmi	r1, r7, #64, 16	; 0x400000
     950:	00130119 	andseq	r0, r3, r9, lsl r1
     954:	002e2200 	eoreq	r2, lr, r0, lsl #4
     958:	193c193f 	ldmdbne	ip!, {r0, r1, r2, r3, r4, r5, r8, fp, ip}
     95c:	0e030e6e 	cdpeq	14, 0, cr0, cr3, cr14, {3}
     960:	0b3b0b3a 	bleq	ec3650 <__bss_end__+0xeb9868>
     964:	00000b39 	andeq	r0, r0, r9, lsr fp
     968:	01110100 	tsteq	r1, r0, lsl #2
     96c:	0b130e25 	bleq	4c4208 <__bss_end__+0x4ba420>
     970:	0e1b0e03 	cdpeq	14, 1, cr0, cr11, cr3, {0}
     974:	01111755 	tsteq	r1, r5, asr r7
     978:	00001710 	andeq	r1, r0, r0, lsl r7
     97c:	0b002402 	bleq	998c <FFT_SINE_LUT+0x5ac>
     980:	030b3e0b 	movweq	r3, #48651	; 0xbe0b
     984:	03000008 	movweq	r0, #8
     988:	0b0b0024 	bleq	2c0a20 <__bss_end__+0x2b6c38>
     98c:	0e030b3e 	vmoveq.16	d3[0], r0
     990:	15040000 	strne	r0, [r4, #-0]
     994:	49192701 	ldmdbmi	r9, {r0, r8, r9, sl, sp}
     998:	00130113 	andseq	r0, r3, r3, lsl r1
     99c:	00050500 	andeq	r0, r5, r0, lsl #10
     9a0:	00001349 	andeq	r1, r0, r9, asr #6
     9a4:	03003406 	movweq	r3, #1030	; 0x406
     9a8:	3b0b3a0e 	blcc	2cf1e8 <__bss_end__+0x2c5400>
     9ac:	490b390b 	stmdbmi	fp, {r0, r1, r3, r8, fp, ip, sp}
     9b0:	3c193f13 	ldccc	15, cr3, [r9], {19}
     9b4:	07000019 	smladeq	r0, r9, r0, r0
     9b8:	0b0b000f 	bleq	2c09fc <__bss_end__+0x2b6c14>
     9bc:	00001349 	andeq	r1, r0, r9, asr #6
     9c0:	49002608 	stmdbmi	r0, {r3, r9, sl, sp}
     9c4:	09000013 	stmdbeq	r0, {r0, r1, r4}
     9c8:	193f012e 	ldmdbne	pc!, {r1, r2, r3, r5, r8}	; <UNPREDICTABLE>
     9cc:	0b3a0e03 	bleq	e841e0 <__bss_end__+0xe7a3f8>
     9d0:	0b390b3b 	bleq	e436c4 <__bss_end__+0xe398dc>
     9d4:	01111927 	tsteq	r1, r7, lsr #18
     9d8:	18400612 	stmdane	r0, {r1, r4, r9, sl}^
     9dc:	01194297 			; <UNDEFINED> instruction: 0x01194297
     9e0:	0a000013 	beq	a34 <__code_start__-0x75cc>
     9e4:	08030034 	stmdaeq	r3, {r2, r4, r5}
     9e8:	0b3b0b3a 	bleq	ec36d8 <__bss_end__+0xeb98f0>
     9ec:	13490b39 	movtne	r0, #39737	; 0x9b39
     9f0:	42b71702 	adcsmi	r1, r7, #524288	; 0x80000
     9f4:	0b000017 	bleq	a58 <__code_start__-0x75a8>
     9f8:	193f012e 	ldmdbne	pc!, {r1, r2, r3, r5, r8}	; <UNPREDICTABLE>
     9fc:	0b3a0e03 	bleq	e84210 <__bss_end__+0xe7a428>
     a00:	0b390b3b 	bleq	e436f4 <__bss_end__+0xe3990c>
     a04:	01111927 	tsteq	r1, r7, lsr #18
     a08:	18400612 	stmdane	r0, {r1, r4, r9, sl}^
     a0c:	00194297 	mulseq	r9, r7, r2
     a10:	11010000 	mrsne	r0, (UNDEF: 1)
     a14:	130e2501 	movwne	r2, #58625	; 0xe501
     a18:	1b0e030b 	blne	38164c <__bss_end__+0x377864>
     a1c:	1201110e 	andne	r1, r1, #-2147483645	; 0x80000003
     a20:	00171006 	andseq	r1, r7, r6
     a24:	00240200 	eoreq	r0, r4, r0, lsl #4
     a28:	0b3e0b0b 	bleq	f8365c <__bss_end__+0xf79874>
     a2c:	00000803 	andeq	r0, r0, r3, lsl #16
     a30:	0b002403 	bleq	9a44 <__data_end__+0x5c>
     a34:	030b3e0b 	movweq	r3, #48651	; 0xbe0b
     a38:	0400000e 	streq	r0, [r0], #-14
     a3c:	19270115 	stmdbne	r7!, {r0, r2, r4, r8}
     a40:	13011349 	movwne	r1, #4937	; 0x1349
     a44:	05050000 	streq	r0, [r5, #-0]
     a48:	00134900 	andseq	r4, r3, r0, lsl #18
     a4c:	00340600 	eorseq	r0, r4, r0, lsl #12
     a50:	0b3a0e03 	bleq	e84264 <__bss_end__+0xe7a47c>
     a54:	0b390b3b 	bleq	e43748 <__bss_end__+0xe39960>
     a58:	193f1349 	ldmdbne	pc!, {r0, r3, r6, r8, r9, ip}	; <UNPREDICTABLE>
     a5c:	0000193c 	andeq	r1, r0, ip, lsr r9
     a60:	0b000f07 	bleq	4684 <__code_start__-0x397c>
     a64:	0013490b 	andseq	r4, r3, fp, lsl #18
     a68:	00260800 	eoreq	r0, r6, r0, lsl #16
     a6c:	00001349 	andeq	r1, r0, r9, asr #6
     a70:	3f012e09 	svccc	0x00012e09
     a74:	3a0e0319 	bcc	3816e0 <__bss_end__+0x3778f8>
     a78:	390b3b0b 	stmdbcc	fp, {r0, r1, r3, r8, r9, fp, ip, sp}
     a7c:	8719270b 	ldrhi	r2, [r9, -fp, lsl #14]
     a80:	01111901 	tsteq	r1, r1, lsl #18
     a84:	18400612 	stmdane	r0, {r1, r4, r9, sl}^
     a88:	01194297 			; <UNDEFINED> instruction: 0x01194297
     a8c:	0a000013 	beq	ae0 <__code_start__-0x7520>
     a90:	01018289 	smlabbeq	r1, r9, r2, r8
     a94:	13010111 	movwne	r0, #4369	; 0x1111
     a98:	8a0b0000 	bhi	2c0aa0 <__bss_end__+0x2b6cb8>
     a9c:	02000182 	andeq	r0, r0, #-2147483616	; 0x80000020
     aa0:	18429118 	stmdane	r2, {r3, r4, r8, ip, pc}^
     aa4:	890c0000 	stmdbhi	ip, {}	; <UNPREDICTABLE>
     aa8:	11000182 	smlabbne	r0, r2, r1, r0
     aac:	00133101 	andseq	r3, r3, r1, lsl #2
     ab0:	82890d00 	addhi	r0, r9, #0, 26
     ab4:	01110101 	tsteq	r1, r1, lsl #2
     ab8:	13011331 	movwne	r1, #4913	; 0x1331
     abc:	2e0e0000 	cdpcs	0, 0, cr0, cr14, cr0, {0}
     ac0:	3c193f00 	ldccc	15, cr3, [r9], {-0}
     ac4:	030e6e19 	movweq	r6, #60953	; 0xee19
     ac8:	3b0b3a0e 	blcc	2cf308 <__bss_end__+0x2c5520>
     acc:	000b390b 	andeq	r3, fp, fp, lsl #18
     ad0:	11010000 	mrsne	r0, (UNDEF: 1)
     ad4:	130e2501 	movwne	r2, #58625	; 0xe501
     ad8:	1b0e030b 	blne	38170c <__bss_end__+0x377924>
     adc:	1201110e 	andne	r1, r1, #-2147483645	; 0x80000003
     ae0:	00171006 	andseq	r1, r7, r6
     ae4:	00240200 	eoreq	r0, r4, r0, lsl #4
     ae8:	0b3e0b0b 	bleq	f8371c <__bss_end__+0xf79934>
     aec:	00000803 	andeq	r0, r0, r3, lsl #16
     af0:	0b002403 	bleq	9b04 <__data_end__+0x11c>
     af4:	030b3e0b 	movweq	r3, #48651	; 0xbe0b
     af8:	0400000e 	streq	r0, [r0], #-14
     afc:	19270115 	stmdbne	r7!, {r0, r2, r4, r8}
     b00:	13011349 	movwne	r1, #4937	; 0x1349
     b04:	05050000 	streq	r0, [r5, #-0]
     b08:	00134900 	andseq	r4, r3, r0, lsl #18
     b0c:	00340600 	eorseq	r0, r4, r0, lsl #12
     b10:	0b3a0e03 	bleq	e84324 <__bss_end__+0xe7a53c>
     b14:	0b390b3b 	bleq	e43808 <__bss_end__+0xe39a20>
     b18:	193f1349 	ldmdbne	pc!, {r0, r3, r6, r8, r9, ip}	; <UNPREDICTABLE>
     b1c:	0000193c 	andeq	r1, r0, ip, lsr r9
     b20:	0b000f07 	bleq	4744 <__code_start__-0x38bc>
     b24:	0013490b 	andseq	r4, r3, fp, lsl #18
     b28:	00260800 	eoreq	r0, r6, r0, lsl #16
     b2c:	00001349 	andeq	r1, r0, r9, asr #6
     b30:	3f012e09 	svccc	0x00012e09
     b34:	3a0e0319 	bcc	3817a0 <__bss_end__+0x3779b8>
     b38:	390b3b0b 	stmdbcc	fp, {r0, r1, r3, r8, r9, fp, ip, sp}
     b3c:	1201110b 	andne	r1, r1, #-1073741822	; 0xc0000002
     b40:	97184006 	ldrls	r4, [r8, -r6]
     b44:	13011942 	movwne	r1, #6466	; 0x1942
     b48:	2e0a0000 	cdpcs	0, 0, cr0, cr10, cr0, {0}
     b4c:	03193f00 	tsteq	r9, #0, 30
     b50:	3b0b3a0e 	blcc	2cf390 <__bss_end__+0x2c55a8>
     b54:	270b390b 	strcs	r3, [fp, -fp, lsl #18]
     b58:	00193c19 	andseq	r3, r9, r9, lsl ip
     b5c:	00340b00 	eorseq	r0, r4, r0, lsl #22
     b60:	0b3a0803 	bleq	e82b74 <__bss_end__+0xe78d8c>
     b64:	0b390b3b 	bleq	e43858 <__bss_end__+0xe39a70>
     b68:	17021349 	strne	r1, [r2, -r9, asr #6]
     b6c:	001742b7 			; <UNDEFINED> instruction: 0x001742b7
     b70:	00340c00 	eorseq	r0, r4, r0, lsl #24
     b74:	0b3a0e03 	bleq	e84388 <__bss_end__+0xe7a5a0>
     b78:	0b390b3b 	bleq	e4386c <__bss_end__+0xe39a84>
     b7c:	00001349 	andeq	r1, r0, r9, asr #6
     b80:	11010b0d 	tstne	r1, sp, lsl #22
     b84:	01061201 	tsteq	r6, r1, lsl #4
     b88:	0e000013 	mcreq	0, 0, r0, cr0, cr3, {0}
     b8c:	08030034 	stmdaeq	r3, {r2, r4, r5}
     b90:	0b3b0b3a 	bleq	ec3880 <__bss_end__+0xeb9a98>
     b94:	13490b39 	movtne	r0, #39737	; 0x9b39
     b98:	00000b1c 	andeq	r0, r0, ip, lsl fp
     b9c:	0182890f 	orreq	r8, r2, pc, lsl #18
     ba0:	31011100 	mrscc	r1, (UNDEF: 17)
     ba4:	10000013 	andne	r0, r0, r3, lsl r0
     ba8:	193f002e 	ldmdbne	pc!, {r1, r2, r3, r5}	; <UNPREDICTABLE>
     bac:	0e6e193c 			; <UNDEFINED> instruction: 0x0e6e193c
     bb0:	0b3a0e03 	bleq	e843c4 <__bss_end__+0xe7a5dc>
     bb4:	0b39053b 	bleq	e420a8 <__bss_end__+0xe382c0>
     bb8:	2e110000 	cdpcs	0, 1, cr0, cr1, cr0, {0}
     bbc:	3c193f00 	ldccc	15, cr3, [r9], {-0}
     bc0:	030e6e19 	movweq	r6, #60953	; 0xee19
     bc4:	3b0b3a0e 	blcc	2cf404 <__bss_end__+0x2c561c>
     bc8:	000b390b 	andeq	r3, fp, fp, lsl #18
     bcc:	11010000 	mrsne	r0, (UNDEF: 1)
     bd0:	130e2501 	movwne	r2, #58625	; 0xe501
     bd4:	1b0e030b 	blne	381808 <__bss_end__+0x377a20>
     bd8:	1201110e 	andne	r1, r1, #-2147483645	; 0x80000003
     bdc:	00171006 	andseq	r1, r7, r6
     be0:	00240200 	eoreq	r0, r4, r0, lsl #4
     be4:	0b3e0b0b 	bleq	f83818 <__bss_end__+0xf79a30>
     be8:	00000803 	andeq	r0, r0, r3, lsl #16
     bec:	0b002403 	bleq	9c00 <__data_end__+0x218>
     bf0:	030b3e0b 	movweq	r3, #48651	; 0xbe0b
     bf4:	0400000e 	streq	r0, [r0], #-14
     bf8:	19270115 	stmdbne	r7!, {r0, r2, r4, r8}
     bfc:	13011349 	movwne	r1, #4937	; 0x1349
     c00:	05050000 	streq	r0, [r5, #-0]
     c04:	00134900 	andseq	r4, r3, r0, lsl #18
     c08:	00340600 	eorseq	r0, r4, r0, lsl #12
     c0c:	0b3a0e03 	bleq	e84420 <__bss_end__+0xe7a638>
     c10:	0b390b3b 	bleq	e43904 <__bss_end__+0xe39b1c>
     c14:	193f1349 	ldmdbne	pc!, {r0, r3, r6, r8, r9, ip}	; <UNPREDICTABLE>
     c18:	0000193c 	andeq	r1, r0, ip, lsr r9
     c1c:	0b000f07 	bleq	4840 <__code_start__-0x37c0>
     c20:	0013490b 	andseq	r4, r3, fp, lsl #18
     c24:	00260800 	eoreq	r0, r6, r0, lsl #16
     c28:	00001349 	andeq	r1, r0, r9, asr #6
     c2c:	3f002e09 	svccc	0x00002e09
     c30:	3a0e0319 	bcc	38189c <__bss_end__+0x377ab4>
     c34:	390b3b0b 	stmdbcc	fp, {r0, r1, r3, r8, r9, fp, ip, sp}
     c38:	1119270b 	tstne	r9, fp, lsl #14
     c3c:	40061201 	andmi	r1, r6, r1, lsl #4
     c40:	19429718 	stmdbne	r2, {r3, r4, r8, r9, sl, ip, pc}^
     c44:	01000000 	mrseq	r0, (UNDEF: 0)
     c48:	0e250111 	mcreq	1, 1, r0, cr5, cr1, {0}
     c4c:	0e030b13 	vmoveq.32	d3[0], r0
     c50:	17550e1b 	smmlane	r5, fp, lr, r0
     c54:	17100111 			; <UNDEFINED> instruction: 0x17100111
     c58:	24020000 	strcs	r0, [r2], #-0
     c5c:	3e0b0b00 	vmlacc.f64	d0, d11, d0
     c60:	0008030b 	andeq	r0, r8, fp, lsl #6
     c64:	00260300 	eoreq	r0, r6, r0, lsl #6
     c68:	00001349 	andeq	r1, r0, r9, asr #6
     c6c:	0b002404 	bleq	9c84 <__data_end__+0x29c>
     c70:	030b3e0b 	movweq	r3, #48651	; 0xbe0b
     c74:	0500000e 	streq	r0, [r0, #-14]
     c78:	19270115 	stmdbne	r7!, {r0, r2, r4, r8}
     c7c:	13011349 	movwne	r1, #4937	; 0x1349
     c80:	05060000 	streq	r0, [r6, #-0]
     c84:	00134900 	andseq	r4, r3, r0, lsl #18
     c88:	00340700 	eorseq	r0, r4, r0, lsl #14
     c8c:	0b3a0e03 	bleq	e844a0 <__bss_end__+0xe7a6b8>
     c90:	0b390b3b 	bleq	e43984 <__bss_end__+0xe39b9c>
     c94:	193f1349 	ldmdbne	pc!, {r0, r3, r6, r8, r9, ip}	; <UNPREDICTABLE>
     c98:	0000193c 	andeq	r1, r0, ip, lsr r9
     c9c:	0b000f08 	bleq	48c4 <__code_start__-0x373c>
     ca0:	0013490b 	andseq	r4, r3, fp, lsl #18
     ca4:	00340900 	eorseq	r0, r4, r0, lsl #18
     ca8:	0b3a0e03 	bleq	e844bc <__bss_end__+0xe7a6d4>
     cac:	0b390b3b 	bleq	e439a0 <__bss_end__+0xe39bb8>
     cb0:	00001349 	andeq	r1, r0, r9, asr #6
     cb4:	3f012e0a 	svccc	0x00012e0a
     cb8:	3a0e0319 	bcc	381924 <__bss_end__+0x377b3c>
     cbc:	390b3b0b 	stmdbcc	fp, {r0, r1, r3, r8, r9, fp, ip, sp}
     cc0:	8719270b 	ldrhi	r2, [r9, -fp, lsl #14]
     cc4:	01111901 	tsteq	r1, r1, lsl #18
     cc8:	18400612 	stmdane	r0, {r1, r4, r9, sl}^
     ccc:	01194297 			; <UNDEFINED> instruction: 0x01194297
     cd0:	0b000013 	bleq	d24 <__code_start__-0x72dc>
     cd4:	0e030034 	mcreq	0, 0, r0, cr3, cr4, {1}
     cd8:	0b3b0b3a 	bleq	ec39c8 <__bss_end__+0xeb9be0>
     cdc:	13490b39 	movtne	r0, #39737	; 0x9b39
     ce0:	42b71702 	adcsmi	r1, r7, #524288	; 0x80000
     ce4:	0c000017 	stceq	0, cr0, [r0], {23}
     ce8:	00018289 	andeq	r8, r1, r9, lsl #5
     cec:	13310111 	teqne	r1, #1073741828	; 0x40000004
     cf0:	890d0000 	stmdbhi	sp, {}	; <UNPREDICTABLE>
     cf4:	11010182 	smlabbne	r1, r2, r1, r0
     cf8:	01133101 	tsteq	r3, r1, lsl #2
     cfc:	0e000013 	mcreq	0, 0, r0, cr0, cr3, {0}
     d00:	0001828a 	andeq	r8, r1, sl, lsl #5
     d04:	42911802 	addsmi	r1, r1, #131072	; 0x20000
     d08:	0f000018 	svceq	0x00000018
     d0c:	193f012e 	ldmdbne	pc!, {r1, r2, r3, r5, r8}	; <UNPREDICTABLE>
     d10:	0b3a0e03 	bleq	e84524 <__bss_end__+0xe7a73c>
     d14:	0b390b3b 	bleq	e43a08 <__bss_end__+0xe39c20>
     d18:	01111927 	tsteq	r1, r7, lsr #18
     d1c:	18400612 	stmdane	r0, {r1, r4, r9, sl}^
     d20:	01194297 			; <UNDEFINED> instruction: 0x01194297
     d24:	10000013 	andne	r0, r0, r3, lsl r0
     d28:	193f012e 	ldmdbne	pc!, {r1, r2, r3, r5, r8}	; <UNPREDICTABLE>
     d2c:	0b3a0e03 	bleq	e84540 <__bss_end__+0xe7a758>
     d30:	0b390b3b 	bleq	e43a24 <__bss_end__+0xe39c3c>
     d34:	13491927 	movtne	r1, #39207	; 0x9927
     d38:	06120111 			; <UNDEFINED> instruction: 0x06120111
     d3c:	42971840 	addsmi	r1, r7, #64, 16	; 0x400000
     d40:	00130119 	andseq	r0, r3, r9, lsl r1
     d44:	002e1100 	eoreq	r1, lr, r0, lsl #2
     d48:	193c193f 	ldmdbne	ip!, {r0, r1, r2, r3, r4, r5, r8, fp, ip}
     d4c:	0e030e6e 	cdpeq	14, 0, cr0, cr3, cr14, {3}
     d50:	053b0b3a 	ldreq	r0, [fp, #-2874]!	; 0xfffff4c6
     d54:	00000b39 	andeq	r0, r0, r9, lsr fp
     d58:	3f002e12 	svccc	0x00002e12
     d5c:	6e193c19 	mrcvs	12, 0, r3, cr9, cr9, {0}
     d60:	3a0e030e 	bcc	3819a0 <__bss_end__+0x377bb8>
     d64:	390b3b0b 	stmdbcc	fp, {r0, r1, r3, r8, r9, fp, ip, sp}
     d68:	0000000b 	andeq	r0, r0, fp
     d6c:	25011101 	strcs	r1, [r1, #-257]	; 0xfffffeff
     d70:	030b130e 	movweq	r1, #45838	; 0xb30e
     d74:	110e1b0e 	tstne	lr, lr, lsl #22
     d78:	10061201 	andne	r1, r6, r1, lsl #4
     d7c:	02000017 	andeq	r0, r0, #23, 0
     d80:	0b0b0024 	bleq	2c0e18 <__bss_end__+0x2b7030>
     d84:	08030b3e 	stmdaeq	r3, {r1, r2, r3, r4, r5, r8, r9, fp}
     d88:	24030000 	strcs	r0, [r3], #-0
     d8c:	3e0b0b00 	vmlacc.f64	d0, d11, d0
     d90:	000e030b 	andeq	r0, lr, fp, lsl #6
     d94:	01150400 	tsteq	r5, r0, lsl #8
     d98:	13491927 	movtne	r1, #39207	; 0x9927
     d9c:	00001301 	andeq	r1, r0, r1, lsl #6
     da0:	49000505 	stmdbmi	r0, {r0, r2, r8, sl}
     da4:	06000013 			; <UNDEFINED> instruction: 0x06000013
     da8:	0e030034 	mcreq	0, 0, r0, cr3, cr4, {1}
     dac:	0b3b0b3a 	bleq	ec3a9c <__bss_end__+0xeb9cb4>
     db0:	13490b39 	movtne	r0, #39737	; 0x9b39
     db4:	193c193f 	ldmdbne	ip!, {r0, r1, r2, r3, r4, r5, r8, fp, ip}
     db8:	0f070000 	svceq	0x00070000
     dbc:	490b0b00 	stmdbmi	fp, {r8, r9, fp}
     dc0:	08000013 	stmdaeq	r0, {r0, r1, r4}
     dc4:	13490026 	movtne	r0, #36902	; 0x9026
     dc8:	2e090000 	cdpcs	0, 0, cr0, cr9, cr0, {0}
     dcc:	03193f01 	tsteq	r9, #1, 30
     dd0:	3b0b3a0e 	blcc	2cf610 <__bss_end__+0x2c5828>
     dd4:	270b390b 	strcs	r3, [fp, -fp, lsl #18]
     dd8:	12011119 	andne	r1, r1, #1073741830	; 0x40000006
     ddc:	97184006 	ldrls	r4, [r8, -r6]
     de0:	13011942 	movwne	r1, #6466	; 0x1942
     de4:	050a0000 	streq	r0, [sl, #-0]
     de8:	3a080300 	bcc	2019f0 <__bss_end__+0x1f7c08>
     dec:	390b3b0b 	stmdbcc	fp, {r0, r1, r3, r8, r9, fp, ip, sp}
     df0:	0213490b 	andseq	r4, r3, #180224	; 0x2c000
     df4:	1742b717 	smlaldne	fp, r2, r7, r7
     df8:	890b0000 	stmdbhi	fp, {}	; <UNPREDICTABLE>
     dfc:	11010182 	smlabbne	r1, r2, r1, r0
     e00:	00133101 	andseq	r3, r3, r1, lsl #2
     e04:	828a0c00 	addhi	r0, sl, #0, 24
     e08:	18020001 	stmdane	r2, {r0}
     e0c:	00184291 	mulseq	r8, r1, r2
     e10:	00340d00 	eorseq	r0, r4, r0, lsl #26
     e14:	0b3a0803 	bleq	e82e28 <__bss_end__+0xe79040>
     e18:	0b390b3b 	bleq	e43b0c <__bss_end__+0xe39d24>
     e1c:	17021349 	strne	r1, [r2, -r9, asr #6]
     e20:	001742b7 			; <UNDEFINED> instruction: 0x001742b7
     e24:	010b0e00 	tsteq	fp, r0, lsl #28
     e28:	06120111 			; <UNDEFINED> instruction: 0x06120111
     e2c:	00001301 	andeq	r1, r0, r1, lsl #6
     e30:	0182890f 	orreq	r8, r2, pc, lsl #18
     e34:	31011100 	mrscc	r1, (UNDEF: 17)
     e38:	10000013 	andne	r0, r0, r3, lsl r0
     e3c:	193f012e 	ldmdbne	pc!, {r1, r2, r3, r5, r8}	; <UNPREDICTABLE>
     e40:	0b3a0e03 	bleq	e84654 <__bss_end__+0xe7a86c>
     e44:	0b390b3b 	bleq	e43b38 <__bss_end__+0xe39d50>
     e48:	13491927 	movtne	r1, #39207	; 0x9927
     e4c:	06120111 			; <UNDEFINED> instruction: 0x06120111
     e50:	42971840 	addsmi	r1, r7, #64, 16	; 0x400000
     e54:	00130119 	andseq	r0, r3, r9, lsl r1
     e58:	002e1100 	eoreq	r1, lr, r0, lsl #2
     e5c:	193c193f 	ldmdbne	ip!, {r0, r1, r2, r3, r4, r5, r8, fp, ip}
     e60:	0e030e6e 	cdpeq	14, 0, cr0, cr3, cr14, {3}
     e64:	0b3b0b3a 	bleq	ec3b54 <__bss_end__+0xeb9d6c>
     e68:	00000b39 	andeq	r0, r0, r9, lsr fp
     e6c:	01110100 	tsteq	r1, r0, lsl #2
     e70:	0b130e25 	bleq	4c470c <__bss_end__+0x4ba924>
     e74:	0e1b0e03 	cdpeq	14, 1, cr0, cr11, cr3, {0}
     e78:	06120111 			; <UNDEFINED> instruction: 0x06120111
     e7c:	00001710 	andeq	r1, r0, r0, lsl r7
     e80:	0b002402 	bleq	9e90 <__bss_end__+0xa8>
     e84:	030b3e0b 	movweq	r3, #48651	; 0xbe0b
     e88:	03000008 	movweq	r0, #8
     e8c:	0b0b0024 	bleq	2c0f24 <__bss_end__+0x2b713c>
     e90:	0e030b3e 	vmoveq.16	d3[0], r0
     e94:	26040000 	strcs	r0, [r4], -r0
     e98:	00134900 	andseq	r4, r3, r0, lsl #18
     e9c:	00160500 	andseq	r0, r6, r0, lsl #10
     ea0:	0b3a0e03 	bleq	e846b4 <__bss_end__+0xe7a8cc>
     ea4:	0b390b3b 	bleq	e43b98 <__bss_end__+0xe39db0>
     ea8:	00001349 	andeq	r1, r0, r9, asr #6
     eac:	3e010406 	cdpcc	4, 0, cr0, cr1, cr6, {0}
     eb0:	490b0b0b 	stmdbmi	fp, {r0, r1, r3, r8, r9, fp}
     eb4:	3b0b3a13 	blcc	2cf708 <__bss_end__+0x2c5920>
     eb8:	010b390b 	tsteq	fp, fp, lsl #18
     ebc:	07000013 	smladeq	r0, r3, r0, r0
     ec0:	0e030028 	cdpeq	0, 0, cr0, cr3, cr8, {1}
     ec4:	00000b1c 	andeq	r0, r0, ip, lsl fp
     ec8:	03003408 	movweq	r3, #1032	; 0x408
     ecc:	3b0b3a0e 	blcc	2cf70c <__bss_end__+0x2c5924>
     ed0:	490b390b 	stmdbmi	fp, {r0, r1, r3, r8, fp, ip, sp}
     ed4:	00061c13 	andeq	r1, r6, r3, lsl ip
     ed8:	012e0900 			; <UNDEFINED> instruction: 0x012e0900
     edc:	0e03193f 			; <UNDEFINED> instruction: 0x0e03193f
     ee0:	0b3b0b3a 	bleq	ec3bd0 <__bss_end__+0xeb9de8>
     ee4:	19270b39 	stmdbne	r7!, {r0, r3, r4, r5, r8, r9, fp}
     ee8:	01111349 	tsteq	r1, r9, asr #6
     eec:	18400612 	stmdane	r0, {r1, r4, r9, sl}^
     ef0:	01194297 			; <UNDEFINED> instruction: 0x01194297
     ef4:	0a000013 	beq	f48 <__code_start__-0x70b8>
     ef8:	08030005 	stmdaeq	r3, {r0, r2}
     efc:	0b3b0b3a 	bleq	ec3bec <__bss_end__+0xeb9e04>
     f00:	13490b39 	movtne	r0, #39737	; 0x9b39
     f04:	42b71702 	adcsmi	r1, r7, #524288	; 0x80000
     f08:	0b000017 	bleq	f6c <__code_start__-0x7094>
     f0c:	0e030034 	mcreq	0, 0, r0, cr3, cr4, {1}
     f10:	0b3b0b3a 	bleq	ec3c00 <__bss_end__+0xeb9e18>
     f14:	13490b39 	movtne	r0, #39737	; 0x9b39
     f18:	42b71702 	adcsmi	r1, r7, #524288	; 0x80000
     f1c:	0c000017 	stceq	0, cr0, [r0], {23}
     f20:	08030034 	stmdaeq	r3, {r2, r4, r5}
     f24:	0b3b0b3a 	bleq	ec3c14 <__bss_end__+0xeb9e2c>
     f28:	13490b39 	movtne	r0, #39737	; 0x9b39
     f2c:	42b71702 	adcsmi	r1, r7, #524288	; 0x80000
     f30:	0d000017 	stceq	0, cr0, [r0, #-92]	; 0xffffffa4
     f34:	01018289 	smlabbeq	r1, r9, r2, r8
     f38:	13310111 	teqne	r1, #1073741828	; 0x40000004
     f3c:	8a0e0000 	bhi	380f44 <__bss_end__+0x37715c>
     f40:	02000182 	andeq	r0, r0, #-2147483616	; 0x80000020
     f44:	18429118 	stmdane	r2, {r3, r4, r8, ip, pc}^
     f48:	2e0f0000 	cdpcs	0, 0, cr0, cr15, cr0, {0}
     f4c:	03193f01 	tsteq	r9, #1, 30
     f50:	3b0b3a0e 	blcc	2cf790 <__bss_end__+0x2c59a8>
     f54:	270b390b 	strcs	r3, [fp, -fp, lsl #18]
     f58:	12011119 	andne	r1, r1, #1073741830	; 0x40000006
     f5c:	97184006 	ldrls	r4, [r8, -r6]
     f60:	13011942 	movwne	r1, #6466	; 0x1942
     f64:	89100000 	ldmdbhi	r0, {}	; <UNPREDICTABLE>
     f68:	11010182 	smlabbne	r1, r2, r1, r0
     f6c:	01133101 	tsteq	r3, r1, lsl #2
     f70:	11000013 	tstne	r0, r3, lsl r0
     f74:	00018289 	andeq	r8, r1, r9, lsl #5
     f78:	13310111 	teqne	r1, #1073741828	; 0x40000004
     f7c:	05120000 	ldreq	r0, [r2, #-0]
     f80:	3a0e0300 	bcc	381b88 <__bss_end__+0x377da0>
     f84:	390b3b0b 	stmdbcc	fp, {r0, r1, r3, r8, r9, fp, ip, sp}
     f88:	0213490b 	andseq	r4, r3, #180224	; 0x2c000
     f8c:	1742b717 	smlaldne	fp, r2, r7, r7
     f90:	2e130000 	cdpcs	0, 1, cr0, cr3, cr0, {0}
     f94:	3a0e0301 	bcc	381ba0 <__bss_end__+0x377db8>
     f98:	390b3b0b 	stmdbcc	fp, {r0, r1, r3, r8, r9, fp, ip, sp}
     f9c:	4919270b 	ldmdbmi	r9, {r0, r1, r3, r8, r9, sl, sp}
     fa0:	010b2013 	tsteq	fp, r3, lsl r0
     fa4:	14000013 	strne	r0, [r0], #-19	; 0xffffffed
     fa8:	08030005 	stmdaeq	r3, {r0, r2}
     fac:	0b3b0b3a 	bleq	ec3c9c <__bss_end__+0xeb9eb4>
     fb0:	13490b39 	movtne	r0, #39737	; 0x9b39
     fb4:	2e150000 	cdpcs	0, 1, cr0, cr5, cr0, {0}
     fb8:	3c193f00 	ldccc	15, cr3, [r9], {-0}
     fbc:	030e6e19 	movweq	r6, #60953	; 0xee19
     fc0:	3b0b3a0e 	blcc	2cf800 <__bss_end__+0x2c5a18>
     fc4:	000b390b 	andeq	r3, fp, fp, lsl #18
     fc8:	11010000 	mrsne	r0, (UNDEF: 1)
     fcc:	130e2501 	movwne	r2, #58625	; 0xe501
     fd0:	1b0e030b 	blne	381c04 <__bss_end__+0x377e1c>
     fd4:	1201110e 	andne	r1, r1, #-2147483645	; 0x80000003
     fd8:	00171006 	andseq	r1, r7, r6
     fdc:	00240200 	eoreq	r0, r4, r0, lsl #4
     fe0:	0b3e0b0b 	bleq	f83c14 <__bss_end__+0xf79e2c>
     fe4:	00000803 	andeq	r0, r0, r3, lsl #16
     fe8:	0b002403 	bleq	9ffc <__bss_end__+0x214>
     fec:	030b3e0b 	movweq	r3, #48651	; 0xbe0b
     ff0:	0400000e 	streq	r0, [r0], #-14
     ff4:	13490035 	movtne	r0, #36917	; 0x9035
     ff8:	16050000 	strne	r0, [r5], -r0
     ffc:	3a0e0300 	bcc	381c04 <__bss_end__+0x377e1c>
    1000:	390b3b0b 	stmdbcc	fp, {r0, r1, r3, r8, r9, fp, ip, sp}
    1004:	0013490b 	andseq	r4, r3, fp, lsl #18
    1008:	01040600 	tsteq	r4, r0, lsl #12
    100c:	0b0b0b3e 	bleq	2c3d0c <__bss_end__+0x2b9f24>
    1010:	0b3a1349 	bleq	e85d3c <__bss_end__+0xe7bf54>
    1014:	0b390b3b 	bleq	e43d08 <__bss_end__+0xe39f20>
    1018:	00001301 	andeq	r1, r0, r1, lsl #6
    101c:	03002807 	movweq	r2, #2055	; 0x807
    1020:	000b1c0e 	andeq	r1, fp, lr, lsl #24
    1024:	01130800 	tsteq	r3, r0, lsl #16
    1028:	0b0b0e03 	bleq	2c483c <__bss_end__+0x2baa54>
    102c:	0b3b0b3a 	bleq	ec3d1c <__bss_end__+0xeb9f34>
    1030:	13010b39 	movwne	r0, #6969	; 0x1b39
    1034:	0d090000 	stceq	0, cr0, [r9, #-0]
    1038:	3a080300 	bcc	201c40 <__bss_end__+0x1f7e58>
    103c:	390b3b0b 	stmdbcc	fp, {r0, r1, r3, r8, r9, fp, ip, sp}
    1040:	3813490b 	ldmdacc	r3, {r0, r1, r3, r8, fp, lr}
    1044:	0a00000b 	beq	1078 <__code_start__-0x6f88>
    1048:	0e03000d 	cdpeq	0, 0, cr0, cr3, cr13, {0}
    104c:	0b3b0b3a 	bleq	ec3d3c <__bss_end__+0xeb9f54>
    1050:	13490b39 	movtne	r0, #39737	; 0x9b39
    1054:	00000b38 	andeq	r0, r0, r8, lsr fp
    1058:	0300340b 	movweq	r3, #1035	; 0x40b
    105c:	3b0b3a0e 	blcc	2cf89c <__bss_end__+0x2c5ab4>
    1060:	490b390b 	stmdbmi	fp, {r0, r1, r3, r8, fp, ip, sp}
    1064:	00061c13 	andeq	r1, r6, r3, lsl ip
    1068:	000f0c00 	andeq	r0, pc, r0, lsl #24
    106c:	13490b0b 	movtne	r0, #39691	; 0x9b0b
    1070:	260d0000 	strcs	r0, [sp], -r0
    1074:	00134900 	andseq	r4, r3, r0, lsl #18
    1078:	012e0e00 			; <UNDEFINED> instruction: 0x012e0e00
    107c:	0e03193f 			; <UNDEFINED> instruction: 0x0e03193f
    1080:	0b3b0b3a 	bleq	ec3d70 <__bss_end__+0xeb9f88>
    1084:	19270b39 	stmdbne	r7!, {r0, r3, r4, r5, r8, r9, fp}
    1088:	06120111 			; <UNDEFINED> instruction: 0x06120111
    108c:	42971840 	addsmi	r1, r7, #64, 16	; 0x400000
    1090:	00130119 	andseq	r0, r3, r9, lsl r1
    1094:	82890f00 	addhi	r0, r9, #0, 30
    1098:	01110001 	tsteq	r1, r1
    109c:	00001331 	andeq	r1, r0, r1, lsr r3
    10a0:	3f012e10 	svccc	0x00012e10
    10a4:	3a0e0319 	bcc	381d10 <__bss_end__+0x377f28>
    10a8:	390b3b0b 	stmdbcc	fp, {r0, r1, r3, r8, r9, fp, ip, sp}
    10ac:	4919270b 	ldmdbmi	r9, {r0, r1, r3, r8, r9, sl, sp}
    10b0:	12011113 	andne	r1, r1, #-1073741820	; 0xc0000004
    10b4:	97184006 	ldrls	r4, [r8, -r6]
    10b8:	13011942 	movwne	r1, #6466	; 0x1942
    10bc:	89110000 	ldmdbhi	r1, {}	; <UNPREDICTABLE>
    10c0:	11010182 	smlabbne	r1, r2, r1, r0
    10c4:	00133101 	andseq	r3, r3, r1, lsl #2
    10c8:	828a1200 	addhi	r1, sl, #0, 4
    10cc:	18020001 	stmdane	r2, {r0}
    10d0:	00184291 	mulseq	r8, r1, r2
    10d4:	00051300 	andeq	r1, r5, r0, lsl #6
    10d8:	0b3a0803 	bleq	e830ec <__bss_end__+0xe79304>
    10dc:	0b390b3b 	bleq	e43dd0 <__bss_end__+0xe39fe8>
    10e0:	17021349 	strne	r1, [r2, -r9, asr #6]
    10e4:	001742b7 			; <UNDEFINED> instruction: 0x001742b7
    10e8:	82891400 	addhi	r1, r9, #0, 8
    10ec:	01110101 	tsteq	r1, r1, lsl #2
    10f0:	13011331 	movwne	r1, #4913	; 0x1331
    10f4:	34150000 	ldrcc	r0, [r5], #-0
    10f8:	3a080300 	bcc	201d00 <__bss_end__+0x1f7f18>
    10fc:	390b3b0b 	stmdbcc	fp, {r0, r1, r3, r8, r9, fp, ip, sp}
    1100:	0213490b 	andseq	r4, r3, #180224	; 0x2c000
    1104:	1742b717 	smlaldne	fp, r2, r7, r7
    1108:	34160000 	ldrcc	r0, [r6], #-0
    110c:	3a0e0300 	bcc	381d14 <__bss_end__+0x377f2c>
    1110:	390b3b0b 	stmdbcc	fp, {r0, r1, r3, r8, r9, fp, ip, sp}
    1114:	1c13490b 			; <UNDEFINED> instruction: 0x1c13490b
    1118:	17000005 	strne	r0, [r0, -r5]
    111c:	0e03012e 	adfeqsp	f0, f3, #0.5
    1120:	0b3b0b3a 	bleq	ec3e10 <__bss_end__+0xeba028>
    1124:	19270b39 	stmdbne	r7!, {r0, r3, r4, r5, r8, r9, fp}
    1128:	06120111 			; <UNDEFINED> instruction: 0x06120111
    112c:	42971840 	addsmi	r1, r7, #64, 16	; 0x400000
    1130:	00130119 	andseq	r0, r3, r9, lsl r1
    1134:	00051800 	andeq	r1, r5, r0, lsl #16
    1138:	0b3a0e03 	bleq	e8494c <__bss_end__+0xe7ab64>
    113c:	0b390b3b 	bleq	e43e30 <__bss_end__+0xe3a048>
    1140:	17021349 	strne	r1, [r2, -r9, asr #6]
    1144:	001742b7 			; <UNDEFINED> instruction: 0x001742b7
    1148:	00351900 	eorseq	r1, r5, r0, lsl #18
    114c:	2e1a0000 	cdpcs	0, 1, cr0, cr10, cr0, {0}
    1150:	3c193f00 	ldccc	15, cr3, [r9], {-0}
    1154:	030e6e19 	movweq	r6, #60953	; 0xee19
    1158:	3b0b3a0e 	blcc	2cf998 <__bss_end__+0x2c5bb0>
    115c:	000b390b 	andeq	r3, fp, fp, lsl #18
    1160:	11010000 	mrsne	r0, (UNDEF: 1)
    1164:	130e2501 	movwne	r2, #58625	; 0xe501
    1168:	1b0e030b 	blne	381d9c <__bss_end__+0x377fb4>
    116c:	1201110e 	andne	r1, r1, #-2147483645	; 0x80000003
    1170:	00171006 	andseq	r1, r7, r6
    1174:	00240200 	eoreq	r0, r4, r0, lsl #4
    1178:	0b3e0b0b 	bleq	f83dac <__bss_end__+0xf79fc4>
    117c:	00000803 	andeq	r0, r0, r3, lsl #16
    1180:	0b002403 	bleq	a194 <__bss_end__+0x3ac>
    1184:	030b3e0b 	movweq	r3, #48651	; 0xbe0b
    1188:	0400000e 	streq	r0, [r0], #-14
    118c:	19270115 	stmdbne	r7!, {r0, r2, r4, r8}
    1190:	13011349 	movwne	r1, #4937	; 0x1349
    1194:	05050000 	streq	r0, [r5, #-0]
    1198:	00134900 	andseq	r4, r3, r0, lsl #18
    119c:	00340600 	eorseq	r0, r4, r0, lsl #12
    11a0:	0b3a0e03 	bleq	e849b4 <__bss_end__+0xe7abcc>
    11a4:	0b390b3b 	bleq	e43e98 <__bss_end__+0xe3a0b0>
    11a8:	193f1349 	ldmdbne	pc!, {r0, r3, r6, r8, r9, ip}	; <UNPREDICTABLE>
    11ac:	0000193c 	andeq	r1, r0, ip, lsr r9
    11b0:	0b000f07 	bleq	4dd4 <__code_start__-0x322c>
    11b4:	0013490b 	andseq	r4, r3, fp, lsl #18
    11b8:	00260800 	eoreq	r0, r6, r0, lsl #16
    11bc:	00001349 	andeq	r1, r0, r9, asr #6
    11c0:	47003409 	strmi	r3, [r0, -r9, lsl #8]
    11c4:	3b0b3a13 	blcc	2cfa18 <__bss_end__+0x2c5c30>
    11c8:	020b390b 	andeq	r3, fp, #180224	; 0x2c000
    11cc:	0a000018 	beq	1234 <__code_start__-0x6dcc>
    11d0:	193f012e 	ldmdbne	pc!, {r1, r2, r3, r5, r8}	; <UNPREDICTABLE>
    11d4:	0b3a0e03 	bleq	e849e8 <__bss_end__+0xe7ac00>
    11d8:	0b390b3b 	bleq	e43ecc <__bss_end__+0xe3a0e4>
    11dc:	01111927 	tsteq	r1, r7, lsr #18
    11e0:	18400612 	stmdane	r0, {r1, r4, r9, sl}^
    11e4:	01194297 			; <UNDEFINED> instruction: 0x01194297
    11e8:	0b000013 	bleq	123c <__code_start__-0x6dc4>
    11ec:	08030005 	stmdaeq	r3, {r0, r2}
    11f0:	0b3b0b3a 	bleq	ec3ee0 <__bss_end__+0xeba0f8>
    11f4:	13490b39 	movtne	r0, #39737	; 0x9b39
    11f8:	00001802 	andeq	r1, r0, r2, lsl #16
    11fc:	3f002e0c 	svccc	0x00002e0c
    1200:	3a0e0319 	bcc	381e6c <__bss_end__+0x378084>
    1204:	390b3b0b 	stmdbcc	fp, {r0, r1, r3, r8, r9, fp, ip, sp}
    1208:	1119270b 	tstne	r9, fp, lsl #14
    120c:	40061201 	andmi	r1, r6, r1, lsl #4
    1210:	19429718 	stmdbne	r2, {r3, r4, r8, r9, sl, ip, pc}^
    1214:	2e0d0000 	cdpcs	0, 0, cr0, cr13, cr0, {0}
    1218:	3a0e0301 	bcc	381e24 <__bss_end__+0x37803c>
    121c:	390b3b0b 	stmdbcc	fp, {r0, r1, r3, r8, r9, fp, ip, sp}
    1220:	4919270b 	ldmdbmi	r9, {r0, r1, r3, r8, r9, sl, sp}
    1224:	12011113 	andne	r1, r1, #-1073741820	; 0xc0000004
    1228:	97184006 	ldrls	r4, [r8, -r6]
    122c:	13011942 	movwne	r1, #6466	; 0x1942
    1230:	050e0000 	streq	r0, [lr, #-0]
    1234:	3a080300 	bcc	201e3c <__bss_end__+0x1f8054>
    1238:	390b3b0b 	stmdbcc	fp, {r0, r1, r3, r8, r9, fp, ip, sp}
    123c:	0213490b 	andseq	r4, r3, #180224	; 0x2c000
    1240:	1742b717 	smlaldne	fp, r2, r7, r7
    1244:	890f0000 	stmdbhi	pc, {}	; <UNPREDICTABLE>
    1248:	11010182 	smlabbne	r1, r2, r1, r0
    124c:	00133101 	andseq	r3, r3, r1, lsl #2
    1250:	828a1000 	addhi	r1, sl, #0, 0
    1254:	18020001 	stmdane	r2, {r0}
    1258:	00184291 	mulseq	r8, r1, r2
    125c:	002e1100 	eoreq	r1, lr, r0, lsl #2
    1260:	193c193f 	ldmdbne	ip!, {r0, r1, r2, r3, r4, r5, r8, fp, ip}
    1264:	0e030e6e 	cdpeq	14, 0, cr0, cr3, cr14, {3}
    1268:	0b3b0b3a 	bleq	ec3f58 <__bss_end__+0xeba170>
    126c:	00000b39 	andeq	r0, r0, r9, lsr fp
    1270:	01110100 	tsteq	r1, r0, lsl #2
    1274:	0b130e25 	bleq	4c4b10 <__bss_end__+0x4bad28>
    1278:	0e1b0e03 	cdpeq	14, 1, cr0, cr11, cr3, {0}
    127c:	06120111 			; <UNDEFINED> instruction: 0x06120111
    1280:	00001710 	andeq	r1, r0, r0, lsl r7
    1284:	0b002402 	bleq	a294 <__bss_end__+0x4ac>
    1288:	030b3e0b 	movweq	r3, #48651	; 0xbe0b
    128c:	03000008 	movweq	r0, #8
    1290:	0b0b0024 	bleq	2c1328 <__bss_end__+0x2b7540>
    1294:	0e030b3e 	vmoveq.16	d3[0], r0
    1298:	15040000 	strne	r0, [r4, #-0]
    129c:	49192701 	ldmdbmi	r9, {r0, r8, r9, sl, sp}
    12a0:	00130113 	andseq	r0, r3, r3, lsl r1
    12a4:	00050500 	andeq	r0, r5, r0, lsl #10
    12a8:	00001349 	andeq	r1, r0, r9, asr #6
    12ac:	03003406 	movweq	r3, #1030	; 0x406
    12b0:	3b0b3a0e 	blcc	2cfaf0 <__bss_end__+0x2c5d08>
    12b4:	490b390b 	stmdbmi	fp, {r0, r1, r3, r8, fp, ip, sp}
    12b8:	3c193f13 	ldccc	15, cr3, [r9], {19}
    12bc:	07000019 	smladeq	r0, r9, r0, r0
    12c0:	0b0b000f 	bleq	2c1304 <__bss_end__+0x2b751c>
    12c4:	00001349 	andeq	r1, r0, r9, asr #6
    12c8:	49002608 	stmdbmi	r0, {r3, r9, sl, sp}
    12cc:	09000013 	stmdbeq	r0, {r0, r1, r4}
    12d0:	193f012e 	ldmdbne	pc!, {r1, r2, r3, r5, r8}	; <UNPREDICTABLE>
    12d4:	0b3a0e03 	bleq	e84ae8 <__bss_end__+0xe7ad00>
    12d8:	0b390b3b 	bleq	e43fcc <__bss_end__+0xe3a1e4>
    12dc:	13491927 	movtne	r1, #39207	; 0x9927
    12e0:	06120111 			; <UNDEFINED> instruction: 0x06120111
    12e4:	42971840 	addsmi	r1, r7, #64, 16	; 0x400000
    12e8:	00130119 	andseq	r0, r3, r9, lsl r1
    12ec:	00050a00 	andeq	r0, r5, r0, lsl #20
    12f0:	0b3a0e03 	bleq	e84b04 <__bss_end__+0xe7ad1c>
    12f4:	0b390b3b 	bleq	e43fe8 <__bss_end__+0xe3a200>
    12f8:	18021349 	stmdane	r2, {r0, r3, r6, r8, r9, ip}
    12fc:	050b0000 	streq	r0, [fp, #-0]
    1300:	3a080300 	bcc	201f08 <__bss_end__+0x1f8120>
    1304:	390b3b0b 	stmdbcc	fp, {r0, r1, r3, r8, r9, fp, ip, sp}
    1308:	0213490b 	andseq	r4, r3, #180224	; 0x2c000
    130c:	1742b717 	smlaldne	fp, r2, r7, r7
    1310:	340c0000 	strcc	r0, [ip], #-0
    1314:	3a080300 	bcc	201f1c <__bss_end__+0x1f8134>
    1318:	390b3b0b 	stmdbcc	fp, {r0, r1, r3, r8, r9, fp, ip, sp}
    131c:	0213490b 	andseq	r4, r3, #180224	; 0x2c000
    1320:	1742b717 	smlaldne	fp, r2, r7, r7
    1324:	01000000 	mrseq	r0, (UNDEF: 0)
    1328:	0e250111 	mcreq	1, 1, r0, cr5, cr1, {0}
    132c:	0e030b13 	vmoveq.32	d3[0], r0
    1330:	01110e1b 	tsteq	r1, fp, lsl lr
    1334:	17100612 			; <UNDEFINED> instruction: 0x17100612
    1338:	24020000 	strcs	r0, [r2], #-0
    133c:	3e0b0b00 	vmlacc.f64	d0, d11, d0
    1340:	0008030b 	andeq	r0, r8, fp, lsl #6
    1344:	00240300 	eoreq	r0, r4, r0, lsl #6
    1348:	0b3e0b0b 	bleq	f83f7c <__bss_end__+0xf7a194>
    134c:	00000e03 	andeq	r0, r0, r3, lsl #28
    1350:	27011504 	strcs	r1, [r1, -r4, lsl #10]
    1354:	01134919 	tsteq	r3, r9, lsl r9
    1358:	05000013 	streq	r0, [r0, #-19]	; 0xffffffed
    135c:	13490005 	movtne	r0, #36869	; 0x9005
    1360:	34060000 	strcc	r0, [r6], #-0
    1364:	3a0e0300 	bcc	381f6c <__bss_end__+0x378184>
    1368:	390b3b0b 	stmdbcc	fp, {r0, r1, r3, r8, r9, fp, ip, sp}
    136c:	3f13490b 	svccc	0x0013490b
    1370:	00193c19 	andseq	r3, r9, r9, lsl ip
    1374:	000f0700 	andeq	r0, pc, r0, lsl #14
    1378:	13490b0b 	movtne	r0, #39691	; 0x9b0b
    137c:	26080000 	strcs	r0, [r8], -r0
    1380:	00134900 	andseq	r4, r3, r0, lsl #18
    1384:	012e0900 			; <UNDEFINED> instruction: 0x012e0900
    1388:	0e03193f 			; <UNDEFINED> instruction: 0x0e03193f
    138c:	0b3b0b3a 	bleq	ec407c <__bss_end__+0xeba294>
    1390:	19270b39 	stmdbne	r7!, {r0, r3, r4, r5, r8, r9, fp}
    1394:	01111349 	tsteq	r1, r9, asr #6
    1398:	18400612 	stmdane	r0, {r1, r4, r9, sl}^
    139c:	00194297 	mulseq	r9, r7, r2
    13a0:	00050a00 	andeq	r0, r5, r0, lsl #20
    13a4:	0b3a0803 	bleq	e833b8 <__bss_end__+0xe795d0>
    13a8:	0b390b3b 	bleq	e4409c <__bss_end__+0xe3a2b4>
    13ac:	17021349 	strne	r1, [r2, -r9, asr #6]
    13b0:	001742b7 			; <UNDEFINED> instruction: 0x001742b7
    13b4:	11010000 	mrsne	r0, (UNDEF: 1)
    13b8:	130e2501 	movwne	r2, #58625	; 0xe501
    13bc:	1b0e030b 	blne	381ff0 <__bss_end__+0x378208>
    13c0:	1201110e 	andne	r1, r1, #-2147483645	; 0x80000003
    13c4:	00171006 	andseq	r1, r7, r6
    13c8:	00240200 	eoreq	r0, r4, r0, lsl #4
    13cc:	0b3e0b0b 	bleq	f84000 <__bss_end__+0xf7a218>
    13d0:	00000803 	andeq	r0, r0, r3, lsl #16
    13d4:	0b002403 	bleq	a3e8 <__bss_end__+0x600>
    13d8:	030b3e0b 	movweq	r3, #48651	; 0xbe0b
    13dc:	0400000e 	streq	r0, [r0], #-14
    13e0:	19270115 	stmdbne	r7!, {r0, r2, r4, r8}
    13e4:	13011349 	movwne	r1, #4937	; 0x1349
    13e8:	05050000 	streq	r0, [r5, #-0]
    13ec:	00134900 	andseq	r4, r3, r0, lsl #18
    13f0:	00340600 	eorseq	r0, r4, r0, lsl #12
    13f4:	0b3a0e03 	bleq	e84c08 <__bss_end__+0xe7ae20>
    13f8:	0b390b3b 	bleq	e440ec <__bss_end__+0xe3a304>
    13fc:	193f1349 	ldmdbne	pc!, {r0, r3, r6, r8, r9, ip}	; <UNPREDICTABLE>
    1400:	0000193c 	andeq	r1, r0, ip, lsr r9
    1404:	0b000f07 	bleq	5028 <__code_start__-0x2fd8>
    1408:	0013490b 	andseq	r4, r3, fp, lsl #18
    140c:	00260800 	eoreq	r0, r6, r0, lsl #16
    1410:	00001349 	andeq	r1, r0, r9, asr #6
    1414:	3f012e09 	svccc	0x00012e09
    1418:	3a0e0319 	bcc	382084 <__bss_end__+0x37829c>
    141c:	390b3b0b 	stmdbcc	fp, {r0, r1, r3, r8, r9, fp, ip, sp}
    1420:	4919270b 	ldmdbmi	r9, {r0, r1, r3, r8, r9, sl, sp}
    1424:	12011113 	andne	r1, r1, #-1073741820	; 0xc0000004
    1428:	97184006 	ldrls	r4, [r8, -r6]
    142c:	13011942 	movwne	r1, #6466	; 0x1942
    1430:	050a0000 	streq	r0, [sl, #-0]
    1434:	3a080300 	bcc	20203c <__bss_end__+0x1f8254>
    1438:	390b3b0b 	stmdbcc	fp, {r0, r1, r3, r8, r9, fp, ip, sp}
    143c:	0213490b 	andseq	r4, r3, #180224	; 0x2c000
    1440:	0b000018 	bleq	14a8 <__code_start__-0x6b58>
    1444:	08030005 	stmdaeq	r3, {r0, r2}
    1448:	0b3b0b3a 	bleq	ec4138 <__bss_end__+0xeba350>
    144c:	13490b39 	movtne	r0, #39737	; 0x9b39
    1450:	42b71702 	adcsmi	r1, r7, #524288	; 0x80000
    1454:	0c000017 	stceq	0, cr0, [r0], {23}
    1458:	08030034 	stmdaeq	r3, {r2, r4, r5}
    145c:	0b3b0b3a 	bleq	ec414c <__bss_end__+0xeba364>
    1460:	13490b39 	movtne	r0, #39737	; 0x9b39
    1464:	42b71702 	adcsmi	r1, r7, #524288	; 0x80000
    1468:	00000017 	andeq	r0, r0, r7, lsl r0
    146c:	25011101 	strcs	r1, [r1, #-257]	; 0xfffffeff
    1470:	030b130e 	movweq	r1, #45838	; 0xb30e
    1474:	550e1b0e 	strpl	r1, [lr, #-2830]	; 0xfffff4f2
    1478:	10011117 	andne	r1, r1, r7, lsl r1
    147c:	02000017 	andeq	r0, r0, #23, 0
    1480:	0b0b0024 	bleq	2c1518 <__bss_end__+0x2b7730>
    1484:	08030b3e 	stmdaeq	r3, {r1, r2, r3, r4, r5, r8, r9, fp}
    1488:	16030000 	strne	r0, [r3], -r0
    148c:	3a0e0300 	bcc	382094 <__bss_end__+0x3782ac>
    1490:	390b3b0b 	stmdbcc	fp, {r0, r1, r3, r8, r9, fp, ip, sp}
    1494:	0013490b 	andseq	r4, r3, fp, lsl #18
    1498:	00240400 	eoreq	r0, r4, r0, lsl #8
    149c:	0b3e0b0b 	bleq	f840d0 <__bss_end__+0xf7a2e8>
    14a0:	00000e03 	andeq	r0, r0, r3, lsl #28
    14a4:	49002605 	stmdbmi	r0, {r0, r2, r9, sl, sp}
    14a8:	06000013 			; <UNDEFINED> instruction: 0x06000013
    14ac:	19270115 	stmdbne	r7!, {r0, r2, r4, r8}
    14b0:	13011349 	movwne	r1, #4937	; 0x1349
    14b4:	05070000 	streq	r0, [r7, #-0]
    14b8:	00134900 	andseq	r4, r3, r0, lsl #18
    14bc:	00340800 	eorseq	r0, r4, r0, lsl #16
    14c0:	0b3a0e03 	bleq	e84cd4 <__bss_end__+0xe7aeec>
    14c4:	0b390b3b 	bleq	e441b8 <__bss_end__+0xe3a3d0>
    14c8:	193f1349 	ldmdbne	pc!, {r0, r3, r6, r8, r9, ip}	; <UNPREDICTABLE>
    14cc:	0000193c 	andeq	r1, r0, ip, lsr r9
    14d0:	0b000f09 	bleq	50fc <__code_start__-0x2f04>
    14d4:	0013490b 	andseq	r4, r3, fp, lsl #18
    14d8:	012e0a00 			; <UNDEFINED> instruction: 0x012e0a00
    14dc:	0e03193f 			; <UNDEFINED> instruction: 0x0e03193f
    14e0:	0b3b0b3a 	bleq	ec41d0 <__bss_end__+0xeba3e8>
    14e4:	19270b39 	stmdbne	r7!, {r0, r3, r4, r5, r8, r9, fp}
    14e8:	01111349 	tsteq	r1, r9, asr #6
    14ec:	18400612 	stmdane	r0, {r1, r4, r9, sl}^
    14f0:	01194297 			; <UNDEFINED> instruction: 0x01194297
    14f4:	0b000013 	bleq	1548 <__code_start__-0x6ab8>
    14f8:	08030005 	stmdaeq	r3, {r0, r2}
    14fc:	0b3b0b3a 	bleq	ec41ec <__bss_end__+0xeba404>
    1500:	13490b39 	movtne	r0, #39737	; 0x9b39
    1504:	42b71702 	adcsmi	r1, r7, #524288	; 0x80000
    1508:	0c000017 	stceq	0, cr0, [r0], {23}
    150c:	08030034 	stmdaeq	r3, {r2, r4, r5}
    1510:	0b3b0b3a 	bleq	ec4200 <__bss_end__+0xeba418>
    1514:	13490b39 	movtne	r0, #39737	; 0x9b39
    1518:	42b71702 	adcsmi	r1, r7, #524288	; 0x80000
    151c:	00000017 	andeq	r0, r0, r7, lsl r0
    1520:	25011101 	strcs	r1, [r1, #-257]	; 0xfffffeff
    1524:	030b130e 	movweq	r1, #45838	; 0xb30e
    1528:	110e1b0e 	tstne	lr, lr, lsl #22
    152c:	10061201 	andne	r1, r6, r1, lsl #4
    1530:	02000017 	andeq	r0, r0, #23, 0
    1534:	0b0b0024 	bleq	2c15cc <__bss_end__+0x2b77e4>
    1538:	08030b3e 	stmdaeq	r3, {r1, r2, r3, r4, r5, r8, r9, fp}
    153c:	24030000 	strcs	r0, [r3], #-0
    1540:	3e0b0b00 	vmlacc.f64	d0, d11, d0
    1544:	000e030b 	andeq	r0, lr, fp, lsl #6
    1548:	01150400 	tsteq	r5, r0, lsl #8
    154c:	13491927 	movtne	r1, #39207	; 0x9927
    1550:	00001301 	andeq	r1, r0, r1, lsl #6
    1554:	49000505 	stmdbmi	r0, {r0, r2, r8, sl}
    1558:	06000013 			; <UNDEFINED> instruction: 0x06000013
    155c:	0e030034 	mcreq	0, 0, r0, cr3, cr4, {1}
    1560:	0b3b0b3a 	bleq	ec4250 <__bss_end__+0xeba468>
    1564:	13490b39 	movtne	r0, #39737	; 0x9b39
    1568:	193c193f 	ldmdbne	ip!, {r0, r1, r2, r3, r4, r5, r8, fp, ip}
    156c:	0f070000 	svceq	0x00070000
    1570:	490b0b00 	stmdbmi	fp, {r8, r9, fp}
    1574:	08000013 	stmdaeq	r0, {r0, r1, r4}
    1578:	13490026 	movtne	r0, #36902	; 0x9026
    157c:	2e090000 	cdpcs	0, 0, cr0, cr9, cr0, {0}
    1580:	03193f00 	tsteq	r9, #0, 30
    1584:	3b0b3a0e 	blcc	2cfdc4 <__bss_end__+0x2c5fdc>
    1588:	270b390b 	strcs	r3, [fp, -fp, lsl #18]
    158c:	12011119 	andne	r1, r1, #1073741830	; 0x40000006
    1590:	97184006 	ldrls	r4, [r8, -r6]
    1594:	00001942 	andeq	r1, r0, r2, asr #18
	...

Disassembly of section .debug_loc:

00000000 <.debug_loc>:
       0:	000c0002 	andeq	r0, ip, r2
       4:	00140000 	andseq	r0, r4, r0
       8:	00020000 	andeq	r0, r2, r0
       c:	00009f30 	andeq	r9, r0, r0, lsr pc
	...
      18:	001c0000 	andseq	r0, ip, r0
      1c:	00200000 	eoreq	r0, r0, r0
      20:	00010000 	andeq	r0, r1, r0
      24:	00002050 	andeq	r2, r0, r0, asr r0
      28:	00002700 	andeq	r2, r0, r0, lsl #14
      2c:	52000100 	andpl	r0, r0, #0
	...
      38:	00000001 	andeq	r0, r0, r1
      3c:	000001a8 	andeq	r0, r0, r8, lsr #3
      40:	000001ac 	andeq	r0, r0, ip, lsr #3
      44:	9f300002 	svcls	0x00300002
      48:	000001b4 			; <UNDEFINED> instruction: 0x000001b4
      4c:	000001c4 	andeq	r0, r0, r4, asr #3
      50:	00500001 	subseq	r0, r0, r1
	...
      5c:	52522929 	subspl	r2, r2, #671744	; 0xa4000
      60:	01005555 	tsteq	r0, r5, asr r5
      64:	53532a2a 	cmppl	r3, #172032	; 0x2a000
      68:	00005555 	andeq	r5, r0, r5, asr r5
      6c:	09090606 	stmdbeq	r9, {r1, r2, r9, sl}
      70:	29290000 	stmdbcs	r9!, {}	; <UNPREDICTABLE>
      74:	00005555 	andeq	r5, r0, r5, asr r5
      78:	2f2f0606 	svccs	0x002f0606
      7c:	00003636 	andeq	r3, r0, r6, lsr r6
      80:	0c0c0606 	stceq	6, cr0, [ip], {6}
      84:	18181212 	ldmdane	r8, {r1, r4, r9, ip}
      88:	a0001f1f 	andge	r1, r0, pc, lsl pc
      8c:	a0000000 	andge	r0, r0, r0
      90:	01000000 	mrseq	r0, (UNDEF: 0)
      94:	00a05000 	adceq	r5, r0, r0
      98:	00a00000 	adceq	r0, r0, r0
      9c:	00080000 	andeq	r0, r8, r0
      a0:	f0090070 			; <UNDEFINED> instruction: 0xf0090070
      a4:	9f21311a 	svcls	0x0021311a
      a8:	000000a0 	andeq	r0, r0, r0, lsr #1
      ac:	000000a0 	andeq	r0, r0, r0, lsr #1
      b0:	0070000b 	rsbseq	r0, r0, fp
      b4:	1af9f00b 	bne	ffe7c0e8 <__bss_end__+0xffe72300>
      b8:	2106010a 	tstcs	r6, sl, lsl #2
      bc:	0000a09f 	muleq	r0, pc, r0	; <UNPREDICTABLE>
      c0:	0000a800 	andeq	sl, r0, r0, lsl #16
      c4:	70000d00 	andvc	r0, r0, r0, lsl #26
      c8:	f9f00b00 			; <UNDEFINED> instruction: 0xf9f00b00
      cc:	06010c1a 			; <UNDEFINED> instruction: 0x06010c1a
      d0:	9f215a00 	svcls	0x00215a00
      d4:	000000b8 	strheq	r0, [r0], -r8
      d8:	000000b8 	strheq	r0, [r0], -r8
      dc:	9f300002 	svcls	0x00300002
      e0:	000000b8 	strheq	r0, [r0], -r8
      e4:	000000b8 	strheq	r0, [r0], -r8
      e8:	000a0004 	andeq	r0, sl, r4
      ec:	00b89f60 	adcseq	r9, r8, r0, ror #30
      f0:	00b80000 	adcseq	r0, r8, r0
      f4:	00040000 	andeq	r0, r4, r0
      f8:	9f6cd80a 	svcls	0x006cd80a
      fc:	000000b8 	strheq	r0, [r0], -r8
     100:	000000cc 	andeq	r0, r0, ip, asr #1
     104:	d80c0006 	stmdale	ip, {r1, r2}
     108:	9f5a006c 	svcls	0x005a006c
     10c:	000000cc 	andeq	r0, r0, ip, asr #1
     110:	000000cc 	andeq	r0, r0, ip, asr #1
     114:	cc500001 	mrrcgt	0, 0, r0, r0, cr1	; <UNPREDICTABLE>
     118:	cc000000 	stcgt	0, cr0, [r0], {-0}
     11c:	05000000 	streq	r0, [r0, #-0]
     120:	40007000 	andmi	r7, r0, r0
     124:	00cc9f21 	sbceq	r9, ip, r1, lsr #30
     128:	00d80000 	sbcseq	r0, r8, r0
     12c:	00090000 	andeq	r0, r9, r0
     130:	100c0070 	andne	r0, ip, r0, ror r0
     134:	215a0000 	cmpcs	sl, r0
     138:	0000e89f 	muleq	r0, pc, r8	; <UNPREDICTABLE>
     13c:	0000e800 	andeq	lr, r0, r0, lsl #16
     140:	50000100 	andpl	r0, r0, r0, lsl #2
     144:	000000e8 	andeq	r0, r0, r8, ror #1
     148:	000000e8 	andeq	r0, r0, r8, ror #1
     14c:	0070000c 	rsbseq	r0, r0, ip
     150:	4087ff11 	addmi	pc, r7, r1, lsl pc	; <UNPREDICTABLE>
     154:	fc000a1a 	stc2	10, cr0, [r0], {26}	; <UNPREDICTABLE>
     158:	00e89f21 	rsceq	r9, r8, r1, lsr #30
     15c:	00fc0000 	rscseq	r0, ip, r0
     160:	000c0000 	andeq	r0, ip, r0
     164:	80110070 	andshi	r0, r1, r0, ror r0
     168:	0a1a4080 	beq	690370 <__bss_end__+0x686588>
     16c:	9f21fc20 	svcls	0x0021fc20
     170:	00000108 	andeq	r0, r0, r8, lsl #2
     174:	00000108 	andeq	r0, r0, r8, lsl #2
     178:	08500001 	ldmdaeq	r0, {r0}^
     17c:	08000001 	stmdaeq	r0, {r0}
     180:	07000001 	streq	r0, [r0, -r1]
     184:	40007000 	andmi	r7, r0, r0
     188:	9f21244a 	svcls	0x0021244a
     18c:	00000108 	andeq	r0, r0, r8, lsl #2
     190:	00000108 	andeq	r0, r0, r8, lsl #2
     194:	0070000e 	rsbseq	r0, r0, lr
     198:	43ffff11 	mvnsmi	pc, #68	; 0x44
     19c:	00000c1a 	andeq	r0, r0, sl, lsl ip
     1a0:	9f214008 	svcls	0x00214008
     1a4:	00000108 	andeq	r0, r0, r8, lsl #2
     1a8:	00000118 	andeq	r0, r0, r8, lsl r1
     1ac:	0070000f 	rsbseq	r0, r0, pc
     1b0:	43ffff11 	mvnsmi	pc, #68	; 0x44
     1b4:	8080111a 	addhi	r1, r0, sl, lsl r1
     1b8:	217c80a0 	cmncs	ip, r0, lsr #1
     1bc:	0001249f 	muleq	r1, pc, r4	; <UNPREDICTABLE>
     1c0:	00012400 	andeq	r2, r1, r0, lsl #8
     1c4:	50000100 	andpl	r0, r0, r0, lsl #2
     1c8:	00000124 	andeq	r0, r0, r4, lsr #2
     1cc:	00000124 	andeq	r0, r0, r4, lsr #2
     1d0:	00700005 	rsbseq	r0, r0, r5
     1d4:	249f2131 	ldrcs	r2, [pc], #305	; 1dc <__code_start__-0x7e24>
     1d8:	24000001 	strcs	r0, [r0], #-1
     1dc:	09000001 	stmdbeq	r0, {r0}
     1e0:	0c007000 	stceq	0, cr7, [r0], {-0}
     1e4:	02000001 	andeq	r0, r0, #1, 0
     1e8:	01249f21 			; <UNDEFINED> instruction: 0x01249f21
     1ec:	01240000 			; <UNDEFINED> instruction: 0x01240000
     1f0:	00090000 	andeq	r0, r9, r0
     1f4:	110c0070 	tstne	ip, r0, ror r0
     1f8:	21020000 	mrscs	r0, (UNDEF: 2)
     1fc:	0001249f 	muleq	r1, pc, r4	; <UNPREDICTABLE>
     200:	00012400 	andeq	r2, r1, r0, lsl #8
     204:	70000900 	andvc	r0, r0, r0, lsl #18
     208:	00130c00 	andseq	r0, r3, r0, lsl #24
     20c:	9f210200 	svcls	0x00210200
     210:	00000124 	andeq	r0, r0, r4, lsr #2
     214:	00000130 	andeq	r0, r0, r0, lsr r1
     218:	00700009 	rsbseq	r0, r0, r9
     21c:	0000130c 	andeq	r1, r0, ip, lsl #6
     220:	009f2103 	addseq	r2, pc, r3, lsl #2
     224:	00000000 	andeq	r0, r0, r0
     228:	53000000 	movwpl	r0, #0
     22c:	0000a055 	andeq	sl, r0, r5, asr r0
     230:	0000a000 	andeq	sl, r0, r0
     234:	70000b00 	andvc	r0, r0, r0, lsl #22
     238:	f9f00b00 			; <UNDEFINED> instruction: 0xf9f00b00
     23c:	06010a1a 			; <UNDEFINED> instruction: 0x06010a1a
     240:	00009f21 	andeq	r9, r0, r1, lsr #30
     244:	00000000 	andeq	r0, r0, r0
     248:	09070000 	stmdbeq	r7, {}	; <UNPREDICTABLE>
     24c:	000000cc 	andeq	r0, r0, ip, asr #1
     250:	000000cc 	andeq	r0, r0, ip, asr #1
     254:	00700005 	rsbseq	r0, r0, r5
     258:	009f2140 	addseq	r2, pc, r0, asr #2
     25c:	00000000 	andeq	r0, r0, r0
     260:	2a000000 	bcs	268 <__code_start__-0x7d98>
     264:	0000e855 	andeq	lr, r0, r5, asr r8
     268:	0000e800 	andeq	lr, r0, r0, lsl #16
     26c:	08000300 	stmdaeq	r0, {r8, r9}
     270:	00009f20 	andeq	r9, r0, r0, lsr #30
     274:	00000000 	andeq	r0, r0, r0
     278:	552a0000 	strpl	r0, [sl, #-0]!
     27c:	000000e8 	andeq	r0, r0, r8, ror #1
     280:	000000e8 	andeq	r0, r0, r8, ror #1
     284:	9f390002 	svcls	0x00390002
	...
     290:	00e8552a 	rsceq	r5, r8, sl, lsr #10
     294:	00e80000 	rsceq	r0, r8, r0
     298:	00020000 	andeq	r0, r2, r0
     29c:	00009f30 	andeq	r9, r0, r0, lsr pc
     2a0:	00000000 	andeq	r0, r0, r0
     2a4:	552a0000 	strpl	r0, [sl, #-0]!
     2a8:	000000e8 	andeq	r0, r0, r8, ror #1
     2ac:	000000e8 	andeq	r0, r0, r8, ror #1
     2b0:	0070000c 	rsbseq	r0, r0, ip
     2b4:	4087ff11 	addmi	pc, r7, r1, lsl pc	; <UNPREDICTABLE>
     2b8:	fc000a1a 	stc2	10, cr0, [r0], {26}	; <UNPREDICTABLE>
     2bc:	00009f21 	andeq	r9, r0, r1, lsr #30
     2c0:	00000000 	andeq	r0, r0, r0
     2c4:	55340000 	ldrpl	r0, [r4, #-0]!
     2c8:	000000e8 	andeq	r0, r0, r8, ror #1
     2cc:	000000e8 	andeq	r0, r0, r8, ror #1
     2d0:	9f3a0002 	svcls	0x003a0002
	...
     2dc:	01083630 	tsteq	r8, r0, lsr r6
     2e0:	01080000 	mrseq	r0, (UNDEF: 8)
     2e4:	00020000 	andeq	r0, r2, r0
     2e8:	00009f4f 	andeq	r9, r0, pc, asr #30
     2ec:	00000000 	andeq	r0, r0, r0
     2f0:	36300000 	ldrtcc	r0, [r0], -r0
     2f4:	00000108 	andeq	r0, r0, r8, lsl #2
     2f8:	00000108 	andeq	r0, r0, r8, lsl #2
     2fc:	0070000e 	rsbseq	r0, r0, lr
     300:	43ffff11 	mvnsmi	pc, #68	; 0x44
     304:	00000c1a 	andeq	r0, r0, sl, lsl ip
     308:	9f214008 	svcls	0x00214008
	...
     314:	01241f19 			; <UNDEFINED> instruction: 0x01241f19
     318:	01240000 			; <UNDEFINED> instruction: 0x01240000
     31c:	00020000 	andeq	r0, r2, r0
     320:	00009f48 	andeq	r9, r0, r8, asr #30
     324:	00000000 	andeq	r0, r0, r0
     328:	1f190000 	svcne	0x00190000
     32c:	00000124 	andeq	r0, r0, r4, lsr #2
     330:	00000124 	andeq	r0, r0, r4, lsr #2
     334:	00700009 	rsbseq	r0, r0, r9
     338:	0000130c 	andeq	r1, r0, ip, lsl #6
     33c:	009f2102 	addseq	r2, pc, r2, lsl #2
	...
     348:	00014008 	andeq	r4, r1, r8
     34c:	00014000 	andeq	r4, r1, r0
     350:	48000200 	stmdami	r0, {r9}
     354:	0000009f 	muleq	r0, pc, r0	; <UNPREDICTABLE>
     358:	00000000 	andeq	r0, r0, r0
     35c:	40080000 	andmi	r0, r8, r0
     360:	40000001 	andmi	r0, r0, r1
     364:	01000001 	tsteq	r0, r1
     368:	00005000 	andeq	r5, r0, r0
     36c:	00000000 	andeq	r0, r0, r0
     370:	08020000 	stmdaeq	r2, {}	; <UNPREDICTABLE>
     374:	00000140 	andeq	r0, r0, r0, asr #2
     378:	00000140 	andeq	r0, r0, r0, asr #2
     37c:	9f480002 	svcls	0x00480002
	...
     388:	01400802 	cmpeq	r0, r2, lsl #16
     38c:	01400000 	mrseq	r0, (UNDEF: 64)
     390:	00010000 	andeq	r0, r1, r0
     394:	00000050 	andeq	r0, r0, r0, asr r0
     398:	00000000 	andeq	r0, r0, r0
     39c:	00000100 	andeq	r0, r0, r0, lsl #2
     3a0:	38000000 	stmdacc	r0, {}	; <UNPREDICTABLE>
     3a4:	06000000 	streq	r0, [r0], -r0
     3a8:	07c9fa00 	strbeq	pc, [r9, r0, lsl #20]	; <UNPREDICTABLE>
     3ac:	009f0000 	addseq	r0, pc, r0
     3b0:	00000000 	andeq	r0, r0, r0
     3b4:	01000000 	mrseq	r0, (UNDEF: 0)
     3b8:	00000000 	andeq	r0, r0, r0
     3bc:	00003800 	andeq	r3, r0, r0, lsl #16
     3c0:	fa000600 	blx	1bc8 <__code_start__-0x6438>
     3c4:	000007be 			; <UNDEFINED> instruction: 0x000007be
     3c8:	0000009f 	muleq	r0, pc, r0	; <UNPREDICTABLE>
     3cc:	00000000 	andeq	r0, r0, r0
     3d0:	00000100 	andeq	r0, r0, r0, lsl #2
     3d4:	38000000 	stmdacc	r0, {}	; <UNPREDICTABLE>
     3d8:	06000000 	streq	r0, [r0], -r0
     3dc:	07b3fa00 	ldreq	pc, [r3, r0, lsl #20]!
     3e0:	009f0000 	addseq	r0, pc, r0
     3e4:	00000000 	andeq	r0, r0, r0
     3e8:	01000000 	mrseq	r0, (UNDEF: 0)
     3ec:	00000000 	andeq	r0, r0, r0
     3f0:	00003800 	andeq	r3, r0, r0, lsl #16
     3f4:	fa000600 	blx	1bfc <__code_start__-0x6404>
     3f8:	000007a9 	andeq	r0, r0, r9, lsr #15
     3fc:	0000009f 	muleq	r0, pc, r0	; <UNPREDICTABLE>
	...
     408:	00003800 	andeq	r3, r0, r0, lsl #16
     40c:	00003c00 	andeq	r3, r0, r0, lsl #24
     410:	50000100 	andpl	r0, r0, r0, lsl #2
     414:	0000003c 	andeq	r0, r0, ip, lsr r0
     418:	00000040 	andeq	r0, r0, r0, asr #32
     41c:	01f30004 	mvnseq	r0, r4
     420:	00009f50 	andeq	r9, r0, r0, asr pc
	...
     42c:	00dc0000 	sbcseq	r0, ip, r0
     430:	00f00000 	rscseq	r0, r0, r0
     434:	00010000 	andeq	r0, r1, r0
     438:	0000f050 	andeq	pc, r0, r0, asr r0	; <UNPREDICTABLE>
     43c:	00010400 	andeq	r0, r1, r0, lsl #8
     440:	f3000400 	vshl.u8	d0, d0, d0
     444:	009f5001 	addseq	r5, pc, r1
	...
     450:	dc000000 	stcle	0, cr0, [r0], {-0}
     454:	ec000000 	stc	0, cr0, [r0], {-0}
     458:	01000000 	mrseq	r0, (UNDEF: 0)
     45c:	00ec5100 	rsceq	r5, ip, r0, lsl #2
     460:	01040000 	mrseq	r0, (UNDEF: 4)
     464:	00040000 	andeq	r0, r4, r0
     468:	9f5101f3 	svcls	0x005101f3
	...
     478:	000000dc 	ldrdeq	r0, [r0], -ip
     47c:	000000e8 	andeq	r0, r0, r8, ror #1
     480:	e8520001 	ldmda	r2, {r0}^
     484:	04000000 	streq	r0, [r0], #-0
     488:	04000001 	streq	r0, [r0], #-1
     48c:	5201f300 	andpl	pc, r1, #0, 6
     490:	0000009f 	muleq	r0, pc, r0	; <UNPREDICTABLE>
	...
     4a8:	00009c00 	andeq	r9, r0, r0, lsl #24
     4ac:	50000100 	andpl	r0, r0, r0, lsl #2
     4b0:	0000009c 	muleq	r0, ip, r0
     4b4:	000000a4 	andeq	r0, r0, r4, lsr #1
     4b8:	01f30004 	mvnseq	r0, r4
     4bc:	00a49f50 	adceq	r9, r4, r0, asr pc
     4c0:	00a80000 	adceq	r0, r8, r0
     4c4:	00010000 	andeq	r0, r1, r0
     4c8:	0000a850 	andeq	sl, r0, r0, asr r8
     4cc:	0000ac00 	andeq	sl, r0, r0, lsl #24
     4d0:	f3000400 	vshl.u8	d0, d0, d0
     4d4:	ac9f5001 	ldcge	0, cr5, [pc], {1}
     4d8:	bc000000 	stclt	0, cr0, [r0], {-0}
     4dc:	01000000 	mrseq	r0, (UNDEF: 0)
     4e0:	00bc5000 	adcseq	r5, ip, r0
     4e4:	00dc0000 	sbcseq	r0, ip, r0
     4e8:	00040000 	andeq	r0, r4, r0
     4ec:	9f5001f3 	svcls	0x005001f3
	...
     504:	00000098 	muleq	r0, r8, r0
     508:	98510001 	ldmdals	r1, {r0}^
     50c:	a4000000 	strge	r0, [r0], #-0
     510:	04000000 	streq	r0, [r0], #-0
     514:	5101f300 	mrspl	pc, SP_irq	; <UNPREDICTABLE>
     518:	0000a49f 	muleq	r0, pc, r4	; <UNPREDICTABLE>
     51c:	0000b800 	andeq	fp, r0, r0, lsl #16
     520:	51000100 	mrspl	r0, (UNDEF: 16)
     524:	000000b8 	strheq	r0, [r0], -r8
     528:	000000dc 	ldrdeq	r0, [r0], -ip
     52c:	01f30004 	mvnseq	r0, r4
     530:	00009f51 	andeq	r9, r0, r1, asr pc
	...
     544:	002c0000 	eoreq	r0, ip, r0
     548:	00010000 	andeq	r0, r1, r0
     54c:	00002c52 	andeq	r2, r0, r2, asr ip
     550:	0000a400 	andeq	sl, r0, r0, lsl #8
     554:	f3000400 	vshl.u8	d0, d0, d0
     558:	a49f5201 	ldrge	r5, [pc], #513	; 560 <__code_start__-0x7aa0>
     55c:	b4000000 	strlt	r0, [r0], #-0
     560:	01000000 	mrseq	r0, (UNDEF: 0)
     564:	00b45200 	adcseq	r5, r4, r0, lsl #4
     568:	00dc0000 	sbcseq	r0, ip, r0
     56c:	00040000 	andeq	r0, r4, r0
     570:	9f5201f3 	svcls	0x005201f3
	...
     588:	0000002c 	andeq	r0, r0, ip, lsr #32
     58c:	2c530001 	mrrccs	0, 0, r0, r3, cr1
     590:	a4000000 	strge	r0, [r0], #-0
     594:	04000000 	streq	r0, [r0], #-0
     598:	5301f300 	movwpl	pc, #4864	; 0x1300	; <UNPREDICTABLE>
     59c:	0000a49f 	muleq	r0, pc, r4	; <UNPREDICTABLE>
     5a0:	0000b000 	andeq	fp, r0, r0
     5a4:	53000100 	movwpl	r0, #256	; 0x100
     5a8:	000000b0 	strheq	r0, [r0], -r0	; <UNPREDICTABLE>
     5ac:	000000dc 	ldrdeq	r0, [r0], -ip
     5b0:	01f30004 	mvnseq	r0, r4
     5b4:	00009f53 	andeq	r9, r0, r3, asr pc
	...
     5c0:	0000000c 	andeq	r0, r0, ip
     5c4:	000000dc 	ldrdeq	r0, [r0], -ip
     5c8:	00570001 	subseq	r0, r7, r1
	...
     5d4:	00008c00 	andeq	r8, r0, r0, lsl #24
     5d8:	0000a400 	andeq	sl, r0, r0, lsl #8
     5dc:	30000200 	andcc	r0, r0, r0, lsl #4
     5e0:	0000009f 	muleq	r0, pc, r0	; <UNPREDICTABLE>
	...
     5f0:	00001400 	andeq	r1, r0, r0, lsl #8
     5f4:	00002c00 	andeq	r2, r0, r0, lsl #24
     5f8:	30000200 	andcc	r0, r0, r0, lsl #4
     5fc:	00002c9f 	muleq	r0, pc, ip	; <UNPREDICTABLE>
     600:	00004800 	andeq	r4, r0, r0, lsl #16
     604:	5c000100 	stfpls	f0, [r0], {-0}
     608:	0000004c 	andeq	r0, r0, ip, asr #32
     60c:	0000009f 	muleq	r0, pc, r0	; <UNPREDICTABLE>
     610:	a45c0001 	ldrbge	r0, [ip], #-1
     614:	ac000000 	stcge	0, cr0, [r0], {-0}
     618:	02000000 	andeq	r0, r0, #0, 0
     61c:	009f3000 	addseq	r3, pc, r0
	...
     628:	00008c00 	andeq	r8, r0, r0, lsl #24
     62c:	0000a400 	andeq	sl, r0, r0, lsl #8
     630:	31000200 	mrscc	r0, R8_usr
     634:	0000009f 	muleq	r0, pc, r0	; <UNPREDICTABLE>
	...
     640:	14000000 	strne	r0, [r0], #-0
     644:	2c000000 	stccs	0, cr0, [r0], {-0}
     648:	02000000 	andeq	r0, r0, #0, 0
     64c:	2c9f3100 	ldfcss	f3, [pc], {0}
     650:	a4000000 	strge	r0, [r0], #-0
     654:	01000000 	mrseq	r0, (UNDEF: 0)
     658:	00a45400 	adceq	r5, r4, r0, lsl #8
     65c:	00ac0000 	adceq	r0, ip, r0
     660:	00020000 	andeq	r0, r2, r0
     664:	00009f31 	andeq	r9, r0, r1, lsr pc
	...
     670:	00300000 	eorseq	r0, r0, r0
     674:	00580000 	subseq	r0, r8, r0
     678:	00010000 	andeq	r0, r1, r0
     67c:	00005853 	andeq	r5, r0, r3, asr r8
     680:	00006000 	andeq	r6, r0, r0
     684:	72000300 	andvc	r0, r0, #0, 6
     688:	00009f01 	andeq	r9, r0, r1, lsl #30
	...
     694:	00600000 	rsbeq	r0, r0, r0
     698:	006c0000 	rsbeq	r0, ip, r0
     69c:	00010000 	andeq	r0, r1, r0
     6a0:	00006c52 	andeq	r6, r0, r2, asr ip
     6a4:	00007400 	andeq	r7, r0, r0, lsl #8
     6a8:	70000500 	andvc	r0, r0, r0, lsl #10
     6ac:	22007300 	andcs	r7, r0, #0, 6
	...
     6b8:	006c0000 	rsbeq	r0, ip, r0
     6bc:	00780000 	rsbseq	r0, r8, r0
     6c0:	00010000 	andeq	r0, r1, r0
     6c4:	00000052 	andeq	r0, r0, r2, asr r0
     6c8:	00000000 	andeq	r0, r0, r0
     6cc:	8c040300 	stchi	3, cr0, [r4], {-0}
     6d0:	8c000000 	stchi	0, cr0, [r0], {-0}
     6d4:	02000000 	andeq	r0, r0, #0, 0
     6d8:	009f3100 	addseq	r3, pc, r0, lsl #2
     6dc:	00000000 	andeq	r0, r0, r0
     6e0:	05000000 	streq	r0, [r0, #-0]
     6e4:	00008c00 	andeq	r8, r0, r0, lsl #24
     6e8:	0000a400 	andeq	sl, r0, r0, lsl #8
     6ec:	32000200 	andcc	r0, r0, #0, 4
     6f0:	0000009f 	muleq	r0, pc, r0	; <UNPREDICTABLE>
     6f4:	00000000 	andeq	r0, r0, r0
     6f8:	8c000700 	stchi	7, cr0, [r0], {-0}
     6fc:	a4000000 	strge	r0, [r0], #-0
     700:	02000000 	andeq	r0, r0, #0, 0
     704:	009f3000 	addseq	r3, pc, r0
     708:	00000000 	andeq	r0, r0, r0
     70c:	09000000 	stmdbeq	r0, {}	; <UNPREDICTABLE>
     710:	8c001111 	stfhis	f1, [r0], {17}
     714:	8c000000 	stchi	0, cr0, [r0], {-0}
     718:	02000000 	andeq	r0, r0, #0, 0
     71c:	8c9f3000 	ldchi	0, cr3, [pc], {0}
     720:	a4000000 	strge	r0, [r0], #-0
     724:	02000000 	andeq	r0, r0, #0, 0
     728:	009f3100 	addseq	r3, pc, r0, lsl #2
     72c:	00000000 	andeq	r0, r0, r0
     730:	0a000000 	beq	738 <__code_start__-0x78c8>
     734:	00008c0d 	andeq	r8, r0, sp, lsl #24
     738:	00008c00 	andeq	r8, r0, r0, lsl #24
     73c:	03000500 	movweq	r0, #1280	; 0x500
     740:	000095e0 	andeq	r9, r0, r0, ror #11
	...
     74c:	008c0c0b 	addeq	r0, ip, fp, lsl #24
     750:	008c0000 	addeq	r0, ip, r0
     754:	00090000 	andeq	r0, r9, r0
     758:	0093e003 	addseq	lr, r3, r3
     75c:	1f029400 	svcne	0x00029400
     760:	0000009f 	muleq	r0, pc, r0	; <UNPREDICTABLE>
     764:	00000000 	andeq	r0, r0, r0
     768:	8c000f00 	stchi	15, cr0, [r0], {-0}
     76c:	a4000000 	strge	r0, [r0], #-0
     770:	02000000 	andeq	r0, r0, #0, 0
     774:	009f3000 	addseq	r3, pc, r0
     778:	00000000 	andeq	r0, r0, r0
     77c:	13000000 	movwne	r0, #0
     780:	8c000000 	stchi	0, cr0, [r0], {-0}
     784:	9c000000 	stcls	0, cr0, [r0], {-0}
     788:	02000000 	andeq	r0, r0, #0, 0
     78c:	9c027000 	stcls	0, cr7, [r2], {-0}
     790:	9f000000 	svcls	0x00000000
     794:	05000000 	streq	r0, [r0, #-0]
     798:	5001f300 	andpl	pc, r1, r0, lsl #6
     79c:	00000223 	andeq	r0, r0, r3, lsr #4
     7a0:	00000000 	andeq	r0, r0, r0
     7a4:	00150000 	andseq	r0, r5, r0
     7a8:	008c0000 	addeq	r0, ip, r0
     7ac:	009c0000 	addseq	r0, ip, r0
     7b0:	00020000 	andeq	r0, r2, r0
     7b4:	009c0270 	addseq	r0, ip, r0, ror r2
     7b8:	009f0000 	addseq	r0, pc, r0
     7bc:	00050000 	andeq	r0, r5, r0
     7c0:	235001f3 	cmpcs	r0, #-1073741764	; 0xc000003c
     7c4:	00000002 	andeq	r0, r0, r2
	...
     7d0:	2c000000 	stccs	0, cr0, [r0], {-0}
     7d4:	38000000 	stmdacc	r0, {}	; <UNPREDICTABLE>
     7d8:	01000000 	mrseq	r0, (UNDEF: 0)
     7dc:	00385000 	eorseq	r5, r8, r0
     7e0:	00480000 	subeq	r0, r8, r0
     7e4:	00010000 	andeq	r0, r1, r0
     7e8:	00004854 	andeq	r4, r0, r4, asr r8
     7ec:	00005800 	andeq	r5, r0, r0, lsl #16
     7f0:	50000100 	andpl	r0, r0, r0, lsl #2
	...
     7fc:	00010100 	andeq	r0, r1, r0, lsl #2
     800:	00000000 	andeq	r0, r0, r0
     804:	00000008 	andeq	r0, r0, r8
     808:	08500001 	ldmdaeq	r0, {r0}^
     80c:	34000000 	strcc	r0, [r0], #-0
     810:	01000000 	mrseq	r0, (UNDEF: 0)
     814:	00005400 	andeq	r5, r0, r0, lsl #8
	...
     824:	00000288 	andeq	r0, r0, r8, lsl #5
     828:	000002b8 			; <UNDEFINED> instruction: 0x000002b8
     82c:	b8500001 	ldmdalt	r0, {r0}^
     830:	04000002 	streq	r0, [r0], #-2
     834:	01000007 	tsteq	r0, r7
     838:	07045900 	streq	r5, [r4, -r0, lsl #18]
     83c:	07400000 	strbeq	r0, [r0, -r0]
     840:	00040000 	andeq	r0, r4, r0
     844:	9f5001f3 	svcls	0x005001f3
	...
     854:	02880000 	addeq	r0, r8, #0, 0
     858:	02a00000 	adceq	r0, r0, #0, 0
     85c:	00010000 	andeq	r0, r1, r0
     860:	0002a051 	andeq	sl, r2, r1, asr r0
     864:	0002b800 	andeq	fp, r2, r0, lsl #16
     868:	71000300 	mrsvc	r0, LR_irq
     86c:	02b89f01 	adcseq	r9, r8, #1, 30
     870:	07400000 	strbeq	r0, [r0, -r0]
     874:	00040000 	andeq	r0, r4, r0
     878:	9f5101f3 	svcls	0x005101f3
	...
     890:	00000288 	andeq	r0, r0, r8, lsl #5
     894:	000002b8 			; <UNDEFINED> instruction: 0x000002b8
     898:	b8520001 	ldmdalt	r2, {r0}^
     89c:	ec000002 	stc	0, cr0, [r0], {2}
     8a0:	01000003 	tsteq	r0, r3
     8a4:	03ec5600 	mvneq	r5, #0, 12
     8a8:	04b80000 	ldrteq	r0, [r8], #0
     8ac:	00010000 	andeq	r0, r1, r0
     8b0:	0004b85b 	andeq	fp, r4, fp, asr r8
     8b4:	0004d800 	andeq	sp, r4, r0, lsl #16
     8b8:	56000100 	strpl	r0, [r0], -r0, lsl #2
     8bc:	000004d8 	ldrdeq	r0, [r0], -r8
     8c0:	0000055c 	andeq	r0, r0, ip, asr r5
     8c4:	5c5b0001 	mrrcpl	0, 0, r0, fp, cr1
     8c8:	04000005 	streq	r0, [r0], #-5
     8cc:	01000007 	tsteq	r0, r7
     8d0:	00005600 	andeq	r5, r0, r0, lsl #12
     8d4:	00000000 	andeq	r0, r0, r0
     8d8:	00010000 	andeq	r0, r1, r0
     8dc:	00000000 	andeq	r0, r0, r0
     8e0:	00010100 	andeq	r0, r1, r0, lsl #2
     8e4:	00000000 	andeq	r0, r0, r0
     8e8:	00020200 	andeq	r0, r2, r0, lsl #4
     8ec:	029c0000 	addseq	r0, ip, #0, 0
     8f0:	02b80000 	adcseq	r0, r8, #0, 0
     8f4:	00010000 	andeq	r0, r1, r0
     8f8:	0002b850 	andeq	fp, r2, r0, asr r8
     8fc:	0002bc00 	andeq	fp, r2, r0, lsl #24
     900:	54000100 	strpl	r0, [r0], #-256	; 0xffffff00
     904:	000002bc 			; <UNDEFINED> instruction: 0x000002bc
     908:	000002c0 	andeq	r0, r0, r0, asr #5
     90c:	01740003 	cmneq	r4, r3
     910:	0002c09f 	muleq	r2, pc, r0	; <UNPREDICTABLE>
     914:	0002e400 	andeq	lr, r2, r0, lsl #8
     918:	54000100 	strpl	r0, [r0], #-256	; 0xffffff00
     91c:	000002e4 	andeq	r0, r0, r4, ror #5
     920:	000002e8 	andeq	r0, r0, r8, ror #5
     924:	01740003 	cmneq	r4, r3
     928:	0002e89f 	muleq	r2, pc, r8	; <UNPREDICTABLE>
     92c:	0006d400 	andeq	sp, r6, r0, lsl #8
     930:	54000100 	strpl	r0, [r0], #-256	; 0xffffff00
     934:	000006d4 	ldrdeq	r0, [r0], -r4
     938:	000006d8 	ldrdeq	r0, [r0], -r8
     93c:	01740003 	cmneq	r4, r3
     940:	0006d89f 	muleq	r6, pc, r8	; <UNPREDICTABLE>
     944:	0006f000 	andeq	pc, r6, r0
     948:	54000100 	strpl	r0, [r0], #-256	; 0xffffff00
     94c:	000006f0 	strdeq	r0, [r0], -r0	; <UNPREDICTABLE>
     950:	000006f8 	strdeq	r0, [r0], -r8
     954:	01740003 	cmneq	r4, r3
     958:	0006f89f 	muleq	r6, pc, r8	; <UNPREDICTABLE>
     95c:	00070400 	andeq	r0, r7, r0, lsl #8
     960:	54000100 	strpl	r0, [r0], #-256	; 0xffffff00
	...
     970:	000002a4 	andeq	r0, r0, r4, lsr #5
     974:	00000704 	andeq	r0, r0, r4, lsl #14
     978:	04580001 	ldrbeq	r0, [r8], #-1
     97c:	40000007 	andmi	r0, r0, r7
     980:	0a000007 	beq	9a4 <__code_start__-0x765c>
     984:	5101f300 	mrspl	pc, SP_irq	; <UNPREDICTABLE>
     988:	225001f3 	subscs	r0, r0, #-1073741764	; 0xc000003c
     98c:	009f1c31 	addseq	r1, pc, r1, lsr ip	; <UNPREDICTABLE>
     990:	00000000 	andeq	r0, r0, r0
     994:	01000000 	mrseq	r0, (UNDEF: 0)
     998:	00000000 	andeq	r0, r0, r0
     99c:	00040800 	andeq	r0, r4, r0, lsl #16
     9a0:	00047400 	andeq	r7, r4, r0, lsl #8
     9a4:	57000100 	strpl	r0, [r0, -r0, lsl #2]
     9a8:	000004d8 	ldrdeq	r0, [r0], -r8
     9ac:	000004fc 	strdeq	r0, [r0], -ip
     9b0:	40570001 	subsmi	r0, r7, r1
     9b4:	5c000005 	stcpl	0, cr0, [r0], {5}
     9b8:	01000005 	tsteq	r0, r5
     9bc:	00005700 	andeq	r5, r0, r0, lsl #14
     9c0:	00000000 	andeq	r0, r0, r0
     9c4:	00020000 	andeq	r0, r2, r0
     9c8:	04080000 	streq	r0, [r8], #-0
     9cc:	04b80000 	ldrteq	r0, [r8], #0
     9d0:	00010000 	andeq	r0, r1, r0
     9d4:	0004d85a 	andeq	sp, r4, sl, asr r8
     9d8:	00055c00 	andeq	r5, r5, r0, lsl #24
     9dc:	5a000100 	bpl	de4 <__code_start__-0x721c>
	...
     9e8:	00000001 	andeq	r0, r0, r1
     9ec:	000002ac 	andeq	r0, r0, ip, lsr #5
     9f0:	000002b8 			; <UNDEFINED> instruction: 0x000002b8
     9f4:	b8520001 	ldmdalt	r2, {r0}^
     9f8:	40000002 	andmi	r0, r0, r2
     9fc:	03000007 	movweq	r0, #7
     a00:	7dc89100 	stfvcp	f1, [r8]
	...
     a14:	00010100 	andeq	r0, r1, r0, lsl #2
	...
     a20:	04740000 	ldrbteq	r0, [r4], #-0
     a24:	048c0000 	streq	r0, [ip], #0
     a28:	00010000 	andeq	r0, r1, r0
     a2c:	00048c50 	andeq	r8, r4, r0, asr ip
     a30:	0004b800 	andeq	fp, r4, r0, lsl #16
     a34:	57000100 	strpl	r0, [r0, -r0, lsl #2]
     a38:	000004fc 	strdeq	r0, [r0], -ip
     a3c:	00000514 	andeq	r0, r0, r4, lsl r5
     a40:	14500001 	ldrbne	r0, [r0], #-1
     a44:	40000005 	andmi	r0, r0, r5
     a48:	01000005 	tsteq	r0, r5
     a4c:	05a45700 	streq	r5, [r4, #1792]!	; 0x700
     a50:	05a40000 	streq	r0, [r4, #0]!
     a54:	00010000 	andeq	r0, r1, r0
     a58:	0005a450 	andeq	sl, r5, r0, asr r4
     a5c:	0005ac00 	andeq	sl, r5, r0, lsl #24
     a60:	57000100 	strpl	r0, [r0, -r0, lsl #2]
     a64:	000005dc 	ldrdeq	r0, [r0], -ip
     a68:	000005e0 	andeq	r0, r0, r0, ror #11
     a6c:	10500001 	subsne	r0, r0, r1
     a70:	14000006 	strne	r0, [r0], #-6
     a74:	01000006 	tsteq	r0, r6
     a78:	06445000 	strbeq	r5, [r4], -r0
     a7c:	06480000 	strbeq	r0, [r8], -r0
     a80:	00010000 	andeq	r0, r1, r0
     a84:	00068c50 	andeq	r8, r6, r0, asr ip
     a88:	00069000 	andeq	r9, r6, r0
     a8c:	50000100 	andpl	r0, r0, r0, lsl #2
     a90:	000006d0 	ldrdeq	r0, [r0], -r0	; <UNPREDICTABLE>
     a94:	000006f0 	strdeq	r0, [r0], -r0	; <UNPREDICTABLE>
     a98:	00570001 	subseq	r0, r7, r1
     a9c:	00000000 	andeq	r0, r0, r0
     aa0:	02000000 	andeq	r0, r0, #0, 0
     aa4:	00000000 	andeq	r0, r0, r0
     aa8:	0002f400 	andeq	pc, r2, r0, lsl #8
     aac:	0002f800 	andeq	pc, r2, r0, lsl #16
     ab0:	30000200 	andcc	r0, r0, r0, lsl #4
     ab4:	0002f89f 	muleq	r2, pc, r8	; <UNPREDICTABLE>
     ab8:	00031400 	andeq	r1, r3, r0, lsl #8
     abc:	55000100 	strpl	r0, [r0, #-256]	; 0xffffff00
     ac0:	0000031c 	andeq	r0, r0, ip, lsl r3
     ac4:	000006f0 	strdeq	r0, [r0], -r0	; <UNPREDICTABLE>
     ac8:	00550001 	subseq	r0, r5, r1
     acc:	00000000 	andeq	r0, r0, r0
     ad0:	01000000 	mrseq	r0, (UNDEF: 0)
	...
     adc:	0003b800 	andeq	fp, r3, r0, lsl #16
     ae0:	00045400 	andeq	r5, r4, r0, lsl #8
     ae4:	56000100 	strpl	r0, [r0], -r0, lsl #2
     ae8:	00000454 	andeq	r0, r0, r4, asr r4
     aec:	000004b8 			; <UNDEFINED> instruction: 0x000004b8
     af0:	7e7b0003 	cdpvc	0, 7, cr0, cr11, cr3, {0}
     af4:	0004b89f 	muleq	r4, pc, r8	; <UNPREDICTABLE>
     af8:	0004dc00 	andeq	sp, r4, r0, lsl #24
     afc:	56000100 	strpl	r0, [r0], -r0, lsl #2
     b00:	000004dc 	ldrdeq	r0, [r0], -ip
     b04:	00000540 	andeq	r0, r0, r0, asr #10
     b08:	7e7b0003 	cdpvc	0, 7, cr0, cr11, cr3, {0}
     b0c:	0005409f 	muleq	r5, pc, r0	; <UNPREDICTABLE>
     b10:	00055c00 	andeq	r5, r5, r0, lsl #24
     b14:	56000100 	strpl	r0, [r0], -r0, lsl #2
	...
     b24:	00700000 	rsbseq	r0, r0, r0
     b28:	00940000 	addseq	r0, r4, r0
     b2c:	00010000 	andeq	r0, r1, r0
     b30:	00009450 	andeq	r9, r0, r0, asr r4
     b34:	0000fc00 	andeq	pc, r0, r0, lsl #24
     b38:	70000300 	andvc	r0, r0, r0, lsl #6
     b3c:	00fc9f02 	rscseq	r9, ip, r2, lsl #30
     b40:	02240000 	eoreq	r0, r4, #0, 0
     b44:	00040000 	andeq	r0, r4, r0
     b48:	9f5001f3 	svcls	0x005001f3
	...
     b64:	00000070 	andeq	r0, r0, r0, ror r0
     b68:	000000e0 	andeq	r0, r0, r0, ror #1
     b6c:	e0510001 	subs	r0, r1, r1
     b70:	54000000 	strpl	r0, [r0], #-0
     b74:	01000001 	tsteq	r0, r1
     b78:	01545500 	cmpeq	r4, r0, lsl #10
     b7c:	01580000 	cmpeq	r8, r0
     b80:	00010000 	andeq	r0, r1, r0
     b84:	00015851 	andeq	r5, r1, r1, asr r8
     b88:	0001b000 	andeq	fp, r1, r0
     b8c:	55000100 	strpl	r0, [r0, #-256]	; 0xffffff00
     b90:	000001b0 			; <UNDEFINED> instruction: 0x000001b0
     b94:	000001c0 	andeq	r0, r0, r0, asr #3
     b98:	c0510001 	subsgt	r0, r1, r1
     b9c:	e4000001 	str	r0, [r0], #-1
     ba0:	01000001 	tsteq	r0, r1
     ba4:	01e45500 	mvneq	r5, r0, lsl #10
     ba8:	01f80000 	mvnseq	r0, r0
     bac:	00010000 	andeq	r0, r1, r0
     bb0:	0001f851 	andeq	pc, r1, r1, asr r8	; <UNPREDICTABLE>
     bb4:	00022400 	andeq	r2, r2, r0, lsl #8
     bb8:	55000100 	strpl	r0, [r0, #-256]	; 0xffffff00
	...
     bc8:	00000070 	andeq	r0, r0, r0, ror r0
     bcc:	00000084 	andeq	r0, r0, r4, lsl #1
     bd0:	84520001 	ldrbhi	r0, [r2], #-1
     bd4:	24000000 	strcs	r0, [r0], #-0
     bd8:	01000002 	tsteq	r0, r2
     bdc:	00005400 	andeq	r5, r0, r0, lsl #8
	...
     be8:	01000000 	mrseq	r0, (UNDEF: 0)
     bec:	00000000 	andeq	r0, r0, r0
     bf0:	00700000 	rsbseq	r0, r0, r0
     bf4:	00f40000 	rscseq	r0, r4, r0
     bf8:	00010000 	andeq	r0, r1, r0
     bfc:	00014c53 	andeq	r4, r1, r3, asr ip
     c00:	00018000 	andeq	r8, r1, r0
     c04:	53000100 	movwpl	r0, #256	; 0x100
     c08:	00000180 	andeq	r0, r0, r0, lsl #3
     c0c:	0000018c 	andeq	r0, r0, ip, lsl #3
     c10:	01f30004 	mvnseq	r0, r4
     c14:	01b09f53 	asrseq	r9, r3, pc
     c18:	01e80000 	mvneq	r0, r0
     c1c:	00010000 	andeq	r0, r1, r0
     c20:	0001e853 	andeq	lr, r1, r3, asr r8
     c24:	0001ff00 	andeq	pc, r1, r0, lsl #30
     c28:	5c000100 	stfpls	f0, [r0], {-0}
     c2c:	000001ff 	strdeq	r0, [r0], -pc	; <UNPREDICTABLE>
     c30:	00000224 	andeq	r0, r0, r4, lsr #4
     c34:	01f30004 	mvnseq	r0, r4
     c38:	00009f53 	andeq	r9, r0, r3, asr pc
	...
     c48:	00000070 	andeq	r0, r0, r0, ror r0
     c4c:	0000008c 	andeq	r0, r0, ip, lsl #1
     c50:	00910002 	addseq	r0, r1, r2
     c54:	0000008c 	andeq	r0, r0, ip, lsl #1
     c58:	00000193 	muleq	r0, r3, r1
     c5c:	b0520001 	subslt	r0, r2, r1
     c60:	f4000001 	vst4.8	{d0-d3}, [r0], r1
     c64:	01000001 	tsteq	r0, r1
     c68:	00005200 	andeq	r5, r0, r0, lsl #4
     c6c:	00000000 	andeq	r0, r0, r0
     c70:	00010000 	andeq	r0, r1, r0
     c74:	00010100 	andeq	r0, r1, r0, lsl #2
     c78:	00000000 	andeq	r0, r0, r0
     c7c:	01000000 	mrseq	r0, (UNDEF: 0)
     c80:	00010101 	andeq	r0, r1, r1, lsl #2
     c84:	00010100 	andeq	r0, r1, r0, lsl #2
	...
     c90:	008c0000 	addeq	r0, ip, r0
     c94:	00fc0000 	rscseq	r0, ip, r0
     c98:	00040000 	andeq	r0, r4, r0
     c9c:	9f7fa091 	svcls	0x007fa091
     ca0:	000000fc 	strdeq	r0, [r0], -ip
     ca4:	0000013c 	andeq	r0, r0, ip, lsr r1
     ca8:	3c500001 	mrrccc	0, 0, r0, r0, cr1	; <UNPREDICTABLE>
     cac:	48000001 	stmdami	r0, {r0}
     cb0:	03000001 	movweq	r0, #1
     cb4:	9f027100 	svcls	0x00027100
     cb8:	00000148 	andeq	r0, r0, r8, asr #2
     cbc:	0000014c 	andeq	r0, r0, ip, asr #2
     cc0:	4c500001 	mrrcmi	0, 0, r0, r0, cr1	; <UNPREDICTABLE>
     cc4:	58000001 	stmdapl	r0, {r0}
     cc8:	04000001 	streq	r0, [r0], #-1
     ccc:	7fa09100 	svcvc	0x00a09100
     cd0:	0001589f 	muleq	r1, pc, r8	; <UNPREDICTABLE>
     cd4:	00016c00 	andeq	r6, r1, r0, lsl #24
     cd8:	51000100 	mrspl	r0, (UNDEF: 16)
     cdc:	0000016c 	andeq	r0, r0, ip, ror #2
     ce0:	00000178 	andeq	r0, r0, r8, ror r1
     ce4:	7f710003 	svcvc	0x00710003
     ce8:	0001789f 	muleq	r1, pc, r8	; <UNPREDICTABLE>
     cec:	00018400 	andeq	r8, r1, r0, lsl #8
     cf0:	71000300 	mrsvc	r0, LR_irq
     cf4:	01849f01 	orreq	r9, r4, r1, lsl #30
     cf8:	01930000 	orrseq	r0, r3, r0
     cfc:	00010000 	andeq	r0, r1, r0
     d00:	0001b050 	andeq	fp, r1, r0, asr r0
     d04:	0001b000 	andeq	fp, r1, r0
     d08:	91000400 	tstls	r0, r0, lsl #8
     d0c:	b09f7fa0 	addslt	r7, pc, r0, lsr #31
     d10:	b8000001 	stmdalt	r0, {r0}
     d14:	04000001 	streq	r0, [r0], #-1
     d18:	7fa19100 	svcvc	0x00a19100
     d1c:	0001b89f 	muleq	r1, pc, r8	; <UNPREDICTABLE>
     d20:	0001bc00 	andeq	fp, r1, r0, lsl #24
     d24:	50000100 	andpl	r0, r0, r0, lsl #2
     d28:	000001bc 			; <UNDEFINED> instruction: 0x000001bc
     d2c:	000001c0 	andeq	r0, r0, r0, asr #3
     d30:	a0910004 	addsge	r0, r1, r4
     d34:	01c09f7f 	biceq	r9, r0, pc, ror pc
     d38:	01d40000 	bicseq	r0, r4, r0
     d3c:	00010000 	andeq	r0, r1, r0
     d40:	0001d450 	andeq	sp, r1, r0, asr r4
     d44:	0001e400 	andeq	lr, r1, r0, lsl #8
     d48:	70000300 	andvc	r0, r0, r0, lsl #6
     d4c:	01e49f7f 	mvneq	r9, pc, ror pc
     d50:	02240000 	eoreq	r0, r4, #0, 0
     d54:	00040000 	andeq	r0, r4, r0
     d58:	9f7fa091 	svcls	0x007fa091
	...
     d64:	01000000 	mrseq	r0, (UNDEF: 0)
     d68:	00000001 	andeq	r0, r0, r1
	...
     d78:	00000090 	muleq	r0, r0, r0
     d7c:	000000dc 	ldrdeq	r0, [r0], -ip
     d80:	dc5c0001 	mrrcle	0, 0, r0, ip, cr1
     d84:	f4000000 	vst4.8	{d0-d3}, [r0], r0
     d88:	01000000 	mrseq	r0, (UNDEF: 0)
     d8c:	00f45300 	rscseq	r5, r4, r0, lsl #6
     d90:	014c0000 	mrseq	r0, (UNDEF: 76)
     d94:	00010000 	andeq	r0, r1, r0
     d98:	00014c5c 	andeq	r4, r1, ip, asr ip
     d9c:	00015800 	andeq	r5, r1, r0, lsl #16
     da0:	53000100 	movwpl	r0, #256	; 0x100
     da4:	00000158 	andeq	r0, r0, r8, asr r1
     da8:	00000174 	andeq	r0, r0, r4, ror r1
     dac:	b05c0001 	subslt	r0, ip, r1
     db0:	c0000001 	andgt	r0, r0, r1
     db4:	01000001 	tsteq	r0, r1
     db8:	01c05300 	biceq	r5, r0, r0, lsl #6
     dbc:	01dc0000 	bicseq	r0, ip, r0
     dc0:	00010000 	andeq	r0, r1, r0
     dc4:	0001e45c 	andeq	lr, r1, ip, asr r4
     dc8:	0001e800 	andeq	lr, r1, r0, lsl #16
     dcc:	53000100 	movwpl	r0, #256	; 0x100
     dd0:	000001e8 	andeq	r0, r0, r8, ror #3
     dd4:	000001ff 	strdeq	r0, [r0], -pc	; <UNPREDICTABLE>
     dd8:	ff5c0001 			; <UNDEFINED> instruction: 0xff5c0001
     ddc:	24000001 	strcs	r0, [r0], #-1
     de0:	04000002 	streq	r0, [r0], #-2
     de4:	5301f300 	movwpl	pc, #4864	; 0x1300	; <UNPREDICTABLE>
     de8:	0000009f 	muleq	r0, pc, r0	; <UNPREDICTABLE>
     dec:	00000000 	andeq	r0, r0, r0
     df0:	01010100 	mrseq	r0, (UNDEF: 17)
     df4:	00000000 	andeq	r0, r0, r0
     df8:	0000dc00 	andeq	sp, r0, r0, lsl #24
     dfc:	0000f000 	andeq	pc, r0, r0
     e00:	30000200 	andcc	r0, r0, r0, lsl #4
     e04:	0000f09f 	muleq	r0, pc, r0	; <UNPREDICTABLE>
     e08:	0000f800 	andeq	pc, r0, r0, lsl #16
     e0c:	31000200 	mrscc	r0, R8_usr
     e10:	0000fc9f 	muleq	r0, pc, ip	; <UNPREDICTABLE>
     e14:	00014c00 	andeq	r4, r1, r0, lsl #24
     e18:	56000100 	strpl	r0, [r0], -r0, lsl #2
     e1c:	0000014c 	andeq	r0, r0, ip, asr #2
     e20:	00000154 	andeq	r0, r0, r4, asr r1
     e24:	9f300002 	svcls	0x00300002
	...
     e30:	01000000 	mrseq	r0, (UNDEF: 0)
     e34:	01000001 	tsteq	r0, r1
     e38:	00380001 	eorseq	r0, r8, r1
     e3c:	00540000 	subseq	r0, r4, r0
     e40:	00010000 	andeq	r0, r1, r0
     e44:	00005450 	andeq	r5, r0, r0, asr r4
     e48:	00005800 	andeq	r5, r0, r0, lsl #16
     e4c:	52000100 	andpl	r0, r0, #0
     e50:	00000058 	andeq	r0, r0, r8, asr r0
     e54:	00000060 	andeq	r0, r0, r0, rrx
     e58:	01720003 	cmneq	r2, r3
     e5c:	0000609f 	muleq	r0, pc, r0	; <UNPREDICTABLE>
     e60:	00006400 	andeq	r6, r0, r0, lsl #8
     e64:	52000100 	andpl	r0, r0, #0
     e68:	00000064 	andeq	r0, r0, r4, rrx
     e6c:	00000070 	andeq	r0, r0, r0, ror r0
     e70:	01720003 	cmneq	r2, r3
     e74:	0000009f 	muleq	r0, pc, r0	; <UNPREDICTABLE>
	...
     e80:	00003800 	andeq	r3, r0, r0, lsl #16
     e84:	00005000 	andeq	r5, r0, r0
     e88:	51000100 	mrspl	r0, (UNDEF: 16)
     e8c:	00000050 	andeq	r0, r0, r0, asr r0
     e90:	00000070 	andeq	r0, r0, r0, ror r0
     e94:	01f30004 	mvnseq	r0, r4
     e98:	00009f51 	andeq	r9, r0, r1, asr pc
	...
     ea4:	01000000 	mrseq	r0, (UNDEF: 0)
     ea8:	00380001 	eorseq	r0, r8, r1
     eac:	00500000 	subseq	r0, r0, r0
     eb0:	00010000 	andeq	r0, r1, r0
     eb4:	00005052 	andeq	r5, r0, r2, asr r0
     eb8:	00005c00 	andeq	r5, r0, r0, lsl #24
     ebc:	51000100 	mrspl	r0, (UNDEF: 16)
     ec0:	0000005c 	andeq	r0, r0, ip, asr r0
     ec4:	00000060 	andeq	r0, r0, r0, rrx
     ec8:	01710003 	cmneq	r1, r3
     ecc:	0000609f 	muleq	r0, pc, r0	; <UNPREDICTABLE>
     ed0:	00007000 	andeq	r7, r0, r0
     ed4:	51000100 	mrspl	r0, (UNDEF: 16)
	...
     ee4:	00000038 	andeq	r0, r0, r8, lsr r0
     ee8:	0000004c 	andeq	r0, r0, ip, asr #32
     eec:	4c530001 	mrrcmi	0, 0, r0, r3, cr1
     ef0:	68000000 	stmdavs	r0, {}	; <UNPREDICTABLE>
     ef4:	01000000 	mrseq	r0, (UNDEF: 0)
     ef8:	00005300 	andeq	r5, r0, r0, lsl #6
	...
     f08:	00400000 	subeq	r0, r0, r0
     f0c:	00480000 	subeq	r0, r8, r0
     f10:	00010000 	andeq	r0, r1, r0
     f14:	0000485c 	andeq	r4, r0, ip, asr r8
     f18:	00004c00 	andeq	r4, r0, r0, lsl #24
     f1c:	72000800 	andvc	r0, r0, #0, 16
     f20:	1c007300 	stcne	3, cr7, [r0], {-0}
     f24:	4c9f0123 	ldfmis	f0, [pc], {35}	; 0x23
     f28:	54000000 	strpl	r0, [r0], #-0
     f2c:	09000000 	stmdbeq	r0, {}	; <UNPREDICTABLE>
     f30:	f3007200 	vhsub.u8	d7, d0, d0
     f34:	231c5301 	tstcs	ip, #67108864	; 0x4000000
     f38:	00549f01 	subseq	r9, r4, r1, lsl #30
     f3c:	00700000 	rsbseq	r0, r0, r0
     f40:	000a0000 	andeq	r0, sl, r0
     f44:	f35201f3 	vbsl	q8, q9, <illegal reg q9.5>
     f48:	231c5301 	tstcs	ip, #67108864	; 0x4000000
     f4c:	00009f01 	andeq	r9, r0, r1, lsl #30
     f50:	00000000 	andeq	r0, r0, r0
     f54:	00010000 	andeq	r0, r1, r0
     f58:	0000004c 	andeq	r0, r0, ip, asr #32
     f5c:	00000070 	andeq	r0, r0, r0, ror r0
     f60:	00500001 	subseq	r0, r0, r1
	...
     f6c:	00000101 	andeq	r0, r0, r1, lsl #2
     f70:	00001400 	andeq	r1, r0, r0, lsl #8
     f74:	00001c00 	andeq	r1, r0, r0, lsl #24
     f78:	50000100 	andpl	r0, r0, r0, lsl #2
     f7c:	0000001c 	andeq	r0, r0, ip, lsl r0
     f80:	00000024 	andeq	r0, r0, r4, lsr #32
     f84:	01700003 	cmneq	r0, r3
     f88:	0000249f 	muleq	r0, pc, r4	; <UNPREDICTABLE>
     f8c:	00003800 	andeq	r3, r0, r0, lsl #16
     f90:	50000100 	andpl	r0, r0, r0, lsl #2
	...
     fa0:	00000014 	andeq	r0, r0, r4, lsl r0
     fa4:	00000018 	andeq	r0, r0, r8, lsl r0
     fa8:	18510001 	ldmdane	r1, {r0}^
     fac:	38000000 	stmdacc	r0, {}	; <UNPREDICTABLE>
     fb0:	04000000 	streq	r0, [r0], #-0
     fb4:	5101f300 	mrspl	pc, SP_irq	; <UNPREDICTABLE>
     fb8:	0000009f 	muleq	r0, pc, r0	; <UNPREDICTABLE>
     fbc:	00000000 	andeq	r0, r0, r0
     fc0:	18000000 	stmdane	r0, {}	; <UNPREDICTABLE>
     fc4:	38000000 	stmdacc	r0, {}	; <UNPREDICTABLE>
     fc8:	01000000 	mrseq	r0, (UNDEF: 0)
     fcc:	00005100 	andeq	r5, r0, r0, lsl #2
	...
     fe0:	00000004 	andeq	r0, r0, r4
     fe4:	04500001 	ldrbeq	r0, [r0], #-1
     fe8:	0c000000 	stceq	0, cr0, [r0], {-0}
     fec:	03000000 	movweq	r0, #0
     ff0:	9f307000 	svcls	0x00307000
     ff4:	0000000c 	andeq	r0, r0, ip
     ff8:	00000014 	andeq	r0, r0, r4, lsl r0
     ffc:	01f30004 	mvnseq	r0, r4
    1000:	00009f50 	andeq	r9, r0, r0, asr pc
	...
    100c:	02240000 	eoreq	r0, r4, #0, 0
    1010:	02680000 	rsbeq	r0, r8, #0, 0
    1014:	00010000 	andeq	r0, r1, r0
    1018:	00026850 	andeq	r6, r2, r0, asr r8
    101c:	00028800 	andeq	r8, r2, r0, lsl #16
    1020:	f3000400 	vshl.u8	d0, d0, d0
    1024:	009f5001 	addseq	r5, pc, r1
	...
    1030:	24000000 	strcs	r0, [r0], #-0
    1034:	64000002 	strvs	r0, [r0], #-2
    1038:	01000002 	tsteq	r0, r2
    103c:	02645100 	rsbeq	r5, r4, #0
    1040:	02880000 	addeq	r0, r8, #0, 0
    1044:	00040000 	andeq	r0, r4, r0
    1048:	9f5101f3 	svcls	0x005101f3
	...
    1054:	00010100 	andeq	r0, r1, r0, lsl #2
    1058:	8b340000 	blhi	d01060 <__bss_end__+0xcf7278>
    105c:	8b340000 	blhi	d01064 <__bss_end__+0xcf727c>
    1060:	00010000 	andeq	r0, r1, r0
    1064:	008b3453 	addeq	r3, fp, r3, asr r4
    1068:	008b3800 	addeq	r3, fp, r0, lsl #16
    106c:	73000700 	movwvc	r0, #1792	; 0x700
    1070:	efff0b00 	svc	0x00ff0b00
    1074:	8b389f1a 	blhi	e28ce4 <__bss_end__+0xe1eefc>
    1078:	8b400000 	blhi	1001080 <__bss_end__+0xff7298>
    107c:	00010000 	andeq	r0, r1, r0
    1080:	00000053 	andeq	r0, r0, r3, asr r0
    1084:	00000000 	andeq	r0, r0, r0
    1088:	01010000 	mrseq	r0, (UNDEF: 1)
    108c:	24000000 	strcs	r0, [r0], #-0
    1090:	2400008b 	strcs	r0, [r0], #-139	; 0xffffff75
    1094:	0100008b 	smlabbeq	r0, fp, r0, r0
    1098:	8b245300 	blhi	915ca0 <__bss_end__+0x90beb8>
    109c:	8b280000 	blhi	a010a4 <__bss_end__+0x9f72bc>
    10a0:	00070000 	andeq	r0, r7, r0
    10a4:	000a0073 	andeq	r0, sl, r3, ror r0
    10a8:	289f2110 	ldmcs	pc, {r4, r8, sp}	; <UNPREDICTABLE>
    10ac:	3000008b 	andcc	r0, r0, fp, lsl #1
    10b0:	0100008b 	smlabbeq	r0, fp, r0, r0
    10b4:	00005300 	andeq	r5, r0, r0, lsl #6
    10b8:	00000000 	andeq	r0, r0, r0
    10bc:	01000000 	mrseq	r0, (UNDEF: 0)
    10c0:	00000001 	andeq	r0, r0, r1
    10c4:	0000000c 	andeq	r0, r0, ip
    10c8:	00000014 	andeq	r0, r0, r4, lsl r0
    10cc:	14530001 	ldrbne	r0, [r3], #-1
    10d0:	1c000000 	stcne	0, cr0, [r0], {-0}
    10d4:	03000000 	movweq	r0, #0
    10d8:	9f047300 	svcls	0x00047300
    10dc:	0000001c 	andeq	r0, r0, ip, lsl r0
    10e0:	00000023 	andeq	r0, r0, r3, lsr #32
    10e4:	00530001 	subseq	r0, r3, r1
    10e8:	00000000 	andeq	r0, r0, r0
    10ec:	01000000 	mrseq	r0, (UNDEF: 0)
    10f0:	008c1000 	addeq	r1, ip, r0
    10f4:	008c2c00 	addeq	r2, ip, r0, lsl #24
    10f8:	0c000600 	stceq	6, cr0, [r0], {-0}
    10fc:	2010001c 	andscs	r0, r0, ip, lsl r0
    1100:	0000009f 	muleq	r0, pc, r0	; <UNPREDICTABLE>
    1104:	00000000 	andeq	r0, r0, r0
    1108:	10000200 	andne	r0, r0, r0, lsl #4
    110c:	2c00008c 	stccs	0, cr0, [r0], {140}	; 0x8c
    1110:	0600008c 	streq	r0, [r0], -ip, lsl #1
    1114:	00240c00 	eoreq	r0, r4, r0, lsl #24
    1118:	009f2010 	addseq	r2, pc, r0, lsl r0	; <UNPREDICTABLE>
    111c:	00000000 	andeq	r0, r0, r0
    1120:	03000000 	movweq	r0, #0
    1124:	008c1000 	addeq	r1, ip, r0
    1128:	008c2c00 	addeq	r2, ip, r0, lsl #24
    112c:	08000500 	stmdaeq	r0, {r8, sl}
    1130:	9f2447b4 	svcls	0x002447b4
	...
    113c:	8c100004 	ldchi	0, cr0, [r0], {4}
    1140:	8c2c0000 	stchi	0, cr0, [ip], #-0
    1144:	00030000 	andeq	r0, r3, r0
    1148:	009f2008 	addseq	r2, pc, r8
    114c:	00000000 	andeq	r0, r0, r0
    1150:	02000000 	andeq	r0, r0, #0, 0
    1154:	00000000 	andeq	r0, r0, r0
    1158:	008bdc00 	addeq	sp, fp, r0, lsl #24
    115c:	008be000 	addeq	lr, fp, r0
    1160:	30000200 	andcc	r0, r0, r0, lsl #4
    1164:	008be09f 	umulleq	lr, fp, pc, r0	; <UNPREDICTABLE>
    1168:	008be400 	addeq	lr, fp, r0, lsl #8
    116c:	53000100 	movwpl	r0, #256	; 0x100
    1170:	00008be8 	andeq	r8, r0, r8, ror #23
    1174:	00008bf0 	strdeq	r8, [r0], -r0
    1178:	00530001 	subseq	r0, r3, r1
    117c:	00000000 	andeq	r0, r0, r0
    1180:	02000000 	andeq	r0, r0, #0, 0
    1184:	c4000000 	strgt	r0, [r0], #-0
    1188:	c800008b 	stmdagt	r0, {r0, r1, r3, r7}
    118c:	0200008b 	andeq	r0, r0, #139, 0	; 0x8b
    1190:	c89f3000 	ldmgt	pc, {ip, sp}	; <UNPREDICTABLE>
    1194:	cc00008b 	stcgt	0, cr0, [r0], {139}	; 0x8b
    1198:	0100008b 	smlabbeq	r0, fp, r0, r0
    119c:	00005000 	andeq	r5, r0, r0
	...
    11a8:	006c0000 	rsbeq	r0, ip, r0
    11ac:	00780000 	rsbseq	r0, r8, r0
    11b0:	00010000 	andeq	r0, r1, r0
    11b4:	00007850 	andeq	r7, r0, r0, asr r8
    11b8:	00008400 	andeq	r8, r0, r0, lsl #8
    11bc:	f3000400 	vshl.u8	d0, d0, d0
    11c0:	009f5001 	addseq	r5, pc, r1
	...
    11cc:	54000000 	strpl	r0, [r0], #-0
    11d0:	60000000 	andvs	r0, r0, r0
    11d4:	01000000 	mrseq	r0, (UNDEF: 0)
    11d8:	00605000 	rsbeq	r5, r0, r0
    11dc:	006c0000 	rsbeq	r0, ip, r0
    11e0:	00040000 	andeq	r0, r4, r0
    11e4:	9f5001f3 	svcls	0x005001f3
	...
    11f4:	00000030 	andeq	r0, r0, r0, lsr r0
    11f8:	0000003b 	andeq	r0, r0, fp, lsr r0
    11fc:	3b500001 	blcc	1401208 <__bss_end__+0x13f7420>
    1200:	54000000 	strpl	r0, [r0], #-0
    1204:	01000000 	mrseq	r0, (UNDEF: 0)
    1208:	00005500 	andeq	r5, r0, r0, lsl #10
	...
    1214:	00000040 	andeq	r0, r0, r0, asr #32
    1218:	00000054 	andeq	r0, r0, r4, asr r0
    121c:	00540001 	subseq	r0, r4, r1
	...
    1228:	00004400 	andeq	r4, r0, r0, lsl #8
    122c:	00004800 	andeq	r4, r0, r0, lsl #16
    1230:	50000100 	andpl	r0, r0, r0, lsl #2
	...
    1240:	00000024 	andeq	r0, r0, r4, lsr #32
    1244:	00000027 	andeq	r0, r0, r7, lsr #32
    1248:	27500001 	ldrbcs	r0, [r0, -r1]
    124c:	30000000 	andcc	r0, r0, r0
    1250:	01000000 	mrseq	r0, (UNDEF: 0)
    1254:	00005400 	andeq	r5, r0, r0, lsl #8
	...
    1264:	00e80000 	rsceq	r0, r8, r0
    1268:	01000000 	mrseq	r0, (UNDEF: 0)
    126c:	00010000 	andeq	r0, r1, r0
    1270:	00010050 	andeq	r0, r1, r0, asr r0
    1274:	00011000 	andeq	r1, r1, r0
    1278:	f3000400 	vshl.u8	d0, d0, d0
    127c:	109f5001 	addsne	r5, pc, r1
    1280:	14000001 	strne	r0, [r0], #-1
    1284:	01000001 	tsteq	r0, r1
    1288:	01145000 	tsteq	r4, r0
    128c:	011c0000 	tsteq	ip, r0
    1290:	00040000 	andeq	r0, r4, r0
    1294:	9f5001f3 	svcls	0x005001f3
	...
    12a0:	00000001 	andeq	r0, r0, r1
    12a4:	00f40000 	rscseq	r0, r4, r0
    12a8:	01000000 	mrseq	r0, (UNDEF: 0)
    12ac:	000b0000 	andeq	r0, fp, r0
    12b0:	25350070 	ldrcs	r0, [r5, #-112]!	; 0xffffff90
    12b4:	8080b423 	addhi	fp, r0, r3, lsr #8
    12b8:	009f0281 	addseq	r0, pc, r1, lsl #5
    12bc:	03000001 	movweq	r0, #1
    12c0:	01000001 	tsteq	r0, r1
    12c4:	01035000 	mrseq	r5, (UNDEF: 3)
    12c8:	01100000 	tsteq	r0, r0
    12cc:	000c0000 	andeq	r0, ip, r0
    12d0:	355001f3 	ldrbcc	r0, [r0, #-499]	; 0xfffffe0d
    12d4:	80b42325 	adcshi	r2, r4, r5, lsr #6
    12d8:	9f028180 	svcls	0x00028180
	...
    12e4:	00f80000 	rscseq	r0, r8, r0
    12e8:	01100000 	tsteq	r0, r0
    12ec:	00010000 	andeq	r0, r1, r0
    12f0:	00000054 	andeq	r0, r0, r4, asr r0
	...
    1300:	0000cc00 	andeq	ip, r0, r0, lsl #24
    1304:	0000db00 	andeq	sp, r0, r0, lsl #22
    1308:	50000100 	andpl	r0, r0, r0, lsl #2
    130c:	000000db 	ldrdeq	r0, [r0], -fp
    1310:	000000e0 	andeq	r0, r0, r0, ror #1
    1314:	01f30004 	mvnseq	r0, r4
    1318:	00e09f50 	rsceq	r9, r0, r0, asr pc
    131c:	00e30000 	rsceq	r0, r3, r0
    1320:	00010000 	andeq	r0, r1, r0
    1324:	0000e350 	andeq	lr, r0, r0, asr r3
    1328:	0000e800 	andeq	lr, r0, r0, lsl #16
    132c:	f3000400 	vshl.u8	d0, d0, d0
    1330:	009f5001 	addseq	r5, pc, r1
	...
    1340:	cc000000 	stcgt	0, cr0, [r0], {-0}
    1344:	db000000 	blle	134c <__code_start__-0x6cb4>
    1348:	01000000 	mrseq	r0, (UNDEF: 0)
    134c:	00db5100 	sbcseq	r5, fp, r0, lsl #2
    1350:	00e00000 	rsceq	r0, r0, r0
    1354:	00040000 	andeq	r0, r4, r0
    1358:	9f5101f3 	svcls	0x005101f3
    135c:	000000e0 	andeq	r0, r0, r0, ror #1
    1360:	000000e3 	andeq	r0, r0, r3, ror #1
    1364:	e3510001 	cmp	r1, #1, 0
    1368:	e8000000 	stmda	r0, {}	; <UNPREDICTABLE>
    136c:	04000000 	streq	r0, [r0], #-0
    1370:	5101f300 	mrspl	pc, SP_irq	; <UNPREDICTABLE>
    1374:	0000009f 	muleq	r0, pc, r0	; <UNPREDICTABLE>
	...
    1380:	0000bc00 	andeq	fp, r0, r0, lsl #24
    1384:	0000c700 	andeq	ip, r0, r0, lsl #14
    1388:	50000100 	andpl	r0, r0, r0, lsl #2
    138c:	000000c7 	andeq	r0, r0, r7, asr #1
    1390:	000000cc 	andeq	r0, r0, ip, asr #1
    1394:	01f30004 	mvnseq	r0, r4
    1398:	00009f50 	andeq	r9, r0, r0, asr pc
	...
    13a4:	00980000 	addseq	r0, r8, r0
    13a8:	00b00000 	adcseq	r0, r0, r0
    13ac:	00010000 	andeq	r0, r1, r0
    13b0:	0000b050 	andeq	fp, r0, r0, asr r0
    13b4:	0000bc00 	andeq	fp, r0, r0, lsl #24
    13b8:	f3000400 	vshl.u8	d0, d0, d0
    13bc:	009f5001 	addseq	r5, pc, r1
	...
    13c8:	74000000 	strvc	r0, [r0], #-0
    13cc:	8c000000 	stchi	0, cr0, [r0], {-0}
    13d0:	01000000 	mrseq	r0, (UNDEF: 0)
    13d4:	008c5000 	addeq	r5, ip, r0
    13d8:	00980000 	addseq	r0, r8, r0
    13dc:	00040000 	andeq	r0, r4, r0
    13e0:	9f5001f3 	svcls	0x005001f3
	...
    13f0:	00000064 	andeq	r0, r0, r4, rrx
    13f4:	0000006f 	andeq	r0, r0, pc, rrx
    13f8:	6f500001 	svcvs	0x00500001
    13fc:	74000000 	strvc	r0, [r0], #-0
    1400:	04000000 	streq	r0, [r0], #-0
    1404:	5001f300 	andpl	pc, r1, r0, lsl #6
    1408:	0000009f 	muleq	r0, pc, r0	; <UNPREDICTABLE>
	...
    1418:	00003800 	andeq	r3, r0, r0, lsl #16
    141c:	50000100 	andpl	r0, r0, r0, lsl #2
    1420:	00000038 	andeq	r0, r0, r8, lsr r0
    1424:	00000064 	andeq	r0, r0, r4, rrx
    1428:	01f30004 	mvnseq	r0, r4
    142c:	00009f50 	andeq	r9, r0, r0, asr pc
	...
    143c:	00470000 	subeq	r0, r7, r0
    1440:	00010000 	andeq	r0, r1, r0
    1444:	00004751 	andeq	r4, r0, r1, asr r7
    1448:	00006400 	andeq	r6, r0, r0, lsl #8
    144c:	f3000400 	vshl.u8	d0, d0, d0
    1450:	009f5101 	addseq	r5, pc, r1, lsl #2
	...
    145c:	00003400 	andeq	r3, r0, r0, lsl #8
    1460:	00006400 	andeq	r6, r0, r0, lsl #8
    1464:	54000100 	strpl	r0, [r0], #-256	; 0xffffff00
	...
    1470:	00400000 	subeq	r0, r0, r0
    1474:	00640000 	rsbeq	r0, r4, r0
    1478:	00010000 	andeq	r0, r1, r0
    147c:	00000056 	andeq	r0, r0, r6, asr r0
	...
    1488:	00000101 	andeq	r0, r0, r1, lsl #2
    148c:	00004800 	andeq	r4, r0, r0, lsl #16
    1490:	00005000 	andeq	r5, r0, r0
    1494:	50000100 	andpl	r0, r0, r0, lsl #2
    1498:	00000050 	andeq	r0, r0, r0, asr r0
    149c:	00000050 	andeq	r0, r0, r0, asr r0
    14a0:	50510001 	subspl	r0, r1, r1
    14a4:	54000000 	strpl	r0, [r0], #-0
    14a8:	09000000 	stmdbeq	r0, {}	; <UNPREDICTABLE>
    14ac:	74007500 	strvc	r7, [r0], #-1280	; 0xfffffb00
    14b0:	00712400 	rsbseq	r2, r1, r0, lsl #8
    14b4:	00549f21 	subseq	r9, r4, r1, lsr #30
    14b8:	005b0000 	subseq	r0, fp, r0
    14bc:	00010000 	andeq	r0, r1, r0
    14c0:	00000051 	andeq	r0, r0, r1, asr r0
	...
    14cc:	00015800 	andeq	r5, r1, r0, lsl #16
    14d0:	00016300 	andeq	r6, r1, r0, lsl #6
    14d4:	50000100 	andpl	r0, r0, r0, lsl #2
    14d8:	00000163 	andeq	r0, r0, r3, ror #2
    14dc:	00000188 	andeq	r0, r0, r8, lsl #3
    14e0:	00540001 	subseq	r0, r4, r1
	...
    14ec:	00014800 	andeq	r4, r1, r0, lsl #16
    14f0:	00015800 	andeq	r5, r1, r0, lsl #16
    14f4:	54000100 	strpl	r0, [r0], #-256	; 0xffffff00
	...
    1508:	0000000f 	andeq	r0, r0, pc
    150c:	0f500001 	svceq	0x00500001
    1510:	20000000 	andcs	r0, r0, r0
    1514:	01000000 	mrseq	r0, (UNDEF: 0)
    1518:	00005400 	andeq	r5, r0, r0, lsl #8
	...
    1528:	000f0000 	andeq	r0, pc, r0
    152c:	00010000 	andeq	r0, r1, r0
    1530:	00000f51 	andeq	r0, r0, r1, asr pc
    1534:	00002000 	andeq	r2, r0, r0
    1538:	55000100 	strpl	r0, [r0, #-256]	; 0xffffff00
	...
    1548:	00000020 	andeq	r0, r0, r0, lsr #32
    154c:	0000002f 	andeq	r0, r0, pc, lsr #32
    1550:	2f500001 	svccs	0x00500001
    1554:	40000000 	andmi	r0, r0, r0
    1558:	01000000 	mrseq	r0, (UNDEF: 0)
    155c:	00005400 	andeq	r5, r0, r0, lsl #8
	...
    1568:	00200000 	eoreq	r0, r0, r0
    156c:	002f0000 	eoreq	r0, pc, r0
    1570:	00010000 	andeq	r0, r1, r0
    1574:	00002f51 	andeq	r2, r0, r1, asr pc
    1578:	00004000 	andeq	r4, r0, r0
    157c:	55000100 	strpl	r0, [r0, #-256]	; 0xffffff00
	...
    1590:	0000000b 	andeq	r0, r0, fp
    1594:	0b500001 	bleq	14015a0 <__bss_end__+0x13f77b8>
    1598:	14000000 	strne	r0, [r0], #-0
    159c:	01000000 	mrseq	r0, (UNDEF: 0)
    15a0:	00005400 	andeq	r5, r0, r0, lsl #8
	...
    15b0:	001c0000 	andseq	r0, ip, r0
    15b4:	00010000 	andeq	r0, r1, r0
    15b8:	00001c51 	andeq	r1, r0, r1, asr ip
    15bc:	00003400 	andeq	r3, r0, r0, lsl #8
    15c0:	f3000400 	vshl.u8	d0, d0, d0
    15c4:	009f5101 	addseq	r5, pc, r1, lsl #2
    15c8:	00000000 	andeq	r0, r0, r0
    15cc:	02000000 	andeq	r0, r0, #0, 0
    15d0:	00000000 	andeq	r0, r0, r0
    15d4:	00000101 	andeq	r0, r0, r1, lsl #2
    15d8:	00000000 	andeq	r0, r0, r0
    15dc:	00000400 	andeq	r0, r0, r0, lsl #8
    15e0:	50000100 	andpl	r0, r0, r0, lsl #2
    15e4:	00000004 	andeq	r0, r0, r4
    15e8:	0000001c 	andeq	r0, r0, ip, lsl r0
    15ec:	1c520001 	mrrcne	0, 0, r0, r2, cr1
    15f0:	24000000 	strcs	r0, [r0], #-0
    15f4:	01000000 	mrseq	r0, (UNDEF: 0)
    15f8:	00245300 	eoreq	r5, r4, r0, lsl #6
    15fc:	00280000 	eoreq	r0, r8, r0
    1600:	00030000 	andeq	r0, r3, r0
    1604:	289f0173 	ldmcs	pc, {r0, r1, r4, r5, r6, r8}	; <UNPREDICTABLE>
    1608:	34000000 	strcc	r0, [r0], #-0
    160c:	01000000 	mrseq	r0, (UNDEF: 0)
    1610:	00005300 	andeq	r5, r0, r0, lsl #6
    1614:	00000000 	andeq	r0, r0, r0
    1618:	00030000 	andeq	r0, r3, r0
    161c:	00000000 	andeq	r0, r0, r0
    1620:	00240000 	eoreq	r0, r4, r0
    1624:	00010000 	andeq	r0, r1, r0
    1628:	00002451 	andeq	r2, r0, r1, asr r4
    162c:	00003400 	andeq	r3, r0, r0, lsl #8
    1630:	71000300 	mrsvc	r0, LR_irq
    1634:	00009f7f 	andeq	r9, r0, pc, ror pc
	...
    1640:	00100000 	andseq	r0, r0, r0
    1644:	001c0000 	andseq	r0, ip, r0
    1648:	00010000 	andeq	r0, r1, r0
    164c:	0000245c 	andeq	r2, r0, ip, asr r4
    1650:	00003400 	andeq	r3, r0, r0, lsl #8
    1654:	52000100 	andpl	r0, r0, #0
	...
    1668:	00000018 	andeq	r0, r0, r8, lsl r0
    166c:	18500001 	ldmdane	r0, {r0}^
    1670:	24000000 	strcs	r0, [r0], #-0
    1674:	01000000 	mrseq	r0, (UNDEF: 0)
    1678:	00005000 	andeq	r5, r0, r0
	...
    1688:	001c0000 	andseq	r0, ip, r0
    168c:	00010000 	andeq	r0, r1, r0
    1690:	00001c51 	andeq	r1, r0, r1, asr ip
    1694:	00002c00 	andeq	r2, r0, r0, lsl #24
    1698:	51000100 	mrspl	r0, (UNDEF: 16)
	...
    16ac:	00040000 	andeq	r0, r4, r0
    16b0:	00010000 	andeq	r0, r1, r0
    16b4:	00000451 	andeq	r0, r0, r1, asr r4
    16b8:	00000c00 	andeq	r0, r0, r0, lsl #24
    16bc:	51000100 	mrspl	r0, (UNDEF: 16)
    16c0:	0000000c 	andeq	r0, r0, ip
    16c4:	00000020 	andeq	r0, r0, r0, lsr #32
    16c8:	7f710003 	svcvc	0x00710003
    16cc:	0000009f 	muleq	r0, pc, r0	; <UNPREDICTABLE>
    16d0:	00000000 	andeq	r0, r0, r0
    16d4:	00000200 	andeq	r0, r0, r0, lsl #4
    16d8:	00000000 	andeq	r0, r0, r0
    16dc:	04000000 	streq	r0, [r0], #-0
    16e0:	01000000 	mrseq	r0, (UNDEF: 0)
    16e4:	00045000 	andeq	r5, r4, r0
    16e8:	00140000 	andseq	r0, r4, r0
    16ec:	00010000 	andeq	r0, r1, r0
    16f0:	0000145c 	andeq	r1, r0, ip, asr r4
    16f4:	00002000 	andeq	r2, r0, r0
    16f8:	7c000300 	stcvc	3, cr0, [r0], {-0}
    16fc:	00009f7f 	andeq	r9, r0, pc, ror pc
    1700:	00000000 	andeq	r0, r0, r0
    1704:	03000000 	movweq	r0, #0
    1708:	90900003 	addsls	r0, r0, r3
    170c:	90900000 	addsls	r0, r0, r0
    1710:	00010000 	andeq	r0, r1, r0
    1714:	00909050 	addseq	r9, r0, r0, asr r0
    1718:	0090bc00 	addseq	fp, r0, r0, lsl #24
    171c:	f3000400 	vshl.u8	d0, d0, d0
    1720:	009f5001 	addseq	r5, pc, r1
	...
    172c:	90000303 	andls	r0, r0, r3, lsl #6
    1730:	90000090 	mulls	r0, r0, r0
    1734:	01000090 	swpeq	r0, r0, [r0]	; <UNPREDICTABLE>
    1738:	90905100 	addsls	r5, r0, r0, lsl #2
    173c:	90bc0000 	adcsls	r0, ip, r0
    1740:	00040000 	andeq	r0, r4, r0
    1744:	9f5101f3 	svcls	0x005101f3
	...
    1750:	00030300 	andeq	r0, r3, r0, lsl #6
    1754:	90900000 	addsls	r0, r0, r0
    1758:	90900000 	addsls	r0, r0, r0
    175c:	00010000 	andeq	r0, r1, r0
    1760:	00909052 	addseq	r9, r0, r2, asr r0
    1764:	00909800 	addseq	r9, r0, r0, lsl #16
    1768:	52000100 	andpl	r0, r0, #0
    176c:	00009098 	muleq	r0, r8, r0
    1770:	000090bc 	strheq	r9, [r0], -ip
    1774:	01720003 	cmneq	r2, r3
    1778:	0000009f 	muleq	r0, pc, r0	; <UNPREDICTABLE>
    177c:	00000000 	andeq	r0, r0, r0
    1780:	01010200 	mrseq	r0, R9_usr
    1784:	00000000 	andeq	r0, r0, r0
    1788:	00909000 	addseq	r9, r0, r0
    178c:	00909c00 	addseq	r9, r0, r0, lsl #24
    1790:	50000100 	andpl	r0, r0, r0, lsl #2
    1794:	0000909c 	muleq	r0, ip, r0
    1798:	000090a0 	andeq	r9, r0, r0, lsr #1
    179c:	01700003 	cmneq	r0, r3
    17a0:	0090a09f 	umullseq	sl, r0, pc, r0	; <UNPREDICTABLE>
    17a4:	0090b000 	addseq	fp, r0, r0
    17a8:	50000100 	andpl	r0, r0, r0, lsl #2
    17ac:	000090b4 	strheq	r9, [r0], -r4
    17b0:	000090b8 	strheq	r9, [r0], -r8
    17b4:	00500001 	subseq	r0, r0, r1
    17b8:	00000000 	andeq	r0, r0, r0
    17bc:	02000000 	andeq	r0, r0, #0, 0
    17c0:	00000000 	andeq	r0, r0, r0
    17c4:	00909000 	addseq	r9, r0, r0
    17c8:	0090a000 	addseq	sl, r0, r0
    17cc:	51000100 	mrspl	r0, (UNDEF: 16)
    17d0:	000090a0 	andeq	r9, r0, r0, lsr #1
    17d4:	000090a4 	andeq	r9, r0, r4, lsr #1
    17d8:	01710003 	cmneq	r1, r3
    17dc:	0090a49f 	umullseq	sl, r0, pc, r4	; <UNPREDICTABLE>
    17e0:	0090bc00 	addseq	fp, r0, r0, lsl #24
    17e4:	51000100 	mrspl	r0, (UNDEF: 16)
	...

Disassembly of section .debug_aranges:

00000000 <.debug_aranges>:
   0:	0000001c 	andeq	r0, r0, ip, lsl r0
   4:	00000002 	andeq	r0, r0, r2
   8:	00040000 	andeq	r0, r4, r0
   c:	00000000 	andeq	r0, r0, r0
  10:	00008038 	andeq	r8, r0, r8, lsr r0
  14:	00000048 	andeq	r0, r0, r8, asr #32
	...
  20:	0000001c 	andeq	r0, r0, ip, lsl r0
  24:	018b0002 	orreq	r0, fp, r2
  28:	00040000 	andeq	r0, r4, r0
  2c:	00000000 	andeq	r0, r0, r0
  30:	00008080 	andeq	r8, r0, r0, lsl #1
  34:	000001d0 	ldrdeq	r0, [r0], -r0	; <UNPREDICTABLE>
	...
  40:	0000001c 	andeq	r0, r0, ip, lsl r0
  44:	0ba70002 	bleq	fe9c0054 <__bss_end__+0xfe9b626c>
  48:	00040000 	andeq	r0, r4, r0
  4c:	00000000 	andeq	r0, r0, r0
  50:	00008250 	andeq	r8, r0, r0, asr r2
  54:	00000104 	andeq	r0, r0, r4, lsl #2
	...
  60:	0000001c 	andeq	r0, r0, ip, lsl r0
  64:	114d0002 	cmpne	sp, r2
  68:	00040000 	andeq	r0, r4, r0
  6c:	00000000 	andeq	r0, r0, r0
  70:	00008354 	andeq	r8, r0, r4, asr r3
  74:	00000058 	andeq	r0, r0, r8, asr r0
	...
  80:	0000001c 	andeq	r0, r0, ip, lsl r0
  84:	12ee0002 	rscne	r0, lr, #2, 0
  88:	00040000 	andeq	r0, r4, r0
  8c:	00000000 	andeq	r0, r0, r0
  90:	000083ac 	andeq	r8, r0, ip, lsr #7
  94:	00000034 	andeq	r0, r0, r4, lsr r0
	...
  a0:	0000001c 	andeq	r0, r0, ip, lsl r0
  a4:	13e50002 	mvnne	r0, #2, 0
  a8:	00040000 	andeq	r0, r4, r0
  ac:	00000000 	andeq	r0, r0, r0
  b0:	000083e0 	andeq	r8, r0, r0, ror #7
  b4:	00000740 	andeq	r0, r0, r0, asr #14
	...
  c0:	0000001c 	andeq	r0, r0, ip, lsl r0
  c4:	1ec00002 	cdpne	0, 12, cr0, cr0, cr2, {0}
  c8:	00040000 	andeq	r0, r4, r0
  cc:	00000000 	andeq	r0, r0, r0
  d0:	00008b20 	andeq	r8, r0, r0, lsr #22
  d4:	00000020 	andeq	r0, r0, r0, lsr #32
	...
  e0:	0000001c 	andeq	r0, r0, ip, lsl r0
  e4:	1fce0002 	svcne	0x00ce0002
  e8:	00040000 	andeq	r0, r4, r0
  ec:	00000000 	andeq	r0, r0, r0
  f0:	00008b40 	andeq	r8, r0, r0, asr #22
  f4:	0000002c 	andeq	r0, r0, ip, lsr #32
	...
 100:	0000001c 	andeq	r0, r0, ip, lsl r0
 104:	21010002 	tstcs	r1, r2
 108:	00040000 	andeq	r0, r4, r0
 10c:	00000000 	andeq	r0, r0, r0
 110:	00008b6c 	andeq	r8, r0, ip, ror #22
 114:	0000003c 	andeq	r0, r0, ip, lsr r0
	...
 120:	0000001c 	andeq	r0, r0, ip, lsl r0
 124:	228e0002 	addcs	r0, lr, #2, 0
 128:	00040000 	andeq	r0, r4, r0
 12c:	00000000 	andeq	r0, r0, r0
 130:	00008ba8 	andeq	r8, r0, r8, lsr #23
 134:	00000004 	andeq	r0, r0, r4
	...
 140:	0000001c 	andeq	r0, r0, ip, lsl r0
 144:	23600002 	cmncs	r0, #2, 0
 148:	00040000 	andeq	r0, r4, r0
 14c:	00000000 	andeq	r0, r0, r0
 150:	00008bc4 	andeq	r8, r0, r4, asr #23
 154:	00000080 	andeq	r0, r0, r0, lsl #1
	...
 160:	0000001c 	andeq	r0, r0, ip, lsl r0
 164:	259a0002 	ldrcs	r0, [sl, #2]
 168:	00040000 	andeq	r0, r4, r0
 16c:	00000000 	andeq	r0, r0, r0
 170:	00008c44 	andeq	r8, r0, r4, asr #24
 174:	00000084 	andeq	r0, r0, r4, lsl #1
	...
 180:	0000001c 	andeq	r0, r0, ip, lsl r0
 184:	27eb0002 	strbcs	r0, [fp, r2]!
 188:	00040000 	andeq	r0, r4, r0
 18c:	00000000 	andeq	r0, r0, r0
 190:	00008cc8 	andeq	r8, r0, r8, asr #25
 194:	0000011c 	andeq	r0, r0, ip, lsl r1
	...
 1a0:	0000001c 	andeq	r0, r0, ip, lsl r0
 1a4:	2b940002 	blcs	fe5001b4 <__bss_end__+0xfe4f63cc>
 1a8:	00040000 	andeq	r0, r4, r0
 1ac:	00000000 	andeq	r0, r0, r0
 1b0:	00008de4 	andeq	r8, r0, r4, ror #27
 1b4:	000001f0 	strdeq	r0, [r0], -r0	; <UNPREDICTABLE>
	...
 1c0:	0000001c 	andeq	r0, r0, ip, lsl r0
 1c4:	31650002 	cmncc	r5, r2
 1c8:	00040000 	andeq	r0, r4, r0
 1cc:	00000000 	andeq	r0, r0, r0
 1d0:	00008fd4 	ldrdeq	r8, [r0], -r4
 1d4:	0000003c 	andeq	r0, r0, ip, lsr r0
	...
 1e0:	0000001c 	andeq	r0, r0, ip, lsl r0
 1e4:	32b20002 	adcscc	r0, r2, #2, 0
 1e8:	00040000 	andeq	r0, r4, r0
 1ec:	00000000 	andeq	r0, r0, r0
 1f0:	00009010 	andeq	r9, r0, r0, lsl r0
 1f4:	00000034 	andeq	r0, r0, r4, lsr r0
	...
 200:	0000001c 	andeq	r0, r0, ip, lsl r0
 204:	33ed0002 	mvncc	r0, #2, 0
 208:	00040000 	andeq	r0, r4, r0
 20c:	00000000 	andeq	r0, r0, r0
 210:	00009044 	andeq	r9, r0, r4, asr #32
 214:	0000002c 	andeq	r0, r0, ip, lsr #32
	...
 220:	0000001c 	andeq	r0, r0, ip, lsl r0
 224:	34e80002 	strbtcc	r0, [r8], #2
 228:	00040000 	andeq	r0, r4, r0
 22c:	00000000 	andeq	r0, r0, r0
 230:	00009070 	andeq	r9, r0, r0, ror r0
 234:	00000020 	andeq	r0, r0, r0, lsr #32
	...
 240:	0000001c 	andeq	r0, r0, ip, lsl r0
 244:	35fb0002 	ldrbcc	r0, [fp, #2]!
 248:	00040000 	andeq	r0, r4, r0
 24c:	00000000 	andeq	r0, r0, r0
 250:	00009090 	muleq	r0, r0, r0
 254:	0000002c 	andeq	r0, r0, ip, lsr #32
	...
 260:	0000001c 	andeq	r0, r0, ip, lsl r0
 264:	374d0002 	strbcc	r0, [sp, -r2]
 268:	00040000 	andeq	r0, r4, r0
 26c:	00000000 	andeq	r0, r0, r0
 270:	000090bc 	strheq	r9, [r0], -ip
 274:	00000004 	andeq	r0, r0, r4
	...

Disassembly of section .debug_ranges:

00000000 <.debug_ranges>:
   0:	0000000c 	andeq	r0, r0, ip
   4:	0000000c 	andeq	r0, r0, ip
   8:	00000010 	andeq	r0, r0, r0, lsl r0
   c:	00000030 	andeq	r0, r0, r0, lsr r0
	...
  18:	000000a0 	andeq	r0, r0, r0, lsr #1
  1c:	000000a0 	andeq	r0, r0, r0, lsr #1
  20:	000000a4 	andeq	r0, r0, r4, lsr #1
  24:	000000ac 	andeq	r0, r0, ip, lsr #1
	...
  30:	000000e8 	andeq	r0, r0, r8, ror #1
  34:	000000e8 	andeq	r0, r0, r8, ror #1
  38:	000000e8 	andeq	r0, r0, r8, ror #1
  3c:	000000e8 	andeq	r0, r0, r8, ror #1
  40:	000000e8 	andeq	r0, r0, r8, ror #1
  44:	000000f0 	strdeq	r0, [r0], -r0	; <UNPREDICTABLE>
	...
  50:	00000108 	andeq	r0, r0, r8, lsl #2
  54:	00000108 	andeq	r0, r0, r8, lsl #2
  58:	00000108 	andeq	r0, r0, r8, lsl #2
  5c:	0000010c 	andeq	r0, r0, ip, lsl #2
	...
  68:	00000140 	andeq	r0, r0, r0, asr #2
  6c:	00000140 	andeq	r0, r0, r0, asr #2
  70:	00000140 	andeq	r0, r0, r0, asr #2
  74:	00000140 	andeq	r0, r0, r0, asr #2
	...
  80:	00000014 	andeq	r0, r0, r4, lsl r0
  84:	00000018 	andeq	r0, r0, r8, lsl r0
  88:	00000028 	andeq	r0, r0, r8, lsr #32
  8c:	0000002c 	andeq	r0, r0, ip, lsr #32
  90:	00000030 	andeq	r0, r0, r0, lsr r0
  94:	0000008c 	andeq	r0, r0, ip, lsl #1
	...
  a0:	00008b20 	andeq	r8, r0, r0, lsr #22
  a4:	00008b40 	andeq	r8, r0, r0, asr #22
	...
  b0:	00008bc4 	andeq	r8, r0, r4, asr #23
  b4:	00008c44 	andeq	r8, r0, r4, asr #24
	...
  c0:	00009090 	muleq	r0, r0, r0
  c4:	000090bc 	strheq	r9, [r0], -ip
	...

Disassembly of section .debug_line:

00000000 <.debug_line>:
       0:	00000162 	andeq	r0, r0, r2, ror #2
       4:	00f20003 	rscseq	r0, r2, r3
       8:	01020000 	mrseq	r0, (UNDEF: 2)
       c:	000d0efb 	strdeq	r0, [sp], -fp
      10:	01010101 	tsteq	r1, r1, lsl #2
      14:	01000000 	mrseq	r0, (UNDEF: 0)
      18:	74010000 	strvc	r0, [r1], #-0
      1c:	73747365 	cmnvc	r4, #-1811939327	; 0x94000001
      20:	73552f00 	cmpvc	r5, #0, 30
      24:	2f737265 	svccs	0x00737265
      28:	696d616a 	stmdbvs	sp!, {r1, r3, r5, r6, r8, sp, lr}^
      2c:	6f442f65 	svcvs	0x00442f65
      30:	656d7563 	strbvs	r7, [sp, #-1379]!	; 0xfffffa9d
      34:	2f73746e 	svccs	0x0073746e
      38:	34315343 	ldrtcc	r5, [r1], #-835	; 0xfffffcbd
      3c:	632f4530 			; <UNDEFINED> instruction: 0x632f4530
      40:	30343173 	eorscc	r3, r4, r3, ror r1
      44:	69662d45 	stmdbvs	r6!, {r0, r2, r6, r8, sl, fp, sp}^
      48:	2d6c616e 	stfcse	f6, [ip, #-440]!	; 0xfffffe48
      4c:	6a6f7270 	bvs	1bdca14 <__bss_end__+0x1bd2c2c>
      50:	2f746365 	svccs	0x00746365
      54:	7362696c 	cmnvc	r2, #108, 18	; 0x1b0000
      58:	3034322d 	eorscc	r3, r4, sp, lsr #4
      5c:	6c2f786c 	stcvs	8, cr7, [pc], #-432	; fffffeb4 <__bss_end__+0xffff60cc>
      60:	69706269 	ldmdbvs	r0!, {r0, r3, r5, r6, r9, sp, lr}^
      64:	636e692f 	cmnvs	lr, #770048	; 0xbc000
      68:	6564756c 	strbvs	r7, [r4, #-1388]!	; 0xfffffa94
      6c:	2f002e00 	svccs	0x00002e00
      70:	2f727375 	svccs	0x00727375
      74:	61636f6c 	cmnvs	r3, ip, ror #30
      78:	65432f6c 	strbvs	r2, [r3, #-3948]	; 0xfffff094
      7c:	72616c6c 	rsbvc	r6, r1, #108, 24	; 0x6c00
      80:	6d72612f 	ldfvse	f6, [r2, #-188]!	; 0xffffff44
      84:	6e6f6e2d 	cdpvs	14, 6, cr6, cr15, cr13, {1}
      88:	61652d65 	cmnvs	r5, r5, ror #26
      8c:	742d6962 	strtvc	r6, [sp], #-2402	; 0xfffff69e
      90:	2f747365 	svccs	0x00747365
      94:	30322d39 	eorscc	r2, r2, r9, lsr sp
      98:	34713931 	ldrbtcc	r3, [r1], #-2353	; 0xfffff6cf
      9c:	3173632d 	cmncc	r3, sp, lsr #6
      a0:	2f653730 	svccs	0x00653730
      a4:	2f62696c 	svccs	0x0062696c
      a8:	2f636367 	svccs	0x00636367
      ac:	2d6d7261 	sfmcs	f7, 2, [sp, #-388]!	; 0xfffffe7c
      b0:	656e6f6e 	strbvs	r6, [lr, #-3950]!	; 0xfffff092
      b4:	6261652d 	rsbvs	r6, r1, #188743680	; 0xb400000
      b8:	2e392f69 	cdpcs	15, 3, cr2, cr9, cr9, {3}
      bc:	2f312e32 	svccs	0x00312e32
      c0:	6c636e69 	stclvs	14, cr6, [r3], #-420	; 0xfffffe5c
      c4:	00656475 	rsbeq	r6, r5, r5, ror r4
      c8:	692d3100 	pushvs	{r8, ip, sp}
      cc:	742d7332 	strtvc	r7, [sp], #-818	; 0xfffffcce
      d0:	2e747365 	cdpcs	3, 7, cr7, cr4, cr5, {3}
      d4:	00010063 	andeq	r0, r1, r3, rrx
      d8:	69707200 	ldmdbvs	r0!, {r9, ip, sp, lr}^
      dc:	0200682e 	andeq	r6, r0, #3014656	; 0x2e0000
      e0:	32690000 	rsbcc	r0, r9, #0, 0
      e4:	00682e73 	rsbeq	r2, r8, r3, ror lr
      e8:	73000003 	movwvc	r0, #3
      ec:	6e696474 	mcrvs	4, 3, r6, cr9, cr4, {3}
      f0:	63672d74 	cmnvs	r7, #116, 26	; 0x1d00
      f4:	00682e63 	rsbeq	r2, r8, r3, ror #28
      f8:	00000004 	andeq	r0, r0, r4
      fc:	05001405 	streq	r1, [r0, #-1029]	; 0xfffffbfb
     100:	00803802 	addeq	r3, r0, r2, lsl #16
     104:	05051900 	streq	r1, [r5, #-2304]	; 0xfffff700
     108:	06140513 			; <UNDEFINED> instruction: 0x06140513
     10c:	2f050511 	svccs	0x00050511
     110:	05333006 	ldreq	r3, [r3, #-6]!
     114:	1505010a 	strne	r0, [r5, #-266]	; 0xfffffef6
     118:	06050501 	streq	r0, [r5], -r1, lsl #10
     11c:	3509050d 	strcc	r0, [r9, #-1293]	; 0xfffffaf3
     120:	03040200 	movweq	r0, #16896	; 0x4200
     124:	1a052d06 	bne	14b544 <__bss_end__+0x14175c>
     128:	03040200 	movweq	r0, #16896	; 0x4200
     12c:	09050106 	stmdbeq	r5, {r1, r2, r8}
     130:	03040200 	movweq	r0, #16896	; 0x4200
     134:	02004b06 	andeq	r4, r0, #6144	; 0x1800
     138:	2e060304 	cdpcs	3, 0, cr0, cr6, cr4, {0}
     13c:	03040200 	movweq	r0, #16896	; 0x4200
     140:	0021054a 	eoreq	r0, r1, sl, asr #10
     144:	06030402 	streq	r0, [r3], -r2, lsl #8
     148:	00150510 	andseq	r0, r5, r0, lsl r5
     14c:	01030402 	tsteq	r3, r2, lsl #8
     150:	02000505 	andeq	r0, r0, #20971520	; 0x1400000
     154:	01060304 	tsteq	r6, r4, lsl #6
     158:	01054f06 	tsteq	r5, r6, lsl #30
     15c:	05052f06 	streq	r2, [r5, #-3846]	; 0xfffff0fa
     160:	0008022d 	andeq	r0, r8, sp, lsr #4
     164:	0b750101 	bleq	1d40570 <__bss_end__+0x1d36788>
     168:	00030000 	andeq	r0, r3, r0
     16c:	00000147 	andeq	r0, r0, r7, asr #2
     170:	0efb0102 	cdpeq	1, 15, cr0, cr11, cr2, {0}
     174:	0101000d 	tsteq	r1, sp
     178:	00000101 	andeq	r0, r0, r1, lsl #2
     17c:	00000100 	andeq	r0, r0, r0, lsl #2
     180:	73552f01 	cmpvc	r5, #1, 30
     184:	2f737265 	svccs	0x00737265
     188:	696d616a 	stmdbvs	sp!, {r1, r3, r5, r6, r8, sp, lr}^
     18c:	6f442f65 	svcvs	0x00442f65
     190:	656d7563 	strbvs	r7, [sp, #-1379]!	; 0xfffffa9d
     194:	2f73746e 	svccs	0x0073746e
     198:	34315343 	ldrtcc	r5, [r1], #-835	; 0xfffffcbd
     19c:	632f4530 			; <UNDEFINED> instruction: 0x632f4530
     1a0:	30343173 	eorscc	r3, r4, r3, ror r1
     1a4:	69662d45 	stmdbvs	r6!, {r0, r2, r6, r8, sl, fp, sp}^
     1a8:	2d6c616e 	stfcse	f6, [ip, #-440]!	; 0xfffffe48
     1ac:	6a6f7270 	bvs	1bdcb74 <__bss_end__+0x1bd2d8c>
     1b0:	2f746365 	svccs	0x00746365
     1b4:	7362696c 	cmnvc	r2, #108, 18	; 0x1b0000
     1b8:	3034322d 	eorscc	r3, r4, sp, lsr #4
     1bc:	6c2f786c 	stcvs	8, cr7, [pc], #-432	; 14 <__code_start__-0x7fec>
     1c0:	69706269 	ldmdbvs	r0!, {r0, r3, r5, r6, r9, sp, lr}^
     1c4:	62696c2f 	rsbvs	r6, r9, #12032	; 0x2f00
     1c8:	752f0063 	strvc	r0, [pc, #-99]!	; 16d <__code_start__-0x7e93>
     1cc:	6c2f7273 	sfmvs	f7, 4, [pc], #-460	; 8 <__code_start__-0x7ff8>
     1d0:	6c61636f 	stclvs	3, cr6, [r1], #-444	; 0xfffffe44
     1d4:	6c65432f 	stclvs	3, cr4, [r5], #-188	; 0xffffff44
     1d8:	2f72616c 	svccs	0x0072616c
     1dc:	2d6d7261 	sfmcs	f7, 2, [sp, #-388]!	; 0xfffffe7c
     1e0:	656e6f6e 	strbvs	r6, [lr, #-3950]!	; 0xfffff092
     1e4:	6261652d 	rsbvs	r6, r1, #188743680	; 0xb400000
     1e8:	65742d69 	ldrbvs	r2, [r4, #-3433]!	; 0xfffff297
     1ec:	392f7473 	stmdbcc	pc!, {r0, r1, r4, r5, r6, sl, ip, sp, lr}	; <UNPREDICTABLE>
     1f0:	3130322d 	teqcc	r0, sp, lsr #4
     1f4:	2d347139 	ldfcss	f7, [r4, #-228]!	; 0xffffff1c
     1f8:	30317363 	eorscc	r7, r1, r3, ror #6
     1fc:	6c2f6537 	cfstr32vs	mvfx6, [pc], #-220	; 128 <__code_start__-0x7ed8>
     200:	672f6269 	strvs	r6, [pc, -r9, ror #4]!
     204:	612f6363 			; <UNDEFINED> instruction: 0x612f6363
     208:	6e2d6d72 	mcrvs	13, 1, r6, cr13, cr2, {3}
     20c:	2d656e6f 	stclcs	14, cr6, [r5, #-444]!	; 0xfffffe44
     210:	69626165 	stmdbvs	r2!, {r0, r2, r5, r6, r8, sp, lr}^
     214:	322e392f 	eorcc	r3, lr, #770048	; 0xbc000
     218:	692f312e 	stmdbvs	pc!, {r1, r2, r3, r5, r8, ip, sp}	; <UNPREDICTABLE>
     21c:	756c636e 	strbvc	r6, [ip, #-878]!	; 0xfffffc92
     220:	2f006564 	svccs	0x00006564
     224:	72657355 	rsbvc	r7, r5, #1409286145	; 0x54000001
     228:	616a2f73 	smcvs	41715	; 0xa2f3
     22c:	2f65696d 	svccs	0x0065696d
     230:	75636f44 	strbvc	r6, [r3, #-3908]!	; 0xfffff0bc
     234:	746e656d 	strbtvc	r6, [lr], #-1389	; 0xfffffa93
     238:	53432f73 	movtpl	r2, #16243	; 0x3f73
     23c:	45303431 	ldrmi	r3, [r0, #-1073]!	; 0xfffffbcf
     240:	3173632f 	cmncc	r3, pc, lsr #6
     244:	2d453034 	stclcs	0, cr3, [r5, #-208]	; 0xffffff30
     248:	616e6966 	cmnvs	lr, r6, ror #18
     24c:	72702d6c 	rsbsvc	r2, r0, #108, 26	; 0x1b00
     250:	63656a6f 	cmnvs	r5, #454656	; 0x6f000
     254:	696c2f74 	stmdbvs	ip!, {r2, r4, r5, r6, r8, r9, sl, fp, sp}^
     258:	322d7362 	eorcc	r7, sp, #-2013265919	; 0x88000001
     25c:	786c3034 	stmdavc	ip!, {r2, r4, r5, ip, sp}^
     260:	62696c2f 	rsbvs	r6, r9, #12032	; 0x2f00
     264:	692f6970 	stmdbvs	pc!, {r4, r5, r6, r8, fp, sp, lr}	; <UNPREDICTABLE>
     268:	756c636e 	strbvc	r6, [ip, #-878]!	; 0xfffffc92
     26c:	00006564 	andeq	r6, r0, r4, ror #10
     270:	2d746962 			; <UNDEFINED> instruction: 0x2d746962
     274:	70707573 	rsbsvc	r7, r0, r3, ror r5
     278:	2e74726f 	cdpcs	2, 7, cr7, cr4, cr15, {3}
     27c:	00010068 	andeq	r0, r1, r8, rrx
     280:	73326900 	teqvc	r2, #0, 18
     284:	0000632e 	andeq	r6, r0, lr, lsr #6
     288:	74730000 	ldrbtvc	r0, [r3], #-0
     28c:	746e6964 	strbtvc	r6, [lr], #-2404	; 0xfffff69c
     290:	6363672d 	cmnvs	r3, #11796480	; 0xb40000
     294:	0200682e 	andeq	r6, r0, #3014656	; 0x2e0000
     298:	70720000 	rsbsvc	r0, r2, r0
     29c:	00682e69 	rsbeq	r2, r8, r9, ror #28
     2a0:	69000003 	stmdbvs	r0, {r0, r1}
     2a4:	682e7332 	stmdavs	lr!, {r1, r4, r5, r8, r9, ip, sp, lr}
     2a8:	00000000 	andeq	r0, r0, r0
     2ac:	6f697067 	svcvs	0x00697067
     2b0:	0300682e 	movweq	r6, #2094	; 0x82e
     2b4:	05000000 	streq	r0, [r0, #-0]
     2b8:	02050001 	andeq	r0, r5, #1, 0
     2bc:	00008080 	andeq	r8, r0, r0, lsl #1
     2c0:	0100cc03 	tsteq	r0, r3, lsl #24
     2c4:	0b030505 	bleq	c16e0 <__bss_end__+0xb78f8>
     2c8:	01050101 	tsteq	r5, r1, lsl #2
     2cc:	01750306 	cmneq	r5, r6, lsl #6
     2d0:	0b030505 	bleq	c16ec <__bss_end__+0xb7904>
     2d4:	0301052e 	movweq	r0, #5422	; 0x152e
     2d8:	05052e75 	streq	r2, [r5, #-3701]	; 0xfffff18b
     2dc:	062e0b03 	strteq	r0, [lr], -r3, lsl #22
     2e0:	050204ba 	streq	r0, [r2, #-1210]	; 0xfffffb46
     2e4:	7fbd0325 	svcvc	0x00bd0325
     2e8:	1605059e 			; <UNDEFINED> instruction: 0x1605059e
     2ec:	13060105 	movwne	r0, #24837	; 0x6105
     2f0:	0615052e 	ldreq	r0, [r5], -lr, lsr #10
     2f4:	13050530 	movwne	r0, #21808	; 0x5530
     2f8:	06150501 	ldreq	r0, [r5], -r1, lsl #10
     2fc:	2f050511 	svccs	0x00050511
     300:	052d1505 	streq	r1, [sp, #-1285]!	; 0xfffffafb
     304:	01042f05 	tsteq	r4, r5, lsl #30
     308:	010d3506 	tsteq	sp, r6, lsl #10
     30c:	04130101 	ldreq	r0, [r3], #-257	; 0xfffffeff
     310:	000f0602 	andeq	r0, pc, r2, lsl #12
     314:	06020402 	streq	r0, [r2], -r2, lsl #8
     318:	0402004a 	streq	r0, [r2], #-74	; 0xffffffb6
     31c:	02000102 	andeq	r0, r0, #-2147483648	; 0x80000000
     320:	00160204 	andseq	r0, r6, r4, lsl #4
     324:	67020402 	strvs	r0, [r2, -r2, lsl #8]
     328:	02040200 	andeq	r0, r4, #0, 4
     32c:	04020067 	streq	r0, [r2], #-103	; 0xffffff99
     330:	02006802 	andeq	r6, r0, #131072	; 0x20000
     334:	004b0204 	subeq	r0, fp, r4, lsl #4
     338:	4b020402 	blmi	81348 <__bss_end__+0x77560>
     33c:	02040200 	andeq	r0, r4, #0, 4
     340:	0402004c 	streq	r0, [r2], #-76	; 0xffffffb4
     344:	14053102 	strne	r3, [r5], #-258	; 0xfffffefe
     348:	02040200 	andeq	r0, r4, #0, 4
     34c:	05050106 	streq	r0, [r5, #-262]	; 0xfffffefa
     350:	02040200 	andeq	r0, r4, #0, 4
     354:	01044b06 	tsteq	r4, r6, lsl #22
     358:	02040200 	andeq	r0, r4, #0, 4
     35c:	00012103 	andeq	r2, r1, r3, lsl #2
     360:	01020402 	tsteq	r2, r2, lsl #8
     364:	02040200 	andeq	r0, r4, #0, 4
     368:	04020001 	streq	r0, [r2], #-1
     36c:	02000102 	andeq	r0, r0, #-2147483648	; 0x80000000
     370:	00130204 	andseq	r0, r3, r4, lsl #4
     374:	01020402 	tsteq	r2, r2, lsl #8
     378:	02040200 	andeq	r0, r4, #0, 4
     37c:	04020001 	streq	r0, [r2], #-1
     380:	02000102 	andeq	r0, r0, #-2147483648	; 0x80000000
     384:	00190204 	andseq	r0, r9, r4, lsl #4
     388:	13020402 	movwne	r0, #9218	; 0x2402
     38c:	02040200 	andeq	r0, r4, #0, 4
     390:	04020001 	streq	r0, [r2], #-1
     394:	02000102 	andeq	r0, r0, #-2147483648	; 0x80000000
     398:	00010204 	andeq	r0, r1, r4, lsl #4
     39c:	13020402 	movwne	r0, #9218	; 0x2402
     3a0:	02040200 	andeq	r0, r4, #0, 4
     3a4:	04020001 	streq	r0, [r2], #-1
     3a8:	01590302 	cmpeq	r9, r2, lsl #6
     3ac:	02040200 	andeq	r0, r4, #0, 4
     3b0:	04020014 	streq	r0, [r2], #-20	; 0xffffffec
     3b4:	02000102 	andeq	r0, r0, #-2147483648	; 0x80000000
     3b8:	00010204 	andeq	r0, r1, r4, lsl #4
     3bc:	01020402 	tsteq	r2, r2, lsl #8
     3c0:	02040200 	andeq	r0, r4, #0, 4
     3c4:	04020013 	streq	r0, [r2], #-19	; 0xffffffed
     3c8:	01240302 			; <UNDEFINED> instruction: 0x01240302
     3cc:	02040200 	andeq	r0, r4, #0, 4
     3d0:	04020001 	streq	r0, [r2], #-1
     3d4:	02001402 	andeq	r1, r0, #33554432	; 0x2000000
     3d8:	68030204 	stmdavs	r3, {r2, r9}
     3dc:	04020001 	streq	r0, [r2], #-1
     3e0:	02000102 	andeq	r0, r0, #-2147483648	; 0x80000000
     3e4:	00010204 	andeq	r0, r1, r4, lsl #4
     3e8:	01020402 	tsteq	r2, r2, lsl #8
     3ec:	02040200 	andeq	r0, r4, #0, 4
     3f0:	04020013 	streq	r0, [r2], #-19	; 0xffffffed
     3f4:	02000102 	andeq	r0, r0, #-2147483648	; 0x80000000
     3f8:	00010204 	andeq	r0, r1, r4, lsl #4
     3fc:	01020402 	tsteq	r2, r2, lsl #8
     400:	02040200 	andeq	r0, r4, #0, 4
     404:	04020014 	streq	r0, [r2], #-20	; 0xffffffec
     408:	016c0302 	cmneq	ip, r2, lsl #6
     40c:	02040200 	andeq	r0, r4, #0, 4
     410:	04020014 	streq	r0, [r2], #-20	; 0xffffffec
     414:	02000102 	andeq	r0, r0, #-2147483648	; 0x80000000
     418:	00010204 	andeq	r0, r1, r4, lsl #4
     41c:	01020402 	tsteq	r2, r2, lsl #8
     420:	02040200 	andeq	r0, r4, #0, 4
     424:	04020013 	streq	r0, [r2], #-19	; 0xffffffed
     428:	01140302 	tsteq	r4, r2, lsl #6
     42c:	02000204 	andeq	r0, r0, #4, 4	; 0x40000000
     430:	66030204 	strvs	r0, [r3], -r4, lsl #4
     434:	00010401 	andeq	r0, r1, r1, lsl #8
     438:	03020402 	movweq	r0, #9218	; 0x2402
     43c:	02000120 	andeq	r0, r0, #8
     440:	00010204 	andeq	r0, r1, r4, lsl #4
     444:	01020402 	tsteq	r2, r2, lsl #8
     448:	02040200 	andeq	r0, r4, #0, 4
     44c:	04020001 	streq	r0, [r2], #-1
     450:	02001302 	andeq	r1, r0, #134217728	; 0x8000000
     454:	00010204 	andeq	r0, r1, r4, lsl #4
     458:	01020402 	tsteq	r2, r2, lsl #8
     45c:	02040200 	andeq	r0, r4, #0, 4
     460:	04020001 	streq	r0, [r2], #-1
     464:	02001902 	andeq	r1, r0, #32768	; 0x8000
     468:	00130204 	andseq	r0, r3, r4, lsl #4
     46c:	01020402 	tsteq	r2, r2, lsl #8
     470:	02040200 	andeq	r0, r4, #0, 4
     474:	04020001 	streq	r0, [r2], #-1
     478:	02000102 	andeq	r0, r0, #-2147483648	; 0x80000000
     47c:	00130204 	andseq	r0, r3, r4, lsl #4
     480:	01020402 	tsteq	r2, r2, lsl #8
     484:	02040200 	andeq	r0, r4, #0, 4
     488:	00015903 	andeq	r5, r1, r3, lsl #18
     48c:	14020402 	strne	r0, [r2], #-1026	; 0xfffffbfe
     490:	02040200 	andeq	r0, r4, #0, 4
     494:	04020001 	streq	r0, [r2], #-1
     498:	02000102 	andeq	r0, r0, #-2147483648	; 0x80000000
     49c:	00010204 	andeq	r0, r1, r4, lsl #4
     4a0:	13020402 	movwne	r0, #9218	; 0x2402
     4a4:	02040200 	andeq	r0, r4, #0, 4
     4a8:	00012403 	andeq	r2, r1, r3, lsl #8
     4ac:	01020402 	tsteq	r2, r2, lsl #8
     4b0:	02040200 	andeq	r0, r4, #0, 4
     4b4:	04020014 	streq	r0, [r2], #-20	; 0xffffffec
     4b8:	01680302 	cmneq	r8, r2, lsl #6
     4bc:	02040200 	andeq	r0, r4, #0, 4
     4c0:	04020001 	streq	r0, [r2], #-1
     4c4:	02000102 	andeq	r0, r0, #-2147483648	; 0x80000000
     4c8:	00010204 	andeq	r0, r1, r4, lsl #4
     4cc:	13020402 	movwne	r0, #9218	; 0x2402
     4d0:	02040200 	andeq	r0, r4, #0, 4
     4d4:	04020001 	streq	r0, [r2], #-1
     4d8:	02000102 	andeq	r0, r0, #-2147483648	; 0x80000000
     4dc:	00010204 	andeq	r0, r1, r4, lsl #4
     4e0:	14020402 	strne	r0, [r2], #-1026	; 0xfffffbfe
     4e4:	02040200 	andeq	r0, r4, #0, 4
     4e8:	00016c03 	andeq	r6, r1, r3, lsl #24
     4ec:	14020402 	strne	r0, [r2], #-1026	; 0xfffffbfe
     4f0:	02040200 	andeq	r0, r4, #0, 4
     4f4:	04020001 	streq	r0, [r2], #-1
     4f8:	02000102 	andeq	r0, r0, #-2147483648	; 0x80000000
     4fc:	00010204 	andeq	r0, r1, r4, lsl #4
     500:	13020402 	movwne	r0, #9218	; 0x2402
     504:	02040200 	andeq	r0, r4, #0, 4
     508:	04011403 	streq	r1, [r1], #-1027	; 0xfffffbfd
     50c:	04020002 	streq	r0, [r2], #-2
     510:	01670302 	cmneq	r7, r2, lsl #6
     514:	02000a05 	andeq	r0, r0, #20480	; 0x5000
     518:	66030204 	strvs	r0, [r3], -r4, lsl #4
     51c:	00050501 	andeq	r0, r5, r1, lsl #10
     520:	16020402 	strne	r0, [r2], -r2, lsl #8
     524:	02040200 	andeq	r0, r4, #0, 4
     528:	02000106 	andeq	r0, r0, #-2147483647	; 0x80000001
     52c:	03060204 	movweq	r0, #25092	; 0x6204
     530:	10050117 	andne	r0, r5, r7, lsl r1
     534:	02040200 	andeq	r0, r4, #0, 4
     538:	2e690306 	cdpcs	3, 6, cr0, cr9, cr6, {0}
     53c:	02040200 	andeq	r0, r4, #0, 4
     540:	0005052e 	andeq	r0, r5, lr, lsr #10
     544:	03020402 	movweq	r0, #9218	; 0x2402
     548:	02002e17 	andeq	r2, r0, #368	; 0x170
     54c:	69060204 	stmdbvs	r6, {r2, r9}
     550:	02040200 	andeq	r0, r4, #0, 4
     554:	00010413 	andeq	r0, r1, r3, lsl r4
     558:	03020402 	movweq	r0, #9218	; 0x2402
     55c:	0200011a 	andeq	r0, r0, #-2147483642	; 0x80000006
     560:	00010204 	andeq	r0, r1, r4, lsl #4
     564:	01020402 	tsteq	r2, r2, lsl #8
     568:	02040200 	andeq	r0, r4, #0, 4
     56c:	04020001 	streq	r0, [r2], #-1
     570:	02001302 	andeq	r1, r0, #134217728	; 0x8000000
     574:	00010204 	andeq	r0, r1, r4, lsl #4
     578:	01020402 	tsteq	r2, r2, lsl #8
     57c:	02040200 	andeq	r0, r4, #0, 4
     580:	04020001 	streq	r0, [r2], #-1
     584:	02001902 	andeq	r1, r0, #32768	; 0x8000
     588:	00130204 	andseq	r0, r3, r4, lsl #4
     58c:	01020402 	tsteq	r2, r2, lsl #8
     590:	02040200 	andeq	r0, r4, #0, 4
     594:	04020001 	streq	r0, [r2], #-1
     598:	02000102 	andeq	r0, r0, #-2147483648	; 0x80000000
     59c:	00130204 	andseq	r0, r3, r4, lsl #4
     5a0:	01020402 	tsteq	r2, r2, lsl #8
     5a4:	02040200 	andeq	r0, r4, #0, 4
     5a8:	00015903 	andeq	r5, r1, r3, lsl #18
     5ac:	14020402 	strne	r0, [r2], #-1026	; 0xfffffbfe
     5b0:	02040200 	andeq	r0, r4, #0, 4
     5b4:	04020001 	streq	r0, [r2], #-1
     5b8:	02000102 	andeq	r0, r0, #-2147483648	; 0x80000000
     5bc:	00010204 	andeq	r0, r1, r4, lsl #4
     5c0:	13020402 	movwne	r0, #9218	; 0x2402
     5c4:	02040200 	andeq	r0, r4, #0, 4
     5c8:	00012403 	andeq	r2, r1, r3, lsl #8
     5cc:	01020402 	tsteq	r2, r2, lsl #8
     5d0:	02040200 	andeq	r0, r4, #0, 4
     5d4:	04020014 	streq	r0, [r2], #-20	; 0xffffffec
     5d8:	01680302 	cmneq	r8, r2, lsl #6
     5dc:	02040200 	andeq	r0, r4, #0, 4
     5e0:	04020001 	streq	r0, [r2], #-1
     5e4:	02000102 	andeq	r0, r0, #-2147483648	; 0x80000000
     5e8:	00010204 	andeq	r0, r1, r4, lsl #4
     5ec:	13020402 	movwne	r0, #9218	; 0x2402
     5f0:	02040200 	andeq	r0, r4, #0, 4
     5f4:	04020001 	streq	r0, [r2], #-1
     5f8:	02000102 	andeq	r0, r0, #-2147483648	; 0x80000000
     5fc:	00010204 	andeq	r0, r1, r4, lsl #4
     600:	14020402 	strne	r0, [r2], #-1026	; 0xfffffbfe
     604:	02040200 	andeq	r0, r4, #0, 4
     608:	00016c03 	andeq	r6, r1, r3, lsl #24
     60c:	14020402 	strne	r0, [r2], #-1026	; 0xfffffbfe
     610:	02040200 	andeq	r0, r4, #0, 4
     614:	04020001 	streq	r0, [r2], #-1
     618:	02000102 	andeq	r0, r0, #-2147483648	; 0x80000000
     61c:	00010204 	andeq	r0, r1, r4, lsl #4
     620:	13020402 	movwne	r0, #9218	; 0x2402
     624:	02040200 	andeq	r0, r4, #0, 4
     628:	04011403 	streq	r1, [r1], #-1027	; 0xfffffbfd
     62c:	04020002 	streq	r0, [r2], #-2
     630:	016d0302 	cmneq	sp, r2, lsl #6
     634:	02000104 	andeq	r0, r0, #1
     638:	19030204 	stmdbne	r3, {r2, r9}
     63c:	04020001 	streq	r0, [r2], #-1
     640:	02000102 	andeq	r0, r0, #-2147483648	; 0x80000000
     644:	00010204 	andeq	r0, r1, r4, lsl #4
     648:	01020402 	tsteq	r2, r2, lsl #8
     64c:	02040200 	andeq	r0, r4, #0, 4
     650:	04020013 	streq	r0, [r2], #-19	; 0xffffffed
     654:	02000102 	andeq	r0, r0, #-2147483648	; 0x80000000
     658:	00010204 	andeq	r0, r1, r4, lsl #4
     65c:	01020402 	tsteq	r2, r2, lsl #8
     660:	02040200 	andeq	r0, r4, #0, 4
     664:	04020019 	streq	r0, [r2], #-25	; 0xffffffe7
     668:	02001302 	andeq	r1, r0, #134217728	; 0x8000000
     66c:	00010204 	andeq	r0, r1, r4, lsl #4
     670:	01020402 	tsteq	r2, r2, lsl #8
     674:	02040200 	andeq	r0, r4, #0, 4
     678:	04020001 	streq	r0, [r2], #-1
     67c:	02001302 	andeq	r1, r0, #134217728	; 0x8000000
     680:	00010204 	andeq	r0, r1, r4, lsl #4
     684:	03020402 	movweq	r0, #9218	; 0x2402
     688:	02000159 	andeq	r0, r0, #1073741846	; 0x40000016
     68c:	00140204 	andseq	r0, r4, r4, lsl #4
     690:	01020402 	tsteq	r2, r2, lsl #8
     694:	02040200 	andeq	r0, r4, #0, 4
     698:	04020001 	streq	r0, [r2], #-1
     69c:	02000102 	andeq	r0, r0, #-2147483648	; 0x80000000
     6a0:	00130204 	andseq	r0, r3, r4, lsl #4
     6a4:	03020402 	movweq	r0, #9218	; 0x2402
     6a8:	02000124 	andeq	r0, r0, #9
     6ac:	00010204 	andeq	r0, r1, r4, lsl #4
     6b0:	14020402 	strne	r0, [r2], #-1026	; 0xfffffbfe
     6b4:	02040200 	andeq	r0, r4, #0, 4
     6b8:	00016803 	andeq	r6, r1, r3, lsl #16
     6bc:	01020402 	tsteq	r2, r2, lsl #8
     6c0:	02040200 	andeq	r0, r4, #0, 4
     6c4:	04020001 	streq	r0, [r2], #-1
     6c8:	02000102 	andeq	r0, r0, #-2147483648	; 0x80000000
     6cc:	00130204 	andseq	r0, r3, r4, lsl #4
     6d0:	01020402 	tsteq	r2, r2, lsl #8
     6d4:	02040200 	andeq	r0, r4, #0, 4
     6d8:	04020001 	streq	r0, [r2], #-1
     6dc:	02000102 	andeq	r0, r0, #-2147483648	; 0x80000000
     6e0:	00140204 	andseq	r0, r4, r4, lsl #4
     6e4:	03020402 	movweq	r0, #9218	; 0x2402
     6e8:	0200016c 	andeq	r0, r0, #27
     6ec:	00140204 	andseq	r0, r4, r4, lsl #4
     6f0:	01020402 	tsteq	r2, r2, lsl #8
     6f4:	02040200 	andeq	r0, r4, #0, 4
     6f8:	04020001 	streq	r0, [r2], #-1
     6fc:	02000102 	andeq	r0, r0, #-2147483648	; 0x80000000
     700:	00130204 	andseq	r0, r3, r4, lsl #4
     704:	03020402 	movweq	r0, #9218	; 0x2402
     708:	02040114 	andeq	r0, r4, #5
     70c:	02040200 	andeq	r0, r4, #0, 4
     710:	00016e03 	andeq	r6, r1, r3, lsl #28
     714:	03020402 	movweq	r0, #9218	; 0x2402
     718:	02000163 	andeq	r0, r0, #-1073741800	; 0xc0000018
     71c:	1e030204 	cdpne	2, 0, cr0, cr3, cr4, {0}
     720:	04020001 	streq	r0, [r2], #-1
     724:	0b056902 	bleq	15ab34 <__bss_end__+0x150d4c>
     728:	02040200 	andeq	r0, r4, #0, 4
     72c:	05050106 	streq	r0, [r5, #-262]	; 0xfffffefa
     730:	02040200 	andeq	r0, r4, #0, 4
     734:	01044b06 	tsteq	r4, r6, lsl #22
     738:	02040200 	andeq	r0, r4, #0, 4
     73c:	00015403 	andeq	r5, r1, r3, lsl #8
     740:	01020402 	tsteq	r2, r2, lsl #8
     744:	02040200 	andeq	r0, r4, #0, 4
     748:	04020001 	streq	r0, [r2], #-1
     74c:	02000102 	andeq	r0, r0, #-2147483648	; 0x80000000
     750:	04130204 	ldreq	r0, [r3], #-516	; 0xfffffdfc
     754:	04020002 	streq	r0, [r2], #-2
     758:	012c0302 			; <UNDEFINED> instruction: 0x012c0302
     75c:	02000a05 	andeq	r0, r0, #20480	; 0x5000
     760:	59030204 	stmdbpl	r3, {r2, r9}
     764:	00050501 	andeq	r0, r5, r1, lsl #10
     768:	16020402 	strne	r0, [r2], -r2, lsl #8
     76c:	02040200 	andeq	r0, r4, #0, 4
     770:	02000106 	andeq	r0, r0, #-2147483647	; 0x80000001
     774:	03060204 	movweq	r0, #25092	; 0x6204
     778:	02000124 	andeq	r0, r0, #9
     77c:	66060204 	strvs	r0, [r6], -r4, lsl #4
     780:	02040200 	andeq	r0, r4, #0, 4
     784:	02003006 	andeq	r3, r0, #6, 0
     788:	05320204 	ldreq	r0, [r2, #-516]!	; 0xfffffdfc
     78c:	0402000b 	streq	r0, [r2], #-11
     790:	05010602 	streq	r0, [r1, #-1538]	; 0xfffff9fe
     794:	04020005 	streq	r0, [r2], #-5
     798:	044b0602 	strbeq	r0, [fp], #-1538	; 0xfffff9fe
     79c:	04020001 	streq	r0, [r2], #-1
     7a0:	010a0302 	tsteq	sl, r2, lsl #6
     7a4:	02040200 	andeq	r0, r4, #0, 4
     7a8:	04020001 	streq	r0, [r2], #-1
     7ac:	02000102 	andeq	r0, r0, #-2147483648	; 0x80000000
     7b0:	00010204 	andeq	r0, r1, r4, lsl #4
     7b4:	13020402 	movwne	r0, #9218	; 0x2402
     7b8:	02040200 	andeq	r0, r4, #0, 4
     7bc:	04020001 	streq	r0, [r2], #-1
     7c0:	02000102 	andeq	r0, r0, #-2147483648	; 0x80000000
     7c4:	00010204 	andeq	r0, r1, r4, lsl #4
     7c8:	19020402 	stmdbne	r2, {r1, sl}
     7cc:	02040200 	andeq	r0, r4, #0, 4
     7d0:	04020013 	streq	r0, [r2], #-19	; 0xffffffed
     7d4:	02000102 	andeq	r0, r0, #-2147483648	; 0x80000000
     7d8:	00010204 	andeq	r0, r1, r4, lsl #4
     7dc:	01020402 	tsteq	r2, r2, lsl #8
     7e0:	02040200 	andeq	r0, r4, #0, 4
     7e4:	04020013 	streq	r0, [r2], #-19	; 0xffffffed
     7e8:	02000102 	andeq	r0, r0, #-2147483648	; 0x80000000
     7ec:	59030204 	stmdbpl	r3, {r2, r9}
     7f0:	04020001 	streq	r0, [r2], #-1
     7f4:	02001402 	andeq	r1, r0, #33554432	; 0x2000000
     7f8:	00010204 	andeq	r0, r1, r4, lsl #4
     7fc:	01020402 	tsteq	r2, r2, lsl #8
     800:	02040200 	andeq	r0, r4, #0, 4
     804:	04020001 	streq	r0, [r2], #-1
     808:	02001302 	andeq	r1, r0, #134217728	; 0x8000000
     80c:	24030204 	strcs	r0, [r3], #-516	; 0xfffffdfc
     810:	04020001 	streq	r0, [r2], #-1
     814:	02000102 	andeq	r0, r0, #-2147483648	; 0x80000000
     818:	00140204 	andseq	r0, r4, r4, lsl #4
     81c:	03020402 	movweq	r0, #9218	; 0x2402
     820:	02000168 	andeq	r0, r0, #26
     824:	00010204 	andeq	r0, r1, r4, lsl #4
     828:	01020402 	tsteq	r2, r2, lsl #8
     82c:	02040200 	andeq	r0, r4, #0, 4
     830:	04020001 	streq	r0, [r2], #-1
     834:	02001302 	andeq	r1, r0, #134217728	; 0x8000000
     838:	00010204 	andeq	r0, r1, r4, lsl #4
     83c:	01020402 	tsteq	r2, r2, lsl #8
     840:	02040200 	andeq	r0, r4, #0, 4
     844:	04020001 	streq	r0, [r2], #-1
     848:	02001402 	andeq	r1, r0, #33554432	; 0x2000000
     84c:	6c030204 	sfmvs	f0, 4, [r3], {4}
     850:	04020001 	streq	r0, [r2], #-1
     854:	02001402 	andeq	r1, r0, #33554432	; 0x2000000
     858:	00010204 	andeq	r0, r1, r4, lsl #4
     85c:	01020402 	tsteq	r2, r2, lsl #8
     860:	02040200 	andeq	r0, r4, #0, 4
     864:	04020001 	streq	r0, [r2], #-1
     868:	02001302 	andeq	r1, r0, #134217728	; 0x8000000
     86c:	14030204 	strne	r0, [r3], #-516	; 0xfffffdfc
     870:	00020401 	andeq	r0, r2, r1, lsl #8
     874:	0f020402 	svceq	0x00020402
     878:	01050104 	tsteq	r5, r4, lsl #2
     87c:	02040200 	andeq	r0, r4, #0, 4
     880:	0005051a 	andeq	r0, r5, sl, lsl r5
     884:	13020402 	movwne	r0, #9218	; 0x2402
     888:	02040200 	andeq	r0, r4, #0, 4
     88c:	04020001 	streq	r0, [r2], #-1
     890:	02000102 	andeq	r0, r0, #-2147483648	; 0x80000000
     894:	00010204 	andeq	r0, r1, r4, lsl #4
     898:	13020402 	movwne	r0, #9218	; 0x2402
     89c:	02040200 	andeq	r0, r4, #0, 4
     8a0:	04020001 	streq	r0, [r2], #-1
     8a4:	02000102 	andeq	r0, r0, #-2147483648	; 0x80000000
     8a8:	00010204 	andeq	r0, r1, r4, lsl #4
     8ac:	19020402 	stmdbne	r2, {r1, sl}
     8b0:	02040200 	andeq	r0, r4, #0, 4
     8b4:	04020013 	streq	r0, [r2], #-19	; 0xffffffed
     8b8:	02000102 	andeq	r0, r0, #-2147483648	; 0x80000000
     8bc:	00010204 	andeq	r0, r1, r4, lsl #4
     8c0:	01020402 	tsteq	r2, r2, lsl #8
     8c4:	02040200 	andeq	r0, r4, #0, 4
     8c8:	04020013 	streq	r0, [r2], #-19	; 0xffffffed
     8cc:	02000102 	andeq	r0, r0, #-2147483648	; 0x80000000
     8d0:	01060204 	tsteq	r6, r4, lsl #4
     8d4:	02040200 	andeq	r0, r4, #0, 4
     8d8:	01590306 	cmpeq	r9, r6, lsl #6
     8dc:	02040200 	andeq	r0, r4, #0, 4
     8e0:	04020014 	streq	r0, [r2], #-20	; 0xffffffec
     8e4:	02000102 	andeq	r0, r0, #-2147483648	; 0x80000000
     8e8:	00010204 	andeq	r0, r1, r4, lsl #4
     8ec:	01020402 	tsteq	r2, r2, lsl #8
     8f0:	02040200 	andeq	r0, r4, #0, 4
     8f4:	04020013 	streq	r0, [r2], #-19	; 0xffffffed
     8f8:	01240302 			; <UNDEFINED> instruction: 0x01240302
     8fc:	02040200 	andeq	r0, r4, #0, 4
     900:	04020001 	streq	r0, [r2], #-1
     904:	02001402 	andeq	r1, r0, #33554432	; 0x2000000
     908:	01060204 	tsteq	r6, r4, lsl #4
     90c:	02040200 	andeq	r0, r4, #0, 4
     910:	01680306 	cmneq	r8, r6, lsl #6
     914:	02040200 	andeq	r0, r4, #0, 4
     918:	04020001 	streq	r0, [r2], #-1
     91c:	02000102 	andeq	r0, r0, #-2147483648	; 0x80000000
     920:	00010204 	andeq	r0, r1, r4, lsl #4
     924:	13020402 	movwne	r0, #9218	; 0x2402
     928:	02040200 	andeq	r0, r4, #0, 4
     92c:	04020001 	streq	r0, [r2], #-1
     930:	02000102 	andeq	r0, r0, #-2147483648	; 0x80000000
     934:	00010204 	andeq	r0, r1, r4, lsl #4
     938:	14020402 	strne	r0, [r2], #-1026	; 0xfffffbfe
     93c:	02040200 	andeq	r0, r4, #0, 4
     940:	00016c03 	andeq	r6, r1, r3, lsl #24
     944:	14020402 	strne	r0, [r2], #-1026	; 0xfffffbfe
     948:	02040200 	andeq	r0, r4, #0, 4
     94c:	04020001 	streq	r0, [r2], #-1
     950:	02000102 	andeq	r0, r0, #-2147483648	; 0x80000000
     954:	00010204 	andeq	r0, r1, r4, lsl #4
     958:	13020402 	movwne	r0, #9218	; 0x2402
     95c:	02040200 	andeq	r0, r4, #0, 4
     960:	04011403 	streq	r1, [r1], #-1027	; 0xfffffbfd
     964:	04020002 	streq	r0, [r2], #-2
     968:	01041002 	tsteq	r4, r2
     96c:	02002005 	andeq	r2, r0, #5, 0
     970:	03060204 	movweq	r0, #25092	; 0x6204
     974:	02040114 	andeq	r0, r4, #5
     978:	02000505 	andeq	r0, r0, #20971520	; 0x1400000
     97c:	6c030204 	sfmvs	f0, 4, [r3], {4}
     980:	0402004a 	streq	r0, [r2], #-74	; 0xffffffb6
     984:	02006602 	andeq	r6, r0, #2097152	; 0x200000
     988:	30060204 	andcc	r0, r6, r4, lsl #4
     98c:	02000b05 	andeq	r0, r0, #5120	; 0x1400
     990:	01060204 	tsteq	r6, r4, lsl #4
     994:	02000505 	andeq	r0, r0, #20971520	; 0x1400000
     998:	4b060204 	blmi	1811b0 <__bss_end__+0x1773c8>
     99c:	02000104 	andeq	r0, r0, #1
     9a0:	46030204 	strmi	r0, [r3], -r4, lsl #4
     9a4:	04020001 	streq	r0, [r2], #-1
     9a8:	02000102 	andeq	r0, r0, #-2147483648	; 0x80000000
     9ac:	00010204 	andeq	r0, r1, r4, lsl #4
     9b0:	01020402 	tsteq	r2, r2, lsl #8
     9b4:	02040200 	andeq	r0, r4, #0, 4
     9b8:	00020413 	andeq	r0, r2, r3, lsl r4
     9bc:	03020402 	movweq	r0, #9218	; 0x2402
     9c0:	0104013a 	tsteq	r4, sl, lsr r1
     9c4:	02040200 	andeq	r0, r4, #0, 4
     9c8:	04020016 	streq	r0, [r2], #-22	; 0xffffffea
     9cc:	02000102 	andeq	r0, r0, #-2147483648	; 0x80000000
     9d0:	00010204 	andeq	r0, r1, r4, lsl #4
     9d4:	01020402 	tsteq	r2, r2, lsl #8
     9d8:	02040200 	andeq	r0, r4, #0, 4
     9dc:	04020013 	streq	r0, [r2], #-19	; 0xffffffed
     9e0:	02000102 	andeq	r0, r0, #-2147483648	; 0x80000000
     9e4:	00010204 	andeq	r0, r1, r4, lsl #4
     9e8:	01020402 	tsteq	r2, r2, lsl #8
     9ec:	02040200 	andeq	r0, r4, #0, 4
     9f0:	04020019 	streq	r0, [r2], #-25	; 0xffffffe7
     9f4:	02001302 	andeq	r1, r0, #134217728	; 0x8000000
     9f8:	00010204 	andeq	r0, r1, r4, lsl #4
     9fc:	01020402 	tsteq	r2, r2, lsl #8
     a00:	02040200 	andeq	r0, r4, #0, 4
     a04:	04020001 	streq	r0, [r2], #-1
     a08:	02001302 	andeq	r1, r0, #134217728	; 0x8000000
     a0c:	00010204 	andeq	r0, r1, r4, lsl #4
     a10:	03020402 	movweq	r0, #9218	; 0x2402
     a14:	02000159 	andeq	r0, r0, #1073741846	; 0x40000016
     a18:	00140204 	andseq	r0, r4, r4, lsl #4
     a1c:	01020402 	tsteq	r2, r2, lsl #8
     a20:	02040200 	andeq	r0, r4, #0, 4
     a24:	04020001 	streq	r0, [r2], #-1
     a28:	02000102 	andeq	r0, r0, #-2147483648	; 0x80000000
     a2c:	00130204 	andseq	r0, r3, r4, lsl #4
     a30:	03020402 	movweq	r0, #9218	; 0x2402
     a34:	02000124 	andeq	r0, r0, #9
     a38:	00010204 	andeq	r0, r1, r4, lsl #4
     a3c:	14020402 	strne	r0, [r2], #-1026	; 0xfffffbfe
     a40:	02040200 	andeq	r0, r4, #0, 4
     a44:	00016803 	andeq	r6, r1, r3, lsl #16
     a48:	01020402 	tsteq	r2, r2, lsl #8
     a4c:	02040200 	andeq	r0, r4, #0, 4
     a50:	04020001 	streq	r0, [r2], #-1
     a54:	02000102 	andeq	r0, r0, #-2147483648	; 0x80000000
     a58:	00130204 	andseq	r0, r3, r4, lsl #4
     a5c:	01020402 	tsteq	r2, r2, lsl #8
     a60:	02040200 	andeq	r0, r4, #0, 4
     a64:	04020001 	streq	r0, [r2], #-1
     a68:	02000102 	andeq	r0, r0, #-2147483648	; 0x80000000
     a6c:	00140204 	andseq	r0, r4, r4, lsl #4
     a70:	03020402 	movweq	r0, #9218	; 0x2402
     a74:	0200016c 	andeq	r0, r0, #27
     a78:	00140204 	andseq	r0, r4, r4, lsl #4
     a7c:	01020402 	tsteq	r2, r2, lsl #8
     a80:	02040200 	andeq	r0, r4, #0, 4
     a84:	04020001 	streq	r0, [r2], #-1
     a88:	02000102 	andeq	r0, r0, #-2147483648	; 0x80000000
     a8c:	00130204 	andseq	r0, r3, r4, lsl #4
     a90:	03020402 	movweq	r0, #9218	; 0x2402
     a94:	02040114 	andeq	r0, r4, #5
     a98:	02040200 	andeq	r0, r4, #0, 4
     a9c:	05010415 	streq	r0, [r1, #-1045]	; 0xfffffbeb
     aa0:	04020001 	streq	r0, [r2], #-1
     aa4:	01430302 	cmpeq	r3, r2, lsl #6
     aa8:	02000505 	andeq	r0, r0, #20971520	; 0x1400000
     aac:	00130204 	andseq	r0, r3, r4, lsl #4
     ab0:	01020402 	tsteq	r2, r2, lsl #8
     ab4:	02040200 	andeq	r0, r4, #0, 4
     ab8:	04020001 	streq	r0, [r2], #-1
     abc:	02000102 	andeq	r0, r0, #-2147483648	; 0x80000000
     ac0:	00130204 	andseq	r0, r3, r4, lsl #4
     ac4:	06020402 	streq	r0, [r2], -r2, lsl #8
     ac8:	00020401 	andeq	r0, r2, r1, lsl #8
     acc:	06020402 	streq	r0, [r2], -r2, lsl #8
     ad0:	0100c003 	tsteq	r0, r3
     ad4:	0e050104 	adfeqs	f0, f5, f4
     ad8:	02040200 	andeq	r0, r4, #0, 4
     adc:	01400306 	cmpeq	r0, r6, lsl #6
     ae0:	05050204 	streq	r0, [r5, #-516]	; 0xfffffdfc
     ae4:	02040200 	andeq	r0, r4, #0, 4
     ae8:	2e00c003 	cdpcs	0, 0, cr12, cr0, cr3, {0}
     aec:	02040200 	andeq	r0, r4, #0, 4
     af0:	04020066 	streq	r0, [r2], #-102	; 0xffffff9a
     af4:	05300602 	ldreq	r0, [r0, #-1538]!	; 0xfffff9fe
     af8:	0402000b 	streq	r0, [r2], #-11
     afc:	05010602 	streq	r0, [r1, #-1538]	; 0xfffff9fe
     b00:	04020005 	streq	r0, [r2], #-5
     b04:	044b0602 	strbeq	r0, [fp], #-1538	; 0xfffff9fe
     b08:	04020001 	streq	r0, [r2], #-1
     b0c:	7fbc0302 	svcvc	0x00bc0302
     b10:	04020001 	streq	r0, [r2], #-1
     b14:	02000102 	andeq	r0, r0, #-2147483648	; 0x80000000
     b18:	00010204 	andeq	r0, r1, r4, lsl #4
     b1c:	01020402 	tsteq	r2, r2, lsl #8
     b20:	02040200 	andeq	r0, r4, #0, 4
     b24:	00020413 	andeq	r0, r2, r3, lsl r4
     b28:	03020402 	movweq	r0, #9218	; 0x2402
     b2c:	040100c4 	streq	r0, [r1], #-196	; 0xffffff3c
     b30:	04020001 	streq	r0, [r2], #-1
     b34:	7fbb0302 	svcvc	0x00bb0302
     b38:	04020001 	streq	r0, [r2], #-1
     b3c:	02000102 	andeq	r0, r0, #-2147483648	; 0x80000000
     b40:	00010204 	andeq	r0, r1, r4, lsl #4
     b44:	01020402 	tsteq	r2, r2, lsl #8
     b48:	02040200 	andeq	r0, r4, #0, 4
     b4c:	00020413 	andeq	r0, r2, r3, lsl r4
     b50:	03020402 	movweq	r0, #9218	; 0x2402
     b54:	040100c5 	streq	r0, [r1], #-197	; 0xffffff3b
     b58:	04020001 	streq	r0, [r2], #-1
     b5c:	7fba0302 	svcvc	0x00ba0302
     b60:	04020001 	streq	r0, [r2], #-1
     b64:	02000102 	andeq	r0, r0, #-2147483648	; 0x80000000
     b68:	00010204 	andeq	r0, r1, r4, lsl #4
     b6c:	01020402 	tsteq	r2, r2, lsl #8
     b70:	02040200 	andeq	r0, r4, #0, 4
     b74:	00020413 	andeq	r0, r2, r3, lsl r4
     b78:	03020402 	movweq	r0, #9218	; 0x2402
     b7c:	040100c6 	streq	r0, [r1], #-198	; 0xffffff3a
     b80:	04020001 	streq	r0, [r2], #-1
     b84:	7fb90302 	svcvc	0x00b90302
     b88:	04020001 	streq	r0, [r2], #-1
     b8c:	02000102 	andeq	r0, r0, #-2147483648	; 0x80000000
     b90:	00010204 	andeq	r0, r1, r4, lsl #4
     b94:	01020402 	tsteq	r2, r2, lsl #8
     b98:	02040200 	andeq	r0, r4, #0, 4
     b9c:	00020413 	andeq	r0, r2, r3, lsl r4
     ba0:	03020402 	movweq	r0, #9218	; 0x2402
     ba4:	040100c7 	streq	r0, [r1], #-199	; 0xffffff39
     ba8:	00010501 	andeq	r0, r1, r1, lsl #10
     bac:	03020402 	movweq	r0, #9218	; 0x2402
     bb0:	05017fb7 	streq	r7, [r1, #-4023]	; 0xfffff049
     bb4:	04020005 	streq	r0, [r2], #-5
     bb8:	02001302 	andeq	r1, r0, #134217728	; 0x8000000
     bbc:	00010204 	andeq	r0, r1, r4, lsl #4
     bc0:	01020402 	tsteq	r2, r2, lsl #8
     bc4:	02040200 	andeq	r0, r4, #0, 4
     bc8:	04020001 	streq	r0, [r2], #-1
     bcc:	02001302 	andeq	r1, r0, #134217728	; 0x8000000
     bd0:	01060204 	tsteq	r6, r4, lsl #4
     bd4:	02000204 	andeq	r0, r0, #4, 4	; 0x40000000
     bd8:	03060204 	movweq	r0, #25092	; 0x6204
     bdc:	000100c8 	andeq	r0, r1, r8, asr #1
     be0:	06020402 	streq	r0, [r2], -r2, lsl #8
     be4:	04020066 	streq	r0, [r2], #-102	; 0xffffff9a
     be8:	05300602 	ldreq	r0, [r0, #-1538]!	; 0xfffff9fe
     bec:	04020016 	streq	r0, [r2], #-22	; 0xffffffea
     bf0:	05010602 	streq	r0, [r1, #-1538]	; 0xfffff9fe
     bf4:	04020030 	streq	r0, [r2], #-48	; 0xffffffd0
     bf8:	052e0601 	streq	r0, [lr, #-1537]!	; 0xfffff9ff
     bfc:	0402000a 	streq	r0, [r2], #-10
     c00:	16050101 	strne	r0, [r5], -r1, lsl #2
     c04:	01040200 	mrseq	r0, R12_usr
     c08:	01040106 	tsteq	r4, r6, lsl #2
     c0c:	02000105 	andeq	r0, r0, #1073741825	; 0x40000001
     c10:	03060104 	movweq	r0, #24836	; 0x6104
     c14:	05054a49 	streq	r4, [r5, #-2633]	; 0xfffff5b7
     c18:	01040200 	mrseq	r0, R12_usr
     c1c:	00010513 	andeq	r0, r1, r3, lsl r5
     c20:	03010402 	movweq	r0, #5122	; 0x1402
     c24:	0505017a 	streq	r0, [r5, #-378]	; 0xfffffe86
     c28:	01040200 	mrseq	r0, R12_usr
     c2c:	04020013 	streq	r0, [r2], #-19	; 0xffffffed
     c30:	02000101 	andeq	r0, r0, #1073741824	; 0x40000000
     c34:	00010104 	andeq	r0, r1, r4, lsl #2
     c38:	01010402 	tsteq	r1, r2, lsl #8
     c3c:	01040200 	mrseq	r0, R12_usr
     c40:	04020013 	streq	r0, [r2], #-19	; 0xffffffed
     c44:	04010601 	streq	r0, [r1], #-1537	; 0xfffff9ff
     c48:	000a0502 	andeq	r0, sl, r2, lsl #10
     c4c:	03010402 	movweq	r0, #5122	; 0x1402
     c50:	0505013a 	streq	r0, [r5, #-314]	; 0xfffffec6
     c54:	01054c06 	tsteq	r5, r6, lsl #24
     c58:	05051906 	streq	r1, [r5, #-2310]	; 0xfffff6fa
     c5c:	004a7903 	subeq	r7, sl, r3, lsl #18
     c60:	06010402 	streq	r0, [r1], -r2, lsl #8
     c64:	002e4103 	eoreq	r4, lr, r3, lsl #2
     c68:	01010402 	tsteq	r1, r2, lsl #8
     c6c:	01040200 	mrseq	r0, R12_usr
     c70:	031f05d6 	tsteq	pc, #897581056	; 0x35800000
     c74:	740800c8 	strvc	r0, [r8], #-200	; 0xffffff38
     c78:	05130505 	ldreq	r0, [r3, #-1285]	; 0xfffffafb
     c7c:	0511061f 	ldreq	r0, [r1, #-1567]	; 0xfffff9e1
     c80:	2f062f05 	svccs	0x00062f05
     c84:	061a0514 			; <UNDEFINED> instruction: 0x061a0514
     c88:	00730501 	rsbseq	r0, r3, r1, lsl #10
     c8c:	06010402 	streq	r0, [r1], -r2, lsl #8
     c90:	000a052e 	andeq	r0, sl, lr, lsr #10
     c94:	01010402 	tsteq	r1, r2, lsl #8
     c98:	02001a05 	andeq	r1, r0, #20480	; 0x5000
     c9c:	01060104 	tsteq	r6, r4, lsl #2
     ca0:	05050104 	streq	r0, [r5, #-260]	; 0xfffffefc
     ca4:	01040200 	mrseq	r0, R12_usr
     ca8:	7fb60306 	svcvc	0x00b60306
     cac:	0402004a 	streq	r0, [r2], #-74	; 0xffffffb6
     cb0:	02000101 	andeq	r0, r0, #1073741824	; 0x40000000
     cb4:	00010104 	andeq	r0, r1, r4, lsl #2
     cb8:	01010402 	tsteq	r1, r2, lsl #8
     cbc:	01040200 	mrseq	r0, R12_usr
     cc0:	05020413 	streq	r0, [r2, #-1043]	; 0xfffffbed
     cc4:	0402000a 	streq	r0, [r2], #-10
     cc8:	c9030601 	stmdbgt	r3, {r0, r9, sl}
     ccc:	05050100 	streq	r0, [r5, #-256]	; 0xffffff00
     cd0:	01055006 	tsteq	r5, r6
     cd4:	0c051306 	stceq	3, cr1, [r5], {6}
     cd8:	06022e2d 	streq	r2, [r2], -sp, lsr #28
     cdc:	3e010100 	adfccs	f0, f1, f0
     ce0:	03000002 	movweq	r0, #2
     ce4:	0000f500 	andeq	pc, r0, r0, lsl #10
     ce8:	fb010200 	blx	414f2 <__bss_end__+0x3770a>
     cec:	01000d0e 	tsteq	r0, lr, lsl #26
     cf0:	00010101 	andeq	r0, r1, r1, lsl #2
     cf4:	00010000 	andeq	r0, r1, r0
     cf8:	752f0100 	strvc	r0, [pc, #-256]!	; c00 <__code_start__-0x7400>
     cfc:	6c2f7273 	sfmvs	f7, 4, [pc], #-460	; b38 <__code_start__-0x74c8>
     d00:	6c61636f 	stclvs	3, cr6, [r1], #-444	; 0xfffffe44
     d04:	6c65432f 	stclvs	3, cr4, [r5], #-188	; 0xffffff44
     d08:	2f72616c 	svccs	0x0072616c
     d0c:	2d6d7261 	sfmcs	f7, 2, [sp, #-388]!	; 0xfffffe7c
     d10:	656e6f6e 	strbvs	r6, [lr, #-3950]!	; 0xfffff092
     d14:	6261652d 	rsbvs	r6, r1, #188743680	; 0xb400000
     d18:	65742d69 	ldrbvs	r2, [r4, #-3433]!	; 0xfffff297
     d1c:	392f7473 	stmdbcc	pc!, {r0, r1, r4, r5, r6, sl, ip, sp, lr}	; <UNPREDICTABLE>
     d20:	3130322d 	teqcc	r0, sp, lsr #4
     d24:	2d347139 	ldfcss	f7, [r4, #-228]!	; 0xffffff1c
     d28:	30317363 	eorscc	r7, r1, r3, ror #6
     d2c:	6c2f6537 	cfstr32vs	mvfx6, [pc], #-220	; c58 <__code_start__-0x73a8>
     d30:	672f6269 	strvs	r6, [pc, -r9, ror #4]!
     d34:	612f6363 			; <UNDEFINED> instruction: 0x612f6363
     d38:	6e2d6d72 	mcrvs	13, 1, r6, cr13, cr2, {3}
     d3c:	2d656e6f 	stclcs	14, cr6, [r5, #-444]!	; 0xfffffe44
     d40:	69626165 	stmdbvs	r2!, {r0, r2, r5, r6, r8, sp, lr}^
     d44:	322e392f 	eorcc	r3, lr, #770048	; 0xbc000
     d48:	692f312e 	stmdbvs	pc!, {r1, r2, r3, r5, r8, ip, sp}	; <UNPREDICTABLE>
     d4c:	756c636e 	strbvc	r6, [ip, #-878]!	; 0xfffffc92
     d50:	2f006564 	svccs	0x00006564
     d54:	72657355 	rsbvc	r7, r5, #1409286145	; 0x54000001
     d58:	616a2f73 	smcvs	41715	; 0xa2f3
     d5c:	2f65696d 	svccs	0x0065696d
     d60:	75636f44 	strbvc	r6, [r3, #-3908]!	; 0xfffff0bc
     d64:	746e656d 	strbtvc	r6, [lr], #-1389	; 0xfffffa93
     d68:	53432f73 	movtpl	r2, #16243	; 0x3f73
     d6c:	45303431 	ldrmi	r3, [r0, #-1073]!	; 0xfffffbcf
     d70:	3173632f 	cmncc	r3, pc, lsr #6
     d74:	2d453034 	stclcs	0, cr3, [r5, #-208]	; 0xffffff30
     d78:	616e6966 	cmnvs	lr, r6, ror #18
     d7c:	72702d6c 	rsbsvc	r2, r0, #108, 26	; 0x1b00
     d80:	63656a6f 	cmnvs	r5, #454656	; 0x6f000
     d84:	696c2f74 	stmdbvs	ip!, {r2, r4, r5, r6, r8, r9, sl, fp, sp}^
     d88:	322d7362 	eorcc	r7, sp, #-2013265919	; 0x88000001
     d8c:	786c3034 	stmdavc	ip!, {r2, r4, r5, ip, sp}^
     d90:	62696c2f 	rsbvs	r6, r9, #12032	; 0x2f00
     d94:	692f6970 	stmdbvs	pc!, {r4, r5, r6, r8, fp, sp, lr}	; <UNPREDICTABLE>
     d98:	756c636e 	strbvc	r6, [ip, #-878]!	; 0xfffffc92
     d9c:	00006564 	andeq	r6, r0, r4, ror #10
     da0:	2e746666 	cdpcs	6, 7, cr6, cr4, cr6, {3}
     da4:	00000063 	andeq	r0, r0, r3, rrx
     da8:	74666600 	strbtvc	r6, [r6], #-1536	; 0xfffffa00
     dac:	0000682e 	andeq	r6, r0, lr, lsr #16
     db0:	74730000 	ldrbtvc	r0, [r3], #-0
     db4:	746e6964 	strbtvc	r6, [lr], #-2404	; 0xfffff69c
     db8:	6363672d 	cmnvs	r3, #11796480	; 0xb40000
     dbc:	0100682e 	tsteq	r0, lr, lsr #16
     dc0:	70720000 	rsbsvc	r0, r2, r0
     dc4:	00682e69 	rsbeq	r2, r8, r9, ror #28
     dc8:	66000002 	strvs	r0, [r0], -r2
     dcc:	735f7466 	cmpvc	pc, #1711276032	; 0x66000000
     dd0:	5f656e69 	svcpl	0x00656e69
     dd4:	2e74756c 	cdpcs	5, 7, cr7, cr4, cr12, {3}
     dd8:	00000068 	andeq	r0, r0, r8, rrx
     ddc:	5a050000 	bpl	140de4 <__bss_end__+0x136ffc>
     de0:	50020500 	andpl	r0, r2, r0, lsl #10
     de4:	03000082 	movweq	r0, #130	; 0x82
     de8:	05050109 	streq	r0, [r5, #-265]	; 0xfffffef7
     dec:	065a0514 			; <UNDEFINED> instruction: 0x065a0514
     df0:	30140510 	andscc	r0, r4, r0, lsl r5
     df4:	4c060505 	cfstr32mi	mvfx0, [r6], {5}
     df8:	01060805 	tsteq	r6, r5, lsl #16
     dfc:	52062105 	andpl	r2, r6, #1073741825	; 0x40000001
     e00:	01060505 	tsteq	r6, r5, lsl #10
     e04:	052b0d05 	streq	r0, [fp, #-3333]!	; 0xfffff2fb
     e08:	052e8505 	streq	r8, [lr, #-1285]!	; 0xfffffafb
     e0c:	09050f0d 	stmdbeq	r5, {r0, r2, r3, r8, r9, sl, fp}
     e10:	01040200 	mrseq	r0, R12_usr
     e14:	0d053306 	stceq	3, cr3, [r5, #-24]	; 0xffffffe8
     e18:	01040200 	mrseq	r0, R12_usr
     e1c:	00110513 	andseq	r0, r1, r3, lsl r5
     e20:	06010402 	streq	r0, [r1], -r2, lsl #8
     e24:	04020001 	streq	r0, [r2], #-1
     e28:	052f0601 	streq	r0, [pc, #-1537]!	; 82f <__code_start__-0x77d1>
     e2c:	0402001b 	streq	r0, [r2], #-27	; 0xffffffe5
     e30:	05010601 	streq	r0, [r1, #-1537]	; 0xfffff9ff
     e34:	04020009 	streq	r0, [r2], #-9
     e38:	4c062e01 	stcmi	14, cr2, [r6], {1}
     e3c:	01062505 	tsteq	r6, r5, lsl #10
     e40:	052e1e05 	streq	r1, [lr, #-3589]!	; 0xfffff1fb
     e44:	09052e2b 	stmdbeq	r5, {r0, r1, r3, r5, r9, sl, fp, sp}
     e48:	0c052f06 	stceq	15, cr2, [r5], {6}
     e4c:	09050106 	stmdbeq	r5, {r1, r2, r8}
     e50:	1e054e06 	cdpne	14, 0, cr4, cr5, cr6, {0}
     e54:	052e1306 	streq	r1, [lr, #-774]!	; 0xfffffcfa
     e58:	09052d11 	stmdbeq	r5, {r0, r4, r8, sl, fp, sp}
     e5c:	18052f06 	stmdane	r5, {r1, r2, r8, r9, sl, fp, sp}
     e60:	09050106 	stmdbeq	r5, {r1, r2, r8}
     e64:	18052f06 	stmdane	r5, {r1, r2, r8, r9, sl, fp, sp}
     e68:	09050106 	stmdbeq	r5, {r1, r2, r8}
     e6c:	11052f06 	tstne	r5, r6, lsl #30
     e70:	09050106 	stmdbeq	r5, {r1, r2, r8}
     e74:	1e052f06 	cdpne	15, 0, cr2, cr5, cr6, {0}
     e78:	18050106 	stmdane	r5, {r1, r2, r8}
     e7c:	0609052e 	streq	r0, [r9], -lr, lsr #10
     e80:	0618052f 	ldreq	r0, [r8], -pc, lsr #10
     e84:	2f052e01 	svccs	0x00052e01
     e88:	02040200 	andeq	r0, r4, #0, 4
     e8c:	01700306 	cmneq	r0, r6, lsl #6
     e90:	02003705 	andeq	r3, r0, #1310720	; 0x140000
     e94:	01060204 	tsteq	r6, r4, lsl #4
     e98:	02002105 	andeq	r2, r0, #1073741825	; 0x40000001
     e9c:	2e060204 	cdpcs	2, 0, cr0, cr6, cr4, {0}
     ea0:	02000505 	andeq	r0, r0, #20971520	; 0x1400000
     ea4:	01060204 	tsteq	r6, r4, lsl #4
     ea8:	02040200 	andeq	r0, r4, #0, 4
     eac:	060b0582 	streq	r0, [fp], -r2, lsl #11
     eb0:	05011503 	streq	r1, [r1, #-1283]	; 0xfffffafd
     eb4:	03131309 	tsteq	r3, #603979776	; 0x24000000
     eb8:	05130115 	ldreq	r0, [r3, #-277]	; 0xfffffeeb
     ebc:	2105010e 	tstcs	r5, lr, lsl #2
     ec0:	130d0501 	movwne	r0, #54529	; 0xd501
     ec4:	16151314 			; <UNDEFINED> instruction: 0x16151314
     ec8:	01120516 	tsteq	r2, r6, lsl r5
     ecc:	05012505 	streq	r2, [r1, #-1285]	; 0xfffffafb
     ed0:	04131311 	ldreq	r1, [r3], #-785	; 0xfffffcef
     ed4:	03100502 	tsteq	r0, #8388608	; 0x800000
     ed8:	05017fbd 	streq	r7, [r1, #-4029]	; 0xfffff043
     edc:	10051305 	andne	r1, r5, r5, lsl #6
     ee0:	05017503 	streq	r7, [r1, #-1283]	; 0xfffffafd
     ee4:	06011305 	streq	r1, [r1], -r5, lsl #6
     ee8:	2e062e66 	cdpcs	14, 0, cr2, cr6, cr6, {3}
     eec:	01042e06 	tsteq	r4, r6, lsl #28
     ef0:	de030105 	adfles	f0, f3, f5
     ef4:	052e0100 	streq	r0, [lr, #-256]!	; 0xffffff00
     ef8:	a9030609 	stmdbge	r3, {r0, r3, r9, sl}
     efc:	06012e7f 			; <UNDEFINED> instruction: 0x06012e7f
     f00:	2e2e2e2e 	cdpcs	14, 2, cr2, cr14, cr14, {1}
     f04:	4b052e06 	blmi	14c724 <__bss_end__+0x14293c>
     f08:	d600da03 	strle	sp, [r0], -r3, lsl #20
     f0c:	01130505 	tsteq	r3, r5, lsl #10
     f10:	2d064b05 	vstrcs	d4, [r6, #-20]	; 0xffffffec
     f14:	2e2f0505 	cfsh64cs	mvdx0, mvdx15, #5
     f18:	2e062e2e 	cdpcs	14, 0, cr2, cr6, cr14, {1}
     f1c:	01000802 	tsteq	r0, r2, lsl #16
     f20:	00013201 	andeq	r3, r1, r1, lsl #4
     f24:	00000300 	andeq	r0, r0, r0, lsl #6
     f28:	02000001 	andeq	r0, r0, #1, 0
     f2c:	0d0efb01 	vstreq	d15, [lr, #-4]
     f30:	01010100 	mrseq	r0, (UNDEF: 17)
     f34:	00000001 	andeq	r0, r0, r1
     f38:	01000001 	tsteq	r0, r1
     f3c:	696c2f2e 	stmdbvs	ip!, {r1, r2, r3, r5, r8, r9, sl, fp, sp}^
     f40:	2f006362 	svccs	0x00006362
     f44:	2f727375 	svccs	0x00727375
     f48:	61636f6c 	cmnvs	r3, ip, ror #30
     f4c:	65432f6c 	strbvs	r2, [r3, #-3948]	; 0xfffff094
     f50:	72616c6c 	rsbvc	r6, r1, #108, 24	; 0x6c00
     f54:	6d72612f 	ldfvse	f6, [r2, #-188]!	; 0xffffff44
     f58:	6e6f6e2d 	cdpvs	14, 6, cr6, cr15, cr13, {1}
     f5c:	61652d65 	cmnvs	r5, r5, ror #26
     f60:	742d6962 	strtvc	r6, [sp], #-2402	; 0xfffff69e
     f64:	2f747365 	svccs	0x00747365
     f68:	30322d39 	eorscc	r2, r2, r9, lsr sp
     f6c:	34713931 	ldrbtcc	r3, [r1], #-2353	; 0xfffff6cf
     f70:	3173632d 	cmncc	r3, sp, lsr #6
     f74:	2f653730 	svccs	0x00653730
     f78:	2f62696c 	svccs	0x0062696c
     f7c:	2f636367 	svccs	0x00636367
     f80:	2d6d7261 	sfmcs	f7, 2, [sp, #-388]!	; 0xfffffe7c
     f84:	656e6f6e 	strbvs	r6, [lr, #-3950]!	; 0xfffff092
     f88:	6261652d 	rsbvs	r6, r1, #188743680	; 0xb400000
     f8c:	2e392f69 	cdpcs	15, 3, cr2, cr9, cr9, {3}
     f90:	2f312e32 	svccs	0x00312e32
     f94:	6c636e69 	stclvs	14, cr6, [r3], #-420	; 0xfffffe5c
     f98:	00656475 	rsbeq	r6, r5, r5, ror r4
     f9c:	6573552f 	ldrbvs	r5, [r3, #-1327]!	; 0xfffffad1
     fa0:	652f7372 	strvs	r7, [pc, #-882]!	; c36 <__code_start__-0x73ca>
     fa4:	62636972 	rsbvs	r6, r3, #1867776	; 0x1c8000
     fa8:	2f726165 	svccs	0x00726165
     fac:	75636f44 	strbvc	r6, [r3, #-3908]!	; 0xfffff0bc
     fb0:	746e656d 	strbtvc	r6, [lr], #-1389	; 0xfffffa93
     fb4:	53432f73 	movtpl	r2, #16243	; 0x3f73
     fb8:	45303431 	ldrmi	r3, [r0, #-1073]!	; 0xfffffbcf
     fbc:	3173632f 	cmncc	r3, pc, lsr #6
     fc0:	2d453034 	stclcs	0, cr3, [r5, #-208]	; 0xffffff30
     fc4:	616e6966 	cmnvs	lr, r6, ror #18
     fc8:	72702d6c 	rsbsvc	r2, r0, #108, 26	; 0x1b00
     fcc:	63656a6f 	cmnvs	r5, #454656	; 0x6f000
     fd0:	696c2f74 	stmdbvs	ip!, {r2, r4, r5, r6, r8, r9, sl, fp, sp}^
     fd4:	322d7362 	eorcc	r7, sp, #-2013265919	; 0x88000001
     fd8:	786c3034 	stmdavc	ip!, {r2, r4, r5, ip, sp}^
     fdc:	62696c2f 	rsbvs	r6, r9, #12032	; 0x2f00
     fe0:	692f6970 	stmdbvs	pc!, {r4, r5, r6, r8, fp, sp, lr}	; <UNPREDICTABLE>
     fe4:	756c636e 	strbvc	r6, [ip, #-878]!	; 0xfffffc92
     fe8:	00006564 	andeq	r6, r0, r4, ror #10
     fec:	6e697270 	mcrvs	2, 3, r7, cr9, cr0, {3}
     ff0:	632e6b74 			; <UNDEFINED> instruction: 0x632e6b74
     ff4:	00000100 	andeq	r0, r0, r0, lsl #2
     ff8:	61647473 	smcvs	18243	; 0x4743
     ffc:	682e6772 	stmdavs	lr!, {r1, r4, r5, r6, r8, r9, sl, sp, lr}
    1000:	00000200 	andeq	r0, r0, r0, lsl #4
    1004:	2e697072 	mcrcs	0, 3, r7, cr9, cr2, {3}
    1008:	00030068 	andeq	r0, r3, r8, rrx
    100c:	75623c00 	strbvc	r3, [r2, #-3072]!	; 0xfffff400
    1010:	2d746c69 	ldclcs	12, cr6, [r4, #-420]!	; 0xfffffe5c
    1014:	003e6e69 	eorseq	r6, lr, r9, ror #28
    1018:	76000000 	strvc	r0, [r0], -r0
    101c:	72702d61 	rsbsvc	r2, r0, #6208	; 0x1840
    1020:	6b746e69 	blvs	1d1c9cc <__bss_end__+0x1d12be4>
    1024:	0100682e 	tsteq	r0, lr, lsr #16
    1028:	05000000 	streq	r0, [r0, #-0]
    102c:	02050022 	andeq	r0, r5, #34, 0	; 0x22
    1030:	00008354 	andeq	r8, r0, r4, asr r3
    1034:	05010617 	streq	r0, [r1, #-1559]	; 0xfffff9e9
    1038:	13680605 	cmnne	r8, #5242880	; 0x500000
    103c:	4b090514 	blmi	242494 <__bss_end__+0x2386ac>
    1040:	01061205 	tsteq	r6, r5, lsl #4
    1044:	bb060505 	bllt	182460 <__bss_end__+0x178678>
    1048:	06660616 			; <UNDEFINED> instruction: 0x06660616
    104c:	06010534 			; <UNDEFINED> instruction: 0x06010534
    1050:	08026613 	stmdaeq	r2, {r0, r1, r4, r9, sl, sp, lr}
    1054:	ca010100 	bgt	4145c <__bss_end__+0x37674>
    1058:	03000000 	movweq	r0, #0
    105c:	00007c00 	andeq	r7, r0, r0, lsl #24
    1060:	fb010200 	blx	4186a <__bss_end__+0x37a82>
    1064:	01000d0e 	tsteq	r0, lr, lsl #26
    1068:	00010101 	andeq	r0, r1, r1, lsl #2
    106c:	00010000 	andeq	r0, r1, r0
    1070:	2f2e0100 	svccs	0x002e0100
    1074:	6362696c 	cmnvs	r2, #108, 18	; 0x1b0000
    1078:	73552f00 	cmpvc	r5, #0, 30
    107c:	2f737265 	svccs	0x00737265
    1080:	63697265 	cmnvs	r9, #1342177286	; 0x50000006
    1084:	72616562 	rsbvc	r6, r1, #411041792	; 0x18800000
    1088:	636f442f 	cmnvs	pc, #788529152	; 0x2f000000
    108c:	6e656d75 	mcrvs	13, 3, r6, cr5, cr5, {3}
    1090:	432f7374 			; <UNDEFINED> instruction: 0x432f7374
    1094:	30343153 	eorscc	r3, r4, r3, asr r1
    1098:	73632f45 	cmnvc	r3, #276	; 0x114
    109c:	45303431 	ldrmi	r3, [r0, #-1073]!	; 0xfffffbcf
    10a0:	6e69662d 	cdpvs	6, 6, cr6, cr9, cr13, {1}
    10a4:	702d6c61 	eorvc	r6, sp, r1, ror #24
    10a8:	656a6f72 	strbvs	r6, [sl, #-3954]!	; 0xfffff08e
    10ac:	6c2f7463 	cfstrsvs	mvf7, [pc], #-396	; f28 <__code_start__-0x70d8>
    10b0:	2d736269 	lfmcs	f6, 2, [r3, #-420]!	; 0xfffffe5c
    10b4:	6c303432 	cfldrsvs	mvf3, [r0], #-200	; 0xffffff38
    10b8:	696c2f78 	stmdbvs	ip!, {r3, r4, r5, r6, r8, r9, sl, fp, sp}^
    10bc:	2f697062 	svccs	0x00697062
    10c0:	6c636e69 	stclvs	14, cr6, [r3], #-420	; 0xfffffe5c
    10c4:	00656475 	rsbeq	r6, r5, r5, ror r4
    10c8:	74757000 	ldrbtvc	r7, [r5], #-0
    10cc:	00632e6b 	rsbeq	r2, r3, fp, ror #28
    10d0:	72000001 	andvc	r0, r0, #1, 0
    10d4:	682e6970 	stmdavs	lr!, {r4, r5, r6, r8, fp, sp, lr}
    10d8:	00000200 	andeq	r0, r0, r0, lsl #4
    10dc:	00220500 	eoreq	r0, r2, r0, lsl #10
    10e0:	83ac0205 			; <UNDEFINED> instruction: 0x83ac0205
    10e4:	06150000 	ldreq	r0, [r5], -r0
    10e8:	06050501 	streq	r0, [r5], -r1, lsl #10
    10ec:	000b054b 	andeq	r0, fp, fp, asr #10
    10f0:	01010402 	tsteq	r1, r2, lsl #8
    10f4:	02000505 	andeq	r0, r0, #20971520	; 0x1400000
    10f8:	2e060104 	adfcss	f0, f6, f4
    10fc:	02000905 	andeq	r0, r0, #81920	; 0x14000
    1100:	4b060204 	blmi	181918 <__bss_end__+0x177b30>
    1104:	02000f05 	andeq	r0, r0, #5, 30
    1108:	05650204 	strbeq	r0, [r5, #-516]!	; 0xfffffdfc
    110c:	04020010 	streq	r0, [r2], #-16
    1110:	00010602 	andeq	r0, r1, r2, lsl #12
    1114:	2e020402 	cdpcs	4, 0, cr0, cr2, cr2, {0}
    1118:	32060505 	andcc	r0, r6, #20971520	; 0x1400000
    111c:	13060105 	movwne	r0, #24837	; 0x6105
    1120:	01000602 	tsteq	r0, r2, lsl #12
    1124:	00061c01 	andeq	r1, r6, r1, lsl #24
    1128:	16000300 	strne	r0, [r0], -r0, lsl #6
    112c:	02000001 	andeq	r0, r0, #1, 0
    1130:	0d0efb01 	vstreq	d15, [lr, #-4]
    1134:	01010100 	mrseq	r0, (UNDEF: 17)
    1138:	00000001 	andeq	r0, r0, r1
    113c:	01000001 	tsteq	r0, r1
    1140:	696c2f2e 	stmdbvs	ip!, {r1, r2, r3, r5, r8, r9, sl, fp, sp}^
    1144:	2f006362 	svccs	0x00006362
    1148:	2f727375 	svccs	0x00727375
    114c:	61636f6c 	cmnvs	r3, ip, ror #30
    1150:	65432f6c 	strbvs	r2, [r3, #-3948]	; 0xfffff094
    1154:	72616c6c 	rsbvc	r6, r1, #108, 24	; 0x6c00
    1158:	6d72612f 	ldfvse	f6, [r2, #-188]!	; 0xffffff44
    115c:	6e6f6e2d 	cdpvs	14, 6, cr6, cr15, cr13, {1}
    1160:	61652d65 	cmnvs	r5, r5, ror #26
    1164:	742d6962 	strtvc	r6, [sp], #-2402	; 0xfffff69e
    1168:	2f747365 	svccs	0x00747365
    116c:	30322d39 	eorscc	r2, r2, r9, lsr sp
    1170:	34713931 	ldrbtcc	r3, [r1], #-2353	; 0xfffff6cf
    1174:	3173632d 	cmncc	r3, sp, lsr #6
    1178:	2f653730 	svccs	0x00653730
    117c:	2f62696c 	svccs	0x0062696c
    1180:	2f636367 	svccs	0x00636367
    1184:	2d6d7261 	sfmcs	f7, 2, [sp, #-388]!	; 0xfffffe7c
    1188:	656e6f6e 	strbvs	r6, [lr, #-3950]!	; 0xfffff092
    118c:	6261652d 	rsbvs	r6, r1, #188743680	; 0xb400000
    1190:	2e392f69 	cdpcs	15, 3, cr2, cr9, cr9, {3}
    1194:	2f312e32 	svccs	0x00312e32
    1198:	6c636e69 	stclvs	14, cr6, [r3], #-420	; 0xfffffe5c
    119c:	00656475 	rsbeq	r6, r5, r5, ror r4
    11a0:	6573552f 	ldrbvs	r5, [r3, #-1327]!	; 0xfffffad1
    11a4:	652f7372 	strvs	r7, [pc, #-882]!	; e3a <__code_start__-0x71c6>
    11a8:	62636972 	rsbvs	r6, r3, #1867776	; 0x1c8000
    11ac:	2f726165 	svccs	0x00726165
    11b0:	75636f44 	strbvc	r6, [r3, #-3908]!	; 0xfffff0bc
    11b4:	746e656d 	strbtvc	r6, [lr], #-1389	; 0xfffffa93
    11b8:	53432f73 	movtpl	r2, #16243	; 0x3f73
    11bc:	45303431 	ldrmi	r3, [r0, #-1073]!	; 0xfffffbcf
    11c0:	3173632f 	cmncc	r3, pc, lsr #6
    11c4:	2d453034 	stclcs	0, cr3, [r5, #-208]	; 0xffffff30
    11c8:	616e6966 	cmnvs	lr, r6, ror #18
    11cc:	72702d6c 	rsbsvc	r2, r0, #108, 26	; 0x1b00
    11d0:	63656a6f 	cmnvs	r5, #454656	; 0x6f000
    11d4:	696c2f74 	stmdbvs	ip!, {r2, r4, r5, r6, r8, r9, sl, fp, sp}^
    11d8:	322d7362 	eorcc	r7, sp, #-2013265919	; 0x88000001
    11dc:	786c3034 	stmdavc	ip!, {r2, r4, r5, ip, sp}^
    11e0:	62696c2f 	rsbvs	r6, r9, #12032	; 0x2f00
    11e4:	692f6970 	stmdbvs	pc!, {r4, r5, r6, r8, fp, sp, lr}	; <UNPREDICTABLE>
    11e8:	756c636e 	strbvc	r6, [ip, #-878]!	; 0xfffffc92
    11ec:	00006564 	andeq	r6, r0, r4, ror #10
    11f0:	702d6176 	eorvc	r6, sp, r6, ror r1
    11f4:	746e6972 	strbtvc	r6, [lr], #-2418	; 0xfffff68e
    11f8:	00632e6b 	rsbeq	r2, r3, fp, ror #28
    11fc:	73000001 	movwvc	r0, #1
    1200:	6e696474 	mcrvs	4, 3, r6, cr9, cr4, {3}
    1204:	63672d74 	cmnvs	r7, #116, 26	; 0x1d00
    1208:	00682e63 	rsbeq	r2, r8, r3, ror #28
    120c:	72000002 	andvc	r0, r0, #2, 0
    1210:	682e6970 	stmdavs	lr!, {r4, r5, r6, r8, fp, sp, lr}
    1214:	00000300 	andeq	r0, r0, r0, lsl #6
    1218:	2d697072 	stclcs	0, cr7, [r9, #-456]!	; 0xfffffe38
    121c:	65746e69 	ldrbvs	r6, [r4, #-3689]!	; 0xfffff197
    1220:	6c616e72 	stclvs	14, cr6, [r1], #-456	; 0xfffffe38
    1224:	0300682e 	movweq	r6, #2094	; 0x82e
    1228:	74730000 	ldrbtvc	r0, [r3], #-0
    122c:	67726164 	ldrbvs	r6, [r2, -r4, ror #2]!
    1230:	0200682e 	andeq	r6, r0, #3014656	; 0x2e0000
    1234:	623c0000 	eorsvs	r0, ip, #0, 0
    1238:	746c6975 	strbtvc	r6, [ip], #-2421	; 0xfffff68b
    123c:	3e6e692d 	vmulcc.f16	s13, s28, s27	; <UNPREDICTABLE>
    1240:	00000000 	andeq	r0, r0, r0
    1244:	001b0500 	andseq	r0, fp, r0, lsl #10
    1248:	83e00205 	mvnhi	r0, #1342177280	; 0x50000000
    124c:	26030000 	strcs	r0, [r3], -r0
    1250:	011d0501 	tsteq	sp, r1, lsl #10
    1254:	01062d05 	tsteq	r6, r5, lsl #26
    1258:	4a2e0105 	bmi	b81674 <__bss_end__+0xb7788c>
    125c:	51063305 	tstpl	r6, r5, lsl #6
    1260:	05130205 	ldreq	r0, [r3, #-517]	; 0xfffffdfb
    1264:	05010606 	streq	r0, [r1, #-1542]	; 0xfffff9fa
    1268:	05300602 	ldreq	r0, [r0, #-1538]!	; 0xfffff9fe
    126c:	04020008 	streq	r0, [r2], #-8
    1270:	02050101 	andeq	r0, r5, #1073741824	; 0x40000000
    1274:	01040200 	mrseq	r0, R12_usr
    1278:	03050106 	movweq	r0, #20742	; 0x5106
    127c:	02040200 	andeq	r0, r4, #0, 4
    1280:	08052f06 	stmdaeq	r5, {r1, r2, r8, r9, sl, fp, sp}
    1284:	02040200 	andeq	r0, r4, #0, 4
    1288:	15050106 	strne	r0, [r5, #-262]	; 0xfffffefa
    128c:	02040200 	andeq	r0, r4, #0, 4
    1290:	18054906 	stmdane	r5, {r1, r2, r8, fp, lr}
    1294:	02040200 	andeq	r0, r4, #0, 4
    1298:	02000106 	andeq	r0, r0, #-2147483647	; 0x80000001
    129c:	052e0204 	streq	r0, [lr, #-516]!	; 0xfffffdfc
    12a0:	05300602 	ldreq	r0, [r0, #-1538]!	; 0xfffff9fe
    12a4:	05010605 	streq	r0, [r1, #-1541]	; 0xfffff9fb
    12a8:	054b0602 	strbeq	r0, [fp, #-1538]	; 0xfffff9fe
    12ac:	05130601 	ldreq	r0, [r3, #-1537]	; 0xfffff9ff
    12b0:	0531063e 	ldreq	r0, [r1, #-1598]!	; 0xfffff9c2
    12b4:	0e051402 	cdpeq	4, 0, cr1, cr5, cr2, {0}
    12b8:	06050106 	streq	r0, [r5], -r6, lsl #2
    12bc:	0602052e 	streq	r0, [r2], -lr, lsr #10
    12c0:	0604052f 	streq	r0, [r4], -pc, lsr #10
    12c4:	06030501 	streq	r0, [r3], -r1, lsl #10
    12c8:	0611052f 	ldreq	r0, [r1], -pc, lsr #10
    12cc:	2e090501 	cfsh32cs	mvfx0, mvfx9, #1
    12d0:	30060205 	andcc	r0, r6, r5, lsl #4
    12d4:	06070515 			; <UNDEFINED> instruction: 0x06070515
    12d8:	2e020501 	cfsh32cs	mvfx0, mvfx2, #1
    12dc:	02000b05 	andeq	r0, r0, #5120	; 0x1400
    12e0:	2e060104 	adfcss	f0, f6, f4
    12e4:	02000205 	andeq	r0, r0, #1342177280	; 0x50000000
    12e8:	01060104 	tsteq	r6, r4, lsl #2
    12ec:	02000305 	andeq	r0, r0, #335544320	; 0x14000000
    12f0:	2f060304 	svccs	0x00060304
    12f4:	02000c05 	andeq	r0, r0, #1280	; 0x500
    12f8:	01060304 	tsteq	r6, r4, lsl #6
    12fc:	02000a05 	andeq	r0, r0, #20480	; 0x5000
    1300:	052e0304 	streq	r0, [lr, #-772]!	; 0xfffffcfc
    1304:	04020017 	streq	r0, [r2], #-23	; 0xffffffe9
    1308:	002d0603 	eoreq	r0, sp, r3, lsl #12
    130c:	06030402 	streq	r0, [r3], -r2, lsl #8
    1310:	06020501 	streq	r0, [r2], -r1, lsl #10
    1314:	06090530 			; <UNDEFINED> instruction: 0x06090530
    1318:	02052e01 	andeq	r2, r5, #1, 28
    131c:	01053006 	tsteq	r5, r6
    1320:	49051306 	stmdbmi	r5, {r1, r2, r8, r9, ip}
    1324:	01063106 	tsteq	r6, r6, lsl #2
    1328:	a0060205 	andge	r0, r6, r5, lsl #4
    132c:	01060405 	tsteq	r6, r5, lsl #8
    1330:	2f060305 	svccs	0x00060305
    1334:	01060905 	tsteq	r6, r5, lsl #18
    1338:	30060205 	andcc	r0, r6, r5, lsl #4
    133c:	060b0513 			; <UNDEFINED> instruction: 0x060b0513
    1340:	06020501 	streq	r0, [r2], -r1, lsl #10
    1344:	052e0630 	streq	r0, [lr, #-1584]!	; 0xfffff9d0
    1348:	24020604 	strcs	r0, [r2], #-1540	; 0xfffff9fc
    134c:	0f051315 	svceq	0x00051315
    1350:	052e0106 	streq	r0, [lr, #-262]!	; 0xfffffefa
    1354:	05054a06 	streq	r4, [r5, #-2566]	; 0xfffff5fa
    1358:	05134b06 	ldreq	r4, [r3, #-2822]	; 0xfffff4fa
    135c:	05010609 	streq	r0, [r1, #-1545]	; 0xfffff9f7
    1360:	052f0605 	streq	r0, [pc, #-1541]!	; d63 <__code_start__-0x729d>
    1364:	0510060b 	ldreq	r0, [r0, #-1547]	; 0xfffff9f5
    1368:	0402000d 	streq	r0, [r2], #-13
    136c:	04052c01 	streq	r2, [r5], #-3073	; 0xfffff3ff
    1370:	01040200 	mrseq	r0, R12_usr
    1374:	05053406 	streq	r3, [r5, #-1030]	; 0xfffffbfa
    1378:	01040200 	mrseq	r0, R12_usr
    137c:	001b0513 	andseq	r0, fp, r3, lsl r5
    1380:	06010402 	streq	r0, [r1], -r2, lsl #8
    1384:	00070501 	andeq	r0, r7, r1, lsl #10
    1388:	d6010402 	strle	r0, [r1], -r2, lsl #8
    138c:	02001805 	andeq	r1, r0, #327680	; 0x50000
    1390:	052e0104 	streq	r0, [lr, #-260]!	; 0xfffffefc
    1394:	0402000a 	streq	r0, [r2], #-10
    1398:	0b054a01 	bleq	153ba4 <__bss_end__+0x149dbc>
    139c:	01040200 	mrseq	r0, R12_usr
    13a0:	0e052f06 	cdpeq	15, 0, cr2, cr5, cr6, {0}
    13a4:	01040200 	mrseq	r0, R12_usr
    13a8:	04052e06 	streq	r2, [r5], #-3590	; 0xfffff1fa
    13ac:	01040200 	mrseq	r0, R12_usr
    13b0:	054b062e 	strbeq	r0, [fp, #-1582]	; 0xfffff9d2
    13b4:	05010606 	streq	r0, [r1, #-1542]	; 0xfffff9fa
    13b8:	052f0605 	streq	r0, [pc, #-1541]!	; dbb <__code_start__-0x7245>
    13bc:	0501060a 	streq	r0, [r1, #-1546]	; 0xfffff9f6
    13c0:	052e4a07 	streq	r4, [lr, #-2567]!	; 0xfffff5f9
    13c4:	2e76030d 	cdpcs	3, 7, cr0, cr6, cr13, {0}
    13c8:	0d0b054a 	cfstr32eq	mvfx0, [fp, #-296]	; 0xfffffed8
    13cc:	02000d05 	andeq	r0, r0, #320	; 0x140
    13d0:	03060104 	movweq	r0, #24836	; 0x6104
    13d4:	11052e14 	tstne	r5, r4, lsl lr
    13d8:	01040200 	mrseq	r0, R12_usr
    13dc:	002d0513 	eoreq	r0, sp, r3, lsl r5
    13e0:	06010402 	streq	r0, [r1], -r2, lsl #8
    13e4:	002a0501 	eoreq	r0, sl, r1, lsl #10
    13e8:	2e010402 	cdpcs	4, 0, cr0, cr1, cr2, {0}
    13ec:	02001605 	andeq	r1, r0, #5242880	; 0x500000
    13f0:	054a0104 	strbeq	r0, [sl, #-260]	; 0xfffffefc
    13f4:	04020014 	streq	r0, [r2], #-20	; 0xffffffec
    13f8:	054b0601 	strbeq	r0, [fp, #-1537]	; 0xfffff9ff
    13fc:	0402000d 	streq	r0, [r2], #-13
    1400:	00010601 	andeq	r0, r1, r1, lsl #12
    1404:	4a010402 	bmi	42414 <__bss_end__+0x3862c>
    1408:	12052f06 	andne	r2, r5, #6, 30
    140c:	054a0106 	strbeq	r0, [sl, #-262]	; 0xfffffefa
    1410:	052f060d 	streq	r0, [pc, #-1549]!	; e0b <__code_start__-0x71f5>
    1414:	05010612 	streq	r0, [r1, #-1554]	; 0xfffff9ee
    1418:	054b0619 	strbeq	r0, [fp, #-1561]	; 0xfffff9e7
    141c:	04020004 	streq	r0, [r2], #-4
    1420:	01110302 	tsteq	r1, r2, lsl #6
    1424:	02040200 	andeq	r0, r4, #0, 4
    1428:	00020501 	andeq	r0, r2, r1, lsl #10
    142c:	15020402 	strne	r0, [r2, #-1026]	; 0xfffffbfe
    1430:	02000905 	andeq	r0, r0, #81920	; 0x14000
    1434:	01060204 	tsteq	r6, r4, lsl #4
    1438:	02040200 	andeq	r0, r4, #0, 4
    143c:	0001054a 	andeq	r0, r1, sl, asr #10
    1440:	9f020402 	svcls	0x00020402
    1444:	03060405 	movweq	r0, #25605	; 0x6405
    1448:	09054a6e 	stmdbeq	r5, {r1, r2, r3, r5, r6, r9, fp, lr}
    144c:	04050106 	streq	r0, [r5], #-262	; 0xfffffefa
    1450:	06052f06 	streq	r2, [r5], -r6, lsl #30
    1454:	04051106 	streq	r1, [r5], #-262	; 0xfffffefa
    1458:	030b052f 	movweq	r0, #46383	; 0xb52f
    145c:	19052e63 	stmdbne	r5, {r0, r1, r5, r6, r9, sl, fp, sp}
    1460:	01040200 	mrseq	r0, R12_usr
    1464:	2e240306 	cdpcs	3, 2, cr0, cr4, cr6, {0}
    1468:	02001a05 	andeq	r1, r0, #20480	; 0x5000
    146c:	05130104 	ldreq	r0, [r3, #-260]	; 0xfffffefc
    1470:	04020028 	streq	r0, [r2], #-40	; 0xffffffd8
    1474:	05010601 	streq	r0, [r1, #-1537]	; 0xfffff9ff
    1478:	04020025 	streq	r0, [r2], #-37	; 0xffffffdb
    147c:	1f052e01 	svcne	0x00052e01
    1480:	01040200 	mrseq	r0, R12_usr
    1484:	000b054a 	andeq	r0, fp, sl, asr #10
    1488:	06010402 	streq	r0, [r1], -r2, lsl #8
    148c:	0004054b 	andeq	r0, r4, fp, asr #10
    1490:	06010402 	streq	r0, [r1], -r2, lsl #8
    1494:	04020001 	streq	r0, [r2], #-1
    1498:	02004a01 	andeq	r4, r0, #4096	; 0x1000
    149c:	4e060104 	adfmis	f0, f6, f4
    14a0:	01040200 	mrseq	r0, R12_usr
    14a4:	04020001 	streq	r0, [r2], #-1
    14a8:	02000101 	andeq	r0, r0, #1073741824	; 0x40000000
    14ac:	00010104 	andeq	r0, r1, r4, lsl #2
    14b0:	06010402 	streq	r0, [r1], -r2, lsl #8
    14b4:	0402002e 	streq	r0, [r2], #-46	; 0xffffffd2
    14b8:	02006601 	andeq	r6, r0, #1048576	; 0x100000
    14bc:	002e0104 	eoreq	r0, lr, r4, lsl #2
    14c0:	06010402 	streq	r0, [r1], -r2, lsl #8
    14c4:	0348054a 	movteq	r0, #34122	; 0x854a
    14c8:	20087fa6 	andcs	r7, r8, r6, lsr #31
    14cc:	01130505 	tsteq	r3, r5, lsl #10
    14d0:	02002e06 	andeq	r2, r0, #96	; 0x60
    14d4:	2e060204 	cdpcs	2, 0, cr0, cr6, cr4, {0}
    14d8:	02040200 	andeq	r0, r4, #0, 4
    14dc:	04020001 	streq	r0, [r2], #-1
    14e0:	11051302 	tstne	r5, r2, lsl #6
    14e4:	02040200 	andeq	r0, r4, #0, 4
    14e8:	05050106 	streq	r0, [r5, #-262]	; 0xfffffefa
    14ec:	02040200 	andeq	r0, r4, #0, 4
    14f0:	07054b06 	streq	r4, [r5, -r6, lsl #22]
    14f4:	02040200 	andeq	r0, r4, #0, 4
    14f8:	09050106 	stmdbeq	r5, {r1, r2, r8}
    14fc:	0e054b06 	vmlaeq.f64	d4, d5, d6
    1500:	48050106 	stmdami	r5, {r1, r2, r8}
    1504:	01040200 	mrseq	r0, R12_usr
    1508:	00050562 	andeq	r0, r5, r2, ror #10
    150c:	06010402 	streq	r0, [r1], -r2, lsl #8
    1510:	0402004b 	streq	r0, [r2], #-75	; 0xffffffb5
    1514:	02000101 	andeq	r0, r0, #1073741824	; 0x40000000
    1518:	9e060104 	adflss	f0, f6, f4
    151c:	01040200 	mrseq	r0, R12_usr
    1520:	0402002e 	streq	r0, [r2], #-46	; 0xffffffd2
    1524:	052e0601 	streq	r0, [lr, #-1537]!	; 0xfffff9ff
    1528:	00e10340 	rsceq	r0, r1, r0, asr #6
    152c:	050106d6 	streq	r0, [r1, #-1750]	; 0xfffff92a
    1530:	059f0602 	ldreq	r0, [pc, #1538]	; 1b3a <__code_start__-0x64c6>
    1534:	0501061e 	streq	r0, [r1, #-1566]	; 0xfffff9e2
    1538:	05052e12 	streq	r2, [r5, #-3602]	; 0xfffff1ee
    153c:	02052f06 	andeq	r2, r5, #6, 30
    1540:	06090514 			; <UNDEFINED> instruction: 0x06090514
    1544:	06050501 	streq	r0, [r5], -r1, lsl #10
    1548:	1302054b 	movwne	r0, #9547	; 0x254b
    154c:	0d060805 	stceq	8, cr0, [r6, #-20]	; 0xffffffec
    1550:	05330205 	ldreq	r0, [r3, #-517]!	; 0xfffffdfb
    1554:	054c0604 	strbeq	r0, [ip, #-1540]	; 0xfffff9fc
    1558:	0501060f 	streq	r0, [r1, #-1551]	; 0xfffff9f1
    155c:	08052e09 	stmdaeq	r5, {r0, r3, r9, sl, fp, sp}
    1560:	02052c06 	andeq	r2, r5, #1536	; 0x600
    1564:	0d052e06 	stceq	14, cr2, [r5, #-24]	; 0xffffffe8
    1568:	01040200 	mrseq	r0, R12_usr
    156c:	0603054a 	streq	r0, [r3], -sl, asr #10
    1570:	0605054b 	streq	r0, [r5], -fp, asr #10
    1574:	06080501 	streq	r0, [r8], -r1, lsl #10
    1578:	060e054d 	streq	r0, [lr], -sp, asr #10
    157c:	2e0a0501 	cfsh32cs	mvfx0, mvfx10, #1
    1580:	2f060405 	svccs	0x00060405
    1584:	01060905 	tsteq	r6, r5, lsl #18
    1588:	2f060405 	svccs	0x00060405
    158c:	01060705 	tsteq	r6, r5, lsl #14
    1590:	0604052e 	streq	r0, [r4], -lr, lsr #10
    1594:	06070530 			; <UNDEFINED> instruction: 0x06070530
    1598:	06040501 	streq	r0, [r4], -r1, lsl #10
    159c:	05141330 	ldreq	r1, [r4, #-816]	; 0xfffffcd0
    15a0:	0510060d 	ldreq	r0, [r0, #-1549]	; 0xfffff9f3
    15a4:	05300609 	ldreq	r0, [r0, #-1545]!	; 0xfffff9f7
    15a8:	05010612 	streq	r0, [r1, #-1554]	; 0xfffff9ee
    15ac:	09052e0a 	stmdbeq	r5, {r1, r3, r9, sl, fp, sp}
    15b0:	06050566 	streq	r0, [r5], -r6, ror #10
    15b4:	0612054b 	ldreq	r0, [r2], -fp, asr #10
    15b8:	2e160501 	cfmul32cs	mvfx0, mvfx6, mvfx1
    15bc:	052e0b05 	streq	r0, [lr, #-2821]!	; 0xfffff4fb
    15c0:	052f0605 	streq	r0, [pc, #-1541]!	; fc3 <__code_start__-0x703d>
    15c4:	2e010608 	cfmadd32cs	mvax0, mvfx0, mvfx1, mvfx8
    15c8:	30060405 	andcc	r0, r6, r5, lsl #8
    15cc:	15014a01 	strne	r4, [r1, #-2561]	; 0xfffff5ff
    15d0:	01040200 	mrseq	r0, R12_usr
    15d4:	000f3602 	andeq	r3, pc, r2, lsl #12
    15d8:	01010402 	tsteq	r1, r2, lsl #8
    15dc:	01040200 	mrseq	r0, R12_usr
    15e0:	341105d6 	ldrcc	r0, [r1], #-1494	; 0xfffffa2a
    15e4:	02000113 	andeq	r0, r0, #-1073741820	; 0xc0000004
    15e8:	ba060204 	blt	181e00 <__bss_end__+0x178018>
    15ec:	03040200 	movweq	r0, #16896	; 0x4200
    15f0:	0200ba06 	andeq	fp, r0, #24576	; 0x6000
    15f4:	00010304 	andeq	r0, r1, r4, lsl #6
    15f8:	14030402 	strne	r0, [r3], #-1026	; 0xfffffbfe
    15fc:	02001505 	andeq	r1, r0, #20971520	; 0x1400000
    1600:	01060304 	tsteq	r6, r4, lsl #6
    1604:	02001105 	andeq	r1, r0, #1073741825	; 0x40000001
    1608:	2f060304 	svccs	0x00060304
    160c:	02001a05 	andeq	r1, r0, #20480	; 0x5000
    1610:	01060304 	tsteq	r6, r4, lsl #6
    1614:	02001105 	andeq	r1, r0, #1073741825	; 0x40000001
    1618:	d7060304 	strle	r0, [r6, -r4, lsl #6]
    161c:	03040200 	movweq	r0, #16896	; 0x4200
    1620:	04020013 	streq	r0, [r2], #-19	; 0xffffffed
    1624:	02001403 	andeq	r1, r0, #50331648	; 0x3000000
    1628:	00670304 	rsbeq	r0, r7, r4, lsl #6
    162c:	68030402 	stmdavs	r3, {r1, sl}
    1630:	02001405 	andeq	r1, r0, #83886080	; 0x5000000
    1634:	01060304 	tsteq	r6, r4, lsl #6
    1638:	02001305 	andeq	r1, r0, #335544320	; 0x14000000
    163c:	05820304 	streq	r0, [r2, #772]	; 0x304
    1640:	054e0618 	strbeq	r0, [lr, #-1560]	; 0xfffff9e8
    1644:	0501061b 	streq	r0, [r1, #-1563]	; 0xfffff9e5
    1648:	0905821a 	stmdbeq	r5, {r1, r3, r4, r9, pc}
    164c:	0d054b06 	vstreq	d4, [r5, #-24]	; 0xffffffe8
    1650:	052e0106 	streq	r0, [lr, #-262]!	; 0xfffffefa
    1654:	06f30609 	ldrbteq	r0, [r3], r9, lsl #12
    1658:	061505ba 			; <UNDEFINED> instruction: 0x061505ba
    165c:	06180530 			; <UNDEFINED> instruction: 0x06180530
    1660:	66170501 	ldrvs	r0, [r7], -r1, lsl #10
    1664:	4b061905 	blmi	187a80 <__bss_end__+0x17dc98>
    1668:	03061505 	movweq	r1, #25861	; 0x6505
    166c:	1105666f 	tstne	r5, pc, ror #12
    1670:	d6014806 	strle	r4, [r1], -r6, lsl #16
    1674:	0b030905 	bleq	c3a90 <__bss_end__+0xb9ca8>
    1678:	060d052e 	streq	r0, [sp], -lr, lsr #10
    167c:	09052e01 	stmdbeq	r5, {r0, r9, sl, fp, sp}
    1680:	ba06f306 	blt	1be2a0 <__bss_end__+0x1b44b8>
    1684:	2f061505 	svccs	0x00061505
    1688:	66750306 	ldrbtvs	r0, [r5], -r6, lsl #6
    168c:	03061905 	movweq	r1, #26885	; 0x6905
    1690:	15054a13 	strne	r4, [r5, #-2579]	; 0xfffff5ed
    1694:	666d0306 	strbtvs	r0, [sp], -r6, lsl #6
    1698:	4a150306 	bmi	5422b8 <__bss_end__+0x5384d0>
    169c:	2e06ba01 	vmlacs.f32	s22, s12, s2
    16a0:	1a060505 	bne	182abc <__bss_end__+0x178cd4>
    16a4:	032e9e01 			; <UNDEFINED> instruction: 0x032e9e01
    16a8:	0905010e 	stmdbeq	r5, {r1, r2, r3, r8}
    16ac:	05050106 	streq	r0, [r5, #-262]	; 0xfffffefa
    16b0:	05750806 	ldrbeq	r0, [r5, #-2054]!	; 0xfffff7fa
    16b4:	01180304 	tsteq	r8, r4, lsl #6
    16b8:	01060705 	tsteq	r6, r5, lsl #14
    16bc:	31060405 	tstcc	r6, r5, lsl #8
    16c0:	67030505 	strvs	r0, [r3, -r5, lsl #10]
    16c4:	061c052e 	ldreq	r0, [ip], -lr, lsr #10
    16c8:	82090501 	andhi	r0, r9, #4194304	; 0x400000
    16cc:	f3060505 	vrshl.u8	d0, d5, d6
    16d0:	061c0531 			; <UNDEFINED> instruction: 0x061c0531
    16d4:	82090501 	andhi	r0, r9, #4194304	; 0x400000
    16d8:	f3060505 	vrshl.u8	d0, d5, d6
    16dc:	061b0530 			; <UNDEFINED> instruction: 0x061b0530
    16e0:	82090501 	andhi	r0, r9, #4194304	; 0x400000
    16e4:	f3060505 	vrshl.u8	d0, d5, d6
    16e8:	06070530 			; <UNDEFINED> instruction: 0x06070530
    16ec:	06050501 	streq	r0, [r5], -r1, lsl #10
    16f0:	09053083 	stmdbeq	r5, {r0, r1, r7, ip, sp}
    16f4:	05050106 	streq	r0, [r5, #-262]	; 0xfffffefa
    16f8:	05750806 	ldrbeq	r0, [r5, #-2054]!	; 0xfffff7fa
    16fc:	22053011 	andcs	r3, r5, #17, 0
    1700:	05050106 	streq	r0, [r5, #-262]	; 0xfffffefa
    1704:	11054b06 	tstne	r5, r6, lsl #22
    1708:	83050583 	movwhi	r0, #21891	; 0x5583
    170c:	05359e01 	ldreq	r9, [r5, #-3585]!	; 0xfffff1ff
    1710:	0501060e 	streq	r0, [r1, #-1550]	; 0xfffff9f2
    1714:	2d062e0a 	stccs	14, cr2, [r6, #-40]	; 0xffffffd8
    1718:	01060405 	tsteq	r6, r5, lsl #8
    171c:	02001305 	andeq	r1, r0, #335544320	; 0x14000000
    1720:	054a0104 	strbeq	r0, [sl, #-260]	; 0xfffffefc
    1724:	04020010 	streq	r0, [r2], #-16
    1728:	02002e01 	andeq	r2, r0, #1, 28
    172c:	05660104 	strbeq	r0, [r6, #-260]!	; 0xfffffefc
    1730:	05160602 	ldreq	r0, [r6, #-1538]	; 0xfffff9fe
    1734:	05010607 	streq	r0, [r1, #-1543]	; 0xfffff9f9
    1738:	054b0602 	strbeq	r0, [fp, #-1538]	; 0xfffff9fe
    173c:	66130601 	ldrvs	r0, [r3], -r1, lsl #12
    1740:	01001e02 	tsteq	r0, r2, lsl #28
    1744:	0000c301 	andeq	ip, r0, r1, lsl #6
    1748:	82000300 	andhi	r0, r0, #0, 6
    174c:	02000000 	andeq	r0, r0, #0, 0
    1750:	0d0efb01 	vstreq	d15, [lr, #-4]
    1754:	01010100 	mrseq	r0, (UNDEF: 17)
    1758:	00000001 	andeq	r0, r0, r1
    175c:	01000001 	tsteq	r0, r1
    1760:	74732f2e 	ldrbtvc	r2, [r3], #-3886	; 0xfffff0d2
    1764:	2d666661 	stclcs	6, cr6, [r6, #-388]!	; 0xfffffe7c
    1768:	00637273 	rsbeq	r7, r3, r3, ror r2
    176c:	6573552f 	ldrbvs	r5, [r3, #-1327]!	; 0xfffffad1
    1770:	652f7372 	strvs	r7, [pc, #-882]!	; 1406 <__code_start__-0x6bfa>
    1774:	62636972 	rsbvs	r6, r3, #1867776	; 0x1c8000
    1778:	2f726165 	svccs	0x00726165
    177c:	75636f44 	strbvc	r6, [r3, #-3908]!	; 0xfffff0bc
    1780:	746e656d 	strbtvc	r6, [lr], #-1389	; 0xfffffa93
    1784:	53432f73 	movtpl	r2, #16243	; 0x3f73
    1788:	45303431 	ldrmi	r3, [r0, #-1073]!	; 0xfffffbcf
    178c:	3173632f 	cmncc	r3, pc, lsr #6
    1790:	2d453034 	stclcs	0, cr3, [r5, #-208]	; 0xffffff30
    1794:	616e6966 	cmnvs	lr, r6, ror #18
    1798:	72702d6c 	rsbsvc	r2, r0, #108, 26	; 0x1b00
    179c:	63656a6f 	cmnvs	r5, #454656	; 0x6f000
    17a0:	696c2f74 	stmdbvs	ip!, {r2, r4, r5, r6, r8, r9, sl, fp, sp}^
    17a4:	322d7362 	eorcc	r7, sp, #-2013265919	; 0x88000001
    17a8:	786c3034 	stmdavc	ip!, {r2, r4, r5, ip, sp}^
    17ac:	62696c2f 	rsbvs	r6, r9, #12032	; 0x2f00
    17b0:	692f6970 	stmdbvs	pc!, {r4, r5, r6, r8, fp, sp, lr}	; <UNPREDICTABLE>
    17b4:	756c636e 	strbvc	r6, [ip, #-878]!	; 0xfffffc92
    17b8:	00006564 	andeq	r6, r0, r4, ror #10
    17bc:	68636163 	stmdavs	r3!, {r0, r1, r5, r6, r8, sp, lr}^
    17c0:	00632e65 	rsbeq	r2, r3, r5, ror #28
    17c4:	72000001 	andvc	r0, r0, #1, 0
    17c8:	682e6970 	stmdavs	lr!, {r4, r5, r6, r8, fp, sp, lr}
    17cc:	00000200 	andeq	r0, r0, r0, lsl #4
    17d0:	00190500 	andseq	r0, r9, r0, lsl #10
    17d4:	8b200205 	blhi	801ff0 <__bss_end__+0x7f8208>
    17d8:	05140000 	ldreq	r0, [r4, #-0]
    17dc:	05131305 	ldreq	r1, [r3, #-773]	; 0xfffffcfb
    17e0:	05132f02 	ldreq	r2, [r3, #-3842]	; 0xfffff0fe
    17e4:	05010604 	streq	r0, [r1, #-1540]	; 0xfffff9fc
    17e8:	052f0605 	streq	r0, [pc, #-1541]!	; 11eb <__code_start__-0x6e15>
    17ec:	052f0601 	streq	r0, [pc, #-1537]!	; 11f3 <__code_start__-0x6e0d>
    17f0:	0531061a 	ldreq	r0, [r1, #-1562]!	; 0xfffff9e6
    17f4:	05131305 	ldreq	r1, [r3, #-773]	; 0xfffffcfb
    17f8:	05133002 	ldreq	r3, [r3, #-2]
    17fc:	05010604 	streq	r0, [r1, #-1540]	; 0xfffff9fc
    1800:	052f0605 	streq	r0, [pc, #-1541]!	; 1203 <__code_start__-0x6dfd>
    1804:	022f0601 	eoreq	r0, pc, #1048576	; 0x100000
    1808:	01010002 	tsteq	r1, r2
    180c:	000000a4 	andeq	r0, r0, r4, lsr #1
    1810:	00890003 	addeq	r0, r9, r3
    1814:	01020000 	mrseq	r0, (UNDEF: 2)
    1818:	000d0efb 	strdeq	r0, [sp], -fp
    181c:	01010101 	tsteq	r1, r1, lsl #2
    1820:	01000000 	mrseq	r0, (UNDEF: 0)
    1824:	2e010000 	cdpcs	0, 0, cr0, cr1, cr0, {0}
    1828:	6174732f 	cmnvs	r4, pc, lsr #6
    182c:	732d6666 			; <UNDEFINED> instruction: 0x732d6666
    1830:	2f006372 	svccs	0x00006372
    1834:	72657355 	rsbvc	r7, r5, #1409286145	; 0x54000001
    1838:	72652f73 	rsbvc	r2, r5, #460	; 0x1cc
    183c:	65626369 	strbvs	r6, [r2, #-873]!	; 0xfffffc97
    1840:	442f7261 	strtmi	r7, [pc], #-609	; 1848 <__code_start__-0x67b8>
    1844:	6d75636f 	ldclvs	3, cr6, [r5, #-444]!	; 0xfffffe44
    1848:	73746e65 	cmnvc	r4, #1616	; 0x650
    184c:	3153432f 	cmpcc	r3, pc, lsr #6
    1850:	2f453034 	svccs	0x00453034
    1854:	34317363 	ldrtcc	r7, [r1], #-867	; 0xfffffc9d
    1858:	662d4530 			; <UNDEFINED> instruction: 0x662d4530
    185c:	6c616e69 	stclvs	14, cr6, [r1], #-420	; 0xfffffe5c
    1860:	6f72702d 	svcvs	0x0072702d
    1864:	7463656a 	strbtvc	r6, [r3], #-1386	; 0xfffffa96
    1868:	62696c2f 	rsbvs	r6, r9, #12032	; 0x2f00
    186c:	34322d73 	ldrtcc	r2, [r2], #-3443	; 0xfffff28d
    1870:	2f786c30 	svccs	0x00786c30
    1874:	7062696c 	rsbvc	r6, r2, ip, ror #18
    1878:	6e692f69 	cdpvs	15, 6, cr2, cr9, cr9, {3}
    187c:	64756c63 	ldrbtvs	r6, [r5], #-3171	; 0xfffff39d
    1880:	63000065 	movwvs	r0, #101	; 0x65
    1884:	6e61656c 	cdpvs	5, 6, cr6, cr1, cr12, {3}
    1888:	6265722d 	rsbvs	r7, r5, #-805306366	; 0xd0000002
    188c:	2e746f6f 	cdpcs	15, 7, cr6, cr4, cr15, {3}
    1890:	00010063 	andeq	r0, r1, r3, rrx
    1894:	69707200 	ldmdbvs	r0!, {r9, ip, sp, lr}^
    1898:	0200682e 	andeq	r6, r0, #3014656	; 0x2e0000
    189c:	05000000 	streq	r0, [r0, #-0]
    18a0:	02050019 	andeq	r0, r5, #25, 0
    18a4:	00008b40 	andeq	r8, r0, r0, asr #22
    18a8:	2f050515 	svccs	0x00050515
    18ac:	024b2f83 	subeq	r2, fp, #524	; 0x20c
    18b0:	01010006 	tsteq	r1, r6
    18b4:	000000be 	strheq	r0, [r0], -lr
    18b8:	00830003 	addeq	r0, r3, r3
    18bc:	01020000 	mrseq	r0, (UNDEF: 2)
    18c0:	000d0efb 	strdeq	r0, [sp], -fp
    18c4:	01010101 	tsteq	r1, r1, lsl #2
    18c8:	01000000 	mrseq	r0, (UNDEF: 0)
    18cc:	2e010000 	cdpcs	0, 0, cr0, cr1, cr0, {0}
    18d0:	6174732f 	cmnvs	r4, pc, lsr #6
    18d4:	732d6666 			; <UNDEFINED> instruction: 0x732d6666
    18d8:	2f006372 	svccs	0x00006372
    18dc:	72657355 	rsbvc	r7, r5, #1409286145	; 0x54000001
    18e0:	72652f73 	rsbvc	r2, r5, #460	; 0x1cc
    18e4:	65626369 	strbvs	r6, [r2, #-873]!	; 0xfffffc97
    18e8:	442f7261 	strtmi	r7, [pc], #-609	; 18f0 <__code_start__-0x6710>
    18ec:	6d75636f 	ldclvs	3, cr6, [r5, #-444]!	; 0xfffffe44
    18f0:	73746e65 	cmnvc	r4, #1616	; 0x650
    18f4:	3153432f 	cmpcc	r3, pc, lsr #6
    18f8:	2f453034 	svccs	0x00453034
    18fc:	34317363 	ldrtcc	r7, [r1], #-867	; 0xfffffc9d
    1900:	662d4530 			; <UNDEFINED> instruction: 0x662d4530
    1904:	6c616e69 	stclvs	14, cr6, [r1], #-420	; 0xfffffe5c
    1908:	6f72702d 	svcvs	0x0072702d
    190c:	7463656a 	strbtvc	r6, [r3], #-1386	; 0xfffffa96
    1910:	62696c2f 	rsbvs	r6, r9, #12032	; 0x2f00
    1914:	34322d73 	ldrtcc	r2, [r2], #-3443	; 0xfffff28d
    1918:	2f786c30 	svccs	0x00786c30
    191c:	7062696c 	rsbvc	r6, r2, ip, ror #18
    1920:	6e692f69 	cdpvs	15, 6, cr2, cr9, cr9, {3}
    1924:	64756c63 	ldrbtvs	r6, [r5], #-3171	; 0xfffff39d
    1928:	63000065 	movwvs	r0, #101	; 0x65
    192c:	72617473 	rsbvc	r7, r1, #1929379840	; 0x73000000
    1930:	00632e74 	rsbeq	r2, r3, r4, ror lr
    1934:	72000001 	andvc	r0, r0, #1, 0
    1938:	682e6970 	stmdavs	lr!, {r4, r5, r6, r8, fp, sp, lr}
    193c:	00000200 	andeq	r0, r0, r0, lsl #4
    1940:	00100500 	andseq	r0, r0, r0, lsl #10
    1944:	8b6c0205 	blhi	1b02160 <__bss_end__+0x1af8378>
    1948:	05150000 	ldreq	r0, [r5, #-0]
    194c:	02052f05 	andeq	r2, r5, #5, 30
    1950:	14050513 	strne	r0, [r5], #-1299	; 0xfffffaed
    1954:	05141330 	ldreq	r1, [r4, #-816]	; 0xfffffcd0
    1958:	060f060a 	streq	r0, [pc], -sl, lsl #12
    195c:	4b090531 	blmi	242e28 <__bss_end__+0x239040>
    1960:	01061005 	tsteq	r6, r5
    1964:	0605054a 	streq	r0, [r5], -sl, asr #10
    1968:	01013230 	tsteq	r1, r0, lsr r2
    196c:	0205144a 	andeq	r1, r5, #1241513984	; 0x4a000000
    1970:	0006022f 	andeq	r0, r6, pc, lsr #4
    1974:	00a20101 	adceq	r0, r2, r1, lsl #2
    1978:	00030000 	andeq	r0, r3, r0
    197c:	0000008a 	andeq	r0, r0, sl, lsl #1
    1980:	0efb0102 	cdpeq	1, 15, cr0, cr11, cr2, {0}
    1984:	0101000d 	tsteq	r1, sp
    1988:	00000101 	andeq	r0, r0, r1, lsl #2
    198c:	00000100 	andeq	r0, r0, r0, lsl #2
    1990:	732f2e01 			; <UNDEFINED> instruction: 0x732f2e01
    1994:	66666174 			; <UNDEFINED> instruction: 0x66666174
    1998:	6372732d 	cmnvs	r2, #-1275068416	; 0xb4000000
    199c:	73552f00 	cmpvc	r5, #0, 30
    19a0:	2f737265 	svccs	0x00737265
    19a4:	63697265 	cmnvs	r9, #1342177286	; 0x50000006
    19a8:	72616562 	rsbvc	r6, r1, #411041792	; 0x18800000
    19ac:	636f442f 	cmnvs	pc, #788529152	; 0x2f000000
    19b0:	6e656d75 	mcrvs	13, 3, r6, cr5, cr5, {3}
    19b4:	432f7374 			; <UNDEFINED> instruction: 0x432f7374
    19b8:	30343153 	eorscc	r3, r4, r3, asr r1
    19bc:	73632f45 	cmnvc	r3, #276	; 0x114
    19c0:	45303431 	ldrmi	r3, [r0, #-1073]!	; 0xfffffbcf
    19c4:	6e69662d 	cdpvs	6, 6, cr6, cr9, cr13, {1}
    19c8:	702d6c61 	eorvc	r6, sp, r1, ror #24
    19cc:	656a6f72 	strbvs	r6, [sl, #-3954]!	; 0xfffff08e
    19d0:	6c2f7463 	cfstrsvs	mvf7, [pc], #-396	; 184c <__code_start__-0x67b4>
    19d4:	2d736269 	lfmcs	f6, 2, [r3, #-420]!	; 0xfffffe5c
    19d8:	6c303432 	cfldrsvs	mvf3, [r0], #-200	; 0xffffff38
    19dc:	696c2f78 	stmdbvs	ip!, {r3, r4, r5, r6, r8, r9, sl, fp, sp}^
    19e0:	2f697062 	svccs	0x00697062
    19e4:	6c636e69 	stclvs	14, cr6, [r3], #-420	; 0xfffffe5c
    19e8:	00656475 	rsbeq	r6, r5, r5, ror r4
    19ec:	73756300 	cmnvc	r5, #0, 6
    19f0:	2d6d6f74 	stclcs	15, cr6, [sp, #-464]!	; 0xfffffe30
    19f4:	64616f6c 	strbtvs	r6, [r1], #-3948	; 0xfffff094
    19f8:	632e7265 			; <UNDEFINED> instruction: 0x632e7265
    19fc:	00000100 	andeq	r0, r0, r0, lsl #2
    1a00:	2e697072 	mcrcs	0, 3, r7, cr9, cr2, {3}
    1a04:	00020068 	andeq	r0, r2, r8, rrx
    1a08:	1a050000 	bne	141a10 <__bss_end__+0x137c28>
    1a0c:	a8020500 	stmdage	r2, {r8, sl}
    1a10:	1500008b 	strne	r0, [r0, #-139]	; 0xffffff75
    1a14:	02140105 	andseq	r0, r4, #1073741825	; 0x40000001
    1a18:	01010002 	tsteq	r1, r2
    1a1c:	000000f2 	strdeq	r0, [r0], -r2
    1a20:	00830003 	addeq	r0, r3, r3
    1a24:	01020000 	mrseq	r0, (UNDEF: 2)
    1a28:	000d0efb 	strdeq	r0, [sp], -fp
    1a2c:	01010101 	tsteq	r1, r1, lsl #2
    1a30:	01000000 	mrseq	r0, (UNDEF: 0)
    1a34:	2e010000 	cdpcs	0, 0, cr0, cr1, cr0, {0}
    1a38:	6174732f 	cmnvs	r4, pc, lsr #6
    1a3c:	732d6666 			; <UNDEFINED> instruction: 0x732d6666
    1a40:	2f006372 	svccs	0x00006372
    1a44:	72657355 	rsbvc	r7, r5, #1409286145	; 0x54000001
    1a48:	72652f73 	rsbvc	r2, r5, #460	; 0x1cc
    1a4c:	65626369 	strbvs	r6, [r2, #-873]!	; 0xfffffc97
    1a50:	442f7261 	strtmi	r7, [pc], #-609	; 1a58 <__code_start__-0x65a8>
    1a54:	6d75636f 	ldclvs	3, cr6, [r5, #-444]!	; 0xfffffe44
    1a58:	73746e65 	cmnvc	r4, #1616	; 0x650
    1a5c:	3153432f 	cmpcc	r3, pc, lsr #6
    1a60:	2f453034 	svccs	0x00453034
    1a64:	34317363 	ldrtcc	r7, [r1], #-867	; 0xfffffc9d
    1a68:	662d4530 			; <UNDEFINED> instruction: 0x662d4530
    1a6c:	6c616e69 	stclvs	14, cr6, [r1], #-420	; 0xfffffe5c
    1a70:	6f72702d 	svcvs	0x0072702d
    1a74:	7463656a 	strbtvc	r6, [r3], #-1386	; 0xfffffa96
    1a78:	62696c2f 	rsbvs	r6, r9, #12032	; 0x2f00
    1a7c:	34322d73 	ldrtcc	r2, [r2], #-3443	; 0xfffff28d
    1a80:	2f786c30 	svccs	0x00786c30
    1a84:	7062696c 	rsbvc	r6, r2, ip, ror #18
    1a88:	6e692f69 	cdpvs	15, 6, cr2, cr9, cr9, {3}
    1a8c:	64756c63 	ldrbtvs	r6, [r5], #-3171	; 0xfffff39d
    1a90:	72000065 	andvc	r0, r0, #101, 0	; 0x65
    1a94:	6f6f6265 	svcvs	0x006f6265
    1a98:	00632e74 	rsbeq	r2, r3, r4, ror lr
    1a9c:	72000001 	andvc	r0, r0, #1, 0
    1aa0:	682e6970 	stmdavs	lr!, {r4, r5, r6, r8, fp, sp, lr}
    1aa4:	00000200 	andeq	r0, r0, r0, lsl #4
    1aa8:	00190500 	andseq	r0, r9, r0, lsl #10
    1aac:	8bc40205 	blhi	ff1022c8 <__bss_end__+0xff0f84e0>
    1ab0:	0d030000 	stceq	0, cr0, [r3, #-0]
    1ab4:	13050501 	movwne	r0, #21761	; 0x5501
    1ab8:	13053113 	movwne	r3, #20755	; 0x5113
    1abc:	01050106 	tsteq	r5, r6, lsl #2
    1ac0:	061b052f 	ldreq	r0, [fp], -pc, lsr #10
    1ac4:	13050585 	movwne	r0, #21893	; 0x5585
    1ac8:	2f090514 	svccs	0x00090514
    1acc:	01061605 	tsteq	r6, r5, lsl #12
    1ad0:	052e0e05 	streq	r0, [lr, #-3589]!	; 0xfffff1fb
    1ad4:	052f0605 	streq	r0, [pc, #-1541]!	; 14d7 <__code_start__-0x6b29>
    1ad8:	052f0601 	streq	r0, [pc, #-1537]!	; 14df <__code_start__-0x6b21>
    1adc:	05300617 	ldreq	r0, [r0, #-1559]!	; 0xfffff9e9
    1ae0:	08052f05 	stmdaeq	r5, {r0, r2, r8, r9, sl, fp, sp}
    1ae4:	07050106 	streq	r0, [r5, -r6, lsl #2]
    1ae8:	0605052e 	streq	r0, [r5], -lr, lsr #10
    1aec:	4d2f3050 	stcmi	0, cr3, [pc, #-320]!	; 19b4 <__code_start__-0x664c>
    1af0:	15131313 	ldrne	r1, [r3, #-787]	; 0xfffffced
    1af4:	04020067 	streq	r0, [r2], #-103	; 0xffffff99
    1af8:	0d056701 	stceq	7, cr6, [r5, #-4]
    1afc:	01040200 	mrseq	r0, R12_usr
    1b00:	000a0501 	andeq	r0, sl, r1, lsl #10
    1b04:	01010402 	tsteq	r1, r2, lsl #8
    1b08:	6d030905 	vstrvs.16	s0, [r3, #-10]	; <UNPREDICTABLE>
    1b0c:	000c022e 	andeq	r0, ip, lr, lsr #4
    1b10:	00f90101 	rscseq	r0, r9, r1, lsl #2
    1b14:	00030000 	andeq	r0, r3, r0
    1b18:	00000082 	andeq	r0, r0, r2, lsl #1
    1b1c:	0efb0102 	cdpeq	1, 15, cr0, cr11, cr2, {0}
    1b20:	0101000d 	tsteq	r1, sp
    1b24:	00000101 	andeq	r0, r0, r1, lsl #2
    1b28:	00000100 	andeq	r0, r0, r0, lsl #2
    1b2c:	732f2e01 			; <UNDEFINED> instruction: 0x732f2e01
    1b30:	66666174 			; <UNDEFINED> instruction: 0x66666174
    1b34:	6372732d 	cmnvs	r2, #-1275068416	; 0xb4000000
    1b38:	73552f00 	cmpvc	r5, #0, 30
    1b3c:	2f737265 	svccs	0x00737265
    1b40:	63697265 	cmnvs	r9, #1342177286	; 0x50000006
    1b44:	72616562 	rsbvc	r6, r1, #411041792	; 0x18800000
    1b48:	636f442f 	cmnvs	pc, #788529152	; 0x2f000000
    1b4c:	6e656d75 	mcrvs	13, 3, r6, cr5, cr5, {3}
    1b50:	432f7374 			; <UNDEFINED> instruction: 0x432f7374
    1b54:	30343153 	eorscc	r3, r4, r3, asr r1
    1b58:	73632f45 	cmnvc	r3, #276	; 0x114
    1b5c:	45303431 	ldrmi	r3, [r0, #-1073]!	; 0xfffffbcf
    1b60:	6e69662d 	cdpvs	6, 6, cr6, cr9, cr13, {1}
    1b64:	702d6c61 	eorvc	r6, sp, r1, ror #24
    1b68:	656a6f72 	strbvs	r6, [sl, #-3954]!	; 0xfffff08e
    1b6c:	6c2f7463 	cfstrsvs	mvf7, [pc], #-396	; 19e8 <__code_start__-0x6618>
    1b70:	2d736269 	lfmcs	f6, 2, [r3, #-420]!	; 0xfffffe5c
    1b74:	6c303432 	cfldrsvs	mvf3, [r0], #-200	; 0xffffff38
    1b78:	696c2f78 	stmdbvs	ip!, {r3, r4, r5, r6, r8, r9, sl, fp, sp}^
    1b7c:	2f697062 	svccs	0x00697062
    1b80:	6c636e69 	stclvs	14, cr6, [r3], #-420	; 0xfffffe5c
    1b84:	00656475 	rsbeq	r6, r5, r5, ror r4
    1b88:	6d697400 	cfstrdvs	mvd7, [r9, #-0]
    1b8c:	632e7265 			; <UNDEFINED> instruction: 0x632e7265
    1b90:	00000100 	andeq	r0, r0, r0, lsl #2
    1b94:	2e697072 	mcrcs	0, 3, r7, cr9, cr2, {3}
    1b98:	00020068 	andeq	r0, r2, r8, rrx
    1b9c:	23050000 	movwcs	r0, #20480	; 0x5000
    1ba0:	44020500 	strmi	r0, [r2], #-1280	; 0xfffffb00
    1ba4:	1500008c 	strne	r0, [r0, #-140]	; 0xffffff74
    1ba8:	052f0505 	streq	r0, [pc, #-1285]!	; 16ab <__code_start__-0x6955>
    1bac:	0501060c 	streq	r0, [r1, #-1548]	; 0xfffff9f4
    1bb0:	1f054b01 	svcne	0x00054b01
    1bb4:	05054d06 	streq	r4, [r5, #-3334]	; 0xfffff2fa
    1bb8:	12052f31 	andne	r2, r5, #196	; 0xc4
    1bbc:	05050106 	streq	r0, [r5, #-262]	; 0xfffffefa
    1bc0:	052f4b06 	streq	r4, [pc, #-2822]!	; 10c2 <__code_start__-0x6f3e>
    1bc4:	05130601 	ldreq	r0, [r3, #-1537]	; 0xfffff9ff
    1bc8:	064c061c 			; <UNDEFINED> instruction: 0x064c061c
    1bcc:	06050501 	streq	r0, [r5], -r1, lsl #10
    1bd0:	0613054b 	ldreq	r0, [r3], -fp, asr #10
    1bd4:	05052e01 	streq	r2, [r5, #-3585]	; 0xfffff1ff
    1bd8:	09052f06 	stmdbeq	r5, {r1, r2, r8, r9, sl, fp, sp}
    1bdc:	06170513 			; <UNDEFINED> instruction: 0x06170513
    1be0:	06090501 	streq	r0, [r9], -r1, lsl #10
    1be4:	0611052f 	ldreq	r0, [r1], -pc, lsr #10
    1be8:	2e0c0501 	cfsh32cs	mvfx0, mvfx12, #1
    1bec:	6b061c05 	blvs	188c08 <__bss_end__+0x17ee20>
    1bf0:	05050106 	streq	r0, [r5, #-262]	; 0xfffffefa
    1bf4:	4a062f06 	bmi	18d814 <__bss_end__+0x183a2c>
    1bf8:	054b0105 	strbeq	r0, [fp, #-261]	; 0xfffffefb
    1bfc:	062f061e 			; <UNDEFINED> instruction: 0x062f061e
    1c00:	06050501 	streq	r0, [r5], -r1, lsl #10
    1c04:	054a062f 	strbeq	r0, [sl, #-1583]	; 0xfffff9d1
    1c08:	02024b01 	andeq	r4, r2, #1024	; 0x400
    1c0c:	bb010100 	bllt	42014 <__bss_end__+0x3822c>
    1c10:	03000001 	movweq	r0, #1
    1c14:	0000bf00 	andeq	fp, r0, r0, lsl #30
    1c18:	fb010200 	blx	42422 <__bss_end__+0x3863a>
    1c1c:	01000d0e 	tsteq	r0, lr, lsl #26
    1c20:	00010101 	andeq	r0, r1, r1, lsl #2
    1c24:	00010000 	andeq	r0, r1, r0
    1c28:	682f0100 	stmdavs	pc!, {r8}	; <UNPREDICTABLE>
    1c2c:	2f656d6f 	svccs	0x00656d6f
    1c30:	6c676e65 	stclvs	14, cr6, [r7], #-404	; 0xfffffe6c
    1c34:	632f7265 			; <UNDEFINED> instruction: 0x632f7265
    1c38:	7373616c 	cmnvc	r3, #27
    1c3c:	3273632f 	rsbscc	r6, r3, #-1140850688	; 0xbc000000
    1c40:	786c3034 	stmdavc	ip!, {r2, r4, r5, ip, sp}^
    1c44:	7332322d 	teqvc	r2, #-805306366	; 0xd0000002
    1c48:	2f2f7270 	svccs	0x002f7270
    1c4c:	7062696c 	rsbvc	r6, r2, ip, ror #18
    1c50:	6e692f69 	cdpvs	15, 6, cr2, cr9, cr9, {3}
    1c54:	64756c63 	ldrbtvs	r6, [r5], #-3171	; 0xfffff39d
    1c58:	752f0065 	strvc	r0, [pc, #-101]!	; 1bfb <__code_start__-0x6405>
    1c5c:	732f7273 			; <UNDEFINED> instruction: 0x732f7273
    1c60:	65726168 	ldrbvs	r6, [r2, #-360]!	; 0xfffffe98
    1c64:	6363672f 	cmnvs	r3, #12320768	; 0xbc0000
    1c68:	6d72612d 	ldfvse	f6, [r2, #-180]!	; 0xffffff4c
    1c6c:	6e6f6e2d 	cdpvs	14, 6, cr6, cr15, cr13, {1}
    1c70:	61652d65 	cmnvs	r5, r5, ror #26
    1c74:	312d6962 			; <UNDEFINED> instruction: 0x312d6962
    1c78:	2d332e30 	ldccs	14, cr2, [r3, #-192]!	; 0xffffff40
    1c7c:	31323032 	teqcc	r2, r2, lsr r0
    1c80:	2f30312e 	svccs	0x0030312e
    1c84:	2f62696c 	svccs	0x0062696c
    1c88:	2f636367 	svccs	0x00636367
    1c8c:	2d6d7261 	sfmcs	f7, 2, [sp, #-388]!	; 0xfffffe7c
    1c90:	656e6f6e 	strbvs	r6, [lr, #-3950]!	; 0xfffff092
    1c94:	6261652d 	rsbvs	r6, r1, #188743680	; 0xb400000
    1c98:	30312f69 	eorscc	r2, r1, r9, ror #30
    1c9c:	312e332e 			; <UNDEFINED> instruction: 0x312e332e
    1ca0:	636e692f 	cmnvs	lr, #770048	; 0xbc000
    1ca4:	6564756c 	strbvs	r7, [r4, #-1388]!	; 0xfffffa94
    1ca8:	70670000 	rsbvc	r0, r7, r0
    1cac:	632e6f69 			; <UNDEFINED> instruction: 0x632e6f69
    1cb0:	00000000 	andeq	r0, r0, r0
    1cb4:	2e697072 	mcrcs	0, 3, r7, cr9, cr2, {3}
    1cb8:	00010068 	andeq	r0, r1, r8, rrx
    1cbc:	64747300 	ldrbtvs	r7, [r4], #-768	; 0xfffffd00
    1cc0:	2d746e69 	ldclcs	14, cr6, [r4, #-420]!	; 0xfffffe5c
    1cc4:	2e636367 	cdpcs	3, 6, cr6, cr3, cr7, {3}
    1cc8:	00020068 	andeq	r0, r2, r8, rrx
    1ccc:	69706700 	ldmdbvs	r0!, {r8, r9, sl, sp, lr}^
    1cd0:	00682e6f 	rsbeq	r2, r8, pc, ror #28
    1cd4:	00000001 	andeq	r0, r0, r1
    1cd8:	05003805 	streq	r3, [r0, #-2053]	; 0xfffff7fb
    1cdc:	008cc802 	addeq	ip, ip, r2, lsl #16
    1ce0:	01270300 			; <UNDEFINED> instruction: 0x01270300
    1ce4:	05130505 	ldreq	r0, [r3, #-1285]	; 0xfffffafb
    1ce8:	05010607 	streq	r0, [r1, #-1543]	; 0xfffff9f9
    1cec:	05054938 	streq	r4, [r5, #-2360]	; 0xfffff6c8
    1cf0:	07054d06 	streq	r4, [r5, -r6, lsl #26]
    1cf4:	05050106 	streq	r0, [r5, #-262]	; 0xfffffefa
    1cf8:	18054c06 	stmdane	r5, {r1, r2, sl, fp, lr}
    1cfc:	0e050106 	adfeqs	f0, f5, f6
    1d00:	060505ba 			; <UNDEFINED> instruction: 0x060505ba
    1d04:	061c052f 	ldreq	r0, [ip], -pc, lsr #10
    1d08:	0e052e01 	cdpeq	14, 0, cr2, cr5, cr1, {0}
    1d0c:	0605052e 	streq	r0, [r5], -lr, lsr #10
    1d10:	06120530 			; <UNDEFINED> instruction: 0x06120530
    1d14:	06050501 	streq	r0, [r5], -r1, lsl #10
    1d18:	0607054b 	streq	r0, [r7], -fp, asr #10
    1d1c:	06050501 	streq	r0, [r5], -r1, lsl #10
    1d20:	2e06134b 	cdpcs	3, 0, cr1, cr6, cr11, {2}
    1d24:	054b0105 	strbeq	r0, [fp, #-261]	; 0xfffffefb
    1d28:	064c0624 	strbeq	r0, [ip], -r4, lsr #12
    1d2c:	06050501 	streq	r0, [r5], -r1, lsl #10
    1d30:	0601052f 	streq	r0, [r1], -pc, lsr #10
    1d34:	0620054b 	strteq	r0, [r0], -fp, asr #10
    1d38:	13050531 	movwne	r0, #21809	; 0x5531
    1d3c:	01060705 	tsteq	r6, r5, lsl #14
    1d40:	05492005 	strbeq	r2, [r9, #-5]
    1d44:	06310605 	ldrteq	r0, [r1], -r5, lsl #12
    1d48:	2f010566 	svccs	0x00010566
    1d4c:	4d062105 	stfmis	f2, [r6, #-20]	; 0xffffffec
    1d50:	05130505 	ldreq	r0, [r3, #-1285]	; 0xfffffafb
    1d54:	05010607 	streq	r0, [r1, #-1543]	; 0xfffff9f9
    1d58:	05054921 	streq	r4, [r5, #-2337]	; 0xfffff6df
    1d5c:	66063106 	strvs	r3, [r6], -r6, lsl #2
    1d60:	052f0105 	streq	r0, [pc, #-261]!	; 1c63 <__code_start__-0x639d>
    1d64:	064d0623 	strbeq	r0, [sp], -r3, lsr #12
    1d68:	06050501 	streq	r0, [r5], -r1, lsl #10
    1d6c:	0601052f 	streq	r0, [r1], -pc, lsr #10
    1d70:	062b054b 	strteq	r0, [fp], -fp, asr #10
    1d74:	05010631 	streq	r0, [r1, #-1585]	; 0xfffff9cf
    1d78:	052f0605 	streq	r0, [pc, #-1541]!	; 177b <__code_start__-0x6885>
    1d7c:	05010607 	streq	r0, [r1, #-1543]	; 0xfffff9f9
    1d80:	064b0609 	strbeq	r0, [fp], -r9, lsl #12
    1d84:	0530062e 	ldreq	r0, [r0, #-1582]!	; 0xfffff9d2
    1d88:	052f0601 	streq	r0, [pc, #-1537]!	; 178f <__code_start__-0x6871>
    1d8c:	0530061d 	ldreq	r0, [r0, #-1565]!	; 0xfffff9e3
    1d90:	07051305 	streq	r1, [r5, -r5, lsl #6]
    1d94:	1d050106 	stfnes	f0, [r5, #-24]	; 0xffffffe8
    1d98:	06050549 	streq	r0, [r5], -r9, asr #10
    1d9c:	0e051331 	mcreq	3, 0, r1, cr5, cr1, {1}
    1da0:	05050106 	streq	r0, [r5, #-262]	; 0xfffffefa
    1da4:	17052f06 	strne	r2, [r5, -r6, lsl #30]
    1da8:	054a0106 	strbeq	r0, [sl, #-262]	; 0xfffffefa
    1dac:	02042e23 	andeq	r2, r4, #560	; 0x230
    1db0:	03063005 	movweq	r3, #24581	; 0x6005
    1db4:	042e00dc 	strteq	r0, [lr], #-220	; 0xffffff24
    1db8:	060c0501 	streq	r0, [ip], -r1, lsl #10
    1dbc:	017fa403 	cmneq	pc, r3, lsl #8
    1dc0:	052f0105 	streq	r0, [pc, #-261]!	; 1cc3 <__code_start__-0x633d>
    1dc4:	01052a10 	tsteq	r5, r0, lsl sl
    1dc8:	00040232 	andeq	r0, r4, r2, lsr r2
    1dcc:	02050101 	andeq	r0, r5, #1073741824	; 0x40000000
    1dd0:	00030000 	andeq	r0, r3, r0
    1dd4:	000000c9 	andeq	r0, r0, r9, asr #1
    1dd8:	0efb0102 	cdpeq	1, 15, cr0, cr11, cr2, {0}
    1ddc:	0101000d 	tsteq	r1, sp
    1de0:	00000101 	andeq	r0, r0, r1, lsl #2
    1de4:	00000100 	andeq	r0, r0, r0, lsl #2
    1de8:	6f682f01 	svcvs	0x00682f01
    1dec:	652f656d 	strvs	r6, [pc, #-1389]!	; 1887 <__code_start__-0x6779>
    1df0:	656c676e 	strbvs	r6, [ip, #-1902]!	; 0xfffff892
    1df4:	6c632f72 	stclvs	15, cr2, [r3], #-456	; 0xfffffe38
    1df8:	2f737361 	svccs	0x00737361
    1dfc:	34327363 	ldrtcc	r7, [r2], #-867	; 0xfffffc9d
    1e00:	2d786c30 	ldclcs	12, cr6, [r8, #-192]!	; 0xffffff40
    1e04:	70733232 	rsbsvc	r3, r3, r2, lsr r2
    1e08:	6c2f2f72 	stcvs	15, cr2, [pc], #-456	; 1c48 <__code_start__-0x63b8>
    1e0c:	69706269 	ldmdbvs	r0!, {r0, r3, r5, r6, r9, sp, lr}^
    1e10:	636e692f 	cmnvs	lr, #770048	; 0xbc000
    1e14:	6564756c 	strbvs	r7, [r4, #-1388]!	; 0xfffffa94
    1e18:	73752f00 	cmnvc	r5, #0, 30
    1e1c:	68732f72 	ldmdavs	r3!, {r1, r4, r5, r6, r8, r9, sl, fp, sp}^
    1e20:	2f657261 	svccs	0x00657261
    1e24:	2d636367 	stclcs	3, cr6, [r3, #-412]!	; 0xfffffe64
    1e28:	2d6d7261 	sfmcs	f7, 2, [sp, #-388]!	; 0xfffffe7c
    1e2c:	656e6f6e 	strbvs	r6, [lr, #-3950]!	; 0xfffff092
    1e30:	6261652d 	rsbvs	r6, r1, #188743680	; 0xb400000
    1e34:	30312d69 	eorscc	r2, r1, r9, ror #26
    1e38:	322d332e 	eorcc	r3, sp, #-1207959552	; 0xb8000000
    1e3c:	2e313230 	mrccs	2, 1, r3, cr1, cr0, {1}
    1e40:	6c2f3031 	stcvs	0, cr3, [pc], #-196	; 1d84 <__code_start__-0x627c>
    1e44:	672f6269 	strvs	r6, [pc, -r9, ror #4]!
    1e48:	612f6363 			; <UNDEFINED> instruction: 0x612f6363
    1e4c:	6e2d6d72 	mcrvs	13, 1, r6, cr13, cr2, {3}
    1e50:	2d656e6f 	stclcs	14, cr6, [r5, #-444]!	; 0xfffffe44
    1e54:	69626165 	stmdbvs	r2!, {r0, r2, r5, r6, r8, sp, lr}^
    1e58:	2e30312f 	rsfcssp	f3, f0, #10.0
    1e5c:	2f312e33 	svccs	0x00312e33
    1e60:	6c636e69 	stclvs	14, cr6, [r3], #-420	; 0xfffffe5c
    1e64:	00656475 	rsbeq	r6, r5, r5, ror r4
    1e68:	72617500 	rsbvc	r7, r1, #0, 10
    1e6c:	00632e74 	rsbeq	r2, r3, r4, ror lr
    1e70:	75000000 	strvc	r0, [r0, #-0]
    1e74:	2e747261 	cdpcs	2, 7, cr7, cr4, cr1, {3}
    1e78:	00010068 	andeq	r0, r1, r8, rrx
    1e7c:	69707200 	ldmdbvs	r0!, {r9, ip, sp, lr}^
    1e80:	0100682e 	tsteq	r0, lr, lsr #16
    1e84:	70670000 	rsbvc	r0, r7, r0
    1e88:	682e6f69 	stmdavs	lr!, {r0, r3, r5, r6, r8, r9, sl, fp, sp, lr}
    1e8c:	00000100 	andeq	r0, r0, r0, lsl #2
    1e90:	69647473 	stmdbvs	r4!, {r0, r1, r4, r5, r6, sl, ip, sp, lr}^
    1e94:	672d746e 	strvs	r7, [sp, -lr, ror #8]!
    1e98:	682e6363 	stmdavs	lr!, {r0, r1, r5, r6, r8, r9, sp, lr}
    1e9c:	00000200 	andeq	r0, r0, r0, lsl #4
    1ea0:	00390500 	eorseq	r0, r9, r0, lsl #10
    1ea4:	8de40205 	sfmhi	f0, 2, [r4, #20]!
    1ea8:	30030000 	andcc	r0, r3, r0
    1eac:	05010601 	streq	r0, [r1, #-1537]	; 0xfffff9ff
    1eb0:	05670605 	strbeq	r0, [r7, #-1541]!	; 0xfffff9fb
    1eb4:	05010611 	streq	r0, [r1, #-1553]	; 0xfffff9ef
    1eb8:	01052e05 	tsteq	r5, r5, lsl #28
    1ebc:	06380567 	ldrteq	r0, [r8], -r7, ror #10
    1ec0:	05010629 	streq	r0, [r1, #-1577]	; 0xfffff9d7
    1ec4:	05670605 	strbeq	r0, [r7, #-1541]!	; 0xfffff9fb
    1ec8:	05010611 	streq	r0, [r1, #-1553]	; 0xfffff9ef
    1ecc:	01052e05 	tsteq	r5, r5, lsl #28
    1ed0:	06160567 	ldreq	r0, [r6], -r7, ror #10
    1ed4:	052e1503 	streq	r1, [lr, #-1283]!	; 0xfffffafd
    1ed8:	68673505 	stmdavs	r7!, {r0, r2, r8, sl, ip, sp}^
    1edc:	0c036835 	stceq	8, cr6, [r3], {53}	; 0x35
    1ee0:	696b852e 	stmdbvs	fp!, {r1, r2, r3, r5, r8, sl, pc}^
    1ee4:	660c0369 	strvs	r0, [ip], -r9, ror #6
    1ee8:	05676b13 	strbeq	r6, [r7, #-2835]!	; 0xfffff4ed
    1eec:	052f0601 	streq	r0, [pc, #-1537]!	; 18f3 <__code_start__-0x670d>
    1ef0:	25080619 	strcs	r0, [r8, #-1561]	; 0xfffff9e7
    1ef4:	05340505 	ldreq	r0, [r4, #-1285]!	; 0xfffffafb
    1ef8:	0501060d 	streq	r0, [r1, #-1549]	; 0xfffff9f3
    1efc:	19054c01 	stmdbne	r5, {r0, sl, fp, lr}
    1f00:	05056706 	streq	r6, [r5, #-1798]	; 0xfffff8fa
    1f04:	060d0536 			; <UNDEFINED> instruction: 0x060d0536
    1f08:	4a280501 	bmi	a03314 <__bss_end__+0x9f952c>
    1f0c:	05300105 	ldreq	r0, [r0, #-261]!	; 0xfffffefb
    1f10:	05870615 	streq	r0, [r7, #1557]	; 0x615
    1f14:	052f2f05 	streq	r2, [pc, #-3845]!	; 1017 <__code_start__-0x6fe9>
    1f18:	04020009 	streq	r0, [r2], #-9
    1f1c:	0a051301 	beq	146b28 <__bss_end__+0x13cd40>
    1f20:	01040200 	mrseq	r0, R12_usr
    1f24:	000c0511 	andeq	r0, ip, r1, lsl r5
    1f28:	06010402 	streq	r0, [r1], -r2, lsl #8
    1f2c:	000a0501 	andeq	r0, sl, r1, lsl #10
    1f30:	2e010402 	cdpcs	4, 0, cr0, cr1, cr2, {0}
    1f34:	4c060505 	cfstr32mi	mvfx0, [r6], {5}
    1f38:	01060e05 	tsteq	r6, r5, lsl #28
    1f3c:	054a0905 	strbeq	r0, [sl, #-2309]	; 0xfffff6fb
    1f40:	2f2f0605 	svccs	0x002f0605
    1f44:	13060105 	movwne	r0, #24837	; 0x6105
    1f48:	67061c05 	strvs	r1, [r6, -r5, lsl #24]
    1f4c:	05050106 	streq	r0, [r5, #-262]	; 0xfffffefa
    1f50:	052f4b06 	streq	r4, [pc, #-2822]!	; 1452 <__code_start__-0x6bae>
    1f54:	04020009 	streq	r0, [r2], #-9
    1f58:	0a051301 	beq	146b64 <__bss_end__+0x13cd7c>
    1f5c:	01040200 	mrseq	r0, R12_usr
    1f60:	000c0511 	andeq	r0, ip, r1, lsl r5
    1f64:	06010402 	streq	r0, [r1], -r2, lsl #8
    1f68:	000a0501 	andeq	r0, sl, r1, lsl #10
    1f6c:	2e010402 	cdpcs	4, 0, cr0, cr1, cr2, {0}
    1f70:	4c060505 	cfstr32mi	mvfx0, [r6], {5}
    1f74:	06010567 	streq	r0, [r1], -r7, ror #10
    1f78:	0619052f 	ldreq	r0, [r9], -pc, lsr #10
    1f7c:	2e1b054c 	cfmac32cs	mvfx0, mvfx11, mvfx12
    1f80:	052e2a05 	streq	r2, [lr, #-2565]!	; 0xfffff5fb
    1f84:	05010631 	streq	r0, [r1, #-1585]	; 0xfffff9cf
    1f88:	1c052e42 	stcne	14, cr2, [r5], {66}	; 0x42
    1f8c:	05053106 	streq	r3, [r5, #-262]	; 0xfffffefa
    1f90:	2e09032f 	cdpcs	3, 0, cr0, cr9, cr15, {1}
    1f94:	01060e05 	tsteq	r6, r5, lsl #28
    1f98:	054a2105 	strbeq	r2, [sl, #-261]	; 0xfffffefb
    1f9c:	2e0a0301 	cdpcs	3, 0, cr0, cr10, cr1, {0}
    1fa0:	68061a05 	stmdavs	r6, {r0, r2, r9, fp, ip}
    1fa4:	02000905 	andeq	r0, r0, #81920	; 0x14000
    1fa8:	05300104 	ldreq	r0, [r0, #-260]!	; 0xfffffefc
    1fac:	0402000a 	streq	r0, [r2], #-10
    1fb0:	0c051101 	stfeqs	f1, [r5], {1}
    1fb4:	01040200 	mrseq	r0, R12_usr
    1fb8:	0a050106 	beq	1423d8 <__bss_end__+0x1385f0>
    1fbc:	01040200 	mrseq	r0, R12_usr
    1fc0:	0619052e 	ldreq	r0, [r9], -lr, lsr #10
    1fc4:	667ee803 	ldrbtvs	lr, [lr], -r3, lsl #16
    1fc8:	2f2f0505 	svccs	0x002f0505
    1fcc:	0105672f 	tsteq	r5, pc, lsr #14
    1fd0:	04022f06 	streq	r2, [r2], #-3846	; 0xfffff0fa
    1fd4:	bd010100 	stflts	f0, [r1, #-0]
    1fd8:	03000000 	movweq	r0, #0
    1fdc:	00007f00 	andeq	r7, r0, r0, lsl #30
    1fe0:	fb010200 	blx	427ea <__bss_end__+0x38a02>
    1fe4:	01000d0e 	tsteq	r0, lr, lsl #26
    1fe8:	00010101 	andeq	r0, r1, r1, lsl #2
    1fec:	00010000 	andeq	r0, r1, r0
    1ff0:	2f2e0100 	svccs	0x002e0100
    1ff4:	6362696c 	cmnvs	r2, #108, 18	; 0x1b0000
    1ff8:	73552f00 	cmpvc	r5, #0, 30
    1ffc:	2f737265 	svccs	0x00737265
    2000:	63697265 	cmnvs	r9, #1342177286	; 0x50000006
    2004:	72616562 	rsbvc	r6, r1, #411041792	; 0x18800000
    2008:	636f442f 	cmnvs	pc, #788529152	; 0x2f000000
    200c:	6e656d75 	mcrvs	13, 3, r6, cr5, cr5, {3}
    2010:	432f7374 			; <UNDEFINED> instruction: 0x432f7374
    2014:	30343153 	eorscc	r3, r4, r3, asr r1
    2018:	73632f45 	cmnvc	r3, #276	; 0x114
    201c:	45303431 	ldrmi	r3, [r0, #-1073]!	; 0xfffffbcf
    2020:	6e69662d 	cdpvs	6, 6, cr6, cr9, cr13, {1}
    2024:	702d6c61 	eorvc	r6, sp, r1, ror #24
    2028:	656a6f72 	strbvs	r6, [sl, #-3954]!	; 0xfffff08e
    202c:	6c2f7463 	cfstrsvs	mvf7, [pc], #-396	; 1ea8 <__code_start__-0x6158>
    2030:	2d736269 	lfmcs	f6, 2, [r3, #-420]!	; 0xfffffe5c
    2034:	6c303432 	cfldrsvs	mvf3, [r0], #-200	; 0xffffff38
    2038:	696c2f78 	stmdbvs	ip!, {r3, r4, r5, r6, r8, r9, sl, fp, sp}^
    203c:	2f697062 	svccs	0x00697062
    2040:	6c636e69 	stclvs	14, cr6, [r3], #-420	; 0xfffffe5c
    2044:	00656475 	rsbeq	r6, r5, r5, ror r4
    2048:	74757000 	ldrbtvc	r7, [r5], #-0
    204c:	72616863 	rsbvc	r6, r1, #6488064	; 0x630000
    2050:	0100632e 	tsteq	r0, lr, lsr #6
    2054:	70720000 	rsbsvc	r0, r2, r0
    2058:	00682e69 	rsbeq	r2, r8, r9, ror #28
    205c:	00000002 	andeq	r0, r0, r2
    2060:	05002405 	streq	r2, [r0, #-1029]	; 0xfffffbfb
    2064:	008fd402 	addeq	sp, pc, r2, lsl #8
    2068:	01061400 	tsteq	r6, r0, lsl #8
    206c:	4a062605 	bmi	18b888 <__bss_end__+0x181aa0>
    2070:	052e3405 	streq	r3, [lr, #-1029]!	; 0xfffffbfb
    2074:	05010601 	streq	r0, [r1, #-1537]	; 0xfffff9ff
    2078:	054f061b 	strbeq	r0, [pc, #-1563]	; 1a65 <__code_start__-0x659b>
    207c:	11051305 	tstne	r5, r5, lsl #6
    2080:	01050106 	tsteq	r5, r6, lsl #2
    2084:	06230567 	strteq	r0, [r3], -r7, ror #10
    2088:	13050567 	movwne	r0, #21863	; 0x5567
    208c:	01061105 	tsteq	r6, r5, lsl #2
    2090:	024b0105 	subeq	r0, fp, #1073741825	; 0x40000001
    2094:	01010004 	tsteq	r1, r4
    2098:	00000109 	andeq	r0, r0, r9, lsl #2
    209c:	007e0003 	rsbseq	r0, lr, r3
    20a0:	01020000 	mrseq	r0, (UNDEF: 2)
    20a4:	000d0efb 	strdeq	r0, [sp], -fp
    20a8:	01010101 	tsteq	r1, r1, lsl #2
    20ac:	01000000 	mrseq	r0, (UNDEF: 0)
    20b0:	2e010000 	cdpcs	0, 0, cr0, cr1, cr0, {0}
    20b4:	62696c2f 	rsbvs	r6, r9, #12032	; 0x2f00
    20b8:	552f0063 	strpl	r0, [pc, #-99]!	; 205d <__code_start__-0x5fa3>
    20bc:	73726573 	cmnvc	r2, #482344960	; 0x1cc00000
    20c0:	6972652f 	ldmdbvs	r2!, {r0, r1, r2, r3, r5, r8, sl, sp, lr}^
    20c4:	61656263 	cmnvs	r5, r3, ror #4
    20c8:	6f442f72 	svcvs	0x00442f72
    20cc:	656d7563 	strbvs	r7, [sp, #-1379]!	; 0xfffffa9d
    20d0:	2f73746e 	svccs	0x0073746e
    20d4:	34315343 	ldrtcc	r5, [r1], #-835	; 0xfffffcbd
    20d8:	632f4530 			; <UNDEFINED> instruction: 0x632f4530
    20dc:	30343173 	eorscc	r3, r4, r3, ror r1
    20e0:	69662d45 	stmdbvs	r6!, {r0, r2, r6, r8, sl, fp, sp}^
    20e4:	2d6c616e 	stfcse	f6, [ip, #-440]!	; 0xfffffe48
    20e8:	6a6f7270 	bvs	1bdeab0 <__bss_end__+0x1bd4cc8>
    20ec:	2f746365 	svccs	0x00746365
    20f0:	7362696c 	cmnvc	r2, #108, 18	; 0x1b0000
    20f4:	3034322d 	eorscc	r3, r4, sp, lsr #4
    20f8:	6c2f786c 	stcvs	8, cr7, [pc], #-432	; 1f50 <__code_start__-0x60b0>
    20fc:	69706269 	ldmdbvs	r0!, {r0, r3, r5, r6, r9, sp, lr}^
    2100:	636e692f 	cmnvs	lr, #770048	; 0xbc000
    2104:	6564756c 	strbvs	r7, [r4, #-1388]!	; 0xfffffa94
    2108:	74730000 	ldrbtvc	r0, [r3], #-0
    210c:	74616372 	strbtvc	r6, [r1], #-882	; 0xfffffc8e
    2110:	0100632e 	tsteq	r0, lr, lsr #6
    2114:	70720000 	rsbsvc	r0, r2, r0
    2118:	00682e69 	rsbeq	r2, r8, r9, ror #28
    211c:	00000002 	andeq	r0, r0, r2
    2120:	05002c05 	streq	r2, [r0, #-3077]	; 0xfffff3fb
    2124:	00901002 	addseq	r1, r0, r2
    2128:	05051500 	streq	r1, [r5, #-1280]	; 0xfffffb00
    212c:	0b051313 	bleq	146d80 <__bss_end__+0x13cf98>
    2130:	05051106 	streq	r1, [r5, #-262]	; 0xfffffefa
    2134:	01040200 	mrseq	r0, R12_usr
    2138:	02003006 	andeq	r3, r0, #6, 0
    213c:	05150104 	ldreq	r0, [r5, #-260]	; 0xfffffefc
    2140:	04020009 	streq	r0, [r2], #-9
    2144:	10051301 	andne	r1, r5, r1, lsl #6
    2148:	01040200 	mrseq	r0, R12_usr
    214c:	0b052e06 	bleq	14d96c <__bss_end__+0x143b84>
    2150:	01040200 	mrseq	r0, R12_usr
    2154:	0402002e 	streq	r0, [r2], #-46	; 0xffffffd2
    2158:	052f0601 	streq	r0, [pc, #-1537]!	; 1b5f <__code_start__-0x64a1>
    215c:	04020005 	streq	r0, [r2], #-5
    2160:	06010601 	streq	r0, [r1], -r1, lsl #12
    2164:	0608054e 	streq	r0, [r8], -lr, asr #10
    2168:	00050501 	andeq	r0, r5, r1, lsl #10
    216c:	06010402 	streq	r0, [r1], -r2, lsl #8
    2170:	0009052f 	andeq	r0, r9, pc, lsr #10
    2174:	13010402 	movwne	r0, #5122	; 0x1402
    2178:	02000b05 	andeq	r0, r0, #5120	; 0x1400
    217c:	01060104 	tsteq	r6, r4, lsl #2
    2180:	02000905 	andeq	r0, r0, #81920	; 0x14000
    2184:	4b060104 	blmi	18259c <__bss_end__+0x1787b4>
    2188:	02000f05 	andeq	r0, r0, #5, 30
    218c:	01060104 	tsteq	r6, r4, lsl #2
    2190:	02000d05 	andeq	r0, r0, #320	; 0x140
    2194:	2f060104 	svccs	0x00060104
    2198:	02000505 	andeq	r0, r0, #20971520	; 0x1400000
    219c:	01060104 	tsteq	r6, r4, lsl #2
    21a0:	01000602 	tsteq	r0, r2, lsl #12
    21a4:	0000c201 	andeq	ip, r0, r1, lsl #4
    21a8:	7e000300 	cdpvc	3, 0, cr0, cr0, cr0, {0}
    21ac:	02000000 	andeq	r0, r0, #0, 0
    21b0:	0d0efb01 	vstreq	d15, [lr, #-4]
    21b4:	01010100 	mrseq	r0, (UNDEF: 17)
    21b8:	00000001 	andeq	r0, r0, r1
    21bc:	01000001 	tsteq	r0, r1
    21c0:	696c2f2e 	stmdbvs	ip!, {r1, r2, r3, r5, r8, r9, sl, fp, sp}^
    21c4:	2f006362 	svccs	0x00006362
    21c8:	72657355 	rsbvc	r7, r5, #1409286145	; 0x54000001
    21cc:	72652f73 	rsbvc	r2, r5, #460	; 0x1cc
    21d0:	65626369 	strbvs	r6, [r2, #-873]!	; 0xfffffc97
    21d4:	442f7261 	strtmi	r7, [pc], #-609	; 21dc <__code_start__-0x5e24>
    21d8:	6d75636f 	ldclvs	3, cr6, [r5, #-444]!	; 0xfffffe44
    21dc:	73746e65 	cmnvc	r4, #1616	; 0x650
    21e0:	3153432f 	cmpcc	r3, pc, lsr #6
    21e4:	2f453034 	svccs	0x00453034
    21e8:	34317363 	ldrtcc	r7, [r1], #-867	; 0xfffffc9d
    21ec:	662d4530 			; <UNDEFINED> instruction: 0x662d4530
    21f0:	6c616e69 	stclvs	14, cr6, [r1], #-420	; 0xfffffe5c
    21f4:	6f72702d 	svcvs	0x0072702d
    21f8:	7463656a 	strbtvc	r6, [r3], #-1386	; 0xfffffa96
    21fc:	62696c2f 	rsbvs	r6, r9, #12032	; 0x2f00
    2200:	34322d73 	ldrtcc	r2, [r2], #-3443	; 0xfffff28d
    2204:	2f786c30 	svccs	0x00786c30
    2208:	7062696c 	rsbvc	r6, r2, ip, ror #18
    220c:	6e692f69 	cdpvs	15, 6, cr2, cr9, cr9, {3}
    2210:	64756c63 	ldrbtvs	r6, [r5], #-3171	; 0xfffff39d
    2214:	73000065 	movwvc	r0, #101	; 0x65
    2218:	6d637274 	sfmvs	f7, 2, [r3, #-464]!	; 0xfffffe30
    221c:	00632e70 	rsbeq	r2, r3, r0, ror lr
    2220:	72000001 	andvc	r0, r0, #1, 0
    2224:	682e6970 	stmdavs	lr!, {r4, r5, r6, r8, fp, sp, lr}
    2228:	00000200 	andeq	r0, r0, r0, lsl #4
    222c:	002a0500 	eoreq	r0, sl, r0, lsl #10
    2230:	90440205 	subls	r0, r4, r5, lsl #4
    2234:	05140000 	ldreq	r0, [r4, #-0]
    2238:	0f051309 	svceq	0x00051309
    223c:	06100501 	ldreq	r0, [r0], -r1, lsl #10
    2240:	2e0f0501 	cfsh32cs	mvfx0, mvfx15, #1
    2244:	02001c05 	andeq	r1, r0, #1280	; 0x500
    2248:	054a0104 	strbeq	r0, [sl, #-260]	; 0xfffffefc
    224c:	04020013 	streq	r0, [r2], #-19	; 0xffffffed
    2250:	11052e01 	tstne	r5, r1, lsl #28
    2254:	16052f06 	strne	r2, [r5], -r6, lsl #30
    2258:	052e2e06 	streq	r2, [lr, #-3590]!	; 0xfffff1fa
    225c:	052f0609 	streq	r0, [pc, #-1545]!	; 1c5b <__code_start__-0x63a5>
    2260:	05010615 	streq	r0, [r1, #-1557]	; 0xfffff9eb
    2264:	04022f01 	streq	r2, [r2], #-3841	; 0xfffff0ff
    2268:	c0010100 	andgt	r0, r1, r0, lsl #2
    226c:	03000000 	movweq	r0, #0
    2270:	00007e00 	andeq	r7, r0, r0, lsl #28
    2274:	fb010200 	blx	42a7e <__bss_end__+0x38c96>
    2278:	01000d0e 	tsteq	r0, lr, lsl #26
    227c:	00010101 	andeq	r0, r1, r1, lsl #2
    2280:	00010000 	andeq	r0, r1, r0
    2284:	2f2e0100 	svccs	0x002e0100
    2288:	6362696c 	cmnvs	r2, #108, 18	; 0x1b0000
    228c:	73552f00 	cmpvc	r5, #0, 30
    2290:	2f737265 	svccs	0x00737265
    2294:	63697265 	cmnvs	r9, #1342177286	; 0x50000006
    2298:	72616562 	rsbvc	r6, r1, #411041792	; 0x18800000
    229c:	636f442f 	cmnvs	pc, #788529152	; 0x2f000000
    22a0:	6e656d75 	mcrvs	13, 3, r6, cr5, cr5, {3}
    22a4:	432f7374 			; <UNDEFINED> instruction: 0x432f7374
    22a8:	30343153 	eorscc	r3, r4, r3, asr r1
    22ac:	73632f45 	cmnvc	r3, #276	; 0x114
    22b0:	45303431 	ldrmi	r3, [r0, #-1073]!	; 0xfffffbcf
    22b4:	6e69662d 	cdpvs	6, 6, cr6, cr9, cr13, {1}
    22b8:	702d6c61 	eorvc	r6, sp, r1, ror #24
    22bc:	656a6f72 	strbvs	r6, [sl, #-3954]!	; 0xfffff08e
    22c0:	6c2f7463 	cfstrsvs	mvf7, [pc], #-396	; 213c <__code_start__-0x5ec4>
    22c4:	2d736269 	lfmcs	f6, 2, [r3, #-420]!	; 0xfffffe5c
    22c8:	6c303432 	cfldrsvs	mvf3, [r0], #-200	; 0xffffff38
    22cc:	696c2f78 	stmdbvs	ip!, {r3, r4, r5, r6, r8, r9, sl, fp, sp}^
    22d0:	2f697062 	svccs	0x00697062
    22d4:	6c636e69 	stclvs	14, cr6, [r3], #-420	; 0xfffffe5c
    22d8:	00656475 	rsbeq	r6, r5, r5, ror r4
    22dc:	72747300 	rsbsvc	r7, r4, #0, 6
    22e0:	2e797063 	cdpcs	0, 7, cr7, cr9, cr3, {3}
    22e4:	00010063 	andeq	r0, r1, r3, rrx
    22e8:	69707200 	ldmdbvs	r0!, {r9, ip, sp, lr}^
    22ec:	0200682e 	andeq	r6, r0, #3014656	; 0x2e0000
    22f0:	05000000 	streq	r0, [r0, #-0]
    22f4:	0205002a 	andeq	r0, r5, #42, 0	; 0x2a
    22f8:	00009070 	andeq	r9, r0, r0, ror r0
    22fc:	13050514 	movwne	r0, #21780	; 0x5514
    2300:	06140513 			; <UNDEFINED> instruction: 0x06140513
    2304:	00220511 	eoreq	r0, r2, r1, lsl r5
    2308:	06010402 	streq	r0, [r1], -r2, lsl #8
    230c:	000b052f 	andeq	r0, fp, pc, lsr #10
    2310:	01010402 	tsteq	r1, r2, lsl #8
    2314:	02001505 	andeq	r1, r0, #20971520	; 0x1400000
    2318:	01060104 	tsteq	r6, r4, lsl #2
    231c:	02001305 	andeq	r1, r0, #335544320	; 0x14000000
    2320:	054a0104 	strbeq	r0, [sl, #-260]	; 0xfffffefc
    2324:	0402000b 	streq	r0, [r2], #-11
    2328:	06024a01 	streq	r4, [r2], -r1, lsl #20
    232c:	20010100 	andcs	r0, r1, r0, lsl #2
    2330:	03000001 	movweq	r0, #1
    2334:	0000e400 	andeq	lr, r0, r0, lsl #8
    2338:	fb010200 	blx	42b42 <__bss_end__+0x38d5a>
    233c:	01000d0e 	tsteq	r0, lr, lsl #26
    2340:	00010101 	andeq	r0, r1, r1, lsl #2
    2344:	00010000 	andeq	r0, r1, r0
    2348:	2f2e0100 	svccs	0x002e0100
    234c:	6362696c 	cmnvs	r2, #108, 18	; 0x1b0000
    2350:	73552f00 	cmpvc	r5, #0, 30
    2354:	2f737265 	svccs	0x00737265
    2358:	63697265 	cmnvs	r9, #1342177286	; 0x50000006
    235c:	72616562 	rsbvc	r6, r1, #411041792	; 0x18800000
    2360:	636f442f 	cmnvs	pc, #788529152	; 0x2f000000
    2364:	6e656d75 	mcrvs	13, 3, r6, cr5, cr5, {3}
    2368:	432f7374 			; <UNDEFINED> instruction: 0x432f7374
    236c:	30343153 	eorscc	r3, r4, r3, asr r1
    2370:	73632f45 	cmnvc	r3, #276	; 0x114
    2374:	45303431 	ldrmi	r3, [r0, #-1073]!	; 0xfffffbcf
    2378:	6e69662d 	cdpvs	6, 6, cr6, cr9, cr13, {1}
    237c:	702d6c61 	eorvc	r6, sp, r1, ror #24
    2380:	656a6f72 	strbvs	r6, [sl, #-3954]!	; 0xfffff08e
    2384:	6c2f7463 	cfstrsvs	mvf7, [pc], #-396	; 2200 <__code_start__-0x5e00>
    2388:	2d736269 	lfmcs	f6, 2, [r3, #-420]!	; 0xfffffe5c
    238c:	6c303432 	cfldrsvs	mvf3, [r0], #-200	; 0xffffff38
    2390:	696c2f78 	stmdbvs	ip!, {r3, r4, r5, r6, r8, r9, sl, fp, sp}^
    2394:	2f697062 	svccs	0x00697062
    2398:	6c636e69 	stclvs	14, cr6, [r3], #-420	; 0xfffffe5c
    239c:	00656475 	rsbeq	r6, r5, r5, ror r4
    23a0:	7273752f 	rsbsvc	r7, r3, #197132288	; 0xbc00000
    23a4:	636f6c2f 	cmnvs	pc, #12032	; 0x2f00
    23a8:	432f6c61 			; <UNDEFINED> instruction: 0x432f6c61
    23ac:	616c6c65 	cmnvs	ip, r5, ror #24
    23b0:	72612f72 	rsbvc	r2, r1, #456	; 0x1c8
    23b4:	6f6e2d6d 	svcvs	0x006e2d6d
    23b8:	652d656e 	strvs	r6, [sp, #-1390]!	; 0xfffffa92
    23bc:	2d696261 	sfmcs	f6, 2, [r9, #-388]!	; 0xfffffe7c
    23c0:	74736574 	ldrbtvc	r6, [r3], #-1396	; 0xfffffa8c
    23c4:	322d392f 	eorcc	r3, sp, #770048	; 0xbc000
    23c8:	71393130 	teqvc	r9, r0, lsr r1
    23cc:	73632d34 	cmnvc	r3, #52, 26	; 0xd00
    23d0:	65373031 	ldrvs	r3, [r7, #-49]!	; 0xffffffcf
    23d4:	62696c2f 	rsbvs	r6, r9, #12032	; 0x2f00
    23d8:	6363672f 	cmnvs	r3, #12320768	; 0xbc0000
    23dc:	6d72612f 	ldfvse	f6, [r2, #-188]!	; 0xffffff44
    23e0:	6e6f6e2d 	cdpvs	14, 6, cr6, cr15, cr13, {1}
    23e4:	61652d65 	cmnvs	r5, r5, ror #26
    23e8:	392f6962 	stmdbcc	pc!, {r1, r5, r6, r8, fp, sp, lr}	; <UNPREDICTABLE>
    23ec:	312e322e 			; <UNDEFINED> instruction: 0x312e322e
    23f0:	636e692f 	cmnvs	lr, #770048	; 0xbc000
    23f4:	6564756c 	strbvs	r7, [r4, #-1388]!	; 0xfffffa94
    23f8:	74730000 	ldrbtvc	r0, [r3], #-0
    23fc:	6d636e72 	stclvs	14, cr6, [r3, #-456]!	; 0xfffffe38
    2400:	00632e70 	rsbeq	r2, r3, r0, ror lr
    2404:	72000001 	andvc	r0, r0, #1, 0
    2408:	682e6970 	stmdavs	lr!, {r4, r5, r6, r8, fp, sp, lr}
    240c:	00000200 	andeq	r0, r0, r0, lsl #4
    2410:	64647473 	strbtvs	r7, [r4], #-1139	; 0xfffffb8d
    2414:	682e6665 	stmdavs	lr!, {r0, r2, r5, r6, r9, sl, sp, lr}
    2418:	00000300 	andeq	r0, r0, r0, lsl #6
    241c:	00390500 	eorseq	r0, r9, r0, lsl #10
    2420:	90900205 	addsls	r0, r0, r5, lsl #4
    2424:	05150000 	ldreq	r0, [r5, #-0]
    2428:	05131305 	ldreq	r1, [r3, #-773]	; 0xfffffcfb
    242c:	0106010a 	tsteq	r6, sl, lsl #2
    2430:	0609054a 	streq	r0, [r9], -sl, asr #10
    2434:	060c052f 	streq	r0, [ip], -pc, lsr #10
    2438:	2e130501 	cfmul32cs	mvfx0, mvfx3, mvfx1
    243c:	052e0b05 	streq	r0, [lr, #-2821]!	; 0xfffff4fb
    2440:	054b060d 	strbeq	r0, [fp, #-1549]	; 0xfffff9f3
    2444:	2e01061b 	mcrcs	6, 0, r0, cr1, cr11, {0}
    2448:	05300c05 	ldreq	r0, [r0, #-3077]!	; 0xfffff3fb
    244c:	02022f01 	andeq	r2, r2, #1, 30
    2450:	af010100 	svcge	0x00010100
    2454:	03000000 	movweq	r0, #0
    2458:	00009300 	andeq	r9, r0, r0, lsl #6
    245c:	fb010200 	blx	42c66 <__bss_end__+0x38e7e>
    2460:	01000d0e 	tsteq	r0, lr, lsl #26
    2464:	00010101 	andeq	r0, r1, r1, lsl #2
    2468:	00010000 	andeq	r0, r1, r0
    246c:	2f2e0100 	svccs	0x002e0100
    2470:	66617473 			; <UNDEFINED> instruction: 0x66617473
    2474:	72732d66 	rsbsvc	r2, r3, #6528	; 0x1980
    2478:	552f0063 	strpl	r0, [pc, #-99]!	; 241d <__code_start__-0x5be3>
    247c:	73726573 	cmnvc	r2, #482344960	; 0x1cc00000
    2480:	6972652f 	ldmdbvs	r2!, {r0, r1, r2, r3, r5, r8, sl, sp, lr}^
    2484:	61656263 	cmnvs	r5, r3, ror #4
    2488:	6f442f72 	svcvs	0x00442f72
    248c:	656d7563 	strbvs	r7, [sp, #-1379]!	; 0xfffffa9d
    2490:	2f73746e 	svccs	0x0073746e
    2494:	34315343 	ldrtcc	r5, [r1], #-835	; 0xfffffcbd
    2498:	632f4530 			; <UNDEFINED> instruction: 0x632f4530
    249c:	30343173 	eorscc	r3, r4, r3, ror r1
    24a0:	69662d45 	stmdbvs	r6!, {r0, r2, r6, r8, sl, fp, sp}^
    24a4:	2d6c616e 	stfcse	f6, [ip, #-440]!	; 0xfffffe48
    24a8:	6a6f7270 	bvs	1bdee70 <__bss_end__+0x1bd5088>
    24ac:	2f746365 	svccs	0x00746365
    24b0:	7362696c 	cmnvc	r2, #108, 18	; 0x1b0000
    24b4:	3034322d 	eorscc	r3, r4, sp, lsr #4
    24b8:	6c2f786c 	stcvs	8, cr7, [pc], #-432	; 2310 <__code_start__-0x5cf0>
    24bc:	69706269 	ldmdbvs	r0!, {r0, r3, r5, r6, r9, sp, lr}^
    24c0:	636e692f 	cmnvs	lr, #770048	; 0xbc000
    24c4:	6564756c 	strbvs	r7, [r4, #-1388]!	; 0xfffffa94
    24c8:	65640000 	strbvs	r0, [r4, #-0]!
    24cc:	6c756166 	ldfvse	f6, [r5], #-408	; 0xfffffe68
    24d0:	65722d74 	ldrbvs	r2, [r2, #-3444]!	; 0xfffff28c
    24d4:	746f6f62 	strbtvc	r6, [pc], #-3938	; 24dc <__code_start__-0x5b24>
    24d8:	6c61632d 	stclvs	3, cr6, [r1], #-180	; 0xffffff4c
    24dc:	74756f6c 	ldrbtvc	r6, [r5], #-3948	; 0xfffff094
    24e0:	0100632e 	tsteq	r0, lr, lsr #6
    24e4:	70720000 	rsbsvc	r0, r2, r0
    24e8:	00682e69 	rsbeq	r2, r8, r9, ror #28
    24ec:	00000002 	andeq	r0, r0, r2
    24f0:	05001b05 	streq	r1, [r0, #-2821]	; 0xfffff4fb
    24f4:	0090bc02 	addseq	fp, r0, r2, lsl #24
    24f8:	1c051400 	cfstrsne	mvf1, [r5], {-0}
    24fc:	06010501 	streq	r0, [r1], -r1, lsl #10
    2500:	00020201 	andeq	r0, r2, r1, lsl #4
    2504:	Address 0x0000000000002504 is out of bounds.


Disassembly of section .debug_str:

00000000 <.debug_str>:
   0:	676e6f6c 	strbvs	r6, [lr, -ip, ror #30]!
   4:	6e6f6c20 	cdpvs	12, 6, cr6, cr15, cr0, {1}
   8:	6e692067 	cdpvs	0, 6, cr2, cr9, cr7, {3}
   c:	32690074 	rsbcc	r0, r9, #116, 0	; 0x74
  10:	65725f73 	ldrbvs	r5, [r2, #-3955]!	; 0xfffff08d
  14:	735f6461 	cmpvc	pc, #1627389952	; 0x61000000
  18:	6c706d61 	ldclvs	13, cr6, [r0], #-388	; 0xfffffe7c
  1c:	65740065 	ldrbvs	r0, [r4, #-101]!	; 0xffffff9b
  20:	2f737473 	svccs	0x00737473
  24:	32692d31 	rsbcc	r2, r9, #3136	; 0xc40
  28:	65742d73 	ldrbvs	r2, [r4, #-3443]!	; 0xfffff28d
  2c:	632e7473 			; <UNDEFINED> instruction: 0x632e7473
  30:	6e6f6c00 	cdpvs	12, 6, cr6, cr15, cr0, {0}
  34:	6f6c2067 	svcvs	0x006c2067
  38:	7520676e 	strvc	r6, [r0, #-1902]!	; 0xfffff892
  3c:	6769736e 	strbvs	r7, [r9, -lr, ror #6]!
  40:	2064656e 	rsbcs	r6, r4, lr, ror #10
  44:	00746e69 	rsbseq	r6, r4, r9, ror #28
  48:	6573552f 	ldrbvs	r5, [r3, #-1327]!	; 0xfffffad1
  4c:	6a2f7372 	bvs	bdce1c <__bss_end__+0xbd3034>
  50:	65696d61 	strbvs	r6, [r9, #-3425]!	; 0xfffff29f
  54:	636f442f 	cmnvs	pc, #788529152	; 0x2f000000
  58:	6e656d75 	mcrvs	13, 3, r6, cr5, cr5, {3}
  5c:	432f7374 			; <UNDEFINED> instruction: 0x432f7374
  60:	30343153 	eorscc	r3, r4, r3, asr r1
  64:	73632f45 	cmnvc	r3, #276	; 0x114
  68:	45303431 	ldrmi	r3, [r0, #-1073]!	; 0xfffffbcf
  6c:	6e69662d 	cdpvs	6, 6, cr6, cr9, cr13, {1}
  70:	702d6c61 	eorvc	r6, sp, r1, ror #24
  74:	656a6f72 	strbvs	r6, [sl, #-3954]!	; 0xfffff08e
  78:	722f7463 	eorvc	r7, pc, #1660944384	; 0x63000000
  7c:	76656c65 	strbtvc	r6, [r5], -r5, ror #24
  80:	2d746e61 	ldclcs	14, cr6, [r4, #-388]!	; 0xfffffe7c
  84:	7362616c 	cmnvc	r2, #27
  88:	63696d2f 	cmnvs	r9, #3008	; 0xbc0
  8c:	68706f72 	ldmdavs	r0!, {r1, r4, r5, r6, r8, r9, sl, fp, sp, lr}^
  90:	2d656e6f 	stclcs	14, cr6, [r5, #-444]!	; 0xfffffe44
  94:	34327363 	ldrtcc	r7, [r2], #-867	; 0xfffffc9d
  98:	2d786c30 	ldclcs	12, cr6, [r8, #-192]!	; 0xffffff40
  9c:	692d3731 	pushvs	{r0, r4, r5, r8, r9, sl, ip, sp}
  a0:	632f7332 			; <UNDEFINED> instruction: 0x632f7332
  a4:	0065646f 	rsbeq	r6, r5, pc, ror #8
  a8:	69736e75 	ldmdbvs	r3!, {r0, r2, r4, r5, r6, r9, sl, fp, sp, lr}^
  ac:	64656e67 	strbtvs	r6, [r5], #-3687	; 0xfffff199
  b0:	61686320 	cmnvs	r8, r0, lsr #6
  b4:	4e470072 	mcrmi	0, 2, r0, cr7, cr2, {3}
  b8:	39432055 	stmdbcc	r3, {r0, r2, r4, r6, sp}^
  bc:	2e392039 	mrccs	0, 1, r2, cr9, cr9, {1}
  c0:	20312e32 	eorscs	r2, r1, r2, lsr lr
  c4:	39313032 	ldmdbcc	r1!, {r1, r4, r5, ip, sp}
  c8:	35323031 	ldrcc	r3, [r2, #-49]!	; 0xffffffcf
  cc:	65722820 	ldrbvs	r2, [r2, #-2080]!	; 0xfffff7e0
  d0:	7361656c 	cmnvc	r1, #108, 10	; 0x1b000000
  d4:	5b202965 	blpl	80a670 <__bss_end__+0x800888>
  d8:	2f4d5241 	svccs	0x004d5241
  dc:	2d6d7261 	sfmcs	f7, 2, [sp, #-388]!	; 0xfffffe7c
  e0:	72622d39 	rsbvc	r2, r2, #3648	; 0xe40
  e4:	68636e61 	stmdavs	r3!, {r0, r5, r6, r9, sl, fp, sp, lr}^
  e8:	76657220 	strbtvc	r7, [r5], -r0, lsr #4
  ec:	6f697369 	svcvs	0x00697369
  f0:	3732206e 	ldrcc	r2, [r2, -lr, rrx]!
  f4:	39393537 	ldmdbcc	r9!, {r0, r1, r2, r4, r5, r8, sl, ip, sp}
  f8:	6d2d205d 	stcvs	0, cr2, [sp, #-372]!	; 0xfffffe8c
  fc:	3d757063 	ldclcc	0, cr7, [r5, #-396]!	; 0xfffffe74
 100:	316d7261 	cmncc	sp, r1, ror #4
 104:	6a363731 	bvs	d8ddd0 <__bss_end__+0xd83fe8>
 108:	732d667a 			; <UNDEFINED> instruction: 0x732d667a
 10c:	746d2d20 	strbtvc	r2, [sp], #-3360	; 0xfffff2e0
 110:	3d656e75 	stclcc	14, cr6, [r5, #-468]!	; 0xfffffe2c
 114:	316d7261 	cmncc	sp, r1, ror #4
 118:	6a363731 	bvs	d8dde4 <__bss_end__+0xd83ffc>
 11c:	732d667a 			; <UNDEFINED> instruction: 0x732d667a
 120:	666d2d20 	strbtvs	r2, [sp], -r0, lsr #26
 124:	74616f6c 	strbtvc	r6, [r1], #-3948	; 0xfffff094
 128:	6962612d 	stmdbvs	r2!, {r0, r2, r3, r5, r8, sp, lr}^
 12c:	666f733d 			; <UNDEFINED> instruction: 0x666f733d
 130:	6d2d2074 	stcvs	0, cr2, [sp, #-464]!	; 0xfffffe30
 134:	206d7261 	rsbcs	r7, sp, r1, ror #4
 138:	72616d2d 	rsbvc	r6, r1, #2880	; 0xb40
 13c:	613d6863 	teqvs	sp, r3, ror #16
 140:	36766d72 			; <UNDEFINED> instruction: 0x36766d72
 144:	2d207a6b 	vstmdbcs	r0!, {s14-s120}
 148:	62646767 	rsbvs	r6, r4, #27000832	; 0x19c0000
 14c:	334f2d20 	movtcc	r2, #64800	; 0xfd20
 150:	74732d20 	ldrbtvc	r2, [r3], #-3360	; 0xfffff2e0
 154:	6e673d64 	cdpvs	13, 6, cr3, cr7, cr4, {3}
 158:	20393975 	eorscs	r3, r9, r5, ror r9
 15c:	7266662d 	rsbvc	r6, r6, #47185920	; 0x2d00000
 160:	74736565 	ldrbtvc	r6, [r3], #-1381	; 0xfffffa9b
 164:	69646e61 	stmdbvs	r4!, {r0, r5, r6, r9, sl, fp, sp, lr}^
 168:	6e00676e 	cdpvs	7, 0, cr6, cr0, cr14, {3}
 16c:	616d746f 	cmnvs	sp, pc, ror #8
 170:	73006e69 	movwvc	r6, #3689	; 0xe69
 174:	74726f68 	ldrbtvc	r6, [r2], #-3944	; 0xfffff098
 178:	736e7520 	cmnvc	lr, #32, 10	; 0x8000000
 17c:	656e6769 	strbvs	r6, [lr, #-1897]!	; 0xfffff897
 180:	6e692064 	cdpvs	0, 6, cr2, cr9, cr4, {3}
 184:	32690074 	rsbcc	r0, r9, #116, 0	; 0x74
 188:	6e695f73 	mcrvs	15, 3, r5, cr9, cr3, {3}
 18c:	73007469 	movwvc	r7, #1129	; 0x469
 190:	74726f68 	ldrbtvc	r6, [r2], #-3944	; 0xfffff098
 194:	746e6920 	strbtvc	r6, [lr], #-2336	; 0xfffff6e0
 198:	616e6500 	cmnvs	lr, r0, lsl #10
 19c:	5f656c62 	svcpl	0x00656c62
 1a0:	68636163 	stmdavs	r3!, {r0, r1, r5, r6, r8, sp, lr}^
 1a4:	70720065 	rsbsvc	r0, r2, r5, rrx
 1a8:	75705f69 	ldrbvc	r5, [r0, #-3945]!	; 0xfffff097
 1ac:	61686374 	smcvs	34356	; 0x8634
 1b0:	6d630072 	stclvs	0, cr0, [r3, #-456]!	; 0xfffffe38
 1b4:	6765725f 			; <UNDEFINED> instruction: 0x6765725f
 1b8:	00745f73 	rsbseq	r5, r4, r3, ror pc
 1bc:	5f533249 	svcpl	0x00533249
 1c0:	525f5343 	subspl	r5, pc, #201326593	; 0xc000001
 1c4:	524c4358 	subpl	r4, ip, #88, 6	; 0x60000001
 1c8:	53324900 	teqpl	r2, #0, 18
 1cc:	5f53435f 	svcpl	0x0053435f
 1d0:	43004e45 	movwmi	r4, #3653	; 0xe45
 1d4:	00415f53 	subeq	r5, r1, r3, asr pc
 1d8:	5f533249 	svcpl	0x00533249
 1dc:	5f435852 	svcpl	0x00435852
 1e0:	57314843 	ldrpl	r4, [r1, -r3, asr #16]!
 1e4:	555f4449 	ldrbpl	r4, [pc, #-1097]	; fffffda3 <__bss_end__+0xffff5fbb>
 1e8:	6e690042 	cdpvs	0, 6, cr0, cr9, cr2, {2}
 1ec:	74735f74 	ldrbtvc	r5, [r3], #-3956	; 0xfffff08c
 1f0:	4f4d0063 	svcmi	0x004d0063
 1f4:	415f4544 	cmpmi	pc, r4, asr #10
 1f8:	53324900 	teqpl	r2, #0, 18
 1fc:	4358525f 	cmpmi	r8, #-268435451	; 0xf0000005
 200:	3148435f 	cmpcc	r8, pc, asr r3
 204:	5f534f50 	svcpl	0x00534f50
 208:	4900424c 	stmdbmi	r0, {r2, r3, r6, r9, lr}
 20c:	525f5332 	subspl	r5, pc, #-939524096	; 0xc8000000
 210:	435f4358 	cmpmi	pc, #88, 6	; 0x60000001
 214:	45573248 	ldrbmi	r3, [r7, #-584]	; 0xfffffdb8
 218:	72670058 	rsbvc	r0, r7, #88, 0	; 0x58
 21c:	69007961 	stmdbvs	r0, {r0, r5, r6, r8, fp, ip, sp, lr}
 220:	725f7332 	subsvc	r7, pc, #-939524096	; 0xc8000000
 224:	5f736765 	svcpl	0x00736765
 228:	50470074 	subpl	r0, r7, r4, ror r0
 22c:	465f4f49 	ldrbmi	r4, [pc], -r9, asr #30
 230:	5f434e55 	svcpl	0x00434e55
 234:	5054554f 	subspl	r5, r4, pc, asr #10
 238:	69005455 	stmdbvs	r0, {r0, r2, r4, r6, sl, ip, lr}
 23c:	655f746e 	ldrbvs	r7, [pc, #-1134]	; fffffdd6 <__bss_end__+0xffff5fee>
 240:	4350006e 	cmpmi	r0, #110, 0	; 0x6e
 244:	54435f4d 	strbpl	r5, [r3], #-3917	; 0xfffff0b3
 248:	70004c52 	andvc	r4, r0, r2, asr ip
 24c:	635f6d63 	cmpvs	pc, #6336	; 0x18c0
 250:	006c7274 	rsbeq	r7, ip, r4, ror r2
 254:	65646f6d 	strbvs	r6, [r4, #-3949]!	; 0xfffff093
 258:	53324900 	teqpl	r2, #0, 18
 25c:	5f53435f 	svcpl	0x0053435f
 260:	59425453 	stmdbpl	r2, {r0, r1, r4, r6, sl, ip, lr}^
 264:	4d435000 	stclmi	0, cr5, [r3, #-0]
 268:	5649445f 			; <UNDEFINED> instruction: 0x5649445f
 26c:	73326900 	teqvc	r2, #0, 18
 270:	4700632e 	strmi	r6, [r0, -lr, lsr #6]
 274:	5f4f4950 	svcpl	0x004f4950
 278:	434e5546 	movtmi	r5, #58694	; 0xe546
 27c:	544c415f 	strbpl	r4, [ip], #-351	; 0xfffffea1
 280:	50470031 	subpl	r0, r7, r1, lsr r0
 284:	465f4f49 	ldrbmi	r4, [pc], -r9, asr #30
 288:	5f434e55 	svcpl	0x00434e55
 28c:	32544c41 	subscc	r4, r4, #16640	; 0x4100
 290:	49504700 	ldmdbmi	r0, {r8, r9, sl, lr}^
 294:	55465f4f 	strbpl	r5, [r6, #-3919]	; 0xfffff0b1
 298:	415f434e 	cmpmi	pc, lr, asr #6
 29c:	0033544c 	eorseq	r5, r3, ip, asr #8
 2a0:	4f495047 	svcmi	0x00495047
 2a4:	4e55465f 	mrcmi	6, 2, r4, cr5, cr15, {2}
 2a8:	4c415f43 	mcrrmi	15, 4, r5, r1, cr3
 2ac:	47003454 	smlsdmi	r0, r4, r4, r3
 2b0:	5f4f4950 	svcpl	0x004f4950
 2b4:	434e5546 	movtmi	r5, #58694	; 0xe546
 2b8:	544c415f 	strbpl	r4, [ip], #-351	; 0xfffffea1
 2bc:	32690035 	rsbcc	r0, r9, #53, 0	; 0x35
 2c0:	65725f73 	ldrbvs	r5, [r2, #-3955]!	; 0xfffff08d
 2c4:	62007367 	andvs	r7, r0, #-1677721599	; 0x9c000001
 2c8:	735f7469 	cmpvc	pc, #1761607680	; 0x69000000
 2cc:	49007465 	stmdbmi	r0, {r0, r2, r5, r6, sl, ip, sp, lr}
 2d0:	525f5332 	subspl	r5, pc, #-939524096	; 0xc8000000
 2d4:	435f4358 	cmpmi	pc, #88, 6	; 0x60000001
 2d8:	49573248 	ldmdbmi	r7, {r3, r6, r9, ip, sp}^
 2dc:	42555f44 	subsmi	r5, r5, #68, 30	; 0x110
 2e0:	69626e00 	stmdbvs	r2!, {r9, sl, fp, sp, lr}^
 2e4:	62007374 	andvs	r7, r0, #116, 6	; 0xd0000001
 2e8:	5f737469 	svcpl	0x00737469
 2ec:	00726c63 	rsbseq	r6, r2, r3, ror #24
 2f0:	5f746962 	svcpl	0x00746962
 2f4:	6f5f7369 	svcvs	0x005f7369
 2f8:	49006666 	stmdbmi	r0, {r1, r2, r5, r6, r9, sl, sp, lr}
 2fc:	435f5332 	cmpmi	pc, #-939524096	; 0xc8000000
 300:	58525f53 	ldmdapl	r2, {r0, r1, r4, r6, r8, r9, sl, fp, ip, lr}^
 304:	00584553 	subseq	r4, r8, r3, asr r5
 308:	5f533249 	svcpl	0x00533249
 30c:	5f435852 	svcpl	0x00435852
 310:	50324843 	eorspl	r4, r2, r3, asr #16
 314:	555f534f 	ldrbpl	r5, [pc, #-847]	; ffffffcd <__bss_end__+0xffff61e5>
 318:	63700042 	cmnvs	r0, #66, 0	; 0x42
 31c:	69645f6d 	stmdbvs	r4!, {r0, r2, r3, r5, r6, r8, r9, sl, fp, ip, lr}^
 320:	5f5f0076 	svcpl	0x005f0076
 324:	434e5546 	movtmi	r5, #58694	; 0xe546
 328:	4e4f4954 			; <UNDEFINED> instruction: 0x4e4f4954
 32c:	49005f5f 	stmdbmi	r0, {r0, r1, r2, r3, r4, r6, r8, r9, sl, fp, ip, lr}
 330:	435f5332 	cmpmi	pc, #-939524096	; 0xc8000000
 334:	58525f53 	ldmdapl	r2, {r0, r1, r4, r6, r8, r9, sl, fp, ip, lr}^
 338:	00525245 	subseq	r5, r2, r5, asr #4
 33c:	33544547 	cmpcc	r4, #297795584	; 0x11c00000
 340:	6c630032 	stclvs	0, cr0, [r3], #-200	; 0xffffff38
 344:	5f6e6165 	svcpl	0x006e6165
 348:	6f626572 	svcvs	0x00626572
 34c:	6200746f 	andvs	r7, r0, #1862270976	; 0x6f000000
 350:	695f7469 	ldmdbvs	pc, {r0, r3, r5, r6, sl, ip, sp, lr}^	; <UNPREDICTABLE>
 354:	6e6f5f73 	mcrvs	15, 3, r5, cr15, cr3, {3}
 358:	49504700 	ldmdbmi	r0, {r8, r9, sl, lr}^
 35c:	55465f4f 	strbpl	r5, [r6, #-3919]	; 0xfffff0b1
 360:	415f434e 	cmpmi	pc, lr, asr #6
 364:	0030544c 	eorseq	r5, r0, ip, asr #8
 368:	5f435852 	svcpl	0x00435852
 36c:	32490041 	subcc	r0, r9, #65, 0	; 0x41
 370:	53435f53 	movtpl	r5, #16211	; 0x3f53
 374:	4658525f 			; <UNDEFINED> instruction: 0x4658525f
 378:	5f4d4300 	svcpl	0x004d4300
 37c:	5f676572 	svcpl	0x00676572
 380:	756c6176 	strbvc	r6, [ip, #-374]!	; 0xfffffe8a
 384:	50470065 	subpl	r0, r7, r5, rrx
 388:	465f4f49 	ldrbmi	r4, [pc], -r9, asr #30
 38c:	5f434e55 	svcpl	0x00434e55
 390:	55504e49 	ldrbpl	r4, [r0, #-3657]	; 0xfffff1b7
 394:	32490054 	subcc	r0, r9, #84, 0	; 0x54
 398:	53435f53 	movtpl	r5, #16211	; 0x3f53
 39c:	5258525f 	subspl	r5, r8, #-268435451	; 0xf0000005
 3a0:	6e697500 	cdpvs	5, 6, cr7, cr9, cr0, {0}
 3a4:	5f323374 	svcpl	0x00323374
 3a8:	32490074 	subcc	r0, r9, #116, 0	; 0x74
 3ac:	4f4d5f53 	svcmi	0x004d5f53
 3b0:	465f4544 	ldrbmi	r4, [pc], -r4, asr #10
 3b4:	5f4e454c 	svcpl	0x004e454c
 3b8:	4900424c 	stmdbmi	r0, {r2, r3, r6, r9, lr}
 3bc:	435f5332 	cmpmi	pc, #-939524096	; 0xc8000000
 3c0:	58525f53 	ldmdapl	r2, {r0, r1, r4, r6, r8, r9, sl, fp, ip, lr}^
 3c4:	434e5953 	movtmi	r5, #59731	; 0xe953
 3c8:	74696200 	strbtvc	r6, [r9], #-512	; 0xfffffe00
 3cc:	65735f73 	ldrbvs	r5, [r3, #-3955]!	; 0xfffff08d
 3d0:	6d630074 	stclvs	0, cr0, [r3, #-464]!	; 0xfffffe30
 3d4:	6765725f 			; <UNDEFINED> instruction: 0x6765725f
 3d8:	32490073 	subcc	r0, r9, #115, 0	; 0x73
 3dc:	58525f53 	ldmdapl	r2, {r0, r1, r4, r6, r8, r9, sl, fp, ip, lr}^
 3e0:	48435f43 	stmdami	r3, {r0, r1, r6, r8, r9, sl, fp, ip, lr}^
 3e4:	004e4531 	subeq	r4, lr, r1, lsr r5
 3e8:	6f666966 	svcvs	0x00666966
 3ec:	53324900 	teqpl	r2, #0, 18
 3f0:	444f4d5f 	strbmi	r4, [pc], #-3423	; 3f8 <__code_start__-0x7c08>
 3f4:	53465f45 	movtpl	r5, #28485	; 0x6f45
 3f8:	5f4e454c 	svcpl	0x004e454c
 3fc:	4900424c 	stmdbmi	r0, {r2, r3, r6, r9, lr}
 400:	525f5332 	subspl	r5, pc, #-939524096	; 0xc8000000
 404:	435f4358 	cmpmi	pc, #88, 6	; 0x60000001
 408:	49573148 	ldmdbmi	r7, {r3, r6, r8, ip, sp}^
 40c:	424c5f44 	submi	r5, ip, #68, 30	; 0x110
 410:	53324900 	teqpl	r2, #0, 18
 414:	5f53435f 	svcpl	0x0053435f
 418:	48545852 	ldmdami	r4, {r1, r4, r6, fp, ip, lr}^
 41c:	424c5f52 	submi	r5, ip, #328	; 0x148
 420:	53324900 	teqpl	r2, #0, 18
 424:	4358525f 	cmpmi	r8, #-268435451	; 0xf0000005
 428:	3248435f 	subcc	r4, r8, #2080374785	; 0x7c000001
 42c:	49004e45 	stmdbmi	r0, {r0, r2, r6, r9, sl, fp, lr}
 430:	435f5332 	cmpmi	pc, #-939524096	; 0xc8000000
 434:	59535f53 	ldmdbpl	r3, {r0, r1, r4, r6, r8, r9, sl, fp, ip, lr}^
 438:	4900434e 	stmdbmi	r0, {r1, r2, r3, r6, r8, r9, lr}
 43c:	525f5332 	subspl	r5, pc, #-939524096	; 0xc8000000
 440:	435f4358 	cmpmi	pc, #88, 6	; 0x60000001
 444:	49573248 	ldmdbmi	r7, {r3, r6, r9, ip, sp}^
 448:	424c5f44 	submi	r5, ip, #68, 30	; 0x110
 44c:	76656400 	strbtvc	r6, [r5], -r0, lsl #8
 450:	7261625f 	rsbvc	r6, r1, #-268435451	; 0xf0000005
 454:	72656972 	rsbvc	r6, r5, #1867776	; 0x1c8000
 458:	53324900 	teqpl	r2, #0, 18
 45c:	4358525f 	cmpmi	r8, #-268435451	; 0xf0000005
 460:	3248435f 	subcc	r4, r8, #2080374785	; 0x7c000001
 464:	5f534f50 	svcpl	0x00534f50
 468:	4900424c 	stmdbmi	r0, {r2, r3, r6, r9, lr}
 46c:	435f5332 	cmpmi	pc, #-939524096	; 0xc8000000
 470:	58525f53 	ldmdapl	r2, {r0, r1, r4, r6, r8, r9, sl, fp, ip, lr}^
 474:	72640044 	rsbvc	r0, r4, #68, 0	; 0x44
 478:	62007165 	andvs	r7, r0, #1073741849	; 0x40000019
 47c:	5f737469 	svcpl	0x00737469
 480:	6b73616d 	blvs	1cd8a3c <__bss_end__+0x1ccec54>
 484:	53324900 	teqpl	r2, #0, 18
 488:	4358525f 	cmpmi	r8, #-268435451	; 0xf0000005
 48c:	3148435f 	cmpcc	r8, pc, asr r3
 490:	00584557 	subseq	r4, r8, r7, asr r5
 494:	6f697067 	svcvs	0x00697067
 498:	7465735f 	strbtvc	r7, [r5], #-863	; 0xfffffca1
 49c:	6e75665f 	mrcvs	6, 3, r6, cr5, cr15, {2}
 4a0:	6f697463 	svcvs	0x00697463
 4a4:	746f006e 	strbtvc	r0, [pc], #-110	; 4ac <__code_start__-0x7b54>
 4a8:	5f726568 	svcpl	0x00726568
 4ac:	73676572 	cmnvc	r7, #478150656	; 0x1c800000
 4b0:	54555000 	ldrbpl	r5, [r5], #-0
 4b4:	49003233 	stmdbmi	r0, {r0, r1, r4, r5, r9, ip, sp}
 4b8:	435f5332 	cmpmi	pc, #-939524096	; 0xc8000000
 4bc:	58525f53 	ldmdapl	r2, {r0, r1, r4, r6, r8, r9, sl, fp, ip, lr}^
 4c0:	74004e4f 	strvc	r4, [r0], #-3663	; 0xfffff1b1
 4c4:	66635f78 	uqsub16vs	r5, r3, r8
 4c8:	70670067 	rsbvc	r0, r7, r7, rrx
 4cc:	735f6f69 	cmpvc	pc, #420	; 0x1a4
 4d0:	6f5f7465 	svcvs	0x005f7465
 4d4:	3249006e 	subcc	r0, r9, #110, 0	; 0x6e
 4d8:	53435f53 	movtpl	r5, #16211	; 0x3f53
 4dc:	5458525f 	ldrbpl	r5, [r8], #-607	; 0xfffffda1
 4e0:	555f5248 	ldrbpl	r5, [pc, #-584]	; 2a0 <__code_start__-0x7d60>
 4e4:	32490042 	subcc	r0, r9, #66, 0	; 0x42
 4e8:	4f4d5f53 	svcmi	0x004d5f53
 4ec:	465f4544 	ldrbmi	r4, [pc], -r4, asr #10
 4f0:	4e454c53 	mcrmi	12, 2, r4, cr5, cr3, {2}
 4f4:	0042555f 	subeq	r5, r2, pc, asr r5
 4f8:	635f7872 	cmpvs	pc, #7471104	; 0x720000
 4fc:	49006766 	stmdbmi	r0, {r1, r2, r5, r6, r8, r9, sl, sp, lr}
 500:	525f5332 	subspl	r5, pc, #-939524096	; 0xc8000000
 504:	435f4358 	cmpmi	pc, #88, 6	; 0x60000001
 508:	4f503148 	svcmi	0x00503148
 50c:	42555f53 	subsmi	r5, r5, #332	; 0x14c
 510:	46494600 	strbmi	r4, [r9], -r0, lsl #12
 514:	00415f4f 	subeq	r5, r1, pc, asr #30
 518:	5f533249 	svcpl	0x00533249
 51c:	45444f4d 	strbmi	r4, [r4, #-3917]	; 0xfffff0b3
 520:	454c465f 	strbmi	r4, [ip, #-1631]	; 0xfffff9a1
 524:	42555f4e 	subsmi	r5, r5, #312	; 0x138
 528:	72756300 	rsbsvc	r6, r5, #0, 6
 52c:	64695f72 	strbtvs	r5, [r9], #-3954	; 0xfffff08e
 530:	77730078 			; <UNDEFINED> instruction: 0x77730078
 534:	695f7061 	ldmdbvs	pc, {r0, r5, r6, ip, sp, lr}^	; <UNPREDICTABLE>
 538:	74007864 	strvc	r7, [r0], #-2148	; 0xfffff79c
 53c:	00706d65 	rsbseq	r6, r0, r5, ror #26
 540:	32676f6c 	rsbcc	r6, r7, #108, 30	; 0x1b0
 544:	6e656c5f 	mcrvs	12, 3, r6, cr5, cr15, {2}
 548:	73616200 	cmnvc	r1, #0, 4
 54c:	65725f65 	ldrbvs	r5, [r2, #-3941]!	; 0xfffff09b
 550:	69006c61 	stmdbvs	r0, {r0, r5, r6, sl, fp, sp, lr}
 554:	7274735f 	rsbsvc	r7, r4, #2080374785	; 0x7c000001
 558:	00656469 	rsbeq	r6, r5, r9, ror #8
 55c:	64697774 	strbtvs	r7, [r9], #-1908	; 0xfffff88c
 560:	616d695f 	cmnvs	sp, pc, asr r9
 564:	6e690067 	cdpvs	0, 6, cr0, cr9, cr7, {3}
 568:	73726576 	cmnvc	r2, #494927872	; 0x1d800000
 56c:	66660065 	strbtvs	r0, [r6], -r5, rrx
 570:	69665f74 	stmdbvs	r6!, {r2, r4, r5, r6, r8, r9, sl, fp, ip, lr}^
 574:	5f646578 	svcpl	0x00646578
 578:	006c756d 	rsbeq	r7, ip, sp, ror #10
 57c:	66696873 			; <UNDEFINED> instruction: 0x66696873
 580:	66660074 			; <UNDEFINED> instruction: 0x66660074
 584:	00632e74 	rsbeq	r2, r3, r4, ror lr
 588:	64697774 	strbtvs	r7, [r9], #-1908	; 0xfffff88c
 58c:	6165725f 	cmnvs	r5, pc, asr r2
 590:	6f72006c 	svcvs	0x0072006c
 594:	00646e75 	rsbeq	r6, r4, r5, ror lr
 598:	6c616373 	stclvs	3, cr6, [r1], #-460	; 0xfffffe34
 59c:	66660065 	strbtvs	r0, [r6], -r5, rrx
 5a0:	69665f74 	stmdbvs	r6!, {r2, r4, r5, r6, r8, r9, sl, fp, ip, lr}^
 5a4:	5f646578 	svcpl	0x00646578
 5a8:	74666672 	strbtvc	r6, [r6], #-1650	; 0xfffff98e
 5ac:	6d657400 	cfstrdvs	mvd7, [r5, #-0]
 5b0:	6d695f70 	stclvs	15, cr5, [r9, #-448]!	; 0xfffffe40
 5b4:	66006761 	strvs	r6, [r0], -r1, ror #14
 5b8:	665f7466 	ldrbvs	r7, [pc], -r6, ror #8
 5bc:	64657869 	strbtvs	r7, [r5], #-2153	; 0xfffff797
 5c0:	6c756d5f 	ldclvs	13, cr6, [r5], #-380	; 0xfffffe84
 5c4:	3531715f 	ldrcc	r7, [r1, #-351]!	; 0xfffffea1
 5c8:	676f6c00 	strbvs	r6, [pc, -r0, lsl #24]!
 5cc:	5f6a5f32 	svcpl	0x006a5f32
 5d0:	69727473 	ldmdbvs	r2!, {r0, r1, r4, r5, r6, sl, ip, sp, lr}^
 5d4:	63006564 	movwvs	r6, #1380	; 0x564
 5d8:	5f727275 	svcpl	0x00727275
 5dc:	67616d69 	strbvs	r6, [r1, -r9, ror #26]!
 5e0:	72756300 	rsbsvc	r6, r5, #0, 6
 5e4:	6e690072 	mcrvs	0, 3, r0, cr9, cr2, {3}
 5e8:	5f363174 	svcpl	0x00363174
 5ec:	66660074 			; <UNDEFINED> instruction: 0x66660074
 5f0:	69665f74 	stmdbvs	r6!, {r2, r4, r5, r6, r8, r9, sl, fp, ip, lr}^
 5f4:	5f646578 	svcpl	0x00646578
 5f8:	74666663 	strbtvc	r6, [r6], #-1635	; 0xfffff99d
 5fc:	54464600 	strbpl	r4, [r6], #-1536	; 0xfffffa00
 600:	4e49535f 	mcrmi	3, 2, r5, cr9, cr15, {2}
 604:	554c5f45 	strbpl	r5, [ip, #-3909]	; 0xfffff0bb
 608:	65740054 	ldrbvs	r0, [r4, #-84]!	; 0xffffffac
 60c:	725f706d 	subsvc	r7, pc, #109, 0	; 0x6d
 610:	006c6165 	rsbeq	r6, ip, r5, ror #2
 614:	65736162 	ldrbvs	r6, [r3, #-354]!	; 0xfffffe9e
 618:	616d695f 	cmnvs	sp, pc, asr r9
 61c:	75630067 	strbvc	r0, [r3, #-103]!	; 0xffffff99
 620:	725f7272 	subsvc	r7, pc, #536870919	; 0x20000007
 624:	006c6165 	rsbeq	r6, ip, r5, ror #2
 628:	20554e47 	subscs	r4, r5, r7, asr #28
 62c:	20393943 	eorscs	r3, r9, r3, asr #18
 630:	2e322e39 	mrccs	14, 1, r2, cr2, cr9, {1}
 634:	30322031 	eorscc	r2, r2, r1, lsr r0
 638:	30313931 	eorscc	r3, r1, r1, lsr r9
 63c:	28203532 	stmdacs	r0!, {r1, r4, r5, r8, sl, ip, sp}
 640:	656c6572 	strbvs	r6, [ip, #-1394]!	; 0xfffffa8e
 644:	29657361 	stmdbcs	r5!, {r0, r5, r6, r8, r9, ip, sp, lr}^
 648:	52415b20 	subpl	r5, r1, #32, 22	; 0x8000
 64c:	72612f4d 	rsbvc	r2, r1, #308	; 0x134
 650:	2d392d6d 	ldccs	13, cr2, [r9, #-436]!	; 0xfffffe4c
 654:	6e617262 	cdpvs	2, 6, cr7, cr1, cr2, {3}
 658:	72206863 	eorvc	r6, r0, #6488064	; 0x630000
 65c:	73697665 	cmnvc	r9, #105906176	; 0x6500000
 660:	206e6f69 	rsbcs	r6, lr, r9, ror #30
 664:	35373732 	ldrcc	r3, [r7, #-1842]!	; 0xfffff8ce
 668:	205d3939 	subscs	r3, sp, r9, lsr r9
 66c:	70636d2d 	rsbvc	r6, r3, sp, lsr #26
 670:	72613d75 	rsbvc	r3, r1, #7488	; 0x1d40
 674:	3731316d 	ldrcc	r3, [r1, -sp, ror #2]!
 678:	667a6a36 			; <UNDEFINED> instruction: 0x667a6a36
 67c:	2d20732d 	stccs	3, cr7, [r0, #-180]!	; 0xffffff4c
 680:	6e75746d 	cdpvs	4, 7, cr7, cr5, cr13, {3}
 684:	72613d65 	rsbvc	r3, r1, #6464	; 0x1940
 688:	3731316d 	ldrcc	r3, [r1, -sp, ror #2]!
 68c:	667a6a36 			; <UNDEFINED> instruction: 0x667a6a36
 690:	2d20732d 	stccs	3, cr7, [r0, #-180]!	; 0xffffff4c
 694:	6f6c666d 	svcvs	0x006c666d
 698:	612d7461 			; <UNDEFINED> instruction: 0x612d7461
 69c:	733d6962 	teqvc	sp, #1605632	; 0x188000
 6a0:	2074666f 	rsbscs	r6, r4, pc, ror #12
 6a4:	72616d2d 	rsbvc	r6, r1, #2880	; 0xb40
 6a8:	6d2d206d 	stcvs	0, cr2, [sp, #-436]!	; 0xfffffe4c
 6ac:	68637261 	stmdavs	r3!, {r0, r5, r6, r9, ip, sp, lr}^
 6b0:	6d72613d 	ldfvse	f6, [r2, #-244]!	; 0xffffff0c
 6b4:	7a6b3676 	bvc	1ace094 <__bss_end__+0x1ac42ac>
 6b8:	67672d20 	strbvs	r2, [r7, -r0, lsr #26]!
 6bc:	2d206264 	sfmcs	f6, 4, [r0, #-400]!	; 0xfffffe70
 6c0:	62646767 	rsbvs	r6, r4, #27000832	; 0x19c0000
 6c4:	674f2d20 	strbvs	r2, [pc, -r0, lsr #26]
 6c8:	674f2d20 	strbvs	r2, [pc, -r0, lsr #26]
 6cc:	74732d20 	ldrbtvc	r2, [r3], #-3360	; 0xfffff2e0
 6d0:	6e673d64 	cdpvs	13, 6, cr3, cr7, cr4, {3}
 6d4:	20393975 	eorscs	r3, r9, r5, ror r9
 6d8:	6474732d 	ldrbtvs	r7, [r4], #-813	; 0xfffffcd3
 6dc:	756e673d 	strbvc	r6, [lr, #-1853]!	; 0xfffff8c3
 6e0:	2d203939 			; <UNDEFINED> instruction: 0x2d203939
 6e4:	65726666 	ldrbvs	r6, [r2, #-1638]!	; 0xfffff99a
 6e8:	61747365 	cmnvs	r4, r5, ror #6
 6ec:	6e69646e 	cdpvs	4, 6, cr6, cr9, cr14, {3}
 6f0:	72610067 	rsbvc	r0, r1, #103, 0	; 0x67
 6f4:	76007367 	strvc	r7, [r0], -r7, ror #6
 6f8:	72705f61 	rsbsvc	r5, r0, #388	; 0x184
 6fc:	6b746e69 	blvs	1d1c0a8 <__bss_end__+0x1d122c0>
 700:	675f5f00 	ldrbvs	r5, [pc, -r0, lsl #30]
 704:	5f63756e 	svcpl	0x0063756e
 708:	6c5f6176 	ldfvse	f6, [pc], {118}	; 0x76
 70c:	00747369 	rsbseq	r7, r4, r9, ror #6
 710:	6573552f 	ldrbvs	r5, [r3, #-1327]!	; 0xfffffad1
 714:	652f7372 	strvs	r7, [pc, #-882]!	; 3aa <__code_start__-0x7c56>
 718:	62636972 	rsbvs	r6, r3, #1867776	; 0x1c8000
 71c:	2f726165 	svccs	0x00726165
 720:	75636f44 	strbvc	r6, [r3, #-3908]!	; 0xfffff0bc
 724:	746e656d 	strbtvc	r6, [lr], #-1389	; 0xfffffa93
 728:	53432f73 	movtpl	r2, #16243	; 0x3f73
 72c:	45303431 	ldrmi	r3, [r0, #-1073]!	; 0xfffffbcf
 730:	3173632f 	cmncc	r3, pc, lsr #6
 734:	2d453034 	stclcs	0, cr3, [r5, #-208]	; 0xffffff30
 738:	616e6966 	cmnvs	lr, r6, ror #18
 73c:	72702d6c 	rsbsvc	r2, r0, #108, 26	; 0x1b00
 740:	63656a6f 	cmnvs	r5, #454656	; 0x6f000
 744:	696c2f74 	stmdbvs	ip!, {r2, r4, r5, r6, r8, r9, sl, fp, sp}^
 748:	322d7362 	eorcc	r7, sp, #-2013265919	; 0x88000001
 74c:	786c3034 	stmdavc	ip!, {r2, r4, r5, ip, sp}^
 750:	62696c2f 	rsbvs	r6, r9, #12032	; 0x2f00
 754:	5f006970 	svcpl	0x00006970
 758:	0070615f 	rsbseq	r6, r0, pc, asr r1
 75c:	696c2f2e 	stmdbvs	ip!, {r1, r2, r3, r5, r8, r9, sl, fp, sp}^
 760:	702f6362 	eorvc	r6, pc, r2, ror #6
 764:	746e6972 	strbtvc	r6, [lr], #-2418	; 0xfffff68e
 768:	00632e6b 	rsbeq	r2, r3, fp, ror #28
 76c:	61765f5f 	cmnvs	r6, pc, asr pc
 770:	73696c5f 	cmnvc	r9, #24320	; 0x5f00
 774:	6e690074 	mcrvs	0, 3, r0, cr9, cr4, {3}
 778:	6e726574 	mrcvs	5, 3, r6, cr2, cr4, {3}
 77c:	705f6c61 	subsvc	r6, pc, r1, ror #24
 780:	006b7475 	rsbeq	r7, fp, r5, ror r4
 784:	696c2f2e 	stmdbvs	ip!, {r1, r2, r3, r5, r8, r9, sl, fp, sp}^
 788:	702f6362 	eorvc	r6, pc, r2, ror #6
 78c:	2e6b7475 	mcrcs	4, 3, r7, cr11, cr5, {3}
 790:	73690063 	cmnvc	r9, #99, 0	; 0x63
 794:	69676964 	stmdbvs	r7!, {r2, r5, r6, r8, fp, sp, lr}^
 798:	69750074 	ldmdbvs	r5!, {r2, r4, r5, r6}^
 79c:	3436746e 	ldrtcc	r7, [r6], #-1134	; 0xfffffb92
 7a0:	2e00745f 	cfmvsrcs	mvf0, r7
 7a4:	62696c2f 	rsbvs	r6, r9, #12032	; 0x2f00
 7a8:	61762f63 	cmnvs	r6, r3, ror #30
 7ac:	6972702d 	ldmdbvs	r2!, {r0, r2, r3, r5, ip, sp, lr}^
 7b0:	2e6b746e 	cdpcs	4, 6, cr7, cr11, cr14, {3}
 7b4:	5f5f0063 	svcpl	0x005f0063
 7b8:	65646f63 	strbvs	r6, [r4, #-3939]!	; 0xfffff09d
 7bc:	6174735f 	cmnvs	r4, pc, asr r3
 7c0:	5f5f7472 	svcpl	0x005f7472
 7c4:	625f5f00 	subsvs	r5, pc, #0, 30
 7c8:	735f7373 	cmpvc	pc, #-872415231	; 0xcc000001
 7cc:	74726174 	ldrbtvc	r6, [r2], #-372	; 0xfffffe8c
 7d0:	77005f5f 	smlsdvc	r0, pc, pc, r5	; <UNPREDICTABLE>
 7d4:	68746469 	ldmdavs	r4!, {r0, r3, r5, r6, sl, sp, lr}^
 7d8:	645f5f00 	ldrbvs	r5, [pc], #-3840	; 7e0 <__code_start__-0x7820>
 7dc:	5f617461 	svcpl	0x00617461
 7e0:	5f646e65 	svcpl	0x00646e65
 7e4:	7570005f 	ldrbvc	r0, [r0, #-95]!	; 0xffffffa1
 7e8:	665f6374 			; <UNDEFINED> instruction: 0x665f6374
 7ec:	5f5f0070 	svcpl	0x005f0070
 7f0:	5f737362 	svcpl	0x00737362
 7f4:	5f646e65 	svcpl	0x00646e65
 7f8:	5f5f005f 	svcpl	0x005f005f
 7fc:	70616568 	rsbvc	r6, r1, r8, ror #10
 800:	6174735f 	cmnvs	r4, pc, asr r3
 804:	5f5f7472 	svcpl	0x005f7472
 808:	69707200 	ldmdbvs	r0!, {r9, ip, sp, lr}^
 80c:	7465735f 	strbtvc	r7, [r5], #-863	; 0xfffffca1
 810:	74756f5f 	ldrbtvc	r6, [r5], #-3935	; 0xfffff0a1
 814:	00747570 	rsbseq	r7, r4, r0, ror r5
 818:	5f746d66 	svcpl	0x00746d66
 81c:	72617473 	rsbvc	r7, r1, #1929379840	; 0x73000000
 820:	74730074 	ldrbtvc	r0, [r3], #-116	; 0xffffff8c
 824:	79706372 	ldmdbvc	r0!, {r1, r4, r5, r6, r8, r9, sp, lr}^
 828:	67656e00 	strbvs	r6, [r5, -r0, lsl #28]!
 82c:	6e00705f 	mcrvs	0, 0, r7, cr0, cr15, {2}
 830:	00316d75 	eorseq	r6, r1, r5, ror sp
 834:	6f635f5f 	svcvs	0x00635f5f
 838:	655f6564 	ldrbvs	r6, [pc, #-1380]	; 2dc <__code_start__-0x7d24>
 83c:	5f5f646e 	svcpl	0x005f646e
 840:	696d6500 	stmdbvs	sp!, {r8, sl, sp, lr}^
 844:	75700074 	ldrbvc	r0, [r0, #-116]!	; 0xffffff8c
 848:	665f7374 			; <UNDEFINED> instruction: 0x665f7374
 84c:	65720070 	ldrbvs	r0, [r2, #-112]!	; 0xffffff90
 850:	73726576 	cmnvc	r2, #494927872	; 0x1d800000
 854:	74730065 	ldrbtvc	r0, [r3], #-101	; 0xffffff9b
 858:	74616372 	strbtvc	r6, [r1], #-882	; 0xfffffc8e
 85c:	72747300 	rsbsvc	r7, r4, #0, 6
 860:	00706d63 	rsbseq	r6, r0, r3, ror #26
 864:	61645f5f 	cmnvs	r4, pc, asr pc
 868:	735f6174 	cmpvc	pc, #29
 86c:	74726174 	ldrbtvc	r6, [r2], #-372	; 0xfffffe8c
 870:	5f005f5f 	svcpl	0x00005f5f
 874:	6f72705f 	svcvs	0x0072705f
 878:	6e655f67 	cdpvs	15, 6, cr5, cr5, cr7, {3}
 87c:	005f5f64 	subseq	r5, pc, r4, ror #30
 880:	6e727473 	mrcvs	4, 3, r7, cr2, cr3, {3}
 884:	00706d63 	rsbseq	r6, r0, r3, ror #26
 888:	65736162 	ldrbvs	r6, [r3, #-354]!	; 0xfffffe9e
 88c:	67697300 	strbvs	r7, [r9, -r0, lsl #6]!
 890:	5f64656e 	svcpl	0x0064656e
 894:	69640070 	stmdbvs	r4!, {r4, r5, r6}^
 898:	6c626173 	stfvse	f6, [r2], #-460	; 0xfffffe34
 89c:	61635f65 	cmnvs	r3, r5, ror #30
 8a0:	00656863 	rsbeq	r6, r5, r3, ror #16
 8a4:	74732f2e 	ldrbtvc	r2, [r3], #-3886	; 0xfffff0d2
 8a8:	2d666661 	stclcs	6, cr6, [r6, #-388]!	; 0xfffffe7c
 8ac:	2f637273 	svccs	0x00637273
 8b0:	68636163 	stmdavs	r3!, {r0, r1, r5, r6, r8, sp, lr}^
 8b4:	00632e65 	rsbeq	r2, r3, r5, ror #28
 8b8:	5f697072 	svcpl	0x00697072
 8bc:	6f626572 	svcvs	0x00626572
 8c0:	6400746f 	strvs	r7, [r0], #-1135	; 0xfffffb91
 8c4:	79616c65 	stmdbvc	r1!, {r0, r2, r5, r6, sl, fp, sp, lr}^
 8c8:	00736d5f 	rsbseq	r6, r3, pc, asr sp
 8cc:	74732f2e 	ldrbtvc	r2, [r3], #-3886	; 0xfffff0d2
 8d0:	2d666661 	stclcs	6, cr6, [r6, #-388]!	; 0xfffffe7c
 8d4:	2f637273 	svccs	0x00637273
 8d8:	61656c63 	cmnvs	r5, r3, ror #24
 8dc:	65722d6e 	ldrbvs	r2, [r2, #-3438]!	; 0xfffff292
 8e0:	746f6f62 	strbtvc	r6, [pc], #-3938	; 8e8 <__code_start__-0x7718>
 8e4:	7500632e 	strvc	r6, [r0, #-814]	; 0xfffffcd2
 8e8:	5f747261 	svcpl	0x00747261
 8ec:	73756c66 	cmnvc	r5, #26112	; 0x6600
 8f0:	78745f68 	ldmdavc	r4!, {r3, r5, r6, r8, r9, sl, fp, ip, lr}^
 8f4:	73635f00 	cmnvc	r3, #0, 30
 8f8:	74726174 	ldrbtvc	r6, [r2], #-372	; 0xfffffe8c
 8fc:	73736200 	cmnvc	r3, #0, 4
 900:	646e655f 	strbtvs	r6, [lr], #-1375	; 0xfffffaa1
 904:	72617500 	rsbvc	r7, r1, #0, 10
 908:	6e695f74 	mcrvs	15, 3, r5, cr9, cr4, {3}
 90c:	63007469 	movwvs	r7, #1129	; 0x469
 910:	6f747375 	svcvs	0x00747375
 914:	6f6c5f6d 	svcvs	0x006c5f6d
 918:	72656461 	rsbvc	r6, r5, #1627389952	; 0x61000000
 91c:	732f2e00 			; <UNDEFINED> instruction: 0x732f2e00
 920:	66666174 			; <UNDEFINED> instruction: 0x66666174
 924:	6372732d 	cmnvs	r2, #-1275068416	; 0xb4000000
 928:	7473632f 	ldrbtvc	r6, [r3], #-815	; 0xfffffcd1
 92c:	2e747261 	cdpcs	2, 7, cr7, cr4, cr1, {3}
 930:	2f2e0063 	svccs	0x002e0063
 934:	66617473 			; <UNDEFINED> instruction: 0x66617473
 938:	72732d66 	rsbsvc	r2, r3, #6528	; 0x1980
 93c:	75632f63 	strbvc	r2, [r3, #-3939]!	; 0xfffff09d
 940:	6d6f7473 	cfstrdvs	mvd7, [pc, #-460]!	; 77c <__code_start__-0x7884>
 944:	616f6c2d 	cmnvs	pc, sp, lsr #24
 948:	2e726564 	cdpcs	5, 7, cr6, cr2, cr4, {3}
 94c:	65720063 	ldrbvs	r0, [r2, #-99]!	; 0xffffff9d
 950:	746f6f62 	strbtvc	r6, [pc], #-3938	; 958 <__code_start__-0x76a8>
 954:	6c61635f 	stclvs	3, cr6, [r1], #-380	; 0xfffffe84
 958:	74756f6c 	ldrbtvc	r6, [r5], #-3948	; 0xfffff094
 95c:	5f4d5000 	svcpl	0x004d5000
 960:	474f4457 	smlsldmi	r4, pc, r7, r4	; <UNPREDICTABLE>
 964:	74657300 	strbtvc	r7, [r5], #-768	; 0xfffffd00
 968:	6573755f 	ldrbvs	r7, [r3, #-1375]!	; 0xfffffaa1
 96c:	656c5f72 	strbvs	r5, [ip, #-3954]!	; 0xfffff08e
 970:	006c6576 	rsbeq	r6, ip, r6, ror r5
 974:	74732f2e 	ldrbtvc	r2, [r3], #-3886	; 0xfffff0d2
 978:	2d666661 	stclcs	6, cr6, [r6, #-388]!	; 0xfffffe7c
 97c:	2f637273 	svccs	0x00637273
 980:	6f626572 	svcvs	0x00626572
 984:	632e746f 			; <UNDEFINED> instruction: 0x632e746f
 988:	5f4d5000 	svcpl	0x004d5000
 98c:	53534150 	cmppl	r3, #20
 990:	44524f57 	ldrbmi	r4, [r2], #-3927	; 0xfffff0a9
 994:	5f746100 	svcpl	0x00746100
 998:	72657375 	rsbvc	r7, r5, #-738197503	; 0xd4000001
 99c:	76656c5f 			; <UNDEFINED> instruction: 0x76656c5f
 9a0:	50006c65 	andpl	r6, r0, r5, ror #24
 9a4:	53525f4d 	cmppl	r2, #308	; 0x134
 9a8:	575f4354 			; <UNDEFINED> instruction: 0x575f4354
 9ac:	47464352 	smlsldmi	r4, r6, r2, r3
 9b0:	4c55465f 	mrrcmi	6, 5, r4, r5, cr15
 9b4:	45525f4c 	ldrbmi	r5, [r2, #-3916]	; 0xfffff0b4
 9b8:	00544553 	subseq	r4, r4, r3, asr r5
 9bc:	525f4d50 	subspl	r4, pc, #80, 26	; 0x1400
 9c0:	00435453 	subeq	r5, r3, r3, asr r4
 9c4:	72737063 	rsbsvc	r7, r3, #99, 0	; 0x63
 9c8:	6c656400 	cfstrdvs	mvd6, [r5], #-0
 9cc:	735f7961 	cmpvc	pc, #1589248	; 0x184000
 9d0:	2e006365 	cdpcs	3, 0, cr6, cr0, cr5, {3}
 9d4:	6174732f 	cmnvs	r4, pc, lsr #6
 9d8:	732d6666 			; <UNDEFINED> instruction: 0x732d6666
 9dc:	742f6372 	strtvc	r6, [pc], #-882	; 9e4 <__code_start__-0x761c>
 9e0:	72656d69 	rsbvc	r6, r5, #6720	; 0x1a40
 9e4:	7400632e 	strvc	r6, [r0], #-814	; 0xfffffcd2
 9e8:	72656d69 	rsbvc	r6, r5, #6720	; 0x1a40
 9ec:	7465675f 	strbtvc	r6, [r5], #-1887	; 0xfffff8a1
 9f0:	6573755f 	ldrbvs	r7, [r3, #-1375]!	; 0xfffffaa1
 9f4:	65640063 	strbvs	r0, [r4, #-99]!	; 0xffffff9d
 9f8:	5f79616c 	svcpl	0x0079616c
 9fc:	74007375 	strvc	r7, [r0], #-885	; 0xfffffc8b
 a00:	72656d69 	rsbvc	r6, r5, #6720	; 0x1a40
 a04:	7465675f 	strbtvc	r6, [r5], #-1887	; 0xfffff8a1
 a08:	6573755f 	ldrbvs	r7, [r3, #-1375]!	; 0xfffffaa1
 a0c:	61725f63 	cmnvs	r2, r3, ror #30
 a10:	70670077 	rsbvc	r0, r7, r7, ror r0
 a14:	635f6f69 	cmpvs	pc, #420	; 0x1a4
 a18:	0030726c 	eorseq	r7, r0, ip, ror #4
 a1c:	6f697067 	svcvs	0x00697067
 a20:	7465735f 	strbtvc	r7, [r5], #-863	; 0xfffffca1
 a24:	70670030 	rsbvc	r0, r7, r0, lsr r0
 a28:	775f6f69 	ldrbvc	r6, [pc, -r9, ror #30]
 a2c:	65746972 	ldrbvs	r6, [r4, #-2418]!	; 0xfffff68e
 a30:	56454400 	strbpl	r4, [r5], -r0, lsl #8
 a34:	4c41565f 	mcrrmi	6, 5, r5, r1, cr15
 a38:	67003233 	smladxvs	r0, r3, r2, r3
 a3c:	5f6f6970 	svcpl	0x006f6970
 a40:	64616572 	strbtvs	r6, [r1], #-1394	; 0xfffffa8e
 a44:	69706700 	ldmdbvs	r0!, {r8, r9, sl, sp, lr}^
 a48:	65735f6f 	ldrbvs	r5, [r3, #-3951]!	; 0xfffff091
 a4c:	6e695f74 	mcrvs	15, 3, r5, cr9, cr4, {3}
 a50:	00747570 	rsbseq	r7, r4, r0, ror r5
 a54:	6d6f682f 	stclvs	8, cr6, [pc, #-188]!	; 9a0 <__code_start__-0x7660>
 a58:	6e652f65 	cdpvs	15, 6, cr2, cr5, cr5, {3}
 a5c:	72656c67 	rsbvc	r6, r5, #26368	; 0x6700
 a60:	616c632f 	cmnvs	ip, pc, lsr #6
 a64:	632f7373 			; <UNDEFINED> instruction: 0x632f7373
 a68:	30343273 	eorscc	r3, r4, r3, ror r2
 a6c:	322d786c 	eorcc	r7, sp, #108, 16	; 0x6c0000
 a70:	72707332 	rsbsvc	r7, r0, #-939524096	; 0xc8000000
 a74:	62696c2f 	rsbvs	r6, r9, #12032	; 0x2f00
 a78:	732f6970 			; <UNDEFINED> instruction: 0x732f6970
 a7c:	66666174 			; <UNDEFINED> instruction: 0x66666174
 a80:	6972702d 	ldmdbvs	r2!, {r0, r2, r3, r5, ip, sp, lr}^
 a84:	65746176 	ldrbvs	r6, [r4, #-374]!	; 0xfffffe8a
 a88:	69706700 	ldmdbvs	r0!, {r8, r9, sl, sp, lr}^
 a8c:	65735f6f 	ldrbvs	r5, [r3, #-3951]!	; 0xfffff091
 a90:	666f5f74 	uqsub16vs	r5, pc, r4	; <UNPREDICTABLE>
 a94:	70670066 	rsbvc	r0, r7, r6, rrx
 a98:	735f6f69 	cmpvc	pc, #420	; 0x1a4
 a9c:	6f5f7465 	svcvs	0x005f7465
 aa0:	75707475 	ldrbvc	r7, [r0, #-1141]!	; 0xfffffb8b
 aa4:	75660074 	strbvc	r0, [r6, #-116]!	; 0xffffff8c
 aa8:	6700636e 	strvs	r6, [r0, -lr, ror #6]
 aac:	5f6f6970 	svcpl	0x006f6970
 ab0:	636e7566 	cmnvs	lr, #427819008	; 0x19800000
 ab4:	4700745f 	smlsdmi	r0, pc, r4, r7	; <UNPREDICTABLE>
 ab8:	4320554e 			; <UNDEFINED> instruction: 0x4320554e
 abc:	31203939 			; <UNDEFINED> instruction: 0x31203939
 ac0:	2e332e30 	mrccs	14, 1, r2, cr3, cr0, {1}
 ac4:	30322031 	eorscc	r2, r2, r1, lsr r0
 ac8:	38303132 	ldmdacc	r0!, {r1, r4, r5, r8, ip, sp}
 acc:	28203432 	stmdacs	r0!, {r1, r4, r5, sl, ip, sp}
 ad0:	656c6572 	strbvs	r6, [ip, #-1394]!	; 0xfffffa8e
 ad4:	29657361 	stmdbcs	r5!, {r0, r5, r6, r8, r9, ip, sp, lr}^
 ad8:	636d2d20 	cmnvs	sp, #32, 26	; 0x800
 adc:	613d7570 	teqvs	sp, r0, ror r5
 ae0:	31316d72 	teqcc	r1, r2, ror sp
 ae4:	7a6a3637 	bvc	1a8e3c8 <__bss_end__+0x1a845e0>
 ae8:	20732d66 	rsbscs	r2, r3, r6, ror #26
 aec:	75746d2d 	ldrbvc	r6, [r4, #-3373]!	; 0xfffff2d3
 af0:	613d656e 	teqvs	sp, lr, ror #10
 af4:	31316d72 	teqcc	r1, r2, ror sp
 af8:	7a6a3637 	bvc	1a8e3dc <__bss_end__+0x1a845f4>
 afc:	20732d66 	rsbscs	r2, r3, r6, ror #26
 b00:	6c666d2d 	stclvs	13, cr6, [r6], #-180	; 0xffffff4c
 b04:	2d74616f 	ldfcse	f6, [r4, #-444]!	; 0xfffffe44
 b08:	3d696261 	sfmcc	f6, 2, [r9, #-388]!	; 0xfffffe7c
 b0c:	74666f73 	strbtvc	r6, [r6], #-3955	; 0xfffff08d
 b10:	616d2d20 	cmnvs	sp, r0, lsr #26
 b14:	2d206d72 	stccs	13, cr6, [r0, #-456]!	; 0xfffffe38
 b18:	6372616d 	cmnvs	r2, #1073741851	; 0x4000001b
 b1c:	72613d68 	rsbvc	r3, r1, #104, 26	; 0x1a00
 b20:	6b36766d 	blvs	d9e4dc <__bss_end__+0xd946f4>
 b24:	672d207a 			; <UNDEFINED> instruction: 0x672d207a
 b28:	20626467 	rsbcs	r6, r2, r7, ror #8
 b2c:	20674f2d 	rsbcs	r4, r7, sp, lsr #30
 b30:	6474732d 	ldrbtvs	r7, [r4], #-813	; 0xfffffcd3
 b34:	756e673d 	strbvc	r6, [lr, #-1853]!	; 0xfffff8c3
 b38:	2d203939 			; <UNDEFINED> instruction: 0x2d203939
 b3c:	65726666 	ldrbvs	r6, [r2, #-1638]!	; 0xfffff99a
 b40:	61747365 	cmnvs	r4, r5, ror #6
 b44:	6e69646e 	cdpvs	4, 6, cr6, cr9, cr14, {3}
 b48:	70670067 	rsbvc	r0, r7, r7, rrx
 b4c:	6c5f6f69 	mrrcvs	15, 6, r6, pc, cr9	; <UNPREDICTABLE>
 b50:	00307665 	eorseq	r7, r0, r5, ror #12
 b54:	6b6e6162 	blvs	1b990e4 <__bss_end__+0x1b8f2fc>
 b58:	69706700 	ldmdbvs	r0!, {r8, r9, sl, sp, lr}^
 b5c:	00632e6f 	rsbeq	r2, r3, pc, ror #28
 b60:	33747570 	cmncc	r4, #112, 10	; 0x1c000000
 b64:	61620032 	cmnvs	r2, r2, lsr r0
 b68:	765f6475 			; <UNDEFINED> instruction: 0x765f6475
 b6c:	73006c61 	movwvc	r6, #3169	; 0xc61
 b70:	00746174 	rsbseq	r6, r4, r4, ror r1
 b74:	74726175 	ldrbtvc	r6, [r2], #-373	; 0xfffffe8b
 b78:	6e61635f 	mcrvs	3, 3, r6, cr1, cr15, {2}
 b7c:	7465675f 	strbtvc	r6, [r5], #-1887	; 0xfffff8a1
 b80:	75610063 	strbvc	r0, [r1, #-99]!	; 0xffffff9d
 b84:	65705f78 	ldrbvs	r5, [r0, #-3960]!	; 0xfffff088
 b88:	68706972 	ldmdavs	r0!, {r1, r4, r5, r6, r8, fp, sp, lr}^
 b8c:	61750073 	cmnvs	r5, r3, ror r0
 b90:	632e7472 			; <UNDEFINED> instruction: 0x632e7472
 b94:	72617500 	rsbvc	r7, r1, #0, 10
 b98:	61635f74 	smcvs	13812	; 0x35f4
 b9c:	75705f6e 	ldrbvc	r5, [r0, #-3950]!	; 0xfffff092
 ba0:	61006374 	tstvs	r0, r4, ror r3
 ba4:	00726464 	rsbseq	r6, r2, r4, ror #8
 ba8:	74726175 	ldrbtvc	r6, [r2], #-373	; 0xfffffe8b
 bac:	5f78745f 	svcpl	0x0078745f
 bb0:	655f7369 	ldrbvs	r7, [pc, #-873]	; 84f <__code_start__-0x77b1>
 bb4:	7974706d 	ldmdbvc	r4!, {r0, r2, r3, r5, r6, ip, sp, lr}^
 bb8:	75616200 	strbvc	r6, [r1, #-512]!	; 0xfffffe00
 bbc:	75610064 	strbvc	r0, [r1, #-100]!	; 0xffffff9c
 bc0:	6e655f78 	mcrvs	15, 3, r5, cr5, cr8, {3}
 bc4:	656c6261 	strbvs	r6, [ip, #-609]!	; 0xfffffd9f
 bc8:	61750073 	cmnvs	r5, r3, ror r0
 bcc:	675f7472 			; <UNDEFINED> instruction: 0x675f7472
 bd0:	00637465 	rsbeq	r7, r3, r5, ror #8
 bd4:	6c746e63 	ldclvs	14, cr6, [r4], #-396	; 0xfffffe74
 bd8:	72617500 	rsbvc	r7, r1, #0, 10
 bdc:	69645f74 	stmdbvs	r4!, {r2, r4, r5, r6, r8, r9, sl, fp, ip, lr}^
 be0:	6c626173 	stfvse	f6, [r2], #-460	; 0xfffffe34
 be4:	61750065 	cmnvs	r5, r5, rrx
 be8:	685f7472 	ldmdavs	pc, {r1, r4, r5, r6, sl, ip, sp, lr}^	; <UNPREDICTABLE>
 bec:	645f7361 	ldrbvs	r7, [pc], #-865	; bf4 <__code_start__-0x740c>
 bf0:	00617461 	rsbeq	r7, r1, r1, ror #8
 bf4:	695f726f 	ldmdbvs	pc, {r0, r1, r2, r3, r5, r6, r9, ip, sp, lr}^	; <UNPREDICTABLE>
 bf8:	0032336e 	eorseq	r3, r2, lr, ror #6
 bfc:	61726373 	cmnvs	r2, r3, ror r3
 c00:	00686374 	rsbeq	r6, r8, r4, ror r3
 c04:	74726175 	ldrbtvc	r6, [r2], #-373	; 0xfffffe8b
 c08:	646e6100 	strbtvs	r6, [lr], #-256	; 0xffffff00
 c0c:	336e695f 	cmncc	lr, #1556480	; 0x17c000
 c10:	61750032 	cmnvs	r5, r2, lsr r0
 c14:	705f7472 	subsvc	r7, pc, r2, ror r4	; <UNPREDICTABLE>
 c18:	00637475 	rsbeq	r7, r3, r5, ror r4
 c1c:	33746567 	cmncc	r4, #432013312	; 0x19c00000
 c20:	6e690032 	mcrvs	0, 3, r0, cr9, cr2, {1}
 c24:	6e726574 	mrcvs	5, 3, r6, cr2, cr4, {3}
 c28:	705f6c61 	subsvc	r6, pc, r1, ror #24
 c2c:	68637475 	stmdavs	r3!, {r0, r2, r4, r5, r6, sl, ip, sp, lr}^
 c30:	72007261 	andvc	r7, r0, #268435462	; 0x10000006
 c34:	735f6970 	cmpvc	pc, #112, 18	; 0x1c0000
 c38:	705f7465 	subsvc	r7, pc, r5, ror #8
 c3c:	00637475 	rsbeq	r7, r3, r5, ror r4
 c40:	696c2f2e 	stmdbvs	ip!, {r1, r2, r3, r5, r8, r9, sl, fp, sp}^
 c44:	702f6362 	eorvc	r6, pc, r2, ror #6
 c48:	68637475 	stmdavs	r3!, {r0, r2, r4, r5, r6, sl, ip, sp, lr}^
 c4c:	632e7261 			; <UNDEFINED> instruction: 0x632e7261
 c50:	69707200 	ldmdbvs	r0!, {r9, ip, sp, lr}^
 c54:	7365725f 	cmnvc	r5, #-268435451	; 0xf0000005
 c58:	705f7465 	subsvc	r7, pc, r5, ror #8
 c5c:	00637475 	rsbeq	r7, r3, r5, ror r4
 c60:	74736564 	ldrbtvc	r6, [r3], #-1380	; 0xfffffa9c
 c64:	6c2f2e00 	stcvs	14, cr2, [pc], #-0	; c6c <__code_start__-0x7394>
 c68:	2f636269 	svccs	0x00636269
 c6c:	63727473 	cmnvs	r2, #1929379840	; 0x73000000
 c70:	632e7461 			; <UNDEFINED> instruction: 0x632e7461
 c74:	6c2f2e00 	stcvs	14, cr2, [pc], #-0	; c7c <__code_start__-0x7384>
 c78:	2f636269 	svccs	0x00636269
 c7c:	63727473 	cmnvs	r2, #1929379840	; 0x73000000
 c80:	632e706d 			; <UNDEFINED> instruction: 0x632e706d
 c84:	6c2f2e00 	stcvs	14, cr2, [pc], #-0	; c8c <__code_start__-0x7374>
 c88:	2f636269 	svccs	0x00636269
 c8c:	63727473 	cmnvs	r2, #1929379840	; 0x73000000
 c90:	632e7970 			; <UNDEFINED> instruction: 0x632e7970
 c94:	7a697300 	bvc	1a5d89c <__bss_end__+0x1a53ab4>
 c98:	00745f65 	rsbseq	r5, r4, r5, ror #30
 c9c:	696c2f2e 	stmdbvs	ip!, {r1, r2, r3, r5, r8, r9, sl, fp, sp}^
 ca0:	732f6362 			; <UNDEFINED> instruction: 0x732f6362
 ca4:	636e7274 	cmnvs	lr, #116, 4	; 0x40000007
 ca8:	632e706d 			; <UNDEFINED> instruction: 0x632e706d
 cac:	732f2e00 			; <UNDEFINED> instruction: 0x732f2e00
 cb0:	66666174 			; <UNDEFINED> instruction: 0x66666174
 cb4:	6372732d 	cmnvs	r2, #-1275068416	; 0xb4000000
 cb8:	6665642f 	strbtvs	r6, [r5], -pc, lsr #8
 cbc:	746c7561 	strbtvc	r7, [ip], #-1377	; 0xfffffa9f
 cc0:	6265722d 	rsbvs	r7, r5, #-805306366	; 0xd0000002
 cc4:	2d746f6f 	ldclcs	15, cr6, [r4, #-444]!	; 0xfffffe44
 cc8:	6c6c6163 	stfvse	f6, [ip], #-396	; 0xfffffe74
 ccc:	2e74756f 	cdpcs	5, 7, cr7, cr4, cr15, {3}
 cd0:	Address 0x0000000000000cd0 is out of bounds.


Disassembly of section .debug_frame:

00000000 <.debug_frame>:
   0:	0000000c 	andeq	r0, r0, ip
   4:	ffffffff 			; <UNDEFINED> instruction: 0xffffffff
   8:	7c020001 	stcvc	0, cr0, [r2], {1}
   c:	000d0c0e 	andeq	r0, sp, lr, lsl #24
  10:	00000020 	andeq	r0, r0, r0, lsr #32
  14:	00000000 	andeq	r0, r0, r0
  18:	00008038 	andeq	r8, r0, r8, lsr r0
  1c:	00000048 	andeq	r0, r0, r8, asr #32
  20:	84100e42 	ldrhi	r0, [r0], #-3650	; 0xfffff1be
  24:	86038504 	strhi	r8, [r3], -r4, lsl #10
  28:	5a018e02 	bpl	63838 <__bss_end__+0x59a50>
  2c:	c4c5c6ce 	strbgt	ip, [r5], #1742	; 0x6ce
  30:	0000000e 	andeq	r0, r0, lr
  34:	0000000c 	andeq	r0, r0, ip
  38:	ffffffff 			; <UNDEFINED> instruction: 0xffffffff
  3c:	7c020001 	stcvc	0, cr0, [r2], {1}
  40:	000d0c0e 	andeq	r0, sp, lr, lsl #24
  44:	00000014 	andeq	r0, r0, r4, lsl r0
  48:	00000034 	andeq	r0, r0, r4, lsr r0
  4c:	00008080 	andeq	r8, r0, r0, lsl #1
  50:	00000038 	andeq	r0, r0, r8, lsr r0
  54:	8e040e42 	cdphi	14, 0, cr0, cr4, cr2, {2}
  58:	100e4401 	andne	r4, lr, r1, lsl #8
  5c:	0000000c 	andeq	r0, r0, ip
  60:	00000034 	andeq	r0, r0, r4, lsr r0
  64:	000080b8 	strheq	r8, [r0], -r8	; <UNPREDICTABLE>
  68:	00000008 	andeq	r0, r0, r8
  6c:	00000024 	andeq	r0, r0, r4, lsr #32
  70:	00000034 	andeq	r0, r0, r4, lsr r0
  74:	000080c0 	andeq	r8, r0, r0, asr #1
  78:	00000160 	andeq	r0, r0, r0, ror #2
  7c:	84080e42 	strhi	r0, [r8], #-3650	; 0xfffff1be
  80:	44018e02 	strmi	r8, [r1], #-3586	; 0xfffff1fe
  84:	8002100e 	andhi	r1, r2, lr
  88:	42080e0a 	andmi	r0, r8, #160	; 0xa0
  8c:	000ec4ce 	andeq	ip, lr, lr, asr #9
  90:	00000b42 	andeq	r0, r0, r2, asr #22
  94:	00000018 	andeq	r0, r0, r8, lsl r0
  98:	00000034 	andeq	r0, r0, r4, lsr r0
  9c:	00008220 	andeq	r8, r0, r0, lsr #4
  a0:	00000030 	andeq	r0, r0, r0, lsr r0
  a4:	84080e42 	strhi	r0, [r8], #-3650	; 0xfffff1be
  a8:	4e018e02 	cdpmi	14, 0, cr8, cr1, cr2, {0}
  ac:	000ec4ce 	andeq	ip, lr, lr, asr #9
  b0:	0000000c 	andeq	r0, r0, ip
  b4:	ffffffff 			; <UNDEFINED> instruction: 0xffffffff
  b8:	7c020001 	stcvc	0, cr0, [r2], {1}
  bc:	000d0c0e 	andeq	r0, sp, lr, lsl #24
  c0:	0000001c 	andeq	r0, r0, ip, lsl r0
  c4:	000000b0 	strheq	r0, [r0], -r0	; <UNPREDICTABLE>
  c8:	00008250 	andeq	r8, r0, r0, asr r2
  cc:	000000dc 	ldrdeq	r0, [r0], -ip
  d0:	84180e42 	ldrhi	r0, [r8], #-3650	; 0xfffff1be
  d4:	86058506 	strhi	r8, [r5], -r6, lsl #10
  d8:	88038704 	stmdahi	r3, {r2, r8, r9, sl, pc}
  dc:	00018e02 	andeq	r8, r1, r2, lsl #28
  e0:	00000014 	andeq	r0, r0, r4, lsl r0
  e4:	000000b0 	strheq	r0, [r0], -r0	; <UNPREDICTABLE>
  e8:	0000832c 	andeq	r8, r0, ip, lsr #6
  ec:	00000028 	andeq	r0, r0, r8, lsr #32
  f0:	84080e44 	strhi	r0, [r8], #-3652	; 0xfffff1bc
  f4:	00018e02 	andeq	r8, r1, r2, lsl #28
  f8:	0000000c 	andeq	r0, r0, ip
  fc:	ffffffff 			; <UNDEFINED> instruction: 0xffffffff
 100:	7c020001 	stcvc	0, cr0, [r2], {1}
 104:	000d0c0e 	andeq	r0, sp, lr, lsl #24
 108:	00000034 	andeq	r0, r0, r4, lsr r0
 10c:	000000f8 	strdeq	r0, [r0], -r8
 110:	00008354 	andeq	r8, r0, r4, asr r3
 114:	00000058 	andeq	r0, r0, r8, asr r0
 118:	80100e42 	andshi	r0, r0, r2, asr #28
 11c:	82038104 	andhi	r8, r3, #1
 120:	42018302 	andmi	r8, r1, #134217728	; 0x8000000
 124:	07841c0e 	streq	r1, [r4, lr, lsl #24]
 128:	058e0685 	streq	r0, [lr, #1669]	; 0x685
 12c:	5c280e42 	stcpl	14, cr0, [r8], #-264	; 0xfffffef8
 130:	ce421c0e 	cdpgt	12, 4, cr1, cr2, cr14, {0}
 134:	100ec4c5 	andne	ip, lr, r5, asr #9
 138:	c1c2c342 	bicgt	ip, r2, r2, asr #6
 13c:	00000ec0 	andeq	r0, r0, r0, asr #29
 140:	0000000c 	andeq	r0, r0, ip
 144:	ffffffff 			; <UNDEFINED> instruction: 0xffffffff
 148:	7c020001 	stcvc	0, cr0, [r2], {1}
 14c:	000d0c0e 	andeq	r0, sp, lr, lsl #24
 150:	00000014 	andeq	r0, r0, r4, lsl r0
 154:	00000140 	andeq	r0, r0, r0, asr #2
 158:	000083ac 	andeq	r8, r0, ip, lsr #7
 15c:	00000034 	andeq	r0, r0, r4, lsr r0
 160:	84080e42 	strhi	r0, [r8], #-3650	; 0xfffff1be
 164:	00018e02 	andeq	r8, r1, r2, lsl #28
 168:	0000000c 	andeq	r0, r0, ip
 16c:	ffffffff 			; <UNDEFINED> instruction: 0xffffffff
 170:	7c020001 	stcvc	0, cr0, [r2], {1}
 174:	000d0c0e 	andeq	r0, sp, lr, lsl #24
 178:	0000000c 	andeq	r0, r0, ip
 17c:	00000168 	andeq	r0, r0, r8, ror #2
 180:	000083e0 	andeq	r8, r0, r0, ror #7
 184:	00000014 	andeq	r0, r0, r4, lsl r0
 188:	0000000c 	andeq	r0, r0, ip
 18c:	00000168 	andeq	r0, r0, r8, ror #2
 190:	000083f4 	strdeq	r8, [r0], -r4
 194:	00000024 	andeq	r0, r0, r4, lsr #32
 198:	0000000c 	andeq	r0, r0, ip
 19c:	00000168 	andeq	r0, r0, r8, ror #2
 1a0:	00008418 	andeq	r8, r0, r8, lsl r4
 1a4:	00000038 	andeq	r0, r0, r8, lsr r0
 1a8:	00000024 	andeq	r0, r0, r4, lsr #32
 1ac:	00000168 	andeq	r0, r0, r8, ror #2
 1b0:	00008450 	andeq	r8, r0, r0, asr r4
 1b4:	000001b4 			; <UNDEFINED> instruction: 0x000001b4
 1b8:	84140e42 	ldrhi	r0, [r4], #-3650	; 0xfffff1be
 1bc:	86048505 	strhi	r8, [r4], -r5, lsl #10
 1c0:	8e028703 	cdphi	7, 0, cr8, cr2, cr3, {0}
 1c4:	600e4201 	andvs	r4, lr, r1, lsl #4
 1c8:	0e0a9a02 	vmlaeq.f32	s18, s20, s4
 1cc:	000b4214 	andeq	r4, fp, r4, lsl r2
 1d0:	00000014 	andeq	r0, r0, r4, lsl r0
 1d4:	00000168 	andeq	r0, r0, r8, ror #2
 1d8:	00008604 	andeq	r8, r0, r4, lsl #12
 1dc:	00000064 	andeq	r0, r0, r4, rrx
 1e0:	8e040e54 	mcrhi	14, 0, r0, cr4, cr4, {2}
 1e4:	100e4201 	andne	r4, lr, r1, lsl #4
 1e8:	0000002c 	andeq	r0, r0, ip, lsr #32
 1ec:	00000168 	andeq	r0, r0, r8, ror #2
 1f0:	00008668 	andeq	r8, r0, r8, ror #12
 1f4:	000004b8 			; <UNDEFINED> instruction: 0x000004b8
 1f8:	84240e42 	strthi	r0, [r4], #-3650	; 0xfffff1be
 1fc:	86088509 	strhi	r8, [r8], -r9, lsl #10
 200:	88068707 	stmdahi	r6, {r0, r1, r2, r8, r9, sl, pc}
 204:	8a048905 	bhi	122620 <__bss_end__+0x118838>
 208:	8e028b03 	vmlahi.f64	d8, d2, d3
 20c:	b80e4201 	stmdalt	lr, {r0, r9, lr}
 210:	02380302 	eorseq	r0, r8, #134217728	; 0x8000000
 214:	0000240e 	andeq	r2, r0, lr, lsl #8
 218:	0000000c 	andeq	r0, r0, ip
 21c:	ffffffff 			; <UNDEFINED> instruction: 0xffffffff
 220:	7c020001 	stcvc	0, cr0, [r2], {1}
 224:	000d0c0e 	andeq	r0, sp, lr, lsl #24
 228:	0000000c 	andeq	r0, r0, ip
 22c:	00000218 	andeq	r0, r0, r8, lsl r2
 230:	00008b20 	andeq	r8, r0, r0, lsr #22
 234:	00000010 	andeq	r0, r0, r0, lsl r0
 238:	0000000c 	andeq	r0, r0, ip
 23c:	00000218 	andeq	r0, r0, r8, lsl r2
 240:	00008b30 	andeq	r8, r0, r0, lsr fp
 244:	00000010 	andeq	r0, r0, r0, lsl r0
 248:	0000000c 	andeq	r0, r0, ip
 24c:	ffffffff 			; <UNDEFINED> instruction: 0xffffffff
 250:	7c020001 	stcvc	0, cr0, [r2], {1}
 254:	000d0c0e 	andeq	r0, sp, lr, lsl #24
 258:	00000014 	andeq	r0, r0, r4, lsl r0
 25c:	00000248 	andeq	r0, r0, r8, asr #4
 260:	00008b40 	andeq	r8, r0, r0, asr #22
 264:	0000002c 	andeq	r0, r0, ip, lsr #32
 268:	84080e42 	strhi	r0, [r8], #-3650	; 0xfffff1be
 26c:	00018e02 	andeq	r8, r1, r2, lsl #28
 270:	0000000c 	andeq	r0, r0, ip
 274:	ffffffff 			; <UNDEFINED> instruction: 0xffffffff
 278:	7c020001 	stcvc	0, cr0, [r2], {1}
 27c:	000d0c0e 	andeq	r0, sp, lr, lsl #24
 280:	00000014 	andeq	r0, r0, r4, lsl r0
 284:	00000270 	andeq	r0, r0, r0, ror r2
 288:	00008b6c 	andeq	r8, r0, ip, ror #22
 28c:	0000003c 	andeq	r0, r0, ip, lsr r0
 290:	84080e42 	strhi	r0, [r8], #-3650	; 0xfffff1be
 294:	00018e02 	andeq	r8, r1, r2, lsl #28
 298:	0000000c 	andeq	r0, r0, ip
 29c:	ffffffff 			; <UNDEFINED> instruction: 0xffffffff
 2a0:	7c020001 	stcvc	0, cr0, [r2], {1}
 2a4:	000d0c0e 	andeq	r0, sp, lr, lsl #24
 2a8:	0000000c 	andeq	r0, r0, ip
 2ac:	00000298 	muleq	r0, r8, r2
 2b0:	00008ba8 	andeq	r8, r0, r8, lsr #23
 2b4:	00000004 	andeq	r0, r0, r4
 2b8:	0000000c 	andeq	r0, r0, ip
 2bc:	ffffffff 			; <UNDEFINED> instruction: 0xffffffff
 2c0:	7c020001 	stcvc	0, cr0, [r2], {1}
 2c4:	000d0c0e 	andeq	r0, sp, lr, lsl #24
 2c8:	0000000c 	andeq	r0, r0, ip
 2cc:	000002b8 			; <UNDEFINED> instruction: 0x000002b8
 2d0:	00008bc4 	andeq	r8, r0, r4, asr #23
 2d4:	00000018 	andeq	r0, r0, r8, lsl r0
 2d8:	0000000c 	andeq	r0, r0, ip
 2dc:	000002b8 			; <UNDEFINED> instruction: 0x000002b8
 2e0:	00008bdc 	ldrdeq	r8, [r0], -ip
 2e4:	00000014 	andeq	r0, r0, r4, lsl r0
 2e8:	00000014 	andeq	r0, r0, r4, lsl r0
 2ec:	000002b8 			; <UNDEFINED> instruction: 0x000002b8
 2f0:	00008bf0 	strdeq	r8, [r0], -r0
 2f4:	00000054 	andeq	r0, r0, r4, asr r0
 2f8:	84080e42 	strhi	r0, [r8], #-3650	; 0xfffff1be
 2fc:	00018e02 	andeq	r8, r1, r2, lsl #28
 300:	0000000c 	andeq	r0, r0, ip
 304:	ffffffff 			; <UNDEFINED> instruction: 0xffffffff
 308:	7c020001 	stcvc	0, cr0, [r2], {1}
 30c:	000d0c0e 	andeq	r0, sp, lr, lsl #24
 310:	00000014 	andeq	r0, r0, r4, lsl r0
 314:	00000300 	andeq	r0, r0, r0, lsl #6
 318:	00008c44 	andeq	r8, r0, r4, asr #24
 31c:	00000014 	andeq	r0, r0, r4, lsl r0
 320:	84080e42 	strhi	r0, [r8], #-3650	; 0xfffff1be
 324:	00018e02 	andeq	r8, r1, r2, lsl #28
 328:	00000014 	andeq	r0, r0, r4, lsl r0
 32c:	00000300 	andeq	r0, r0, r0, lsl #6
 330:	00008c58 	andeq	r8, r0, r8, asr ip
 334:	0000001c 	andeq	r0, r0, ip, lsl r0
 338:	84080e42 	strhi	r0, [r8], #-3650	; 0xfffff1be
 33c:	00018e02 	andeq	r8, r1, r2, lsl #28
 340:	00000018 	andeq	r0, r0, r8, lsl r0
 344:	00000300 	andeq	r0, r0, r0, lsl #6
 348:	00008c74 	andeq	r8, r0, r4, ror ip
 34c:	00000024 	andeq	r0, r0, r4, lsr #32
 350:	84100e42 	ldrhi	r0, [r0], #-3650	; 0xfffff1be
 354:	86038504 	strhi	r8, [r3], -r4, lsl #10
 358:	00018e02 	andeq	r8, r1, r2, lsl #28
 35c:	00000014 	andeq	r0, r0, r4, lsl r0
 360:	00000300 	andeq	r0, r0, r0, lsl #6
 364:	00008c98 	muleq	r0, r8, ip
 368:	00000018 	andeq	r0, r0, r8, lsl r0
 36c:	84080e42 	strhi	r0, [r8], #-3650	; 0xfffff1be
 370:	00018e02 	andeq	r8, r1, r2, lsl #28
 374:	00000014 	andeq	r0, r0, r4, lsl r0
 378:	00000300 	andeq	r0, r0, r0, lsl #6
 37c:	00008cb0 			; <UNDEFINED> instruction: 0x00008cb0
 380:	00000018 	andeq	r0, r0, r8, lsl r0
 384:	84080e42 	strhi	r0, [r8], #-3650	; 0xfffff1be
 388:	00018e02 	andeq	r8, r1, r2, lsl #28
 38c:	0000000c 	andeq	r0, r0, ip
 390:	ffffffff 			; <UNDEFINED> instruction: 0xffffffff
 394:	7c020001 	stcvc	0, cr0, [r2], {1}
 398:	000d0c0e 	andeq	r0, sp, lr, lsl #24
 39c:	00000018 	andeq	r0, r0, r8, lsl r0
 3a0:	0000038c 	andeq	r0, r0, ip, lsl #7
 3a4:	00008cc8 	andeq	r8, r0, r8, asr #25
 3a8:	00000064 	andeq	r0, r0, r4, rrx
 3ac:	84100e46 	ldrhi	r0, [r0], #-3654	; 0xfffff1ba
 3b0:	86038504 	strhi	r8, [r3], -r4, lsl #10
 3b4:	00018e02 	andeq	r8, r1, r2, lsl #28
 3b8:	00000014 	andeq	r0, r0, r4, lsl r0
 3bc:	0000038c 	andeq	r0, r0, ip, lsl #7
 3c0:	00008d2c 	andeq	r8, r0, ip, lsr #26
 3c4:	00000010 	andeq	r0, r0, r0, lsl r0
 3c8:	84080e42 	strhi	r0, [r8], #-3650	; 0xfffff1be
 3cc:	00018e02 	andeq	r8, r1, r2, lsl #28
 3d0:	00000014 	andeq	r0, r0, r4, lsl r0
 3d4:	0000038c 	andeq	r0, r0, ip, lsl #7
 3d8:	00008d3c 	andeq	r8, r0, ip, lsr sp
 3dc:	00000024 	andeq	r0, r0, r4, lsr #32
 3e0:	84080e46 	strhi	r0, [r8], #-3654	; 0xfffff1ba
 3e4:	00018e02 	andeq	r8, r1, r2, lsl #28
 3e8:	00000014 	andeq	r0, r0, r4, lsl r0
 3ec:	0000038c 	andeq	r0, r0, ip, lsl #7
 3f0:	00008d60 	andeq	r8, r0, r0, ror #26
 3f4:	00000024 	andeq	r0, r0, r4, lsr #32
 3f8:	84080e46 	strhi	r0, [r8], #-3654	; 0xfffff1ba
 3fc:	00018e02 	andeq	r8, r1, r2, lsl #28
 400:	00000014 	andeq	r0, r0, r4, lsl r0
 404:	0000038c 	andeq	r0, r0, ip, lsl #7
 408:	00008d84 	andeq	r8, r0, r4, lsl #27
 40c:	00000010 	andeq	r0, r0, r0, lsl r0
 410:	84080e42 	strhi	r0, [r8], #-3650	; 0xfffff1be
 414:	00018e02 	andeq	r8, r1, r2, lsl #28
 418:	00000014 	andeq	r0, r0, r4, lsl r0
 41c:	0000038c 	andeq	r0, r0, ip, lsl #7
 420:	00008d94 	muleq	r0, r4, sp
 424:	0000001c 	andeq	r0, r0, ip, lsl r0
 428:	84080e42 	strhi	r0, [r8], #-3650	; 0xfffff1be
 42c:	00018e02 	andeq	r8, r1, r2, lsl #28
 430:	00000018 	andeq	r0, r0, r8, lsl r0
 434:	0000038c 	andeq	r0, r0, ip, lsl #7
 438:	00008db0 			; <UNDEFINED> instruction: 0x00008db0
 43c:	00000034 	andeq	r0, r0, r4, lsr r0
 440:	84080e46 	strhi	r0, [r8], #-3654	; 0xfffff1ba
 444:	4e018e02 	cdpmi	14, 0, cr8, cr1, cr2, {0}
 448:	cec4000e 	cdpgt	0, 12, cr0, cr4, cr14, {0}
 44c:	0000000c 	andeq	r0, r0, ip
 450:	ffffffff 			; <UNDEFINED> instruction: 0xffffffff
 454:	7c020001 	stcvc	0, cr0, [r2], {1}
 458:	000d0c0e 	andeq	r0, sp, lr, lsl #24
 45c:	00000018 	andeq	r0, r0, r8, lsl r0
 460:	0000044c 	andeq	r0, r0, ip, asr #8
 464:	00008de4 	andeq	r8, r0, r4, ror #27
 468:	00000020 	andeq	r0, r0, r0, lsr #32
 46c:	84100e42 	ldrhi	r0, [r0], #-3650	; 0xfffff1be
 470:	86038504 	strhi	r8, [r3], -r4, lsl #10
 474:	00018e02 	andeq	r8, r1, r2, lsl #28
 478:	00000018 	andeq	r0, r0, r8, lsl r0
 47c:	0000044c 	andeq	r0, r0, ip, asr #8
 480:	00008e04 	andeq	r8, r0, r4, lsl #28
 484:	00000020 	andeq	r0, r0, r0, lsr #32
 488:	84100e42 	ldrhi	r0, [r0], #-3650	; 0xfffff1be
 48c:	86038504 	strhi	r8, [r3], -r4, lsl #10
 490:	00018e02 	andeq	r8, r1, r2, lsl #28
 494:	00000014 	andeq	r0, r0, r4, lsl r0
 498:	0000044c 	andeq	r0, r0, ip, asr #8
 49c:	00008e24 	andeq	r8, r0, r4, lsr #28
 4a0:	000000b0 	strheq	r0, [r0], -r0	; <UNPREDICTABLE>
 4a4:	84080e42 	strhi	r0, [r8], #-3650	; 0xfffff1be
 4a8:	00018e02 	andeq	r8, r1, r2, lsl #28
 4ac:	00000014 	andeq	r0, r0, r4, lsl r0
 4b0:	0000044c 	andeq	r0, r0, ip, asr #8
 4b4:	00008ed4 	ldrdeq	r8, [r0], -r4
 4b8:	00000018 	andeq	r0, r0, r8, lsl r0
 4bc:	84080e42 	strhi	r0, [r8], #-3650	; 0xfffff1be
 4c0:	00018e02 	andeq	r8, r1, r2, lsl #28
 4c4:	00000014 	andeq	r0, r0, r4, lsl r0
 4c8:	0000044c 	andeq	r0, r0, ip, asr #8
 4cc:	00008eec 	andeq	r8, r0, ip, ror #29
 4d0:	00000020 	andeq	r0, r0, r0, lsr #32
 4d4:	84080e42 	strhi	r0, [r8], #-3650	; 0xfffff1be
 4d8:	00018e02 	andeq	r8, r1, r2, lsl #28
 4dc:	00000014 	andeq	r0, r0, r4, lsl r0
 4e0:	0000044c 	andeq	r0, r0, ip, asr #8
 4e4:	00008f0c 	andeq	r8, r0, ip, lsl #30
 4e8:	00000030 	andeq	r0, r0, r0, lsr r0
 4ec:	84080e42 	strhi	r0, [r8], #-3650	; 0xfffff1be
 4f0:	00018e02 	andeq	r8, r1, r2, lsl #28
 4f4:	00000014 	andeq	r0, r0, r4, lsl r0
 4f8:	0000044c 	andeq	r0, r0, ip, asr #8
 4fc:	00008f3c 	andeq	r8, r0, ip, lsr pc
 500:	00000030 	andeq	r0, r0, r0, lsr r0
 504:	84080e42 	strhi	r0, [r8], #-3650	; 0xfffff1be
 508:	00018e02 	andeq	r8, r1, r2, lsl #28
 50c:	00000014 	andeq	r0, r0, r4, lsl r0
 510:	0000044c 	andeq	r0, r0, ip, asr #8
 514:	00008f6c 	andeq	r8, r0, ip, ror #30
 518:	00000010 	andeq	r0, r0, r0, lsl r0
 51c:	84080e42 	strhi	r0, [r8], #-3650	; 0xfffff1be
 520:	00018e02 	andeq	r8, r1, r2, lsl #28
 524:	00000014 	andeq	r0, r0, r4, lsl r0
 528:	0000044c 	andeq	r0, r0, ip, asr #8
 52c:	00008f7c 	andeq	r8, r0, ip, ror pc
 530:	00000020 	andeq	r0, r0, r0, lsr #32
 534:	84080e42 	strhi	r0, [r8], #-3650	; 0xfffff1be
 538:	00018e02 	andeq	r8, r1, r2, lsl #28
 53c:	00000014 	andeq	r0, r0, r4, lsl r0
 540:	0000044c 	andeq	r0, r0, ip, asr #8
 544:	00008f9c 	muleq	r0, ip, pc	; <UNPREDICTABLE>
 548:	00000014 	andeq	r0, r0, r4, lsl r0
 54c:	84080e42 	strhi	r0, [r8], #-3650	; 0xfffff1be
 550:	00018e02 	andeq	r8, r1, r2, lsl #28
 554:	00000014 	andeq	r0, r0, r4, lsl r0
 558:	0000044c 	andeq	r0, r0, ip, asr #8
 55c:	00008fb0 			; <UNDEFINED> instruction: 0x00008fb0
 560:	00000024 	andeq	r0, r0, r4, lsr #32
 564:	84080e42 	strhi	r0, [r8], #-3650	; 0xfffff1be
 568:	00018e02 	andeq	r8, r1, r2, lsl #28
 56c:	0000000c 	andeq	r0, r0, ip
 570:	ffffffff 			; <UNDEFINED> instruction: 0xffffffff
 574:	7c020001 	stcvc	0, cr0, [r2], {1}
 578:	000d0c0e 	andeq	r0, sp, lr, lsl #24
 57c:	00000014 	andeq	r0, r0, r4, lsl r0
 580:	0000056c 	andeq	r0, r0, ip, ror #10
 584:	00008fd4 	ldrdeq	r8, [r0], -r4
 588:	00000014 	andeq	r0, r0, r4, lsl r0
 58c:	84080e42 	strhi	r0, [r8], #-3650	; 0xfffff1be
 590:	00018e02 	andeq	r8, r1, r2, lsl #28
 594:	0000000c 	andeq	r0, r0, ip
 598:	0000056c 	andeq	r0, r0, ip, ror #10
 59c:	00008fe8 	andeq	r8, r0, r8, ror #31
 5a0:	00000018 	andeq	r0, r0, r8, lsl r0
 5a4:	0000000c 	andeq	r0, r0, ip
 5a8:	0000056c 	andeq	r0, r0, ip, ror #10
 5ac:	00009000 	andeq	r9, r0, r0
 5b0:	00000010 	andeq	r0, r0, r0, lsl r0
 5b4:	0000000c 	andeq	r0, r0, ip
 5b8:	ffffffff 			; <UNDEFINED> instruction: 0xffffffff
 5bc:	7c020001 	stcvc	0, cr0, [r2], {1}
 5c0:	000d0c0e 	andeq	r0, sp, lr, lsl #24
 5c4:	0000000c 	andeq	r0, r0, ip
 5c8:	000005b4 			; <UNDEFINED> instruction: 0x000005b4
 5cc:	00009010 	andeq	r9, r0, r0, lsl r0
 5d0:	00000034 	andeq	r0, r0, r4, lsr r0
 5d4:	0000000c 	andeq	r0, r0, ip
 5d8:	ffffffff 			; <UNDEFINED> instruction: 0xffffffff
 5dc:	7c020001 	stcvc	0, cr0, [r2], {1}
 5e0:	000d0c0e 	andeq	r0, sp, lr, lsl #24
 5e4:	0000000c 	andeq	r0, r0, ip
 5e8:	000005d4 	ldrdeq	r0, [r0], -r4
 5ec:	00009044 	andeq	r9, r0, r4, asr #32
 5f0:	0000002c 	andeq	r0, r0, ip, lsr #32
 5f4:	0000000c 	andeq	r0, r0, ip
 5f8:	ffffffff 			; <UNDEFINED> instruction: 0xffffffff
 5fc:	7c020001 	stcvc	0, cr0, [r2], {1}
 600:	000d0c0e 	andeq	r0, sp, lr, lsl #24
 604:	0000000c 	andeq	r0, r0, ip
 608:	000005f4 	strdeq	r0, [r0], -r4
 60c:	00009070 	andeq	r9, r0, r0, ror r0
 610:	00000020 	andeq	r0, r0, r0, lsr #32
 614:	0000000c 	andeq	r0, r0, ip
 618:	ffffffff 			; <UNDEFINED> instruction: 0xffffffff
 61c:	7c020001 	stcvc	0, cr0, [r2], {1}
 620:	000d0c0e 	andeq	r0, sp, lr, lsl #24
 624:	0000000c 	andeq	r0, r0, ip
 628:	00000614 	andeq	r0, r0, r4, lsl r6
 62c:	00009090 	muleq	r0, r0, r0
 630:	0000002c 	andeq	r0, r0, ip, lsr #32
 634:	0000000c 	andeq	r0, r0, ip
 638:	ffffffff 			; <UNDEFINED> instruction: 0xffffffff
 63c:	7c020001 	stcvc	0, cr0, [r2], {1}
 640:	000d0c0e 	andeq	r0, sp, lr, lsl #24
 644:	0000000c 	andeq	r0, r0, ip
 648:	00000634 	andeq	r0, r0, r4, lsr r6
 64c:	000090bc 	strheq	r9, [r0], -ip
 650:	00000004 	andeq	r0, r0, r4
