
tests/1-i2s-test.elf:     file format elf32-littlearm


Disassembly of section .text:

00008000 <__code_start__>:
    8000:	e3a00013 	mov	r0, #19, 0
    8004:	e3800080 	orr	r0, r0, #128, 0	; 0x80
    8008:	e129f000 	msr	CPSR_fc, r0
    800c:	e3a01000 	mov	r1, #0, 0
    8010:	ee071f95 	mcr	15, 0, r1, cr7, cr5, {4}
    8014:	e3a0d302 	mov	sp, #134217728	; 0x8000000
    8018:	e3a0b000 	mov	fp, #0, 0
    801c:	eb0002c8 	bl	8b44 <_cstart>
    8020:	eb0002e8 	bl	8bc8 <rpi_reboot>

00008024 <PUT32>:
    8024:	e5801000 	str	r1, [r0]
    8028:	e12fff1e 	bx	lr

0000802c <GET32>:
    802c:	e5900000 	ldr	r0, [r0]
    8030:	e12fff1e 	bx	lr

00008034 <BRANCHTO>:
    8034:	e12fff10 	bx	r0

00008038 <notmain>:
    8038:	e92d4070 	push	{r4, r5, r6, lr}
    803c:	eb0002ad 	bl	8af8 <enable_cache>
    8040:	eb00001e 	bl	80c0 <i2s_init>
    8044:	e59f4028 	ldr	r4, [pc, #40]	; 8074 <notmain+0x3c>
    8048:	e59f5028 	ldr	r5, [pc, #40]	; 8078 <notmain+0x40>
    804c:	eb000069 	bl	81f8 <i2s_read_sample>
    8050:	e1a02000 	mov	r2, r0
    8054:	e1a00005 	mov	r0, r5
    8058:	e1a01002 	mov	r1, r2
    805c:	eb0000b2 	bl	832c <printk>
    8060:	e2544001 	subs	r4, r4, #1, 0
    8064:	1afffff8 	bne	804c <notmain+0x14>
    8068:	e59f000c 	ldr	r0, [pc, #12]	; 807c <notmain+0x44>
    806c:	e8bd4070 	pop	{r4, r5, r6, lr}
    8070:	ea0000ad 	b	832c <printk>
    8074:	000186a0 	andeq	r8, r1, r0, lsr #13
    8078:	00009098 	muleq	r0, r8, r0
    807c:	000090a0 	andeq	r9, r0, r0, lsr #1

00008080 <bits_set.part.0>:
    8080:	e52de004 	push	{lr}		; (str lr, [sp, #-4]!)
    8084:	e59f201c 	ldr	r2, [pc, #28]	; 80a8 <bits_set.part.0+0x28>
    8088:	e24dd00c 	sub	sp, sp, #12, 0
    808c:	e3a03058 	mov	r3, #88, 0	; 0x58
    8090:	e59f1014 	ldr	r1, [pc, #20]	; 80ac <bits_set.part.0+0x2c>
    8094:	e58d2000 	str	r2, [sp]
    8098:	e59f0010 	ldr	r0, [pc, #16]	; 80b0 <bits_set.part.0+0x30>
    809c:	e59f2010 	ldr	r2, [pc, #16]	; 80b4 <bits_set.part.0+0x34>
    80a0:	eb0000a1 	bl	832c <printk>
    80a4:	eb00029b 	bl	8b18 <clean_reboot>
    80a8:	00009114 	andeq	r9, r0, r4, lsl r1
    80ac:	000090a8 	andeq	r9, r0, r8, lsr #1
    80b0:	00009100 	andeq	r9, r0, r0, lsl #2
    80b4:	00009158 	andeq	r9, r0, r8, asr r1

000080b8 <CM_reg_value>:
    80b8:	e380045a 	orr	r0, r0, #1509949440	; 0x5a000000
    80bc:	e12fff1e 	bx	lr

000080c0 <i2s_init>:
    80c0:	e52de004 	push	{lr}		; (str lr, [sp, #-4]!)
    80c4:	e59f00fc 	ldr	r0, [pc, #252]	; 81c8 <i2s_init+0x108>
    80c8:	e24dd00c 	sub	sp, sp, #12, 0
    80cc:	ebffffd6 	bl	802c <GET32>
    80d0:	e3100001 	tst	r0, #1, 0
    80d4:	1a000033 	bne	81a8 <i2s_init+0xe8>
    80d8:	e3a01004 	mov	r1, #4, 0
    80dc:	e3a00012 	mov	r0, #18, 0
    80e0:	eb0002ee 	bl	8ca0 <gpio_set_function>
    80e4:	e3a01004 	mov	r1, #4, 0
    80e8:	e3a00013 	mov	r0, #19, 0
    80ec:	eb0002eb 	bl	8ca0 <gpio_set_function>
    80f0:	e3a01004 	mov	r1, #4, 0
    80f4:	e3a00014 	mov	r0, #20, 0
    80f8:	eb0002e8 	bl	8ca0 <gpio_set_function>
    80fc:	e3a00012 	mov	r0, #18, 0
    8100:	eb000303 	bl	8d14 <gpio_set_on>
    8104:	e3a00013 	mov	r0, #19, 0
    8108:	eb000301 	bl	8d14 <gpio_set_on>
    810c:	e3a00014 	mov	r0, #20, 0
    8110:	eb0002ff 	bl	8d14 <gpio_set_on>
    8114:	eb00029a 	bl	8b84 <dev_barrier>
    8118:	e59f00ac 	ldr	r0, [pc, #172]	; 81cc <i2s_init+0x10c>
    811c:	ebffffc2 	bl	802c <GET32>
    8120:	e59f10a8 	ldr	r1, [pc, #168]	; 81d0 <i2s_init+0x110>
    8124:	e3c00c06 	bic	r0, r0, #1536	; 0x600
    8128:	e3c0000f 	bic	r0, r0, #15, 0
    812c:	e1801001 	orr	r1, r0, r1
    8130:	e59f0094 	ldr	r0, [pc, #148]	; 81cc <i2s_init+0x10c>
    8134:	ebffffba 	bl	8024 <PUT32>
    8138:	e59f1094 	ldr	r1, [pc, #148]	; 81d4 <i2s_init+0x114>
    813c:	e59f0094 	ldr	r0, [pc, #148]	; 81d8 <i2s_init+0x118>
    8140:	ebffffb7 	bl	8024 <PUT32>
    8144:	eb00028e 	bl	8b84 <dev_barrier>
    8148:	e59f008c 	ldr	r0, [pc, #140]	; 81dc <i2s_init+0x11c>
    814c:	ebffffb6 	bl	802c <GET32>
    8150:	e59f1088 	ldr	r1, [pc, #136]	; 81e0 <i2s_init+0x120>
    8154:	e1a00a20 	lsr	r0, r0, #20
    8158:	e1a00a00 	lsl	r0, r0, #20
    815c:	e1801001 	orr	r1, r0, r1
    8160:	e59f0074 	ldr	r0, [pc, #116]	; 81dc <i2s_init+0x11c>
    8164:	ebffffae 	bl	8024 <PUT32>
    8168:	e59f0074 	ldr	r0, [pc, #116]	; 81e4 <i2s_init+0x124>
    816c:	ebffffae 	bl	802c <GET32>
    8170:	e3c0180f 	bic	r1, r0, #983040	; 0xf0000
    8174:	e38114da 	orr	r1, r1, #-637534208	; 0xda000000
    8178:	e3811702 	orr	r1, r1, #524288	; 0x80000
    817c:	e59f0060 	ldr	r0, [pc, #96]	; 81e4 <i2s_init+0x124>
    8180:	ebffffa7 	bl	8024 <PUT32>
    8184:	e59f003c 	ldr	r0, [pc, #60]	; 81c8 <i2s_init+0x108>
    8188:	ebffffa7 	bl	802c <GET32>
    818c:	e380145a 	orr	r1, r0, #1509949440	; 0x5a000000
    8190:	e3811013 	orr	r1, r1, #19, 0
    8194:	e59f002c 	ldr	r0, [pc, #44]	; 81c8 <i2s_init+0x108>
    8198:	ebffffa1 	bl	8024 <PUT32>
    819c:	e28dd00c 	add	sp, sp, #12, 0
    81a0:	e49de004 	pop	{lr}		; (ldr lr, [sp], #4)
    81a4:	ea000276 	b	8b84 <dev_barrier>
    81a8:	e59f2038 	ldr	r2, [pc, #56]	; 81e8 <i2s_init+0x128>
    81ac:	e3a0301c 	mov	r3, #28, 0
    81b0:	e59f1034 	ldr	r1, [pc, #52]	; 81ec <i2s_init+0x12c>
    81b4:	e58d2000 	str	r2, [sp]
    81b8:	e59f0030 	ldr	r0, [pc, #48]	; 81f0 <i2s_init+0x130>
    81bc:	e59f2030 	ldr	r2, [pc, #48]	; 81f4 <i2s_init+0x134>
    81c0:	eb000059 	bl	832c <printk>
    81c4:	eb000253 	bl	8b18 <clean_reboot>
    81c8:	20203000 	eorcs	r3, r0, r0
    81cc:	20101098 	mulscs	r0, r8, r0
    81d0:	5a000601 	bpl	99dc <__data_end__+0x1c>
    81d4:	5a006cd8 	bpl	2353c <__bss_end__+0x1977c>
    81d8:	2010109c 	mulscs	r0, ip, r0
    81dc:	20203008 	eorcs	r3, r0, r8
    81e0:	5a00fc20 	bpl	47268 <__bss_end__+0x3d4a8>
    81e4:	2020300c 	eorcs	r3, r0, ip
    81e8:	00009134 	andeq	r9, r0, r4, lsr r1
    81ec:	0000912c 	andeq	r9, r0, ip, lsr #2
    81f0:	00009100 	andeq	r9, r0, r0, lsl #2
    81f4:	00009164 	andeq	r9, r0, r4, ror #2

000081f8 <i2s_read_sample>:
    81f8:	e92d4010 	push	{r4, lr}
    81fc:	eb000260 	bl	8b84 <dev_barrier>
    8200:	e59f4018 	ldr	r4, [pc, #24]	; 8220 <i2s_read_sample+0x28>
    8204:	e1a00004 	mov	r0, r4
    8208:	ebffff87 	bl	802c <GET32>
    820c:	e3100601 	tst	r0, #1048576	; 0x100000
    8210:	0afffffb 	beq	8204 <i2s_read_sample+0xc>
    8214:	e8bd4010 	pop	{r4, lr}
    8218:	e59f0004 	ldr	r0, [pc, #4]	; 8224 <i2s_read_sample+0x2c>
    821c:	eaffff82 	b	802c <GET32>
    8220:	20203000 	eorcs	r3, r0, r0
    8224:	20203004 	eorcs	r3, r0, r4

00008228 <fft_fixed_cfft>:
    8228:	e92d41f0 	push	{r4, r5, r6, r7, r8, lr}
    822c:	e3a04001 	mov	r4, #1, 0
    8230:	e1a07214 	lsl	r7, r4, r2
    8234:	e3570b01 	cmp	r7, #1024	; 0x400
    8238:	8a000025 	bhi	82d4 <fft_fixed_cfft+0xac>
    823c:	e1570004 	cmp	r7, r4
    8240:	83a0c000 	movhi	ip, #0, 0
    8244:	8247e001 	subhi	lr, r7, #1, 0
    8248:	82806002 	addhi	r6, r0, #2, 0
    824c:	82815002 	addhi	r5, r1, #2, 0
    8250:	9a00001d 	bls	82cc <fft_fixed_cfft+0xa4>
    8254:	e1a03007 	mov	r3, r7
    8258:	e1a030a3 	lsr	r3, r3, #1
    825c:	e083200c 	add	r2, r3, ip
    8260:	e152000e 	cmp	r2, lr
    8264:	8afffffb 	bhi	8258 <fft_fixed_cfft+0x30>
    8268:	e2432001 	sub	r2, r3, #1, 0
    826c:	e00cc002 	and	ip, ip, r2
    8270:	e08cc003 	add	ip, ip, r3
    8274:	e15c0004 	cmp	ip, r4
    8278:	9a000008 	bls	82a0 <fft_fixed_cfft+0x78>
    827c:	e1a0308c 	lsl	r3, ip, #1
    8280:	e19080f3 	ldrsh	r8, [r0, r3]
    8284:	e1d620f0 	ldrsh	r2, [r6]
    8288:	e1c680b0 	strh	r8, [r6]
    828c:	e18020b3 	strh	r2, [r0, r3]
    8290:	e1d520f0 	ldrsh	r2, [r5]
    8294:	e19180f3 	ldrsh	r8, [r1, r3]
    8298:	e1c580b0 	strh	r8, [r5]
    829c:	e18120b3 	strh	r2, [r1, r3]
    82a0:	e2844001 	add	r4, r4, #1, 0
    82a4:	e1570004 	cmp	r7, r4
    82a8:	e2866002 	add	r6, r6, #2, 0
    82ac:	e2855002 	add	r5, r5, #2, 0
    82b0:	1affffe7 	bne	8254 <fft_fixed_cfft+0x2c>
    82b4:	e3a03008 	mov	r3, #8, 0
    82b8:	e59f202c 	ldr	r2, [pc, #44]	; 82ec <fft_fixed_cfft+0xc4>
    82bc:	e59f102c 	ldr	r1, [pc, #44]	; 82f0 <fft_fixed_cfft+0xc8>
    82c0:	e59f002c 	ldr	r0, [pc, #44]	; 82f4 <fft_fixed_cfft+0xcc>
    82c4:	eb000018 	bl	832c <printk>
    82c8:	eb000212 	bl	8b18 <clean_reboot>
    82cc:	e3a00000 	mov	r0, #0, 0
    82d0:	e8bd81f0 	pop	{r4, r5, r6, r7, r8, pc}
    82d4:	e3a0300f 	mov	r3, #15, 0
    82d8:	e59f2018 	ldr	r2, [pc, #24]	; 82f8 <fft_fixed_cfft+0xd0>
    82dc:	e59f1018 	ldr	r1, [pc, #24]	; 82fc <fft_fixed_cfft+0xd4>
    82e0:	e59f0018 	ldr	r0, [pc, #24]	; 8300 <fft_fixed_cfft+0xd8>
    82e4:	eb000010 	bl	832c <printk>
    82e8:	eb00020a 	bl	8b18 <clean_reboot>
    82ec:	0000921c 	andeq	r9, r0, ip, lsl r2
    82f0:	000091a8 	andeq	r9, r0, r8, lsr #3
    82f4:	000091b0 			; <UNDEFINED> instruction: 0x000091b0
    82f8:	0000920c 	andeq	r9, r0, ip, lsl #4
    82fc:	00009170 	andeq	r9, r0, r0, ror r1
    8300:	00009178 	andeq	r9, r0, r8, ror r1

00008304 <fft_fixed_rfft>:
    8304:	e3a0306a 	mov	r3, #106, 0	; 0x6a
    8308:	e92d4010 	push	{r4, lr}
    830c:	e59f200c 	ldr	r2, [pc, #12]	; 8320 <fft_fixed_rfft+0x1c>
    8310:	e59f100c 	ldr	r1, [pc, #12]	; 8324 <fft_fixed_rfft+0x20>
    8314:	e59f000c 	ldr	r0, [pc, #12]	; 8328 <fft_fixed_rfft+0x24>
    8318:	eb000003 	bl	832c <printk>
    831c:	eb0001fd 	bl	8b18 <clean_reboot>
    8320:	0000922c 	andeq	r9, r0, ip, lsr #4
    8324:	00009170 	andeq	r9, r0, r0, ror r1
    8328:	000091dc 	ldrdeq	r9, [r0], -ip

0000832c <printk>:
    832c:	e92d000f 	push	{r0, r1, r2, r3}
    8330:	e92d4030 	push	{r4, r5, lr}
    8334:	e24dd00c 	sub	sp, sp, #12, 0
    8338:	e28d301c 	add	r3, sp, #28, 0
    833c:	e58d3004 	str	r3, [sp, #4]
    8340:	e59f5034 	ldr	r5, [pc, #52]	; 837c <printk+0x50>
    8344:	e59d2018 	ldr	r2, [sp, #24]
    8348:	e3a01b01 	mov	r1, #1024	; 0x400
    834c:	e1a00005 	mov	r0, r5
    8350:	eb0000ba 	bl	8640 <va_printk>
    8354:	e1a04000 	mov	r4, r0
    8358:	e59f3020 	ldr	r3, [pc, #32]	; 8380 <printk+0x54>
    835c:	e5933000 	ldr	r3, [r3]
    8360:	e1a00005 	mov	r0, r5
    8364:	e12fff33 	blx	r3
    8368:	e1a00004 	mov	r0, r4
    836c:	e28dd00c 	add	sp, sp, #12, 0
    8370:	e8bd4030 	pop	{r4, r5, lr}
    8374:	e28dd010 	add	sp, sp, #16, 0
    8378:	e12fff1e 	bx	lr
    837c:	000099c0 	andeq	r9, r0, r0, asr #19
    8380:	000099b8 			; <UNDEFINED> instruction: 0x000099b8

00008384 <internal_putk>:
    8384:	e92d4010 	push	{r4, lr}
    8388:	e1a04000 	mov	r4, r0
    838c:	e5d40000 	ldrb	r0, [r4]
    8390:	e3500000 	cmp	r0, #0, 0
    8394:	0a000004 	beq	83ac <internal_putk+0x28>
    8398:	e59f3014 	ldr	r3, [pc, #20]	; 83b4 <internal_putk+0x30>
    839c:	e5933000 	ldr	r3, [r3]
    83a0:	e12fff33 	blx	r3
    83a4:	e2844001 	add	r4, r4, #1, 0
    83a8:	eafffff7 	b	838c <internal_putk+0x8>
    83ac:	e3a00001 	mov	r0, #1, 0
    83b0:	e8bd8010 	pop	{r4, pc}
    83b4:	000099bc 			; <UNDEFINED> instruction: 0x000099bc

000083b8 <isdigit>:
    83b8:	e2400030 	sub	r0, r0, #48, 0	; 0x30
    83bc:	e3500009 	cmp	r0, #9, 0
    83c0:	83a00000 	movhi	r0, #0, 0
    83c4:	93a00001 	movls	r0, #1, 0
    83c8:	e12fff1e 	bx	lr

000083cc <pad>:
    83cc:	e0401001 	sub	r1, r0, r1
    83d0:	e1510002 	cmp	r1, r2
    83d4:	b3a03020 	movlt	r3, #32, 0
    83d8:	b4c03001 	strblt	r3, [r0], #1
    83dc:	b2811001 	addlt	r1, r1, #1, 0
    83e0:	bafffffa 	blt	83d0 <pad+0x4>
    83e4:	e3a03000 	mov	r3, #0, 0
    83e8:	e5c03000 	strb	r3, [r0]
    83ec:	e12fff1e 	bx	lr

000083f0 <reverse>:
    83f0:	e042c003 	sub	ip, r2, r3
    83f4:	e28cc001 	add	ip, ip, #1, 0
    83f8:	e15c0001 	cmp	ip, r1
    83fc:	c04cc001 	subgt	ip, ip, r1
    8400:	c083300c 	addgt	r3, r3, ip
    8404:	e2421001 	sub	r1, r2, #1, 0
    8408:	e1a02000 	mov	r2, r0
    840c:	e1510003 	cmp	r1, r3
    8410:	2451c001 	ldrbcs	ip, [r1], #-1
    8414:	24c2c001 	strbcs	ip, [r2], #1
    8418:	2afffffb 	bcs	840c <reverse+0x1c>
    841c:	e3a03000 	mov	r3, #0, 0
    8420:	e5c23000 	strb	r3, [r2]
    8424:	e12fff1e 	bx	lr

00008428 <emit>:
    8428:	e92d40f0 	push	{r4, r5, r6, r7, lr}
    842c:	e24dd04c 	sub	sp, sp, #76, 0	; 0x4c
    8430:	e1a05001 	mov	r5, r1
    8434:	e1a04002 	mov	r4, r2
    8438:	e59d2060 	ldr	r2, [sp, #96]	; 0x60
    843c:	e1520004 	cmp	r2, r4
    8440:	c2442001 	subgt	r2, r4, #1, 0
    8444:	e1a0c003 	mov	ip, r3
    8448:	e2400002 	sub	r0, r0, #2, 0
    844c:	e350000e 	cmp	r0, #14, 0
    8450:	979ff100 	ldrls	pc, [pc, r0, lsl #2]
    8454:	ea000050 	b	859c <emit+0x174>
    8458:	00008574 	andeq	r8, r0, r4, ror r5
    845c:	0000859c 	muleq	r0, ip, r5
    8460:	0000859c 	muleq	r0, ip, r5
    8464:	0000859c 	muleq	r0, ip, r5
    8468:	0000859c 	muleq	r0, ip, r5
    846c:	0000859c 	muleq	r0, ip, r5
    8470:	00008568 	andeq	r8, r0, r8, ror #10
    8474:	0000859c 	muleq	r0, ip, r5
    8478:	00008494 	muleq	r0, r4, r4
    847c:	0000859c 	muleq	r0, ip, r5
    8480:	0000859c 	muleq	r0, ip, r5
    8484:	0000859c 	muleq	r0, ip, r5
    8488:	0000859c 	muleq	r0, ip, r5
    848c:	0000859c 	muleq	r0, ip, r5
    8490:	0000850c 	andeq	r8, r0, ip, lsl #10
    8494:	e59d1064 	ldr	r1, [sp, #100]	; 0x64
    8498:	e2511000 	subs	r1, r1, #0, 0
    849c:	13a01001 	movne	r1, #1, 0
    84a0:	e0111fa3 	ands	r1, r1, r3, lsr #31
    84a4:	0a000016 	beq	8504 <emit+0xdc>
    84a8:	e263c000 	rsb	ip, r3, #0, 0
    84ac:	e3a06001 	mov	r6, #1, 0
    84b0:	e28d0008 	add	r0, sp, #8, 0
    84b4:	e59f3100 	ldr	r3, [pc, #256]	; 85bc <emit+0x194>
    84b8:	e0831c93 	umull	r1, r3, r3, ip
    84bc:	e1a031a3 	lsr	r3, r3, #3
    84c0:	e1a0e003 	mov	lr, r3
    84c4:	e0833103 	add	r3, r3, r3, lsl #2
    84c8:	e04c3083 	sub	r3, ip, r3, lsl #1
    84cc:	e1a01000 	mov	r1, r0
    84d0:	e2800001 	add	r0, r0, #1, 0
    84d4:	e59f70e4 	ldr	r7, [pc, #228]	; 85c0 <emit+0x198>
    84d8:	e7d73003 	ldrb	r3, [r7, r3]
    84dc:	e5c13000 	strb	r3, [r1]
    84e0:	e1a0300c 	mov	r3, ip
    84e4:	e1a0c00e 	mov	ip, lr
    84e8:	e3530009 	cmp	r3, #9, 0
    84ec:	8afffff0 	bhi	84b4 <emit+0x8c>
    84f0:	e3560000 	cmp	r6, #0, 0
    84f4:	13a0302d 	movne	r3, #45, 0	; 0x2d
    84f8:	15c03000 	strbne	r3, [r0]
    84fc:	12810002 	addne	r0, r1, #2, 0
    8500:	ea00000f 	b	8544 <emit+0x11c>
    8504:	e3a06000 	mov	r6, #0, 0
    8508:	eaffffe8 	b	84b0 <emit+0x88>
    850c:	e28d1008 	add	r1, sp, #8, 0
    8510:	e20c000f 	and	r0, ip, #15, 0
    8514:	e59fe0a8 	ldr	lr, [pc, #168]	; 85c4 <emit+0x19c>
    8518:	e7de0000 	ldrb	r0, [lr, r0]
    851c:	e5c10000 	strb	r0, [r1]
    8520:	e2811001 	add	r1, r1, #1, 0
    8524:	e35c000f 	cmp	ip, #15, 0
    8528:	e1a0c22c 	lsr	ip, ip, #4
    852c:	8afffff7 	bhi	8510 <emit+0xe8>
    8530:	e1a00001 	mov	r0, r1
    8534:	e3a03078 	mov	r3, #120, 0	; 0x78
    8538:	e4c03002 	strb	r3, [r0], #2
    853c:	e3a03030 	mov	r3, #48, 0	; 0x30
    8540:	e5c13001 	strb	r3, [r1, #1]
    8544:	e28d1008 	add	r1, sp, #8, 0
    8548:	ebffff9f 	bl	83cc <pad>
    854c:	e1a02000 	mov	r2, r0
    8550:	e28d3008 	add	r3, sp, #8, 0
    8554:	e1a01004 	mov	r1, r4
    8558:	e1a00005 	mov	r0, r5
    855c:	ebffffa3 	bl	83f0 <reverse>
    8560:	e28dd04c 	add	sp, sp, #76, 0	; 0x4c
    8564:	e8bd80f0 	pop	{r4, r5, r6, r7, pc}
    8568:	e5cd3008 	strb	r3, [sp, #8]
    856c:	e28d0009 	add	r0, sp, #9, 0
    8570:	eafffff3 	b	8544 <emit+0x11c>
    8574:	e28d0008 	add	r0, sp, #8, 0
    8578:	e20c1001 	and	r1, ip, #1, 0
    857c:	e59fe044 	ldr	lr, [pc, #68]	; 85c8 <emit+0x1a0>
    8580:	e7de1001 	ldrb	r1, [lr, r1]
    8584:	e5c01000 	strb	r1, [r0]
    8588:	e2800001 	add	r0, r0, #1, 0
    858c:	e35c0001 	cmp	ip, #1, 0
    8590:	e1a0c0ac 	lsr	ip, ip, #1
    8594:	8afffff7 	bhi	8578 <emit+0x150>
    8598:	eaffffe9 	b	8544 <emit+0x11c>
    859c:	e59f3028 	ldr	r3, [pc, #40]	; 85cc <emit+0x1a4>
    85a0:	e58d3000 	str	r3, [sp]
    85a4:	e3a03079 	mov	r3, #121, 0	; 0x79
    85a8:	e59f2020 	ldr	r2, [pc, #32]	; 85d0 <emit+0x1a8>
    85ac:	e59f1020 	ldr	r1, [pc, #32]	; 85d4 <emit+0x1ac>
    85b0:	e59f0020 	ldr	r0, [pc, #32]	; 85d8 <emit+0x1b0>
    85b4:	ebffff5c 	bl	832c <printk>
    85b8:	eb000156 	bl	8b18 <clean_reboot>
    85bc:	cccccccd 	stclgt	12, cr12, [ip], {205}	; 0xcd
    85c0:	00009254 	andeq	r9, r0, r4, asr r2
    85c4:	00009260 	andeq	r9, r0, r0, ror #4
    85c8:	00009274 	andeq	r9, r0, r4, ror r2
    85cc:	00009250 	andeq	r9, r0, r0, asr r2
    85d0:	00009380 	andeq	r9, r0, r0, lsl #7
    85d4:	0000923c 	andeq	r9, r0, ip, lsr r2
    85d8:	00009100 	andeq	r9, r0, r0, lsl #2

000085dc <rpi_set_output>:
    85dc:	e3500000 	cmp	r0, #0, 0
    85e0:	0a000006 	beq	8600 <rpi_set_output+0x24>
    85e4:	e59f303c 	ldr	r3, [pc, #60]	; 8628 <rpi_set_output+0x4c>
    85e8:	e5830000 	str	r0, [r3]
    85ec:	e3510000 	cmp	r1, #0, 0
    85f0:	012fff1e 	bxeq	lr
    85f4:	e59f3030 	ldr	r3, [pc, #48]	; 862c <rpi_set_output+0x50>
    85f8:	e5831000 	str	r1, [r3]
    85fc:	e12fff1e 	bx	lr
    8600:	e52de004 	push	{lr}		; (str lr, [sp, #-4]!)
    8604:	e24dd00c 	sub	sp, sp, #12, 0
    8608:	e59f3020 	ldr	r3, [pc, #32]	; 8630 <rpi_set_output+0x54>
    860c:	e58d3000 	str	r3, [sp]
    8610:	e3a03020 	mov	r3, #32, 0
    8614:	e59f2018 	ldr	r2, [pc, #24]	; 8634 <rpi_set_output+0x58>
    8618:	e59f1018 	ldr	r1, [pc, #24]	; 8638 <rpi_set_output+0x5c>
    861c:	e59f0018 	ldr	r0, [pc, #24]	; 863c <rpi_set_output+0x60>
    8620:	ebffff41 	bl	832c <printk>
    8624:	eb00013b 	bl	8b18 <clean_reboot>
    8628:	000099bc 			; <UNDEFINED> instruction: 0x000099bc
    862c:	000099b8 			; <UNDEFINED> instruction: 0x000099b8
    8630:	00009278 	andeq	r9, r0, r8, ror r2
    8634:	00009388 	andeq	r9, r0, r8, lsl #7
    8638:	0000923c 	andeq	r9, r0, ip, lsr r2
    863c:	00009100 	andeq	r9, r0, r0, lsl #2

00008640 <va_printk>:
    8640:	e92d4ff0 	push	{r4, r5, r6, r7, r8, r9, sl, fp, lr}
    8644:	e24ddf45 	sub	sp, sp, #276	; 0x114
    8648:	e1a09000 	mov	r9, r0
    864c:	e58d2008 	str	r2, [sp, #8]
    8650:	e58d300c 	str	r3, [sp, #12]
    8654:	e2411001 	sub	r1, r1, #1, 0
    8658:	e0808001 	add	r8, r0, r1
    865c:	e3a03000 	mov	r3, #0, 0
    8660:	e5c03000 	strb	r3, [r0]
    8664:	e1a04000 	mov	r4, r0
    8668:	e1a06002 	mov	r6, r2
    866c:	ea000001 	b	8678 <va_printk+0x38>
    8670:	e2866001 	add	r6, r6, #1, 0
    8674:	e4c43001 	strb	r3, [r4], #1
    8678:	e5d63000 	ldrb	r3, [r6]
    867c:	e3530000 	cmp	r3, #0, 0
    8680:	0a000108 	beq	8aa8 <va_printk+0x468>
    8684:	e1540008 	cmp	r4, r8
    8688:	2a000106 	bcs	8aa8 <va_printk+0x468>
    868c:	e3530025 	cmp	r3, #37, 0	; 0x25
    8690:	1afffff6 	bne	8670 <va_printk+0x30>
    8694:	e5d62001 	ldrb	r2, [r6, #1]
    8698:	e3520025 	cmp	r2, #37, 0	; 0x25
    869c:	04c43001 	strbeq	r3, [r4], #1
    86a0:	02866002 	addeq	r6, r6, #2, 0
    86a4:	0afffff3 	beq	8678 <va_printk+0x38>
    86a8:	e2866001 	add	r6, r6, #1, 0
    86ac:	e3a05000 	mov	r5, #0, 0
    86b0:	e5d67000 	ldrb	r7, [r6]
    86b4:	e1a0a007 	mov	sl, r7
    86b8:	e1a00007 	mov	r0, r7
    86bc:	ebffff3d 	bl	83b8 <isdigit>
    86c0:	e3500000 	cmp	r0, #0, 0
    86c4:	0a000004 	beq	86dc <va_printk+0x9c>
    86c8:	e0855105 	add	r5, r5, r5, lsl #2
    86cc:	e0875085 	add	r5, r7, r5, lsl #1
    86d0:	e2455030 	sub	r5, r5, #48, 0	; 0x30
    86d4:	e2866001 	add	r6, r6, #1, 0
    86d8:	eafffff4 	b	86b0 <va_printk+0x70>
    86dc:	e355001f 	cmp	r5, #31, 0
    86e0:	8a00001a 	bhi	8750 <va_printk+0x110>
    86e4:	e2477062 	sub	r7, r7, #98, 0	; 0x62
    86e8:	e3570016 	cmp	r7, #22, 0
    86ec:	979ff107 	ldrls	pc, [pc, r7, lsl #2]
    86f0:	ea0000d4 	b	8a48 <va_printk+0x408>
    86f4:	000089cc 	andeq	r8, r0, ip, asr #19
    86f8:	00008a14 	andeq	r8, r0, r4, lsl sl
    86fc:	0000892c 	andeq	r8, r0, ip, lsr #18
    8700:	00008a48 	andeq	r8, r0, r8, asr #20
    8704:	00008914 	andeq	r8, r0, r4, lsl r9
    8708:	00008a48 	andeq	r8, r0, r8, asr #20
    870c:	00008a48 	andeq	r8, r0, r8, asr #20
    8710:	00008a48 	andeq	r8, r0, r8, asr #20
    8714:	00008a48 	andeq	r8, r0, r8, asr #20
    8718:	00008a48 	andeq	r8, r0, r8, asr #20
    871c:	00008770 	andeq	r8, r0, r0, ror r7
    8720:	00008a48 	andeq	r8, r0, r8, asr #20
    8724:	00008a48 	andeq	r8, r0, r8, asr #20
    8728:	00008a48 	andeq	r8, r0, r8, asr #20
    872c:	00008998 	muleq	r0, r8, r9
    8730:	00008a48 	andeq	r8, r0, r8, asr #20
    8734:	00008a48 	andeq	r8, r0, r8, asr #20
    8738:	00008a00 	andeq	r8, r0, r0, lsl #20
    873c:	00008a48 	andeq	r8, r0, r8, asr #20
    8740:	00008964 	andeq	r8, r0, r4, ror #18
    8744:	00008a48 	andeq	r8, r0, r8, asr #20
    8748:	00008a48 	andeq	r8, r0, r8, asr #20
    874c:	00008998 	muleq	r0, r8, r9
    8750:	e59f3364 	ldr	r3, [pc, #868]	; 8abc <va_printk+0x47c>
    8754:	e58d3000 	str	r3, [sp]
    8758:	e3a03098 	mov	r3, #152, 0	; 0x98
    875c:	e59f235c 	ldr	r2, [pc, #860]	; 8ac0 <va_printk+0x480>
    8760:	e59f135c 	ldr	r1, [pc, #860]	; 8ac4 <va_printk+0x484>
    8764:	e59f035c 	ldr	r0, [pc, #860]	; 8ac8 <va_printk+0x488>
    8768:	ebfffeef 	bl	832c <printk>
    876c:	eb0000e9 	bl	8b18 <clean_reboot>
    8770:	e3a02003 	mov	r2, #3, 0
    8774:	e59f1350 	ldr	r1, [pc, #848]	; 8acc <va_printk+0x48c>
    8778:	e1a00006 	mov	r0, r6
    877c:	eb000239 	bl	9068 <strncmp>
    8780:	e3500000 	cmp	r0, #0, 0
    8784:	0a000005 	beq	87a0 <va_printk+0x160>
    8788:	e3a02003 	mov	r2, #3, 0
    878c:	e59f133c 	ldr	r1, [pc, #828]	; 8ad0 <va_printk+0x490>
    8790:	e1a00006 	mov	r0, r6
    8794:	eb000233 	bl	9068 <strncmp>
    8798:	e3500000 	cmp	r0, #0, 0
    879c:	1a000033 	bne	8870 <va_printk+0x230>
    87a0:	e286b002 	add	fp, r6, #2, 0
    87a4:	e59d300c 	ldr	r3, [sp, #12]
    87a8:	e2833007 	add	r3, r3, #7, 0
    87ac:	e3c33007 	bic	r3, r3, #7, 0
    87b0:	e2832008 	add	r2, r3, #8, 0
    87b4:	e58d200c 	str	r2, [sp, #12]
    87b8:	e593a000 	ldr	sl, [r3]
    87bc:	e5937004 	ldr	r7, [r3, #4]
    87c0:	e1a01007 	mov	r1, r7
    87c4:	e59f0308 	ldr	r0, [pc, #776]	; 8ad4 <va_printk+0x494>
    87c8:	ebfffed7 	bl	832c <printk>
    87cc:	e1a0100a 	mov	r1, sl
    87d0:	e59f0300 	ldr	r0, [pc, #768]	; 8ad8 <va_printk+0x498>
    87d4:	ebfffed4 	bl	832c <printk>
    87d8:	e3a02003 	mov	r2, #3, 0
    87dc:	e59f12e8 	ldr	r1, [pc, #744]	; 8acc <va_printk+0x48c>
    87e0:	e1a00006 	mov	r0, r6
    87e4:	eb00021f 	bl	9068 <strncmp>
    87e8:	e3500000 	cmp	r0, #0, 0
    87ec:	0a000027 	beq	8890 <va_printk+0x250>
    87f0:	e3a02003 	mov	r2, #3, 0
    87f4:	e59f12d4 	ldr	r1, [pc, #724]	; 8ad0 <va_printk+0x490>
    87f8:	e1a00006 	mov	r0, r6
    87fc:	eb000219 	bl	9068 <strncmp>
    8800:	e3500000 	cmp	r0, #0, 0
    8804:	1a00003b 	bne	88f8 <va_printk+0x2b8>
    8808:	e3a06000 	mov	r6, #0, 0
    880c:	e58d6004 	str	r6, [sp, #4]
    8810:	e58d5000 	str	r5, [sp]
    8814:	e1a03007 	mov	r3, r7
    8818:	e3a02080 	mov	r2, #128, 0	; 0x80
    881c:	e28d1010 	add	r1, sp, #16, 0
    8820:	e3a0000a 	mov	r0, #10, 0
    8824:	ebfffeff 	bl	8428 <emit>
    8828:	e1a07000 	mov	r7, r0
    882c:	e58d6004 	str	r6, [sp, #4]
    8830:	e58d5000 	str	r5, [sp]
    8834:	e1a0300a 	mov	r3, sl
    8838:	e3a02080 	mov	r2, #128, 0	; 0x80
    883c:	e28d1090 	add	r1, sp, #144, 0	; 0x90
    8840:	e3a0000a 	mov	r0, #10, 0
    8844:	ebfffef7 	bl	8428 <emit>
    8848:	e59f128c 	ldr	r1, [pc, #652]	; 8adc <va_printk+0x49c>
    884c:	e28d0010 	add	r0, sp, #16, 0
    8850:	eb0001f1 	bl	901c <strcmp>
    8854:	e1500006 	cmp	r0, r6
    8858:	1a000021 	bne	88e4 <va_printk+0x2a4>
    885c:	e28d1090 	add	r1, sp, #144, 0	; 0x90
    8860:	e28d0010 	add	r0, sp, #16, 0
    8864:	eb0001f7 	bl	9048 <strcpy>
    8868:	e1a0600b 	mov	r6, fp
    886c:	ea00003a 	b	895c <va_printk+0x31c>
    8870:	e59f3268 	ldr	r3, [pc, #616]	; 8ae0 <va_printk+0x4a0>
    8874:	e58d3000 	str	r3, [sp]
    8878:	e3a0309f 	mov	r3, #159, 0	; 0x9f
    887c:	e59f223c 	ldr	r2, [pc, #572]	; 8ac0 <va_printk+0x480>
    8880:	e59f123c 	ldr	r1, [pc, #572]	; 8ac4 <va_printk+0x484>
    8884:	e59f023c 	ldr	r0, [pc, #572]	; 8ac8 <va_printk+0x488>
    8888:	ebfffea7 	bl	832c <printk>
    888c:	eb0000a1 	bl	8b18 <clean_reboot>
    8890:	e3a06000 	mov	r6, #0, 0
    8894:	e58d6004 	str	r6, [sp, #4]
    8898:	e58d5000 	str	r5, [sp]
    889c:	e1a03007 	mov	r3, r7
    88a0:	e3a02080 	mov	r2, #128, 0	; 0x80
    88a4:	e28d1010 	add	r1, sp, #16, 0
    88a8:	e3a00010 	mov	r0, #16, 0
    88ac:	ebfffedd 	bl	8428 <emit>
    88b0:	e1a07000 	mov	r7, r0
    88b4:	e58d6004 	str	r6, [sp, #4]
    88b8:	e58d5000 	str	r5, [sp]
    88bc:	e1a0300a 	mov	r3, sl
    88c0:	e3a02080 	mov	r2, #128, 0	; 0x80
    88c4:	e28d1090 	add	r1, sp, #144, 0	; 0x90
    88c8:	e3a00010 	mov	r0, #16, 0
    88cc:	ebfffed5 	bl	8428 <emit>
    88d0:	e28d1092 	add	r1, sp, #146, 0	; 0x92
    88d4:	e28d0010 	add	r0, sp, #16, 0
    88d8:	eb0001c2 	bl	8fe8 <strcat>
    88dc:	e1a0600b 	mov	r6, fp
    88e0:	ea00001d 	b	895c <va_printk+0x31c>
    88e4:	e28d1090 	add	r1, sp, #144, 0	; 0x90
    88e8:	e28d0010 	add	r0, sp, #16, 0
    88ec:	eb0001bd 	bl	8fe8 <strcat>
    88f0:	e1a0600b 	mov	r6, fp
    88f4:	ea000018 	b	895c <va_printk+0x31c>
    88f8:	e58d6000 	str	r6, [sp]
    88fc:	e3a030b6 	mov	r3, #182, 0	; 0xb6
    8900:	e59f21b8 	ldr	r2, [pc, #440]	; 8ac0 <va_printk+0x480>
    8904:	e59f11b8 	ldr	r1, [pc, #440]	; 8ac4 <va_printk+0x484>
    8908:	e59f01d4 	ldr	r0, [pc, #468]	; 8ae4 <va_printk+0x4a4>
    890c:	ebfffe86 	bl	832c <printk>
    8910:	eb000080 	bl	8b18 <clean_reboot>
    8914:	e3a030be 	mov	r3, #190, 0	; 0xbe
    8918:	e59f21a0 	ldr	r2, [pc, #416]	; 8ac0 <va_printk+0x480>
    891c:	e59f11a0 	ldr	r1, [pc, #416]	; 8ac4 <va_printk+0x484>
    8920:	e59f01c0 	ldr	r0, [pc, #448]	; 8ae8 <va_printk+0x4a8>
    8924:	ebfffe80 	bl	832c <printk>
    8928:	eb00007a 	bl	8b18 <clean_reboot>
    892c:	e59d300c 	ldr	r3, [sp, #12]
    8930:	e2832004 	add	r2, r3, #4, 0
    8934:	e58d200c 	str	r2, [sp, #12]
    8938:	e5933000 	ldr	r3, [r3]
    893c:	e3a02001 	mov	r2, #1, 0
    8940:	e58d2004 	str	r2, [sp, #4]
    8944:	e58d5000 	str	r5, [sp]
    8948:	e3a02080 	mov	r2, #128, 0	; 0x80
    894c:	e28d1010 	add	r1, sp, #16, 0
    8950:	e3a0000a 	mov	r0, #10, 0
    8954:	ebfffeb3 	bl	8428 <emit>
    8958:	e1a07000 	mov	r7, r0
    895c:	e2866001 	add	r6, r6, #1, 0
    8960:	ea00004a 	b	8a90 <va_printk+0x450>
    8964:	e59d300c 	ldr	r3, [sp, #12]
    8968:	e2832004 	add	r2, r3, #4, 0
    896c:	e58d200c 	str	r2, [sp, #12]
    8970:	e5933000 	ldr	r3, [r3]
    8974:	e3a02000 	mov	r2, #0, 0
    8978:	e58d2004 	str	r2, [sp, #4]
    897c:	e58d5000 	str	r5, [sp]
    8980:	e3a02080 	mov	r2, #128, 0	; 0x80
    8984:	e28d1010 	add	r1, sp, #16, 0
    8988:	e3a0000a 	mov	r0, #10, 0
    898c:	ebfffea5 	bl	8428 <emit>
    8990:	e1a07000 	mov	r7, r0
    8994:	eafffff0 	b	895c <va_printk+0x31c>
    8998:	e59d300c 	ldr	r3, [sp, #12]
    899c:	e2832004 	add	r2, r3, #4, 0
    89a0:	e58d200c 	str	r2, [sp, #12]
    89a4:	e5933000 	ldr	r3, [r3]
    89a8:	e3a02000 	mov	r2, #0, 0
    89ac:	e58d2004 	str	r2, [sp, #4]
    89b0:	e58d5000 	str	r5, [sp]
    89b4:	e3a02080 	mov	r2, #128, 0	; 0x80
    89b8:	e28d1010 	add	r1, sp, #16, 0
    89bc:	e3a00010 	mov	r0, #16, 0
    89c0:	ebfffe98 	bl	8428 <emit>
    89c4:	e1a07000 	mov	r7, r0
    89c8:	eaffffe3 	b	895c <va_printk+0x31c>
    89cc:	e59d300c 	ldr	r3, [sp, #12]
    89d0:	e2832004 	add	r2, r3, #4, 0
    89d4:	e58d200c 	str	r2, [sp, #12]
    89d8:	e5933000 	ldr	r3, [r3]
    89dc:	e3a02000 	mov	r2, #0, 0
    89e0:	e58d2004 	str	r2, [sp, #4]
    89e4:	e58d5000 	str	r5, [sp]
    89e8:	e3a02080 	mov	r2, #128, 0	; 0x80
    89ec:	e28d1010 	add	r1, sp, #16, 0
    89f0:	e3a00002 	mov	r0, #2, 0
    89f4:	ebfffe8b 	bl	8428 <emit>
    89f8:	e1a07000 	mov	r7, r0
    89fc:	eaffffd6 	b	895c <va_printk+0x31c>
    8a00:	e59d300c 	ldr	r3, [sp, #12]
    8a04:	e2832004 	add	r2, r3, #4, 0
    8a08:	e58d200c 	str	r2, [sp, #12]
    8a0c:	e5937000 	ldr	r7, [r3]
    8a10:	eaffffd1 	b	895c <va_printk+0x31c>
    8a14:	e59d300c 	ldr	r3, [sp, #12]
    8a18:	e2832004 	add	r2, r3, #4, 0
    8a1c:	e58d200c 	str	r2, [sp, #12]
    8a20:	e5933000 	ldr	r3, [r3]
    8a24:	e3a02000 	mov	r2, #0, 0
    8a28:	e58d2004 	str	r2, [sp, #4]
    8a2c:	e58d5000 	str	r5, [sp]
    8a30:	e3a02080 	mov	r2, #128, 0	; 0x80
    8a34:	e28d1010 	add	r1, sp, #16, 0
    8a38:	e3a00008 	mov	r0, #8, 0
    8a3c:	ebfffe79 	bl	8428 <emit>
    8a40:	e1a07000 	mov	r7, r0
    8a44:	eaffffc4 	b	895c <va_printk+0x31c>
    8a48:	e3a03000 	mov	r3, #0, 0
    8a4c:	e5c63001 	strb	r3, [r6, #1]
    8a50:	e1a0200a 	mov	r2, sl
    8a54:	e1a0100a 	mov	r1, sl
    8a58:	e59f008c 	ldr	r0, [pc, #140]	; 8aec <va_printk+0x4ac>
    8a5c:	ebfffe32 	bl	832c <printk>
    8a60:	e59f3088 	ldr	r3, [pc, #136]	; 8af0 <va_printk+0x4b0>
    8a64:	e5933000 	ldr	r3, [r3]
    8a68:	e59d0008 	ldr	r0, [sp, #8]
    8a6c:	e12fff33 	blx	r3
    8a70:	e3a030e2 	mov	r3, #226, 0	; 0xe2
    8a74:	e59f2044 	ldr	r2, [pc, #68]	; 8ac0 <va_printk+0x480>
    8a78:	e59f1044 	ldr	r1, [pc, #68]	; 8ac4 <va_printk+0x484>
    8a7c:	e59f0070 	ldr	r0, [pc, #112]	; 8af4 <va_printk+0x4b4>
    8a80:	ebfffe29 	bl	832c <printk>
    8a84:	eb000023 	bl	8b18 <clean_reboot>
    8a88:	e2877001 	add	r7, r7, #1, 0
    8a8c:	e4c43001 	strb	r3, [r4], #1
    8a90:	e1540008 	cmp	r4, r8
    8a94:	2afffef7 	bcs	8678 <va_printk+0x38>
    8a98:	e5d73000 	ldrb	r3, [r7]
    8a9c:	e3530000 	cmp	r3, #0, 0
    8aa0:	1afffff8 	bne	8a88 <va_printk+0x448>
    8aa4:	eafffef3 	b	8678 <va_printk+0x38>
    8aa8:	e3a03000 	mov	r3, #0, 0
    8aac:	e4c43001 	strb	r3, [r4], #1
    8ab0:	e0440009 	sub	r0, r4, r9
    8ab4:	e28ddf45 	add	sp, sp, #276	; 0x114
    8ab8:	e8bd8ff0 	pop	{r4, r5, r6, r7, r8, r9, sl, fp, pc}
    8abc:	00009280 	andeq	r9, r0, r0, lsl #5
    8ac0:	00009398 	muleq	r0, r8, r3
    8ac4:	0000923c 	andeq	r9, r0, ip, lsr r2
    8ac8:	00009100 	andeq	r9, r0, r0, lsl #2
    8acc:	0000928c 	andeq	r9, r0, ip, lsl #5
    8ad0:	00009290 	muleq	r0, r0, r2
    8ad4:	00009294 	muleq	r0, r4, r2
    8ad8:	0000929c 	muleq	r0, ip, r2
    8adc:	00009250 	andeq	r9, r0, r0, asr r2
    8ae0:	000092a4 	andeq	r9, r0, r4, lsr #5
    8ae4:	000092e0 	andeq	r9, r0, r0, ror #5
    8ae8:	00009308 	andeq	r9, r0, r8, lsl #6
    8aec:	00009330 	andeq	r9, r0, r0, lsr r3
    8af0:	000099b8 			; <UNDEFINED> instruction: 0x000099b8
    8af4:	00009360 	andeq	r9, r0, r0, ror #6

00008af8 <enable_cache>:
    8af8:	ee113f10 	mrc	15, 0, r3, cr1, cr0, {0}
    8afc:	e3833b06 	orr	r3, r3, #6144	; 0x1800
    8b00:	ee013f10 	mcr	15, 0, r3, cr1, cr0, {0}
    8b04:	e12fff1e 	bx	lr

00008b08 <disable_cache>:
    8b08:	ee113f10 	mrc	15, 0, r3, cr1, cr0, {0}
    8b0c:	e3c33b06 	bic	r3, r3, #6144	; 0x1800
    8b10:	ee013f10 	mcr	15, 0, r3, cr1, cr0, {0}
    8b14:	e12fff1e 	bx	lr

00008b18 <clean_reboot>:
    8b18:	e92d4010 	push	{r4, lr}
    8b1c:	e59f3018 	ldr	r3, [pc, #24]	; 8b3c <clean_reboot+0x24>
    8b20:	e5933000 	ldr	r3, [r3]
    8b24:	e59f0014 	ldr	r0, [pc, #20]	; 8b40 <clean_reboot+0x28>
    8b28:	e12fff33 	blx	r3
    8b2c:	eb000110 	bl	8f74 <uart_flush_tx>
    8b30:	e3a0000a 	mov	r0, #10, 0
    8b34:	eb00004d 	bl	8c70 <delay_ms>
    8b38:	eb000022 	bl	8bc8 <rpi_reboot>
    8b3c:	000099b8 			; <UNDEFINED> instruction: 0x000099b8
    8b40:	000093a4 	andeq	r9, r0, r4, lsr #7

00008b44 <_cstart>:
    8b44:	e92d4010 	push	{r4, lr}
    8b48:	eb00000c 	bl	8b80 <custom_loader>
    8b4c:	e59f3024 	ldr	r3, [pc, #36]	; 8b78 <_cstart+0x34>
    8b50:	e59f2024 	ldr	r2, [pc, #36]	; 8b7c <_cstart+0x38>
    8b54:	e1530002 	cmp	r3, r2
    8b58:	33a02000 	movcc	r2, #0, 0
    8b5c:	34832004 	strcc	r2, [r3], #4
    8b60:	3afffffa 	bcc	8b50 <_cstart+0xc>
    8b64:	eb0000a4 	bl	8dfc <uart_init>
    8b68:	e3a03001 	mov	r3, #1, 0
    8b6c:	ee0f3f1c 	mcr	15, 0, r3, cr15, cr12, {0}
    8b70:	ebfffd30 	bl	8038 <notmain>
    8b74:	ebffffe7 	bl	8b18 <clean_reboot>
    8b78:	000099c0 	andeq	r9, r0, r0, asr #19
    8b7c:	00009dc0 	andeq	r9, r0, r0, asr #27

00008b80 <custom_loader>:
    8b80:	e12fff1e 	bx	lr

00008b84 <dev_barrier>:
    8b84:	ea000002 	b	8b94 <dsb>

00008b88 <dmb>:
    8b88:	e3a00000 	mov	r0, #0, 0
    8b8c:	ee070fba 	mcr	15, 0, r0, cr7, cr10, {5}
    8b90:	e12fff1e 	bx	lr

00008b94 <dsb>:
    8b94:	ee070f9a 	mcr	15, 0, r0, cr7, cr10, {4}
    8b98:	e12fff1e 	bx	lr

00008b9c <at_user_level>:
    8b9c:	e10f0000 	mrs	r0, CPSR
    8ba0:	e200001f 	and	r0, r0, #31, 0
    8ba4:	e3500010 	cmp	r0, #16, 0
    8ba8:	13a00000 	movne	r0, #0, 0
    8bac:	03a00001 	moveq	r0, #1, 0
    8bb0:	e12fff1e 	bx	lr

00008bb4 <set_user_level>:
    8bb4:	e10f3000 	mrs	r3, CPSR
    8bb8:	e3c3301f 	bic	r3, r3, #31, 0
    8bbc:	e3833010 	orr	r3, r3, #16, 0
    8bc0:	e129f003 	msr	CPSR_fc, r3
    8bc4:	e12fff1e 	bx	lr

00008bc8 <rpi_reboot>:
    8bc8:	e92d4010 	push	{r4, lr}
    8bcc:	ebfffff2 	bl	8b9c <at_user_level>
    8bd0:	e3500000 	cmp	r0, #0, 0
    8bd4:	1a00000a 	bne	8c04 <rpi_reboot+0x3c>
    8bd8:	eb00012d 	bl	9094 <reboot_callout>
    8bdc:	eb0000e4 	bl	8f74 <uart_flush_tx>
    8be0:	e3a0000a 	mov	r0, #10, 0
    8be4:	eb000021 	bl	8c70 <delay_ms>
    8be8:	e59f101c 	ldr	r1, [pc, #28]	; 8c0c <rpi_reboot+0x44>
    8bec:	e59f001c 	ldr	r0, [pc, #28]	; 8c10 <rpi_reboot+0x48>
    8bf0:	ebfffd0b 	bl	8024 <PUT32>
    8bf4:	e59f1018 	ldr	r1, [pc, #24]	; 8c14 <rpi_reboot+0x4c>
    8bf8:	e59f0018 	ldr	r0, [pc, #24]	; 8c18 <rpi_reboot+0x50>
    8bfc:	ebfffd08 	bl	8024 <PUT32>
    8c00:	eafffffe 	b	8c00 <rpi_reboot+0x38>
    8c04:	ebffffea 	bl	8bb4 <set_user_level>
    8c08:	eafffff2 	b	8bd8 <rpi_reboot+0x10>
    8c0c:	5a000001 	bpl	8c18 <rpi_reboot+0x50>
    8c10:	20100024 	andscs	r0, r0, r4, lsr #32
    8c14:	5a000020 	bpl	8c9c <delay_sec+0x14>
    8c18:	2010001c 	andscs	r0, r0, ip, lsl r0

00008c1c <timer_get_usec_raw>:
    8c1c:	e92d4010 	push	{r4, lr}
    8c20:	e59f0004 	ldr	r0, [pc, #4]	; 8c2c <timer_get_usec_raw+0x10>
    8c24:	ebfffd00 	bl	802c <GET32>
    8c28:	e8bd8010 	pop	{r4, pc}
    8c2c:	20003004 	andcs	r3, r0, r4

00008c30 <timer_get_usec>:
    8c30:	e92d4010 	push	{r4, lr}
    8c34:	ebffffd2 	bl	8b84 <dev_barrier>
    8c38:	ebfffff7 	bl	8c1c <timer_get_usec_raw>
    8c3c:	e1a04000 	mov	r4, r0
    8c40:	ebffffcf 	bl	8b84 <dev_barrier>
    8c44:	e1a00004 	mov	r0, r4
    8c48:	e8bd8010 	pop	{r4, pc}

00008c4c <delay_us>:
    8c4c:	e92d4070 	push	{r4, r5, r6, lr}
    8c50:	e1a05000 	mov	r5, r0
    8c54:	ebfffff5 	bl	8c30 <timer_get_usec>
    8c58:	e1a04000 	mov	r4, r0
    8c5c:	ebfffff3 	bl	8c30 <timer_get_usec>
    8c60:	e0400004 	sub	r0, r0, r4
    8c64:	e1500005 	cmp	r0, r5
    8c68:	3afffffb 	bcc	8c5c <delay_us+0x10>
    8c6c:	e8bd8070 	pop	{r4, r5, r6, pc}

00008c70 <delay_ms>:
    8c70:	e92d4010 	push	{r4, lr}
    8c74:	e0603280 	rsb	r3, r0, r0, lsl #5
    8c78:	e0800103 	add	r0, r0, r3, lsl #2
    8c7c:	e1a00180 	lsl	r0, r0, #3
    8c80:	ebfffff1 	bl	8c4c <delay_us>
    8c84:	e8bd8010 	pop	{r4, pc}

00008c88 <delay_sec>:
    8c88:	e92d4010 	push	{r4, lr}
    8c8c:	e0603280 	rsb	r3, r0, r0, lsl #5
    8c90:	e0800103 	add	r0, r0, r3, lsl #2
    8c94:	e1a00180 	lsl	r0, r0, #3
    8c98:	ebfffff4 	bl	8c70 <delay_ms>
    8c9c:	e8bd8010 	pop	{r4, pc}

00008ca0 <gpio_set_function>:
    8ca0:	e350001f 	cmp	r0, #31, 0
    8ca4:	812fff1e 	bxhi	lr
    8ca8:	e92d4070 	push	{r4, r5, r6, lr}
    8cac:	e1a05001 	mov	r5, r1
    8cb0:	e3d13007 	bics	r3, r1, #7, 0
    8cb4:	18bd8070 	popne	{r4, r5, r6, pc}
    8cb8:	e59f3040 	ldr	r3, [pc, #64]	; 8d00 <gpio_set_function+0x60>
    8cbc:	e0832093 	umull	r2, r3, r3, r0
    8cc0:	e1a031a3 	lsr	r3, r3, #3
    8cc4:	e1a02003 	mov	r2, r3
    8cc8:	e0833103 	add	r3, r3, r3, lsl #2
    8ccc:	e0403083 	sub	r3, r0, r3, lsl #1
    8cd0:	e0834083 	add	r4, r3, r3, lsl #1
    8cd4:	e2820302 	add	r0, r2, #134217728	; 0x8000000
    8cd8:	e2800702 	add	r0, r0, #524288	; 0x80000
    8cdc:	e1a06100 	lsl	r6, r0, #2
    8ce0:	e1a00006 	mov	r0, r6
    8ce4:	ebfffcd0 	bl	802c <GET32>
    8ce8:	e3a01007 	mov	r1, #7, 0
    8cec:	e1c01411 	bic	r1, r0, r1, lsl r4
    8cf0:	e1811415 	orr	r1, r1, r5, lsl r4
    8cf4:	e1a00006 	mov	r0, r6
    8cf8:	ebfffcc9 	bl	8024 <PUT32>
    8cfc:	e8bd8070 	pop	{r4, r5, r6, pc}
    8d00:	cccccccd 	stclgt	12, cr12, [ip], {205}	; 0xcd

00008d04 <gpio_set_output>:
    8d04:	e92d4010 	push	{r4, lr}
    8d08:	e3a01001 	mov	r1, #1, 0
    8d0c:	ebffffe3 	bl	8ca0 <gpio_set_function>
    8d10:	e8bd8010 	pop	{r4, pc}

00008d14 <gpio_set_on>:
    8d14:	e350001f 	cmp	r0, #31, 0
    8d18:	812fff1e 	bxhi	lr
    8d1c:	e92d4010 	push	{r4, lr}
    8d20:	e3a01001 	mov	r1, #1, 0
    8d24:	e1a01011 	lsl	r1, r1, r0
    8d28:	e59f0004 	ldr	r0, [pc, #4]	; 8d34 <gpio_set_on+0x20>
    8d2c:	ebfffcbc 	bl	8024 <PUT32>
    8d30:	e8bd8010 	pop	{r4, pc}
    8d34:	2020001c 	eorcs	r0, r0, ip, lsl r0

00008d38 <gpio_set_off>:
    8d38:	e350001f 	cmp	r0, #31, 0
    8d3c:	812fff1e 	bxhi	lr
    8d40:	e92d4010 	push	{r4, lr}
    8d44:	e3a01001 	mov	r1, #1, 0
    8d48:	e1a01011 	lsl	r1, r1, r0
    8d4c:	e59f0004 	ldr	r0, [pc, #4]	; 8d58 <gpio_set_off+0x20>
    8d50:	ebfffcb3 	bl	8024 <PUT32>
    8d54:	e8bd8010 	pop	{r4, pc}
    8d58:	20200028 	eorcs	r0, r0, r8, lsr #32

00008d5c <gpio_set_input>:
    8d5c:	e92d4010 	push	{r4, lr}
    8d60:	e3a01000 	mov	r1, #0, 0
    8d64:	ebffffcd 	bl	8ca0 <gpio_set_function>
    8d68:	e8bd8010 	pop	{r4, pc}

00008d6c <gpio_write>:
    8d6c:	e92d4010 	push	{r4, lr}
    8d70:	e3510000 	cmp	r1, #0, 0
    8d74:	0a000001 	beq	8d80 <gpio_write+0x14>
    8d78:	ebffffe5 	bl	8d14 <gpio_set_on>
    8d7c:	e8bd8010 	pop	{r4, pc}
    8d80:	ebffffec 	bl	8d38 <gpio_set_off>
    8d84:	e8bd8010 	pop	{r4, pc}

00008d88 <gpio_read>:
    8d88:	e350001f 	cmp	r0, #31, 0
    8d8c:	8a000007 	bhi	8db0 <gpio_read+0x28>
    8d90:	e92d4010 	push	{r4, lr}
    8d94:	e200401f 	and	r4, r0, #31, 0
    8d98:	e59f3018 	ldr	r3, [pc, #24]	; 8db8 <gpio_read+0x30>
    8d9c:	e08302a0 	add	r0, r3, r0, lsr #5
    8da0:	ebfffca1 	bl	802c <GET32>
    8da4:	e1a00430 	lsr	r0, r0, r4
    8da8:	e2000001 	and	r0, r0, #1, 0
    8dac:	e8bd8010 	pop	{r4, pc}
    8db0:	e3e00000 	mvn	r0, #0, 0
    8db4:	e12fff1e 	bx	lr
    8db8:	20200034 	eorcs	r0, r0, r4, lsr r0

00008dbc <and_in32>:
    8dbc:	e92d4070 	push	{r4, r5, r6, lr}
    8dc0:	e1a04000 	mov	r4, r0
    8dc4:	e1a05001 	mov	r5, r1
    8dc8:	ebfffc97 	bl	802c <GET32>
    8dcc:	e0001005 	and	r1, r0, r5
    8dd0:	e1a00004 	mov	r0, r4
    8dd4:	ebfffc92 	bl	8024 <PUT32>
    8dd8:	e8bd8070 	pop	{r4, r5, r6, pc}

00008ddc <or_in32>:
    8ddc:	e92d4070 	push	{r4, r5, r6, lr}
    8de0:	e1a04000 	mov	r4, r0
    8de4:	e1a05001 	mov	r5, r1
    8de8:	ebfffc8f 	bl	802c <GET32>
    8dec:	e1801005 	orr	r1, r0, r5
    8df0:	e1a00004 	mov	r0, r4
    8df4:	ebfffc8a 	bl	8024 <PUT32>
    8df8:	e8bd8070 	pop	{r4, r5, r6, pc}

00008dfc <uart_init>:
    8dfc:	e92d4010 	push	{r4, lr}
    8e00:	e3a01002 	mov	r1, #2, 0
    8e04:	e3a0000e 	mov	r0, #14, 0
    8e08:	ebffffa4 	bl	8ca0 <gpio_set_function>
    8e0c:	e3a01002 	mov	r1, #2, 0
    8e10:	e3a0000f 	mov	r0, #15, 0
    8e14:	ebffffa1 	bl	8ca0 <gpio_set_function>
    8e18:	ebffff59 	bl	8b84 <dev_barrier>
    8e1c:	e3a01001 	mov	r1, #1, 0
    8e20:	e59f0064 	ldr	r0, [pc, #100]	; 8e8c <uart_init+0x90>
    8e24:	ebffffec 	bl	8ddc <or_in32>
    8e28:	ebffff55 	bl	8b84 <dev_barrier>
    8e2c:	e59f405c 	ldr	r4, [pc, #92]	; 8e90 <uart_init+0x94>
    8e30:	e3a01000 	mov	r1, #0, 0
    8e34:	e1a00004 	mov	r0, r4
    8e38:	ebfffc79 	bl	8024 <PUT32>
    8e3c:	e3a01000 	mov	r1, #0, 0
    8e40:	e59f004c 	ldr	r0, [pc, #76]	; 8e94 <uart_init+0x98>
    8e44:	ebfffc76 	bl	8024 <PUT32>
    8e48:	e3a01003 	mov	r1, #3, 0
    8e4c:	e59f0044 	ldr	r0, [pc, #68]	; 8e98 <uart_init+0x9c>
    8e50:	ebfffc73 	bl	8024 <PUT32>
    8e54:	e3a01000 	mov	r1, #0, 0
    8e58:	e59f003c 	ldr	r0, [pc, #60]	; 8e9c <uart_init+0xa0>
    8e5c:	ebfffc70 	bl	8024 <PUT32>
    8e60:	e3a010c7 	mov	r1, #199, 0	; 0xc7
    8e64:	e59f0034 	ldr	r0, [pc, #52]	; 8ea0 <uart_init+0xa4>
    8e68:	ebfffc6d 	bl	8024 <PUT32>
    8e6c:	e59f1030 	ldr	r1, [pc, #48]	; 8ea4 <uart_init+0xa8>
    8e70:	e59f0030 	ldr	r0, [pc, #48]	; 8ea8 <uart_init+0xac>
    8e74:	ebfffc6a 	bl	8024 <PUT32>
    8e78:	e3a01003 	mov	r1, #3, 0
    8e7c:	e1a00004 	mov	r0, r4
    8e80:	ebfffc67 	bl	8024 <PUT32>
    8e84:	ebffff3e 	bl	8b84 <dev_barrier>
    8e88:	e8bd8010 	pop	{r4, pc}
    8e8c:	20215004 	eorcs	r5, r1, r4
    8e90:	20215060 	eorcs	r5, r1, r0, rrx
    8e94:	20215044 	eorcs	r5, r1, r4, asr #32
    8e98:	2021504c 	eorcs	r5, r1, ip, asr #32
    8e9c:	20215050 	eorcs	r5, r1, r0, asr r0
    8ea0:	20215048 	eorcs	r5, r1, r8, asr #32
    8ea4:	0000010e 	andeq	r0, r0, lr, lsl #2
    8ea8:	20215068 	eorcs	r5, r1, r8, rrx

00008eac <uart_can_getc>:
    8eac:	e92d4010 	push	{r4, lr}
    8eb0:	e59f0008 	ldr	r0, [pc, #8]	; 8ec0 <uart_can_getc+0x14>
    8eb4:	ebfffc5c 	bl	802c <GET32>
    8eb8:	e2000001 	and	r0, r0, #1, 0
    8ebc:	e8bd8010 	pop	{r4, pc}
    8ec0:	20215064 	eorcs	r5, r1, r4, rrx

00008ec4 <uart_can_putc>:
    8ec4:	e92d4010 	push	{r4, lr}
    8ec8:	e59f0010 	ldr	r0, [pc, #16]	; 8ee0 <uart_can_putc+0x1c>
    8ecc:	ebfffc56 	bl	802c <GET32>
    8ed0:	e3100002 	tst	r0, #2, 0
    8ed4:	13a00001 	movne	r0, #1, 0
    8ed8:	03a00000 	moveq	r0, #0, 0
    8edc:	e8bd8010 	pop	{r4, pc}
    8ee0:	20215064 	eorcs	r5, r1, r4, rrx

00008ee4 <uart_getc>:
    8ee4:	e92d4010 	push	{r4, lr}
    8ee8:	ebffff25 	bl	8b84 <dev_barrier>
    8eec:	ebffffee 	bl	8eac <uart_can_getc>
    8ef0:	e3500000 	cmp	r0, #0, 0
    8ef4:	0afffffc 	beq	8eec <uart_getc+0x8>
    8ef8:	e59f0010 	ldr	r0, [pc, #16]	; 8f10 <uart_getc+0x2c>
    8efc:	ebfffc4a 	bl	802c <GET32>
    8f00:	e6ef4070 	uxtb	r4, r0
    8f04:	ebffff1e 	bl	8b84 <dev_barrier>
    8f08:	e1a00004 	mov	r0, r4
    8f0c:	e8bd8010 	pop	{r4, pc}
    8f10:	20215040 	eorcs	r5, r1, r0, asr #32

00008f14 <uart_putc>:
    8f14:	e92d4010 	push	{r4, lr}
    8f18:	e1a04000 	mov	r4, r0
    8f1c:	ebffff18 	bl	8b84 <dev_barrier>
    8f20:	ebffffe7 	bl	8ec4 <uart_can_putc>
    8f24:	e3500000 	cmp	r0, #0, 0
    8f28:	0afffffc 	beq	8f20 <uart_putc+0xc>
    8f2c:	e6ef1074 	uxtb	r1, r4
    8f30:	e59f0008 	ldr	r0, [pc, #8]	; 8f40 <uart_putc+0x2c>
    8f34:	ebfffc3a 	bl	8024 <PUT32>
    8f38:	ebffff11 	bl	8b84 <dev_barrier>
    8f3c:	e8bd8010 	pop	{r4, pc}
    8f40:	20215040 	eorcs	r5, r1, r0, asr #32

00008f44 <uart_has_data>:
    8f44:	e92d4010 	push	{r4, lr}
    8f48:	ebffff0d 	bl	8b84 <dev_barrier>
    8f4c:	ebffffd6 	bl	8eac <uart_can_getc>
    8f50:	e8bd8010 	pop	{r4, pc}

00008f54 <uart_tx_is_empty>:
    8f54:	e92d4010 	push	{r4, lr}
    8f58:	ebffff09 	bl	8b84 <dev_barrier>
    8f5c:	e59f000c 	ldr	r0, [pc, #12]	; 8f70 <uart_tx_is_empty+0x1c>
    8f60:	ebfffc31 	bl	802c <GET32>
    8f64:	e1a004a0 	lsr	r0, r0, #9
    8f68:	e2000001 	and	r0, r0, #1, 0
    8f6c:	e8bd8010 	pop	{r4, pc}
    8f70:	20215064 	eorcs	r5, r1, r4, rrx

00008f74 <uart_flush_tx>:
    8f74:	e92d4010 	push	{r4, lr}
    8f78:	ebfffff5 	bl	8f54 <uart_tx_is_empty>
    8f7c:	e3500000 	cmp	r0, #0, 0
    8f80:	0afffffc 	beq	8f78 <uart_flush_tx+0x4>
    8f84:	e8bd8010 	pop	{r4, pc}

00008f88 <uart_disable>:
    8f88:	e92d4010 	push	{r4, lr}
    8f8c:	ebfffff8 	bl	8f74 <uart_flush_tx>
    8f90:	ebfffefb 	bl	8b84 <dev_barrier>
    8f94:	e3e01001 	mvn	r1, #1, 0
    8f98:	e59f0008 	ldr	r0, [pc, #8]	; 8fa8 <uart_disable+0x20>
    8f9c:	ebffff86 	bl	8dbc <and_in32>
    8fa0:	ebfffef7 	bl	8b84 <dev_barrier>
    8fa4:	e8bd8010 	pop	{r4, pc}
    8fa8:	20215004 	eorcs	r5, r1, r4

00008fac <internal_putchar>:
    8fac:	e92d4010 	push	{r4, lr}
    8fb0:	e1a04000 	mov	r4, r0
    8fb4:	ebffffd6 	bl	8f14 <uart_putc>
    8fb8:	e1a00004 	mov	r0, r4
    8fbc:	e8bd8010 	pop	{r4, pc}

00008fc0 <rpi_reset_putc>:
    8fc0:	e59f3008 	ldr	r3, [pc, #8]	; 8fd0 <rpi_reset_putc+0x10>
    8fc4:	e59f2008 	ldr	r2, [pc, #8]	; 8fd4 <rpi_reset_putc+0x14>
    8fc8:	e5832000 	str	r2, [r3]
    8fcc:	e12fff1e 	bx	lr
    8fd0:	000099bc 			; <UNDEFINED> instruction: 0x000099bc
    8fd4:	00008fac 	andeq	r8, r0, ip, lsr #31

00008fd8 <rpi_set_putc>:
    8fd8:	e59f3004 	ldr	r3, [pc, #4]	; 8fe4 <rpi_set_putc+0xc>
    8fdc:	e5830000 	str	r0, [r3]
    8fe0:	e12fff1e 	bx	lr
    8fe4:	000099bc 			; <UNDEFINED> instruction: 0x000099bc

00008fe8 <strcat>:
    8fe8:	e1a02000 	mov	r2, r0
    8fec:	e1a03002 	mov	r3, r2
    8ff0:	e2822001 	add	r2, r2, #1, 0
    8ff4:	e5d3c000 	ldrb	ip, [r3]
    8ff8:	e35c0000 	cmp	ip, #0, 0
    8ffc:	1afffffa 	bne	8fec <strcat+0x4>
    9000:	e2433001 	sub	r3, r3, #1, 0
    9004:	e5d12000 	ldrb	r2, [r1]
    9008:	e2811001 	add	r1, r1, #1, 0
    900c:	e5e32001 	strb	r2, [r3, #1]!
    9010:	e3520000 	cmp	r2, #0, 0
    9014:	1afffffa 	bne	9004 <strcat+0x1c>
    9018:	e12fff1e 	bx	lr

0000901c <strcmp>:
    901c:	e5d03000 	ldrb	r3, [r0]
    9020:	e3530000 	cmp	r3, #0, 0
    9024:	0a000004 	beq	903c <strcmp+0x20>
    9028:	e5d12000 	ldrb	r2, [r1]
    902c:	e1530002 	cmp	r3, r2
    9030:	02800001 	addeq	r0, r0, #1, 0
    9034:	02811001 	addeq	r1, r1, #1, 0
    9038:	0afffff7 	beq	901c <strcmp>
    903c:	e5d10000 	ldrb	r0, [r1]
    9040:	e0430000 	sub	r0, r3, r0
    9044:	e12fff1e 	bx	lr

00009048 <strcpy>:
    9048:	e1a0c000 	mov	ip, r0
    904c:	e5d12000 	ldrb	r2, [r1]
    9050:	e2811001 	add	r1, r1, #1, 0
    9054:	e5cc2000 	strb	r2, [ip]
    9058:	e28cc001 	add	ip, ip, #1, 0
    905c:	e3520000 	cmp	r2, #0, 0
    9060:	1afffff9 	bne	904c <strcpy+0x4>
    9064:	e12fff1e 	bx	lr

00009068 <strncmp>:
    9068:	e3520000 	cmp	r2, #0, 0
    906c:	e2422001 	sub	r2, r2, #1, 0
    9070:	0a000005 	beq	908c <strncmp+0x24>
    9074:	e4d03001 	ldrb	r3, [r0], #1
    9078:	e4d1c001 	ldrb	ip, [r1], #1
    907c:	e153000c 	cmp	r3, ip
    9080:	0afffff8 	beq	9068 <strncmp>
    9084:	e043000c 	sub	r0, r3, ip
    9088:	e12fff1e 	bx	lr
    908c:	e3a00000 	mov	r0, #0, 0
    9090:	e12fff1e 	bx	lr

00009094 <reboot_callout>:
    9094:	e12fff1e 	bx	lr

Disassembly of section .rodata:

00009098 <__FUNCTION__.3985-0xc0>:
    9098:	25207825 	strcs	r7, [r0, #-2085]!	; 0xfffff7db
    909c:	00000a64 	andeq	r0, r0, r4, ror #20
    90a0:	656e6f64 	strbvs	r6, [lr, #-3940]!	; 0xfffff09c
    90a4:	00000a21 	andeq	r0, r0, r1, lsr #20
    90a8:	6573552f 	ldrbvs	r5, [r3, #-1327]!	; 0xfffffad1
    90ac:	6a2f7372 	bvs	be5e7c <__bss_end__+0xbdc0bc>
    90b0:	65696d61 	strbvs	r6, [r9, #-3425]!	; 0xfffff29f
    90b4:	636f442f 	cmnvs	pc, #788529152	; 0x2f000000
    90b8:	6e656d75 	mcrvs	13, 3, r6, cr5, cr5, {3}
    90bc:	432f7374 			; <UNDEFINED> instruction: 0x432f7374
    90c0:	30343153 	eorscc	r3, r4, r3, asr r1
    90c4:	73632f45 	cmnvc	r3, #276	; 0x114
    90c8:	45303431 	ldrmi	r3, [r0, #-1073]!	; 0xfffffbcf
    90cc:	6e69662d 	cdpvs	6, 6, cr6, cr9, cr13, {1}
    90d0:	702d6c61 	eorvc	r6, sp, r1, ror #24
    90d4:	656a6f72 	strbvs	r6, [sl, #-3954]!	; 0xfffff08e
    90d8:	6c2f7463 	cfstrsvs	mvf7, [pc], #-396	; 8f54 <uart_tx_is_empty>
    90dc:	2d736269 	lfmcs	f6, 2, [r3, #-420]!	; 0xfffffe5c
    90e0:	6c303432 	cfldrsvs	mvf3, [r0], #-200	; 0xffffff38
    90e4:	696c2f78 	stmdbvs	ip!, {r3, r4, r5, r6, r8, r9, sl, fp, sp}^
    90e8:	2f697062 	svccs	0x00697062
    90ec:	6362696c 	cmnvs	r2, #108, 18	; 0x1b0000
    90f0:	7469622f 	strbtvc	r6, [r9], #-559	; 0xfffffdd1
    90f4:	7075732d 	rsbsvc	r7, r5, sp, lsr #6
    90f8:	74726f70 	ldrbtvc	r6, [r2], #-3952	; 0xfffff090
    90fc:	0000682e 	andeq	r6, r0, lr, lsr #16
    9100:	494e4150 	stmdbmi	lr, {r4, r6, r8, lr}^
    9104:	73253a43 			; <UNDEFINED> instruction: 0x73253a43
    9108:	3a73253a 	bcc	1cd25f8 <__bss_end__+0x1cc8838>
    910c:	253a6425 	ldrcs	r6, [sl, #-1061]!	; 0xfffffbdb
    9110:	00000a73 	andeq	r0, r0, r3, ror sl
    9114:	74696228 	strbtvc	r6, [r9], #-552	; 0xfffffdd8
    9118:	616d5f73 	smcvs	54771	; 0xd5f3
    911c:	6e286b73 	vmovvs.16	d8[3], r6
    9120:	20262029 	eorcs	r2, r6, r9, lsr #32
    9124:	3d202976 			; <UNDEFINED> instruction: 0x3d202976
    9128:	0076203d 	rsbseq	r2, r6, sp, lsr r0
    912c:	2e733269 	cdpcs	2, 7, cr3, cr3, cr9, {3}
    9130:	00000063 	andeq	r0, r0, r3, rrx
    9134:	5f746962 	svcpl	0x00746962
    9138:	6f5f7369 	svcvs	0x005f7369
    913c:	47286666 	strmi	r6, [r8, -r6, ror #12]!
    9140:	32335445 	eorscc	r5, r3, #1157627904	; 0x45000000
    9144:	5f534328 	svcpl	0x00534328
    9148:	202c2941 	eorcs	r2, ip, r1, asr #18
    914c:	5f533249 	svcpl	0x00533249
    9150:	455f5343 	ldrbmi	r5, [pc, #-835]	; 8e15 <uart_init+0x19>
    9154:	0000294e 	andeq	r2, r0, lr, asr #18

00009158 <__FUNCTION__.3985>:
    9158:	73746962 	cmnvc	r4, #1605632	; 0x188000
    915c:	7465735f 	strbtvc	r7, [r5], #-863	; 0xfffffca1
    9160:	00000000 	andeq	r0, r0, r0

00009164 <__FUNCTION__.4099>:
    9164:	5f733269 	svcpl	0x00733269
    9168:	74696e69 	strbtvc	r6, [r9], #-3689	; 0xfffff197
    916c:	00000000 	andeq	r0, r0, r0
    9170:	2e746666 	cdpcs	6, 7, cr6, cr4, cr6, {3}
    9174:	00000063 	andeq	r0, r0, r3, rrx
    9178:	494e4150 	stmdbmi	lr, {r4, r6, r8, lr}^
    917c:	73253a43 			; <UNDEFINED> instruction: 0x73253a43
    9180:	3a73253a 	bcc	1cd2670 <__bss_end__+0x1cc88b0>
    9184:	663a6425 	ldrtvs	r6, [sl], -r5, lsr #8
    9188:	665f7466 	ldrbvs	r7, [pc], -r6, ror #8
    918c:	64657869 	strbtvs	r7, [r5], #-2153	; 0xfffff797
    9190:	6666635f 			; <UNDEFINED> instruction: 0x6666635f
    9194:	46203a74 			; <UNDEFINED> instruction: 0x46203a74
    9198:	74205446 	strtvc	r5, [r0], #-1094	; 0xfffffbba
    919c:	6c206f6f 	stcvs	15, cr6, [r0], #-444	; 0xfffffe44
    91a0:	0a676e6f 	beq	19e4b64 <__bss_end__+0x19dada4>
    91a4:	00000000 	andeq	r0, r0, r0
    91a8:	2e746666 	cdpcs	6, 7, cr6, cr4, cr6, {3}
    91ac:	00000068 	andeq	r0, r0, r8, rrx
    91b0:	494e4150 	stmdbmi	lr, {r4, r6, r8, lr}^
    91b4:	73253a43 			; <UNDEFINED> instruction: 0x73253a43
    91b8:	3a73253a 	bcc	1cd26a8 <__bss_end__+0x1cc88e8>
    91bc:	693a6425 	ldmdbvs	sl!, {r0, r2, r5, sl, sp, lr}
    91c0:	656c706d 	strbvs	r7, [ip, #-109]!	; 0xffffff93
    91c4:	746e656d 	strbtvc	r6, [lr], #-1389	; 0xfffffa93
    91c8:	69687420 	stmdbvs	r8!, {r5, sl, ip, sp, lr}^
    91cc:	75662073 	strbvc	r2, [r6, #-115]!	; 0xffffff8d
    91d0:	6974636e 	ldmdbvs	r4!, {r1, r2, r3, r5, r6, r8, r9, sp, lr}^
    91d4:	0a216e6f 	beq	864b98 <__bss_end__+0x85add8>
    91d8:	0000000a 	andeq	r0, r0, sl
    91dc:	494e4150 	stmdbmi	lr, {r4, r6, r8, lr}^
    91e0:	73253a43 			; <UNDEFINED> instruction: 0x73253a43
    91e4:	3a73253a 	bcc	1cd26d4 <__bss_end__+0x1cc8914>
    91e8:	663a6425 	ldrtvs	r6, [sl], -r5, lsr #8
    91ec:	665f7466 	ldrbvs	r7, [pc], -r6, ror #8
    91f0:	64657869 	strbtvs	r7, [r5], #-2153	; 0xfffff797
    91f4:	6666725f 			; <UNDEFINED> instruction: 0x6666725f
    91f8:	73203a74 			; <UNDEFINED> instruction: 0x73203a74
    91fc:	736d6565 	cmnvc	sp, #423624704	; 0x19400000
    9200:	6f726220 	svcvs	0x00726220
    9204:	0a6e656b 	beq	1ba27b8 <__bss_end__+0x1b989f8>
    9208:	00000000 	andeq	r0, r0, r0

0000920c <__FUNCTION__.3970>:
    920c:	5f746666 	svcpl	0x00746666
    9210:	65786966 	ldrbvs	r6, [r8, #-2406]!	; 0xfffff69a
    9214:	66635f64 	strbtvs	r5, [r3], -r4, ror #30
    9218:	00007466 	andeq	r7, r0, r6, ror #8

0000921c <__FUNCTION__.3942>:
    921c:	5f746666 	svcpl	0x00746666
    9220:	65786966 	ldrbvs	r6, [r8, #-2406]!	; 0xfffff69a
    9224:	756d5f64 	strbvc	r5, [sp, #-3940]!	; 0xfffff09c
    9228:	0000006c 	andeq	r0, r0, ip, rrx

0000922c <__FUNCTION__.4015>:
    922c:	5f746666 	svcpl	0x00746666
    9230:	65786966 	ldrbvs	r6, [r8, #-2406]!	; 0xfffff69a
    9234:	66725f64 	ldrbtvs	r5, [r2], -r4, ror #30
    9238:	00007466 	andeq	r7, r0, r6, ror #8
    923c:	696c2f2e 	stmdbvs	ip!, {r1, r2, r3, r5, r8, r9, sl, fp, sp}^
    9240:	762f6362 	strtvc	r6, [pc], -r2, ror #6
    9244:	72702d61 	rsbsvc	r2, r0, #6208	; 0x1840
    9248:	6b746e69 	blvs	1d24bf4 <__bss_end__+0x1d1ae34>
    924c:	0000632e 	andeq	r6, r0, lr, lsr #6
    9250:	00000030 	andeq	r0, r0, r0, lsr r0
    9254:	33323130 	teqcc	r2, #12
    9258:	37363534 			; <UNDEFINED> instruction: 0x37363534
    925c:	00003938 	andeq	r3, r0, r8, lsr r9
    9260:	33323130 	teqcc	r2, #12
    9264:	37363534 			; <UNDEFINED> instruction: 0x37363534
    9268:	62613938 	rsbvs	r3, r1, #56, 18	; 0xe0000
    926c:	66656463 	strbtvs	r6, [r5], -r3, ror #8
    9270:	00000000 	andeq	r0, r0, r0
    9274:	00003130 	andeq	r3, r0, r0, lsr r1
    9278:	63747570 	cmnvs	r4, #112, 10	; 0x1c000000
    927c:	0070665f 	rsbseq	r6, r0, pc, asr r6
    9280:	74646977 	strbtvc	r6, [r4], #-2423	; 0xfffff689
    9284:	203c2068 	eorscs	r2, ip, r8, rrx
    9288:	00003233 	andeq	r3, r0, r3, lsr r2
    928c:	00786c6c 	rsbseq	r6, r8, ip, ror #24
    9290:	00646c6c 	rsbeq	r6, r4, ip, ror #24
    9294:	253d3078 	ldrcs	r3, [sp, #-120]!	; 0xffffff88
    9298:	00000a78 	andeq	r0, r0, r8, ror sl
    929c:	253d3178 	ldrcs	r3, [sp, #-376]!	; 0xfffffe88
    92a0:	00000a78 	andeq	r0, r0, r8, ror sl
    92a4:	6e727473 	mrcvs	4, 3, r7, cr2, cr3, {3}
    92a8:	28706d63 	ldmdacs	r0!, {r0, r1, r5, r6, r8, sl, fp, sp, lr}^
    92ac:	202c7974 	eorcs	r7, ip, r4, ror r9
    92b0:	786c6c22 	stmdavc	ip!, {r1, r5, sl, fp, sp, lr}^
    92b4:	33202c22 			; <UNDEFINED> instruction: 0x33202c22
    92b8:	3d3d2029 	ldccc	0, cr2, [sp, #-164]!	; 0xffffff5c
    92bc:	7c203020 	stcvc	0, cr3, [r0], #-128	; 0xffffff80
    92c0:	7473207c 	ldrbtvc	r2, [r3], #-124	; 0xffffff84
    92c4:	6d636e72 	stclvs	14, cr6, [r3, #-456]!	; 0xfffffe38
    92c8:	79742870 	ldmdbvc	r4!, {r4, r5, r6, fp, sp}^
    92cc:	6c22202c 	stcvs	0, cr2, [r2], #-176	; 0xffffff50
    92d0:	2c22646c 	cfstrscs	mvf6, [r2], #-432	; 0xfffffe50
    92d4:	20293320 	eorcs	r3, r9, r0, lsr #6
    92d8:	30203d3d 	eorcc	r3, r0, sp, lsr sp
    92dc:	00000000 	andeq	r0, r0, r0
    92e0:	494e4150 	stmdbmi	lr, {r4, r6, r8, lr}^
    92e4:	73253a43 			; <UNDEFINED> instruction: 0x73253a43
    92e8:	3a73253a 	bcc	1cd27d8 <__bss_end__+0x1cc8a18>
    92ec:	693a6425 	ldmdbvs	sl!, {r0, r2, r5, sl, sp, lr}
    92f0:	736f706d 	cmnvc	pc, #109, 0	; 0x6d
    92f4:	6c626973 			; <UNDEFINED> instruction: 0x6c626973
    92f8:	66203a65 	strtvs	r3, [r0], -r5, ror #20
    92fc:	3c3d746d 	cfldrscc	mvf7, [sp], #-436	; 0xfffffe4c
    9300:	0a3e7325 	beq	fa5f9c <__bss_end__+0xf9c1dc>
    9304:	0000000a 	andeq	r0, r0, sl
    9308:	494e4150 	stmdbmi	lr, {r4, r6, r8, lr}^
    930c:	73253a43 			; <UNDEFINED> instruction: 0x73253a43
    9310:	3a73253a 	bcc	1cd2800 <__bss_end__+0x1cc8a40>
    9314:	663a6425 	ldrtvs	r6, [sl], -r5, lsr #8
    9318:	74616f6c 	strbtvc	r6, [r1], #-3948	; 0xfffff094
    931c:	746f6e20 	strbtvc	r6, [pc], #-3616	; 9324 <__FUNCTION__.4015+0xf8>
    9320:	616e6520 	cmnvs	lr, r0, lsr #10
    9324:	64656c62 	strbtvs	r6, [r5], #-3170	; 0xfffff39e
    9328:	0a212121 	beq	8517b4 <__bss_end__+0x8479f4>
    932c:	00000000 	andeq	r0, r0, r0
    9330:	6e697270 	mcrvs	2, 3, r7, cr9, cr0, {3}
    9334:	203a6b74 	eorscs	r6, sl, r4, ror fp
    9338:	20746f6e 	rsbscs	r6, r4, lr, ror #30
    933c:	646e6168 	strbtvs	r6, [lr], #-360	; 0xfffffe98
    9340:	676e696c 	strbvs	r6, [lr, -ip, ror #18]!
    9344:	65707320 	ldrbvs	r7, [r0, #-800]!	; 0xfffffce0
    9348:	69666963 	stmdbvs	r6!, {r0, r1, r5, r6, r8, fp, sp, lr}^
    934c:	27207265 	strcs	r7, [r0, -r5, ror #4]!
    9350:	20276325 	eorcs	r6, r7, r5, lsr #6
    9354:	63736128 	cmnvs	r3, #10
    9358:	253d6969 	ldrcs	r6, [sp, #-2409]!	; 0xfffff697
    935c:	000a2964 	andeq	r2, sl, r4, ror #18
    9360:	494e4150 	stmdbmi	lr, {r4, r6, r8, lr}^
    9364:	73253a43 			; <UNDEFINED> instruction: 0x73253a43
    9368:	3a73253a 	bcc	1cd2858 <__bss_end__+0x1cc8a98>
    936c:	703a6425 	eorsvc	r6, sl, r5, lsr #8
    9370:	746e6972 	strbtvc	r6, [lr], #-2418	; 0xfffff68e
    9374:	7265206b 	rsbvc	r2, r5, #107, 0	; 0x6b
    9378:	0a726f72 	beq	1ca5148 <__bss_end__+0x1c9b388>
    937c:	0000000a 	andeq	r0, r0, sl

00009380 <__FUNCTION__.4008>:
    9380:	74696d65 	strbtvc	r6, [r9], #-3429	; 0xfffff29b
    9384:	00000000 	andeq	r0, r0, r0

00009388 <__FUNCTION__.3956>:
    9388:	5f697072 	svcpl	0x00697072
    938c:	5f746573 	svcpl	0x00746573
    9390:	7074756f 	rsbsvc	r7, r4, pc, ror #10
    9394:	00007475 	andeq	r7, r0, r5, ror r4

00009398 <__FUNCTION__.4034>:
    9398:	705f6176 	subsvc	r6, pc, r6, ror r1	; <UNPREDICTABLE>
    939c:	746e6972 	strbtvc	r6, [lr], #-2418	; 0xfffff68e
    93a0:	0000006b 	andeq	r0, r0, fp, rrx
    93a4:	454e4f44 	strbmi	r4, [lr, #-3908]	; 0xfffff0bc
    93a8:	0a212121 	beq	851834 <__bss_end__+0x847a74>
	...

Disassembly of section .data:

000093b0 <cm_regs>:
    93b0:	20101000 	andscs	r1, r0, r0

000093b4 <i2s_regs>:
    93b4:	20203000 	eorcs	r3, r0, r0

000093b8 <FFT_SINE_LUT>:
    93b8:	00c90000 	sbceq	r0, r9, r0
    93bc:	025b0192 	subseq	r0, fp, #-2147483612	; 0x80000024
    93c0:	03ed0324 	mvneq	r0, #36, 6	; 0x90000000
    93c4:	057e04b6 	ldrbeq	r0, [lr, #-1206]!	; 0xfffffb4a
    93c8:	07100647 	ldreq	r0, [r0, -r7, asr #12]
    93cc:	08a107d9 	stmiaeq	r1!, {r0, r3, r4, r6, r7, r8, r9, sl}
    93d0:	0a32096a 	beq	c8b980 <__bss_end__+0xc81bc0>
    93d4:	0bc30afb 	bleq	ff0cbfc8 <__bss_end__+0xff0c2208>
    93d8:	0d530c8b 	ldcleq	12, cr0, [r3, #-556]	; 0xfffffdd4
    93dc:	0ee30e1b 	mcreq	14, 7, r0, cr3, cr11, {0}
    93e0:	10720fab 	rsbsne	r0, r2, fp, lsr #31
    93e4:	12001139 	andne	r1, r0, #1073741838	; 0x4000000e
    93e8:	138e12c7 	orrne	r1, lr, #1879048204	; 0x7000000c
    93ec:	151b1455 	ldrne	r1, [fp, #-1109]	; 0xfffffbab
    93f0:	16a715e1 	strtne	r1, [r7], r1, ror #11
    93f4:	1833176d 	ldmdane	r3!, {r0, r2, r3, r5, r6, r8, r9, sl, ip}
    93f8:	19bd18f8 	ldmibne	sp!, {r3, r4, r5, r6, r7, fp, ip}
    93fc:	1b461a82 	blne	118fe0c <__bss_end__+0x118604c>
    9400:	1ccf1c0b 	stclne	12, cr1, [pc], {11}
    9404:	1e561d93 	mrcne	13, 2, r1, cr6, cr3, {4}
    9408:	1fdc1f19 	svcne	0x00dc1f19
    940c:	2161209f 			; <UNDEFINED> instruction: 0x2161209f
    9410:	22e42223 	rsccs	r2, r4, #805306370	; 0x30000002
    9414:	246723a6 	strbtcs	r2, [r7], #-934	; 0xfffffc5a
    9418:	25e72527 	strbcs	r2, [r7, #1319]!	; 0x527
    941c:	276726a7 	strbcs	r2, [r7, -r7, lsr #13]!
    9420:	28e52826 	stmiacs	r5!, {r1, r2, r5, fp, sp}^
    9424:	2a6129a3 	bcs	1853ab8 <__bss_end__+0x1849cf8>
    9428:	2bdb2b1e 	blcs	ff6d40a8 <__bss_end__+0xff6ca2e8>
    942c:	2d542c98 	ldclcs	12, cr2, [r4, #-608]	; 0xfffffda0
    9430:	2ecc2e10 	mcrcs	14, 6, r2, cr12, cr0, {0}
    9434:	30412f86 	subcc	r2, r1, r6, lsl #31
    9438:	31b430fb 	ldrshcc	r3, [r4, fp]!
    943c:	3326326d 			; <UNDEFINED> instruction: 0x3326326d
    9440:	349633de 	ldrcc	r3, [r6], #990	; 0x3de
    9444:	3603354d 	strcc	r3, [r3], -sp, asr #10
    9448:	376f36b9 			; <UNDEFINED> instruction: 0x376f36b9
    944c:	38d83824 	ldmcc	r8, {r2, r5, fp, ip, sp}^
    9450:	3a3f398c 	bcc	fd7a88 <__bss_end__+0xfcdcc8>
    9454:	3ba43af2 	blcc	fe918024 <__bss_end__+0xfe90e264>
    9458:	3d073c56 	stccc	12, cr3, [r7, #-344]	; 0xfffffea8
    945c:	3e673db7 	mcrcc	13, 3, r3, cr7, cr7, {5}
    9460:	3fc53f16 	svccc	0x00c53f16
    9464:	41204073 			; <UNDEFINED> instruction: 0x41204073
    9468:	427941cd 	rsbsmi	r4, r9, #1073741875	; 0x40000033
    946c:	43d04325 	bicsmi	r4, r0, #-1811939328	; 0x94000000
    9470:	4523447a 	strmi	r4, [r3, #-1146]!	; 0xfffffb86
    9474:	467445cc 	ldrbtmi	r4, [r4], -ip, asr #11
    9478:	47c3471c 	bfimi	r4, ip, (invalid: 14:3)
    947c:	490e4869 	stmdbmi	lr, {r0, r3, r5, r6, fp, lr}
    9480:	4a5749b3 	bmi	15dbb54 <__bss_end__+0x15d1d94>
    9484:	4b9d4afa 	blmi	fe75c074 <__bss_end__+0xfe7522b4>
    9488:	4ce04c3f 	stclmi	12, cr4, [r0], #252	; 0xfc
    948c:	4e204d80 	cdpmi	13, 2, cr4, cr0, cr0, {4}
    9490:	4f5d4ebf 	svcmi	0x005d4ebf
    9494:	50974ffa 			; <UNDEFINED> instruction: 0x50974ffa
    9498:	51ce5133 	bicpl	r5, lr, r3, lsr r1
    949c:	53015268 	movwpl	r5, #4712	; 0x1268
    94a0:	5432539a 	ldrtpl	r5, [r2], #-922	; 0xfffffc66
    94a4:	555f54c9 	ldrbpl	r5, [pc, #-1225]	; 8fe3 <rpi_set_putc+0xb>
    94a8:	568955f4 			; <UNDEFINED> instruction: 0x568955f4
    94ac:	57b0571d 			; <UNDEFINED> instruction: 0x57b0571d
    94b0:	58d35842 	ldmpl	r3, {r1, r6, fp, ip, lr}^
    94b4:	59f35963 	ldmibpl	r3!, {r0, r1, r5, r6, r8, fp, ip, lr}^
    94b8:	5b0f5a81 	blpl	3dfec4 <__bss_end__+0x3d6104>
    94bc:	5c285b9c 			; <UNDEFINED> instruction: 0x5c285b9c
    94c0:	5d3d5cb3 	ldcpl	12, cr5, [sp, #-716]!	; 0xfffffd34
    94c4:	5e4f5dc6 	cdppl	13, 4, cr5, cr15, cr6, {6}
    94c8:	5f5d5ed6 	svcpl	0x005d5ed6
    94cc:	60675fe2 	rsbvs	r5, r7, r2, ror #31
    94d0:	616e60eb 	cmnvs	lr, fp, ror #1
    94d4:	627161f0 	rsbsvs	r6, r1, #60	; 0x3c
    94d8:	637062f1 	cmnvs	r0, #268435471	; 0x1000000f
    94dc:	646b63ee 	strbtvs	r6, [fp], #-1006	; 0xfffffc12
    94e0:	656264e7 	strbvs	r6, [r2, #-1255]!	; 0xfffffb19
    94e4:	665665dd 			; <UNDEFINED> instruction: 0x665665dd
    94e8:	674566ce 	strbvs	r6, [r5, -lr, asr #13]
    94ec:	683167bc 	ldmdavs	r1!, {r2, r3, r4, r5, r7, r8, r9, sl, sp, lr}
    94f0:	691968a5 	ldmdbvs	r9, {r0, r2, r5, r7, fp, sp, lr}
    94f4:	69fc698b 	ldmibvs	ip!, {r0, r1, r3, r7, r8, fp, sp, lr}^
    94f8:	6adb6a6c 	bvs	ff6e3eb0 <__bss_end__+0xff6da0f0>
    94fc:	6bb76b4a 	blvs	fede422c <__bss_end__+0xfedda46c>
    9500:	6c8e6c23 	stcvs	12, cr6, [lr], {35}	; 0x23
    9504:	6d616cf8 	stclvs	12, cr6, [r1, #-992]!	; 0xfffffc20
    9508:	6e306dc9 	cdpvs	13, 3, cr6, cr0, cr9, {6}
    950c:	6efa6e95 	mrcvs	14, 7, r6, cr10, cr5, {4}
    9510:	6fc06f5e 	svcvs	0x00c06f5e
    9514:	70827022 	addvc	r7, r2, r2, lsr #32
    9518:	714070e1 	smlalttvc	r7, r0, r1, r0
    951c:	71f9719d 			; <UNDEFINED> instruction: 0x71f9719d
    9520:	72ae7254 	adcvc	r7, lr, #84, 4	; 0x40000005
    9524:	735e7306 	cmpvc	lr, #402653184	; 0x18000000
    9528:	740a73b5 	strvc	r7, [sl], #-949	; 0xfffffc4b
    952c:	74b1745e 	ldrtvc	r7, [r1], #1118	; 0x45e
    9530:	75547503 	ldrbvc	r7, [r4, #-1283]	; 0xfffffafd
    9534:	75f375a4 	ldrbvc	r7, [r3, #1444]!	; 0x5a4
    9538:	768d7640 	strvc	r7, [sp], r0, asr #12
    953c:	772276d8 			; <UNDEFINED> instruction: 0x772276d8
    9540:	77b3776b 	ldrvc	r7, [r3, fp, ror #14]!
    9544:	783f77f9 	ldmdavc	pc!, {r0, r3, r4, r5, r6, r7, r8, r9, sl, ip, sp, lr}	; <UNPREDICTABLE>
    9548:	78c67883 	stmiavc	r6, {r0, r1, r7, fp, ip, sp, lr}^
    954c:	79497908 	stmdbvc	r9, {r3, r8, fp, ip, sp, lr}^
    9550:	79c77989 	stmibvc	r7, {r0, r3, r7, r8, fp, ip, sp, lr}^
    9554:	7a417a04 	bvc	1067d6c <__bss_end__+0x105dfac>
    9558:	7ab57a7c 	bvc	fed67f50 <__bss_end__+0xfed5e190>
    955c:	7b257aee 	blvc	96811c <__bss_end__+0x95e35c>
    9560:	7b917b5c 	blvc	fe4682d8 <__bss_end__+0xfe45e518>
    9564:	7bf77bc4 	blvc	ffde847c <__bss_end__+0xffdde6bc>
    9568:	7c597c29 	mrrcvc	12, 2, r7, r9, cr9
    956c:	7cb67c88 	ldcvc	12, cr7, [r6], #544	; 0x220
    9570:	7d0e7ce2 	stcvc	12, cr7, [lr, #-904]	; 0xfffffc78
    9574:	7d617d38 	stclvc	13, cr7, [r1, #-224]!	; 0xffffff20
    9578:	7db07d89 	ldcvc	13, cr7, [r0, #548]!	; 0x224
    957c:	7df97dd5 	ldclvc	13, cr7, [r9, #852]!	; 0x354
    9580:	7e3e7e1c 	mrcvc	14, 1, r7, cr14, cr12, {0}
    9584:	7e7e7e5e 	mrcvc	14, 3, r7, cr14, cr14, {2}
    9588:	7eb97e9c 	mrcvc	14, 5, r7, cr9, cr12, {4}
    958c:	7eef7ed4 	mcrvc	14, 7, r7, cr15, cr4, {6}
    9590:	7f207f08 	svcvc	0x00207f08
    9594:	7f4c7f37 	svcvc	0x004c7f37
    9598:	7f747f61 	svcvc	0x00747f61
    959c:	7f967f86 	svcvc	0x00967f86
    95a0:	7fb47fa6 	svcvc	0x00b47fa6
    95a4:	7fcd7fc1 	svcvc	0x00cd7fc1
    95a8:	7fe07fd7 	svcvc	0x00e07fd7
    95ac:	7fef7fe8 	svcvc	0x00ef7fe8
    95b0:	7ff97ff5 	svcvc	0x00f97ff5
    95b4:	7ffe7ffc 	svcvc	0x00fe7ffc
    95b8:	7ffe7fff 	svcvc	0x00fe7fff
    95bc:	7ff97ffc 	svcvc	0x00f97ffc
    95c0:	7fef7ff5 	svcvc	0x00ef7ff5
    95c4:	7fe07fe8 	svcvc	0x00e07fe8
    95c8:	7fcd7fd7 	svcvc	0x00cd7fd7
    95cc:	7fb47fc1 	svcvc	0x00b47fc1
    95d0:	7f967fa6 	svcvc	0x00967fa6
    95d4:	7f747f86 	svcvc	0x00747f86
    95d8:	7f4c7f61 	svcvc	0x004c7f61
    95dc:	7f207f37 	svcvc	0x00207f37
    95e0:	7eef7f08 	cdpvc	15, 14, cr7, cr15, cr8, {0}
    95e4:	7eb97ed4 	mrcvc	14, 5, r7, cr9, cr4, {6}
    95e8:	7e7e7e9c 	mrcvc	14, 3, r7, cr14, cr12, {4}
    95ec:	7e3e7e5e 	mrcvc	14, 1, r7, cr14, cr14, {2}
    95f0:	7df97e1c 	ldclvc	14, cr7, [r9, #112]!	; 0x70
    95f4:	7db07dd5 	ldcvc	13, cr7, [r0, #852]!	; 0x354
    95f8:	7d617d89 	stclvc	13, cr7, [r1, #-548]!	; 0xfffffddc
    95fc:	7d0e7d38 	stcvc	13, cr7, [lr, #-224]	; 0xffffff20
    9600:	7cb67ce2 	ldcvc	12, cr7, [r6], #904	; 0x388
    9604:	7c597c88 	mrrcvc	12, 8, r7, r9, cr8
    9608:	7bf77c29 	blvc	ffde86b4 <__bss_end__+0xffdde8f4>
    960c:	7b917bc4 	blvc	fe468524 <__bss_end__+0xfe45e764>
    9610:	7b257b5c 	blvc	968388 <__bss_end__+0x95e5c8>
    9614:	7ab57aee 	bvc	fed681d4 <__bss_end__+0xfed5e414>
    9618:	7a417a7c 	bvc	1068010 <__bss_end__+0x105e250>
    961c:	79c77a04 	stmibvc	r7, {r2, r9, fp, ip, sp, lr}^
    9620:	79497989 	stmdbvc	r9, {r0, r3, r7, r8, fp, ip, sp, lr}^
    9624:	78c67908 	stmiavc	r6, {r3, r8, fp, ip, sp, lr}^
    9628:	783f7883 	ldmdavc	pc!, {r0, r1, r7, fp, ip, sp, lr}	; <UNPREDICTABLE>
    962c:	77b377f9 			; <UNDEFINED> instruction: 0x77b377f9
    9630:	7722776b 	strvc	r7, [r2, -fp, ror #14]!
    9634:	768d76d8 	pkhtbvc	r7, sp, r8, asr #13
    9638:	75f37640 	ldrbvc	r7, [r3, #1600]!	; 0x640
    963c:	755475a4 	ldrbvc	r7, [r4, #-1444]	; 0xfffffa5c
    9640:	74b17503 	ldrtvc	r7, [r1], #1283	; 0x503
    9644:	740a745e 	strvc	r7, [sl], #-1118	; 0xfffffba2
    9648:	735e73b5 	cmpvc	lr, #-738197502	; 0xd4000002
    964c:	72ae7306 	adcvc	r7, lr, #402653184	; 0x18000000
    9650:	71f97254 	mvnsvc	r7, r4, asr r2
    9654:	7140719d 			; <UNDEFINED> instruction: 0x7140719d
    9658:	708270e1 	addvc	r7, r2, r1, ror #1
    965c:	6fc07022 	svcvs	0x00c07022
    9660:	6efa6f5e 	mrcvs	15, 7, r6, cr10, cr14, {2}
    9664:	6e306e95 	mrcvs	14, 1, r6, cr0, cr5, {4}
    9668:	6d616dc9 	stclvs	13, cr6, [r1, #-804]!	; 0xfffffcdc
    966c:	6c8e6cf8 	stcvs	12, cr6, [lr], {248}	; 0xf8
    9670:	6bb76c23 	blvs	fede4704 <__bss_end__+0xfedda944>
    9674:	6adb6b4a 	bvs	ff6e43a4 <__bss_end__+0xff6da5e4>
    9678:	69fc6a6c 	ldmibvs	ip!, {r2, r3, r5, r6, r9, fp, sp, lr}^
    967c:	6919698b 	ldmdbvs	r9, {r0, r1, r3, r7, r8, fp, sp, lr}
    9680:	683168a5 	ldmdavs	r1!, {r0, r2, r5, r7, fp, sp, lr}
    9684:	674567bc 			; <UNDEFINED> instruction: 0x674567bc
    9688:	665666ce 	ldrbvs	r6, [r6], -lr, asr #13
    968c:	656265dd 	strbvs	r6, [r2, #-1501]!	; 0xfffffa23
    9690:	646b64e7 	strbtvs	r6, [fp], #-1255	; 0xfffffb19
    9694:	637063ee 	cmnvs	r0, #-1207959549	; 0xb8000003
    9698:	627162f1 	rsbsvs	r6, r1, #268435471	; 0x1000000f
    969c:	616e61f0 	strdvs	r6, [lr, #-16]!
    96a0:	606760eb 	rsbvs	r6, r7, fp, ror #1
    96a4:	5f5d5fe2 	svcpl	0x005d5fe2
    96a8:	5e4f5ed6 	mcrpl	14, 2, r5, cr15, cr6, {6}
    96ac:	5d3d5dc6 	ldcpl	13, cr5, [sp, #-792]!	; 0xfffffce8
    96b0:	5c285cb3 	stcpl	12, cr5, [r8], #-716	; 0xfffffd34
    96b4:	5b0f5b9c 	blpl	3e052c <__bss_end__+0x3d676c>
    96b8:	59f35a81 	ldmibpl	r3!, {r0, r7, r9, fp, ip, lr}^
    96bc:	58d35963 	ldmpl	r3, {r0, r1, r5, r6, r8, fp, ip, lr}^
    96c0:	57b05842 	ldrpl	r5, [r0, r2, asr #16]!
    96c4:	5689571d 	pkhbtpl	r5, r9, sp, lsl #14
    96c8:	555f55f4 	ldrbpl	r5, [pc, #-1524]	; 90dc <__code_end__+0x44>
    96cc:	543254c9 	ldrtpl	r5, [r2], #-1225	; 0xfffffb37
    96d0:	5301539a 	movwpl	r5, #5018	; 0x139a
    96d4:	51ce5268 	bicpl	r5, lr, r8, ror #4
    96d8:	50975133 	addspl	r5, r7, r3, lsr r1
    96dc:	4f5d4ffa 	svcmi	0x005d4ffa
    96e0:	4e204ebf 	mcrmi	14, 1, r4, cr0, cr15, {5}
    96e4:	4ce04d80 	stclmi	13, cr4, [r0], #512	; 0x200
    96e8:	4b9d4c3f 	blmi	fe75c7ec <__bss_end__+0xfe752a2c>
    96ec:	4a574afa 	bmi	15dc2dc <__bss_end__+0x15d251c>
    96f0:	490e49b3 	stmdbmi	lr, {r0, r1, r4, r5, r7, r8, fp, lr}
    96f4:	47c34869 	strbmi	r4, [r3, r9, ror #16]
    96f8:	4674471c 			; <UNDEFINED> instruction: 0x4674471c
    96fc:	452345cc 	strmi	r4, [r3, #-1484]!	; 0xfffffa34
    9700:	43d0447a 	bicsmi	r4, r0, #2046820352	; 0x7a000000
    9704:	42794325 	rsbsmi	r4, r9, #-1811939328	; 0x94000000
    9708:	412041cd 	smlawtmi	r0, sp, r1, r4
    970c:	3fc54073 	svccc	0x00c54073
    9710:	3e673f16 	mcrcc	15, 3, r3, cr7, cr6, {0}
    9714:	3d073db7 	stccc	13, cr3, [r7, #-732]	; 0xfffffd24
    9718:	3ba43c56 	blcc	fe918878 <__bss_end__+0xfe90eab8>
    971c:	3a3f3af2 	bcc	fd82ec <__bss_end__+0xfce52c>
    9720:	38d8398c 	ldmcc	r8, {r2, r3, r7, r8, fp, ip, sp}^
    9724:	376f3824 	strbcc	r3, [pc, -r4, lsr #16]!
    9728:	360336b9 			; <UNDEFINED> instruction: 0x360336b9
    972c:	3496354d 	ldrcc	r3, [r6], #1357	; 0x54d
    9730:	332633de 			; <UNDEFINED> instruction: 0x332633de
    9734:	31b4326d 			; <UNDEFINED> instruction: 0x31b4326d
    9738:	304130fb 	strdcc	r3, [r1], #-11
    973c:	2ecc2f86 	cdpcs	15, 12, cr2, cr12, cr6, {4}
    9740:	2d542e10 	ldclcs	14, cr2, [r4, #-64]	; 0xffffffc0
    9744:	2bdb2c98 	blcs	ff6d49ac <__bss_end__+0xff6cabec>
    9748:	2a612b1e 	bcs	18543c8 <__bss_end__+0x184a608>
    974c:	28e529a3 	stmiacs	r5!, {r0, r1, r5, r7, r8, fp, sp}^
    9750:	27672826 	strbcs	r2, [r7, -r6, lsr #16]!
    9754:	25e726a7 	strbcs	r2, [r7, #1703]!	; 0x6a7
    9758:	24672527 	strbtcs	r2, [r7], #-1319	; 0xfffffad9
    975c:	22e423a6 	rsccs	r2, r4, #-1744830462	; 0x98000002
    9760:	21612223 	cmncs	r1, r3, lsr #4
    9764:	1fdc209f 	svcne	0x00dc209f
    9768:	1e561f19 	mrcne	15, 2, r1, cr6, cr9, {0}
    976c:	1ccf1d93 	stclne	13, cr1, [pc], {147}	; 0x93
    9770:	1b461c0b 	blne	11907a4 <__bss_end__+0x11869e4>
    9774:	19bd1a82 	ldmibne	sp!, {r1, r7, r9, fp, ip}
    9778:	183318f8 	ldmdane	r3!, {r3, r4, r5, r6, r7, fp, ip}
    977c:	16a7176d 	strtne	r1, [r7], sp, ror #14
    9780:	151b15e1 	ldrne	r1, [fp, #-1505]	; 0xfffffa1f
    9784:	138e1455 	orrne	r1, lr, #1426063360	; 0x55000000
    9788:	120012c7 	andne	r1, r0, #1879048204	; 0x7000000c
    978c:	10721139 	rsbsne	r1, r2, r9, lsr r1
    9790:	0ee30fab 	cdpeq	15, 14, cr0, cr3, cr11, {5}
    9794:	0d530e1b 	ldcleq	14, cr0, [r3, #-108]	; 0xffffff94
    9798:	0bc30c8b 	bleq	ff0cc9cc <__bss_end__+0xff0c2c0c>
    979c:	0a320afb 	beq	c8c390 <__bss_end__+0xc825d0>
    97a0:	08a1096a 	stmiaeq	r1!, {r1, r3, r5, r6, r8, fp}
    97a4:	071007d9 			; <UNDEFINED> instruction: 0x071007d9
    97a8:	057e0647 	ldrbeq	r0, [lr, #-1607]!	; 0xfffff9b9
    97ac:	03ed04b6 	mvneq	r0, #-1241513984	; 0xb6000000
    97b0:	025b0324 	subseq	r0, fp, #36, 6	; 0x90000000
    97b4:	00c90192 	smulleq	r0, r9, r2, r1
    97b8:	ff370000 			; <UNDEFINED> instruction: 0xff370000
    97bc:	fda5fe6e 	stc2	14, cr15, [r5, #440]!	; 0x1b8
    97c0:	fc13fcdc 	ldc2	12, cr15, [r3], {220}	; 0xdc
    97c4:	fa82fb4a 	blx	fe0c84f4 <__bss_end__+0xfe0be734>
    97c8:	f8f0f9b9 			; <UNDEFINED> instruction: 0xf8f0f9b9
    97cc:	f75ff827 	pld	[pc, -r7, lsr #16]
    97d0:	f5cef696 			; <UNDEFINED> instruction: 0xf5cef696
    97d4:	f43df505 			; <UNDEFINED> instruction: 0xf43df505
    97d8:	f2adf375 	vrsra.s32	<illegal reg q7.5>, <illegal reg q10.5>, #19
    97dc:	f11df1e5 			; <UNDEFINED> instruction: 0xf11df1e5
    97e0:	ef8ef055 	svc	0x008ef055
    97e4:	ee00eec7 	cdp	14, 0, cr14, cr0, cr7, {6}
    97e8:	ec72ed39 	ldcl	13, cr14, [r2], #-228	; 0xffffff1c
    97ec:	eae5ebab 	b	ff9846a0 <__bss_end__+0xff97a8e0>
    97f0:	e959ea1f 	ldmdb	r9, {r0, r1, r2, r3, r4, r9, fp, sp, lr, pc}^
    97f4:	e7cde893 	bfi	lr, r3, (invalid: 17:13)
    97f8:	e643e708 	strb	lr, [r3], -r8, lsl #14
    97fc:	e4bae57e 	ldrt	lr, [sl], #1406	; 0x57e
    9800:	e331e3f5 	teq	r1, #-738197501	; 0xd4000003
    9804:	e1aae26d 			; <UNDEFINED> instruction: 0xe1aae26d
    9808:	e024e0e7 	eor	lr, r4, r7, ror #1
    980c:	de9fdf61 	cdple	15, 9, cr13, cr15, cr1, {3}
    9810:	dd1cdddd 	ldcle	13, cr13, [ip, #-884]	; 0xfffffc8c
    9814:	db99dc5a 	blle	fe680984 <__bss_end__+0xfe676bc4>
    9818:	da19dad9 	ble	680384 <__bss_end__+0x6765c4>
    981c:	d899d959 	ldmle	r9, {r0, r3, r4, r6, r8, fp, ip, lr, pc}
    9820:	d71bd7da 			; <UNDEFINED> instruction: 0xd71bd7da
    9824:	d59fd65d 	ldrle	sp, [pc, #1629]	; 9e89 <__bss_end__+0xc9>
    9828:	d425d4e2 	strtle	sp, [r5], #-1250	; 0xfffffb1e
    982c:	d2acd368 	adcle	sp, ip, #104, 6	; 0xa0000001
    9830:	d134d1f0 	teqle	r4, r0	; <illegal shifter operand>
    9834:	cfbfd07a 	svcgt	0x00bfd07a
    9838:	ce4ccf05 	cdpgt	15, 4, cr12, cr12, cr5, {0}
    983c:	ccdacd93 	ldclgt	13, cr12, [sl], {147}	; 0x93
    9840:	cb6acc22 	blgt	1abc8d0 <__bss_end__+0x1ab2b10>
    9844:	c9fdcab3 	ldmibgt	sp!, {r0, r1, r4, r5, r7, r9, fp, lr, pc}^
    9848:	c891c947 	ldmgt	r1, {r0, r1, r2, r6, r8, fp, lr, pc}
    984c:	c728c7dc 			; <UNDEFINED> instruction: 0xc728c7dc
    9850:	c5c1c674 	strbgt	ip, [r1, #1652]	; 0x674
    9854:	c45cc50e 	ldrbgt	ip, [ip], #-1294	; 0xfffffaf2
    9858:	c2f9c3aa 	rscsgt	ip, r9, #-1476395006	; 0xa8000002
    985c:	c199c249 	orrsgt	ip, r9, r9, asr #4
    9860:	c03bc0ea 	eorsgt	ip, fp, sl, ror #1
    9864:	bee0bf8d 	cdplt	15, 14, cr11, cr0, cr13, {4}
    9868:	bd87be33 	stclt	14, cr11, [r7, #204]	; 0xcc
    986c:	bc30bcdb 	ldclt	12, cr11, [r0], #-876	; 0xfffffc94
    9870:	baddbb86 	blt	ff778690 <__bss_end__+0xff76e8d0>
    9874:	b98cba34 	stmiblt	ip, {r2, r4, r5, r9, fp, ip, sp, pc}
    9878:	b83db8e4 	ldmdalt	sp!, {r2, r5, r6, r7, fp, ip, sp, pc}
    987c:	b6f2b797 	usatlt	fp, #18, r7, lsl #15
    9880:	b5a9b64d 	strlt	fp, [r9, #1613]!	; 0x64d
    9884:	b463b506 	strbtlt	fp, [r3], #-1286	; 0xfffffafa
    9888:	b320b3c1 			; <UNDEFINED> instruction: 0xb320b3c1
    988c:	b1e0b280 	mvnlt	fp, r0, lsl #5
    9890:	b0a3b141 	adclt	fp, r3, r1, asr #2
    9894:	af69b006 	svcge	0x0069b006
    9898:	ae32aecd 	cdpge	14, 3, cr10, cr2, cr13, {6}
    989c:	acffad98 	ldclge	13, cr10, [pc], #608	; 9b04 <__data_end__+0x144>
    98a0:	abceac66 	blge	ff3b4a40 <__bss_end__+0xff3aac80>
    98a4:	aaa1ab37 	bge	fe874588 <__bss_end__+0xfe86a7c8>
    98a8:	a977aa0c 	ldmdbge	r7!, {r2, r3, r9, fp, sp, pc}^
    98ac:	a850a8e3 	ldmdage	r0, {r0, r1, r5, r6, r7, fp, sp, pc}^
    98b0:	a72da7be 			; <UNDEFINED> instruction: 0xa72da7be
    98b4:	a60da69d 			; <UNDEFINED> instruction: 0xa60da69d
    98b8:	a4f1a57f 	ldrbtge	sl, [r1], #1407	; 0x57f
    98bc:	a3d8a464 	bicsge	sl, r8, #100, 8	; 0x64000000
    98c0:	a2c3a34d 	sbcge	sl, r3, #872415233	; 0x34000001
    98c4:	a1b1a23a 			; <UNDEFINED> instruction: 0xa1b1a23a
    98c8:	a0a3a12a 	adcge	sl, r3, sl, lsr #2
    98cc:	9f99a01e 	svcls	0x0099a01e
    98d0:	9e929f15 	mrcls	15, 4, r9, cr2, cr5, {0}
    98d4:	9d8f9e10 	stcls	14, cr9, [pc, #64]	; 991c <FFT_SINE_LUT+0x564>
    98d8:	9c909d0f 	ldcls	13, cr9, [r0], {15}
    98dc:	9b959c12 	blls	fe57092c <__bss_end__+0xfe566b6c>
    98e0:	9a9e9b19 	bls	fe7b054c <__bss_end__+0xfe7a678c>
    98e4:	99aa9a23 	stmibls	sl!, {r0, r1, r5, r9, fp, ip, pc}
    98e8:	98bb9932 	ldmls	fp!, {r1, r4, r5, r8, fp, ip, pc}
    98ec:	97cf9844 	strbls	r9, [pc, r4, asr #16]
    98f0:	96e7975b 	usatls	r9, #7, fp, asr #14
    98f4:	96049675 			; <UNDEFINED> instruction: 0x96049675
    98f8:	95259594 	strls	r9, [r5, #-1428]!	; 0xfffffa6c
    98fc:	944994b6 	strbls	r9, [r9], #-1206	; 0xfffffb4a
    9900:	937293dd 	cmnls	r2, #1946157059	; 0x74000003
    9904:	929f9308 	addsls	r9, pc, #8, 6	; 0x20000000
    9908:	91d09237 	bicsls	r9, r0, r7, lsr r2
    990c:	9106916b 	tstls	r6, fp, ror #2
    9910:	904090a2 	subls	r9, r0, r2, lsr #1
    9914:	8f7e8fde 	svchi	0x007e8fde
    9918:	8ec08f1f 	mcrhi	15, 6, r8, cr0, cr15, {0}
    991c:	8e078e63 	cdphi	14, 0, cr8, cr7, cr3, {3}
    9920:	8d528dac 	ldclhi	13, cr8, [r2, #-688]	; 0xfffffd50
    9924:	8ca28cfa 	stchi	12, cr8, [r2], #1000	; 0x3e8
    9928:	8bf68c4b 	blhi	ffdaca5c <__bss_end__+0xffda2c9c>
    992c:	8b4f8ba2 	blhi	13ec7bc <__bss_end__+0x13e29fc>
    9930:	8aac8afd 	bhi	feb2c52c <__bss_end__+0xfeb2276c>
    9934:	8a0d8a5c 	bhi	36c2ac <__bss_end__+0x3624ec>
    9938:	897389c0 	ldmdbhi	r3!, {r6, r7, r8, fp, pc}^
    993c:	88de8928 	ldmhi	lr, {r3, r5, r8, fp, pc}^
    9940:	884d8895 	stmdahi	sp, {r0, r2, r4, r7, fp, pc}^
    9944:	87c18807 	strbhi	r8, [r1, r7, lsl #16]
    9948:	873a877d 			; <UNDEFINED> instruction: 0x873a877d
    994c:	86b786f8 			; <UNDEFINED> instruction: 0x86b786f8
    9950:	86398677 			; <UNDEFINED> instruction: 0x86398677
    9954:	85bf85fc 	ldrhi	r8, [pc, #1532]!	; 9f58 <__bss_end__+0x198>
    9958:	854b8584 	strbhi	r8, [fp, #-1412]	; 0xfffffa7c
    995c:	84db8512 	ldrbhi	r8, [fp], #1298	; 0x512
    9960:	846f84a4 	strbthi	r8, [pc], #-1188	; 9968 <FFT_SINE_LUT+0x5b0>
    9964:	8409843c 	strhi	r8, [r9], #-1084	; 0xfffffbc4
    9968:	83a783d7 			; <UNDEFINED> instruction: 0x83a783d7
    996c:	834a8378 	movthi	r8, #41848	; 0xa378
    9970:	82f2831e 	rscshi	r8, r2, #2013265920	; 0x78000000
    9974:	829f82c8 	addshi	r8, pc, #200, 4	; 0x8000000c
    9978:	82508277 	subshi	r8, r0, #1879048199	; 0x70000007
    997c:	8207822b 	andhi	r8, r7, #-1342177278	; 0xb0000002
    9980:	81c281e4 	bichi	r8, r2, r4, ror #3
    9984:	818281a2 	orrhi	r8, r2, r2, lsr #3
    9988:	81478164 	cmphi	r7, r4, ror #2
    998c:	8111812c 	tsthi	r1, ip, lsr #2
    9990:	80e080f8 	strdhi	r8, [r0], #8	; <UNPREDICTABLE>
    9994:	80b480c9 	adcshi	r8, r4, r9, asr #1
    9998:	808c809f 	umullhi	r8, ip, pc, r0	; <UNPREDICTABLE>
    999c:	806a807a 	rsbhi	r8, sl, sl, ror r0
    99a0:	804c805a 	subhi	r8, ip, sl, asr r0
    99a4:	8033803f 	eorshi	r8, r3, pc, lsr r0
    99a8:	80208029 	eorhi	r8, r0, r9, lsr #32
    99ac:	80118018 	andshi	r8, r1, r8, lsl r0
    99b0:	8007800b 	andhi	r8, r7, fp
    99b4:	80028004 	andhi	r8, r2, r4

000099b8 <putk>:
    99b8:	00008384 	andeq	r8, r0, r4, lsl #7

000099bc <rpi_putchar>:
    99bc:	00008fac 	andeq	r8, r0, ip, lsr #31

Disassembly of section .bss:

000099c0 <__bss_start__>:
	...

Disassembly of section .ARM.attributes:

00000000 <.ARM.attributes>:
   0:	00002a41 	andeq	r2, r0, r1, asr #20
   4:	61656100 	cmnvs	r5, r0, lsl #2
   8:	01006962 	tsteq	r0, r2, ror #18
   c:	00000020 	andeq	r0, r0, r0, lsr #32
  10:	4b5a3605 	blmi	168d82c <__bss_end__+0x1683a6c>
  14:	08070600 	stmdaeq	r7, {r9, sl}
  18:	12010901 	andne	r0, r1, #16384	; 0x4000
  1c:	15011404 	strne	r1, [r1, #-1028]	; 0xfffffbfc
  20:	18031701 	stmdane	r3, {r0, r8, r9, sl, ip}
  24:	22011a01 	andcs	r1, r1, #4096	; 0x1000
  28:	Address 0x0000000000000028 is out of bounds.


Disassembly of section .comment:

00000000 <.comment>:
   0:	3a434347 	bcc	10d0d24 <__bss_end__+0x10c6f64>
   4:	4e472820 	cdpmi	8, 4, cr2, cr7, cr0, {1}
   8:	6f542055 	svcvs	0x00542055
   c:	20736c6f 	rsbscs	r6, r3, pc, ror #24
  10:	20726f66 	rsbscs	r6, r2, r6, ror #30
  14:	206d7241 	rsbcs	r7, sp, r1, asr #4
  18:	65626d45 	strbvs	r6, [r2, #-3397]!	; 0xfffff2bb
  1c:	64656464 	strbtvs	r6, [r5], #-1124	; 0xfffffb9c
  20:	6f725020 	svcvs	0x00725020
  24:	73736563 	cmnvc	r3, #415236096	; 0x18c00000
  28:	2073726f 	rsbscs	r7, r3, pc, ror #4
  2c:	30322d39 	eorscc	r2, r2, r9, lsr sp
  30:	712d3931 			; <UNDEFINED> instruction: 0x712d3931
  34:	616d2d34 	cmnvs	sp, r4, lsr sp
  38:	29726f6a 	ldmdbcs	r2!, {r1, r3, r5, r6, r8, r9, sl, fp, sp, lr}^
  3c:	322e3920 	eorcc	r3, lr, #32, 18	; 0x80000
  40:	3220312e 	eorcc	r3, r0, #-2147483637	; 0x8000000b
  44:	31393130 	teqcc	r9, r0, lsr r1
  48:	20353230 	eorscs	r3, r5, r0, lsr r2
  4c:	6c657228 	sfmvs	f7, 2, [r5], #-160	; 0xffffff60
  50:	65736165 	ldrbvs	r6, [r3, #-357]!	; 0xfffffe9b
  54:	415b2029 	cmpmi	fp, r9, lsr #32
  58:	612f4d52 			; <UNDEFINED> instruction: 0x612f4d52
  5c:	392d6d72 	pushcc	{r1, r4, r5, r6, r8, sl, fp, sp, lr}
  60:	6172622d 	cmnvs	r2, sp, lsr #4
  64:	2068636e 	rsbcs	r6, r8, lr, ror #6
  68:	69766572 	ldmdbvs	r6!, {r1, r4, r5, r6, r8, sl, sp, lr}^
  6c:	6e6f6973 			; <UNDEFINED> instruction: 0x6e6f6973
  70:	37373220 	ldrcc	r3, [r7, -r0, lsr #4]!
  74:	5d393935 			; <UNDEFINED> instruction: 0x5d393935
  78:	43434700 	movtmi	r4, #14080	; 0x3700
  7c:	4728203a 			; <UNDEFINED> instruction: 0x4728203a
  80:	4120554e 			; <UNDEFINED> instruction: 0x4120554e
  84:	45206d72 	strmi	r6, [r0, #-3442]!	; 0xfffff28e
  88:	6465626d 	strbtvs	r6, [r5], #-621	; 0xfffffd93
  8c:	20646564 	rsbcs	r6, r4, r4, ror #10
  90:	6c6f6f54 	stclvs	15, cr6, [pc], #-336	; ffffff48 <__bss_end__+0xffff6188>
  94:	69616863 	stmdbvs	r1!, {r0, r1, r5, r6, fp, sp, lr}^
  98:	3031206e 	eorscc	r2, r1, lr, rrx
  9c:	322d332e 	eorcc	r3, sp, #-1207959552	; 0xb8000000
  a0:	2e313230 	mrccs	2, 1, r3, cr1, cr0, {1}
  a4:	20293031 	eorcs	r3, r9, r1, lsr r0
  a8:	332e3031 			; <UNDEFINED> instruction: 0x332e3031
  ac:	3220312e 	eorcc	r3, r0, #-2147483637	; 0x8000000b
  b0:	30313230 	eorscc	r3, r1, r0, lsr r2
  b4:	20343238 	eorscs	r3, r4, r8, lsr r2
  b8:	6c657228 	sfmvs	f7, 2, [r5], #-160	; 0xffffff60
  bc:	65736165 	ldrbvs	r6, [r3, #-357]!	; 0xfffffe9b
  c0:	Address 0x00000000000000c0 is out of bounds.


Disassembly of section .debug_info:

00000000 <.debug_info>:
       0:	00000187 	andeq	r0, r0, r7, lsl #3
       4:	00000004 	andeq	r0, r0, r4
       8:	01040000 	mrseq	r0, (UNDEF: 4)
       c:	000000b6 	strheq	r0, [r0], -r6
      10:	00001e0c 	andeq	r1, r0, ip, lsl #28
      14:	00004800 	andeq	r4, r0, r0, lsl #16
      18:	00803800 	addeq	r3, r0, r0, lsl #16
      1c:	00004800 	andeq	r4, r0, r0, lsl #16
      20:	00000000 	andeq	r0, r0, r0
      24:	05040200 	streq	r0, [r4, #-512]	; 0xfffffe00
      28:	00746e69 	rsbseq	r6, r4, r9, ror #28
      2c:	3b070403 	blcc	1c1040 <__bss_end__+0x1b7280>
      30:	03000000 	movweq	r0, #0
      34:	00aa0601 	adceq	r0, sl, r1, lsl #12
      38:	02030000 	andeq	r0, r3, #0, 0
      3c:	00018f05 	andeq	r8, r1, r5, lsl #30
      40:	03a20400 			; <UNDEFINED> instruction: 0x03a20400
      44:	28040000 	stmdacs	r4, {}	; <UNPREDICTABLE>
      48:	00004d18 	andeq	r4, r0, r8, lsl sp
      4c:	05040300 	streq	r0, [r4, #-768]	; 0xfffffd00
      50:	00000005 	andeq	r0, r0, r5
      54:	00050803 	andeq	r0, r5, r3, lsl #16
      58:	03000000 	movweq	r0, #0
      5c:	00a80801 	adceq	r0, r8, r1, lsl #16
      60:	02030000 	andeq	r0, r3, #0, 0
      64:	00017307 	andeq	r7, r1, r7, lsl #6
      68:	07040300 	streq	r0, [r4, -r0, lsl #6]
      6c:	00000036 	andeq	r0, r0, r6, lsr r0
      70:	31070803 	tstcc	r7, r3, lsl #16
      74:	05000000 	streq	r0, [r0, #-0]
      78:	00000025 	andeq	r0, r0, r5, lsr #32
      7c:	00000086 	andeq	r0, r0, r6, lsl #1
      80:	00002506 	andeq	r2, r0, r6, lsl #10
      84:	a6070000 	strge	r0, [r7], -r0
      88:	02000001 	andeq	r0, r0, #1, 0
      8c:	00920e1c 	addseq	r0, r2, ip, lsl lr
      90:	04080000 	streq	r0, [r8], #-0
      94:	00000077 	andeq	r0, r0, r7, ror r0
      98:	00002505 	andeq	r2, r0, r5, lsl #10
      9c:	0000a700 	andeq	sl, r0, r0, lsl #14
      a0:	00a70600 	adceq	r0, r7, r0, lsl #12
      a4:	08000000 	stmdaeq	r0, {}	; <UNPREDICTABLE>
      a8:	0000b404 	andeq	fp, r0, r4, lsl #8
      ac:	08010300 	stmdaeq	r1, {r8, r9}
      b0:	000000b1 	strheq	r0, [r0], -r1
      b4:	0000ad09 	andeq	sl, r0, r9, lsl #26
      b8:	077c0700 	ldrbeq	r0, [ip, -r0, lsl #14]!
      bc:	21020000 	mrscs	r0, (UNDEF: 2)
      c0:	0000c50e 	andeq	ip, r0, lr, lsl #10
      c4:	98040800 	stmdals	r4, {fp}
      c8:	0a000000 	beq	d0 <__code_start__-0x7f30>
      cc:	0000016b 	andeq	r0, r0, fp, ror #2
      d0:	38060801 	stmdacc	r6, {r0, fp}
      d4:	48000080 	stmdami	r0, {r7}
      d8:	01000000 	mrseq	r0, (UNDEF: 0)
      dc:	00015a9c 	muleq	r1, ip, sl
      e0:	00000b00 	andeq	r0, r0, r0, lsl #22
      e4:	01340000 	teqeq	r4, r0
      e8:	690c0000 	stmdbvs	ip, {}	; <UNPREDICTABLE>
      ec:	0e100100 	mufeqs	f0, f0, f0
      f0:	00000025 	andeq	r0, r0, r5, lsr #32
      f4:	00000002 	andeq	r0, r0, r2
      f8:	00000000 	andeq	r0, r0, r0
      fc:	0080480d 	addeq	r4, r0, sp, lsl #16
     100:	00001800 	andeq	r1, r0, r0, lsl #16
     104:	00170e00 	andseq	r0, r7, r0, lsl #28
     108:	11010000 	mrsne	r0, (UNDEF: 1)
     10c:	00004111 	andeq	r4, r0, r1, lsl r1
     110:	00001a00 	andeq	r1, r0, r0, lsl #20
     114:	00001600 	andeq	r1, r0, r0, lsl #12
     118:	80500f00 	subshi	r0, r0, r0, lsl #30
     11c:	015a0000 	cmpeq	sl, r0
     120:	60100000 	andsvs	r0, r0, r0
     124:	66000080 	strvs	r0, [r0], -r0, lsl #1
     128:	11000001 	tstne	r0, r1
     12c:	75025001 	strvc	r5, [r2, #-1]
     130:	00000000 	andeq	r0, r0, r0
     134:	0080400f 	addeq	r4, r0, pc
     138:	00017200 	andeq	r7, r1, r0, lsl #4
     13c:	80440f00 	subhi	r0, r4, r0, lsl #30
     140:	017e0000 	cmneq	lr, r0
     144:	74120000 	ldrvc	r0, [r2], #-0
     148:	66000080 	strvs	r0, [r0], -r0, lsl #1
     14c:	11000001 	tstne	r0, r1
     150:	03055001 	movweq	r5, #20481	; 0x5001
     154:	000090a0 	andeq	r9, r0, r0, lsr #1
     158:	0e130000 	cdpeq	0, 1, cr0, cr3, cr0, {0}
     15c:	0e000000 	cdpeq	0, 0, cr0, cr0, cr0, {0}
     160:	03000000 	movweq	r0, #0
     164:	fa130981 	blx	4c2770 <__bss_end__+0x4b89b0>
     168:	fa000006 	blx	188 <__code_start__-0x7e78>
     16c:	02000006 	andeq	r0, r0, #6, 0
     170:	99130628 	ldmdbls	r3, {r3, r5, r9, sl}
     174:	99000001 	stmdbls	r0, {r0}
     178:	02000001 	andeq	r0, r0, #1, 0
     17c:	861306a5 	ldrhi	r0, [r3], -r5, lsr #13
     180:	86000001 	strhi	r0, [r0], -r1
     184:	03000001 	movweq	r0, #1
     188:	f300067e 	vmin.u8	q0, q0, q15
     18c:	04000008 	streq	r0, [r0], #-8
     190:	00010700 	andeq	r0, r1, r0, lsl #14
     194:	b6010400 	strlt	r0, [r1], -r0, lsl #8
     198:	0c000000 	stceq	0, cr0, [r0], {-0}
     19c:	0000026d 	andeq	r0, r0, sp, ror #4
     1a0:	00000048 	andeq	r0, r0, r8, asr #32
     1a4:	00008080 	andeq	r8, r0, r0, lsl #1
     1a8:	000001a8 	andeq	r0, r0, r8, lsr #3
     1ac:	00000166 	andeq	r0, r0, r6, ror #2
     1b0:	69050402 	stmdbvs	r5, {r1, sl}
     1b4:	0300746e 	movweq	r7, #1134	; 0x46e
     1b8:	003b0704 	eorseq	r0, fp, r4, lsl #14
     1bc:	01030000 	mrseq	r0, (UNDEF: 3)
     1c0:	0000aa06 	andeq	sl, r0, r6, lsl #20
     1c4:	05020300 	streq	r0, [r2, #-768]	; 0xfffffd00
     1c8:	0000018f 	andeq	r0, r0, pc, lsl #3
     1cc:	0003a204 	andeq	sl, r3, r4, lsl #4
     1d0:	18280300 	stmdane	r8!, {r8, r9}
     1d4:	0000004d 	andeq	r0, r0, sp, asr #32
     1d8:	05050403 	streq	r0, [r5, #-1027]	; 0xfffffbfd
     1dc:	03000000 	movweq	r0, #0
     1e0:	00000508 	andeq	r0, r0, r8, lsl #10
     1e4:	01030000 	mrseq	r0, (UNDEF: 3)
     1e8:	0000a808 	andeq	sl, r0, r8, lsl #16
     1ec:	07020300 	streq	r0, [r2, -r0, lsl #6]
     1f0:	00000173 	andeq	r0, r0, r3, ror r1
     1f4:	0003a104 	andeq	sl, r3, r4, lsl #2
     1f8:	19340300 	ldmdbne	r4!, {r8, r9}
     1fc:	00000075 	andeq	r0, r0, r5, ror r0
     200:	36070403 	strcc	r0, [r7], -r3, lsl #8
     204:	03000000 	movweq	r0, #0
     208:	00310708 	eorseq	r0, r1, r8, lsl #14
     20c:	25050000 	strcs	r0, [r5, #-0]
     210:	92000000 	andls	r0, r0, #0, 0
     214:	06000000 	streq	r0, [r0], -r0
     218:	00000025 	andeq	r0, r0, r5, lsr #32
     21c:	01a60700 			; <UNDEFINED> instruction: 0x01a60700
     220:	1c040000 	stcne	0, cr0, [r4], {-0}
     224:	00009e0e 	andeq	r9, r0, lr, lsl #28
     228:	83040800 	movwhi	r0, #18432	; 0x4800
     22c:	05000000 	streq	r0, [r0, #-0]
     230:	00000025 	andeq	r0, r0, r5, lsr #32
     234:	000000b3 	strheq	r0, [r0], -r3
     238:	0000b306 	andeq	fp, r0, r6, lsl #6
     23c:	04080000 	streq	r0, [r8], #-0
     240:	000000c0 	andeq	r0, r0, r0, asr #1
     244:	b1080103 	tstlt	r8, r3, lsl #2
     248:	09000000 	stmdbeq	r0, {}	; <UNPREDICTABLE>
     24c:	000000b9 	strheq	r0, [r0], -r9
     250:	00077c07 	andeq	r7, r7, r7, lsl #24
     254:	0e210400 	cdpeq	4, 2, cr0, cr1, cr0, {0}
     258:	000000d1 	ldrdeq	r0, [r0], -r1
     25c:	00a40408 	adceq	r0, r4, r8, lsl #8
     260:	070a0000 	streq	r0, [sl, -r0]
     264:	00005b01 	andeq	r5, r0, r1, lsl #22
     268:	0e0c0600 	cfmadd32eq	mvax0, mvfx0, mvfx12, mvfx0
     26c:	00000116 	andeq	r0, r0, r6, lsl r1
     270:	0003860b 	andeq	r8, r3, fp, lsl #12
     274:	2a0b0000 	bcs	2c027c <__bss_end__+0x2b64bc>
     278:	01000002 	tsteq	r0, r2
     27c:	0003590b 	andeq	r5, r3, fp, lsl #18
     280:	730b0400 	movwvc	r0, #46080	; 0xb400
     284:	05000002 	streq	r0, [r0, #-2]
     288:	0002820b 	andeq	r8, r2, fp, lsl #4
     28c:	910b0600 	tstls	fp, r0, lsl #12
     290:	07000002 	streq	r0, [r0, -r2]
     294:	0002a00b 	andeq	sl, r2, fp
     298:	af0b0300 	svcge	0x000b0300
     29c:	02000002 	andeq	r0, r0, #2, 0
     2a0:	05240c00 	streq	r0, [r4, #-3072]!	; 0xfffff400
     2a4:	01940910 	orrseq	r0, r4, r0, lsl r9
     2a8:	630d0000 	movwvs	r0, #53248	; 0xd000
     2ac:	11050073 	tstne	r5, r3, ror r0
     2b0:	0000690e 	andeq	r6, r0, lr, lsl #18
     2b4:	e80e0000 	stmda	lr, {}	; <UNPREDICTABLE>
     2b8:	05000003 	streq	r0, [r0, #-3]
     2bc:	00690e12 	rsbeq	r0, r9, r2, lsl lr
     2c0:	0e040000 	cdpeq	0, 0, cr0, cr4, cr0, {0}
     2c4:	00000254 	andeq	r0, r0, r4, asr r2
     2c8:	690e1305 	stmdbvs	lr, {r0, r2, r8, r9, ip}
     2cc:	08000000 	stmdaeq	r0, {}	; <UNPREDICTABLE>
     2d0:	0004f80e 	andeq	pc, r4, lr, lsl #16
     2d4:	0e140500 	cfmul32eq	mvfx0, mvfx4, mvfx0
     2d8:	00000069 	andeq	r0, r0, r9, rrx
     2dc:	04c30e0c 	strbeq	r0, [r3], #3596	; 0xe0c
     2e0:	15050000 	strne	r0, [r5, #-0]
     2e4:	0000690e 	andeq	r6, r0, lr, lsl #18
     2e8:	760e1000 	strvc	r1, [lr], -r0
     2ec:	05000004 	streq	r0, [r0, #-4]
     2f0:	00690e16 	rsbeq	r0, r9, r6, lsl lr
     2f4:	0e140000 	cdpeq	0, 1, cr0, cr4, cr0, {0}
     2f8:	0000023b 	andeq	r0, r0, fp, lsr r2
     2fc:	690e1705 	stmdbvs	lr, {r0, r2, r8, r9, sl, ip}
     300:	18000000 	stmdane	r0, {}	; <UNPREDICTABLE>
     304:	0001ea0e 	andeq	lr, r1, lr, lsl #20
     308:	0e180500 	cfmul32eq	mvfx0, mvfx8, mvfx0
     30c:	00000069 	andeq	r0, r0, r9, rrx
     310:	021a0e1c 	andseq	r0, sl, #28, 28	; 0x1c0
     314:	19050000 	stmdbne	r5, {}	; <UNPREDICTABLE>
     318:	0000690e 	andeq	r6, r0, lr, lsl #18
     31c:	04002000 	streq	r2, [r0], #-0
     320:	0000021f 	andeq	r0, r0, pc, lsl r2
     324:	16031a05 	strne	r1, [r3], -r5, lsl #20
     328:	0f000001 	svceq	0x00000001
     32c:	00000194 	muleq	r0, r4, r1
     330:	5b01070a 	blpl	41f60 <__bss_end__+0x381a0>
     334:	05000000 	streq	r0, [r0, #-0]
     338:	02020e31 	andeq	r0, r2, #784	; 0x310
     33c:	c90b0000 	stmdbgt	fp, {}	; <UNPREDICTABLE>
     340:	00000001 	andeq	r0, r0, r1
     344:	0004b70b 	andeq	fp, r4, fp, lsl #14
     348:	bc0b0100 	stflts	f0, [fp], {-0}
     34c:	04000001 	streq	r0, [r0], #-1
     350:	0004110b 	andeq	r1, r4, fp, lsl #2
     354:	d60b0700 	strle	r0, [fp], -r0, lsl #14
     358:	08000004 	stmdaeq	r0, {r2}
     35c:	0003bb0b 	andeq	fp, r3, fp, lsl #22
     360:	2f0b0e00 	svccs	0x000b0e00
     364:	10000003 	andne	r0, r0, r3
     368:	0003960b 	andeq	r9, r3, fp, lsl #12
     36c:	6b0b1200 	blvs	2c4b74 <__bss_end__+0x2badb4>
     370:	14000004 	strne	r0, [r0], #-4
     374:	00036e0b 	andeq	r6, r3, fp, lsl #28
     378:	fb0b1600 	blx	2c5b82 <__bss_end__+0x2bbdc2>
     37c:	17000002 	strne	r0, [r0, -r2]
     380:	00042f0b 	andeq	r2, r4, fp, lsl #30
     384:	590b1800 	stmdbpl	fp, {fp, ip}
     388:	19000002 	stmdbne	r0, {r1}
     38c:	01070a00 	tsteq	r7, r0, lsl #20
     390:	0000005b 	andeq	r0, r0, fp, asr r0
     394:	290e4205 	stmdbcs	lr, {r0, r2, r9, lr}
     398:	0b000002 	bleq	3a8 <__code_start__-0x7c58>
     39c:	000003ed 	andeq	r0, r0, sp, ror #7
     3a0:	04e60b00 	strbteq	r0, [r6], #2816	; 0xb00
     3a4:	0b090000 	bleq	2403ac <__bss_end__+0x2365ec>
     3a8:	000003aa 	andeq	r0, r0, sl, lsr #7
     3ac:	05180b0a 	ldreq	r0, [r8, #-2826]	; 0xfffff4f6
     3b0:	00130000 	andseq	r0, r3, r0
     3b4:	5b01070a 	blpl	41fe4 <__bss_end__+0x38224>
     3b8:	05000000 	streq	r0, [r0, #-0]
     3bc:	02800e4a 	addeq	r0, r0, #1184	; 0x4a0
     3c0:	3b0b0000 	blcc	2c03c8 <__bss_end__+0x2b6608>
     3c4:	00000004 	andeq	r0, r0, r4
     3c8:	0002cf0b 	andeq	ip, r2, fp, lsl #30
     3cc:	590b0300 	stmdbpl	fp, {r8, r9}
     3d0:	04000004 	streq	r0, [r0], #-4
     3d4:	0003080b 	andeq	r0, r3, fp, lsl #16
     3d8:	210b0d00 	tstcs	fp, r0, lsl #26
     3dc:	0e000004 	cdpeq	0, 0, cr0, cr0, cr4, {0}
     3e0:	00020b0b 	andeq	r0, r2, fp, lsl #22
     3e4:	ff0b0f00 			; <UNDEFINED> instruction: 0xff0b0f00
     3e8:	10000003 	andne	r0, r0, r3
     3ec:	0001d80b 	andeq	sp, r1, fp, lsl #16
     3f0:	f90b1300 			; <UNDEFINED> instruction: 0xf90b1300
     3f4:	14000001 	strne	r0, [r0], #-1
     3f8:	0004ff0b 	andeq	pc, r4, fp, lsl #30
     3fc:	da0b1d00 	ble	2c7804 <__bss_end__+0x2bda44>
     400:	1e000003 	cdpne	0, 0, cr0, cr0, cr3, {0}
     404:	0004850b 	andeq	r8, r4, fp, lsl #10
     408:	0c001f00 	stceq	15, cr1, [r0], {-0}
     40c:	096d05a0 	stmdbeq	sp!, {r5, r7, r8, sl}^
     410:	000002b1 			; <UNDEFINED> instruction: 0x000002b1
     414:	0004a60e 	andeq	sl, r4, lr, lsl #12
     418:	0e6e0500 	cdpeq	5, 6, cr0, cr14, cr0, {0}
     41c:	000002b1 			; <UNDEFINED> instruction: 0x000002b1
     420:	024b0e00 	subeq	r0, fp, #0, 28
     424:	6f050000 	svcvs	0x00050000
     428:	0000690e 	andeq	r6, r0, lr, lsl #18
     42c:	1a0e9800 	bne	3a6434 <__bss_end__+0x39c674>
     430:	05000003 	streq	r0, [r0, #-3]
     434:	00690e70 	rsbeq	r0, r9, r0, ror lr
     438:	009c0000 	addseq	r0, ip, r0
     43c:	00006910 	andeq	r6, r0, r0, lsl r9
     440:	0002c100 	andeq	ip, r2, r0, lsl #2
     444:	002c1100 	eoreq	r1, ip, r0, lsl #2
     448:	00250000 	eoreq	r0, r5, r0
     44c:	0001b204 	andeq	fp, r1, r4, lsl #4
     450:	03710500 	cmneq	r1, #0, 10
     454:	00000280 	andeq	r0, r0, r0, lsl #5
     458:	0002c10f 	andeq	ip, r2, pc, lsl #2
     45c:	02be1200 	adcseq	r1, lr, #0, 4
     460:	04020000 	streq	r0, [r2], #-0
     464:	0002e416 	andeq	lr, r2, r6, lsl r4
     468:	b4030500 	strlt	r0, [r3], #-1280	; 0xfffffb00
     46c:	08000093 	stmdaeq	r0, {r0, r1, r4, r7}
     470:	0001a004 	andeq	sl, r1, r4
     474:	03d21200 	bicseq	r1, r2, #0, 4
     478:	05020000 	streq	r0, [r2, #-0]
     47c:	0002fc15 	andeq	pc, r2, r5, lsl ip	; <UNPREDICTABLE>
     480:	b0030500 	andlt	r0, r3, r0, lsl #10
     484:	08000093 	stmdaeq	r0, {r0, r1, r4, r7}
     488:	0002cd04 	andeq	ip, r2, r4, lsl #26
     48c:	04070a00 	streq	r0, [r7], #-2560	; 0xfffff600
     490:	0000002c 	andeq	r0, r0, ip, lsr #32
     494:	47060902 	strmi	r0, [r6, -r2, lsl #18]
     498:	13000003 	movwne	r0, #3
     49c:	00000242 	andeq	r0, r0, r2, asr #4
     4a0:	20101098 	mulscs	r0, r8, r0
     4a4:	00026513 	andeq	r6, r2, r3, lsl r5
     4a8:	10109c00 	andsne	r9, r0, r0, lsl #24
     4ac:	01f21320 	mvnseq	r1, r0, lsr #6
     4b0:	30080000 	andcc	r0, r8, r0
     4b4:	68132020 	ldmdavs	r3, {r5, sp}
     4b8:	0c000003 	stceq	0, cr0, [r0], {3}
     4bc:	13202030 			; <UNDEFINED> instruction: 0x13202030
     4c0:	000001d3 	ldrdeq	r0, [r0], -r3
     4c4:	20203000 	eorcs	r3, r0, r0
     4c8:	00051113 	andeq	r1, r5, r3, lsl r1
     4cc:	20300400 	eorscs	r0, r0, r0, lsl #8
     4d0:	0e140020 	cdpeq	0, 1, cr0, cr4, cr0, {1}
     4d4:	02000000 	andeq	r0, r0, #0, 0
     4d8:	00410957 	subeq	r0, r1, r7, asr r9
     4dc:	81f80000 	mvnshi	r0, r0
     4e0:	00300000 	eorseq	r0, r0, r0
     4e4:	9c010000 	stcls	0, cr0, [r1], {-0}
     4e8:	000003a6 	andeq	r0, r0, r6, lsr #7
     4ec:	6c617615 	stclvs	6, cr7, [r1], #-84	; 0xffffffac
     4f0:	0e590200 	cdpeq	2, 5, cr0, cr9, cr0, {0}
     4f4:	0000002c 	andeq	r0, r0, ip, lsr #32
     4f8:	0000003c 	andeq	r0, r0, ip, lsr r0
     4fc:	00000038 	andeq	r0, r0, r8, lsr r0
     500:	00820016 	addeq	r0, r2, r6, lsl r0
     504:	0008a200 	andeq	sl, r8, r0, lsl #4
     508:	820c1700 	andhi	r1, ip, #0, 14
     50c:	08ae0000 	stmiaeq	lr!, {}	; <UNPREDICTABLE>
     510:	03920000 	orrseq	r0, r2, #0, 0
     514:	01180000 	tsteq	r8, r0
     518:	00740250 	rsbseq	r0, r4, r0, asr r2
     51c:	82201900 	eorhi	r1, r0, #0, 18
     520:	08ae0000 	stmiaeq	lr!, {}	; <UNPREDICTABLE>
     524:	01180000 	tsteq	r8, r0
     528:	040c0550 	streq	r0, [ip], #-1360	; 0xfffffab0
     52c:	00202030 	eoreq	r2, r0, r0, lsr r0
     530:	01861a00 	orreq	r1, r6, r0, lsl #20
     534:	1b020000 	blne	8053c <__bss_end__+0x7677c>
     538:	0080c006 	addeq	ip, r0, r6
     53c:	00013800 	andeq	r3, r1, r0, lsl #16
     540:	409c0100 	addsmi	r0, ip, r0, lsl #2
     544:	1b000006 	blne	564 <__code_start__-0x7a9c>
     548:	00000322 	andeq	r0, r0, r2, lsr #6
     54c:	00000650 	andeq	r0, r0, r0, asr r6
     550:	91640305 	cmnls	r4, r5, lsl #6
     554:	76150000 	ldrvc	r0, [r5], -r0
     558:	02006c61 	andeq	r6, r0, #24832	; 0x6100
     55c:	002c0e2b 	eoreq	r0, ip, fp, lsr #28
     560:	00890000 	addeq	r0, r9, r0
     564:	005b0000 	subseq	r0, fp, r0
     568:	551c0000 	ldrpl	r0, [ip, #-0]
     56c:	20000006 	andcs	r0, r0, r6
     570:	53000081 	movwpl	r0, #129	; 0x81
     574:	00001800 	andeq	r1, r0, r0, lsl #16
     578:	0b2e0200 	bleq	b80d80 <__bss_end__+0xb76fc0>
     57c:	00000403 	andeq	r0, r0, r3, lsl #8
     580:	0006661d 	andeq	r6, r6, sp, lsl r6
     584:	00022f00 	andeq	r2, r2, r0, lsl #30
     588:	00022d00 	andeq	r2, r2, r0, lsl #26
     58c:	551c0000 	ldrpl	r0, [ip, #-0]
     590:	50000006 	andpl	r0, r0, r6
     594:	53000081 	movwpl	r0, #129	; 0x81
     598:	00003000 	andeq	r3, r0, r0
     59c:	0b3f0200 	bleq	fc0da4 <__bss_end__+0xfb6fe4>
     5a0:	00000427 	andeq	r0, r0, r7, lsr #8
     5a4:	0006661d 	andeq	r6, r6, sp, lsl r6
     5a8:	00024e00 	andeq	r4, r2, r0, lsl #28
     5ac:	00024c00 	andeq	r4, r2, r0, lsl #24
     5b0:	551c0000 	ldrpl	r0, [ip, #-0]
     5b4:	70000006 	andvc	r0, r0, r6
     5b8:	36000081 	strcc	r0, [r0], -r1, lsl #1
     5bc:	00004800 	andeq	r4, r0, r0, lsl #16
     5c0:	0b460200 	bleq	1180dc8 <__bss_end__+0x1177008>
     5c4:	0000044b 	andeq	r0, r0, fp, asr #8
     5c8:	0006661d 	andeq	r6, r6, sp, lsl r6
     5cc:	00026e00 	andeq	r6, r2, r0, lsl #28
     5d0:	00026c00 	andeq	r6, r2, r0, lsl #24
     5d4:	551e0000 	ldrpl	r0, [lr, #-0]
     5d8:	8c000006 	stchi	0, cr0, [r0], {6}
     5dc:	19000081 	stmdbne	r0, {r0, r7}
     5e0:	00818c00 	addeq	r8, r1, r0, lsl #24
     5e4:	00000000 	andeq	r0, r0, r0
     5e8:	0b4e0200 	bleq	1380df0 <__bss_end__+0x1377030>
     5ec:	00000473 	andeq	r0, r0, r3, ror r4
     5f0:	0006661d 	andeq	r6, r6, sp, lsl r6
     5f4:	00029100 	andeq	r9, r2, r0, lsl #2
     5f8:	00028f00 	andeq	r8, r2, r0, lsl #30
     5fc:	d0170000 	andsle	r0, r7, r0
     600:	ae000080 	cdpge	0, 0, cr0, cr0, cr0, {4}
     604:	8a000008 	bhi	62c <__code_start__-0x79d4>
     608:	18000004 	stmdane	r0, {r2}
     60c:	0c055001 	stceq	0, cr5, [r5], {1}
     610:	20203000 	eorcs	r3, r0, r0
     614:	80e41700 	rschi	r1, r4, r0, lsl #14
     618:	08ba0000 	ldmeq	sl!, {}	; <UNPREDICTABLE>
     61c:	04a20000 	strteq	r0, [r2], #0
     620:	01180000 	tsteq	r8, r0
     624:	18420150 	stmdane	r2, {r4, r6, r8}^
     628:	34015101 	strcc	r5, [r1], #-257	; 0xfffffeff
     62c:	80f01700 	rscshi	r1, r0, r0, lsl #14
     630:	08ba0000 	ldmeq	sl!, {}	; <UNPREDICTABLE>
     634:	04ba0000 	ldrteq	r0, [sl], #0
     638:	01180000 	tsteq	r8, r0
     63c:	18430150 	stmdane	r3, {r4, r6, r8}^
     640:	34015101 	strcc	r5, [r1], #-257	; 0xfffffeff
     644:	80fc1700 	rscshi	r1, ip, r0, lsl #14
     648:	08ba0000 	ldmeq	sl!, {}	; <UNPREDICTABLE>
     64c:	04d20000 	ldrbeq	r0, [r2], #0
     650:	01180000 	tsteq	r8, r0
     654:	18440150 	stmdane	r4, {r4, r6, r8}^
     658:	34015101 	strcc	r5, [r1], #-257	; 0xfffffeff
     65c:	81041700 	tsthi	r4, r0, lsl #14
     660:	08c60000 	stmiaeq	r6, {}^	; <UNPREDICTABLE>
     664:	04e50000 	strbteq	r0, [r5], #0
     668:	01180000 	tsteq	r8, r0
     66c:	00420150 	subeq	r0, r2, r0, asr r1
     670:	00810c17 	addeq	r0, r1, r7, lsl ip
     674:	0008c600 	andeq	ip, r8, r0, lsl #12
     678:	0004f800 	andeq	pc, r4, r0, lsl #16
     67c:	50011800 	andpl	r1, r1, r0, lsl #16
     680:	17004301 	strne	r4, [r0, -r1, lsl #6]
     684:	00008114 	andeq	r8, r0, r4, lsl r1
     688:	000008c6 	andeq	r0, r0, r6, asr #17
     68c:	0000050b 	andeq	r0, r0, fp, lsl #10
     690:	01500118 	cmpeq	r0, r8, lsl r1
     694:	18160044 	ldmdane	r6, {r2, r6}
     698:	a2000081 	andge	r0, r0, #129, 0	; 0x81
     69c:	17000008 	strne	r0, [r0, -r8]
     6a0:	00008120 	andeq	r8, r0, r0, lsr #2
     6a4:	000008ae 	andeq	r0, r0, lr, lsr #17
     6a8:	0000052b 	andeq	r0, r0, fp, lsr #10
     6ac:	05500118 	ldrbeq	r0, [r0, #-280]	; 0xfffffee8
     6b0:	1010980c 	andsne	r9, r0, ip, lsl #16
     6b4:	38170020 	ldmdacc	r7, {r5}
     6b8:	d2000081 	andle	r0, r0, #129, 0	; 0x81
     6bc:	42000008 	andmi	r0, r0, #8, 0
     6c0:	18000005 	stmdane	r0, {r0, r2}
     6c4:	0c055001 	stceq	0, cr5, [r5], {1}
     6c8:	20101098 	mulscs	r0, r8, r0
     6cc:	81441700 	cmphi	r4, r0, lsl #14
     6d0:	08d20000 	ldmeq	r2, {}^	; <UNPREDICTABLE>
     6d4:	05620000 	strbeq	r0, [r2, #-0]!
     6d8:	01180000 	tsteq	r8, r0
     6dc:	9c0c0550 	cfstr32ls	mvfx0, [ip], {80}	; 0x50
     6e0:	18201010 	stmdane	r0!, {r4, ip}
     6e4:	0c055101 	stfeqs	f5, [r5], {1}
     6e8:	5a006cd8 	bpl	1ba50 <__bss_end__+0x11c90>
     6ec:	81481600 	cmphi	r8, r0, lsl #12
     6f0:	08a20000 	stmiaeq	r2!, {}	; <UNPREDICTABLE>
     6f4:	50170000 	andspl	r0, r7, r0
     6f8:	ae000081 	cdpge	0, 0, cr0, cr0, cr1, {4}
     6fc:	82000008 	andhi	r0, r0, #8, 0
     700:	18000005 	stmdane	r0, {r0, r2}
     704:	0c055001 	stceq	0, cr5, [r5], {1}
     708:	20203008 	eorcs	r3, r0, r8
     70c:	81681700 	cmnhi	r8, r0, lsl #14
     710:	08d20000 	ldmeq	r2, {}^	; <UNPREDICTABLE>
     714:	05990000 	ldreq	r0, [r9]
     718:	01180000 	tsteq	r8, r0
     71c:	080c0550 	stmdaeq	ip, {r4, r6, r8, sl}
     720:	00202030 	eoreq	r2, r0, r0, lsr r0
     724:	00817017 	addeq	r7, r1, r7, lsl r0
     728:	0008ae00 	andeq	sl, r8, r0, lsl #28
     72c:	0005b000 	andeq	fp, r5, r0
     730:	50011800 	andpl	r1, r1, r0, lsl #16
     734:	300c0c05 	andcc	r0, ip, r5, lsl #24
     738:	17002020 	strne	r2, [r0, -r0, lsr #32]
     73c:	00008184 	andeq	r8, r0, r4, lsl #3
     740:	000008d2 	ldrdeq	r0, [r0], -r2
     744:	000005c7 	andeq	r0, r0, r7, asr #11
     748:	05500118 	ldrbeq	r0, [r0, #-280]	; 0xfffffee8
     74c:	20300c0c 	eorscs	r0, r0, ip, lsl #24
     750:	8c170020 	ldchi	0, cr0, [r7], {32}
     754:	ae000081 	cdpge	0, 0, cr0, cr0, cr1, {4}
     758:	de000008 	cdple	0, 0, cr0, cr0, cr8, {0}
     75c:	18000005 	stmdane	r0, {r0, r2}
     760:	0c055001 	stceq	0, cr5, [r5], {1}
     764:	20203000 	eorcs	r3, r0, r0
     768:	819c1700 	orrshi	r1, ip, r0, lsl #14
     76c:	08d20000 	ldmeq	r2, {}^	; <UNPREDICTABLE>
     770:	05f50000 	ldrbeq	r0, [r5, #0]!
     774:	01180000 	tsteq	r8, r0
     778:	000c0550 	andeq	r0, ip, r0, asr r5
     77c:	00202030 	eoreq	r2, r0, r0, lsr r0
     780:	0081a81f 	addeq	sl, r1, pc, lsl r8
     784:	0008a200 	andeq	sl, r8, r0, lsl #4
     788:	81c41700 	bichi	r1, r4, r0, lsl #14
     78c:	08de0000 	ldmeq	lr, {}^	; <UNPREDICTABLE>
     790:	06360000 	ldrteq	r0, [r6], -r0
     794:	01180000 	tsteq	r8, r0
     798:	00030550 	andeq	r0, r3, r0, asr r5
     79c:	18000091 	stmdane	r0, {r0, r4, r7}
     7a0:	03055101 	movweq	r5, #20737	; 0x5101
     7a4:	0000912c 	andeq	r9, r0, ip, lsr #2
     7a8:	05520118 	ldrbeq	r0, [r2, #-280]	; 0xfffffee8
     7ac:	00916403 	addseq	r6, r1, r3, lsl #8
     7b0:	53011800 	movwpl	r1, #6144	; 0x1800
     7b4:	02184c01 	andseq	r4, r8, #256	; 0x100
     7b8:	0305007d 	movweq	r0, #20605	; 0x507d
     7bc:	00009134 	andeq	r9, r0, r4, lsr r1
     7c0:	81c81600 	bichi	r1, r8, r0, lsl #12
     7c4:	08ea0000 	stmiaeq	sl!, {}^	; <UNPREDICTABLE>
     7c8:	10000000 	andne	r0, r0, r0
     7cc:	000000c0 	andeq	r0, r0, r0, asr #1
     7d0:	00000650 	andeq	r0, r0, r0, asr r6
     7d4:	00002c11 	andeq	r2, r0, r1, lsl ip
     7d8:	09000800 	stmdbeq	r0, {fp}
     7dc:	00000640 	andeq	r0, r0, r0, asr #12
     7e0:	00037920 	andeq	r7, r3, r0, lsr #18
     7e4:	0a140200 	beq	500fec <__bss_end__+0x4f722c>
     7e8:	00000069 	andeq	r0, r0, r9, rrx
     7ec:	00067301 	andeq	r7, r6, r1, lsl #6
     7f0:	61762100 	cmnvs	r6, r0, lsl #2
     7f4:	1402006c 	strne	r0, [r2], #-108	; 0xffffff94
     7f8:	00006920 	andeq	r6, r0, r0, lsr #18
     7fc:	c9220000 	stmdbgt	r2!, {}	; <UNPREDICTABLE>
     800:	01000003 	tsteq	r0, r3
     804:	0069014d 	rsbeq	r0, r9, sp, asr #2
     808:	c8030000 	stmdagt	r3, {}	; <UNPREDICTABLE>
     80c:	21000006 	tstcs	r0, r6
     810:	4d010078 	stcmi	0, cr0, [r1, #-480]	; 0xfffffe20
     814:	00006913 	andeq	r6, r0, r3, lsl r9
     818:	626c2100 	rsbvs	r2, ip, #0
     81c:	1f4d0100 	svcne	0x004d0100
     820:	0000002c 	andeq	r0, r0, ip, lsr #32
     824:	00627521 	rsbeq	r7, r2, r1, lsr #10
     828:	2c2c4d01 	stccs	13, cr4, [ip], #-4
     82c:	21000000 	mrscs	r0, (UNDEF: 0)
     830:	4d010076 	stcmi	0, cr0, [r1, #-472]	; 0xfffffe28
     834:	00006939 	andeq	r6, r0, r9, lsr r9
     838:	03221b00 			; <UNDEFINED> instruction: 0x03221b00
     83c:	06500000 	ldrbeq	r0, [r0], -r0
     840:	03050000 	movweq	r0, #20480	; 0x5000
     844:	00009158 	andeq	r9, r0, r8, asr r1
     848:	01006e23 	tsteq	r0, r3, lsr #28
     84c:	002c0e56 	eoreq	r0, ip, r6, asr lr
     850:	22000000 	andcs	r0, r0, #0, 0
     854:	000002e7 	andeq	r0, r0, r7, ror #5
     858:	69014101 	stmdbvs	r1, {r0, r8, lr}
     85c:	03000000 	movweq	r0, #0
     860:	0000070f 	andeq	r0, r0, pc, lsl #14
     864:	01007821 	tsteq	r0, r1, lsr #16
     868:	00691341 	rsbeq	r1, r9, r1, asr #6
     86c:	6c210000 	stcvs	0, cr0, [r1], #-0
     870:	41010062 	tstmi	r1, r2, rrx
     874:	00002c1f 	andeq	r2, r0, pc, lsl ip
     878:	62752100 	rsbsvs	r2, r5, #0
     87c:	2c410100 	stfcse	f0, [r1], {-0}
     880:	0000002c 	andeq	r0, r0, ip, lsr #32
     884:	00032224 	andeq	r2, r3, r4, lsr #4
     888:	00065000 	andeq	r5, r6, r0
     88c:	04802500 	streq	r2, [r0], #1280	; 0x500
     890:	45010000 	strmi	r0, [r1, #-0]
     894:	0000690e 	andeq	r6, r0, lr, lsl #18
     898:	7b220000 	blvc	8808a0 <__bss_end__+0x876ae0>
     89c:	01000004 	tsteq	r0, r4
     8a0:	0069182f 	rsbeq	r1, r9, pc, lsr #16
     8a4:	36030000 	strcc	r0, [r3], -r0
     8a8:	26000007 	strcs	r0, [r0], -r7
     8ac:	000002e1 	andeq	r0, r0, r1, ror #5
     8b0:	2c2b2f01 	stccs	15, cr2, [fp], #-4
     8b4:	24000000 	strcs	r0, [r0], #-0
     8b8:	00000322 	andeq	r0, r0, r2, lsr #6
     8bc:	00000746 	andeq	r0, r0, r6, asr #14
     8c0:	00c01000 	sbceq	r1, r0, r0
     8c4:	07460000 	strbeq	r0, [r6, -r0]
     8c8:	2c110000 	ldccs	0, cr0, [r1], {-0}
     8cc:	09000000 	stmdbeq	r0, {}	; <UNPREDICTABLE>
     8d0:	07360900 	ldreq	r0, [r6, -r0, lsl #18]!
     8d4:	f0220000 			; <UNDEFINED> instruction: 0xf0220000
     8d8:	01000002 	tsteq	r0, r2
     8dc:	002c0123 	eoreq	r0, ip, r3, lsr #2
     8e0:	73030000 	movwvc	r0, #12288	; 0x3000
     8e4:	21000007 	tstcs	r0, r7
     8e8:	23010078 	movwcs	r0, #4216	; 0x1078
     8ec:	00006915 	andeq	r6, r0, r5, lsl r9
     8f0:	69622100 	stmdbvs	r2!, {r8, sp}^
     8f4:	23010074 	movwcs	r0, #4212	; 0x1074
     8f8:	00002c21 	andeq	r2, r0, r1, lsr #24
     8fc:	4f220000 	svcmi	0x00220000
     900:	01000003 	tsteq	r0, r3
     904:	002c011e 	eoreq	r0, ip, lr, lsl r1
     908:	a8030000 	stmdage	r3, {}	; <UNPREDICTABLE>
     90c:	21000007 	tstcs	r0, r7
     910:	1e010078 	mcrne	0, 0, r0, cr1, cr8, {3}
     914:	00006914 	andeq	r6, r0, r4, lsl r9
     918:	69622100 	stmdbvs	r2!, {r8, sp}^
     91c:	1e010074 	mcrne	0, 0, r0, cr1, cr4, {3}
     920:	00002c20 	andeq	r2, r0, r0, lsr #24
     924:	03222700 			; <UNDEFINED> instruction: 0x03222700
     928:	07460000 	strbeq	r0, [r6, -r0]
     92c:	034f0000 	movteq	r0, #61440	; 0xf000
     930:	22000000 	andcs	r0, r0, #0, 0
     934:	000002c7 	andeq	r0, r0, r7, asr #5
     938:	69010e01 	stmdbvs	r1, {r0, r9, sl, fp}
     93c:	03000000 	movweq	r0, #0
     940:	000007dd 	ldrdeq	r0, [r0], -sp
     944:	01007821 	tsteq	r0, r1, lsr #16
     948:	0069120e 	rsbeq	r1, r9, lr, lsl #4
     94c:	62210000 	eorvs	r0, r1, #0, 0
     950:	01007469 	tsteq	r0, r9, ror #8
     954:	002c1e0e 	eoreq	r1, ip, lr, lsl #28
     958:	22270000 	eorcs	r0, r7, #0, 0
     95c:	ed000003 	stc	0, cr0, [r0, #-12]
     960:	c7000007 	strgt	r0, [r0, -r7]
     964:	00000002 	andeq	r0, r0, r2
     968:	0000c010 	andeq	ip, r0, r0, lsl r0
     96c:	0007ed00 	andeq	lr, r7, r0, lsl #26
     970:	002c1100 	eoreq	r1, ip, r0, lsl #2
     974:	00070000 	andeq	r0, r7, r0
     978:	0007dd09 	andeq	sp, r7, r9, lsl #26
     97c:	06732800 	ldrbteq	r2, [r3], -r0, lsl #16
     980:	80800000 	addhi	r0, r0, r0
     984:	00380000 	eorseq	r0, r8, r0
     988:	9c010000 	stcls	0, cr0, [r1], {-0}
     98c:	00000881 	andeq	r0, r0, r1, lsl #17
     990:	0006bd29 	andeq	fp, r6, r9, lsr #26
     994:	06a41d00 	strteq	r1, [r4], r0, lsl #26
     998:	02ae0000 	adceq	r0, lr, #0, 0
     99c:	02ac0000 	adceq	r0, ip, #0, 0
     9a0:	991d0000 	ldmdbls	sp, {}	; <UNPREDICTABLE>
     9a4:	c8000006 	stmdagt	r0, {r1, r2}
     9a8:	c6000002 	strgt	r0, [r0], -r2
     9ac:	1d000002 	stcne	0, cr0, [r0, #-8]
     9b0:	0000068e 	andeq	r0, r0, lr, lsl #13
     9b4:	000002e2 	andeq	r0, r0, r2, ror #5
     9b8:	000002e0 	andeq	r0, r0, r0, ror #5
     9bc:	0006841d 	andeq	r8, r6, sp, lsl r4
     9c0:	0002fc00 	andeq	pc, r2, r0, lsl #24
     9c4:	0002fa00 	andeq	pc, r2, r0, lsl #20
     9c8:	80a41700 	adchi	r1, r4, r0, lsl #14
     9cc:	08de0000 	ldmeq	lr, {}^	; <UNPREDICTABLE>
     9d0:	08770000 	ldmdaeq	r7!, {}^	; <UNPREDICTABLE>
     9d4:	01180000 	tsteq	r8, r0
     9d8:	00030550 	andeq	r0, r3, r0, asr r5
     9dc:	18000091 	stmdane	r0, {r0, r4, r7}
     9e0:	03055101 	movweq	r5, #20737	; 0x5101
     9e4:	000090a8 	andeq	r9, r0, r8, lsr #1
     9e8:	05520118 	ldrbeq	r0, [r2, #-280]	; 0xfffffee8
     9ec:	00915803 	addseq	r5, r1, r3, lsl #16
     9f0:	53011800 	movwpl	r1, #6144	; 0x1800
     9f4:	18580802 	ldmdane	r8, {r1, fp}^
     9f8:	05007d02 	streq	r7, [r0, #-3330]	; 0xfffff2fe
     9fc:	00911403 	addseq	r1, r1, r3, lsl #8
     a00:	a8160000 	ldmdage	r6, {}	; <UNPREDICTABLE>
     a04:	ea000080 	b	c0c <__code_start__-0x73f4>
     a08:	00000008 	andeq	r0, r0, r8
     a0c:	00065528 	andeq	r5, r6, r8, lsr #10
     a10:	0080b800 	addeq	fp, r0, r0, lsl #16
     a14:	00000800 	andeq	r0, r0, r0, lsl #16
     a18:	a29c0100 	addsge	r0, ip, #0
     a1c:	1d000008 	stcne	0, cr0, [r0, #-32]	; 0xffffffe0
     a20:	00000666 	andeq	r0, r0, r6, ror #12
     a24:	00000318 	andeq	r0, r0, r8, lsl r3
     a28:	00000314 	andeq	r0, r0, r4, lsl r3
     a2c:	044d2a00 	strbeq	r2, [sp], #-2560	; 0xfffff600
     a30:	044d0000 	strbeq	r0, [sp], #-0
     a34:	a1040000 	mrsge	r0, (UNDEF: 4)
     a38:	033c2a06 	teqeq	ip, #24576	; 0x6000
     a3c:	033c0000 	teqeq	ip, #0, 0
     a40:	c7040000 	strgt	r0, [r4, -r0]
     a44:	04942a0a 	ldreq	r2, [r4], #2570	; 0xa0a
     a48:	04940000 	ldreq	r0, [r4], #0
     a4c:	19060000 	stmdbne	r6, {}	; <UNPREDICTABLE>
     a50:	04ca2a06 	strbeq	r2, [sl], #2566	; 0xa06
     a54:	04ca0000 	strbeq	r0, [sl], #0
     a58:	27060000 	strcs	r0, [r6, -r0]
     a5c:	04b12a06 	ldrteq	r2, [r1], #2566	; 0xa06
     a60:	04b10000 	ldrteq	r0, [r1], #0
     a64:	b2040000 	andlt	r0, r4, #0, 0
     a68:	06fa2a06 	ldrbteq	r2, [sl], r6, lsl #20
     a6c:	06fa0000 	ldrbteq	r0, [sl], r0
     a70:	28040000 	stmdacs	r4, {}	; <UNPREDICTABLE>
     a74:	03422a06 	movteq	r2, #10758	; 0x2a06
     a78:	03420000 	movteq	r0, #8192	; 0x2000
     a7c:	6e040000 	cdpvs	0, 0, cr0, cr4, cr0, {0}
     a80:	05a20006 	streq	r0, [r2, #6]!
     a84:	00040000 	andeq	r0, r4, r0
     a88:	00000378 	andeq	r0, r0, r8, ror r3
     a8c:	00b60104 	adcseq	r0, r6, r4, lsl #2
     a90:	820c0000 	andhi	r0, ip, #0, 0
     a94:	48000005 	stmdami	r0, {r0, r2}
     a98:	28000000 	stmdacs	r0, {}	; <UNPREDICTABLE>
     a9c:	04000082 	streq	r0, [r0], #-130	; 0xffffff7e
     aa0:	08000001 	stmdaeq	r0, {r0}
     aa4:	0200000c 	andeq	r0, r0, #12, 0
     aa8:	6e690504 	cdpvs	5, 6, cr0, cr9, cr4, {0}
     aac:	04030074 	streq	r0, [r3], #-116	; 0xffffff8c
     ab0:	00003b07 	andeq	r3, r0, r7, lsl #22
     ab4:	06010300 	streq	r0, [r1], -r0, lsl #6
     ab8:	000000aa 	andeq	r0, r0, sl, lsr #1
     abc:	0005e604 	andeq	lr, r5, r4, lsl #12
     ac0:	18250300 	stmdane	r5!, {r8, r9}
     ac4:	00000046 	andeq	r0, r0, r6, asr #32
     ac8:	8f050203 	svchi	0x00050203
     acc:	04000001 	streq	r0, [r0], #-1
     ad0:	000003a2 	andeq	r0, r0, r2, lsr #7
     ad4:	59182803 	ldmdbpl	r8, {r0, r1, fp, sp}
     ad8:	03000000 	movweq	r0, #0
     adc:	00050504 	andeq	r0, r5, r4, lsl #10
     ae0:	08030000 	stmdaeq	r3, {}	; <UNPREDICTABLE>
     ae4:	00000005 	andeq	r0, r0, r5
     ae8:	08010300 	stmdaeq	r1, {r8, r9}
     aec:	000000a8 	andeq	r0, r0, r8, lsr #1
     af0:	73070203 	movwvc	r0, #29187	; 0x7203
     af4:	03000001 	movweq	r0, #1
     af8:	00360704 	eorseq	r0, r6, r4, lsl #14
     afc:	08030000 	stmdaeq	r3, {}	; <UNPREDICTABLE>
     b00:	00003107 	andeq	r3, r0, r7, lsl #2
     b04:	00250500 	eoreq	r0, r5, r0, lsl #10
     b08:	00920000 	addseq	r0, r2, r0
     b0c:	25060000 	strcs	r0, [r6, #-0]
     b10:	00000000 	andeq	r0, r0, r0
     b14:	0001a607 	andeq	sl, r1, r7, lsl #12
     b18:	0e1c0400 	cfmulseq	mvf0, mvf12, mvf0
     b1c:	0000009e 	muleq	r0, lr, r0
     b20:	00830408 	addeq	r0, r3, r8, lsl #8
     b24:	25050000 	strcs	r0, [r5, #-0]
     b28:	b3000000 	movwlt	r0, #0
     b2c:	06000000 	streq	r0, [r0], -r0
     b30:	000000b3 	strheq	r0, [r0], -r3
     b34:	c0040800 	andgt	r0, r4, r0, lsl #16
     b38:	03000000 	movweq	r0, #0
     b3c:	00b10801 	adcseq	r0, r1, r1, lsl #16
     b40:	b9090000 	stmdblt	r9, {}	; <UNPREDICTABLE>
     b44:	07000000 	streq	r0, [r0, -r0]
     b48:	0000077c 	andeq	r0, r0, ip, ror r7
     b4c:	d10e2104 	tstle	lr, r4, lsl #2
     b50:	08000000 	stmdaeq	r0, {}	; <UNPREDICTABLE>
     b54:	0000a404 	andeq	sl, r0, r4, lsl #8
     b58:	003a0a00 	eorseq	r0, sl, r0, lsl #20
     b5c:	00e80000 	rsceq	r0, r8, r0
     b60:	2c0b0000 	stccs	0, cr0, [fp], {-0}
     b64:	ff000000 			; <UNDEFINED> instruction: 0xff000000
     b68:	fd0c0002 	stc2	0, cr0, [ip, #-8]
     b6c:	05000005 	streq	r0, [r0, #-5]
     b70:	00d7090a 	sbcseq	r0, r7, sl, lsl #18
     b74:	03050000 	movweq	r0, #20480	; 0x5000
     b78:	000093b8 			; <UNDEFINED> instruction: 0x000093b8
     b7c:	00059e0d 	andeq	r9, r5, sp, lsl #28
     b80:	09690100 	stmdbeq	r9!, {r8}^
     b84:	0000004d 	andeq	r0, r0, sp, asr #32
     b88:	00008304 	andeq	r8, r0, r4, lsl #6
     b8c:	00000028 	andeq	r0, r0, r8, lsr #32
     b90:	01e29c01 	mvneq	r9, r1, lsl #24
     b94:	ec0e0000 	stc	0, cr0, [lr], {-0}
     b98:	0100000b 	tsteq	r0, fp
     b9c:	01e22169 	mvneq	r2, r9, ror #2
     ba0:	033d0000 	teqeq	sp, #0, 0
     ba4:	03390000 	teqeq	r9, #0, 0
     ba8:	400e0000 	andmi	r0, lr, r0
     bac:	01000005 	tsteq	r0, r5
     bb0:	004d2f69 	subeq	r2, sp, r9, ror #30
     bb4:	03620000 	cmneq	r2, #0, 0
     bb8:	035e0000 	cmpeq	lr, #0, 0
     bbc:	660e0000 	strvs	r0, [lr], -r0
     bc0:	01000005 	tsteq	r0, r5
     bc4:	002c4269 	eoreq	r4, ip, r9, ror #4
     bc8:	03870000 	orreq	r0, r7, #0, 0
     bcc:	03830000 	orreq	r0, r3, #0, 0
     bd0:	220f0000 	andcs	r0, pc, #0, 0
     bd4:	f8000003 			; <UNDEFINED> instruction: 0xf8000003
     bd8:	05000001 	streq	r0, [r0, #-1]
     bdc:	00922c03 	addseq	r2, r2, r3, lsl #24
     be0:	00691000 	rsbeq	r1, r9, r0
     be4:	4d0d6c01 	stcmi	12, cr6, [sp, #-4]
     be8:	10000000 	andne	r0, r0, r0
     bec:	6d01004e 	stcvs	0, cr0, [r1, #-312]	; 0xfffffec8
     bf0:	00002c0e 	andeq	r2, r0, lr, lsl #24
     bf4:	05981100 	ldreq	r1, [r8, #256]	; 0x100
     bf8:	6e010000 	cdpvs	0, 0, cr0, cr1, cr0, {0}
     bfc:	00004d0d 	andeq	r4, r0, sp, lsl #26
     c00:	058d1100 	streq	r1, [sp, #256]	; 0x100
     c04:	6f010000 	svcvs	0x00010000
     c08:	0001e20e 	andeq	lr, r1, lr, lsl #4
     c0c:	05611100 	strbeq	r1, [r1, #-256]!	; 0xffffff00
     c10:	70010000 	andvc	r0, r1, r0
     c14:	0001e20e 	andeq	lr, r1, lr, lsl #4
     c18:	01a91200 			; <UNDEFINED> instruction: 0x01a91200
     c1c:	3b110000 	blcc	440c24 <__bss_end__+0x436e64>
     c20:	01000005 	tsteq	r0, r5
     c24:	003a1176 	eorseq	r1, sl, r6, ror r1
     c28:	13000000 	movwne	r0, #0
     c2c:	0000831c 	andeq	r8, r0, ip, lsl r3
     c30:	0000058d 	andeq	r0, r0, sp, lsl #11
     c34:	000001d8 	ldrdeq	r0, [r0], -r8
     c38:	05500114 	ldrbeq	r0, [r0, #-276]	; 0xfffffeec
     c3c:	0091dc03 	addseq	sp, r1, r3, lsl #24
     c40:	51011400 	tstpl	r1, r0, lsl #8
     c44:	91700305 	cmnls	r0, r5, lsl #6
     c48:	01140000 	tsteq	r4, r0
     c4c:	2c030552 	cfstr32cs	mvfx0, [r3], {82}	; 0x52
     c50:	14000092 	strne	r0, [r0], #-146	; 0xffffff6e
     c54:	08025301 	stmdaeq	r2, {r0, r8, r9, ip, lr}
     c58:	2015006a 	andscs	r0, r5, sl, rrx
     c5c:	99000083 	stmdbls	r0, {r0, r1, r7}
     c60:	00000005 	andeq	r0, r0, r5
     c64:	003a0408 	eorseq	r0, sl, r8, lsl #8
     c68:	c00a0000 	andgt	r0, sl, r0
     c6c:	f8000000 			; <UNDEFINED> instruction: 0xf8000000
     c70:	16000001 	strne	r0, [r0], -r1
     c74:	0000002c 	andeq	r0, r0, ip, lsr #32
     c78:	e809000e 	stmda	r9, {r1, r2, r3}
     c7c:	0d000001 	stceq	0, cr0, [r0, #-4]
     c80:	000005ee 	andeq	r0, r0, lr, ror #11
     c84:	4d090a01 	vstrmi	s0, [r9, #-4]
     c88:	28000000 	stmdacs	r0, {}	; <UNPREDICTABLE>
     c8c:	dc000082 	stcle	0, cr0, [r0], {130}	; 0x82
     c90:	01000000 	mrseq	r0, (UNDEF: 0)
     c94:	0005079c 	muleq	r5, ip, r7
     c98:	058d0e00 	streq	r0, [sp, #3584]	; 0xe00
     c9c:	0a010000 	beq	40ca4 <__bss_end__+0x36ee4>
     ca0:	0001e221 	andeq	lr, r1, r1, lsr #4
     ca4:	0003b400 	andeq	fp, r3, r0, lsl #8
     ca8:	0003a800 	andeq	sl, r3, r0, lsl #16
     cac:	05610e00 	strbeq	r0, [r1, #-3584]!	; 0xfffff200
     cb0:	0a010000 	beq	40cb8 <__bss_end__+0x36ef8>
     cb4:	0001e230 	andeq	lr, r1, r0, lsr r2
     cb8:	00040f00 	andeq	r0, r4, r0, lsl #30
     cbc:	00040700 	andeq	r0, r4, r0, lsl #14
     cc0:	05400e00 	strbeq	r0, [r0, #-3584]	; 0xfffff200
     cc4:	0a010000 	beq	40ccc <__bss_end__+0x36f0c>
     cc8:	00003a3e 	andeq	r3, r0, lr, lsr sl
     ccc:	00045100 	andeq	r5, r4, r0, lsl #2
     cd0:	00044900 	andeq	r4, r4, r0, lsl #18
     cd4:	05660e00 	strbeq	r0, [r6, #-3584]!	; 0xfffff200
     cd8:	0a010000 	beq	40ce0 <__bss_end__+0x36f20>
     cdc:	00002c51 	andeq	r2, r0, r1, asr ip
     ce0:	00049300 	andeq	r9, r4, r0, lsl #6
     ce4:	00048b00 	andeq	r8, r4, r0, lsl #22
     ce8:	006e1700 	rsbeq	r1, lr, r0, lsl #14
     cec:	2c0e0c01 	stccs	12, cr0, [lr], {1}
     cf0:	cf000000 	svcgt	0x00000000
     cf4:	cd000004 	stcgt	0, cr0, [r0, #-16]
     cf8:	0f000004 	svceq	0x00000004
     cfc:	00000322 	andeq	r0, r0, r2, lsr #6
     d00:	000001f8 	strdeq	r0, [r0], -r8
     d04:	920c0305 	andls	r0, ip, #335544320	; 0x14000000
     d08:	98180000 	ldmdals	r8, {}	; <UNPREDICTABLE>
     d0c:	01000005 	tsteq	r0, r5
     d10:	004d0d12 	subeq	r0, sp, r2, lsl sp
     d14:	04e40000 	strbteq	r0, [r4], #0
     d18:	04e20000 	strbteq	r0, [r2], #0
     d1c:	32180000 	andscc	r0, r8, #0, 0
     d20:	01000005 	tsteq	r0, r5
     d24:	004d0d13 	subeq	r0, sp, r3, lsl sp
     d28:	05000000 	streq	r0, [r0, #-0]
     d2c:	04f80000 	ldrbteq	r0, [r8], #0
     d30:	6c170000 	ldcvs	0, cr0, [r7], {-0}
     d34:	01006e65 	tsteq	r0, r5, ror #28
     d38:	002c0e29 	eoreq	r0, ip, r9, lsr #28
     d3c:	05380000 	ldreq	r0, [r8, #-0]!
     d40:	05360000 	ldreq	r0, [r6, #-0]!
     d44:	c9110000 	ldmdbgt	r1, {}	; <UNPREDICTABLE>
     d48:	01000005 	tsteq	r0, r5
     d4c:	003a0d2a 	eorseq	r0, sl, sl, lsr #26
     d50:	60190000 	andsvs	r0, r9, r0
     d54:	34000000 	strcc	r0, [r0], #-0
     d58:	18000003 	stmdane	r0, {r0, r1}
     d5c:	00000529 	andeq	r0, r0, r9, lsr #10
     d60:	2c131601 	ldccs	6, cr1, [r3], {1}
     d64:	52000000 	andpl	r0, r0, #0, 0
     d68:	4c000005 	stcmi	0, cr0, [r0], {5}
     d6c:	1a000005 	bne	d88 <__code_start__-0x7278>
     d70:	00008258 	andeq	r8, r0, r8, asr r2
     d74:	00000048 	andeq	r0, r0, r8, asr #32
     d78:	6e656c17 	mcrvs	12, 3, r6, cr5, cr7, {0}
     d7c:	12170100 	andsne	r0, r7, #0
     d80:	0000002c 	andeq	r0, r0, ip, lsr #32
     d84:	00000581 	andeq	r0, r0, r1, lsl #11
     d88:	0000057d 	andeq	r0, r0, sp, ror r5
     d8c:	00060a18 	andeq	r0, r6, r8, lsl sl
     d90:	11210100 			; <UNDEFINED> instruction: 0x11210100
     d94:	0000003a 	andeq	r0, r0, sl, lsr r0
     d98:	000005a5 	andeq	r0, r0, r5, lsr #11
     d9c:	000005a1 	andeq	r0, r0, r1, lsr #11
     da0:	0005ad18 	andeq	sl, r5, r8, lsl sp
     da4:	11240100 			; <UNDEFINED> instruction: 0x11240100
     da8:	0000003a 	andeq	r0, r0, sl, lsr r0
     dac:	000005c9 	andeq	r0, r0, r9, asr #11
     db0:	000005c7 	andeq	r0, r0, r7, asr #11
     db4:	b41b0000 	ldrlt	r0, [fp], #-0
     db8:	18000082 	stmdane	r0, {r1, r7}
     dbc:	cf000000 	svcgt	0x00000000
     dc0:	18000004 	stmdane	r0, {r2}
     dc4:	0000057c 	andeq	r0, r0, ip, ror r5
     dc8:	4d112c01 	ldcmi	12, cr2, [r1, #-4]
     dcc:	de000000 	cdple	0, 0, cr0, cr0, cr0, {0}
     dd0:	dc000005 	stcle	0, cr0, [r0], {5}
     dd4:	18000005 	stmdane	r0, {r0, r2}
     dd8:	00000553 	andeq	r0, r0, r3, asr r5
     ddc:	2c124201 	lfmcs	f4, 4, [r2], {1}
     de0:	f4000000 	vst4.8	{d0-d3}, [r0], r0
     de4:	f2000005 	vhadd.s8	d0, d0, d5
     de8:	12000005 	andne	r0, r0, #5, 0
     dec:	00000385 	andeq	r0, r0, r5, lsl #7
     df0:	01006910 	tsteq	r0, r0, lsl r9
     df4:	002c1b30 	eoreq	r1, ip, r0, lsr fp
     df8:	101c0000 	andsne	r0, ip, r0
     dfc:	3101006a 	tstcc	r1, sl, rrx
     e00:	00003a19 	andeq	r3, r0, r9, lsl sl
     e04:	1a000000 	bne	e0c <__code_start__-0x71f4>
     e08:	000082b4 			; <UNDEFINED> instruction: 0x000082b4
     e0c:	00000018 	andeq	r0, r0, r8, lsl r0
     e10:	0005e118 	andeq	lr, r5, r8, lsl r1
     e14:	17430100 	strbne	r0, [r3, -r0, lsl #2]
     e18:	0000002c 	andeq	r0, r0, ip, lsr #32
     e1c:	0000060a 	andeq	r0, r0, sl, lsl #12
     e20:	00000608 	andeq	r0, r0, r8, lsl #12
     e24:	0082b41a 	addeq	fp, r2, sl, lsl r4
     e28:	00001800 	andeq	r1, r0, r0, lsl #16
     e2c:	006a1700 	rsbeq	r1, sl, r0, lsl #14
     e30:	4d154401 	cfldrsmi	mvf4, [r5, #-4]
     e34:	22000000 	andcs	r0, r0, #0, 0
     e38:	1e000006 	cdpne	0, 0, cr0, cr0, cr6, {0}
     e3c:	18000006 	stmdane	r0, {r1, r2}
     e40:	00000588 	andeq	r0, r0, r8, lsl #11
     e44:	3a154601 	bcc	552650 <__bss_end__+0x548890>
     e48:	44000000 	strmi	r0, [r0], #-0
     e4c:	42000006 	andmi	r0, r0, #6, 0
     e50:	18000006 	stmdane	r0, {r1, r2}
     e54:	0000055c 	andeq	r0, r0, ip, asr r5
     e58:	3a154701 	bcc	552a64 <__bss_end__+0x548ca4>
     e5c:	5d000000 	stcpl	0, cr0, [r0, #-0]
     e60:	5b000006 	blpl	e80 <__code_start__-0x7180>
     e64:	1a000006 	bne	e84 <__code_start__-0x717c>
     e68:	000082b4 			; <UNDEFINED> instruction: 0x000082b4
     e6c:	00000018 	andeq	r0, r0, r8, lsl r0
     e70:	01006917 	tsteq	r0, r7, lsl r9
     e74:	002c1b52 	eoreq	r1, ip, r2, asr fp
     e78:	067a0000 	ldrbteq	r0, [sl], -r0
     e7c:	06780000 	ldrbteq	r0, [r8], -r0
     e80:	b41a0000 	ldrlt	r0, [sl], #-0
     e84:	18000082 	stmdane	r0, {r1, r7}
     e88:	11000000 	mrsne	r0, (UNDEF: 0)
     e8c:	00000549 	andeq	r0, r0, r9, asr #10
     e90:	3a195401 	bcc	655e9c <__bss_end__+0x64c0dc>
     e94:	11000000 	mrsne	r0, (UNDEF: 0)
     e98:	00000614 	andeq	r0, r0, r4, lsl r6
     e9c:	3a195501 	bcc	6562a8 <__bss_end__+0x64c4e8>
     ea0:	11000000 	mrsne	r0, (UNDEF: 0)
     ea4:	0000061e 	andeq	r0, r0, lr, lsl r6
     ea8:	3a195601 	bcc	6566b4 <__bss_end__+0x64c8f4>
     eac:	11000000 	mrsne	r0, (UNDEF: 0)
     eb0:	000005d7 	ldrdeq	r0, [r0], -r7
     eb4:	3a195701 	bcc	656ac0 <__bss_end__+0x64cd00>
     eb8:	1d000000 	stcne	0, cr0, [r0, #-0]
     ebc:	00000507 	andeq	r0, r0, r7, lsl #10
     ec0:	000082b4 			; <UNDEFINED> instruction: 0x000082b4
     ec4:	0082b412 	addeq	fp, r2, r2, lsl r4
     ec8:	00001800 	andeq	r1, r0, r0, lsl #16
     ecc:	25540100 	ldrbcs	r0, [r4, #-256]	; 0xffffff00
     ed0:	0005181e 	andeq	r1, r5, lr, lsl r8
     ed4:	05221f00 	streq	r1, [r2, #-3840]!	; 0xfffff100
     ed8:	06920000 	ldreq	r0, [r2], r0
     edc:	068e0000 	streq	r0, [lr], r0
     ee0:	2c200000 	stccs	0, cr0, [r0], #-0
     ee4:	20000005 	andcs	r0, r0, r5
     ee8:	00000536 	andeq	r0, r0, r6, lsr r5
     eec:	0005431d 	andeq	r4, r5, sp, lsl r3
     ef0:	0082b400 	addeq	fp, r2, r0, lsl #8
     ef4:	82b41400 	adcshi	r1, r4, #0, 8
     ef8:	00180000 	andseq	r0, r8, r0
     efc:	12020000 	andne	r0, r2, #0, 0
     f00:	05541e11 	ldrbeq	r1, [r4, #-3601]	; 0xfffff1ef
     f04:	5e1f0000 	cdppl	0, 1, cr0, cr15, cr0, {0}
     f08:	b9000005 	stmdblt	r0, {r0, r2}
     f0c:	b5000006 	strlt	r0, [r0, #-6]
     f10:	13000006 	movwne	r0, #6
     f14:	000082c8 	andeq	r8, r0, r8, asr #5
     f18:	0000058d 	andeq	r0, r0, sp, lsl #11
     f1c:	000004bf 			; <UNDEFINED> instruction: 0x000004bf
     f20:	05500114 	ldrbeq	r0, [r0, #-276]	; 0xfffffeec
     f24:	0091b003 	addseq	fp, r1, r3
     f28:	51011400 	tstpl	r1, r0, lsl #8
     f2c:	91a80305 			; <UNDEFINED> instruction: 0x91a80305
     f30:	01140000 	tsteq	r4, r0
     f34:	1c030552 	cfstr32ne	mvfx0, [r3], {82}	; 0x52
     f38:	14000092 	strne	r0, [r0], #-146	; 0xffffff6e
     f3c:	38015301 	stmdacc	r1, {r0, r8, r9, ip, lr}
     f40:	82cc1500 	sbchi	r1, ip, #0, 10
     f44:	05990000 	ldreq	r0, [r9]
	...
     f50:	82e81300 	rschi	r1, r8, #0, 6
     f54:	058d0000 	streq	r0, [sp]
     f58:	04fd0000 	ldrbteq	r0, [sp], #0
     f5c:	01140000 	tsteq	r4, r0
     f60:	78030550 	stmdavc	r3, {r4, r6, r8, sl}
     f64:	14000091 	strne	r0, [r0], #-145	; 0xffffff6f
     f68:	03055101 	movweq	r5, #20737	; 0x5101
     f6c:	00009170 	andeq	r9, r0, r0, ror r1
     f70:	05520114 	ldrbeq	r0, [r2, #-276]	; 0xfffffeec
     f74:	00920c03 	addseq	r0, r2, r3, lsl #24
     f78:	53011400 	movwpl	r1, #5120	; 0x1400
     f7c:	15003f01 	strne	r3, [r0, #-3841]	; 0xfffff0ff
     f80:	000082ec 	andeq	r8, r0, ip, ror #5
     f84:	00000599 	muleq	r0, r9, r5
     f88:	05b72100 	ldreq	r2, [r7, #256]!	; 0x100
     f8c:	11020000 	mrsne	r0, (UNDEF: 2)
     f90:	00003a10 	andeq	r3, r0, r0, lsl sl
     f94:	05430300 	strbeq	r0, [r3, #-768]	; 0xfffffd00
     f98:	61220000 			; <UNDEFINED> instruction: 0x61220000
     f9c:	2a110200 	bcs	4417a4 <__bss_end__+0x4379e4>
     fa0:	0000003a 	andeq	r0, r0, sl, lsr r0
     fa4:	02006222 	andeq	r6, r0, #536870914	; 0x20000002
     fa8:	003a3511 	eorseq	r3, sl, r1, lsl r5
     fac:	63100000 	tstvs	r0, #0, 0
     fb0:	0d120200 	lfmeq	f0, 4, [r2, #-0]
     fb4:	0000004d 	andeq	r0, r0, sp, asr #32
     fb8:	00059211 	andeq	r9, r5, r1, lsl r2
     fbc:	0d140200 	lfmeq	f0, 4, [r4, #-0]
     fc0:	0000004d 	andeq	r0, r0, sp, asr #32
     fc4:	056e2100 	strbeq	r2, [lr, #-256]!	; 0xffffff00
     fc8:	07020000 	streq	r0, [r2, -r0]
     fcc:	00004d10 	andeq	r4, r0, r0, lsl sp
     fd0:	05780300 	ldrbeq	r0, [r8, #-768]!	; 0xfffffd00
     fd4:	61220000 			; <UNDEFINED> instruction: 0x61220000
     fd8:	26070200 	strcs	r0, [r7], -r0, lsl #4
     fdc:	0000003a 	andeq	r0, r0, sl, lsr r0
     fe0:	02006222 	andeq	r6, r0, #536870914	; 0x20000002
     fe4:	003a3107 	eorseq	r3, sl, r7, lsl #2
     fe8:	220f0000 	andcs	r0, pc, #0, 0
     fec:	88000003 	stmdahi	r0, {r0, r1}
     ff0:	05000005 	streq	r0, [r0, #-5]
     ff4:	00921c03 	addseq	r1, r2, r3, lsl #24
     ff8:	c00a0000 	andgt	r0, sl, r0
     ffc:	88000000 	stmdahi	r0, {}	; <UNPREDICTABLE>
    1000:	16000005 	strne	r0, [r0], -r5
    1004:	0000002c 	andeq	r0, r0, ip, lsr #32
    1008:	7809000d 	stmdavc	r9, {r0, r2, r3}
    100c:	23000005 	movwcs	r0, #5
    1010:	000006fa 	strdeq	r0, [r0], -sl
    1014:	000006fa 	strdeq	r0, [r0], -sl
    1018:	23062804 	movwcs	r2, #26628	; 0x6804
    101c:	00000342 	andeq	r0, r0, r2, asr #6
    1020:	00000342 	andeq	r0, r0, r2, asr #6
    1024:	00066e04 	andeq	r6, r6, r4, lsl #28
    1028:	0000019d 	muleq	r0, sp, r1
    102c:	054f0004 	strbeq	r0, [pc, #-4]	; 1030 <__code_start__-0x6fd0>
    1030:	01040000 	mrseq	r0, (UNDEF: 4)
    1034:	00000628 	andeq	r0, r0, r8, lsr #12
    1038:	0007590c 	andeq	r5, r7, ip, lsl #18
    103c:	00071500 	andeq	r1, r7, r0, lsl #10
    1040:	00832c00 	addeq	r2, r3, r0, lsl #24
    1044:	00005800 	andeq	r5, r0, r0, lsl #16
    1048:	000e4a00 	andeq	r4, lr, r0, lsl #20
    104c:	07010200 	streq	r0, [r1, -r0, lsl #4]
    1050:	28020000 	stmdacs	r2, {}	; <UNPREDICTABLE>
    1054:	0000311b 	andeq	r3, r0, fp, lsl r1
    1058:	07690300 	strbeq	r0, [r9, -r0, lsl #6]!
    105c:	04040000 	streq	r0, [r4], #-0
    1060:	00004800 	andeq	r4, r0, r0, lsl #16
    1064:	07100400 	ldreq	r0, [r0, -r0, lsl #8]
    1068:	00480000 	subeq	r0, r8, r0
    106c:	00000000 	andeq	r0, r0, r0
    1070:	6b020405 	blvs	8208c <__bss_end__+0x782cc>
    1074:	02000007 	andeq	r0, r0, #7, 0
    1078:	00251863 	eoreq	r1, r5, r3, ror #16
    107c:	04060000 	streq	r0, [r6], #-0
    1080:	746e6905 	strbtvc	r6, [lr], #-2309	; 0xfffff6fb
    1084:	07040700 	streq	r0, [r4, -r0, lsl #14]
    1088:	0000003b 	andeq	r0, r0, fp, lsr r0
    108c:	aa060107 	bge	1814b0 <__bss_end__+0x1776f0>
    1090:	07000000 	streq	r0, [r0, -r0]
    1094:	018f0502 	orreq	r0, pc, r2, lsl #10
    1098:	04070000 	streq	r0, [r7], #-0
    109c:	00000505 	andeq	r0, r0, r5, lsl #10
    10a0:	05080700 	streq	r0, [r8, #-1792]	; 0xfffff900
    10a4:	00000000 	andeq	r0, r0, r0
    10a8:	a8080107 	stmdage	r8, {r0, r1, r2, r8}
    10ac:	07000000 	streq	r0, [r0, -r0]
    10b0:	01730702 	cmneq	r3, r2, lsl #14
    10b4:	04070000 	streq	r0, [r7], #-0
    10b8:	00003607 	andeq	r3, r0, r7, lsl #12
    10bc:	07080700 	streq	r0, [r8, -r0, lsl #14]
    10c0:	00000031 	andeq	r0, r0, r1, lsr r0
    10c4:	00005608 	andeq	r5, r0, r8, lsl #12
    10c8:	0000ab00 	andeq	sl, r0, r0, lsl #22
    10cc:	00560900 	subseq	r0, r6, r0, lsl #18
    10d0:	0a000000 	beq	10d8 <__code_start__-0x6f28>
    10d4:	000001a6 	andeq	r0, r0, r6, lsr #3
    10d8:	b70e1c03 	strlt	r1, [lr, -r3, lsl #24]
    10dc:	0b000000 	bleq	10e4 <__code_start__-0x6f1c>
    10e0:	00009c04 	andeq	r9, r0, r4, lsl #24
    10e4:	00560800 	subseq	r0, r6, r0, lsl #16
    10e8:	00cc0000 	sbceq	r0, ip, r0
    10ec:	cc090000 	stcgt	0, cr0, [r9], {-0}
    10f0:	00000000 	andeq	r0, r0, r0
    10f4:	00d9040b 	sbcseq	r0, r9, fp, lsl #8
    10f8:	01070000 	mrseq	r0, (UNDEF: 7)
    10fc:	0000b108 	andeq	fp, r0, r8, lsl #2
    1100:	00d20c00 	sbcseq	r0, r2, r0, lsl #24
    1104:	7c0a0000 	stcvc	0, cr0, [sl], {-0}
    1108:	03000007 	movweq	r0, #7
    110c:	00ea0e21 	rsceq	r0, sl, r1, lsr #28
    1110:	040b0000 	streq	r0, [fp], #-0
    1114:	000000bd 	strheq	r0, [r0], -sp
    1118:	0006fa0d 	andeq	pc, r6, sp, lsl #20
    111c:	05060100 	streq	r0, [r6, #-256]	; 0xffffff00
    1120:	00000056 	andeq	r0, r0, r6, asr r0
    1124:	0000832c 	andeq	r8, r0, ip, lsr #6
    1128:	00000058 	andeq	r0, r0, r8, asr r0
    112c:	01839c01 	orreq	r9, r3, r1, lsl #24
    1130:	660e0000 	strvs	r0, [lr], -r0
    1134:	0100746d 	tsteq	r0, sp, ror #8
    1138:	00cc1806 	sbceq	r1, ip, r6, lsl #16
    113c:	91020000 	mrsls	r0, (UNDEF: 2)
    1140:	62100f70 	andsvs	r0, r0, #112, 30	; 0x1c0
    1144:	01006675 	tsteq	r0, r5, ror r6
    1148:	01831108 	orreq	r1, r3, r8, lsl #2
    114c:	03050000 	movweq	r0, #20480	; 0x5000
    1150:	000099c0 	andeq	r9, r0, r0, asr #19
    1154:	0006f211 	andeq	pc, r6, r1, lsl r2	; <UNPREDICTABLE>
    1158:	0d090100 	stfeqs	f0, [r9, #-0]
    115c:	0000004a 	andeq	r0, r0, sl, asr #32
    1160:	125c9102 	subsne	r9, ip, #-2147483648	; 0x80000000
    1164:	01007a73 	tsteq	r0, r3, ror sl
    1168:	00560d0c 	subseq	r0, r6, ip, lsl #26
    116c:	06e20000 	strbteq	r0, [r2], r0
    1170:	06dc0000 	ldrbeq	r0, [ip], r0
    1174:	54130000 	ldrpl	r0, [r3], #-0
    1178:	94000083 	strls	r0, [r0], #-131	; 0xffffff7d
    117c:	76000001 	strvc	r0, [r0], -r1
    1180:	14000001 	strne	r0, [r0], #-1
    1184:	75025001 	strvc	r5, [r2, #-1]
    1188:	51011400 	tstpl	r1, r0, lsl #8
    118c:	04000a03 	streq	r0, [r0], #-2563	; 0xfffff5fd
    1190:	03520114 	cmpeq	r2, #5
    1194:	14064891 	strne	r4, [r6], #-2193	; 0xfffff76f
    1198:	91025301 	tstls	r2, r1, lsl #6
    119c:	6815004c 	ldmdavs	r5, {r2, r3, r6}
    11a0:	14000083 	strne	r0, [r0], #-131	; 0xffffff7d
    11a4:	75025001 	strvc	r5, [r2, #-1]
    11a8:	16000000 	strne	r0, [r0], -r0
    11ac:	000000d2 	ldrdeq	r0, [r0], -r2
    11b0:	00000194 	muleq	r0, r4, r1
    11b4:	00005d17 	andeq	r5, r0, r7, lsl sp
    11b8:	0003ff00 	andeq	pc, r3, r0, lsl #30
    11bc:	0006f718 	andeq	pc, r6, r8, lsl r7	; <UNPREDICTABLE>
    11c0:	0006f700 	andeq	pc, r6, r0, lsl #14
    11c4:	05020500 	streq	r0, [r2, #-1280]	; 0xfffffb00
    11c8:	0000f300 	andeq	pc, r0, r0, lsl #6
    11cc:	91000400 	tstls	r0, r0, lsl #8
    11d0:	04000006 	streq	r0, [r0], #-6
    11d4:	00062801 	andeq	r2, r6, r1, lsl #16
    11d8:	07810c00 	streq	r0, [r1, r0, lsl #24]
    11dc:	07150000 	ldreq	r0, [r5, -r0]
    11e0:	83840000 	orrhi	r0, r4, #0, 0
    11e4:	00340000 	eorseq	r0, r4, r0
    11e8:	0f7d0000 	svceq	0x007d0000
    11ec:	04020000 	streq	r0, [r2], #-0
    11f0:	746e6905 	strbtvc	r6, [lr], #-2309	; 0xfffff6fb
    11f4:	07040300 	streq	r0, [r4, -r0, lsl #6]
    11f8:	0000003b 	andeq	r0, r0, fp, lsr r0
    11fc:	aa060103 	bge	181610 <__bss_end__+0x177850>
    1200:	03000000 	movweq	r0, #0
    1204:	018f0502 	orreq	r0, pc, r2, lsl #10
    1208:	04030000 	streq	r0, [r3], #-0
    120c:	00000505 	andeq	r0, r0, r5, lsl #10
    1210:	05080300 	streq	r0, [r8, #-768]	; 0xfffffd00
    1214:	00000000 	andeq	r0, r0, r0
    1218:	a8080103 	stmdage	r8, {r0, r1, r8}
    121c:	03000000 	movweq	r0, #0
    1220:	01730702 	cmneq	r3, r2, lsl #14
    1224:	04030000 	streq	r0, [r3], #-0
    1228:	00003607 	andeq	r3, r0, r7, lsl #12
    122c:	07080300 	streq	r0, [r8, -r0, lsl #6]
    1230:	00000031 	andeq	r0, r0, r1, lsr r0
    1234:	00002504 	andeq	r2, r0, r4, lsl #10
    1238:	00007a00 	andeq	r7, r0, r0, lsl #20
    123c:	00250500 	eoreq	r0, r5, r0, lsl #10
    1240:	06000000 	streq	r0, [r0], -r0
    1244:	000001a6 	andeq	r0, r0, r6, lsr #3
    1248:	860e1c02 	strhi	r1, [lr], -r2, lsl #24
    124c:	07000000 	streq	r0, [r0, -r0]
    1250:	00006b04 	andeq	r6, r0, r4, lsl #22
    1254:	00250400 	eoreq	r0, r5, r0, lsl #8
    1258:	009b0000 	addseq	r0, fp, r0
    125c:	9b050000 	blls	141264 <__bss_end__+0x1374a4>
    1260:	00000000 	andeq	r0, r0, r0
    1264:	00a80407 	adceq	r0, r8, r7, lsl #8
    1268:	01030000 	mrseq	r0, (UNDEF: 3)
    126c:	0000b108 	andeq	fp, r0, r8, lsl #2
    1270:	00a10800 	adceq	r0, r1, r0, lsl #16
    1274:	7c060000 	stcvc	0, cr0, [r6], {-0}
    1278:	02000007 	andeq	r0, r0, #7, 0
    127c:	00b90e21 	adcseq	r0, r9, r1, lsr #28
    1280:	04070000 	streq	r0, [r7], #-0
    1284:	0000008c 	andeq	r0, r0, ip, lsl #1
    1288:	0000ad09 	andeq	sl, r0, r9, lsl #26
    128c:	070c0100 	streq	r0, [ip, -r0, lsl #2]
    1290:	99b80305 	ldmibls	r8!, {r0, r2, r8, r9}
    1294:	730a0000 	movwvc	r0, #40960	; 0xa000
    1298:	01000007 	tsteq	r0, r7
    129c:	00250504 	eoreq	r0, r5, r4, lsl #10
    12a0:	83840000 	orrhi	r0, r4, #0, 0
    12a4:	00340000 	eorseq	r0, r4, r0
    12a8:	9c010000 	stcls	0, cr0, [r1], {-0}
    12ac:	0100700b 	tsteq	r0, fp
    12b0:	009b1f04 	addseq	r1, fp, r4, lsl #30
    12b4:	070f0000 	streq	r0, [pc, -r0]
    12b8:	070b0000 	streq	r0, [fp, -r0]
    12bc:	00000000 	andeq	r0, r0, r0
    12c0:	00000ad7 	ldrdeq	r0, [r0], -r7
    12c4:	072f0004 	streq	r0, [pc, -r4]!
    12c8:	01040000 	mrseq	r0, (UNDEF: 4)
    12cc:	00000628 	andeq	r0, r0, r8, lsr #12
    12d0:	0007a00c 	andeq	sl, r7, ip
    12d4:	00071500 	andeq	r1, r7, r0, lsl #10
    12d8:	0083b800 	addeq	fp, r3, r0, lsl #16
    12dc:	00074000 	andeq	r4, r7, r0
    12e0:	00104800 	andseq	r4, r0, r0, lsl #16
    12e4:	05040200 	streq	r0, [r4, #-512]	; 0xfffffe00
    12e8:	00746e69 	rsbseq	r6, r4, r9, ror #28
    12ec:	3b070403 	blcc	1c2300 <__bss_end__+0x1b8540>
    12f0:	03000000 	movweq	r0, #0
    12f4:	00aa0601 	adceq	r0, sl, r1, lsl #12
    12f8:	02030000 	andeq	r0, r3, #0, 0
    12fc:	00018f05 	andeq	r8, r1, r5, lsl #30
    1300:	05040300 	streq	r0, [r4, #-768]	; 0xfffffd00
    1304:	00000005 	andeq	r0, r0, r5
    1308:	00050803 	andeq	r0, r5, r3, lsl #16
    130c:	03000000 	movweq	r0, #0
    1310:	00a80801 	adceq	r0, r8, r1, lsl #16
    1314:	02030000 	andeq	r0, r3, #0, 0
    1318:	00017307 	andeq	r7, r1, r7, lsl #6
    131c:	03a10400 			; <UNDEFINED> instruction: 0x03a10400
    1320:	34020000 	strcc	r0, [r2], #-0
    1324:	00006919 	andeq	r6, r0, r9, lsl r9
    1328:	07040300 	streq	r0, [r4, -r0, lsl #6]
    132c:	00000036 	andeq	r0, r0, r6, lsr r0
    1330:	00079704 	andeq	r9, r7, r4, lsl #14
    1334:	19370200 	ldmdbne	r7!, {r9}
    1338:	0000007c 	andeq	r0, r0, ip, ror r0
    133c:	31070803 	tstcc	r7, r3, lsl #16
    1340:	05000000 	streq	r0, [r0, #-0]
    1344:	00000025 	andeq	r0, r0, r5, lsr #32
    1348:	00000092 	muleq	r0, r2, r0
    134c:	00002506 	andeq	r2, r0, r6, lsl #10
    1350:	a6070000 	strge	r0, [r7], -r0
    1354:	03000001 	movweq	r0, #1
    1358:	009e0e1c 	addseq	r0, lr, ip, lsl lr
    135c:	04080000 	streq	r0, [r8], #-0
    1360:	00000083 	andeq	r0, r0, r3, lsl #1
    1364:	00002505 	andeq	r2, r0, r5, lsl #10
    1368:	0000b300 	andeq	fp, r0, r0, lsl #6
    136c:	00b30600 	adcseq	r0, r3, r0, lsl #12
    1370:	08000000 	stmdaeq	r0, {}	; <UNPREDICTABLE>
    1374:	0000c004 	andeq	ip, r0, r4
    1378:	08010300 	stmdaeq	r1, {r8, r9}
    137c:	000000b1 	strheq	r0, [r0], -r1
    1380:	0000b909 	andeq	fp, r0, r9, lsl #18
    1384:	077c0700 	ldrbeq	r0, [ip, -r0, lsl #14]!
    1388:	21030000 	mrscs	r0, (UNDEF: 3)
    138c:	0000d10e 	andeq	sp, r0, lr, lsl #2
    1390:	a4040800 	strge	r0, [r4], #-2048	; 0xfffff800
    1394:	07000000 	streq	r0, [r0, -r0]
    1398:	000007b3 			; <UNDEFINED> instruction: 0x000007b3
    139c:	b90d0b04 	stmdblt	sp, {r2, r8, r9, fp}
    13a0:	07000000 	streq	r0, [r0, -r0]
    13a4:	0000082c 	andeq	r0, r0, ip, lsr #16
    13a8:	b90d0c04 	stmdblt	sp, {r2, sl, fp}
    13ac:	07000000 	streq	r0, [r0, -r0]
    13b0:	000007c2 	andeq	r0, r0, r2, asr #15
    13b4:	b90d0d04 	stmdblt	sp, {r2, r8, sl, fp}
    13b8:	07000000 	streq	r0, [r0, -r0]
    13bc:	000007eb 	andeq	r0, r0, fp, ror #15
    13c0:	b90d0e04 	stmdblt	sp, {r2, r9, sl, fp}
    13c4:	07000000 	streq	r0, [r0, -r0]
    13c8:	0000085c 	andeq	r0, r0, ip, asr r8
    13cc:	b90d0f04 	stmdblt	sp, {r2, r8, r9, sl, fp}
    13d0:	07000000 	streq	r0, [r0, -r0]
    13d4:	000007d6 	ldrdeq	r0, [r0], -r6
    13d8:	b90d1004 	stmdblt	sp, {r2, ip}
    13dc:	07000000 	streq	r0, [r0, -r0]
    13e0:	0000086b 	andeq	r0, r0, fp, ror #16
    13e4:	b90d1104 	stmdblt	sp, {r2, r8, ip}
    13e8:	07000000 	streq	r0, [r0, -r0]
    13ec:	000007f7 	strdeq	r0, [r0], -r7
    13f0:	b90d1204 	stmdblt	sp, {r2, r9, ip}
    13f4:	04000000 	streq	r0, [r0], #-0
    13f8:	00000701 	andeq	r0, r0, r1, lsl #14
    13fc:	431b2805 	tstmi	fp, #327680	; 0x50000
    1400:	0a000001 	beq	140c <__code_start__-0x6bf4>
    1404:	00000769 	andeq	r0, r0, r9, ror #14
    1408:	5a000604 	bpl	2c20 <__code_start__-0x53e0>
    140c:	0b000001 	bleq	1418 <__code_start__-0x6be8>
    1410:	00000710 	andeq	r0, r0, r0, lsl r7
    1414:	0000015a 	andeq	r0, r0, sl, asr r1
    1418:	040c0000 	streq	r0, [ip], #-0
    141c:	00076b04 	andeq	r6, r7, r4, lsl #22
    1420:	18630500 	stmdane	r3!, {r8, sl}^
    1424:	00000137 	andeq	r0, r0, r7, lsr r1
    1428:	0006f70d 	andeq	pc, r6, sp, lsl #14
    142c:	05810100 	streq	r0, [r1, #256]	; 0x100
    1430:	00000025 	andeq	r0, r0, r5, lsr #32
    1434:	00008640 	andeq	r8, r0, r0, asr #12
    1438:	000004b8 			; <UNDEFINED> instruction: 0x000004b8
    143c:	07179c01 	ldreq	r9, [r7, -r1, lsl #24]
    1440:	620e0000 	andvs	r0, lr, #0, 0
    1444:	01006675 	tsteq	r0, r5, ror r6
    1448:	07171581 	ldreq	r1, [r7, -r1, lsl #11]
    144c:	07330000 	ldreq	r0, [r3, -r0]!
    1450:	072d0000 	streq	r0, [sp, -r0]!
    1454:	6e0e0000 	cdpvs	0, 0, cr0, cr14, cr0, {0}
    1458:	1e810100 	rmfnes	f0, f1, f0
    145c:	00000025 	andeq	r0, r0, r5, lsr #32
    1460:	00000765 	andeq	r0, r0, r5, ror #14
    1464:	0000075f 	andeq	r0, r0, pc, asr r7
    1468:	746d660e 	strbtvc	r6, [sp], #-1550	; 0xfffff9f2
    146c:	2d810100 	stfcss	f0, [r1]
    1470:	000000b3 	strheq	r0, [r0], -r3
    1474:	0000079f 	muleq	r0, pc, r7	; <UNPREDICTABLE>
    1478:	00000793 	muleq	r0, r3, r7
    147c:	0006f20f 	andeq	pc, r6, pc, lsl #4
    1480:	3a810100 	bcc	fe041888 <__bss_end__+0xfe037ac8>
    1484:	0000015c 	andeq	r0, r0, ip, asr r1
    1488:	7dd49103 	ldfvcp	f1, [r4, #12]
    148c:	01007010 	tsteq	r0, r0, lsl r0
    1490:	07170882 	ldreq	r0, [r7, -r2, lsl #17]
    1494:	07fd0000 	ldrbeq	r0, [sp, r0]!
    1498:	07e90000 	strbeq	r0, [r9, r0]!
    149c:	65100000 	ldrvs	r0, [r0, #-0]
    14a0:	12820100 	addne	r0, r2, #0
    14a4:	00000717 	andeq	r0, r0, r7, lsl r7
    14a8:	0000087f 	andeq	r0, r0, pc, ror r8
    14ac:	0000087b 	andeq	r0, r0, fp, ror r8
    14b0:	00307810 	eorseq	r7, r0, r0, lsl r8
    14b4:	5d0e8301 	stcpl	3, cr8, [lr, #-4]
    14b8:	ac000000 	stcge	0, cr0, [r0], {-0}
    14bc:	a6000008 	strge	r0, [r0], -r8
    14c0:	10000008 	andne	r0, r0, r8
    14c4:	01003178 	tsteq	r0, r8, ror r1
    14c8:	005d1183 	subseq	r1, sp, r3, lsl #3
    14cc:	08d90000 	ldmeq	r9, {}^	; <UNPREDICTABLE>
    14d0:	08d50000 	ldmeq	r5, {}^	; <UNPREDICTABLE>
    14d4:	15110000 	ldrne	r0, [r1, #-0]
    14d8:	01000008 	tsteq	r0, r8
    14dc:	00b31186 	adcseq	r1, r3, r6, lsl #3
    14e0:	08fb0000 	ldmeq	fp!, {}^	; <UNPREDICTABLE>
    14e4:	08f70000 	ldmeq	r7!, {}^	; <UNPREDICTABLE>
    14e8:	22120000 	andscs	r0, r2, #0, 0
    14ec:	2d000003 	stccs	0, cr0, [r0, #-12]
    14f0:	05000007 	streq	r0, [r0, #-7]
    14f4:	00939803 	addseq	r9, r3, r3, lsl #16
    14f8:	86a81300 	strthi	r1, [r8], r0, lsl #6
    14fc:	04000000 	streq	r0, [r0], #-0
    1500:	73100000 	tstvc	r0, #0, 0
    1504:	0a910100 	beq	fe44190c <__bss_end__+0xfe437b4c>
    1508:	00000717 	andeq	r0, r0, r7, lsl r7
    150c:	00000931 	andeq	r0, r0, r1, lsr r9
    1510:	0000091b 	andeq	r0, r0, fp, lsl r9
    1514:	6d756e14 	ldclvs	14, cr6, [r5, #-80]!	; 0xffffffb0
    1518:	0d910100 	ldfeqs	f0, [r1]
    151c:	00000732 	andeq	r0, r0, r2, lsr r7
    1520:	7dd89103 	ldfvcp	f1, [r8, #12]
    1524:	00087815 	andeq	r7, r8, r5, lsl r8
    1528:	17910100 	ldrne	r0, [r1, r0, lsl #2]
    152c:	00000732 	andeq	r0, r0, r2, lsr r7
    1530:	7ed89103 	atnvce	f1, f3
    1534:	0007d011 	andeq	sp, r7, r1, lsl r0
    1538:	0d920100 	ldfeqs	f0, [r2]
    153c:	0000002c 	andeq	r0, r0, ip, lsr #32
    1540:	000009b8 			; <UNDEFINED> instruction: 0x000009b8
    1544:	000009b2 			; <UNDEFINED> instruction: 0x000009b2
    1548:	00877016 	addeq	r7, r7, r6, lsl r0
    154c:	0001a400 	andeq	sl, r1, r0, lsl #8
    1550:	00053900 	andeq	r3, r5, r0, lsl #18
    1554:	79741000 	ldmdbvc	r4!, {ip}^
    1558:	1d9e0100 	ldfnes	f0, [lr]
    155c:	000000b3 	strheq	r0, [r0], -r3
    1560:	000009ec 	andeq	r0, r0, ip, ror #19
    1564:	000009e2 	andeq	r0, r0, r2, ror #19
    1568:	00787817 	rsbseq	r7, r8, r7, lsl r8
    156c:	701aa201 	andsvc	sl, sl, r1, lsl #4
    1570:	18000000 	stmdane	r0, {}	; <UNPREDICTABLE>
    1574:	00008780 	andeq	r8, r0, r0, lsl #15
    1578:	00000a92 	muleq	r0, r2, sl
    157c:	000002d5 	ldrdeq	r0, [r0], -r5
    1580:	02500119 	subseq	r0, r0, #1073741830	; 0x40000006
    1584:	01190076 	tsteq	r9, r6, ror r0
    1588:	8c030551 	cfstr32hi	mvfx0, [r3], {81}	; 0x51
    158c:	19000092 	stmdbne	r0, {r1, r4, r7}
    1590:	33015201 	movwcc	r5, #4609	; 0x1201
    1594:	87981800 	ldrhi	r1, [r8, r0, lsl #16]
    1598:	0a920000 	beq	fe4815a0 <__bss_end__+0xfe4777e0>
    159c:	02f70000 	rscseq	r0, r7, #0, 0
    15a0:	01190000 	tsteq	r9, r0
    15a4:	00760250 	rsbseq	r0, r6, r0, asr r2
    15a8:	05510119 	ldrbeq	r0, [r1, #-281]	; 0xfffffee7
    15ac:	00929003 	addseq	r9, r2, r3
    15b0:	52011900 	andpl	r1, r1, #0, 18
    15b4:	18003301 	stmdane	r0, {r0, r8, r9, ip, sp}
    15b8:	000087cc 	andeq	r8, r0, ip, asr #15
    15bc:	00000a9e 	muleq	r0, lr, sl
    15c0:	00000314 	andeq	r0, r0, r4, lsl r3
    15c4:	05500119 	ldrbeq	r0, [r0, #-281]	; 0xfffffee7
    15c8:	00929403 	addseq	r9, r2, r3, lsl #8
    15cc:	51011900 	tstpl	r1, r0, lsl #18
    15d0:	00007702 	andeq	r7, r0, r2, lsl #14
    15d4:	0087d818 	addeq	sp, r7, r8, lsl r8
    15d8:	000a9e00 	andeq	r9, sl, r0, lsl #28
    15dc:	00033100 	andeq	r3, r3, r0, lsl #2
    15e0:	50011900 	andpl	r1, r1, r0, lsl #18
    15e4:	929c0305 	addsls	r0, ip, #335544320	; 0x14000000
    15e8:	01190000 	tsteq	r9, r0
    15ec:	007a0251 	rsbseq	r0, sl, r1, asr r2
    15f0:	87e81800 	strbhi	r1, [r8, r0, lsl #16]!
    15f4:	0a920000 	beq	fe4815fc <__bss_end__+0xfe47783c>
    15f8:	03530000 	cmpeq	r3, #0, 0
    15fc:	01190000 	tsteq	r9, r0
    1600:	00760250 	rsbseq	r0, r6, r0, asr r2
    1604:	05510119 	ldrbeq	r0, [r1, #-281]	; 0xfffffee7
    1608:	00928c03 	addseq	r8, r2, r3, lsl #24
    160c:	52011900 	andpl	r1, r1, #0, 18
    1610:	18003301 	stmdane	r0, {r0, r8, r9, ip, sp}
    1614:	00008800 	andeq	r8, r0, r0, lsl #16
    1618:	00000a92 	muleq	r0, r2, sl
    161c:	00000375 	andeq	r0, r0, r5, ror r3
    1620:	02500119 	subseq	r0, r0, #1073741830	; 0x40000006
    1624:	01190076 	tsteq	r9, r6, ror r0
    1628:	90030551 	andls	r0, r3, r1, asr r5
    162c:	19000092 	stmdbne	r0, {r1, r4, r7}
    1630:	33015201 	movwcc	r5, #4609	; 0x1201
    1634:	88281800 	stmdahi	r8!, {fp, ip}
    1638:	07420000 	strbeq	r0, [r2, -r0]
    163c:	03a90000 			; <UNDEFINED> instruction: 0x03a90000
    1640:	01190000 	tsteq	r9, r0
    1644:	193a0150 	ldmdbne	sl!, {r4, r6, r8}
    1648:	91035101 	tstls	r3, r1, lsl #2
    164c:	01197dd0 			; <UNDEFINED> instruction: 0x01197dd0
    1650:	80080252 	andhi	r0, r8, r2, asr r2
    1654:	02530119 	subseq	r0, r3, #1073741830	; 0x40000006
    1658:	02190077 	andseq	r0, r9, #119, 0	; 0x77
    165c:	7502007d 	strvc	r0, [r2, #-125]	; 0xffffff83
    1660:	7d021900 	vstrvc.16	s2, [r2, #-0]	; <UNPREDICTABLE>
    1664:	00760204 	rsbseq	r0, r6, r4, lsl #4
    1668:	88481800 	stmdahi	r8, {fp, ip}^
    166c:	07420000 	strbeq	r0, [r2, -r0]
    1670:	03dd0000 	bicseq	r0, sp, #0, 0
    1674:	01190000 	tsteq	r9, r0
    1678:	193a0150 	ldmdbne	sl!, {r4, r6, r8}
    167c:	91035101 	tstls	r3, r1, lsl #2
    1680:	01197ed0 			; <UNDEFINED> instruction: 0x01197ed0
    1684:	80080252 	andhi	r0, r8, r2, asr r2
    1688:	02530119 	subseq	r0, r3, #1073741830	; 0x40000006
    168c:	0219007a 	andseq	r0, r9, #122, 0	; 0x7a
    1690:	7502007d 	strvc	r0, [r2, #-125]	; 0xffffff83
    1694:	7d021900 	vstrvc.16	s2, [r2, #-0]	; <UNPREDICTABLE>
    1698:	00760204 	rsbseq	r0, r6, r4, lsl #4
    169c:	88541800 	ldmdahi	r4, {fp, ip}^
    16a0:	0aaa0000 	beq	fea816a8 <__bss_end__+0xfea778e8>
    16a4:	03fb0000 	mvnseq	r0, #0, 0
    16a8:	01190000 	tsteq	r9, r0
    16ac:	d0910350 	addsle	r0, r1, r0, asr r3
    16b0:	5101197d 	tstpl	r1, sp, ror r9
    16b4:	92500305 	subsls	r0, r0, #335544320	; 0x14000000
    16b8:	18000000 	stmdane	r0, {}	; <UNPREDICTABLE>
    16bc:	00008868 	andeq	r8, r0, r8, ror #16
    16c0:	00000ab6 			; <UNDEFINED> instruction: 0x00000ab6
    16c4:	00000417 	andeq	r0, r0, r7, lsl r4
    16c8:	03500119 	cmpeq	r0, #1073741830	; 0x40000006
    16cc:	197dd091 	ldmdbne	sp!, {r0, r4, r7, ip, lr, pc}^
    16d0:	91035101 	tstls	r3, r1, lsl #2
    16d4:	18007ed0 	stmdane	r0, {r4, r6, r7, r9, sl, fp, ip, sp, lr}
    16d8:	0000888c 	andeq	r8, r0, ip, lsl #17
    16dc:	00000a9e 	muleq	r0, lr, sl
    16e0:	00000450 	andeq	r0, r0, r0, asr r4
    16e4:	05500119 	ldrbeq	r0, [r0, #-281]	; 0xfffffee7
    16e8:	00910003 	addseq	r0, r1, r3
    16ec:	51011900 	tstpl	r1, r0, lsl #18
    16f0:	923c0305 	eorsls	r0, ip, #335544320	; 0x14000000
    16f4:	01190000 	tsteq	r9, r0
    16f8:	98030552 	stmdals	r3, {r1, r4, r6, r8, sl}
    16fc:	19000093 	stmdbne	r0, {r0, r1, r4, r7}
    1700:	08025301 	stmdaeq	r2, {r0, r8, r9, ip, lr}
    1704:	7d02199f 	vstrvc.16	s2, [r2, #-318]	; 0xfffffec2	; <UNPREDICTABLE>
    1708:	a4030500 	strge	r0, [r3], #-1280	; 0xfffffb00
    170c:	00000092 	muleq	r0, r2, r0
    1710:	0088901a 	addeq	r9, r8, sl, lsl r0
    1714:	000ac200 	andeq	ip, sl, r0, lsl #4
    1718:	88b01800 	ldmhi	r0!, {fp, ip}
    171c:	07420000 	strbeq	r0, [r2, -r0]
    1720:	048d0000 	streq	r0, [sp], #0
    1724:	01190000 	tsteq	r9, r0
    1728:	19400150 	stmdbne	r0, {r4, r6, r8}^
    172c:	91035101 	tstls	r3, r1, lsl #2
    1730:	01197dd0 			; <UNDEFINED> instruction: 0x01197dd0
    1734:	80080252 	andhi	r0, r8, r2, asr r2
    1738:	02530119 	subseq	r0, r3, #1073741830	; 0x40000006
    173c:	02190077 	andseq	r0, r9, #119, 0	; 0x77
    1740:	7502007d 	strvc	r0, [r2, #-125]	; 0xffffff83
    1744:	7d021900 	vstrvc.16	s2, [r2, #-0]	; <UNPREDICTABLE>
    1748:	00760204 	rsbseq	r0, r6, r4, lsl #4
    174c:	88d01800 	ldmhi	r0, {fp, ip}^
    1750:	07420000 	strbeq	r0, [r2, -r0]
    1754:	04c10000 	strbeq	r0, [r1], #0
    1758:	01190000 	tsteq	r9, r0
    175c:	19400150 	stmdbne	r0, {r4, r6, r8}^
    1760:	91035101 	tstls	r3, r1, lsl #2
    1764:	01197ed0 			; <UNDEFINED> instruction: 0x01197ed0
    1768:	80080252 	andhi	r0, r8, r2, asr r2
    176c:	02530119 	subseq	r0, r3, #1073741830	; 0x40000006
    1770:	0219007a 	andseq	r0, r9, #122, 0	; 0x7a
    1774:	7502007d 	strvc	r0, [r2, #-125]	; 0xffffff83
    1778:	7d021900 	vstrvc.16	s2, [r2, #-0]	; <UNPREDICTABLE>
    177c:	00760204 	rsbseq	r0, r6, r4, lsl #4
    1780:	88dc1800 	ldmhi	ip, {fp, ip}^
    1784:	0ace0000 	beq	ff38178c <__bss_end__+0xff3779cc>
    1788:	04dd0000 	ldrbeq	r0, [sp], #0
    178c:	01190000 	tsteq	r9, r0
    1790:	d0910350 	addsle	r0, r1, r0, asr r3
    1794:	5101197d 	tstpl	r1, sp, ror r9
    1798:	7ed29103 	atnvcs	f1, f3
    179c:	88f01800 	ldmhi	r0!, {fp, ip}^
    17a0:	0ace0000 	beq	ff3817a8 <__bss_end__+0xff3779e8>
    17a4:	04f90000 	ldrbteq	r0, [r9], #0
    17a8:	01190000 	tsteq	r9, r0
    17ac:	d0910350 	addsle	r0, r1, r0, asr r3
    17b0:	5101197d 	tstpl	r1, sp, ror r9
    17b4:	7ed09103 	atnvcs	f1, f3
    17b8:	89101800 	ldmdbhi	r0, {fp, ip}
    17bc:	0a9e0000 	beq	fe7817c4 <__bss_end__+0xfe777a04>
    17c0:	052f0000 	streq	r0, [pc, #-0]!	; 17c8 <__code_start__-0x6838>
    17c4:	01190000 	tsteq	r9, r0
    17c8:	e0030550 	and	r0, r3, r0, asr r5
    17cc:	19000092 	stmdbne	r0, {r1, r4, r7}
    17d0:	03055101 	movweq	r5, #20737	; 0x5101
    17d4:	0000923c 	andeq	r9, r0, ip, lsr r2
    17d8:	05520119 	ldrbeq	r0, [r2, #-281]	; 0xfffffee7
    17dc:	00939803 	addseq	r9, r3, r3, lsl #16
    17e0:	53011900 	movwpl	r1, #6400	; 0x1900
    17e4:	19b60802 	ldmibne	r6!, {r1, fp}
    17e8:	02007d02 	andeq	r7, r0, #128	; 0x80
    17ec:	1a000076 	bne	19cc <__code_start__-0x6634>
    17f0:	00008914 	andeq	r8, r0, r4, lsl r9
    17f4:	00000ac2 	andeq	r0, r0, r2, asr #21
    17f8:	86c01800 	strbhi	r1, [r0], r0, lsl #16
    17fc:	09c00000 	stmibeq	r0, {}^	; <UNPREDICTABLE>
    1800:	054d0000 	strbeq	r0, [sp, #-0]
    1804:	01190000 	tsteq	r9, r0
    1808:	00770250 	rsbseq	r0, r7, r0, asr r2
    180c:	876c1800 	strbhi	r1, [ip, -r0, lsl #16]!
    1810:	0a9e0000 	beq	fe781818 <__bss_end__+0xfe777a58>
    1814:	05860000 	streq	r0, [r6]
    1818:	01190000 	tsteq	r9, r0
    181c:	00030550 	andeq	r0, r3, r0, asr r5
    1820:	19000091 	stmdbne	r0, {r0, r4, r7}
    1824:	03055101 	movweq	r5, #20737	; 0x5101
    1828:	0000923c 	andeq	r9, r0, ip, lsr r2
    182c:	05520119 	ldrbeq	r0, [r2, #-281]	; 0xfffffee7
    1830:	00939803 	addseq	r9, r3, r3, lsl #16
    1834:	53011900 	movwpl	r1, #6400	; 0x1900
    1838:	19980802 	ldmibne	r8, {r1, fp}
    183c:	05007d02 	streq	r7, [r0, #-3330]	; 0xfffff2fe
    1840:	00928003 	addseq	r8, r2, r3
    1844:	701a0000 	andsvc	r0, sl, r0
    1848:	c2000087 	andgt	r0, r0, #135, 0	; 0x87
    184c:	1800000a 	stmdane	r0, {r1, r3}
    1850:	00008928 	andeq	r8, r0, r8, lsr #18
    1854:	00000a9e 	muleq	r0, lr, sl
    1858:	000005be 			; <UNDEFINED> instruction: 0x000005be
    185c:	05500119 	ldrbeq	r0, [r0, #-281]	; 0xfffffee7
    1860:	00930803 	addseq	r0, r3, r3, lsl #16
    1864:	51011900 	tstpl	r1, r0, lsl #18
    1868:	923c0305 	eorsls	r0, ip, #335544320	; 0x14000000
    186c:	01190000 	tsteq	r9, r0
    1870:	98030552 	stmdals	r3, {r1, r4, r6, r8, sl}
    1874:	19000093 	stmdbne	r0, {r0, r1, r4, r7}
    1878:	08025301 	stmdaeq	r2, {r0, r8, r9, ip, lr}
    187c:	2c1a00be 	ldccs	0, cr0, [sl], {190}	; 0xbe
    1880:	c2000089 	andgt	r0, r0, #137, 0	; 0x89
    1884:	1800000a 	stmdane	r0, {r1, r3}
    1888:	00008958 	andeq	r8, r0, r8, asr r9
    188c:	00000742 	andeq	r0, r0, r2, asr #14
    1890:	000005f4 	strdeq	r0, [r0], -r4
    1894:	01500119 	cmpeq	r0, r9, lsl r1
    1898:	5101193a 	tstpl	r1, sl, lsr r9
    189c:	7dd09103 	ldfvcp	f1, [r0, #12]
    18a0:	02520119 	subseq	r0, r2, #1073741830	; 0x40000006
    18a4:	02198008 	andseq	r8, r9, #8, 0
    18a8:	7502007d 	strvc	r0, [r2, #-125]	; 0xffffff83
    18ac:	7d021900 	vstrvc.16	s2, [r2, #-0]	; <UNPREDICTABLE>
    18b0:	00310104 	eorseq	r0, r1, r4, lsl #2
    18b4:	00899018 	addeq	r9, r9, r8, lsl r0
    18b8:	00074200 	andeq	r4, r7, r0, lsl #4
    18bc:	00062100 	andeq	r2, r6, r0, lsl #2
    18c0:	50011900 	andpl	r1, r1, r0, lsl #18
    18c4:	01193a01 	tsteq	r9, r1, lsl #20
    18c8:	d0910351 	addsle	r0, r1, r1, asr r3
    18cc:	5201197d 	andpl	r1, r1, #2048000	; 0x1f4000
    18d0:	19800802 	stmibne	r0, {r1, fp}
    18d4:	02007d02 	andeq	r7, r0, #128	; 0x80
    18d8:	02190075 	andseq	r0, r9, #117, 0	; 0x75
    18dc:	3001047d 	andcc	r0, r1, sp, ror r4
    18e0:	89c41800 	stmibhi	r4, {fp, ip}^
    18e4:	07420000 	strbeq	r0, [r2, -r0]
    18e8:	064e0000 	strbeq	r0, [lr], -r0
    18ec:	01190000 	tsteq	r9, r0
    18f0:	19400150 	stmdbne	r0, {r4, r6, r8}^
    18f4:	91035101 	tstls	r3, r1, lsl #2
    18f8:	01197dd0 			; <UNDEFINED> instruction: 0x01197dd0
    18fc:	80080252 	andhi	r0, r8, r2, asr r2
    1900:	007d0219 	rsbseq	r0, sp, r9, lsl r2
    1904:	19007502 	stmdbne	r0, {r1, r8, sl, ip, sp, lr}
    1908:	01047d02 	tsteq	r4, r2, lsl #26
    190c:	f8180030 			; <UNDEFINED> instruction: 0xf8180030
    1910:	42000089 	andmi	r0, r0, #137, 0	; 0x89
    1914:	7b000007 	blvc	1938 <__code_start__-0x66c8>
    1918:	19000006 	stmdbne	r0, {r1, r2}
    191c:	32015001 	andcc	r5, r1, #1, 0
    1920:	03510119 	cmpeq	r1, #1073741830	; 0x40000006
    1924:	197dd091 	ldmdbne	sp!, {r0, r4, r7, ip, lr, pc}^
    1928:	08025201 	stmdaeq	r2, {r0, r9, ip, lr}
    192c:	7d021980 	vstrvc.16	s2, [r2, #-256]	; 0xffffff00	; <UNPREDICTABLE>
    1930:	00750200 	rsbseq	r0, r5, r0, lsl #4
    1934:	047d0219 	ldrbteq	r0, [sp], #-537	; 0xfffffde7
    1938:	18003001 	stmdane	r0, {r0, ip, sp}
    193c:	00008a40 	andeq	r8, r0, r0, asr #20
    1940:	00000742 	andeq	r0, r0, r2, asr #14
    1944:	000006a8 	andeq	r0, r0, r8, lsr #13
    1948:	01500119 	cmpeq	r0, r9, lsl r1
    194c:	51011938 	tstpl	r1, r8, lsr r9
    1950:	7dd09103 	ldfvcp	f1, [r0, #12]
    1954:	02520119 	subseq	r0, r2, #1073741830	; 0x40000006
    1958:	02198008 	andseq	r8, r9, #8, 0
    195c:	7502007d 	strvc	r0, [r2, #-125]	; 0xffffff83
    1960:	7d021900 	vstrvc.16	s2, [r2, #-0]	; <UNPREDICTABLE>
    1964:	00300104 	eorseq	r0, r0, r4, lsl #2
    1968:	008a6018 	addeq	r6, sl, r8, lsl r0
    196c:	000a9e00 	andeq	r9, sl, r0, lsl #28
    1970:	0006cb00 	andeq	ip, r6, r0, lsl #22
    1974:	50011900 	andpl	r1, r1, r0, lsl #18
    1978:	93300305 	teqls	r0, #335544320	; 0x14000000
    197c:	01190000 	tsteq	r9, r0
    1980:	007a0251 	rsbseq	r0, sl, r1, asr r2
    1984:	02520119 	subseq	r0, r2, #1073741830	; 0x40000006
    1988:	1b00007a 	blne	1b78 <__code_start__-0x6488>
    198c:	00008a70 	andeq	r8, r0, r0, ror sl
    1990:	000006dd 	ldrdeq	r0, [r0], -sp
    1994:	04500119 	ldrbeq	r0, [r0], #-281	; 0xfffffee7
    1998:	067dc891 			; <UNDEFINED> instruction: 0x067dc891
    199c:	8a841800 	bhi	fe1079a4 <__bss_end__+0xfe0fdbe4>
    19a0:	0a9e0000 	beq	fe7819a8 <__bss_end__+0xfe777be8>
    19a4:	070c0000 	streq	r0, [ip, -r0]
    19a8:	01190000 	tsteq	r9, r0
    19ac:	60030550 	andvs	r0, r3, r0, asr r5
    19b0:	19000093 	stmdbne	r0, {r0, r1, r4, r7}
    19b4:	03055101 	movweq	r5, #20737	; 0x5101
    19b8:	0000923c 	andeq	r9, r0, ip, lsr r2
    19bc:	05520119 	ldrbeq	r0, [r2, #-281]	; 0xfffffee7
    19c0:	00939803 	addseq	r9, r3, r3, lsl #16
    19c4:	53011900 	movwpl	r1, #6400	; 0x1900
    19c8:	00e20802 	rsceq	r0, r2, r2, lsl #16
    19cc:	008a881a 	addeq	r8, sl, sl, lsl r8
    19d0:	000ac200 	andeq	ip, sl, r0, lsl #4
    19d4:	08000000 	stmdaeq	r0, {}	; <UNPREDICTABLE>
    19d8:	0000b904 	andeq	fp, r0, r4, lsl #18
    19dc:	00c01c00 	sbceq	r1, r0, r0, lsl #24
    19e0:	072d0000 	streq	r0, [sp, -r0]!
    19e4:	2c1d0000 	ldccs	0, cr0, [sp], {-0}
    19e8:	09000000 	stmdbeq	r0, {}	; <UNPREDICTABLE>
    19ec:	071d0900 	ldreq	r0, [sp, -r0, lsl #18]
    19f0:	b91c0000 	ldmdblt	ip, {}	; <UNPREDICTABLE>
    19f4:	42000000 	andmi	r0, r0, #0, 0
    19f8:	1d000007 	stcne	0, cr0, [r0, #-28]	; 0xffffffe4
    19fc:	0000002c 	andeq	r0, r0, ip, lsr #32
    1a00:	391e007f 	ldmdbcc	lr, {r0, r1, r2, r3, r4, r5, r6}
    1a04:	01000008 	tsteq	r0, r8
    1a08:	07170149 	ldreq	r0, [r7, -r9, asr #2]
    1a0c:	84280000 	strthi	r0, [r8], #-0
    1a10:	01b40000 			; <UNDEFINED> instruction: 0x01b40000
    1a14:	9c010000 	stcls	0, cr0, [r1], {-0}
    1a18:	000008ab 	andeq	r0, r0, fp, lsr #17
    1a1c:	0008851f 	andeq	r8, r8, pc, lsl r5
    1a20:	0f490100 	svceq	0x00490100
    1a24:	0000002c 	andeq	r0, r0, ip, lsr #32
    1a28:	00000a35 	andeq	r0, r0, r5, lsr sl
    1a2c:	00000a2f 	andeq	r0, r0, pc, lsr #20
    1a30:	7473640e 	ldrbtvc	r6, [r3], #-1038	; 0xfffffbf2
    1a34:	1b490100 	blne	1241e3c <__bss_end__+0x123807c>
    1a38:	00000717 	andeq	r0, r0, r7, lsl r7
    1a3c:	00000a73 	andeq	r0, r0, r3, ror sl
    1a40:	00000a63 	andeq	r0, r0, r3, ror #20
    1a44:	01006e0e 	tsteq	r0, lr, lsl #28
    1a48:	00252449 	eoreq	r2, r5, r9, asr #8
    1a4c:	0ad70000 	beq	ff5c1a54 <__bss_end__+0xff5b7c94>
    1a50:	0ad30000 	beq	ff4c1a58 <__bss_end__+0xff4b7c98>
    1a54:	760e0000 	strvc	r0, [lr], -r0
    1a58:	01006c61 	tsteq	r0, r1, ror #24
    1a5c:	00252b49 	eoreq	r2, r5, r9, asr #22
    1a60:	0b010000 	bleq	41a68 <__bss_end__+0x37ca8>
    1a64:	0af50000 	beq	ffd41a6c <__bss_end__+0xffd37cac>
    1a68:	d01f0000 	andsle	r0, pc, r0
    1a6c:	01000007 	tsteq	r0, r7
    1a70:	00253449 	eoreq	r3, r5, r9, asr #8
    1a74:	0b570000 	bleq	15c1a7c <__bss_end__+0x15b7cbc>
    1a78:	0b510000 	bleq	1441a80 <__bss_end__+0x1437cc0>
    1a7c:	8a0f0000 	bhi	3c1a84 <__bss_end__+0x3b7cc4>
    1a80:	01000008 	tsteq	r0, r8
    1a84:	00253f49 	eoreq	r3, r5, r9, asr #30
    1a88:	91020000 	mrsls	r0, (UNDEF: 2)
    1a8c:	75621404 	strbvc	r1, [r2, #-1028]!	; 0xfffffbfc
    1a90:	4e010066 	cdpmi	0, 0, cr0, cr1, cr6, {3}
    1a94:	0008ab07 	andeq	sl, r8, r7, lsl #22
    1a98:	a8910300 	ldmge	r1, {r8, r9}
    1a9c:	0070107f 	rsbseq	r1, r0, pc, ror r0
    1aa0:	17114e01 	ldrne	r4, [r1, -r1, lsl #28]
    1aa4:	a1000007 	tstge	r0, r7
    1aa8:	8100000b 	tsthi	r0, fp
    1aac:	1000000b 	andne	r0, r0, fp
    1ab0:	4f010075 	svcmi	0x00010075
    1ab4:	00002c0b 	andeq	r2, r0, fp, lsl #24
    1ab8:	000c8700 	andeq	r8, ip, r0, lsl #14
    1abc:	000c7300 	andeq	r7, ip, r0, lsl #6
    1ac0:	03221200 			; <UNDEFINED> instruction: 0x03221200
    1ac4:	08cb0000 	stmiaeq	fp, {}^	; <UNPREDICTABLE>
    1ac8:	03050000 	movweq	r0, #20480	; 0x5000
    1acc:	00009380 	andeq	r9, r0, r0, lsl #7
    1ad0:	00849416 	addeq	r9, r4, r6, lsl r4
    1ad4:	00007800 	andeq	r7, r0, r0, lsl #16
    1ad8:	00083200 	andeq	r3, r8, r0, lsl #4
    1adc:	08261100 	stmdaeq	r6!, {r8, ip}
    1ae0:	54010000 	strpl	r0, [r1], #-0
    1ae4:	00002c0d 	andeq	r2, r0, sp, lsl #24
    1ae8:	000d0800 	andeq	r0, sp, r0, lsl #16
    1aec:	000d0000 	andeq	r0, sp, r0
    1af0:	4c180000 	ldcmi	0, cr0, [r8], {-0}
    1af4:	5d000085 	stcpl	0, cr0, [r0, #-532]	; 0xfffffdec
    1af8:	47000009 	strmi	r0, [r0, -r9]
    1afc:	19000008 	stmdbne	r0, {r3}
    1b00:	91035101 	tstls	r3, r1, lsl #2
    1b04:	18007fa0 	stmdane	r0, {r5, r7, r8, r9, sl, fp, ip, sp, lr}
    1b08:	00008560 	andeq	r8, r0, r0, ror #10
    1b0c:	000008d0 	ldrdeq	r0, [r0], -r0	; <UNPREDICTABLE>
    1b10:	00000868 	andeq	r0, r0, r8, ror #16
    1b14:	02500119 	subseq	r0, r0, #1073741830	; 0x40000006
    1b18:	01190075 	tsteq	r9, r5, ror r0
    1b1c:	00740251 	rsbseq	r0, r4, r1, asr r2
    1b20:	03530119 	cmpeq	r3, #1073741830	; 0x40000006
    1b24:	007fa091 			; <UNDEFINED> instruction: 0x007fa091
    1b28:	0085b818 	addeq	fp, r5, r8, lsl r8
    1b2c:	000a9e00 	andeq	r9, sl, r0, lsl #28
    1b30:	0008a100 	andeq	sl, r8, r0, lsl #2
    1b34:	50011900 	andpl	r1, r1, r0, lsl #18
    1b38:	91000305 	tstls	r0, r5, lsl #6
    1b3c:	01190000 	tsteq	r9, r0
    1b40:	3c030551 	cfstr32cc	mvfx0, [r3], {81}	; 0x51
    1b44:	19000092 	stmdbne	r0, {r1, r4, r7}
    1b48:	03055201 	movweq	r5, #20993	; 0x5201
    1b4c:	00009380 	andeq	r9, r0, r0, lsl #7
    1b50:	02530119 	subseq	r0, r3, #1073741830	; 0x40000006
    1b54:	02197908 	andseq	r7, r9, #8, 18	; 0x20000
    1b58:	0305007d 	movweq	r0, #20605	; 0x507d
    1b5c:	00009250 	andeq	r9, r0, r0, asr r2
    1b60:	85bc1a00 	ldrhi	r1, [ip, #2560]!	; 0xa00
    1b64:	0ac20000 	beq	ff081b6c <__bss_end__+0xff077dac>
    1b68:	1c000000 	stcne	0, cr0, [r0], {-0}
    1b6c:	000000b9 	strheq	r0, [r0], -r9
    1b70:	000008bb 			; <UNDEFINED> instruction: 0x000008bb
    1b74:	00002c1d 	andeq	r2, r0, sp, lsl ip
    1b78:	1c003f00 	stcne	15, cr3, [r0], {-0}
    1b7c:	000000c0 	andeq	r0, r0, r0, asr #1
    1b80:	000008cb 	andeq	r0, r0, fp, asr #17
    1b84:	00002c1d 	andeq	r2, r0, sp, lsl ip
    1b88:	09000400 	stmdbeq	r0, {sl}
    1b8c:	000008bb 			; <UNDEFINED> instruction: 0x000008bb
    1b90:	0008461e 	andeq	r4, r8, lr, lsl r6
    1b94:	0e380100 	rsfeqe	f0, f0, f0
    1b98:	00000717 	andeq	r0, r0, r7, lsl r7
    1b9c:	000083f0 	strdeq	r8, [r0], -r0
    1ba0:	00000038 	andeq	r0, r0, r8, lsr r0
    1ba4:	095d9c01 	ldmdbeq	sp, {r0, sl, fp, ip, pc}^
    1ba8:	640e0000 	strvs	r0, [lr], #-0
    1bac:	01007473 	tsteq	r0, r3, ror r4
    1bb0:	07171c38 			; <UNDEFINED> instruction: 0x07171c38
    1bb4:	0d490000 	stcleq	0, cr0, [r9, #-0]
    1bb8:	0d3f0000 	ldceq	0, cr0, [pc, #-0]	; 1bc0 <__code_start__-0x6440>
    1bbc:	6e0e0000 	cdpvs	0, 0, cr0, cr14, cr0, {0}
    1bc0:	25380100 	ldrcs	r0, [r8, #-256]!	; 0xffffff00
    1bc4:	00000025 	andeq	r0, r0, r5, lsr #32
    1bc8:	00000d90 	muleq	r0, r0, sp
    1bcc:	00000d8c 	andeq	r0, r0, ip, lsl #27
    1bd0:	0100700e 	tsteq	r0, lr
    1bd4:	07172e38 			; <UNDEFINED> instruction: 0x07172e38
    1bd8:	0db90000 	ldceq	0, cr0, [r9]
    1bdc:	0db10000 	ldceq	0, cr0, [r1]
    1be0:	191f0000 	ldmdbne	pc, {}	; <UNPREDICTABLE>
    1be4:	01000008 	tsteq	r0, r8
    1be8:	07173738 			; <UNDEFINED> instruction: 0x07173738
    1bec:	0df30000 	ldcleq	0, cr0, [r3]
    1bf0:	0def0000 	stcleq	0, cr0, [pc]	; 1bf8 <__code_start__-0x6408>
    1bf4:	6c100000 	ldcvs	0, cr0, [r0], {-0}
    1bf8:	01006e65 	tsteq	r0, r5, ror #28
    1bfc:	0025063a 	eoreq	r0, r5, sl, lsr r6
    1c00:	0e190000 	cdpeq	0, 1, cr0, cr9, cr0, {0}
    1c04:	0e110000 	cdpeq	0, 1, cr0, cr1, cr0, {0}
    1c08:	73100000 	tstvc	r0, #0, 0
    1c0c:	083e0100 	ldmdaeq	lr!, {r8}
    1c10:	00000717 	andeq	r0, r0, r7, lsl r7
    1c14:	00000e67 	andeq	r0, r0, r7, ror #28
    1c18:	00000e65 	andeq	r0, r0, r5, ror #28
    1c1c:	61702000 	cmnvs	r0, r0
    1c20:	2e010064 	cdpcs	0, 0, cr0, cr1, cr4, {3}
    1c24:	0007170e 	andeq	r1, r7, lr, lsl #14
    1c28:	0083cc00 	addeq	ip, r3, r0, lsl #24
    1c2c:	00002400 	andeq	r2, r0, r0, lsl #8
    1c30:	c09c0100 	addsgt	r0, ip, r0, lsl #2
    1c34:	0e000009 	cdpeq	0, 0, cr0, cr0, cr9, {0}
    1c38:	2e010070 	mcrcs	0, 0, r0, cr1, cr0, {3}
    1c3c:	00071718 	andeq	r1, r7, r8, lsl r7
    1c40:	000e8000 	andeq	r8, lr, r0
    1c44:	000e7a00 	andeq	r7, lr, r0, lsl #20
    1c48:	08851f00 	stmeq	r5, {r8, r9, sl, fp, ip}
    1c4c:	2e010000 	cdpcs	0, 0, cr0, cr1, cr0, {0}
    1c50:	00071722 	andeq	r1, r7, r2, lsr #14
    1c54:	000eaf00 	andeq	sl, lr, r0, lsl #30
    1c58:	000eab00 	andeq	sl, lr, r0, lsl #22
    1c5c:	07d00f00 	ldrbeq	r0, [r0, r0, lsl #30]
    1c60:	2e010000 	cdpcs	0, 0, cr0, cr1, cr0, {0}
    1c64:	0000252c 	andeq	r2, r0, ip, lsr #10
    1c68:	10520100 	subsne	r0, r2, r0, lsl #2
    1c6c:	006e656c 	rsbeq	r6, lr, ip, ror #10
    1c70:	25062f01 	strcs	r2, [r6, #-3841]	; 0xfffff0ff
    1c74:	d2000000 	andle	r0, r0, #0, 0
    1c78:	d000000e 	andle	r0, r0, lr
    1c7c:	0000000e 	andeq	r0, r0, lr
    1c80:	00078f1e 	andeq	r8, r7, lr, lsl pc
    1c84:	0c270100 	stfeqs	f0, [r7], #-0
    1c88:	00000025 	andeq	r0, r0, r5, lsr #32
    1c8c:	000083b8 			; <UNDEFINED> instruction: 0x000083b8
    1c90:	00000014 	andeq	r0, r0, r4, lsl r0
    1c94:	09ed9c01 	stmibeq	sp!, {r0, sl, fp, ip, pc}^
    1c98:	630e0000 	movwvs	r0, #57344	; 0xe000
    1c9c:	18270100 	stmdane	r7!, {r8}
    1ca0:	00000025 	andeq	r0, r0, r5, lsr #32
    1ca4:	00000eeb 	andeq	r0, r0, fp, ror #29
    1ca8:	00000ee5 	andeq	r0, r0, r5, ror #29
    1cac:	08062100 	stmdaeq	r6, {r8, sp}
    1cb0:	1f010000 	svcne	0x00010000
    1cb4:	0085dc06 	addeq	sp, r5, r6, lsl #24
    1cb8:	00006400 	andeq	r6, r0, r0, lsl #8
    1cbc:	7d9c0100 	ldfvcs	f0, [ip]
    1cc0:	1f00000a 	svcne	0x0000000a
    1cc4:	000007e3 	andeq	r0, r0, r3, ror #15
    1cc8:	9e1b1f01 	cdpls	15, 1, cr1, cr11, cr1, {0}
    1ccc:	1d000000 	stcne	0, cr0, [r0, #-0]
    1cd0:	1900000f 	stmdbne	r0, {r0, r1, r2, r3}
    1cd4:	1f00000f 	svcne	0x0000000f
    1cd8:	0000083e 	andeq	r0, r0, lr, lsr r8
    1cdc:	d1301f01 	teqle	r0, r1, lsl #30
    1ce0:	42000000 	andmi	r0, r0, #0, 0
    1ce4:	3e00000f 	cdpcc	0, 0, cr0, cr0, cr15, {0}
    1ce8:	1200000f 	andne	r0, r0, #15, 0
    1cec:	00000322 	andeq	r0, r0, r2, lsr #6
    1cf0:	00000a8d 	andeq	r0, r0, sp, lsl #21
    1cf4:	93880305 	orrls	r0, r8, #335544320	; 0x14000000
    1cf8:	24180000 	ldrcs	r0, [r8], #-0
    1cfc:	9e000086 	cdpls	0, 0, cr0, cr0, cr6, {4}
    1d00:	7300000a 	movwvc	r0, #10
    1d04:	1900000a 	stmdbne	r0, {r1, r3}
    1d08:	03055001 	movweq	r5, #20481	; 0x5001
    1d0c:	00009100 	andeq	r9, r0, r0, lsl #2
    1d10:	05510119 	ldrbeq	r0, [r1, #-281]	; 0xfffffee7
    1d14:	00923c03 	addseq	r3, r2, r3, lsl #24
    1d18:	52011900 	andpl	r1, r1, #0, 18
    1d1c:	93880305 	orrls	r0, r8, #335544320	; 0x14000000
    1d20:	01190000 	tsteq	r9, r0
    1d24:	20080253 	andcs	r0, r8, r3, asr r2
    1d28:	007d0219 	rsbseq	r0, sp, r9, lsl r2
    1d2c:	92780305 	rsbsls	r0, r8, #335544320	; 0x14000000
    1d30:	1a000000 	bne	1d38 <__code_start__-0x62c8>
    1d34:	00008628 	andeq	r8, r0, r8, lsr #12
    1d38:	00000ac2 	andeq	r0, r0, r2, asr #21
    1d3c:	00c01c00 	sbceq	r1, r0, r0, lsl #24
    1d40:	0a8d0000 	beq	fe341d48 <__bss_end__+0xfe337f88>
    1d44:	2c1d0000 	ldccs	0, cr0, [sp], {-0}
    1d48:	0e000000 	cdpeq	0, 0, cr0, cr0, cr0, {0}
    1d4c:	0a7d0900 	beq	1f44154 <__bss_end__+0x1f3a394>
    1d50:	7d220000 	stcvc	0, cr0, [r2, #-0]
    1d54:	7d000008 	stcvc	0, cr0, [r0, #-32]	; 0xffffffe0
    1d58:	03000008 	movweq	r0, #8
    1d5c:	fa2205f0 	blx	883524 <__bss_end__+0x879764>
    1d60:	fa000006 	blx	1d80 <__code_start__-0x6280>
    1d64:	03000006 	movweq	r0, #6
    1d68:	55220628 	strpl	r0, [r2, #-1576]!	; 0xfffff9d8
    1d6c:	55000008 	strpl	r0, [r0, #-8]
    1d70:	03000008 	movweq	r0, #8
    1d74:	1f2205ef 	svcne	0x002205ef
    1d78:	1f000008 	svcne	0x00000008
    1d7c:	03000008 	movweq	r0, #8
    1d80:	422207f2 	eormi	r0, r2, #63438848	; 0x3c80000
    1d84:	42000003 	andmi	r0, r0, #3, 0
    1d88:	03000003 	movweq	r0, #3
    1d8c:	4e22066e 	cfmadda32mi	mvax3, mvax0, mvfx2, mvfx14
    1d90:	4e000008 	cdpmi	0, 0, cr0, cr0, cr8, {0}
    1d94:	03000008 	movweq	r0, #8
    1d98:	0a0007f3 	beq	3d6c <__code_start__-0x4294>
    1d9c:	04000001 	streq	r0, [r0], #-1
    1da0:	00093900 	andeq	r3, r9, r0, lsl #18
    1da4:	28010400 	stmdacs	r1, {sl}
    1da8:	0c000006 	stceq	0, cr0, [r0], {6}
    1dac:	000008a1 	andeq	r0, r0, r1, lsr #17
    1db0:	00000715 	andeq	r0, r0, r5, lsl r7
    1db4:	00000080 	andeq	r0, r0, r0, lsl #1
    1db8:	00000000 	andeq	r0, r0, r0
    1dbc:	00001665 	andeq	r1, r0, r5, ror #12
    1dc0:	69050402 	stmdbvs	r5, {r1, sl}
    1dc4:	0300746e 	movweq	r7, #1134	; 0x46e
    1dc8:	003b0704 	eorseq	r0, fp, r4, lsl #14
    1dcc:	01030000 	mrseq	r0, (UNDEF: 3)
    1dd0:	0000aa06 	andeq	sl, r0, r6, lsl #20
    1dd4:	05020300 	streq	r0, [r2, #-768]	; 0xfffffd00
    1dd8:	0000018f 	andeq	r0, r0, pc, lsl #3
    1ddc:	05050403 	streq	r0, [r5, #-1027]	; 0xfffffbfd
    1de0:	03000000 	movweq	r0, #0
    1de4:	00000508 	andeq	r0, r0, r8, lsl #10
    1de8:	01030000 	mrseq	r0, (UNDEF: 3)
    1dec:	0000a808 	andeq	sl, r0, r8, lsl #16
    1df0:	07020300 	streq	r0, [r2, -r0, lsl #6]
    1df4:	00000173 	andeq	r0, r0, r3, ror r1
    1df8:	36070403 	strcc	r0, [r7], -r3, lsl #8
    1dfc:	03000000 	movweq	r0, #0
    1e00:	00310708 	eorseq	r0, r1, r8, lsl #14
    1e04:	25040000 	strcs	r0, [r4, #-0]
    1e08:	7a000000 	bvc	1e10 <__code_start__-0x61f0>
    1e0c:	05000000 	streq	r0, [r0, #-0]
    1e10:	00000025 	andeq	r0, r0, r5, lsr #32
    1e14:	01a60600 			; <UNDEFINED> instruction: 0x01a60600
    1e18:	1c020000 	stcne	0, cr0, [r2], {-0}
    1e1c:	0000860e 	andeq	r8, r0, lr, lsl #12
    1e20:	6b040700 	blvs	103a28 <__bss_end__+0xf9c68>
    1e24:	04000000 	streq	r0, [r0], #-0
    1e28:	00000025 	andeq	r0, r0, r5, lsr #32
    1e2c:	0000009b 	muleq	r0, fp, r0
    1e30:	00009b05 	andeq	r9, r0, r5, lsl #22
    1e34:	04070000 	streq	r0, [r7], #-0
    1e38:	000000a8 	andeq	r0, r0, r8, lsr #1
    1e3c:	b1080103 	tstlt	r8, r3, lsl #2
    1e40:	08000000 	stmdaeq	r0, {}	; <UNPREDICTABLE>
    1e44:	000000a1 	andeq	r0, r0, r1, lsr #1
    1e48:	00077c06 	andeq	r7, r7, r6, lsl #24
    1e4c:	0e210200 	cdpeq	2, 2, cr0, cr1, cr0, {0}
    1e50:	000000b9 	strheq	r0, [r0], -r9
    1e54:	008c0407 	addeq	r0, ip, r7, lsl #8
    1e58:	93090000 	movwls	r0, #36864	; 0x9000
    1e5c:	01000008 	tsteq	r0, r8
    1e60:	8b08060c 	blhi	203698 <__bss_end__+0x1f98d8>
    1e64:	00100000 	andseq	r0, r0, r0
    1e68:	9c010000 	stcls	0, cr0, [r1], {-0}
    1e6c:	000000e8 	andeq	r0, r0, r8, ror #1
    1e70:	0100720a 	tsteq	r0, sl, lsl #4
    1e74:	002c0e0d 	eoreq	r0, ip, sp, lsl #28
    1e78:	0f690000 	svceq	0x00690000
    1e7c:	0f630000 	svceq	0x00630000
    1e80:	0b000000 	bleq	1e88 <__code_start__-0x6178>
    1e84:	00000199 	muleq	r0, r9, r1
    1e88:	f8060301 			; <UNDEFINED> instruction: 0xf8060301
    1e8c:	1000008a 	andne	r0, r0, sl, lsl #1
    1e90:	01000000 	mrseq	r0, (UNDEF: 0)
    1e94:	00720a9c 			; <UNDEFINED> instruction: 0x00720a9c
    1e98:	2c0e0401 	cfstrscs	mvf0, [lr], {1}
    1e9c:	9e000000 	cdpls	0, 0, cr0, cr0, cr0, {0}
    1ea0:	9800000f 	stmdals	r0, {r0, r1, r2, r3}
    1ea4:	0000000f 	andeq	r0, r0, pc
    1ea8:	00012f00 	andeq	r2, r1, r0, lsl #30
    1eac:	e2000400 	and	r0, r0, #0, 8
    1eb0:	04000009 	streq	r0, [r0], #-9
    1eb4:	00062801 	andeq	r2, r6, r1, lsl #16
    1eb8:	08c90c00 	stmiaeq	r9, {sl, fp}^
    1ebc:	07150000 	ldreq	r0, [r5, -r0]
    1ec0:	8b180000 	blhi	601ec8 <__bss_end__+0x5f8108>
    1ec4:	002c0000 	eoreq	r0, ip, r0
    1ec8:	17290000 	strne	r0, [r9, -r0]!
    1ecc:	04020000 	streq	r0, [r2], #-0
    1ed0:	746e6905 	strbtvc	r6, [lr], #-2309	; 0xfffff6fb
    1ed4:	07040300 	streq	r0, [r4, -r0, lsl #6]
    1ed8:	0000003b 	andeq	r0, r0, fp, lsr r0
    1edc:	aa060103 	bge	1822f0 <__bss_end__+0x178530>
    1ee0:	03000000 	movweq	r0, #0
    1ee4:	018f0502 	orreq	r0, pc, r2, lsl #10
    1ee8:	04030000 	streq	r0, [r3], #-0
    1eec:	00000505 	andeq	r0, r0, r5, lsl #10
    1ef0:	05080300 	streq	r0, [r8, #-768]	; 0xfffffd00
    1ef4:	00000000 	andeq	r0, r0, r0
    1ef8:	a8080103 	stmdage	r8, {r0, r1, r8}
    1efc:	03000000 	movweq	r0, #0
    1f00:	01730702 	cmneq	r3, r2, lsl #14
    1f04:	04030000 	streq	r0, [r3], #-0
    1f08:	00003607 	andeq	r3, r0, r7, lsl #12
    1f0c:	07080300 	streq	r0, [r8, -r0, lsl #6]
    1f10:	00000031 	andeq	r0, r0, r1, lsr r0
    1f14:	00002504 	andeq	r2, r0, r4, lsl #10
    1f18:	00007a00 	andeq	r7, r0, r0, lsl #20
    1f1c:	00250500 	eoreq	r0, r5, r0, lsl #10
    1f20:	06000000 	streq	r0, [r0], -r0
    1f24:	000001a6 	andeq	r0, r0, r6, lsr #3
    1f28:	860e1c02 	strhi	r1, [lr], -r2, lsl #24
    1f2c:	07000000 	streq	r0, [r0, -r0]
    1f30:	00006b04 	andeq	r6, r0, r4, lsl #22
    1f34:	00250400 	eoreq	r0, r5, r0, lsl #8
    1f38:	009b0000 	addseq	r0, fp, r0
    1f3c:	9b050000 	blls	141f44 <__bss_end__+0x138184>
    1f40:	00000000 	andeq	r0, r0, r0
    1f44:	00a80407 	adceq	r0, r8, r7, lsl #8
    1f48:	01030000 	mrseq	r0, (UNDEF: 3)
    1f4c:	0000b108 	andeq	fp, r0, r8, lsl #2
    1f50:	00a10800 	adceq	r0, r1, r0, lsl #16
    1f54:	7c060000 	stcvc	0, cr0, [r6], {-0}
    1f58:	02000007 	andeq	r0, r0, #7, 0
    1f5c:	00b90e21 	adcseq	r0, r9, r1, lsr #28
    1f60:	04070000 	streq	r0, [r7], #-0
    1f64:	0000008c 	andeq	r0, r0, ip, lsl #1
    1f68:	00034209 	andeq	r4, r3, r9, lsl #4
    1f6c:	06040100 	streq	r0, [r4], -r0, lsl #2
    1f70:	00008b18 	andeq	r8, r0, r8, lsl fp
    1f74:	0000002c 	andeq	r0, r0, ip, lsr #32
    1f78:	010e9c01 	tsteq	lr, r1, lsl #24
    1f7c:	2c0a0000 	stccs	0, cr0, [sl], {-0}
    1f80:	e800008b 	stmda	r0, {r0, r1, r3, r7}
    1f84:	0b000000 	bleq	1f8c <__code_start__-0x6074>
    1f88:	03055001 	movweq	r5, #20481	; 0x5001
    1f8c:	000093a4 	andeq	r9, r0, r4, lsr #7
    1f90:	8b300c00 	blhi	c04f98 <__bss_end__+0xbfb1d8>
    1f94:	010e0000 	mrseq	r0, (UNDEF: 14)
    1f98:	380d0000 	stmdacc	sp, {}	; <UNPREDICTABLE>
    1f9c:	1a00008b 	bne	21d0 <__code_start__-0x5e30>
    1fa0:	04000001 	streq	r0, [r0], #-1
    1fa4:	0b000001 	bleq	1fb0 <__code_start__-0x6050>
    1fa8:	3a015001 	bcc	55fb4 <__bss_end__+0x4c1f4>
    1fac:	8b3c0c00 	blhi	f04fb4 <__bss_end__+0xefb1f4>
    1fb0:	01260000 			; <UNDEFINED> instruction: 0x01260000
    1fb4:	0e000000 	cdpeq	0, 0, cr0, cr0, cr0, {0}
    1fb8:	000008e4 	andeq	r0, r0, r4, ror #17
    1fbc:	000008e4 	andeq	r0, r0, r4, ror #17
    1fc0:	0e064d02 	cdpeq	13, 0, cr4, cr6, cr2, {0}
    1fc4:	000008c0 	andeq	r0, r0, r0, asr #17
    1fc8:	000008c0 	andeq	r0, r0, r0, asr #17
    1fcc:	0e065802 	cdpeq	8, 0, cr5, cr6, cr2, {0}
    1fd0:	000008b5 			; <UNDEFINED> instruction: 0x000008b5
    1fd4:	000008b5 			; <UNDEFINED> instruction: 0x000008b5
    1fd8:	00066b02 	andeq	r6, r6, r2, lsl #22
    1fdc:	00000189 	andeq	r0, r0, r9, lsl #3
    1fe0:	0aa20004 	beq	fe881ff8 <__bss_end__+0xfe878238>
    1fe4:	01040000 	mrseq	r0, (UNDEF: 4)
    1fe8:	00000628 	andeq	r0, r0, r8, lsr #12
    1fec:	00091a0c 	andeq	r1, r9, ip, lsl #20
    1ff0:	00071500 	andeq	r1, r7, r0, lsl #10
    1ff4:	008b4400 	addeq	r4, fp, r0, lsl #8
    1ff8:	00003c00 	andeq	r3, r0, r0, lsl #24
    1ffc:	0017ce00 	andseq	ip, r7, r0, lsl #28
    2000:	05040200 	streq	r0, [r4, #-512]	; 0xfffffe00
    2004:	00746e69 	rsbseq	r6, r4, r9, ror #28
    2008:	3b070403 	blcc	1c301c <__bss_end__+0x1b925c>
    200c:	03000000 	movweq	r0, #0
    2010:	00aa0601 	adceq	r0, sl, r1, lsl #12
    2014:	02030000 	andeq	r0, r3, #0, 0
    2018:	00018f05 	andeq	r8, r1, r5, lsl #30
    201c:	05040300 	streq	r0, [r4, #-768]	; 0xfffffd00
    2020:	00000005 	andeq	r0, r0, r5
    2024:	00050803 	andeq	r0, r5, r3, lsl #16
    2028:	03000000 	movweq	r0, #0
    202c:	00a80801 	adceq	r0, r8, r1, lsl #16
    2030:	02030000 	andeq	r0, r3, #0, 0
    2034:	00017307 	andeq	r7, r1, r7, lsl #6
    2038:	07040300 	streq	r0, [r4, -r0, lsl #6]
    203c:	00000036 	andeq	r0, r0, r6, lsr r0
    2040:	31070803 	tstcc	r7, r3, lsl #16
    2044:	04000000 	streq	r0, [r0], #-0
    2048:	00000025 	andeq	r0, r0, r5, lsr #32
    204c:	0000007a 	andeq	r0, r0, sl, ror r0
    2050:	00002505 	andeq	r2, r0, r5, lsl #10
    2054:	a6060000 	strge	r0, [r6], -r0
    2058:	02000001 	andeq	r0, r0, #1, 0
    205c:	00860e1c 	addeq	r0, r6, ip, lsl lr
    2060:	04070000 	streq	r0, [r7], #-0
    2064:	0000006b 	andeq	r0, r0, fp, rrx
    2068:	00002504 	andeq	r2, r0, r4, lsl #10
    206c:	00009b00 	andeq	r9, r0, r0, lsl #22
    2070:	009b0500 	addseq	r0, fp, r0, lsl #10
    2074:	07000000 	streq	r0, [r0, -r0]
    2078:	0000a804 	andeq	sl, r0, r4, lsl #16
    207c:	08010300 	stmdaeq	r1, {r8, r9}
    2080:	000000b1 	strheq	r0, [r0], -r1
    2084:	0000a108 	andeq	sl, r0, r8, lsl #2
    2088:	077c0600 	ldrbeq	r0, [ip, -r0, lsl #12]!
    208c:	21020000 	mrscs	r0, (UNDEF: 2)
    2090:	0000b90e 	andeq	fp, r0, lr, lsl #18
    2094:	8c040700 	stchi	7, cr0, [r4], {-0}
    2098:	09000000 	stmdbeq	r0, {}	; <UNPREDICTABLE>
    209c:	000008f2 	strdeq	r0, [r0], -r2
    20a0:	44060401 	strmi	r0, [r6], #-1025	; 0xfffffbff
    20a4:	3c00008b 	stccc	0, cr0, [r0], {139}	; 0x8b
    20a8:	01000000 	mrseq	r0, (UNDEF: 0)
    20ac:	0001549c 	muleq	r1, ip, r4
    20b0:	07c20600 	strbeq	r0, [r2, r0, lsl #12]
    20b4:	05010000 	streq	r0, [r1, #-0]
    20b8:	00002510 	andeq	r2, r0, r0, lsl r5
    20bc:	07eb0600 	strbeq	r0, [fp, r0, lsl #12]!
    20c0:	05010000 	streq	r0, [r1, #-0]
    20c4:	0000251f 	andeq	r2, r0, pc, lsl r5
    20c8:	016b0a00 	cmneq	fp, r0, lsl #20
    20cc:	06010000 	streq	r0, [r1], -r0
    20d0:	73620b07 	cmnvc	r2, #7168	; 0x1c00
    20d4:	0a010073 	beq	422a8 <__bss_end__+0x384e8>
    20d8:	0001540a 	andeq	r5, r1, sl, lsl #8
    20dc:	000fd300 	andeq	sp, pc, r0, lsl #6
    20e0:	000fcd00 	andeq	ip, pc, r0, lsl #26
    20e4:	08fa0c00 	ldmeq	sl!, {sl, fp}^
    20e8:	0b010000 	bleq	420f0 <__bss_end__+0x38330>
    20ec:	0001540a 	andeq	r5, r1, sl, lsl #8
    20f0:	8b680d00 	blhi	1a054f8 <__bss_end__+0x19fb738>
    20f4:	00080000 	andeq	r0, r8, r0
    20f8:	012f0000 			; <UNDEFINED> instruction: 0x012f0000
    20fc:	690e0000 	stmdbvs	lr, {}	; <UNPREDICTABLE>
    2100:	1401006e 	strne	r0, [r1], #-110	; 0xffffff92
    2104:	00002c05 	andeq	r2, r0, r5, lsl #24
    2108:	0f000100 	svceq	0x00000100
    210c:	00008b4c 	andeq	r8, r0, ip, asr #22
    2110:	0000015a 	andeq	r0, r0, sl, asr r1
    2114:	008b680f 	addeq	r6, fp, pc, lsl #16
    2118:	00016700 	andeq	r6, r1, r0, lsl #14
    211c:	8b740f00 	blhi	1d05d24 <__bss_end__+0x1cfbf64>
    2120:	01730000 	cmneq	r3, r0
    2124:	780f0000 	stmdavc	pc, {}	; <UNPREDICTABLE>
    2128:	8000008b 	andhi	r0, r0, fp, lsl #1
    212c:	00000001 	andeq	r0, r0, r1
    2130:	00250407 	eoreq	r0, r5, r7, lsl #8
    2134:	0c100000 	ldceq	0, cr0, [r0], {-0}
    2138:	0c000009 	stceq	0, cr0, [r0], {9}
    213c:	02000009 	andeq	r0, r0, #9, 0
    2140:	11060136 	tstne	r6, r6, lsr r1
    2144:	00000902 	andeq	r0, r0, r2, lsl #18
    2148:	00000902 	andeq	r0, r0, r2, lsl #18
    214c:	10063b02 	andne	r3, r6, r2, lsl #22
    2150:	0000016b 	andeq	r0, r0, fp, ror #2
    2154:	0000016b 	andeq	r0, r0, fp, ror #2
    2158:	06010a02 	streq	r0, [r1], -r2, lsl #20
    215c:	00034211 	andeq	r4, r3, r1, lsl r2
    2160:	00034200 	andeq	r4, r3, r0, lsl #4
    2164:	066e0200 	strbteq	r0, [lr], -r0, lsl #4
    2168:	0000ce00 	andeq	ip, r0, r0, lsl #28
    216c:	9e000400 	cfcpysls	mvf0, mvf0
    2170:	0400000b 	streq	r0, [r0], #-11
    2174:	00062801 	andeq	r2, r6, r1, lsl #16
    2178:	092f0c00 	stmdbeq	pc!, {sl, fp}	; <UNPREDICTABLE>
    217c:	07150000 	ldreq	r0, [r5, -r0]
    2180:	8b800000 	blhi	fe002188 <__bss_end__+0xfdff83c8>
    2184:	00040000 	andeq	r0, r4, r0
    2188:	188d0000 	stmne	sp, {}	; <UNPREDICTABLE>
    218c:	04020000 	streq	r0, [r2], #-0
    2190:	746e6905 	strbtvc	r6, [lr], #-2309	; 0xfffff6fb
    2194:	07040300 	streq	r0, [r4, -r0, lsl #6]
    2198:	0000003b 	andeq	r0, r0, fp, lsr r0
    219c:	aa060103 	bge	1825b0 <__bss_end__+0x1787f0>
    21a0:	03000000 	movweq	r0, #0
    21a4:	018f0502 	orreq	r0, pc, r2, lsl #10
    21a8:	04030000 	streq	r0, [r3], #-0
    21ac:	00000505 	andeq	r0, r0, r5, lsl #10
    21b0:	05080300 	streq	r0, [r8, #-768]	; 0xfffffd00
    21b4:	00000000 	andeq	r0, r0, r0
    21b8:	a8080103 	stmdage	r8, {r0, r1, r8}
    21bc:	03000000 	movweq	r0, #0
    21c0:	01730702 	cmneq	r3, r2, lsl #14
    21c4:	04030000 	streq	r0, [r3], #-0
    21c8:	00003607 	andeq	r3, r0, r7, lsl #12
    21cc:	07080300 	streq	r0, [r8, -r0, lsl #6]
    21d0:	00000031 	andeq	r0, r0, r1, lsr r0
    21d4:	00002504 	andeq	r2, r0, r4, lsl #10
    21d8:	00007a00 	andeq	r7, r0, r0, lsl #20
    21dc:	00250500 	eoreq	r0, r5, r0, lsl #10
    21e0:	06000000 	streq	r0, [r0], -r0
    21e4:	000001a6 	andeq	r0, r0, r6, lsr #3
    21e8:	860e1c02 	strhi	r1, [lr], -r2, lsl #24
    21ec:	07000000 	streq	r0, [r0, -r0]
    21f0:	00006b04 	andeq	r6, r0, r4, lsl #22
    21f4:	00250400 	eoreq	r0, r5, r0, lsl #8
    21f8:	009b0000 	addseq	r0, fp, r0
    21fc:	9b050000 	blls	142204 <__bss_end__+0x138444>
    2200:	00000000 	andeq	r0, r0, r0
    2204:	00a80407 	adceq	r0, r8, r7, lsl #8
    2208:	01030000 	mrseq	r0, (UNDEF: 3)
    220c:	0000b108 	andeq	fp, r0, r8, lsl #2
    2210:	00a10800 	adceq	r0, r1, r0, lsl #16
    2214:	7c060000 	stcvc	0, cr0, [r6], {-0}
    2218:	02000007 	andeq	r0, r0, #7, 0
    221c:	00b90e21 	adcseq	r0, r9, r1, lsr #28
    2220:	04070000 	streq	r0, [r7], #-0
    2224:	0000008c 	andeq	r0, r0, ip, lsl #1
    2228:	00090c09 	andeq	r0, r9, r9, lsl #24
    222c:	06040100 	streq	r0, [r4], -r0, lsl #2
    2230:	00008b80 	andeq	r8, r0, r0, lsl #23
    2234:	00000004 	andeq	r0, r0, r4
    2238:	36009c01 	strcc	r9, [r0], -r1, lsl #24
    223c:	04000002 	streq	r0, [r0], #-2
    2240:	000c1700 	andeq	r1, ip, r0, lsl #14
    2244:	28010400 	stmdacs	r1, {sl}
    2248:	0c000006 	stceq	0, cr0, [r0], {6}
    224c:	00000971 	andeq	r0, r0, r1, ror r9
    2250:	00000715 	andeq	r0, r0, r5, lsl r7
    2254:	00000090 	muleq	r0, r0, r0
    2258:	00000000 	andeq	r0, r0, r0
    225c:	00001930 	andeq	r1, r0, r0, lsr r9
    2260:	69050402 	stmdbvs	r5, {r1, sl}
    2264:	0300746e 	movweq	r7, #1134	; 0x46e
    2268:	00000025 	andeq	r0, r0, r5, lsr #32
    226c:	3b070404 	blcc	1c3284 <__bss_end__+0x1b94c4>
    2270:	04000000 	streq	r0, [r0], #-0
    2274:	00aa0601 	adceq	r0, sl, r1, lsl #12
    2278:	02040000 	andeq	r0, r4, #0, 0
    227c:	00018f05 	andeq	r8, r1, r5, lsl #30
    2280:	05040400 	streq	r0, [r4, #-1024]	; 0xfffffc00
    2284:	00000005 	andeq	r0, r0, r5
    2288:	00050804 	andeq	r0, r5, r4, lsl #16
    228c:	04000000 	streq	r0, [r0], #-0
    2290:	00a80801 	adceq	r0, r8, r1, lsl #16
    2294:	02040000 	andeq	r0, r4, #0, 0
    2298:	00017307 	andeq	r7, r1, r7, lsl #6
    229c:	07040400 	streq	r0, [r4, -r0, lsl #8]
    22a0:	00000036 	andeq	r0, r0, r6, lsr r0
    22a4:	31070804 	tstcc	r7, r4, lsl #16
    22a8:	05000000 	streq	r0, [r0, #-0]
    22ac:	00000025 	andeq	r0, r0, r5, lsr #32
    22b0:	0000007f 	andeq	r0, r0, pc, ror r0
    22b4:	00002506 	andeq	r2, r0, r6, lsl #10
    22b8:	a6070000 	strge	r0, [r7], -r0
    22bc:	02000001 	andeq	r0, r0, #1, 0
    22c0:	008b0e1c 	addeq	r0, fp, ip, lsl lr
    22c4:	04080000 	streq	r0, [r8], #-0
    22c8:	00000070 	andeq	r0, r0, r0, ror r0
    22cc:	00002505 	andeq	r2, r0, r5, lsl #10
    22d0:	0000a000 	andeq	sl, r0, r0
    22d4:	00a00600 	adceq	r0, r0, r0, lsl #12
    22d8:	08000000 	stmdaeq	r0, {}	; <UNPREDICTABLE>
    22dc:	0000ad04 	andeq	sl, r0, r4, lsl #26
    22e0:	08010400 	stmdaeq	r1, {sl}
    22e4:	000000b1 	strheq	r0, [r0], -r1
    22e8:	0000a603 	andeq	sl, r0, r3, lsl #12
    22ec:	077c0700 	ldrbeq	r0, [ip, -r0, lsl #14]!
    22f0:	21020000 	mrscs	r0, (UNDEF: 2)
    22f4:	0000be0e 	andeq	fp, r0, lr, lsl #28
    22f8:	91040800 	tstls	r4, r0, lsl #16
    22fc:	09000000 	stmdbeq	r0, {}	; <UNPREDICTABLE>
    2300:	00000995 	muleq	r0, r5, r9
    2304:	31110d01 	tstcc	r1, r1, lsl #26
    2308:	0a000000 	beq	2310 <__code_start__-0x5cf0>
    230c:	000008b5 			; <UNDEFINED> instruction: 0x000008b5
    2310:	c8061f01 	stmdagt	r6, {r0, r8, r9, sl, fp, ip}
    2314:	5400008b 	strpl	r0, [r0], #-139	; 0xffffff75
    2318:	01000000 	mrseq	r0, (UNDEF: 0)
    231c:	0001ae9c 	muleq	r1, ip, lr
    2320:	09b90b00 	ldmibeq	r9!, {r8, r9, fp}
    2324:	2c010000 	stccs	0, cr0, [r1], {-0}
    2328:	00002c0f 	andeq	r2, r0, pc, lsl #24
    232c:	00100000 	andseq	r0, r0, r0
    2330:	000ffe00 	andeq	pc, pc, r0, lsl #28
    2334:	095a0b00 	ldmdbeq	sl, {r8, r9, fp}^
    2338:	2d010000 	stccs	0, cr0, [r1, #-0]
    233c:	00002c0f 	andeq	r2, r0, pc, lsl #24
    2340:	00101a00 	andseq	r1, r0, r0, lsl #20
    2344:	00101800 	andseq	r1, r0, r0, lsl #16
    2348:	09860b00 	stmibeq	r6, {r8, r9, fp}
    234c:	2e010000 	cdpcs	0, 0, cr0, cr1, cr0, {0}
    2350:	00002c0f 	andeq	r2, r0, pc, lsl #24
    2354:	00103400 	andseq	r3, r0, r0, lsl #8
    2358:	00103200 	andseq	r3, r0, r0, lsl #4
    235c:	09a00b00 	stmibeq	r0!, {r8, r9, fp}
    2360:	2f010000 	svccs	0x00010000
    2364:	00002c0f 	andeq	r2, r0, pc, lsl #24
    2368:	00104d00 	andseq	r4, r0, r0, lsl #26
    236c:	00104b00 	andseq	r4, r0, r0, lsl #22
    2370:	8bd00c00 	blhi	ff405378 <__bss_end__+0xff3fb5b8>
    2374:	01d90000 	bicseq	r0, r9, r0
    2378:	dc0c0000 	stcle	0, cr0, [ip], {-0}
    237c:	0800008b 	stmdaeq	r0, {r0, r1, r3, r7}
    2380:	0c000002 	stceq	0, cr0, [r0], {2}
    2384:	00008be0 	andeq	r8, r0, r0, ror #23
    2388:	00000215 	andeq	r0, r0, r5, lsl r2
    238c:	008be80d 	addeq	lr, fp, sp, lsl #16
    2390:	00022100 	andeq	r2, r2, r0, lsl #2
    2394:	00016400 	andeq	r6, r1, r0, lsl #8
    2398:	50010e00 	andpl	r0, r1, r0, lsl #28
    239c:	0d003a01 	vstreq	s6, [r0, #-4]
    23a0:	00008bf4 	strdeq	r8, [r0], -r4
    23a4:	0000022d 	andeq	r0, r0, sp, lsr #4
    23a8:	00000184 	andeq	r0, r0, r4, lsl #3
    23ac:	0550010e 	ldrbeq	r0, [r0, #-270]	; 0xfffffef2
    23b0:	1000240c 	andne	r2, r0, ip, lsl #8
    23b4:	51010e20 	tstpl	r1, r0, lsr #28
    23b8:	00010c05 	andeq	r0, r1, r5, lsl #24
    23bc:	0d005a00 	vstreq	s10, [r0, #-0]
    23c0:	00008c00 	andeq	r8, r0, r0, lsl #24
    23c4:	0000022d 	andeq	r0, r0, sp, lsr #4
    23c8:	000001a4 	andeq	r0, r0, r4, lsr #3
    23cc:	0550010e 	ldrbeq	r0, [r0, #-270]	; 0xfffffef2
    23d0:	10001c0c 	andne	r1, r0, ip, lsl #24
    23d4:	51010e20 	tstpl	r1, r0, lsr #28
    23d8:	00200c05 	eoreq	r0, r0, r5, lsl #24
    23dc:	0c005a00 			; <UNDEFINED> instruction: 0x0c005a00
    23e0:	00008c08 	andeq	r8, r0, r8, lsl #24
    23e4:	000001ae 	andeq	r0, r0, lr, lsr #3
    23e8:	09620f00 	stmdbeq	r2!, {r8, r9, sl, fp}^
    23ec:	17010000 	strne	r0, [r1, -r0]
    23f0:	008bb406 	addeq	fp, fp, r6, lsl #8
    23f4:	00001400 	andeq	r1, r0, r0, lsl #8
    23f8:	d99c0100 	ldmible	ip, {r8}
    23fc:	0b000001 	bleq	2408 <__code_start__-0x5bf8>
    2400:	000009c1 	andeq	r0, r0, r1, asr #19
    2404:	310e1801 	tstcc	lr, r1, lsl #16
    2408:	68000000 	stmdavs	r0, {}	; <UNPREDICTABLE>
    240c:	62000010 	andvs	r0, r0, #16, 0
    2410:	00000010 	andeq	r0, r0, r0, lsl r0
    2414:	00099210 	andeq	r9, r9, r0, lsl r2
    2418:	050e0100 	streq	r0, [lr, #-256]	; 0xffffff00
    241c:	00000025 	andeq	r0, r0, r5, lsr #32
    2420:	00008b9c 	muleq	r0, ip, fp
    2424:	00000018 	andeq	r0, r0, r8, lsl r0
    2428:	02089c01 	andeq	r9, r8, #256	; 0x100
    242c:	c10b0000 	mrsgt	r0, (UNDEF: 11)
    2430:	01000009 	tsteq	r0, r9
    2434:	00310e0f 	eorseq	r0, r1, pc, lsl #28
    2438:	10960000 	addsne	r0, r6, r0
    243c:	10920000 	addsne	r0, r2, r0
    2440:	11000000 	mrsne	r0, (UNDEF: 0)
    2444:	0000094b 	andeq	r0, r0, fp, asr #18
    2448:	0000094b 	andeq	r0, r0, fp, asr #18
    244c:	06013b02 	streq	r3, [r1], -r2, lsl #22
    2450:	0008e412 	andeq	lr, r8, r2, lsl r4
    2454:	0008e400 	andeq	lr, r8, r0, lsl #8
    2458:	064d0200 	strbeq	r0, [sp], -r0, lsl #4
    245c:	0008c012 	andeq	ip, r8, r2, lsl r0
    2460:	0008c000 	andeq	ip, r8, r0
    2464:	06580200 	ldrbeq	r0, [r8], -r0, lsl #4
    2468:	0004b112 	andeq	fp, r4, r2, lsl r1
    246c:	0004b100 	andeq	fp, r4, r0, lsl #2
    2470:	06b20200 	ldrteq	r0, [r2], r0, lsl #4
    2474:	00024d00 	andeq	r4, r2, r0, lsl #26
    2478:	3c000400 	cfstrscc	mvf0, [r0], {-0}
    247c:	0400000d 	streq	r0, [r0], #-13
    2480:	00062801 	andeq	r2, r6, r1, lsl #16
    2484:	09d00c00 	ldmibeq	r0, {sl, fp}^
    2488:	07150000 	ldreq	r0, [r5, -r0]
    248c:	8c1c0000 	ldchi	0, cr0, [ip], {-0}
    2490:	00840000 	addeq	r0, r4, r0
    2494:	1a230000 	bne	8c249c <__bss_end__+0x8b86dc>
    2498:	04020000 	streq	r0, [r2], #-0
    249c:	746e6905 	strbtvc	r6, [lr], #-2309	; 0xfffff6fb
    24a0:	07040300 	streq	r0, [r4, -r0, lsl #6]
    24a4:	0000003b 	andeq	r0, r0, fp, lsr r0
    24a8:	aa060103 	bge	1828bc <__bss_end__+0x178afc>
    24ac:	03000000 	movweq	r0, #0
    24b0:	018f0502 	orreq	r0, pc, r2, lsl #10
    24b4:	04030000 	streq	r0, [r3], #-0
    24b8:	00000505 	andeq	r0, r0, r5, lsl #10
    24bc:	05080300 	streq	r0, [r8, #-768]	; 0xfffffd00
    24c0:	00000000 	andeq	r0, r0, r0
    24c4:	a8080103 	stmdage	r8, {r0, r1, r8}
    24c8:	03000000 	movweq	r0, #0
    24cc:	01730702 	cmneq	r3, r2, lsl #14
    24d0:	04030000 	streq	r0, [r3], #-0
    24d4:	00003607 	andeq	r3, r0, r7, lsl #12
    24d8:	07080300 	streq	r0, [r8, -r0, lsl #6]
    24dc:	00000031 	andeq	r0, r0, r1, lsr r0
    24e0:	00002504 	andeq	r2, r0, r4, lsl #10
    24e4:	00007a00 	andeq	r7, r0, r0, lsl #20
    24e8:	00250500 	eoreq	r0, r5, r0, lsl #10
    24ec:	06000000 	streq	r0, [r0], -r0
    24f0:	000001a6 	andeq	r0, r0, r6, lsr #3
    24f4:	860e1c02 	strhi	r1, [lr], -r2, lsl #24
    24f8:	07000000 	streq	r0, [r0, -r0]
    24fc:	00006b04 	andeq	r6, r0, r4, lsl #22
    2500:	00250400 	eoreq	r0, r5, r0, lsl #8
    2504:	009b0000 	addseq	r0, fp, r0
    2508:	9b050000 	blls	142510 <__bss_end__+0x138750>
    250c:	00000000 	andeq	r0, r0, r0
    2510:	00a80407 	adceq	r0, r8, r7, lsl #8
    2514:	01030000 	mrseq	r0, (UNDEF: 3)
    2518:	0000b108 	andeq	fp, r0, r8, lsl #2
    251c:	00a10800 	adceq	r0, r1, r0, lsl #16
    2520:	7c060000 	stcvc	0, cr0, [r6], {-0}
    2524:	02000007 	andeq	r0, r0, #7, 0
    2528:	00b90e21 	adcseq	r0, r9, r1, lsr #28
    252c:	04070000 	streq	r0, [r7], #-0
    2530:	0000008c 	andeq	r0, r0, ip, lsl #1
    2534:	0009c609 	andeq	ip, r9, r9, lsl #12
    2538:	061e0100 	ldreq	r0, [lr], -r0, lsl #2
    253c:	00008c88 	andeq	r8, r0, r8, lsl #25
    2540:	00000018 	andeq	r0, r0, r8, lsl r0
    2544:	01099c01 	tsteq	r9, r1, lsl #24
    2548:	730a0000 	movwvc	r0, #40960	; 0xa000
    254c:	01006365 	tsteq	r0, r5, ror #6
    2550:	002c191e 	eoreq	r1, ip, lr, lsl r9
    2554:	10b90000 	adcsne	r0, r9, r0
    2558:	10b50000 	adcsne	r0, r5, r0
    255c:	9c0b0000 	stcls	0, cr0, [fp], {-0}
    2560:	0900008c 	stmdbeq	r0, {r2, r3, r7}
    2564:	0c000001 	stceq	0, cr0, [r0], {1}
    2568:	f3115001 	vhadd.u16	d5, d1, d1
    256c:	24355001 	ldrtcs	r5, [r5], #-1
    2570:	1c5001f3 	ldfnee	f0, [r0], {243}	; 0xf3
    2574:	01f32432 	mvnseq	r2, r2, lsr r4
    2578:	24332250 	ldrtcs	r2, [r3], #-592	; 0xfffffdb0
    257c:	c0090000 	andgt	r0, r9, r0
    2580:	01000008 	tsteq	r0, r8
    2584:	8c70061b 	ldclhi	6, cr0, [r0], #-108	; 0xffffff94
    2588:	00180000 	andseq	r0, r8, r0
    258c:	9c010000 	stcls	0, cr0, [r1], {-0}
    2590:	00000152 	andeq	r0, r0, r2, asr r1
    2594:	00736d0a 	rsbseq	r6, r3, sl, lsl #26
    2598:	2c181b01 			; <UNDEFINED> instruction: 0x2c181b01
    259c:	de000000 	cdple	0, 0, cr0, cr0, cr0, {0}
    25a0:	da000010 	ble	25e8 <__code_start__-0x5a18>
    25a4:	0b000010 	bleq	25ec <__code_start__-0x5a14>
    25a8:	00008c84 	andeq	r8, r0, r4, lsl #25
    25ac:	00000152 	andeq	r0, r0, r2, asr r1
    25b0:	1150010c 	cmpne	r0, ip, lsl #2
    25b4:	355001f3 	ldrbcc	r0, [r0, #-499]	; 0xfffffe0d
    25b8:	5001f324 	andpl	pc, r1, r4, lsr #6
    25bc:	f324321c 	vqsub.u32	d3, d4, d12
    25c0:	33225001 			; <UNDEFINED> instruction: 0x33225001
    25c4:	09000024 	stmdbeq	r0, {r2, r5}
    25c8:	000009f3 	strdeq	r0, [r0], -r3
    25cc:	4c061201 	sfmmi	f1, 4, [r6], {1}
    25d0:	2400008c 	strcs	r0, [r0], #-140	; 0xffffff74
    25d4:	01000000 	mrseq	r0, (UNDEF: 0)
    25d8:	0001c29c 	muleq	r1, ip, r2
    25dc:	73750a00 	cmnvc	r5, #0, 20
    25e0:	18120100 	ldmdane	r2, {r8}
    25e4:	0000002c 	andeq	r0, r0, ip, lsr #32
    25e8:	00001103 	andeq	r1, r0, r3, lsl #2
    25ec:	000010ff 	strdeq	r1, [r0], -pc	; <UNPREDICTABLE>
    25f0:	0062720d 	rsbeq	r7, r2, sp, lsl #4
    25f4:	2c0e1301 	stccs	3, cr1, [lr], {1}
    25f8:	23000000 	movwcs	r0, #0
    25fc:	21000011 	tstcs	r0, r1, lsl r0
    2600:	0e000011 	mcreq	0, 0, r0, cr0, cr1, {0}
    2604:	00008c5c 	andeq	r8, r0, ip, asr ip
    2608:	00000014 	andeq	r0, r0, r4, lsl r0
    260c:	000001b8 			; <UNDEFINED> instruction: 0x000001b8
    2610:	0061720d 	rsbeq	r7, r1, sp, lsl #4
    2614:	2c121501 	cfldr32cs	mvfx1, [r2], {1}
    2618:	38000000 	stmdacc	r0, {}	; <UNPREDICTABLE>
    261c:	36000011 			; <UNDEFINED> instruction: 0x36000011
    2620:	0f000011 	svceq	0x00000011
    2624:	00008c60 	andeq	r8, r0, r0, ror #24
    2628:	000001c2 	andeq	r0, r0, r2, asr #3
    262c:	8c580f00 	mrrchi	15, 0, r0, r8, cr0
    2630:	01c20000 	biceq	r0, r2, r0
    2634:	10000000 	andne	r0, r0, r0
    2638:	000009e4 	andeq	r0, r0, r4, ror #19
    263c:	2c0a0901 			; <UNDEFINED> instruction: 0x2c0a0901
    2640:	30000000 	andcc	r0, r0, r0
    2644:	1c00008c 	stcne	0, cr0, [r0], {140}	; 0x8c
    2648:	01000000 	mrseq	r0, (UNDEF: 0)
    264c:	00020a9c 	muleq	r2, ip, sl
    2650:	00750d00 	rsbseq	r0, r5, r0, lsl #26
    2654:	2c0e0d01 	stccs	13, cr0, [lr], {1}
    2658:	4f000000 	svcmi	0x00000000
    265c:	4b000011 	blmi	26a8 <__code_start__-0x5958>
    2660:	0f000011 	svceq	0x00000011
    2664:	00008c38 	andeq	r8, r0, r8, lsr ip
    2668:	00000238 	andeq	r0, r0, r8, lsr r2
    266c:	008c3c0f 	addeq	r3, ip, pc, lsl #24
    2670:	00020a00 	andeq	r0, r2, r0, lsl #20
    2674:	8c440f00 	mcrrhi	15, 0, r0, r4, cr0
    2678:	02380000 	eorseq	r0, r8, #0, 0
    267c:	10000000 	andne	r0, r0, r0
    2680:	000009fc 	strdeq	r0, [r0], -ip
    2684:	2c0a0401 	cfstrscs	mvf0, [sl], {1}
    2688:	1c000000 	stcne	0, cr0, [r0], {-0}
    268c:	1400008c 	strne	r0, [r0], #-140	; 0xffffff74
    2690:	01000000 	mrseq	r0, (UNDEF: 0)
    2694:	0002389c 	muleq	r2, ip, r8
    2698:	8c280b00 			; <UNDEFINED> instruction: 0x8c280b00
    269c:	02440000 	subeq	r0, r4, #0, 0
    26a0:	010c0000 	mrseq	r0, (UNDEF: 12)
    26a4:	040c0550 	streq	r0, [ip], #-1360	; 0xfffffab0
    26a8:	00200030 	eoreq	r0, r0, r0, lsr r0
    26ac:	044d1100 	strbeq	r1, [sp], #-256	; 0xffffff00
    26b0:	044d0000 	strbeq	r0, [sp], #-0
    26b4:	a1020000 	mrsge	r0, (UNDEF: 2)
    26b8:	033c1106 	teqeq	ip, #-2147483647	; 0x80000001
    26bc:	033c0000 	teqeq	ip, #0, 0
    26c0:	c7020000 	strgt	r0, [r2, -r0]
    26c4:	03a5000a 			; <UNDEFINED> instruction: 0x03a5000a
    26c8:	00040000 	andeq	r0, r4, r0
    26cc:	00000e3d 	andeq	r0, r0, sp, lsr lr
    26d0:	0ab40104 	beq	fed02ae8 <__bss_end__+0xfecf8d28>
    26d4:	560c0000 	strpl	r0, [ip], -r0
    26d8:	5100000b 	tstpl	r0, fp
    26dc:	a000000a 	andge	r0, r0, sl
    26e0:	1c00008c 	stcne	0, cr0, [r0], {140}	; 0x8c
    26e4:	1d000001 	stcne	0, cr0, [r0, #-4]
    26e8:	0200001b 	andeq	r0, r0, #27, 0
    26ec:	6e690504 	cdpvs	5, 6, cr0, cr9, cr4, {0}
    26f0:	04030074 	streq	r0, [r3], #-116	; 0xffffff8c
    26f4:	00003b07 	andeq	r3, r0, r7, lsl #22
    26f8:	002c0400 	eoreq	r0, ip, r0, lsl #8
    26fc:	01030000 	mrseq	r0, (UNDEF: 3)
    2700:	0000aa06 	andeq	sl, r0, r6, lsl #20
    2704:	05020300 	streq	r0, [r2, #-768]	; 0xfffffd00
    2708:	0000018f 	andeq	r0, r0, pc, lsl #3
    270c:	05050403 	streq	r0, [r5, #-1027]	; 0xfffffbfd
    2710:	03000000 	movweq	r0, #0
    2714:	00000508 	andeq	r0, r0, r8, lsl #10
    2718:	01030000 	mrseq	r0, (UNDEF: 3)
    271c:	0000a808 	andeq	sl, r0, r8, lsl #16
    2720:	07020300 	streq	r0, [r2, -r0, lsl #6]
    2724:	00000173 	andeq	r0, r0, r3, ror r1
    2728:	0003a105 	andeq	sl, r3, r5, lsl #2
    272c:	19340300 	ldmdbne	r4!, {r8, r9}
    2730:	0000006e 	andeq	r0, r0, lr, rrx
    2734:	36070403 	strcc	r0, [r7], -r3, lsl #8
    2738:	03000000 	movweq	r0, #0
    273c:	00310708 	eorseq	r0, r1, r8, lsl #14
    2740:	01030000 	mrseq	r0, (UNDEF: 3)
    2744:	0000b108 	andeq	fp, r0, r8, lsl #2
    2748:	01070600 	tsteq	r7, r0, lsl #12
    274c:	00000054 	andeq	r0, r0, r4, asr r0
    2750:	c20e0c04 	andgt	r0, lr, #4, 24	; 0x400
    2754:	07000000 	streq	r0, [r0, -r0]
    2758:	00000386 	andeq	r0, r0, r6, lsl #7
    275c:	022a0700 	eoreq	r0, sl, #0, 14
    2760:	07010000 	streq	r0, [r1, -r0]
    2764:	00000359 	andeq	r0, r0, r9, asr r3
    2768:	02730704 	rsbseq	r0, r3, #4, 14	; 0x100000
    276c:	07050000 	streq	r0, [r5, -r0]
    2770:	00000282 	andeq	r0, r0, r2, lsl #5
    2774:	02910706 	addseq	r0, r1, #1572864	; 0x180000
    2778:	07070000 	streq	r0, [r7, -r0]
    277c:	000002a0 	andeq	r0, r0, r0, lsr #5
    2780:	02af0703 	adceq	r0, pc, #786432	; 0xc0000
    2784:	00020000 	andeq	r0, r2, r0
    2788:	000aa805 	andeq	sl, sl, r5, lsl #16
    278c:	03150400 	tsteq	r5, #0, 8
    2790:	00000083 	andeq	r0, r0, r3, lsl #1
    2794:	000a1908 	andeq	r1, sl, r8, lsl #18
    2798:	171d0100 	ldrne	r0, [sp, -r0, lsl #2]
    279c:	00000033 	andeq	r0, r0, r3, lsr r0
    27a0:	2020001c 	eorcs	r0, r0, ip, lsl r0
    27a4:	000a0f08 	andeq	r0, sl, r8, lsl #30
    27a8:	171e0100 	ldrne	r0, [lr, -r0, lsl #2]
    27ac:	00000033 	andeq	r0, r0, r3, lsr r0
    27b0:	20200028 	eorcs	r0, r0, r8, lsr #32
    27b4:	000b4708 	andeq	r4, fp, r8, lsl #14
    27b8:	171f0100 	ldrne	r0, [pc, -r0, lsl #2]
    27bc:	00000033 	andeq	r0, r0, r3, lsr r0
    27c0:	20200034 	eorcs	r0, r0, r4, lsr r0
    27c4:	000a3809 	andeq	r3, sl, r9, lsl #16
    27c8:	05550100 	ldrbeq	r0, [r5, #-256]	; 0xffffff00
    27cc:	00000025 	andeq	r0, r0, r5, lsr #32
    27d0:	00008d88 	andeq	r8, r0, r8, lsl #27
    27d4:	00000034 	andeq	r0, r0, r4, lsr r0
    27d8:	016e9c01 	cmneq	lr, r1, lsl #24
    27dc:	700a0000 	andvc	r0, sl, r0
    27e0:	01006e69 	tsteq	r0, r9, ror #28
    27e4:	002c1855 	eoreq	r1, ip, r5, asr r8
    27e8:	11750000 	cmnne	r5, r0
    27ec:	116d0000 	cmnne	sp, r0
    27f0:	510b0000 	mrspl	r0, (UNDEF: 11)
    27f4:	0100000b 	tsteq	r0, fp
    27f8:	002c0e58 	eoreq	r0, ip, r8, asr lr
    27fc:	11b50000 			; <UNDEFINED> instruction: 0x11b50000
    2800:	11af0000 			; <UNDEFINED> instruction: 0x11af0000
    2804:	6f0c0000 	svcvs	0x000c0000
    2808:	01006666 	tsteq	r0, r6, ror #12
    280c:	002c0e59 	eoreq	r0, ip, r9, asr lr
    2810:	11f50000 	mvnsne	r0, r0
    2814:	11f30000 	mvnsne	r0, r0
    2818:	a40d0000 	strge	r0, [sp], #-0
    281c:	9000008d 	andls	r0, r0, sp, lsl #1
    2820:	0e000003 	cdpeq	0, 0, cr0, cr0, cr3, {0}
    2824:	f30b5001 	vhadd.u8	d5, d11, d1
    2828:	25355001 	ldrcs	r5, [r5, #-1]!
    282c:	8080b423 	addhi	fp, r0, r3, lsr #8
    2830:	00000281 	andeq	r0, r0, r1, lsl #5
    2834:	000a230f 	andeq	r2, sl, pc, lsl #6
    2838:	064e0100 	strbeq	r0, [lr], -r0, lsl #2
    283c:	00008d6c 	andeq	r8, r0, ip, ror #26
    2840:	0000001c 	andeq	r0, r0, ip, lsl r0
    2844:	01c99c01 	biceq	r9, r9, r1, lsl #24
    2848:	700a0000 	andvc	r0, sl, r0
    284c:	01006e69 	tsteq	r0, r9, ror #28
    2850:	002c1a4e 	eoreq	r1, ip, lr, asr #20
    2854:	12100000 	andsne	r0, r0, #0, 0
    2858:	12080000 	andne	r0, r8, #0, 0
    285c:	760a0000 	strvc	r0, [sl], -r0
    2860:	284e0100 	stmdacs	lr, {r8}^
    2864:	0000002c 	andeq	r0, r0, ip, lsr #32
    2868:	00001252 	andeq	r1, r0, r2, asr r2
    286c:	0000124a 	andeq	r1, r0, sl, asr #4
    2870:	008d7c10 	addeq	r7, sp, r0, lsl ip
    2874:	00025100 	andeq	r5, r2, r0, lsl #2
    2878:	0001bf00 	andeq	fp, r1, r0, lsl #30
    287c:	50010e00 	andpl	r0, r1, r0, lsl #28
    2880:	5001f303 	andpl	pc, r1, r3, lsl #6
    2884:	8d841100 	stfhis	f1, [r4]
    2888:	020a0000 	andeq	r0, sl, #0, 0
    288c:	0f000000 	svceq	0x00000000
    2890:	00000a42 	andeq	r0, r0, r2, asr #20
    2894:	5c064901 			; <UNDEFINED> instruction: 0x5c064901
    2898:	1000008d 	andne	r0, r0, sp, lsl #1
    289c:	01000000 	mrseq	r0, (UNDEF: 0)
    28a0:	00020a9c 	muleq	r2, ip, sl
    28a4:	69700a00 	ldmdbvs	r0!, {r9, fp}^
    28a8:	4901006e 	stmdbmi	r1, {r1, r2, r3, r5, r6}
    28ac:	00002c1e 	andeq	r2, r0, lr, lsl ip
    28b0:	00129000 	andseq	r9, r2, r0
    28b4:	00128c00 	andseq	r8, r2, r0, lsl #24
    28b8:	8d680d00 	stclhi	13, cr0, [r8, #-0]
    28bc:	02d90000 	sbcseq	r0, r9, #0, 0
    28c0:	010e0000 	mrseq	r0, (UNDEF: 14)
    28c4:	01f30350 	mvnseq	r0, r0, asr r3
    28c8:	51010e50 	tstpl	r1, r0, asr lr
    28cc:	00003001 	andeq	r3, r0, r1
    28d0:	000a860f 	andeq	r8, sl, pc, lsl #12
    28d4:	06420100 	strbeq	r0, [r2], -r0, lsl #2
    28d8:	00008d38 	andeq	r8, r0, r8, lsr sp
    28dc:	00000024 	andeq	r0, r0, r4, lsr #32
    28e0:	02519c01 	subseq	r9, r1, #256	; 0x100
    28e4:	700a0000 	andvc	r0, sl, r0
    28e8:	01006e69 	tsteq	r0, r9, ror #28
    28ec:	002c1c42 	eoreq	r1, ip, r2, asr #24
    28f0:	12b50000 	adcsne	r0, r5, #0, 0
    28f4:	12b10000 	adcsne	r0, r1, #0, 0
    28f8:	540d0000 	strpl	r0, [sp], #-0
    28fc:	9c00008d 	stcls	0, cr0, [r0], {141}	; 0x8d
    2900:	0e000003 	cdpeq	0, 0, cr0, cr0, cr3, {0}
    2904:	0c055001 	stceq	0, cr5, [r5], {1}
    2908:	20200028 	eorcs	r0, r0, r8, lsr #32
    290c:	0551010e 	ldrbeq	r0, [r1, #-270]	; 0xfffffef2
    2910:	5001f331 	andpl	pc, r1, r1, lsr r3	; <UNPREDICTABLE>
    2914:	0f000024 	svceq	0x00000024
    2918:	000004ca 	andeq	r0, r0, sl, asr #9
    291c:	14063b01 	strne	r3, [r6], #-2817	; 0xfffff4ff
    2920:	2400008d 	strcs	r0, [r0], #-141	; 0xffffff73
    2924:	01000000 	mrseq	r0, (UNDEF: 0)
    2928:	0002989c 	muleq	r2, ip, r8
    292c:	69700a00 	ldmdbvs	r0!, {r9, fp}^
    2930:	3b01006e 	blcc	42af0 <__bss_end__+0x38d30>
    2934:	00002c1b 	andeq	r2, r0, fp, lsl ip
    2938:	0012da00 	andseq	sp, r2, r0, lsl #20
    293c:	0012d600 	andseq	sp, r2, r0, lsl #12
    2940:	8d300d00 	ldchi	13, cr0, [r0, #-0]
    2944:	039c0000 	orrseq	r0, ip, #0, 0
    2948:	010e0000 	mrseq	r0, (UNDEF: 14)
    294c:	1c0c0550 	cfstr32ne	mvfx0, [ip], {80}	; 0x50
    2950:	0e202000 	cdpeq	0, 2, cr2, cr0, cr0, {0}
    2954:	31055101 	tstcc	r5, r1, lsl #2
    2958:	245001f3 	ldrbcs	r0, [r0], #-499	; 0xfffffe0d
    295c:	930f0000 	movwls	r0, #61440	; 0xf000
    2960:	0100000a 	tsteq	r0, sl
    2964:	8d040636 	stchi	6, cr0, [r4, #-216]	; 0xffffff28
    2968:	00100000 	andseq	r0, r0, r0
    296c:	9c010000 	stcls	0, cr0, [r1], {-0}
    2970:	000002d9 	ldrdeq	r0, [r0], -r9
    2974:	6e69700a 	cdpvs	0, 6, cr7, cr9, cr10, {0}
    2978:	1f360100 	svcne	0x00360100
    297c:	0000002c 	andeq	r0, r0, ip, lsr #32
    2980:	000012ff 	strdeq	r1, [r0], -pc	; <UNPREDICTABLE>
    2984:	000012fb 	strdeq	r1, [r0], -fp
    2988:	008d100d 	addeq	r1, sp, sp
    298c:	0002d900 	andeq	sp, r2, r0, lsl #18
    2990:	50010e00 	andpl	r0, r1, r0, lsl #28
    2994:	5001f303 	andpl	pc, r1, r3, lsl #6
    2998:	0151010e 	cmpeq	r1, lr, lsl #2
    299c:	0f000031 	svceq	0x00000031
    29a0:	00000494 	muleq	r0, r4, r4
    29a4:	a0062801 	andge	r2, r6, r1, lsl #16
    29a8:	6400008c 	strvs	r0, [r0], #-140	; 0xffffff74
    29ac:	01000000 	mrseq	r0, (UNDEF: 0)
    29b0:	0003749c 	muleq	r3, ip, r4
    29b4:	69700a00 	ldmdbvs	r0!, {r9, fp}^
    29b8:	2801006e 	stmdacs	r1, {r1, r2, r3, r5, r6}
    29bc:	00002c21 	andeq	r2, r0, r1, lsr #24
    29c0:	00132400 	andseq	r2, r3, r0, lsl #8
    29c4:	00132000 	andseq	r2, r3, r0
    29c8:	0aa31200 	beq	fe8c71d0 <__bss_end__+0xfe8bd410>
    29cc:	28010000 	stmdacs	r1, {}	; <UNPREDICTABLE>
    29d0:	0000c232 	andeq	ip, r0, r2, lsr r2
    29d4:	00134900 	andseq	r4, r3, r0, lsl #18
    29d8:	00134500 	andseq	r4, r3, r0, lsl #10
    29dc:	666f0c00 	strbtvs	r0, [pc], -r0, lsl #24
    29e0:	2d010066 	stccs	0, cr0, [r1, #-408]	; 0xfffffe68
    29e4:	00002c0e 	andeq	r2, r0, lr, lsl #24
    29e8:	00136c00 	andseq	r6, r3, r0, lsl #24
    29ec:	00136a00 	andseq	r6, r3, r0, lsl #20
    29f0:	00670c00 	rsbeq	r0, r7, r0, lsl #24
    29f4:	2c0e2e01 	stccs	14, cr2, [lr], {1}
    29f8:	81000000 	mrshi	r0, (UNDEF: 0)
    29fc:	7f000013 	svcvc	0x00000013
    2a00:	0c000013 	stceq	0, cr0, [r0], {19}
    2a04:	30010076 	andcc	r0, r1, r6, ror r0
    2a08:	00002c0e 	andeq	r2, r0, lr, lsl #24
    2a0c:	00139c00 	andseq	r9, r3, r0, lsl #24
    2a10:	00139400 	andseq	r9, r3, r0, lsl #8
    2a14:	8ce81000 	stclhi	0, cr1, [r8]
    2a18:	03900000 	orrseq	r0, r0, #0, 0
    2a1c:	03630000 	cmneq	r3, #0, 0
    2a20:	010e0000 	mrseq	r0, (UNDEF: 14)
    2a24:	00760250 	rsbseq	r0, r6, r0, asr r2
    2a28:	8cfc0d00 	ldclhi	13, cr0, [ip]
    2a2c:	039c0000 	orrseq	r0, ip, #0, 0
    2a30:	010e0000 	mrseq	r0, (UNDEF: 14)
    2a34:	00760250 	rsbseq	r0, r6, r0, asr r2
    2a38:	2e130000 	cdpcs	0, 1, cr0, cr3, cr0, {0}
    2a3c:	0200000a 	andeq	r0, r0, #10, 0
    2a40:	006218b6 	strhteq	r1, [r2], #-134	; 0xffffff7a
    2a44:	90030000 	andls	r0, r3, r0
    2a48:	14000003 	strne	r0, [r0], #-3
    2a4c:	b6020078 			; <UNDEFINED> instruction: 0xb6020078
    2a50:	0000622b 	andeq	r6, r0, fp, lsr #4
    2a54:	3c150000 	ldccc	0, cr0, [r5], {-0}
    2a58:	3c000003 	stccc	0, cr0, [r0], {3}
    2a5c:	02000003 	andeq	r0, r0, #3, 0
    2a60:	b1150ac7 	tstlt	r5, r7, asr #21
    2a64:	b1000004 	tstlt	r0, r4
    2a68:	02000004 	andeq	r0, r0, #4, 0
    2a6c:	cd0006b2 	stcgt	6, cr0, [r0, #-712]	; 0xfffffd38
    2a70:	04000005 	streq	r0, [r0], #-5
    2a74:	000f9a00 	andeq	r9, pc, r0, lsl #20
    2a78:	b4010400 	strlt	r0, [r1], #-1024	; 0xfffffc00
    2a7c:	0c00000a 	stceq	0, cr0, [r0], {10}
    2a80:	00000b8b 	andeq	r0, r0, fp, lsl #23
    2a84:	00000a51 	andeq	r0, r0, r1, asr sl
    2a88:	00008dbc 			; <UNDEFINED> instruction: 0x00008dbc
    2a8c:	000001f0 	strdeq	r0, [r0], -r0	; <UNPREDICTABLE>
    2a90:	00001cdc 	ldrdeq	r1, [r0], -ip
    2a94:	69050402 	stmdbvs	r5, {r1, sl}
    2a98:	0300746e 	movweq	r7, #1134	; 0x46e
    2a9c:	003b0704 	eorseq	r0, fp, r4, lsl #14
    2aa0:	2c040000 	stccs	0, cr0, [r4], {-0}
    2aa4:	03000000 	movweq	r0, #0
    2aa8:	00aa0601 	adceq	r0, sl, r1, lsl #12
    2aac:	02030000 	andeq	r0, r3, #0, 0
    2ab0:	00018f05 	andeq	r8, r1, r5, lsl #30
    2ab4:	05040300 	streq	r0, [r4, #-768]	; 0xfffffd00
    2ab8:	00000005 	andeq	r0, r0, r5
    2abc:	00050803 	andeq	r0, r5, r3, lsl #16
    2ac0:	03000000 	movweq	r0, #0
    2ac4:	00a80801 	adceq	r0, r8, r1, lsl #16
    2ac8:	02030000 	andeq	r0, r3, #0, 0
    2acc:	00017307 	andeq	r7, r1, r7, lsl #6
    2ad0:	03a10500 			; <UNDEFINED> instruction: 0x03a10500
    2ad4:	34050000 	strcc	r0, [r5], #-0
    2ad8:	00006e19 	andeq	r6, r0, r9, lsl lr
    2adc:	07040300 	streq	r0, [r4, -r0, lsl #6]
    2ae0:	00000036 	andeq	r0, r0, r6, lsr r0
    2ae4:	31070803 	tstcc	r7, r3, lsl #16
    2ae8:	03000000 	movweq	r0, #0
    2aec:	00b10801 	adcseq	r0, r1, r1, lsl #16
    2af0:	07060000 	streq	r0, [r6, -r0]
    2af4:	00005401 	andeq	r5, r0, r1, lsl #8
    2af8:	0e0c0400 	cfcpyseq	mvf0, mvf12
    2afc:	000000c2 	andeq	r0, r0, r2, asr #1
    2b00:	00038607 	andeq	r8, r3, r7, lsl #12
    2b04:	2a070000 	bcs	1c2b0c <__bss_end__+0x1b8d4c>
    2b08:	01000002 	tsteq	r0, r2
    2b0c:	00035907 	andeq	r5, r3, r7, lsl #18
    2b10:	73070400 	movwvc	r0, #29696	; 0x7400
    2b14:	05000002 	streq	r0, [r0, #-2]
    2b18:	00028207 	andeq	r8, r2, r7, lsl #4
    2b1c:	91070600 	tstls	r7, r0, lsl #12
    2b20:	07000002 	streq	r0, [r0, -r2]
    2b24:	0002a007 	andeq	sl, r2, r7
    2b28:	af070300 	svcge	0x00070300
    2b2c:	02000002 	andeq	r0, r0, #2, 0
    2b30:	0b7f0800 	bleq	1fc4b38 <__bss_end__+0x1fbad78>
    2b34:	022c0000 	eoreq	r0, ip, #0, 0
    2b38:	015e0806 	cmpeq	lr, r6, lsl #16
    2b3c:	69090000 	stmdbvs	r9, {}	; <UNPREDICTABLE>
    2b40:	0902006f 	stmdbeq	r2, {r0, r1, r2, r3, r5, r6}
    2b44:	00003309 	andeq	r3, r0, r9, lsl #6
    2b48:	69090000 	stmdbvs	r9, {}	; <UNPREDICTABLE>
    2b4c:	02007265 	andeq	r7, r0, #1342177286	; 0x50000006
    2b50:	0033090a 	eorseq	r0, r3, sl, lsl #18
    2b54:	09040000 	stmdbeq	r4, {}	; <UNPREDICTABLE>
    2b58:	00726969 	rsbseq	r6, r2, r9, ror #18
    2b5c:	33091102 	movwcc	r1, #37122	; 0x9102
    2b60:	08000000 	stmdaeq	r0, {}	; <UNPREDICTABLE>
    2b64:	72636c09 	rsbvc	r6, r3, #2304	; 0x900
    2b68:	09130200 	ldmdbeq	r3, {r9}
    2b6c:	00000033 	andeq	r0, r0, r3, lsr r0
    2b70:	636d090c 	cmnvs	sp, #12, 18	; 0x30000
    2b74:	14020072 	strne	r0, [r2], #-114	; 0xffffff8e
    2b78:	00003309 	andeq	r3, r0, r9, lsl #6
    2b7c:	6c091000 	stcvs	0, cr1, [r9], {-0}
    2b80:	02007273 	andeq	r7, r0, #805306375	; 0x30000007
    2b84:	00330915 	eorseq	r0, r3, r5, lsl r9
    2b88:	09140000 	ldmdbeq	r4, {}	; <UNPREDICTABLE>
    2b8c:	0072736d 	rsbseq	r7, r2, sp, ror #6
    2b90:	33091602 	movwcc	r1, #38402	; 0x9602
    2b94:	18000000 	stmdane	r0, {}	; <UNPREDICTABLE>
    2b98:	000bf90a 	andeq	pc, fp, sl, lsl #18
    2b9c:	09170200 	ldmdbeq	r7, {r9}
    2ba0:	00000033 	andeq	r0, r0, r3, lsr r0
    2ba4:	0bd10a1c 	bleq	ff44541c <__bss_end__+0xff43b65c>
    2ba8:	1b020000 	blne	82bb0 <__bss_end__+0x78df0>
    2bac:	00003309 	andeq	r3, r0, r9, lsl #6
    2bb0:	6c0a2000 	stcvs	0, cr2, [sl], {-0}
    2bb4:	0200000b 	andeq	r0, r0, #11, 0
    2bb8:	0033091d 	eorseq	r0, r3, sp, lsl r9
    2bbc:	0a240000 	beq	902bc4 <__bss_end__+0x8f8e04>
    2bc0:	00000bb6 			; <UNDEFINED> instruction: 0x00000bb6
    2bc4:	33091e02 	movwcc	r1, #40450	; 0x9e02
    2bc8:	28000000 	stmdacs	r0, {}	; <UNPREDICTABLE>
    2bcc:	0bbb0b00 	bleq	feec57d4 <__bss_end__+0xfeebba14>
    2bd0:	08010000 	stmdaeq	r1, {}	; <UNPREDICTABLE>
    2bd4:	00017409 	andeq	r7, r1, r9, lsl #8
    2bd8:	21500400 	cmpcs	r0, r0, lsl #8
    2bdc:	33040c20 	movwcc	r0, #19488	; 0x4c20
    2be0:	0d000000 	stceq	0, cr0, [r0, #-0]
    2be4:	0000016e 	andeq	r0, r0, lr, ror #2
    2be8:	000c010b 	andeq	r0, ip, fp, lsl #2
    2bec:	23290100 			; <UNDEFINED> instruction: 0x23290100
    2bf0:	0000018f 	andeq	r0, r0, pc, lsl #3
    2bf4:	20215040 	eorcs	r5, r1, r0, asr #32
    2bf8:	00c2040c 	sbceq	r0, r2, ip, lsl #8
    2bfc:	890d0000 	stmdbhi	sp, {}	; <UNPREDICTABLE>
    2c00:	0e000001 	cdpeq	0, 0, cr0, cr0, cr1, {0}
    2c04:	000008e4 	andeq	r0, r0, r4, ror #17
    2c08:	7406cc01 	strvc	ip, [r6], #-3073	; 0xfffff3ff
    2c0c:	1400008f 	strne	r0, [r0], #-143	; 0xffffff71
    2c10:	01000000 	mrseq	r0, (UNDEF: 0)
    2c14:	0001b49c 	muleq	r1, ip, r4
    2c18:	8f7c0f00 	svchi	0x007c0f00
    2c1c:	01b40000 			; <UNDEFINED> instruction: 0x01b40000
    2c20:	10000000 	andne	r0, r0, r0
    2c24:	00000ba5 	andeq	r0, r0, r5, lsr #23
    2c28:	2505b601 	strcs	fp, [r5, #-1537]	; 0xfffff9ff
    2c2c:	54000000 	strpl	r0, [r0], #-0
    2c30:	2000008f 	andcs	r0, r0, pc, lsl #1
    2c34:	01000000 	mrseq	r0, (UNDEF: 0)
    2c38:	0001eb9c 	muleq	r1, ip, fp
    2c3c:	8f5c0f00 	svchi	0x005c0f00
    2c40:	05a00000 	streq	r0, [r0, #0]!
    2c44:	64110000 	ldrvs	r0, [r1], #-0
    2c48:	ac00008f 	stcge	0, cr0, [r0], {143}	; 0x8f
    2c4c:	12000005 	andne	r0, r0, #5, 0
    2c50:	0c055001 	stceq	0, cr5, [r5], {1}
    2c54:	20215064 	eorcs	r5, r1, r4, rrx
    2c58:	e3100000 	tst	r0, #0, 0
    2c5c:	0100000b 	tsteq	r0, fp
    2c60:	002505b3 	strhteq	r0, [r5], -r3
    2c64:	8f440000 	svchi	0x00440000
    2c68:	00100000 	andseq	r0, r0, r0
    2c6c:	9c010000 	stcls	0, cr0, [r1], {-0}
    2c70:	00000218 	andeq	r0, r0, r8, lsl r2
    2c74:	008f4c0f 	addeq	r4, pc, pc, lsl #24
    2c78:	0005a000 	andeq	sl, r5, r0
    2c7c:	8f500f00 	svchi	0x00500f00
    2c80:	03090000 	movweq	r0, #36864	; 0x9000
    2c84:	0e000000 	cdpeq	0, 0, cr0, cr0, cr0, {0}
    2c88:	00000c0f 	andeq	r0, r0, pc, lsl #24
    2c8c:	1406ab01 	strne	sl, [r6], #-2817	; 0xfffff4ff
    2c90:	3000008f 	andcc	r0, r0, pc, lsl #1
    2c94:	01000000 	mrseq	r0, (UNDEF: 0)
    2c98:	00027c9c 	muleq	r2, ip, ip
    2c9c:	00631300 	rsbeq	r1, r3, r0, lsl #6
    2ca0:	2c19ab01 			; <UNDEFINED> instruction: 0x2c19ab01
    2ca4:	dc000000 	stcle	0, cr0, [r0], {-0}
    2ca8:	d8000013 	stmdale	r0, {r0, r1, r4}
    2cac:	0f000013 	svceq	0x00000013
    2cb0:	00008f20 	andeq	r8, r0, r0, lsr #30
    2cb4:	000005a0 	andeq	r0, r0, r0, lsr #11
    2cb8:	008f240f 	addeq	r2, pc, pc, lsl #8
    2cbc:	0002db00 	andeq	sp, r2, r0, lsl #22
    2cc0:	8f381400 	svchi	0x00381400
    2cc4:	05b80000 	ldreq	r0, [r8, #0]!
    2cc8:	02720000 	rsbseq	r0, r2, #0, 0
    2ccc:	01120000 	tsteq	r2, r0
    2cd0:	400c0550 	andmi	r0, ip, r0, asr r5
    2cd4:	12202150 	eorne	r2, r0, #20
    2cd8:	74055101 	strvc	r5, [r5], #-257	; 0xfffffeff
    2cdc:	1aff0800 	bne	fffc4ce4 <__bss_end__+0xfffbaf24>
    2ce0:	8f3c0f00 	svchi	0x003c0f00
    2ce4:	05a00000 	streq	r0, [r0, #0]!
    2ce8:	10000000 	andne	r0, r0, r0
    2cec:	00000bc7 	andeq	r0, r0, r7, asr #23
    2cf0:	2505a301 	strcs	sl, [r5, #-769]	; 0xfffffcff
    2cf4:	e4000000 	str	r0, [r0], #-0
    2cf8:	3000008e 	andcc	r0, r0, lr, lsl #1
    2cfc:	01000000 	mrseq	r0, (UNDEF: 0)
    2d00:	0002db9c 	muleq	r2, ip, fp
    2d04:	00631500 	rsbeq	r1, r3, r0, lsl #10
    2d08:	2509a701 	strcs	sl, [r9, #-1793]	; 0xfffff8ff
    2d0c:	fc000000 	stc2	0, cr0, [r0], {-0}
    2d10:	fa000013 	blx	2d64 <__code_start__-0x529c>
    2d14:	0f000013 	svceq	0x00000013
    2d18:	00008eec 	andeq	r8, r0, ip, ror #29
    2d1c:	000005a0 	andeq	r0, r0, r0, lsr #11
    2d20:	008ef00f 	addeq	pc, lr, pc
    2d24:	00030900 	andeq	r0, r3, r0, lsl #18
    2d28:	8f001400 	svchi	0x00001400
    2d2c:	05ac0000 	streq	r0, [ip, #0]!
    2d30:	02d10000 	sbcseq	r0, r1, #0, 0
    2d34:	01120000 	tsteq	r2, r0
    2d38:	400c0550 	andmi	r0, ip, r0, asr r5
    2d3c:	00202150 	eoreq	r2, r0, r0, asr r1
    2d40:	008f080f 	addeq	r0, pc, pc, lsl #16
    2d44:	0005a000 	andeq	sl, r5, r0
    2d48:	92100000 	andsls	r0, r0, #0, 0
    2d4c:	0100000b 	tsteq	r0, fp
    2d50:	00250594 	mlaeq	r5, r4, r5, r0
    2d54:	8ec40000 	cdphi	0, 12, cr0, cr4, cr0, {0}
    2d58:	00200000 	eoreq	r0, r0, r0
    2d5c:	9c010000 	stcls	0, cr0, [r1], {-0}
    2d60:	00000309 	andeq	r0, r0, r9, lsl #6
    2d64:	008ed011 	addeq	sp, lr, r1, lsl r0
    2d68:	0005ac00 	andeq	sl, r5, r0, lsl #24
    2d6c:	50011200 	andpl	r1, r1, r0, lsl #4
    2d70:	50640c05 	rsbpl	r0, r4, r5, lsl #24
    2d74:	00002021 	andeq	r2, r0, r1, lsr #32
    2d78:	000b7110 	andeq	r7, fp, r0, lsl r1
    2d7c:	058b0100 	streq	r0, [fp, #256]	; 0x100
    2d80:	00000025 	andeq	r0, r0, r5, lsr #32
    2d84:	00008eac 	andeq	r8, r0, ip, lsr #29
    2d88:	00000018 	andeq	r0, r0, r8, lsl r0
    2d8c:	03379c01 	teqeq	r7, #256	; 0x100
    2d90:	b8110000 	ldmdalt	r1, {}	; <UNPREDICTABLE>
    2d94:	ac00008e 	stcge	0, cr0, [r0], {142}	; 0x8e
    2d98:	12000005 	andne	r0, r0, #5, 0
    2d9c:	0c055001 	stceq	0, cr5, [r5], {1}
    2da0:	20215064 	eorcs	r5, r1, r4, rrx
    2da4:	020e0000 	andeq	r0, lr, #0, 0
    2da8:	01000009 	tsteq	r0, r9
    2dac:	8dfc0645 	ldclhi	6, cr0, [ip, #276]!	; 0x114
    2db0:	00b00000 	adcseq	r0, r0, r0
    2db4:	9c010000 	stcls	0, cr0, [r1], {-0}
    2db8:	00000484 	andeq	r0, r0, r4, lsl #9
    2dbc:	000b6316 	andeq	r6, fp, r6, lsl r3
    2dc0:	0e7e0100 	rpweqe	f0, f6, f0
    2dc4:	00000062 	andeq	r0, r0, r2, rrx
    2dc8:	0c14010e 	ldfeqs	f0, [r4], {14}
    2dcc:	c400008e 	strgt	r0, [r0], #-142	; 0xffffff72
    2dd0:	73000005 	movwvc	r0, #5
    2dd4:	12000003 	andne	r0, r0, #3, 0
    2dd8:	3e015001 	cdpcc	0, 0, cr5, cr1, cr1, {0}
    2ddc:	01510112 	cmpeq	r1, r2, lsl r1
    2de0:	18140032 	ldmdane	r4, {r1, r4, r5}
    2de4:	c400008e 	strgt	r0, [r0], #-142	; 0xffffff72
    2de8:	8b000005 	blhi	2e04 <__code_start__-0x51fc>
    2dec:	12000003 	andne	r0, r0, #3, 0
    2df0:	3f015001 	svccc	0x00015001
    2df4:	01510112 	cmpeq	r1, r2, lsl r1
    2df8:	1c0f0032 	stcne	0, cr0, [pc], {50}	; 0x32
    2dfc:	a000008e 	andge	r0, r0, lr, lsl #1
    2e00:	14000005 	strne	r0, [r0], #-5
    2e04:	00008e28 	andeq	r8, r0, r8, lsr #28
    2e08:	0000053d 	andeq	r0, r0, sp, lsr r5
    2e0c:	000003b0 			; <UNDEFINED> instruction: 0x000003b0
    2e10:	05500112 	ldrbeq	r0, [r0, #-274]	; 0xfffffeee
    2e14:	2150040c 	cmpcs	r0, ip, lsl #8
    2e18:	51011220 	tstpl	r1, r0, lsr #4
    2e1c:	0f003101 	svceq	0x00003101
    2e20:	00008e2c 	andeq	r8, r0, ip, lsr #28
    2e24:	000005a0 	andeq	r0, r0, r0, lsr #11
    2e28:	008e3c14 	addeq	r3, lr, r4, lsl ip
    2e2c:	0005b800 	andeq	fp, r5, r0, lsl #16
    2e30:	0003d200 	andeq	sp, r3, r0, lsl #4
    2e34:	50011200 	andpl	r1, r1, r0, lsl #4
    2e38:	12007402 	andne	r7, r0, #33554432	; 0x2000000
    2e3c:	30015101 	andcc	r5, r1, r1, lsl #2
    2e40:	8e481400 	cdphi	4, 4, cr1, cr8, cr0, {0}
    2e44:	05b80000 	ldreq	r0, [r8, #0]!
    2e48:	03ee0000 	mvneq	r0, #0, 0
    2e4c:	01120000 	tsteq	r2, r0
    2e50:	440c0550 	strmi	r0, [ip], #-1360	; 0xfffffab0
    2e54:	12202150 	eorne	r2, r0, #20
    2e58:	30015101 	andcc	r5, r1, r1, lsl #2
    2e5c:	8e541400 	cdphi	4, 5, cr1, cr4, cr0, {0}
    2e60:	05b80000 	ldreq	r0, [r8, #0]!
    2e64:	040a0000 	streq	r0, [sl], #-0
    2e68:	01120000 	tsteq	r2, r0
    2e6c:	4c0c0550 	cfstr32mi	mvfx0, [ip], {80}	; 0x50
    2e70:	12202150 	eorne	r2, r0, #20
    2e74:	33015101 	movwcc	r5, #4353	; 0x1101
    2e78:	8e601400 	cdphi	4, 6, cr1, cr0, cr0, {0}
    2e7c:	05b80000 	ldreq	r0, [r8, #0]!
    2e80:	04260000 	strteq	r0, [r6], #-0
    2e84:	01120000 	tsteq	r2, r0
    2e88:	500c0550 	andpl	r0, ip, r0, asr r5
    2e8c:	12202150 	eorne	r2, r0, #20
    2e90:	30015101 	andcc	r5, r1, r1, lsl #2
    2e94:	8e6c1400 	cdphi	4, 6, cr1, cr12, cr0, {0}
    2e98:	05b80000 	ldreq	r0, [r8, #0]!
    2e9c:	04430000 	strbeq	r0, [r3], #-0
    2ea0:	01120000 	tsteq	r2, r0
    2ea4:	480c0550 	stmdami	ip, {r4, r6, r8, sl}
    2ea8:	12202150 	eorne	r2, r0, #20
    2eac:	08025101 	stmdaeq	r2, {r0, r8, ip, lr}
    2eb0:	781400c7 	ldmdavc	r4, {r0, r1, r2, r6, r7}
    2eb4:	b800008e 	stmdalt	r0, {r1, r2, r3, r7}
    2eb8:	61000005 	tstvs	r0, r5
    2ebc:	12000004 	andne	r0, r0, #4, 0
    2ec0:	0c055001 	stceq	0, cr5, [r5], {1}
    2ec4:	20215068 	eorcs	r5, r1, r8, rrx
    2ec8:	03510112 	cmpeq	r1, #-2147483644	; 0x80000004
    2ecc:	00010e0a 	andeq	r0, r1, sl, lsl #28
    2ed0:	008e8414 	addeq	r8, lr, r4, lsl r4
    2ed4:	0005b800 	andeq	fp, r5, r0, lsl #16
    2ed8:	00047a00 	andeq	r7, r4, r0, lsl #20
    2edc:	50011200 	andpl	r1, r1, r0, lsl #4
    2ee0:	12007402 	andne	r7, r0, #33554432	; 0x2000000
    2ee4:	33015101 	movwcc	r5, #4353	; 0x1101
    2ee8:	8e880f00 	cdphi	15, 8, cr0, cr8, cr0, {0}
    2eec:	05a00000 	streq	r0, [r0, #0]!
    2ef0:	0e000000 	cdpeq	0, 0, cr0, cr0, cr0, {0}
    2ef4:	00000bd6 	ldrdeq	r0, [r0], -r6
    2ef8:	88063501 	stmdahi	r6, {r0, r8, sl, ip, sp}
    2efc:	2400008f 	strcs	r0, [r0], #-143	; 0xffffff71
    2f00:	01000000 	mrseq	r0, (UNDEF: 0)
    2f04:	0004d39c 	muleq	r4, ip, r3
    2f08:	8f900f00 	svchi	0x00900f00
    2f0c:	01940000 	orrseq	r0, r4, r0
    2f10:	940f0000 	strls	r0, [pc], #-0	; 2f18 <__code_start__-0x50e8>
    2f14:	a000008f 	andge	r0, r0, pc, lsl #1
    2f18:	14000005 	strne	r0, [r0], #-5
    2f1c:	00008fa0 	andeq	r8, r0, r0, lsr #31
    2f20:	000004d3 	ldrdeq	r0, [r0], -r3
    2f24:	000004c9 	andeq	r0, r0, r9, asr #9
    2f28:	05500112 	ldrbeq	r0, [r0, #-274]	; 0xfffffeee
    2f2c:	2150040c 	cmpcs	r0, ip, lsl #8
    2f30:	51011220 	tstpl	r1, r0, lsr #4
    2f34:	00fe0902 	rscseq	r0, lr, r2, lsl #18
    2f38:	008fa40f 	addeq	sl, pc, pc, lsl #8
    2f3c:	0005a000 	andeq	sl, r5, r0
    2f40:	06170000 	ldreq	r0, [r7], -r0
    2f44:	0100000c 	tsteq	r0, ip
    2f48:	8dbc0d31 	ldchi	13, cr0, [ip, #196]!	; 0xc4
    2f4c:	00200000 	eoreq	r0, r0, r0
    2f50:	9c010000 	stcls	0, cr0, [r1], {-0}
    2f54:	00000536 	andeq	r0, r0, r6, lsr r5
    2f58:	000ba018 	andeq	sl, fp, r8, lsl r0
    2f5c:	25310100 	ldrcs	r0, [r1, #-256]!	; 0xffffff00
    2f60:	00000536 	andeq	r0, r0, r6, lsr r5
    2f64:	00001413 	andeq	r1, r0, r3, lsl r4
    2f68:	0000140f 	andeq	r1, r0, pc, lsl #8
    2f6c:	6c617613 	stclvs	6, cr7, [r1], #-76	; 0xffffffb4
    2f70:	34310100 	ldrtcc	r0, [r1], #-256	; 0xffffff00
    2f74:	0000002c 	andeq	r0, r0, ip, lsr #32
    2f78:	00001435 	andeq	r1, r0, r5, lsr r4
    2f7c:	00001431 	andeq	r1, r0, r1, lsr r4
    2f80:	008dcc14 	addeq	ip, sp, r4, lsl ip
    2f84:	0005ac00 	andeq	sl, r5, r0, lsl #24
    2f88:	00052500 	andeq	r2, r5, r0, lsl #10
    2f8c:	50011200 	andpl	r1, r1, r0, lsl #4
    2f90:	00007402 	andeq	r7, r0, r2, lsl #8
    2f94:	008dd811 	addeq	sp, sp, r1, lsl r8
    2f98:	0005b800 	andeq	fp, r5, r0, lsl #16
    2f9c:	50011200 	andpl	r1, r1, r0, lsl #4
    2fa0:	00007402 	andeq	r7, r0, r2, lsl #8
    2fa4:	3c040c00 	stccc	12, cr0, [r4], {-0}
    2fa8:	19000005 	stmdbne	r0, {r0, r2}
    2fac:	000bf117 	andeq	pc, fp, r7, lsl r1	; <UNPREDICTABLE>
    2fb0:	0d2e0100 	stfeqs	f0, [lr, #-0]
    2fb4:	00008ddc 	ldrdeq	r8, [r0], -ip
    2fb8:	00000020 	andeq	r0, r0, r0, lsr #32
    2fbc:	05a09c01 	streq	r9, [r0, #3073]!	; 0xc01
    2fc0:	a0180000 	andsge	r0, r8, r0
    2fc4:	0100000b 	tsteq	r0, fp
    2fc8:	0536242e 	ldreq	r2, [r6, #-1070]!	; 0xfffffbd2
    2fcc:	14570000 	ldrbne	r0, [r7], #-0
    2fd0:	14530000 	ldrbne	r0, [r3], #-0
    2fd4:	76130000 	ldrvc	r0, [r3], -r0
    2fd8:	01006c61 	tsteq	r0, r1, ror #24
    2fdc:	002c332e 	eoreq	r3, ip, lr, lsr #6
    2fe0:	14790000 	ldrbtne	r0, [r9], #-0
    2fe4:	14750000 	ldrbtne	r0, [r5], #-0
    2fe8:	ec140000 	ldc	0, cr0, [r4], {-0}
    2fec:	ac00008d 	stcge	0, cr0, [r0], {141}	; 0x8d
    2ff0:	8f000005 	svchi	0x00000005
    2ff4:	12000005 	andne	r0, r0, #5, 0
    2ff8:	74025001 	strvc	r5, [r2], #-1
    2ffc:	f8110000 			; <UNDEFINED> instruction: 0xf8110000
    3000:	b800008d 	stmdalt	r0, {r0, r2, r3, r7}
    3004:	12000005 	andne	r0, r0, #5, 0
    3008:	74025001 	strvc	r5, [r2], #-1
    300c:	1a000000 	bne	3014 <__code_start__-0x4fec>
    3010:	0000044d 	andeq	r0, r0, sp, asr #8
    3014:	0000044d 	andeq	r0, r0, sp, asr #8
    3018:	1a06a103 	bne	1ab42c <__bss_end__+0x1a166c>
    301c:	00000c19 	andeq	r0, r0, r9, lsl ip
    3020:	00000c19 	andeq	r0, r0, r9, lsl ip
    3024:	1a0bc803 	bne	2f5038 <__bss_end__+0x2eb278>
    3028:	00000b5d 	andeq	r0, r0, sp, asr fp
    302c:	00000b5d 	andeq	r0, r0, sp, asr fp
    3030:	1a06b303 	bne	1afc44 <__bss_end__+0x1a5e84>
    3034:	00000494 	muleq	r0, r4, r4
    3038:	00000494 	muleq	r0, r4, r4
    303c:	00061904 	andeq	r1, r6, r4, lsl #18
    3040:	00000149 	andeq	r0, r0, r9, asr #2
    3044:	11320004 	teqne	r2, r4
    3048:	01040000 	mrseq	r0, (UNDEF: 4)
    304c:	00000628 	andeq	r0, r0, r8, lsr #12
    3050:	000c3d0c 	andeq	r3, ip, ip, lsl #26
    3054:	00071500 	andeq	r1, r7, r0, lsl #10
    3058:	008fac00 	addeq	sl, pc, r0, lsl #24
    305c:	00003c00 	andeq	r3, r0, r0, lsl #24
    3060:	001ee500 	andseq	lr, lr, r0, lsl #10
    3064:	05040200 	streq	r0, [r4, #-512]	; 0xfffffe00
    3068:	00746e69 	rsbseq	r6, r4, r9, ror #28
    306c:	3b070403 	blcc	1c4080 <__bss_end__+0x1ba2c0>
    3070:	03000000 	movweq	r0, #0
    3074:	00aa0601 	adceq	r0, sl, r1, lsl #12
    3078:	02030000 	andeq	r0, r3, #0, 0
    307c:	00018f05 	andeq	r8, r1, r5, lsl #30
    3080:	05040300 	streq	r0, [r4, #-768]	; 0xfffffd00
    3084:	00000005 	andeq	r0, r0, r5
    3088:	00050803 	andeq	r0, r5, r3, lsl #16
    308c:	03000000 	movweq	r0, #0
    3090:	00a80801 	adceq	r0, r8, r1, lsl #16
    3094:	02030000 	andeq	r0, r3, #0, 0
    3098:	00017307 	andeq	r7, r1, r7, lsl #6
    309c:	07040300 	streq	r0, [r4, -r0, lsl #6]
    30a0:	00000036 	andeq	r0, r0, r6, lsr r0
    30a4:	31070803 	tstcc	r7, r3, lsl #16
    30a8:	04000000 	streq	r0, [r0], #-0
    30ac:	00000025 	andeq	r0, r0, r5, lsr #32
    30b0:	0000007a 	andeq	r0, r0, sl, ror r0
    30b4:	00002505 	andeq	r2, r0, r5, lsl #10
    30b8:	a6060000 	strge	r0, [r6], -r0
    30bc:	02000001 	andeq	r0, r0, #1, 0
    30c0:	00860e1c 	addeq	r0, r6, ip, lsl lr
    30c4:	04070000 	streq	r0, [r7], #-0
    30c8:	0000006b 	andeq	r0, r0, fp, rrx
    30cc:	00002504 	andeq	r2, r0, r4, lsl #10
    30d0:	00009b00 	andeq	r9, r0, r0, lsl #22
    30d4:	009b0500 	addseq	r0, fp, r0, lsl #10
    30d8:	07000000 	streq	r0, [r0, -r0]
    30dc:	0000a804 	andeq	sl, r0, r4, lsl #16
    30e0:	08010300 	stmdaeq	r1, {r8, r9}
    30e4:	000000b1 	strheq	r0, [r0], -r1
    30e8:	0000a108 	andeq	sl, r0, r8, lsl #2
    30ec:	077c0600 	ldrbeq	r0, [ip, -r0, lsl #12]!
    30f0:	21020000 	mrscs	r0, (UNDEF: 2)
    30f4:	0000b90e 	andeq	fp, r0, lr, lsl #18
    30f8:	8c040700 	stchi	7, cr0, [r4], {-0}
    30fc:	09000000 	stmdbeq	r0, {}	; <UNPREDICTABLE>
    3100:	0000007a 	andeq	r0, r0, sl, ror r0
    3104:	05070601 	streq	r0, [r7, #-1537]	; 0xfffff9ff
    3108:	0099bc03 	addseq	fp, r9, r3, lsl #24
    310c:	0c300a00 			; <UNDEFINED> instruction: 0x0c300a00
    3110:	0b010000 	bleq	43118 <__bss_end__+0x39358>
    3114:	008fd806 	addeq	sp, pc, r6, lsl #16
    3118:	00001000 	andeq	r1, r0, r0
    311c:	f19c0100 			; <UNDEFINED> instruction: 0xf19c0100
    3120:	0b000000 	bleq	3128 <__code_start__-0x4ed8>
    3124:	01007066 	tsteq	r0, r6, rrx
    3128:	0086190b 	addeq	r1, r6, fp, lsl #18
    312c:	50010000 	andpl	r0, r1, r0
    3130:	0c4e0c00 	mcrreq	12, 0, r0, lr, cr0
    3134:	08010000 	stmdaeq	r1, {}	; <UNPREDICTABLE>
    3138:	008fc006 	addeq	ip, pc, r6
    313c:	00001800 	andeq	r1, r0, r0, lsl #16
    3140:	0d9c0100 	ldfeqs	f0, [ip]
    3144:	00000c1f 	andeq	r0, r0, pc, lsl ip
    3148:	250c0301 	strcs	r0, [ip, #-769]	; 0xfffffcff
    314c:	ac000000 	stcge	0, cr0, [r0], {-0}
    3150:	1400008f 	strne	r0, [r0], #-143	; 0xffffff71
    3154:	01000000 	mrseq	r0, (UNDEF: 0)
    3158:	0001409c 	muleq	r1, ip, r0
    315c:	00630e00 	rsbeq	r0, r3, r0, lsl #28
    3160:	25210301 	strcs	r0, [r1, #-769]!	; 0xfffffcff
    3164:	9b000000 	blls	316c <__code_start__-0x4e94>
    3168:	97000014 	smladls	r0, r4, r0, r0
    316c:	0f000014 	svceq	0x00000014
    3170:	00008fb8 			; <UNDEFINED> instruction: 0x00008fb8
    3174:	00000140 	andeq	r0, r0, r0, asr #2
    3178:	02500110 	subseq	r0, r0, #4
    317c:	00000074 	andeq	r0, r0, r4, ror r0
    3180:	000c0f11 	andeq	r0, ip, r1, lsl pc
    3184:	000c0f00 	andeq	r0, ip, r0, lsl #30
    3188:	06420200 	strbeq	r0, [r2], -r0, lsl #4
    318c:	00013700 	andeq	r3, r1, r0, lsl #14
    3190:	41000400 	tstmi	r0, r0, lsl #8
    3194:	04000012 	streq	r0, [r0], #-18	; 0xffffffee
    3198:	00062801 	andeq	r2, r6, r1, lsl #16
    319c:	0c620c00 	stcleq	12, cr0, [r2], #-0
    31a0:	07150000 	ldreq	r0, [r5, -r0]
    31a4:	8fe80000 	svchi	0x00e80000
    31a8:	00340000 	eorseq	r0, r4, r0
    31ac:	1fa30000 	svcne	0x00a30000
    31b0:	04020000 	streq	r0, [r2], #-0
    31b4:	746e6905 	strbtvc	r6, [lr], #-2309	; 0xfffff6fb
    31b8:	07040300 	streq	r0, [r4, -r0, lsl #6]
    31bc:	0000003b 	andeq	r0, r0, fp, lsr r0
    31c0:	aa060103 	bge	1835d4 <__bss_end__+0x179814>
    31c4:	03000000 	movweq	r0, #0
    31c8:	018f0502 	orreq	r0, pc, r2, lsl #10
    31cc:	04030000 	streq	r0, [r3], #-0
    31d0:	00000505 	andeq	r0, r0, r5, lsl #10
    31d4:	05080300 	streq	r0, [r8, #-768]	; 0xfffffd00
    31d8:	00000000 	andeq	r0, r0, r0
    31dc:	a8080103 	stmdage	r8, {r0, r1, r8}
    31e0:	03000000 	movweq	r0, #0
    31e4:	01730702 	cmneq	r3, r2, lsl #14
    31e8:	04030000 	streq	r0, [r3], #-0
    31ec:	00003607 	andeq	r3, r0, r7, lsl #12
    31f0:	07080300 	streq	r0, [r8, -r0, lsl #6]
    31f4:	00000031 	andeq	r0, r0, r1, lsr r0
    31f8:	00002504 	andeq	r2, r0, r4, lsl #10
    31fc:	00007a00 	andeq	r7, r0, r0, lsl #20
    3200:	00250500 	eoreq	r0, r5, r0, lsl #10
    3204:	06000000 	streq	r0, [r0], -r0
    3208:	000001a6 	andeq	r0, r0, r6, lsr #3
    320c:	860e1c02 	strhi	r1, [lr], -r2, lsl #24
    3210:	07000000 	streq	r0, [r0, -r0]
    3214:	00006b04 	andeq	r6, r0, r4, lsl #22
    3218:	00250400 	eoreq	r0, r5, r0, lsl #8
    321c:	009b0000 	addseq	r0, fp, r0
    3220:	9b050000 	blls	143228 <__bss_end__+0x139468>
    3224:	00000000 	andeq	r0, r0, r0
    3228:	00a80407 	adceq	r0, r8, r7, lsl #8
    322c:	01030000 	mrseq	r0, (UNDEF: 3)
    3230:	0000b108 	andeq	fp, r0, r8, lsl #2
    3234:	00a10800 	adceq	r0, r1, r0, lsl #16
    3238:	7c060000 	stcvc	0, cr0, [r6], {-0}
    323c:	02000007 	andeq	r0, r0, #7, 0
    3240:	00b90e21 	adcseq	r0, r9, r1, lsr #28
    3244:	04070000 	streq	r0, [r7], #-0
    3248:	0000008c 	andeq	r0, r0, ip, lsl #1
    324c:	00084e09 	andeq	r4, r8, r9, lsl #28
    3250:	07040100 	streq	r0, [r4, -r0, lsl #2]
    3254:	00000134 	andeq	r0, r0, r4, lsr r1
    3258:	00008fe8 	andeq	r8, r0, r8, ror #31
    325c:	00000034 	andeq	r0, r0, r4, lsr r0
    3260:	01349c01 	teqeq	r4, r1, lsl #24
    3264:	5d0a0000 	stcpl	0, cr0, [sl, #-0]
    3268:	0100000c 	tsteq	r0, ip
    326c:	01341504 	teqeq	r4, r4, lsl #10
    3270:	50010000 	andpl	r0, r1, r0
    3274:	6372730b 	cmnvs	r2, #738197504	; 0x2c000000
    3278:	27040100 	strcs	r0, [r4, -r0, lsl #2]
    327c:	0000009b 	muleq	r0, fp, r0
    3280:	000014bd 			; <UNDEFINED> instruction: 0x000014bd
    3284:	000014b9 			; <UNDEFINED> instruction: 0x000014b9
    3288:	0031730c 	eorseq	r7, r1, ip, lsl #6
    328c:	340b0501 	strcc	r0, [fp], #-1281	; 0xfffffaff
    3290:	e8000001 	stmda	r0, {r0}
    3294:	de000014 	mcrle	0, 0, r0, cr0, cr4, {0}
    3298:	0c000014 	stceq	0, cr0, [r0], {20}
    329c:	01003273 	tsteq	r0, r3, ror r2
    32a0:	009b1106 	addseq	r1, fp, r6, lsl #2
    32a4:	152d0000 	strne	r0, [sp, #-0]!
    32a8:	15290000 	strne	r0, [r9, #-0]!
    32ac:	630c0000 	movwvs	r0, #49152	; 0xc000
    32b0:	0a070100 	beq	1c36b8 <__bss_end__+0x1b98f8>
    32b4:	000000a1 	andeq	r0, r0, r1, lsr #1
    32b8:	00001551 	andeq	r1, r0, r1, asr r5
    32bc:	0000154d 	andeq	r1, r0, sp, asr #10
    32c0:	a1040700 	tstge	r4, r0, lsl #14
    32c4:	00000000 	andeq	r0, r0, r0
    32c8:	000000f7 	strdeq	r0, [r0], -r7
    32cc:	12f70004 	rscsne	r0, r7, #4, 0
    32d0:	01040000 	mrseq	r0, (UNDEF: 4)
    32d4:	00000628 	andeq	r0, r0, r8, lsr #12
    32d8:	000c720c 	andeq	r7, ip, ip, lsl #4
    32dc:	00071500 	andeq	r1, r7, r0, lsl #10
    32e0:	00901c00 	addseq	r1, r0, r0, lsl #24
    32e4:	00002c00 	andeq	r2, r0, r0, lsl #24
    32e8:	0020ad00 	eoreq	sl, r0, r0, lsl #26
    32ec:	05040200 	streq	r0, [r4, #-512]	; 0xfffffe00
    32f0:	00746e69 	rsbseq	r6, r4, r9, ror #28
    32f4:	3b070403 	blcc	1c4308 <__bss_end__+0x1ba548>
    32f8:	03000000 	movweq	r0, #0
    32fc:	00aa0601 	adceq	r0, sl, r1, lsl #12
    3300:	02030000 	andeq	r0, r3, #0, 0
    3304:	00018f05 	andeq	r8, r1, r5, lsl #30
    3308:	05040300 	streq	r0, [r4, #-768]	; 0xfffffd00
    330c:	00000005 	andeq	r0, r0, r5
    3310:	00050803 	andeq	r0, r5, r3, lsl #16
    3314:	03000000 	movweq	r0, #0
    3318:	00a80801 	adceq	r0, r8, r1, lsl #16
    331c:	02030000 	andeq	r0, r3, #0, 0
    3320:	00017307 	andeq	r7, r1, r7, lsl #6
    3324:	07040300 	streq	r0, [r4, -r0, lsl #6]
    3328:	00000036 	andeq	r0, r0, r6, lsr r0
    332c:	31070803 	tstcc	r7, r3, lsl #16
    3330:	04000000 	streq	r0, [r0], #-0
    3334:	00000025 	andeq	r0, r0, r5, lsr #32
    3338:	0000007a 	andeq	r0, r0, sl, ror r0
    333c:	00002505 	andeq	r2, r0, r5, lsl #10
    3340:	a6060000 	strge	r0, [r6], -r0
    3344:	02000001 	andeq	r0, r0, #1, 0
    3348:	00860e1c 	addeq	r0, r6, ip, lsl lr
    334c:	04070000 	streq	r0, [r7], #-0
    3350:	0000006b 	andeq	r0, r0, fp, rrx
    3354:	00002504 	andeq	r2, r0, r4, lsl #10
    3358:	00009b00 	andeq	r9, r0, r0, lsl #22
    335c:	009b0500 	addseq	r0, fp, r0, lsl #10
    3360:	07000000 	streq	r0, [r0, -r0]
    3364:	0000a804 	andeq	sl, r0, r4, lsl #16
    3368:	08010300 	stmdaeq	r1, {r8, r9}
    336c:	000000b1 	strheq	r0, [r0], -r1
    3370:	0000a108 	andeq	sl, r0, r8, lsl #2
    3374:	077c0600 	ldrbeq	r0, [ip, -r0, lsl #12]!
    3378:	21020000 	mrscs	r0, (UNDEF: 2)
    337c:	0000b90e 	andeq	fp, r0, lr, lsl #18
    3380:	8c040700 	stchi	7, cr0, [r4], {-0}
    3384:	09000000 	stmdbeq	r0, {}	; <UNPREDICTABLE>
    3388:	00000855 	andeq	r0, r0, r5, asr r8
    338c:	25050301 	strcs	r0, [r5, #-769]	; 0xfffffcff
    3390:	1c000000 	stcne	0, cr0, [r0], {-0}
    3394:	2c000090 	stccs	0, cr0, [r0], {144}	; 0x90
    3398:	01000000 	mrseq	r0, (UNDEF: 0)
    339c:	00610a9c 	mlseq	r1, ip, sl, r0
    33a0:	9b180301 	blls	603fac <__bss_end__+0x5fa1ec>
    33a4:	73000000 	movwvc	r0, #0
    33a8:	6f000015 	svcvs	0x00000015
    33ac:	0a000015 	beq	3408 <__code_start__-0x4bf8>
    33b0:	03010062 	movweq	r0, #4194	; 0x1062
    33b4:	00009b27 	andeq	r9, r0, r7, lsr #22
    33b8:	00159500 	andseq	r9, r5, r0, lsl #10
    33bc:	00159100 	andseq	r9, r5, r0, lsl #2
    33c0:	0f000000 	svceq	0x00000000
    33c4:	04000001 	streq	r0, [r0], #-1
    33c8:	00138600 	andseq	r8, r3, r0, lsl #12
    33cc:	28010400 	stmdacs	r1, {sl}
    33d0:	0c000006 	stceq	0, cr0, [r0], {6}
    33d4:	00000c82 	andeq	r0, r0, r2, lsl #25
    33d8:	00000715 	andeq	r0, r0, r5, lsl r7
    33dc:	00009048 	andeq	r9, r0, r8, asr #32
    33e0:	00000020 	andeq	r0, r0, r0, lsr #32
    33e4:	00002170 	andeq	r2, r0, r0, ror r1
    33e8:	69050402 	stmdbvs	r5, {r1, sl}
    33ec:	0300746e 	movweq	r7, #1134	; 0x46e
    33f0:	003b0704 	eorseq	r0, fp, r4, lsl #14
    33f4:	01030000 	mrseq	r0, (UNDEF: 3)
    33f8:	0000aa06 	andeq	sl, r0, r6, lsl #20
    33fc:	05020300 	streq	r0, [r2, #-768]	; 0xfffffd00
    3400:	0000018f 	andeq	r0, r0, pc, lsl #3
    3404:	05050403 	streq	r0, [r5, #-1027]	; 0xfffffbfd
    3408:	03000000 	movweq	r0, #0
    340c:	00000508 	andeq	r0, r0, r8, lsl #10
    3410:	01030000 	mrseq	r0, (UNDEF: 3)
    3414:	0000a808 	andeq	sl, r0, r8, lsl #16
    3418:	07020300 	streq	r0, [r2, -r0, lsl #6]
    341c:	00000173 	andeq	r0, r0, r3, ror r1
    3420:	36070403 	strcc	r0, [r7], -r3, lsl #8
    3424:	03000000 	movweq	r0, #0
    3428:	00310708 	eorseq	r0, r1, r8, lsl #14
    342c:	25040000 	strcs	r0, [r4, #-0]
    3430:	7a000000 	bvc	3438 <__code_start__-0x4bc8>
    3434:	05000000 	streq	r0, [r0, #-0]
    3438:	00000025 	andeq	r0, r0, r5, lsr #32
    343c:	01a60600 			; <UNDEFINED> instruction: 0x01a60600
    3440:	1c020000 	stcne	0, cr0, [r2], {-0}
    3444:	0000860e 	andeq	r8, r0, lr, lsl #12
    3448:	6b040700 	blvs	105050 <__bss_end__+0xfb290>
    344c:	04000000 	streq	r0, [r0], #-0
    3450:	00000025 	andeq	r0, r0, r5, lsr #32
    3454:	0000009b 	muleq	r0, fp, r0
    3458:	00009b05 	andeq	r9, r0, r5, lsl #22
    345c:	04070000 	streq	r0, [r7], #-0
    3460:	000000a8 	andeq	r0, r0, r8, lsr #1
    3464:	b1080103 	tstlt	r8, r3, lsl #2
    3468:	08000000 	stmdaeq	r0, {}	; <UNPREDICTABLE>
    346c:	000000a1 	andeq	r0, r0, r1, lsr #1
    3470:	00077c06 	andeq	r7, r7, r6, lsl #24
    3474:	0e210200 	cdpeq	2, 2, cr0, cr1, cr0, {0}
    3478:	000000b9 	strheq	r0, [r0], -r9
    347c:	008c0407 	addeq	r0, ip, r7, lsl #8
    3480:	1f090000 	svcne	0x00090000
    3484:	01000008 	tsteq	r0, r8
    3488:	010c0703 	tsteq	ip, r3, lsl #14
    348c:	90480000 	subls	r0, r8, r0
    3490:	00200000 	eoreq	r0, r0, r0
    3494:	9c010000 	stcls	0, cr0, [r1], {-0}
    3498:	0000010c 	andeq	r0, r0, ip, lsl #2
    349c:	0031730a 	eorseq	r7, r1, sl, lsl #6
    34a0:	0c150301 	ldceq	3, cr0, [r5], {1}
    34a4:	01000001 	tsteq	r0, r1
    34a8:	32730b50 	rsbscc	r0, r3, #80, 22	; 0x14000
    34ac:	26030100 	strcs	r0, [r3], -r0, lsl #2
    34b0:	0000009b 	muleq	r0, fp, r0
    34b4:	000015b9 			; <UNDEFINED> instruction: 0x000015b9
    34b8:	000015b3 			; <UNDEFINED> instruction: 0x000015b3
    34bc:	0100730c 	tsteq	r0, ip, lsl #6
    34c0:	010c1404 	tsteq	ip, r4, lsl #8
    34c4:	15ea0000 	strbne	r0, [sl, #0]!
    34c8:	15e40000 	strbne	r0, [r4, #0]!
    34cc:	07000000 	streq	r0, [r0, -r0]
    34d0:	0000a104 	andeq	sl, r0, r4, lsl #2
    34d4:	014e0000 	mrseq	r0, (UNDEF: 78)
    34d8:	00040000 	andeq	r0, r4, r0
    34dc:	0000143c 	andeq	r1, r0, ip, lsr r4
    34e0:	06280104 	strteq	r0, [r8], -r4, lsl #2
    34e4:	990c0000 	stmdbls	ip, {}	; <UNPREDICTABLE>
    34e8:	1500000c 	strne	r0, [r0, #-12]
    34ec:	a0000007 	andge	r0, r0, r7
    34f0:	00000000 	andeq	r0, r0, r0
    34f4:	31000000 	mrscc	r0, (UNDEF: 0)
    34f8:	02000022 	andeq	r0, r0, #34, 0	; 0x22
    34fc:	6e690504 	cdpvs	5, 6, cr0, cr9, cr4, {0}
    3500:	92030074 	andls	r0, r3, #116, 0	; 0x74
    3504:	0300000c 	movweq	r0, #12
    3508:	003817d1 	ldrsbteq	r1, [r8], -r1
    350c:	04040000 	streq	r0, [r4], #-0
    3510:	00003b07 	andeq	r3, r0, r7, lsl #22
    3514:	06010400 	streq	r0, [r1], -r0, lsl #8
    3518:	000000aa 	andeq	r0, r0, sl, lsr #1
    351c:	8f050204 	svchi	0x00050204
    3520:	04000001 	streq	r0, [r0], #-1
    3524:	00050504 	andeq	r0, r5, r4, lsl #10
    3528:	08040000 	stmdaeq	r4, {}	; <UNPREDICTABLE>
    352c:	00000005 	andeq	r0, r0, r5
    3530:	08010400 	stmdaeq	r1, {sl}
    3534:	000000a8 	andeq	r0, r0, r8, lsr #1
    3538:	00005b05 	andeq	r5, r0, r5, lsl #22
    353c:	07020400 	streq	r0, [r2, -r0, lsl #8]
    3540:	00000173 	andeq	r0, r0, r3, ror r1
    3544:	36070404 	strcc	r0, [r7], -r4, lsl #8
    3548:	04000000 	streq	r0, [r0], #-0
    354c:	00310708 	eorseq	r0, r1, r8, lsl #14
    3550:	25060000 	strcs	r0, [r6, #-0]
    3554:	8b000000 	blhi	355c <__code_start__-0x4aa4>
    3558:	07000000 	streq	r0, [r0, -r0]
    355c:	00000025 	andeq	r0, r0, r5, lsr #32
    3560:	01a60800 			; <UNDEFINED> instruction: 0x01a60800
    3564:	1c020000 	stcne	0, cr0, [r2], {-0}
    3568:	0000970e 	andeq	r9, r0, lr, lsl #14
    356c:	7c040900 			; <UNDEFINED> instruction: 0x7c040900
    3570:	06000000 	streq	r0, [r0], -r0
    3574:	00000025 	andeq	r0, r0, r5, lsr #32
    3578:	000000ac 	andeq	r0, r0, ip, lsr #1
    357c:	0000ac07 	andeq	sl, r0, r7, lsl #24
    3580:	04090000 	streq	r0, [r9], #-0
    3584:	000000b9 	strheq	r0, [r0], -r9
    3588:	b1080104 	tstlt	r8, r4, lsl #2
    358c:	05000000 	streq	r0, [r0, #-0]
    3590:	000000b2 	strheq	r0, [r0], -r2
    3594:	00077c08 	andeq	r7, r7, r8, lsl #24
    3598:	0e210200 	cdpeq	2, 2, cr0, cr1, cr0, {0}
    359c:	000000ca 	andeq	r0, r0, sl, asr #1
    35a0:	009d0409 	addseq	r0, sp, r9, lsl #8
    35a4:	7d0a0000 	stcvc	0, cr0, [sl, #-0]
    35a8:	01000008 	tsteq	r0, r8
    35ac:	00250504 	eoreq	r0, r5, r4, lsl #10
    35b0:	90680000 	rsbls	r0, r8, r0
    35b4:	002c0000 	eoreq	r0, ip, r0
    35b8:	9c010000 	stcls	0, cr0, [r1], {-0}
    35bc:	0000014b 	andeq	r0, r0, fp, asr #2
    35c0:	31735f0b 	cmncc	r3, fp, lsl #30
    35c4:	19040100 	stmdbne	r4, {r8}
    35c8:	000000ac 	andeq	r0, r0, ip, lsr #1
    35cc:	00001619 	andeq	r1, r0, r9, lsl r6
    35d0:	00001615 	andeq	r1, r0, r5, lsl r6
    35d4:	32735f0b 	rsbscc	r5, r3, #11, 30	; 0x2c
    35d8:	2a040100 	bcs	1039e0 <__bss_end__+0xf9c20>
    35dc:	000000ac 	andeq	r0, r0, ip, lsr #1
    35e0:	0000163e 	andeq	r1, r0, lr, lsr r6
    35e4:	0000163a 	andeq	r1, r0, sl, lsr r6
    35e8:	01006e0b 	tsteq	r0, fp, lsl #28
    35ec:	002c3604 	eoreq	r3, ip, r4, lsl #12
    35f0:	16650000 	strbtne	r0, [r5], -r0
    35f4:	165f0000 	ldrbne	r0, [pc], -r0
    35f8:	730c0000 	movwvc	r0, #49152	; 0xc000
    35fc:	05010031 	streq	r0, [r1, #-49]	; 0xffffffcf
    3600:	00014b1a 	andeq	r4, r1, sl, lsl fp
    3604:	00169800 	andseq	r9, r6, r0, lsl #16
    3608:	00169000 	andseq	r9, r6, r0
    360c:	32730c00 	rsbscc	r0, r3, #0, 24
    3610:	2c050100 	stfcss	f0, [r5], {-0}
    3614:	0000014b 	andeq	r0, r0, fp, asr #2
    3618:	000016d4 	ldrdeq	r1, [r0], -r4
    361c:	000016ce 	andeq	r1, r0, lr, asr #13
    3620:	62040900 	andvs	r0, r4, #0, 18
    3624:	00000000 	andeq	r0, r0, r0
    3628:	000000ce 	andeq	r0, r0, lr, asr #1
    362c:	14f00004 	ldrbtne	r0, [r0], #4
    3630:	01040000 	mrseq	r0, (UNDEF: 4)
    3634:	00000628 	andeq	r0, r0, r8, lsr #12
    3638:	000caa0c 	andeq	sl, ip, ip, lsl #20
    363c:	00071500 	andeq	r1, r7, r0, lsl #10
    3640:	00909400 	addseq	r9, r0, r0, lsl #8
    3644:	00000400 	andeq	r0, r0, r0, lsl #8
    3648:	00235200 	eoreq	r5, r3, r0, lsl #4
    364c:	05040200 	streq	r0, [r4, #-512]	; 0xfffffe00
    3650:	00746e69 	rsbseq	r6, r4, r9, ror #28
    3654:	3b070403 	blcc	1c4668 <__bss_end__+0x1ba8a8>
    3658:	03000000 	movweq	r0, #0
    365c:	00aa0601 	adceq	r0, sl, r1, lsl #12
    3660:	02030000 	andeq	r0, r3, #0, 0
    3664:	00018f05 	andeq	r8, r1, r5, lsl #30
    3668:	05040300 	streq	r0, [r4, #-768]	; 0xfffffd00
    366c:	00000005 	andeq	r0, r0, r5
    3670:	00050803 	andeq	r0, r5, r3, lsl #16
    3674:	03000000 	movweq	r0, #0
    3678:	00a80801 	adceq	r0, r8, r1, lsl #16
    367c:	02030000 	andeq	r0, r3, #0, 0
    3680:	00017307 	andeq	r7, r1, r7, lsl #6
    3684:	07040300 	streq	r0, [r4, -r0, lsl #6]
    3688:	00000036 	andeq	r0, r0, r6, lsr r0
    368c:	31070803 	tstcc	r7, r3, lsl #16
    3690:	04000000 	streq	r0, [r0], #-0
    3694:	00000025 	andeq	r0, r0, r5, lsr #32
    3698:	0000007a 	andeq	r0, r0, sl, ror r0
    369c:	00002505 	andeq	r2, r0, r5, lsl #10
    36a0:	a6060000 	strge	r0, [r6], -r0
    36a4:	02000001 	andeq	r0, r0, #1, 0
    36a8:	00860e1c 	addeq	r0, r6, ip, lsl lr
    36ac:	04070000 	streq	r0, [r7], #-0
    36b0:	0000006b 	andeq	r0, r0, fp, rrx
    36b4:	00002504 	andeq	r2, r0, r4, lsl #10
    36b8:	00009b00 	andeq	r9, r0, r0, lsl #22
    36bc:	009b0500 	addseq	r0, fp, r0, lsl #10
    36c0:	07000000 	streq	r0, [r0, -r0]
    36c4:	0000a804 	andeq	sl, r0, r4, lsl #16
    36c8:	08010300 	stmdaeq	r1, {r8, r9}
    36cc:	000000b1 	strheq	r0, [r0], -r1
    36d0:	0000a108 	andeq	sl, r0, r8, lsl #2
    36d4:	077c0600 	ldrbeq	r0, [ip, -r0, lsl #12]!
    36d8:	21020000 	mrscs	r0, (UNDEF: 2)
    36dc:	0000b90e 	andeq	fp, r0, lr, lsl #18
    36e0:	8c040700 	stchi	7, cr0, [r4], {-0}
    36e4:	09000000 	stmdbeq	r0, {}	; <UNPREDICTABLE>
    36e8:	0000094b 	andeq	r0, r0, fp, asr #18
    36ec:	94060301 	strls	r0, [r6], #-769	; 0xfffffcff
    36f0:	04000090 	streq	r0, [r0], #-144	; 0xffffff70
    36f4:	01000000 	mrseq	r0, (UNDEF: 0)
    36f8:	Address 0x00000000000036f8 is out of bounds.


Disassembly of section .debug_abbrev:

00000000 <.debug_abbrev>:
       0:	25011101 	strcs	r1, [r1, #-257]	; 0xfffffeff
       4:	030b130e 	movweq	r1, #45838	; 0xb30e
       8:	110e1b0e 	tstne	lr, lr, lsl #22
       c:	10061201 	andne	r1, r6, r1, lsl #4
      10:	02000017 	andeq	r0, r0, #23, 0
      14:	0b0b0024 	bleq	2c00ac <__bss_end__+0x2b62ec>
      18:	08030b3e 	stmdaeq	r3, {r1, r2, r3, r4, r5, r8, r9, fp}
      1c:	24030000 	strcs	r0, [r3], #-0
      20:	3e0b0b00 	vmlacc.f64	d0, d11, d0
      24:	000e030b 	andeq	r0, lr, fp, lsl #6
      28:	00160400 	andseq	r0, r6, r0, lsl #8
      2c:	0b3a0e03 	bleq	e83840 <__bss_end__+0xe79a80>
      30:	0b390b3b 	bleq	e42d24 <__bss_end__+0xe38f64>
      34:	00001349 	andeq	r1, r0, r9, asr #6
      38:	27011505 	strcs	r1, [r1, -r5, lsl #10]
      3c:	01134919 	tsteq	r3, r9, lsl r9
      40:	06000013 			; <UNDEFINED> instruction: 0x06000013
      44:	13490005 	movtne	r0, #36869	; 0x9005
      48:	34070000 	strcc	r0, [r7], #-0
      4c:	3a0e0300 	bcc	380c54 <__bss_end__+0x376e94>
      50:	390b3b0b 	stmdbcc	fp, {r0, r1, r3, r8, r9, fp, ip, sp}
      54:	3f13490b 	svccc	0x0013490b
      58:	00193c19 	andseq	r3, r9, r9, lsl ip
      5c:	000f0800 	andeq	r0, pc, r0, lsl #16
      60:	13490b0b 	movtne	r0, #39691	; 0x9b0b
      64:	26090000 	strcs	r0, [r9], -r0
      68:	00134900 	andseq	r4, r3, r0, lsl #18
      6c:	012e0a00 			; <UNDEFINED> instruction: 0x012e0a00
      70:	0e03193f 			; <UNDEFINED> instruction: 0x0e03193f
      74:	0b3b0b3a 	bleq	ec2d64 <__bss_end__+0xeb8fa4>
      78:	19270b39 	stmdbne	r7!, {r0, r3, r4, r5, r8, r9, fp}
      7c:	06120111 			; <UNDEFINED> instruction: 0x06120111
      80:	42971840 	addsmi	r1, r7, #64, 16	; 0x400000
      84:	00130119 	andseq	r0, r3, r9, lsl r1
      88:	010b0b00 	tsteq	fp, r0, lsl #22
      8c:	13011755 	movwne	r1, #5973	; 0x1755
      90:	340c0000 	strcc	r0, [ip], #-0
      94:	3a080300 	bcc	200c9c <__bss_end__+0x1f6edc>
      98:	390b3b0b 	stmdbcc	fp, {r0, r1, r3, r8, r9, fp, ip, sp}
      9c:	0213490b 	andseq	r4, r3, #180224	; 0x2c000
      a0:	1742b717 	smlaldne	fp, r2, r7, r7
      a4:	0b0d0000 	bleq	3400ac <__bss_end__+0x3362ec>
      a8:	12011101 	andne	r1, r1, #1073741824	; 0x40000000
      ac:	0e000006 	cdpeq	0, 0, cr0, cr0, cr6, {0}
      b0:	0e030034 	mcreq	0, 0, r0, cr3, cr4, {1}
      b4:	0b3b0b3a 	bleq	ec2da4 <__bss_end__+0xeb8fe4>
      b8:	13490b39 	movtne	r0, #39737	; 0x9b39
      bc:	42b71702 	adcsmi	r1, r7, #524288	; 0x80000
      c0:	0f000017 	svceq	0x00000017
      c4:	00018289 	andeq	r8, r1, r9, lsl #5
      c8:	13310111 	teqne	r1, #1073741828	; 0x40000004
      cc:	89100000 	ldmdbhi	r0, {}	; <UNPREDICTABLE>
      d0:	11010182 	smlabbne	r1, r2, r1, r0
      d4:	00133101 	andseq	r3, r3, r1, lsl #2
      d8:	828a1100 	addhi	r1, sl, #0
      dc:	18020001 	stmdane	r2, {r0}
      e0:	00184291 	mulseq	r8, r1, r2
      e4:	82891200 	addhi	r1, r9, #0, 4
      e8:	01110101 	tsteq	r1, r1, lsl #2
      ec:	31194295 			; <UNDEFINED> instruction: 0x31194295
      f0:	13000013 	movwne	r0, #19
      f4:	193f002e 	ldmdbne	pc!, {r1, r2, r3, r5}	; <UNPREDICTABLE>
      f8:	0e6e193c 			; <UNDEFINED> instruction: 0x0e6e193c
      fc:	0b3a0e03 	bleq	e83910 <__bss_end__+0xe79b50>
     100:	0b390b3b 	bleq	e42df4 <__bss_end__+0xe39034>
     104:	01000000 	mrseq	r0, (UNDEF: 0)
     108:	0e250111 	mcreq	1, 1, r0, cr5, cr1, {0}
     10c:	0e030b13 	vmoveq.32	d3[0], r0
     110:	01110e1b 	tsteq	r1, fp, lsl lr
     114:	17100612 			; <UNDEFINED> instruction: 0x17100612
     118:	24020000 	strcs	r0, [r2], #-0
     11c:	3e0b0b00 	vmlacc.f64	d0, d11, d0
     120:	0008030b 	andeq	r0, r8, fp, lsl #6
     124:	00240300 	eoreq	r0, r4, r0, lsl #6
     128:	0b3e0b0b 	bleq	f82d5c <__bss_end__+0xf78f9c>
     12c:	00000e03 	andeq	r0, r0, r3, lsl #28
     130:	03001604 	movweq	r1, #1540	; 0x604
     134:	3b0b3a0e 	blcc	2ce974 <__bss_end__+0x2c4bb4>
     138:	490b390b 	stmdbmi	fp, {r0, r1, r3, r8, fp, ip, sp}
     13c:	05000013 	streq	r0, [r0, #-19]	; 0xffffffed
     140:	19270115 	stmdbne	r7!, {r0, r2, r4, r8}
     144:	13011349 	movwne	r1, #4937	; 0x1349
     148:	05060000 	streq	r0, [r6, #-0]
     14c:	00134900 	andseq	r4, r3, r0, lsl #18
     150:	00340700 	eorseq	r0, r4, r0, lsl #14
     154:	0b3a0e03 	bleq	e83968 <__bss_end__+0xe79ba8>
     158:	0b390b3b 	bleq	e42e4c <__bss_end__+0xe3908c>
     15c:	193f1349 	ldmdbne	pc!, {r0, r3, r6, r8, r9, ip}	; <UNPREDICTABLE>
     160:	0000193c 	andeq	r1, r0, ip, lsr r9
     164:	0b000f08 	bleq	3d8c <__code_start__-0x4274>
     168:	0013490b 	andseq	r4, r3, fp, lsl #18
     16c:	00260900 	eoreq	r0, r6, r0, lsl #18
     170:	00001349 	andeq	r1, r0, r9, asr #6
     174:	3e01040a 	cdpcc	4, 0, cr0, cr1, cr10, {0}
     178:	490b0b0b 	stmdbmi	fp, {r0, r1, r3, r8, r9, fp}
     17c:	3b0b3a13 	blcc	2ce9d0 <__bss_end__+0x2c4c10>
     180:	010b390b 	tsteq	fp, fp, lsl #18
     184:	0b000013 	bleq	1d8 <__code_start__-0x7e28>
     188:	0e030028 	cdpeq	0, 0, cr0, cr3, cr8, {1}
     18c:	00000b1c 	andeq	r0, r0, ip, lsl fp
     190:	0b01130c 	bleq	44dc8 <__bss_end__+0x3b008>
     194:	3b0b3a0b 	blcc	2ce9c8 <__bss_end__+0x2c4c08>
     198:	010b390b 	tsteq	fp, fp, lsl #18
     19c:	0d000013 	stceq	0, cr0, [r0, #-76]	; 0xffffffb4
     1a0:	0803000d 	stmdaeq	r3, {r0, r2, r3}
     1a4:	0b3b0b3a 	bleq	ec2e94 <__bss_end__+0xeb90d4>
     1a8:	13490b39 	movtne	r0, #39737	; 0x9b39
     1ac:	00000b38 	andeq	r0, r0, r8, lsr fp
     1b0:	03000d0e 	movweq	r0, #3342	; 0xd0e
     1b4:	3b0b3a0e 	blcc	2ce9f4 <__bss_end__+0x2c4c34>
     1b8:	490b390b 	stmdbmi	fp, {r0, r1, r3, r8, fp, ip, sp}
     1bc:	000b3813 	andeq	r3, fp, r3, lsl r8
     1c0:	00350f00 	eorseq	r0, r5, r0, lsl #30
     1c4:	00001349 	andeq	r1, r0, r9, asr #6
     1c8:	49010110 	stmdbmi	r1, {r4, r8}
     1cc:	00130113 	andseq	r0, r3, r3, lsl r1
     1d0:	00211100 	eoreq	r1, r1, r0, lsl #2
     1d4:	0b2f1349 	bleq	bc4f00 <__bss_end__+0xbbb140>
     1d8:	34120000 	ldrcc	r0, [r2], #-0
     1dc:	3a0e0300 	bcc	380de4 <__bss_end__+0x377024>
     1e0:	390b3b0b 	stmdbcc	fp, {r0, r1, r3, r8, r9, fp, ip, sp}
     1e4:	3f13490b 	svccc	0x0013490b
     1e8:	00180219 	andseq	r0, r8, r9, lsl r2
     1ec:	00281300 	eoreq	r1, r8, r0, lsl #6
     1f0:	061c0e03 	ldreq	r0, [ip], -r3, lsl #28
     1f4:	2e140000 	cdpcs	0, 1, cr0, cr4, cr0, {0}
     1f8:	03193f01 	tsteq	r9, #1, 30
     1fc:	3b0b3a0e 	blcc	2cea3c <__bss_end__+0x2c4c7c>
     200:	270b390b 	strcs	r3, [fp, -fp, lsl #18]
     204:	11134919 	tstne	r3, r9, lsl r9
     208:	40061201 	andmi	r1, r6, r1, lsl #4
     20c:	19429718 	stmdbne	r2, {r3, r4, r8, r9, sl, ip, pc}^
     210:	00001301 	andeq	r1, r0, r1, lsl #6
     214:	03003415 	movweq	r3, #1045	; 0x415
     218:	3b0b3a08 	blcc	2cea40 <__bss_end__+0x2c4c80>
     21c:	490b390b 	stmdbmi	fp, {r0, r1, r3, r8, fp, ip, sp}
     220:	b7170213 			; <UNDEFINED> instruction: 0xb7170213
     224:	00001742 	andeq	r1, r0, r2, asr #14
     228:	01828916 	orreq	r8, r2, r6, lsl r9
     22c:	31011100 	mrscc	r1, (UNDEF: 17)
     230:	17000013 	smladne	r0, r3, r0, r0
     234:	01018289 	smlabbeq	r1, r9, r2, r8
     238:	13310111 	teqne	r1, #1073741828	; 0x40000004
     23c:	00001301 	andeq	r1, r0, r1, lsl #6
     240:	01828a18 	orreq	r8, r2, r8, lsl sl
     244:	91180200 	tstls	r8, r0, lsl #4
     248:	00001842 	andeq	r1, r0, r2, asr #16
     24c:	01828919 	orreq	r8, r2, r9, lsl r9
     250:	95011101 	strls	r1, [r1, #-257]	; 0xfffffeff
     254:	13311942 	teqne	r1, #1081344	; 0x108000
     258:	2e1a0000 	cdpcs	0, 1, cr0, cr10, cr0, {0}
     25c:	03193f01 	tsteq	r9, #1, 30
     260:	3b0b3a0e 	blcc	2ceaa0 <__bss_end__+0x2c4ce0>
     264:	270b390b 	strcs	r3, [fp, -fp, lsl #18]
     268:	12011119 	andne	r1, r1, #1073741830	; 0x40000006
     26c:	97184006 	ldrls	r4, [r8, -r6]
     270:	13011942 	movwne	r1, #6466	; 0x1942
     274:	341b0000 	ldrcc	r0, [fp], #-0
     278:	490e0300 	stmdbmi	lr, {r8, r9}
     27c:	02193413 	andseq	r3, r9, #318767104	; 0x13000000
     280:	1c000018 	stcne	0, cr0, [r0], {24}
     284:	1331011d 	teqne	r1, #1073741831	; 0x40000007
     288:	42b80152 	adcsmi	r0, r8, #-2147483628	; 0x80000014
     28c:	58175505 	ldmdapl	r7, {r0, r2, r8, sl, ip, lr}
     290:	570b590b 	strpl	r5, [fp, -fp, lsl #18]
     294:	0013010b 	andseq	r0, r3, fp, lsl #2
     298:	00051d00 	andeq	r1, r5, r0, lsl #26
     29c:	17021331 	smladxne	r2, r1, r3, r1
     2a0:	001742b7 			; <UNDEFINED> instruction: 0x001742b7
     2a4:	011d1e00 	tsteq	sp, r0, lsl #28
     2a8:	01521331 	cmpeq	r2, r1, lsr r3
     2ac:	110542b8 			; <UNDEFINED> instruction: 0x110542b8
     2b0:	58061201 	stmdapl	r6, {r0, r9, ip}
     2b4:	570b590b 	strpl	r5, [fp, -fp, lsl #18]
     2b8:	0013010b 	andseq	r0, r3, fp, lsl #2
     2bc:	82891f00 	addhi	r1, r9, #0, 30
     2c0:	01110001 	tsteq	r1, r1
     2c4:	31194295 			; <UNDEFINED> instruction: 0x31194295
     2c8:	20000013 	andcs	r0, r0, r3, lsl r0
     2cc:	193f012e 	ldmdbne	pc!, {r1, r2, r3, r5, r8}	; <UNPREDICTABLE>
     2d0:	0b3a0e03 	bleq	e83ae4 <__bss_end__+0xe79d24>
     2d4:	0b390b3b 	bleq	e42fc8 <__bss_end__+0xe39208>
     2d8:	13491927 	movtne	r1, #39207	; 0x9927
     2dc:	13010b20 	movwne	r0, #6944	; 0x1b20
     2e0:	05210000 	streq	r0, [r1, #-0]!
     2e4:	3a080300 	bcc	200eec <__bss_end__+0x1f712c>
     2e8:	390b3b0b 	stmdbcc	fp, {r0, r1, r3, r8, r9, fp, ip, sp}
     2ec:	0013490b 	andseq	r4, r3, fp, lsl #18
     2f0:	012e2200 			; <UNDEFINED> instruction: 0x012e2200
     2f4:	0b3a0e03 	bleq	e83b08 <__bss_end__+0xe79d48>
     2f8:	0b390b3b 	bleq	e42fec <__bss_end__+0xe3922c>
     2fc:	13491927 	movtne	r1, #39207	; 0x9927
     300:	13010b20 	movwne	r0, #6944	; 0x1b20
     304:	34230000 	strtcc	r0, [r3], #-0
     308:	3a080300 	bcc	200f10 <__bss_end__+0x1f7150>
     30c:	390b3b0b 	stmdbcc	fp, {r0, r1, r3, r8, r9, fp, ip, sp}
     310:	0013490b 	andseq	r4, r3, fp, lsl #18
     314:	00342400 	eorseq	r2, r4, r0, lsl #8
     318:	13490e03 	movtne	r0, #40451	; 0x9e03
     31c:	00001934 	andeq	r1, r0, r4, lsr r9
     320:	03003425 	movweq	r3, #1061	; 0x425
     324:	3b0b3a0e 	blcc	2ceb64 <__bss_end__+0x2c4da4>
     328:	490b390b 	stmdbmi	fp, {r0, r1, r3, r8, fp, ip, sp}
     32c:	26000013 			; <UNDEFINED> instruction: 0x26000013
     330:	0e030005 	cdpeq	0, 0, cr0, cr3, cr5, {0}
     334:	0b3b0b3a 	bleq	ec3024 <__bss_end__+0xeb9264>
     338:	13490b39 	movtne	r0, #39737	; 0x9b39
     33c:	34270000 	strtcc	r0, [r7], #-0
     340:	490e0300 	stmdbmi	lr, {r8, r9}
     344:	1c193413 	cfldrsne	mvf3, [r9], {19}
     348:	2800000e 	stmdacs	r0, {r1, r2, r3}
     34c:	1331012e 	teqne	r1, #-2147483637	; 0x8000000b
     350:	06120111 			; <UNDEFINED> instruction: 0x06120111
     354:	42971840 	addsmi	r1, r7, #64, 16	; 0x400000
     358:	00130119 	andseq	r0, r3, r9, lsl r1
     35c:	00342900 	eorseq	r2, r4, r0, lsl #18
     360:	00001331 	andeq	r1, r0, r1, lsr r3
     364:	3f002e2a 	svccc	0x00002e2a
     368:	6e193c19 	mrcvs	12, 0, r3, cr9, cr9, {0}
     36c:	3a0e030e 	bcc	380fac <__bss_end__+0x3771ec>
     370:	390b3b0b 	stmdbcc	fp, {r0, r1, r3, r8, r9, fp, ip, sp}
     374:	0000000b 	andeq	r0, r0, fp
     378:	25011101 	strcs	r1, [r1, #-257]	; 0xfffffeff
     37c:	030b130e 	movweq	r1, #45838	; 0xb30e
     380:	110e1b0e 	tstne	lr, lr, lsl #22
     384:	10061201 	andne	r1, r6, r1, lsl #4
     388:	02000017 	andeq	r0, r0, #23, 0
     38c:	0b0b0024 	bleq	2c0424 <__bss_end__+0x2b6664>
     390:	08030b3e 	stmdaeq	r3, {r1, r2, r3, r4, r5, r8, r9, fp}
     394:	24030000 	strcs	r0, [r3], #-0
     398:	3e0b0b00 	vmlacc.f64	d0, d11, d0
     39c:	000e030b 	andeq	r0, lr, fp, lsl #6
     3a0:	00160400 	andseq	r0, r6, r0, lsl #8
     3a4:	0b3a0e03 	bleq	e83bb8 <__bss_end__+0xe79df8>
     3a8:	0b390b3b 	bleq	e4309c <__bss_end__+0xe392dc>
     3ac:	00001349 	andeq	r1, r0, r9, asr #6
     3b0:	27011505 	strcs	r1, [r1, -r5, lsl #10]
     3b4:	01134919 	tsteq	r3, r9, lsl r9
     3b8:	06000013 			; <UNDEFINED> instruction: 0x06000013
     3bc:	13490005 	movtne	r0, #36869	; 0x9005
     3c0:	34070000 	strcc	r0, [r7], #-0
     3c4:	3a0e0300 	bcc	380fcc <__bss_end__+0x37720c>
     3c8:	390b3b0b 	stmdbcc	fp, {r0, r1, r3, r8, r9, fp, ip, sp}
     3cc:	3f13490b 	svccc	0x0013490b
     3d0:	00193c19 	andseq	r3, r9, r9, lsl ip
     3d4:	000f0800 	andeq	r0, pc, r0, lsl #16
     3d8:	13490b0b 	movtne	r0, #39691	; 0x9b0b
     3dc:	26090000 	strcs	r0, [r9], -r0
     3e0:	00134900 	andseq	r4, r3, r0, lsl #18
     3e4:	01010a00 	tsteq	r1, r0, lsl #20
     3e8:	13011349 	movwne	r1, #4937	; 0x1349
     3ec:	210b0000 	mrscs	r0, (UNDEF: 11)
     3f0:	2f134900 	svccs	0x00134900
     3f4:	0c000005 	stceq	0, cr0, [r0], {5}
     3f8:	0e030034 	mcreq	0, 0, r0, cr3, cr4, {1}
     3fc:	0b3b0b3a 	bleq	ec30ec <__bss_end__+0xeb932c>
     400:	13490b39 	movtne	r0, #39737	; 0x9b39
     404:	1802193f 	stmdane	r2, {r0, r1, r2, r3, r4, r5, r8, fp, ip}
     408:	2e0d0000 	cdpcs	0, 0, cr0, cr13, cr0, {0}
     40c:	03193f01 	tsteq	r9, #1, 30
     410:	3b0b3a0e 	blcc	2cec50 <__bss_end__+0x2c4e90>
     414:	270b390b 	strcs	r3, [fp, -fp, lsl #18]
     418:	11134919 	tstne	r3, r9, lsl r9
     41c:	40061201 	andmi	r1, r6, r1, lsl #4
     420:	19429718 	stmdbne	r2, {r3, r4, r8, r9, sl, ip, pc}^
     424:	00001301 	andeq	r1, r0, r1, lsl #6
     428:	0300050e 	movweq	r0, #1294	; 0x50e
     42c:	3b0b3a0e 	blcc	2cec6c <__bss_end__+0x2c4eac>
     430:	490b390b 	stmdbmi	fp, {r0, r1, r3, r8, fp, ip, sp}
     434:	b7170213 			; <UNDEFINED> instruction: 0xb7170213
     438:	00001742 	andeq	r1, r0, r2, asr #14
     43c:	0300340f 	movweq	r3, #1039	; 0x40f
     440:	3413490e 	ldrcc	r4, [r3], #-2318	; 0xfffff6f2
     444:	00180219 	andseq	r0, r8, r9, lsl r2
     448:	00341000 	eorseq	r1, r4, r0
     44c:	0b3a0803 	bleq	e82460 <__bss_end__+0xe786a0>
     450:	0b390b3b 	bleq	e43144 <__bss_end__+0xe39384>
     454:	00001349 	andeq	r1, r0, r9, asr #6
     458:	03003411 	movweq	r3, #1041	; 0x411
     45c:	3b0b3a0e 	blcc	2cec9c <__bss_end__+0x2c4edc>
     460:	490b390b 	stmdbmi	fp, {r0, r1, r3, r8, fp, ip, sp}
     464:	12000013 	andne	r0, r0, #19, 0
     468:	1301010b 	movwne	r0, #4363	; 0x110b
     46c:	89130000 	ldmdbhi	r3, {}	; <UNPREDICTABLE>
     470:	11010182 	smlabbne	r1, r2, r1, r0
     474:	01133101 	tsteq	r3, r1, lsl #2
     478:	14000013 	strne	r0, [r0], #-19	; 0xffffffed
     47c:	0001828a 	andeq	r8, r1, sl, lsl #5
     480:	42911802 	addsmi	r1, r1, #131072	; 0x20000
     484:	15000018 	strne	r0, [r0, #-24]	; 0xffffffe8
     488:	00018289 	andeq	r8, r1, r9, lsl #5
     48c:	13310111 	teqne	r1, #1073741828	; 0x40000004
     490:	21160000 	tstcs	r6, r0
     494:	2f134900 	svccs	0x00134900
     498:	1700000b 	strne	r0, [r0, -fp]
     49c:	08030034 	stmdaeq	r3, {r2, r4, r5}
     4a0:	0b3b0b3a 	bleq	ec3190 <__bss_end__+0xeb93d0>
     4a4:	13490b39 	movtne	r0, #39737	; 0x9b39
     4a8:	42b71702 	adcsmi	r1, r7, #524288	; 0x80000
     4ac:	18000017 	stmdane	r0, {r0, r1, r2, r4}
     4b0:	0e030034 	mcreq	0, 0, r0, cr3, cr4, {1}
     4b4:	0b3b0b3a 	bleq	ec31a4 <__bss_end__+0xeb93e4>
     4b8:	13490b39 	movtne	r0, #39737	; 0x9b39
     4bc:	42b71702 	adcsmi	r1, r7, #524288	; 0x80000
     4c0:	19000017 	stmdbne	r0, {r0, r1, r2, r4}
     4c4:	1755010b 	ldrbne	r0, [r5, -fp, lsl #2]
     4c8:	00001301 	andeq	r1, r0, r1, lsl #6
     4cc:	11010b1a 	tstne	r1, sl, lsl fp
     4d0:	00061201 	andeq	r1, r6, r1, lsl #4
     4d4:	010b1b00 	tsteq	fp, r0, lsl #22
     4d8:	06120111 			; <UNDEFINED> instruction: 0x06120111
     4dc:	00001301 	andeq	r1, r0, r1, lsl #6
     4e0:	00010b1c 	andeq	r0, r1, ip, lsl fp
     4e4:	011d1d00 	tsteq	sp, r0, lsl #26
     4e8:	01521331 	cmpeq	r2, r1, lsr r3
     4ec:	110b42b8 			; <UNDEFINED> instruction: 0x110b42b8
     4f0:	58061201 	stmdapl	r6, {r0, r9, ip}
     4f4:	570b590b 	strpl	r5, [fp, -fp, lsl #18]
     4f8:	1e00000b 	cdpne	0, 0, cr0, cr0, cr11, {0}
     4fc:	13310005 	teqne	r1, #5, 0
     500:	051f0000 	ldreq	r0, [pc, #-0]	; 508 <__code_start__-0x7af8>
     504:	02133100 	andseq	r3, r3, #0
     508:	1742b717 	smlaldne	fp, r2, r7, r7
     50c:	34200000 	strtcc	r0, [r0], #-0
     510:	00133100 	andseq	r3, r3, r0, lsl #2
     514:	012e2100 			; <UNDEFINED> instruction: 0x012e2100
     518:	0e03193f 			; <UNDEFINED> instruction: 0x0e03193f
     51c:	0b3b0b3a 	bleq	ec320c <__bss_end__+0xeb944c>
     520:	19270b39 	stmdbne	r7!, {r0, r3, r4, r5, r8, r9, fp}
     524:	0b201349 	bleq	805250 <__bss_end__+0x7fb490>
     528:	00001301 	andeq	r1, r0, r1, lsl #6
     52c:	03000522 	movweq	r0, #1314	; 0x522
     530:	3b0b3a08 	blcc	2ced58 <__bss_end__+0x2c4f98>
     534:	490b390b 	stmdbmi	fp, {r0, r1, r3, r8, fp, ip, sp}
     538:	23000013 	movwcs	r0, #19
     53c:	193f002e 	ldmdbne	pc!, {r1, r2, r3, r5}	; <UNPREDICTABLE>
     540:	0e6e193c 			; <UNDEFINED> instruction: 0x0e6e193c
     544:	0b3a0e03 	bleq	e83d58 <__bss_end__+0xe79f98>
     548:	0b390b3b 	bleq	e4323c <__bss_end__+0xe3947c>
     54c:	01000000 	mrseq	r0, (UNDEF: 0)
     550:	0e250111 	mcreq	1, 1, r0, cr5, cr1, {0}
     554:	0e030b13 	vmoveq.32	d3[0], r0
     558:	01110e1b 	tsteq	r1, fp, lsl lr
     55c:	17100612 			; <UNDEFINED> instruction: 0x17100612
     560:	16020000 	strne	r0, [r2], -r0
     564:	3a0e0300 	bcc	38116c <__bss_end__+0x3773ac>
     568:	390b3b0b 	stmdbcc	fp, {r0, r1, r3, r8, r9, fp, ip, sp}
     56c:	0013490b 	andseq	r4, r3, fp, lsl #18
     570:	01130300 	tsteq	r3, r0, lsl #6
     574:	0b0b0e03 	bleq	2c3d88 <__bss_end__+0x2b9fc8>
     578:	0b3b0b3a 	bleq	ec3268 <__bss_end__+0xeb94a8>
     57c:	00001301 	andeq	r1, r0, r1, lsl #6
     580:	03000d04 	movweq	r0, #3332	; 0xd04
     584:	3813490e 	ldmdacc	r3, {r1, r2, r3, r8, fp, lr}
     588:	0019340b 	andseq	r3, r9, fp, lsl #8
     58c:	000f0500 	andeq	r0, pc, r0, lsl #10
     590:	00000b0b 	andeq	r0, r0, fp, lsl #22
     594:	0b002406 	bleq	95b4 <FFT_SINE_LUT+0x1fc>
     598:	030b3e0b 	movweq	r3, #48651	; 0xbe0b
     59c:	07000008 	streq	r0, [r0, -r8]
     5a0:	0b0b0024 	bleq	2c0638 <__bss_end__+0x2b6878>
     5a4:	0e030b3e 	vmoveq.16	d3[0], r0
     5a8:	15080000 	strne	r0, [r8, #-0]
     5ac:	49192701 	ldmdbmi	r9, {r0, r8, r9, sl, sp}
     5b0:	00130113 	andseq	r0, r3, r3, lsl r1
     5b4:	00050900 	andeq	r0, r5, r0, lsl #18
     5b8:	00001349 	andeq	r1, r0, r9, asr #6
     5bc:	0300340a 	movweq	r3, #1034	; 0x40a
     5c0:	3b0b3a0e 	blcc	2cee00 <__bss_end__+0x2c5040>
     5c4:	490b390b 	stmdbmi	fp, {r0, r1, r3, r8, fp, ip, sp}
     5c8:	3c193f13 	ldccc	15, cr3, [r9], {19}
     5cc:	0b000019 	bleq	638 <__code_start__-0x79c8>
     5d0:	0b0b000f 	bleq	2c0614 <__bss_end__+0x2b6854>
     5d4:	00001349 	andeq	r1, r0, r9, asr #6
     5d8:	4900260c 	stmdbmi	r0, {r2, r3, r9, sl, sp}
     5dc:	0d000013 	stceq	0, cr0, [r0, #-76]	; 0xffffffb4
     5e0:	193f012e 	ldmdbne	pc!, {r1, r2, r3, r5, r8}	; <UNPREDICTABLE>
     5e4:	0b3a0e03 	bleq	e83df8 <__bss_end__+0xe7a038>
     5e8:	0b390b3b 	bleq	e432dc <__bss_end__+0xe3951c>
     5ec:	13491927 	movtne	r1, #39207	; 0x9927
     5f0:	06120111 			; <UNDEFINED> instruction: 0x06120111
     5f4:	42971840 	addsmi	r1, r7, #64, 16	; 0x400000
     5f8:	00130119 	andseq	r0, r3, r9, lsl r1
     5fc:	00050e00 	andeq	r0, r5, r0, lsl #28
     600:	0b3a0803 	bleq	e82614 <__bss_end__+0xe78854>
     604:	0b390b3b 	bleq	e432f8 <__bss_end__+0xe39538>
     608:	18021349 	stmdane	r2, {r0, r3, r6, r8, r9, ip}
     60c:	180f0000 	stmdane	pc, {}	; <UNPREDICTABLE>
     610:	10000000 	andne	r0, r0, r0
     614:	08030034 	stmdaeq	r3, {r2, r4, r5}
     618:	0b3b0b3a 	bleq	ec3308 <__bss_end__+0xeb9548>
     61c:	13490b39 	movtne	r0, #39737	; 0x9b39
     620:	00001802 	andeq	r1, r0, r2, lsl #16
     624:	03003411 	movweq	r3, #1041	; 0x411
     628:	3b0b3a0e 	blcc	2cee68 <__bss_end__+0x2c50a8>
     62c:	490b390b 	stmdbmi	fp, {r0, r1, r3, r8, fp, ip, sp}
     630:	00180213 	andseq	r0, r8, r3, lsl r2
     634:	00341200 	eorseq	r1, r4, r0, lsl #4
     638:	0b3a0803 	bleq	e8264c <__bss_end__+0xe7888c>
     63c:	0b390b3b 	bleq	e43330 <__bss_end__+0xe39570>
     640:	17021349 	strne	r1, [r2, -r9, asr #6]
     644:	001742b7 			; <UNDEFINED> instruction: 0x001742b7
     648:	82891300 	addhi	r1, r9, #0, 6
     64c:	01110101 	tsteq	r1, r1, lsl #2
     650:	13011331 	movwne	r1, #4913	; 0x1331
     654:	8a140000 	bhi	50065c <__bss_end__+0x4f689c>
     658:	02000182 	andeq	r0, r0, #-2147483616	; 0x80000020
     65c:	18429118 	stmdane	r2, {r3, r4, r8, ip, pc}^
     660:	89150000 	ldmdbhi	r5, {}	; <UNPREDICTABLE>
     664:	11010182 	smlabbne	r1, r2, r1, r0
     668:	16000001 	strne	r0, [r0], -r1
     66c:	13490101 	movtne	r0, #37121	; 0x9101
     670:	00001301 	andeq	r1, r0, r1, lsl #6
     674:	49002117 	stmdbmi	r0, {r0, r1, r2, r4, r8, sp}
     678:	00052f13 	andeq	r2, r5, r3, lsl pc
     67c:	002e1800 	eoreq	r1, lr, r0, lsl #16
     680:	193c193f 	ldmdbne	ip!, {r0, r1, r2, r3, r4, r5, r8, fp, ip}
     684:	0e030e6e 	cdpeq	14, 0, cr0, cr3, cr14, {3}
     688:	0b3b0b3a 	bleq	ec3378 <__bss_end__+0xeb95b8>
     68c:	00000b39 	andeq	r0, r0, r9, lsr fp
     690:	01110100 	tsteq	r1, r0, lsl #2
     694:	0b130e25 	bleq	4c3f30 <__bss_end__+0x4ba170>
     698:	0e1b0e03 	cdpeq	14, 1, cr0, cr11, cr3, {0}
     69c:	06120111 			; <UNDEFINED> instruction: 0x06120111
     6a0:	00001710 	andeq	r1, r0, r0, lsl r7
     6a4:	0b002402 	bleq	96b4 <FFT_SINE_LUT+0x2fc>
     6a8:	030b3e0b 	movweq	r3, #48651	; 0xbe0b
     6ac:	03000008 	movweq	r0, #8
     6b0:	0b0b0024 	bleq	2c0748 <__bss_end__+0x2b6988>
     6b4:	0e030b3e 	vmoveq.16	d3[0], r0
     6b8:	15040000 	strne	r0, [r4, #-0]
     6bc:	49192701 	ldmdbmi	r9, {r0, r8, r9, sl, sp}
     6c0:	00130113 	andseq	r0, r3, r3, lsl r1
     6c4:	00050500 	andeq	r0, r5, r0, lsl #10
     6c8:	00001349 	andeq	r1, r0, r9, asr #6
     6cc:	03003406 	movweq	r3, #1030	; 0x406
     6d0:	3b0b3a0e 	blcc	2cef10 <__bss_end__+0x2c5150>
     6d4:	490b390b 	stmdbmi	fp, {r0, r1, r3, r8, fp, ip, sp}
     6d8:	3c193f13 	ldccc	15, cr3, [r9], {19}
     6dc:	07000019 	smladeq	r0, r9, r0, r0
     6e0:	0b0b000f 	bleq	2c0724 <__bss_end__+0x2b6964>
     6e4:	00001349 	andeq	r1, r0, r9, asr #6
     6e8:	49002608 	stmdbmi	r0, {r3, r9, sl, sp}
     6ec:	09000013 	stmdbeq	r0, {r0, r1, r4}
     6f0:	13470034 	movtne	r0, #28724	; 0x7034
     6f4:	0b3b0b3a 	bleq	ec33e4 <__bss_end__+0xeb9624>
     6f8:	18020b39 	stmdane	r2, {r0, r3, r4, r5, r8, r9, fp}
     6fc:	2e0a0000 	cdpcs	0, 0, cr0, cr10, cr0, {0}
     700:	03193f01 	tsteq	r9, #1, 30
     704:	3b0b3a0e 	blcc	2cef44 <__bss_end__+0x2c5184>
     708:	270b390b 	strcs	r3, [fp, -fp, lsl #18]
     70c:	11134919 	tstne	r3, r9, lsl r9
     710:	40061201 	andmi	r1, r6, r1, lsl #4
     714:	19429618 	stmdbne	r2, {r3, r4, r9, sl, ip, pc}^
     718:	050b0000 	streq	r0, [fp, #-0]
     71c:	3a080300 	bcc	201324 <__bss_end__+0x1f7564>
     720:	390b3b0b 	stmdbcc	fp, {r0, r1, r3, r8, r9, fp, ip, sp}
     724:	0213490b 	andseq	r4, r3, #180224	; 0x2c000
     728:	1742b717 	smlaldne	fp, r2, r7, r7
     72c:	01000000 	mrseq	r0, (UNDEF: 0)
     730:	0e250111 	mcreq	1, 1, r0, cr5, cr1, {0}
     734:	0e030b13 	vmoveq.32	d3[0], r0
     738:	01110e1b 	tsteq	r1, fp, lsl lr
     73c:	17100612 			; <UNDEFINED> instruction: 0x17100612
     740:	24020000 	strcs	r0, [r2], #-0
     744:	3e0b0b00 	vmlacc.f64	d0, d11, d0
     748:	0008030b 	andeq	r0, r8, fp, lsl #6
     74c:	00240300 	eoreq	r0, r4, r0, lsl #6
     750:	0b3e0b0b 	bleq	f83384 <__bss_end__+0xf795c4>
     754:	00000e03 	andeq	r0, r0, r3, lsl #28
     758:	03001604 	movweq	r1, #1540	; 0x604
     75c:	3b0b3a0e 	blcc	2cef9c <__bss_end__+0x2c51dc>
     760:	490b390b 	stmdbmi	fp, {r0, r1, r3, r8, fp, ip, sp}
     764:	05000013 	streq	r0, [r0, #-19]	; 0xffffffed
     768:	19270115 	stmdbne	r7!, {r0, r2, r4, r8}
     76c:	13011349 	movwne	r1, #4937	; 0x1349
     770:	05060000 	streq	r0, [r6, #-0]
     774:	00134900 	andseq	r4, r3, r0, lsl #18
     778:	00340700 	eorseq	r0, r4, r0, lsl #14
     77c:	0b3a0e03 	bleq	e83f90 <__bss_end__+0xe7a1d0>
     780:	0b390b3b 	bleq	e43474 <__bss_end__+0xe396b4>
     784:	193f1349 	ldmdbne	pc!, {r0, r3, r6, r8, r9, ip}	; <UNPREDICTABLE>
     788:	0000193c 	andeq	r1, r0, ip, lsr r9
     78c:	0b000f08 	bleq	43b4 <__code_start__-0x3c4c>
     790:	0013490b 	andseq	r4, r3, fp, lsl #18
     794:	00260900 	eoreq	r0, r6, r0, lsl #18
     798:	00001349 	andeq	r1, r0, r9, asr #6
     79c:	0301130a 	movweq	r1, #4874	; 0x130a
     7a0:	3a0b0b0e 	bcc	2c33e0 <__bss_end__+0x2b9620>
     7a4:	010b3b0b 	tsteq	fp, fp, lsl #22
     7a8:	0b000013 	bleq	7fc <__code_start__-0x7804>
     7ac:	0e03000d 	cdpeq	0, 0, cr0, cr3, cr13, {0}
     7b0:	0b381349 	bleq	e054dc <__bss_end__+0xdfb71c>
     7b4:	00001934 	andeq	r1, r0, r4, lsr r9
     7b8:	0b000f0c 	bleq	43f0 <__code_start__-0x3c10>
     7bc:	0d00000b 	stceq	0, cr0, [r0, #-44]	; 0xffffffd4
     7c0:	193f012e 	ldmdbne	pc!, {r1, r2, r3, r5, r8}	; <UNPREDICTABLE>
     7c4:	0b3a0e03 	bleq	e83fd8 <__bss_end__+0xe7a218>
     7c8:	0b390b3b 	bleq	e434bc <__bss_end__+0xe396fc>
     7cc:	13491927 	movtne	r1, #39207	; 0x9927
     7d0:	06120111 			; <UNDEFINED> instruction: 0x06120111
     7d4:	42971840 	addsmi	r1, r7, #64, 16	; 0x400000
     7d8:	00130119 	andseq	r0, r3, r9, lsl r1
     7dc:	00050e00 	andeq	r0, r5, r0, lsl #28
     7e0:	0b3a0803 	bleq	e827f4 <__bss_end__+0xe78a34>
     7e4:	0b390b3b 	bleq	e434d8 <__bss_end__+0xe39718>
     7e8:	17021349 	strne	r1, [r2, -r9, asr #6]
     7ec:	001742b7 			; <UNDEFINED> instruction: 0x001742b7
     7f0:	00050f00 	andeq	r0, r5, r0, lsl #30
     7f4:	0b3a0e03 	bleq	e84008 <__bss_end__+0xe7a248>
     7f8:	0b390b3b 	bleq	e434ec <__bss_end__+0xe3972c>
     7fc:	18021349 	stmdane	r2, {r0, r3, r6, r8, r9, ip}
     800:	34100000 	ldrcc	r0, [r0], #-0
     804:	3a080300 	bcc	20140c <__bss_end__+0x1f764c>
     808:	390b3b0b 	stmdbcc	fp, {r0, r1, r3, r8, r9, fp, ip, sp}
     80c:	0213490b 	andseq	r4, r3, #180224	; 0x2c000
     810:	1742b717 	smlaldne	fp, r2, r7, r7
     814:	34110000 	ldrcc	r0, [r1], #-0
     818:	3a0e0300 	bcc	381420 <__bss_end__+0x377660>
     81c:	390b3b0b 	stmdbcc	fp, {r0, r1, r3, r8, r9, fp, ip, sp}
     820:	0213490b 	andseq	r4, r3, #180224	; 0x2c000
     824:	1742b717 	smlaldne	fp, r2, r7, r7
     828:	34120000 	ldrcc	r0, [r2], #-0
     82c:	490e0300 	stmdbmi	lr, {r8, r9}
     830:	02193413 	andseq	r3, r9, #318767104	; 0x13000000
     834:	13000018 	movwne	r0, #24
     838:	0111010b 	tsteq	r1, fp, lsl #2
     83c:	00000612 	andeq	r0, r0, r2, lsl r6
     840:	03003414 	movweq	r3, #1044	; 0x414
     844:	3b0b3a08 	blcc	2cf06c <__bss_end__+0x2c52ac>
     848:	490b390b 	stmdbmi	fp, {r0, r1, r3, r8, fp, ip, sp}
     84c:	00180213 	andseq	r0, r8, r3, lsl r2
     850:	00341500 	eorseq	r1, r4, r0, lsl #10
     854:	0b3a0e03 	bleq	e84068 <__bss_end__+0xe7a2a8>
     858:	0b390b3b 	bleq	e4354c <__bss_end__+0xe3978c>
     85c:	18021349 	stmdane	r2, {r0, r3, r6, r8, r9, ip}
     860:	0b160000 	bleq	580868 <__bss_end__+0x576aa8>
     864:	12011101 	andne	r1, r1, #1073741824	; 0x40000000
     868:	00130106 	andseq	r0, r3, r6, lsl #2
     86c:	00341700 	eorseq	r1, r4, r0, lsl #14
     870:	0b3a0803 	bleq	e82884 <__bss_end__+0xe78ac4>
     874:	0b390b3b 	bleq	e43568 <__bss_end__+0xe397a8>
     878:	00001349 	andeq	r1, r0, r9, asr #6
     87c:	01828918 	orreq	r8, r2, r8, lsl r9
     880:	31011101 	tstcc	r1, r1, lsl #2
     884:	00130113 	andseq	r0, r3, r3, lsl r1
     888:	828a1900 	addhi	r1, sl, #0, 18
     88c:	18020001 	stmdane	r2, {r0}
     890:	00184291 	mulseq	r8, r1, r2
     894:	82891a00 	addhi	r1, r9, #0, 20
     898:	01110001 	tsteq	r1, r1
     89c:	00001331 	andeq	r1, r0, r1, lsr r3
     8a0:	0182891b 	orreq	r8, r2, fp, lsl r9
     8a4:	01011101 	tsteq	r1, r1, lsl #2
     8a8:	1c000013 	stcne	0, cr0, [r0], {19}
     8ac:	13490101 	movtne	r0, #37121	; 0x9101
     8b0:	00001301 	andeq	r1, r0, r1, lsl #6
     8b4:	4900211d 	stmdbmi	r0, {r0, r2, r3, r4, r8, sp}
     8b8:	000b2f13 	andeq	r2, fp, r3, lsl pc
     8bc:	012e1e00 			; <UNDEFINED> instruction: 0x012e1e00
     8c0:	0b3a0e03 	bleq	e840d4 <__bss_end__+0xe7a314>
     8c4:	0b390b3b 	bleq	e435b8 <__bss_end__+0xe397f8>
     8c8:	13491927 	movtne	r1, #39207	; 0x9927
     8cc:	06120111 			; <UNDEFINED> instruction: 0x06120111
     8d0:	42971840 	addsmi	r1, r7, #64, 16	; 0x400000
     8d4:	00130119 	andseq	r0, r3, r9, lsl r1
     8d8:	00051f00 	andeq	r1, r5, r0, lsl #30
     8dc:	0b3a0e03 	bleq	e840f0 <__bss_end__+0xe7a330>
     8e0:	0b390b3b 	bleq	e435d4 <__bss_end__+0xe39814>
     8e4:	17021349 	strne	r1, [r2, -r9, asr #6]
     8e8:	001742b7 			; <UNDEFINED> instruction: 0x001742b7
     8ec:	012e2000 			; <UNDEFINED> instruction: 0x012e2000
     8f0:	0b3a0803 	bleq	e82904 <__bss_end__+0xe78b44>
     8f4:	0b390b3b 	bleq	e435e8 <__bss_end__+0xe39828>
     8f8:	13491927 	movtne	r1, #39207	; 0x9927
     8fc:	06120111 			; <UNDEFINED> instruction: 0x06120111
     900:	42971840 	addsmi	r1, r7, #64, 16	; 0x400000
     904:	00130119 	andseq	r0, r3, r9, lsl r1
     908:	012e2100 			; <UNDEFINED> instruction: 0x012e2100
     90c:	0e03193f 			; <UNDEFINED> instruction: 0x0e03193f
     910:	0b3b0b3a 	bleq	ec3600 <__bss_end__+0xeb9840>
     914:	19270b39 	stmdbne	r7!, {r0, r3, r4, r5, r8, r9, fp}
     918:	06120111 			; <UNDEFINED> instruction: 0x06120111
     91c:	42971840 	addsmi	r1, r7, #64, 16	; 0x400000
     920:	00130119 	andseq	r0, r3, r9, lsl r1
     924:	002e2200 	eoreq	r2, lr, r0, lsl #4
     928:	193c193f 	ldmdbne	ip!, {r0, r1, r2, r3, r4, r5, r8, fp, ip}
     92c:	0e030e6e 	cdpeq	14, 0, cr0, cr3, cr14, {3}
     930:	0b3b0b3a 	bleq	ec3620 <__bss_end__+0xeb9860>
     934:	00000b39 	andeq	r0, r0, r9, lsr fp
     938:	01110100 	tsteq	r1, r0, lsl #2
     93c:	0b130e25 	bleq	4c41d8 <__bss_end__+0x4ba418>
     940:	0e1b0e03 	cdpeq	14, 1, cr0, cr11, cr3, {0}
     944:	01111755 	tsteq	r1, r5, asr r7
     948:	00001710 	andeq	r1, r0, r0, lsl r7
     94c:	0b002402 	bleq	995c <FFT_SINE_LUT+0x5a4>
     950:	030b3e0b 	movweq	r3, #48651	; 0xbe0b
     954:	03000008 	movweq	r0, #8
     958:	0b0b0024 	bleq	2c09f0 <__bss_end__+0x2b6c30>
     95c:	0e030b3e 	vmoveq.16	d3[0], r0
     960:	15040000 	strne	r0, [r4, #-0]
     964:	49192701 	ldmdbmi	r9, {r0, r8, r9, sl, sp}
     968:	00130113 	andseq	r0, r3, r3, lsl r1
     96c:	00050500 	andeq	r0, r5, r0, lsl #10
     970:	00001349 	andeq	r1, r0, r9, asr #6
     974:	03003406 	movweq	r3, #1030	; 0x406
     978:	3b0b3a0e 	blcc	2cf1b8 <__bss_end__+0x2c53f8>
     97c:	490b390b 	stmdbmi	fp, {r0, r1, r3, r8, fp, ip, sp}
     980:	3c193f13 	ldccc	15, cr3, [r9], {19}
     984:	07000019 	smladeq	r0, r9, r0, r0
     988:	0b0b000f 	bleq	2c09cc <__bss_end__+0x2b6c0c>
     98c:	00001349 	andeq	r1, r0, r9, asr #6
     990:	49002608 	stmdbmi	r0, {r3, r9, sl, sp}
     994:	09000013 	stmdbeq	r0, {r0, r1, r4}
     998:	193f012e 	ldmdbne	pc!, {r1, r2, r3, r5, r8}	; <UNPREDICTABLE>
     99c:	0b3a0e03 	bleq	e841b0 <__bss_end__+0xe7a3f0>
     9a0:	0b390b3b 	bleq	e43694 <__bss_end__+0xe398d4>
     9a4:	01111927 	tsteq	r1, r7, lsr #18
     9a8:	18400612 	stmdane	r0, {r1, r4, r9, sl}^
     9ac:	01194297 			; <UNDEFINED> instruction: 0x01194297
     9b0:	0a000013 	beq	a04 <__code_start__-0x75fc>
     9b4:	08030034 	stmdaeq	r3, {r2, r4, r5}
     9b8:	0b3b0b3a 	bleq	ec36a8 <__bss_end__+0xeb98e8>
     9bc:	13490b39 	movtne	r0, #39737	; 0x9b39
     9c0:	42b71702 	adcsmi	r1, r7, #524288	; 0x80000
     9c4:	0b000017 	bleq	a28 <__code_start__-0x75d8>
     9c8:	193f012e 	ldmdbne	pc!, {r1, r2, r3, r5, r8}	; <UNPREDICTABLE>
     9cc:	0b3a0e03 	bleq	e841e0 <__bss_end__+0xe7a420>
     9d0:	0b390b3b 	bleq	e436c4 <__bss_end__+0xe39904>
     9d4:	01111927 	tsteq	r1, r7, lsr #18
     9d8:	18400612 	stmdane	r0, {r1, r4, r9, sl}^
     9dc:	00194297 	mulseq	r9, r7, r2
     9e0:	11010000 	mrsne	r0, (UNDEF: 1)
     9e4:	130e2501 	movwne	r2, #58625	; 0xe501
     9e8:	1b0e030b 	blne	38161c <__bss_end__+0x37785c>
     9ec:	1201110e 	andne	r1, r1, #-2147483645	; 0x80000003
     9f0:	00171006 	andseq	r1, r7, r6
     9f4:	00240200 	eoreq	r0, r4, r0, lsl #4
     9f8:	0b3e0b0b 	bleq	f8362c <__bss_end__+0xf7986c>
     9fc:	00000803 	andeq	r0, r0, r3, lsl #16
     a00:	0b002403 	bleq	9a14 <__data_end__+0x54>
     a04:	030b3e0b 	movweq	r3, #48651	; 0xbe0b
     a08:	0400000e 	streq	r0, [r0], #-14
     a0c:	19270115 	stmdbne	r7!, {r0, r2, r4, r8}
     a10:	13011349 	movwne	r1, #4937	; 0x1349
     a14:	05050000 	streq	r0, [r5, #-0]
     a18:	00134900 	andseq	r4, r3, r0, lsl #18
     a1c:	00340600 	eorseq	r0, r4, r0, lsl #12
     a20:	0b3a0e03 	bleq	e84234 <__bss_end__+0xe7a474>
     a24:	0b390b3b 	bleq	e43718 <__bss_end__+0xe39958>
     a28:	193f1349 	ldmdbne	pc!, {r0, r3, r6, r8, r9, ip}	; <UNPREDICTABLE>
     a2c:	0000193c 	andeq	r1, r0, ip, lsr r9
     a30:	0b000f07 	bleq	4654 <__code_start__-0x39ac>
     a34:	0013490b 	andseq	r4, r3, fp, lsl #18
     a38:	00260800 	eoreq	r0, r6, r0, lsl #16
     a3c:	00001349 	andeq	r1, r0, r9, asr #6
     a40:	3f012e09 	svccc	0x00012e09
     a44:	3a0e0319 	bcc	3816b0 <__bss_end__+0x3778f0>
     a48:	390b3b0b 	stmdbcc	fp, {r0, r1, r3, r8, r9, fp, ip, sp}
     a4c:	8719270b 	ldrhi	r2, [r9, -fp, lsl #14]
     a50:	01111901 	tsteq	r1, r1, lsl #18
     a54:	18400612 	stmdane	r0, {r1, r4, r9, sl}^
     a58:	01194297 			; <UNDEFINED> instruction: 0x01194297
     a5c:	0a000013 	beq	ab0 <__code_start__-0x7550>
     a60:	01018289 	smlabbeq	r1, r9, r2, r8
     a64:	13010111 	movwne	r0, #4369	; 0x1111
     a68:	8a0b0000 	bhi	2c0a70 <__bss_end__+0x2b6cb0>
     a6c:	02000182 	andeq	r0, r0, #-2147483616	; 0x80000020
     a70:	18429118 	stmdane	r2, {r3, r4, r8, ip, pc}^
     a74:	890c0000 	stmdbhi	ip, {}	; <UNPREDICTABLE>
     a78:	11000182 	smlabbne	r0, r2, r1, r0
     a7c:	00133101 	andseq	r3, r3, r1, lsl #2
     a80:	82890d00 	addhi	r0, r9, #0, 26
     a84:	01110101 	tsteq	r1, r1, lsl #2
     a88:	13011331 	movwne	r1, #4913	; 0x1331
     a8c:	2e0e0000 	cdpcs	0, 0, cr0, cr14, cr0, {0}
     a90:	3c193f00 	ldccc	15, cr3, [r9], {-0}
     a94:	030e6e19 	movweq	r6, #60953	; 0xee19
     a98:	3b0b3a0e 	blcc	2cf2d8 <__bss_end__+0x2c5518>
     a9c:	000b390b 	andeq	r3, fp, fp, lsl #18
     aa0:	11010000 	mrsne	r0, (UNDEF: 1)
     aa4:	130e2501 	movwne	r2, #58625	; 0xe501
     aa8:	1b0e030b 	blne	3816dc <__bss_end__+0x37791c>
     aac:	1201110e 	andne	r1, r1, #-2147483645	; 0x80000003
     ab0:	00171006 	andseq	r1, r7, r6
     ab4:	00240200 	eoreq	r0, r4, r0, lsl #4
     ab8:	0b3e0b0b 	bleq	f836ec <__bss_end__+0xf7992c>
     abc:	00000803 	andeq	r0, r0, r3, lsl #16
     ac0:	0b002403 	bleq	9ad4 <__data_end__+0x114>
     ac4:	030b3e0b 	movweq	r3, #48651	; 0xbe0b
     ac8:	0400000e 	streq	r0, [r0], #-14
     acc:	19270115 	stmdbne	r7!, {r0, r2, r4, r8}
     ad0:	13011349 	movwne	r1, #4937	; 0x1349
     ad4:	05050000 	streq	r0, [r5, #-0]
     ad8:	00134900 	andseq	r4, r3, r0, lsl #18
     adc:	00340600 	eorseq	r0, r4, r0, lsl #12
     ae0:	0b3a0e03 	bleq	e842f4 <__bss_end__+0xe7a534>
     ae4:	0b390b3b 	bleq	e437d8 <__bss_end__+0xe39a18>
     ae8:	193f1349 	ldmdbne	pc!, {r0, r3, r6, r8, r9, ip}	; <UNPREDICTABLE>
     aec:	0000193c 	andeq	r1, r0, ip, lsr r9
     af0:	0b000f07 	bleq	4714 <__code_start__-0x38ec>
     af4:	0013490b 	andseq	r4, r3, fp, lsl #18
     af8:	00260800 	eoreq	r0, r6, r0, lsl #16
     afc:	00001349 	andeq	r1, r0, r9, asr #6
     b00:	3f012e09 	svccc	0x00012e09
     b04:	3a0e0319 	bcc	381770 <__bss_end__+0x3779b0>
     b08:	390b3b0b 	stmdbcc	fp, {r0, r1, r3, r8, r9, fp, ip, sp}
     b0c:	1201110b 	andne	r1, r1, #-1073741822	; 0xc0000002
     b10:	97184006 	ldrls	r4, [r8, -r6]
     b14:	13011942 	movwne	r1, #6466	; 0x1942
     b18:	2e0a0000 	cdpcs	0, 0, cr0, cr10, cr0, {0}
     b1c:	03193f00 	tsteq	r9, #0, 30
     b20:	3b0b3a0e 	blcc	2cf360 <__bss_end__+0x2c55a0>
     b24:	270b390b 	strcs	r3, [fp, -fp, lsl #18]
     b28:	00193c19 	andseq	r3, r9, r9, lsl ip
     b2c:	00340b00 	eorseq	r0, r4, r0, lsl #22
     b30:	0b3a0803 	bleq	e82b44 <__bss_end__+0xe78d84>
     b34:	0b390b3b 	bleq	e43828 <__bss_end__+0xe39a68>
     b38:	17021349 	strne	r1, [r2, -r9, asr #6]
     b3c:	001742b7 			; <UNDEFINED> instruction: 0x001742b7
     b40:	00340c00 	eorseq	r0, r4, r0, lsl #24
     b44:	0b3a0e03 	bleq	e84358 <__bss_end__+0xe7a598>
     b48:	0b390b3b 	bleq	e4383c <__bss_end__+0xe39a7c>
     b4c:	00001349 	andeq	r1, r0, r9, asr #6
     b50:	11010b0d 	tstne	r1, sp, lsl #22
     b54:	01061201 	tsteq	r6, r1, lsl #4
     b58:	0e000013 	mcreq	0, 0, r0, cr0, cr3, {0}
     b5c:	08030034 	stmdaeq	r3, {r2, r4, r5}
     b60:	0b3b0b3a 	bleq	ec3850 <__bss_end__+0xeb9a90>
     b64:	13490b39 	movtne	r0, #39737	; 0x9b39
     b68:	00000b1c 	andeq	r0, r0, ip, lsl fp
     b6c:	0182890f 	orreq	r8, r2, pc, lsl #18
     b70:	31011100 	mrscc	r1, (UNDEF: 17)
     b74:	10000013 	andne	r0, r0, r3, lsl r0
     b78:	193f002e 	ldmdbne	pc!, {r1, r2, r3, r5}	; <UNPREDICTABLE>
     b7c:	0e6e193c 			; <UNDEFINED> instruction: 0x0e6e193c
     b80:	0b3a0e03 	bleq	e84394 <__bss_end__+0xe7a5d4>
     b84:	0b39053b 	bleq	e42078 <__bss_end__+0xe382b8>
     b88:	2e110000 	cdpcs	0, 1, cr0, cr1, cr0, {0}
     b8c:	3c193f00 	ldccc	15, cr3, [r9], {-0}
     b90:	030e6e19 	movweq	r6, #60953	; 0xee19
     b94:	3b0b3a0e 	blcc	2cf3d4 <__bss_end__+0x2c5614>
     b98:	000b390b 	andeq	r3, fp, fp, lsl #18
     b9c:	11010000 	mrsne	r0, (UNDEF: 1)
     ba0:	130e2501 	movwne	r2, #58625	; 0xe501
     ba4:	1b0e030b 	blne	3817d8 <__bss_end__+0x377a18>
     ba8:	1201110e 	andne	r1, r1, #-2147483645	; 0x80000003
     bac:	00171006 	andseq	r1, r7, r6
     bb0:	00240200 	eoreq	r0, r4, r0, lsl #4
     bb4:	0b3e0b0b 	bleq	f837e8 <__bss_end__+0xf79a28>
     bb8:	00000803 	andeq	r0, r0, r3, lsl #16
     bbc:	0b002403 	bleq	9bd0 <__data_end__+0x210>
     bc0:	030b3e0b 	movweq	r3, #48651	; 0xbe0b
     bc4:	0400000e 	streq	r0, [r0], #-14
     bc8:	19270115 	stmdbne	r7!, {r0, r2, r4, r8}
     bcc:	13011349 	movwne	r1, #4937	; 0x1349
     bd0:	05050000 	streq	r0, [r5, #-0]
     bd4:	00134900 	andseq	r4, r3, r0, lsl #18
     bd8:	00340600 	eorseq	r0, r4, r0, lsl #12
     bdc:	0b3a0e03 	bleq	e843f0 <__bss_end__+0xe7a630>
     be0:	0b390b3b 	bleq	e438d4 <__bss_end__+0xe39b14>
     be4:	193f1349 	ldmdbne	pc!, {r0, r3, r6, r8, r9, ip}	; <UNPREDICTABLE>
     be8:	0000193c 	andeq	r1, r0, ip, lsr r9
     bec:	0b000f07 	bleq	4810 <__code_start__-0x37f0>
     bf0:	0013490b 	andseq	r4, r3, fp, lsl #18
     bf4:	00260800 	eoreq	r0, r6, r0, lsl #16
     bf8:	00001349 	andeq	r1, r0, r9, asr #6
     bfc:	3f002e09 	svccc	0x00002e09
     c00:	3a0e0319 	bcc	38186c <__bss_end__+0x377aac>
     c04:	390b3b0b 	stmdbcc	fp, {r0, r1, r3, r8, r9, fp, ip, sp}
     c08:	1119270b 	tstne	r9, fp, lsl #14
     c0c:	40061201 	andmi	r1, r6, r1, lsl #4
     c10:	19429718 	stmdbne	r2, {r3, r4, r8, r9, sl, ip, pc}^
     c14:	01000000 	mrseq	r0, (UNDEF: 0)
     c18:	0e250111 	mcreq	1, 1, r0, cr5, cr1, {0}
     c1c:	0e030b13 	vmoveq.32	d3[0], r0
     c20:	17550e1b 	smmlane	r5, fp, lr, r0
     c24:	17100111 			; <UNDEFINED> instruction: 0x17100111
     c28:	24020000 	strcs	r0, [r2], #-0
     c2c:	3e0b0b00 	vmlacc.f64	d0, d11, d0
     c30:	0008030b 	andeq	r0, r8, fp, lsl #6
     c34:	00260300 	eoreq	r0, r6, r0, lsl #6
     c38:	00001349 	andeq	r1, r0, r9, asr #6
     c3c:	0b002404 	bleq	9c54 <__data_end__+0x294>
     c40:	030b3e0b 	movweq	r3, #48651	; 0xbe0b
     c44:	0500000e 	streq	r0, [r0, #-14]
     c48:	19270115 	stmdbne	r7!, {r0, r2, r4, r8}
     c4c:	13011349 	movwne	r1, #4937	; 0x1349
     c50:	05060000 	streq	r0, [r6, #-0]
     c54:	00134900 	andseq	r4, r3, r0, lsl #18
     c58:	00340700 	eorseq	r0, r4, r0, lsl #14
     c5c:	0b3a0e03 	bleq	e84470 <__bss_end__+0xe7a6b0>
     c60:	0b390b3b 	bleq	e43954 <__bss_end__+0xe39b94>
     c64:	193f1349 	ldmdbne	pc!, {r0, r3, r6, r8, r9, ip}	; <UNPREDICTABLE>
     c68:	0000193c 	andeq	r1, r0, ip, lsr r9
     c6c:	0b000f08 	bleq	4894 <__code_start__-0x376c>
     c70:	0013490b 	andseq	r4, r3, fp, lsl #18
     c74:	00340900 	eorseq	r0, r4, r0, lsl #18
     c78:	0b3a0e03 	bleq	e8448c <__bss_end__+0xe7a6cc>
     c7c:	0b390b3b 	bleq	e43970 <__bss_end__+0xe39bb0>
     c80:	00001349 	andeq	r1, r0, r9, asr #6
     c84:	3f012e0a 	svccc	0x00012e0a
     c88:	3a0e0319 	bcc	3818f4 <__bss_end__+0x377b34>
     c8c:	390b3b0b 	stmdbcc	fp, {r0, r1, r3, r8, r9, fp, ip, sp}
     c90:	8719270b 	ldrhi	r2, [r9, -fp, lsl #14]
     c94:	01111901 	tsteq	r1, r1, lsl #18
     c98:	18400612 	stmdane	r0, {r1, r4, r9, sl}^
     c9c:	01194297 			; <UNDEFINED> instruction: 0x01194297
     ca0:	0b000013 	bleq	cf4 <__code_start__-0x730c>
     ca4:	0e030034 	mcreq	0, 0, r0, cr3, cr4, {1}
     ca8:	0b3b0b3a 	bleq	ec3998 <__bss_end__+0xeb9bd8>
     cac:	13490b39 	movtne	r0, #39737	; 0x9b39
     cb0:	42b71702 	adcsmi	r1, r7, #524288	; 0x80000
     cb4:	0c000017 	stceq	0, cr0, [r0], {23}
     cb8:	00018289 	andeq	r8, r1, r9, lsl #5
     cbc:	13310111 	teqne	r1, #1073741828	; 0x40000004
     cc0:	890d0000 	stmdbhi	sp, {}	; <UNPREDICTABLE>
     cc4:	11010182 	smlabbne	r1, r2, r1, r0
     cc8:	01133101 	tsteq	r3, r1, lsl #2
     ccc:	0e000013 	mcreq	0, 0, r0, cr0, cr3, {0}
     cd0:	0001828a 	andeq	r8, r1, sl, lsl #5
     cd4:	42911802 	addsmi	r1, r1, #131072	; 0x20000
     cd8:	0f000018 	svceq	0x00000018
     cdc:	193f012e 	ldmdbne	pc!, {r1, r2, r3, r5, r8}	; <UNPREDICTABLE>
     ce0:	0b3a0e03 	bleq	e844f4 <__bss_end__+0xe7a734>
     ce4:	0b390b3b 	bleq	e439d8 <__bss_end__+0xe39c18>
     ce8:	01111927 	tsteq	r1, r7, lsr #18
     cec:	18400612 	stmdane	r0, {r1, r4, r9, sl}^
     cf0:	01194297 			; <UNDEFINED> instruction: 0x01194297
     cf4:	10000013 	andne	r0, r0, r3, lsl r0
     cf8:	193f012e 	ldmdbne	pc!, {r1, r2, r3, r5, r8}	; <UNPREDICTABLE>
     cfc:	0b3a0e03 	bleq	e84510 <__bss_end__+0xe7a750>
     d00:	0b390b3b 	bleq	e439f4 <__bss_end__+0xe39c34>
     d04:	13491927 	movtne	r1, #39207	; 0x9927
     d08:	06120111 			; <UNDEFINED> instruction: 0x06120111
     d0c:	42971840 	addsmi	r1, r7, #64, 16	; 0x400000
     d10:	00130119 	andseq	r0, r3, r9, lsl r1
     d14:	002e1100 	eoreq	r1, lr, r0, lsl #2
     d18:	193c193f 	ldmdbne	ip!, {r0, r1, r2, r3, r4, r5, r8, fp, ip}
     d1c:	0e030e6e 	cdpeq	14, 0, cr0, cr3, cr14, {3}
     d20:	053b0b3a 	ldreq	r0, [fp, #-2874]!	; 0xfffff4c6
     d24:	00000b39 	andeq	r0, r0, r9, lsr fp
     d28:	3f002e12 	svccc	0x00002e12
     d2c:	6e193c19 	mrcvs	12, 0, r3, cr9, cr9, {0}
     d30:	3a0e030e 	bcc	381970 <__bss_end__+0x377bb0>
     d34:	390b3b0b 	stmdbcc	fp, {r0, r1, r3, r8, r9, fp, ip, sp}
     d38:	0000000b 	andeq	r0, r0, fp
     d3c:	25011101 	strcs	r1, [r1, #-257]	; 0xfffffeff
     d40:	030b130e 	movweq	r1, #45838	; 0xb30e
     d44:	110e1b0e 	tstne	lr, lr, lsl #22
     d48:	10061201 	andne	r1, r6, r1, lsl #4
     d4c:	02000017 	andeq	r0, r0, #23, 0
     d50:	0b0b0024 	bleq	2c0de8 <__bss_end__+0x2b7028>
     d54:	08030b3e 	stmdaeq	r3, {r1, r2, r3, r4, r5, r8, r9, fp}
     d58:	24030000 	strcs	r0, [r3], #-0
     d5c:	3e0b0b00 	vmlacc.f64	d0, d11, d0
     d60:	000e030b 	andeq	r0, lr, fp, lsl #6
     d64:	01150400 	tsteq	r5, r0, lsl #8
     d68:	13491927 	movtne	r1, #39207	; 0x9927
     d6c:	00001301 	andeq	r1, r0, r1, lsl #6
     d70:	49000505 	stmdbmi	r0, {r0, r2, r8, sl}
     d74:	06000013 			; <UNDEFINED> instruction: 0x06000013
     d78:	0e030034 	mcreq	0, 0, r0, cr3, cr4, {1}
     d7c:	0b3b0b3a 	bleq	ec3a6c <__bss_end__+0xeb9cac>
     d80:	13490b39 	movtne	r0, #39737	; 0x9b39
     d84:	193c193f 	ldmdbne	ip!, {r0, r1, r2, r3, r4, r5, r8, fp, ip}
     d88:	0f070000 	svceq	0x00070000
     d8c:	490b0b00 	stmdbmi	fp, {r8, r9, fp}
     d90:	08000013 	stmdaeq	r0, {r0, r1, r4}
     d94:	13490026 	movtne	r0, #36902	; 0x9026
     d98:	2e090000 	cdpcs	0, 0, cr0, cr9, cr0, {0}
     d9c:	03193f01 	tsteq	r9, #1, 30
     da0:	3b0b3a0e 	blcc	2cf5e0 <__bss_end__+0x2c5820>
     da4:	270b390b 	strcs	r3, [fp, -fp, lsl #18]
     da8:	12011119 	andne	r1, r1, #1073741830	; 0x40000006
     dac:	97184006 	ldrls	r4, [r8, -r6]
     db0:	13011942 	movwne	r1, #6466	; 0x1942
     db4:	050a0000 	streq	r0, [sl, #-0]
     db8:	3a080300 	bcc	2019c0 <__bss_end__+0x1f7c00>
     dbc:	390b3b0b 	stmdbcc	fp, {r0, r1, r3, r8, r9, fp, ip, sp}
     dc0:	0213490b 	andseq	r4, r3, #180224	; 0x2c000
     dc4:	1742b717 	smlaldne	fp, r2, r7, r7
     dc8:	890b0000 	stmdbhi	fp, {}	; <UNPREDICTABLE>
     dcc:	11010182 	smlabbne	r1, r2, r1, r0
     dd0:	00133101 	andseq	r3, r3, r1, lsl #2
     dd4:	828a0c00 	addhi	r0, sl, #0, 24
     dd8:	18020001 	stmdane	r2, {r0}
     ddc:	00184291 	mulseq	r8, r1, r2
     de0:	00340d00 	eorseq	r0, r4, r0, lsl #26
     de4:	0b3a0803 	bleq	e82df8 <__bss_end__+0xe79038>
     de8:	0b390b3b 	bleq	e43adc <__bss_end__+0xe39d1c>
     dec:	17021349 	strne	r1, [r2, -r9, asr #6]
     df0:	001742b7 			; <UNDEFINED> instruction: 0x001742b7
     df4:	010b0e00 	tsteq	fp, r0, lsl #28
     df8:	06120111 			; <UNDEFINED> instruction: 0x06120111
     dfc:	00001301 	andeq	r1, r0, r1, lsl #6
     e00:	0182890f 	orreq	r8, r2, pc, lsl #18
     e04:	31011100 	mrscc	r1, (UNDEF: 17)
     e08:	10000013 	andne	r0, r0, r3, lsl r0
     e0c:	193f012e 	ldmdbne	pc!, {r1, r2, r3, r5, r8}	; <UNPREDICTABLE>
     e10:	0b3a0e03 	bleq	e84624 <__bss_end__+0xe7a864>
     e14:	0b390b3b 	bleq	e43b08 <__bss_end__+0xe39d48>
     e18:	13491927 	movtne	r1, #39207	; 0x9927
     e1c:	06120111 			; <UNDEFINED> instruction: 0x06120111
     e20:	42971840 	addsmi	r1, r7, #64, 16	; 0x400000
     e24:	00130119 	andseq	r0, r3, r9, lsl r1
     e28:	002e1100 	eoreq	r1, lr, r0, lsl #2
     e2c:	193c193f 	ldmdbne	ip!, {r0, r1, r2, r3, r4, r5, r8, fp, ip}
     e30:	0e030e6e 	cdpeq	14, 0, cr0, cr3, cr14, {3}
     e34:	0b3b0b3a 	bleq	ec3b24 <__bss_end__+0xeb9d64>
     e38:	00000b39 	andeq	r0, r0, r9, lsr fp
     e3c:	01110100 	tsteq	r1, r0, lsl #2
     e40:	0b130e25 	bleq	4c46dc <__bss_end__+0x4ba91c>
     e44:	0e1b0e03 	cdpeq	14, 1, cr0, cr11, cr3, {0}
     e48:	06120111 			; <UNDEFINED> instruction: 0x06120111
     e4c:	00001710 	andeq	r1, r0, r0, lsl r7
     e50:	0b002402 	bleq	9e60 <__bss_end__+0xa0>
     e54:	030b3e0b 	movweq	r3, #48651	; 0xbe0b
     e58:	03000008 	movweq	r0, #8
     e5c:	0b0b0024 	bleq	2c0ef4 <__bss_end__+0x2b7134>
     e60:	0e030b3e 	vmoveq.16	d3[0], r0
     e64:	26040000 	strcs	r0, [r4], -r0
     e68:	00134900 	andseq	r4, r3, r0, lsl #18
     e6c:	00160500 	andseq	r0, r6, r0, lsl #10
     e70:	0b3a0e03 	bleq	e84684 <__bss_end__+0xe7a8c4>
     e74:	0b390b3b 	bleq	e43b68 <__bss_end__+0xe39da8>
     e78:	00001349 	andeq	r1, r0, r9, asr #6
     e7c:	3e010406 	cdpcc	4, 0, cr0, cr1, cr6, {0}
     e80:	490b0b0b 	stmdbmi	fp, {r0, r1, r3, r8, r9, fp}
     e84:	3b0b3a13 	blcc	2cf6d8 <__bss_end__+0x2c5918>
     e88:	010b390b 	tsteq	fp, fp, lsl #18
     e8c:	07000013 	smladeq	r0, r3, r0, r0
     e90:	0e030028 	cdpeq	0, 0, cr0, cr3, cr8, {1}
     e94:	00000b1c 	andeq	r0, r0, ip, lsl fp
     e98:	03003408 	movweq	r3, #1032	; 0x408
     e9c:	3b0b3a0e 	blcc	2cf6dc <__bss_end__+0x2c591c>
     ea0:	490b390b 	stmdbmi	fp, {r0, r1, r3, r8, fp, ip, sp}
     ea4:	00061c13 	andeq	r1, r6, r3, lsl ip
     ea8:	012e0900 			; <UNDEFINED> instruction: 0x012e0900
     eac:	0e03193f 			; <UNDEFINED> instruction: 0x0e03193f
     eb0:	0b3b0b3a 	bleq	ec3ba0 <__bss_end__+0xeb9de0>
     eb4:	19270b39 	stmdbne	r7!, {r0, r3, r4, r5, r8, r9, fp}
     eb8:	01111349 	tsteq	r1, r9, asr #6
     ebc:	18400612 	stmdane	r0, {r1, r4, r9, sl}^
     ec0:	01194297 			; <UNDEFINED> instruction: 0x01194297
     ec4:	0a000013 	beq	f18 <__code_start__-0x70e8>
     ec8:	08030005 	stmdaeq	r3, {r0, r2}
     ecc:	0b3b0b3a 	bleq	ec3bbc <__bss_end__+0xeb9dfc>
     ed0:	13490b39 	movtne	r0, #39737	; 0x9b39
     ed4:	42b71702 	adcsmi	r1, r7, #524288	; 0x80000
     ed8:	0b000017 	bleq	f3c <__code_start__-0x70c4>
     edc:	0e030034 	mcreq	0, 0, r0, cr3, cr4, {1}
     ee0:	0b3b0b3a 	bleq	ec3bd0 <__bss_end__+0xeb9e10>
     ee4:	13490b39 	movtne	r0, #39737	; 0x9b39
     ee8:	42b71702 	adcsmi	r1, r7, #524288	; 0x80000
     eec:	0c000017 	stceq	0, cr0, [r0], {23}
     ef0:	08030034 	stmdaeq	r3, {r2, r4, r5}
     ef4:	0b3b0b3a 	bleq	ec3be4 <__bss_end__+0xeb9e24>
     ef8:	13490b39 	movtne	r0, #39737	; 0x9b39
     efc:	42b71702 	adcsmi	r1, r7, #524288	; 0x80000
     f00:	0d000017 	stceq	0, cr0, [r0, #-92]	; 0xffffffa4
     f04:	01018289 	smlabbeq	r1, r9, r2, r8
     f08:	13310111 	teqne	r1, #1073741828	; 0x40000004
     f0c:	8a0e0000 	bhi	380f14 <__bss_end__+0x377154>
     f10:	02000182 	andeq	r0, r0, #-2147483616	; 0x80000020
     f14:	18429118 	stmdane	r2, {r3, r4, r8, ip, pc}^
     f18:	2e0f0000 	cdpcs	0, 0, cr0, cr15, cr0, {0}
     f1c:	03193f01 	tsteq	r9, #1, 30
     f20:	3b0b3a0e 	blcc	2cf760 <__bss_end__+0x2c59a0>
     f24:	270b390b 	strcs	r3, [fp, -fp, lsl #18]
     f28:	12011119 	andne	r1, r1, #1073741830	; 0x40000006
     f2c:	97184006 	ldrls	r4, [r8, -r6]
     f30:	13011942 	movwne	r1, #6466	; 0x1942
     f34:	89100000 	ldmdbhi	r0, {}	; <UNPREDICTABLE>
     f38:	11010182 	smlabbne	r1, r2, r1, r0
     f3c:	01133101 	tsteq	r3, r1, lsl #2
     f40:	11000013 	tstne	r0, r3, lsl r0
     f44:	00018289 	andeq	r8, r1, r9, lsl #5
     f48:	13310111 	teqne	r1, #1073741828	; 0x40000004
     f4c:	05120000 	ldreq	r0, [r2, #-0]
     f50:	3a0e0300 	bcc	381b58 <__bss_end__+0x377d98>
     f54:	390b3b0b 	stmdbcc	fp, {r0, r1, r3, r8, r9, fp, ip, sp}
     f58:	0213490b 	andseq	r4, r3, #180224	; 0x2c000
     f5c:	1742b717 	smlaldne	fp, r2, r7, r7
     f60:	2e130000 	cdpcs	0, 1, cr0, cr3, cr0, {0}
     f64:	3a0e0301 	bcc	381b70 <__bss_end__+0x377db0>
     f68:	390b3b0b 	stmdbcc	fp, {r0, r1, r3, r8, r9, fp, ip, sp}
     f6c:	4919270b 	ldmdbmi	r9, {r0, r1, r3, r8, r9, sl, sp}
     f70:	010b2013 	tsteq	fp, r3, lsl r0
     f74:	14000013 	strne	r0, [r0], #-19	; 0xffffffed
     f78:	08030005 	stmdaeq	r3, {r0, r2}
     f7c:	0b3b0b3a 	bleq	ec3c6c <__bss_end__+0xeb9eac>
     f80:	13490b39 	movtne	r0, #39737	; 0x9b39
     f84:	2e150000 	cdpcs	0, 1, cr0, cr5, cr0, {0}
     f88:	3c193f00 	ldccc	15, cr3, [r9], {-0}
     f8c:	030e6e19 	movweq	r6, #60953	; 0xee19
     f90:	3b0b3a0e 	blcc	2cf7d0 <__bss_end__+0x2c5a10>
     f94:	000b390b 	andeq	r3, fp, fp, lsl #18
     f98:	11010000 	mrsne	r0, (UNDEF: 1)
     f9c:	130e2501 	movwne	r2, #58625	; 0xe501
     fa0:	1b0e030b 	blne	381bd4 <__bss_end__+0x377e14>
     fa4:	1201110e 	andne	r1, r1, #-2147483645	; 0x80000003
     fa8:	00171006 	andseq	r1, r7, r6
     fac:	00240200 	eoreq	r0, r4, r0, lsl #4
     fb0:	0b3e0b0b 	bleq	f83be4 <__bss_end__+0xf79e24>
     fb4:	00000803 	andeq	r0, r0, r3, lsl #16
     fb8:	0b002403 	bleq	9fcc <__bss_end__+0x20c>
     fbc:	030b3e0b 	movweq	r3, #48651	; 0xbe0b
     fc0:	0400000e 	streq	r0, [r0], #-14
     fc4:	13490035 	movtne	r0, #36917	; 0x9035
     fc8:	16050000 	strne	r0, [r5], -r0
     fcc:	3a0e0300 	bcc	381bd4 <__bss_end__+0x377e14>
     fd0:	390b3b0b 	stmdbcc	fp, {r0, r1, r3, r8, r9, fp, ip, sp}
     fd4:	0013490b 	andseq	r4, r3, fp, lsl #18
     fd8:	01040600 	tsteq	r4, r0, lsl #12
     fdc:	0b0b0b3e 	bleq	2c3cdc <__bss_end__+0x2b9f1c>
     fe0:	0b3a1349 	bleq	e85d0c <__bss_end__+0xe7bf4c>
     fe4:	0b390b3b 	bleq	e43cd8 <__bss_end__+0xe39f18>
     fe8:	00001301 	andeq	r1, r0, r1, lsl #6
     fec:	03002807 	movweq	r2, #2055	; 0x807
     ff0:	000b1c0e 	andeq	r1, fp, lr, lsl #24
     ff4:	01130800 	tsteq	r3, r0, lsl #16
     ff8:	0b0b0e03 	bleq	2c480c <__bss_end__+0x2baa4c>
     ffc:	0b3b0b3a 	bleq	ec3cec <__bss_end__+0xeb9f2c>
    1000:	13010b39 	movwne	r0, #6969	; 0x1b39
    1004:	0d090000 	stceq	0, cr0, [r9, #-0]
    1008:	3a080300 	bcc	201c10 <__bss_end__+0x1f7e50>
    100c:	390b3b0b 	stmdbcc	fp, {r0, r1, r3, r8, r9, fp, ip, sp}
    1010:	3813490b 	ldmdacc	r3, {r0, r1, r3, r8, fp, lr}
    1014:	0a00000b 	beq	1048 <__code_start__-0x6fb8>
    1018:	0e03000d 	cdpeq	0, 0, cr0, cr3, cr13, {0}
    101c:	0b3b0b3a 	bleq	ec3d0c <__bss_end__+0xeb9f4c>
    1020:	13490b39 	movtne	r0, #39737	; 0x9b39
    1024:	00000b38 	andeq	r0, r0, r8, lsr fp
    1028:	0300340b 	movweq	r3, #1035	; 0x40b
    102c:	3b0b3a0e 	blcc	2cf86c <__bss_end__+0x2c5aac>
    1030:	490b390b 	stmdbmi	fp, {r0, r1, r3, r8, fp, ip, sp}
    1034:	00061c13 	andeq	r1, r6, r3, lsl ip
    1038:	000f0c00 	andeq	r0, pc, r0, lsl #24
    103c:	13490b0b 	movtne	r0, #39691	; 0x9b0b
    1040:	260d0000 	strcs	r0, [sp], -r0
    1044:	00134900 	andseq	r4, r3, r0, lsl #18
    1048:	012e0e00 			; <UNDEFINED> instruction: 0x012e0e00
    104c:	0e03193f 			; <UNDEFINED> instruction: 0x0e03193f
    1050:	0b3b0b3a 	bleq	ec3d40 <__bss_end__+0xeb9f80>
    1054:	19270b39 	stmdbne	r7!, {r0, r3, r4, r5, r8, r9, fp}
    1058:	06120111 			; <UNDEFINED> instruction: 0x06120111
    105c:	42971840 	addsmi	r1, r7, #64, 16	; 0x400000
    1060:	00130119 	andseq	r0, r3, r9, lsl r1
    1064:	82890f00 	addhi	r0, r9, #0, 30
    1068:	01110001 	tsteq	r1, r1
    106c:	00001331 	andeq	r1, r0, r1, lsr r3
    1070:	3f012e10 	svccc	0x00012e10
    1074:	3a0e0319 	bcc	381ce0 <__bss_end__+0x377f20>
    1078:	390b3b0b 	stmdbcc	fp, {r0, r1, r3, r8, r9, fp, ip, sp}
    107c:	4919270b 	ldmdbmi	r9, {r0, r1, r3, r8, r9, sl, sp}
    1080:	12011113 	andne	r1, r1, #-1073741820	; 0xc0000004
    1084:	97184006 	ldrls	r4, [r8, -r6]
    1088:	13011942 	movwne	r1, #6466	; 0x1942
    108c:	89110000 	ldmdbhi	r1, {}	; <UNPREDICTABLE>
    1090:	11010182 	smlabbne	r1, r2, r1, r0
    1094:	00133101 	andseq	r3, r3, r1, lsl #2
    1098:	828a1200 	addhi	r1, sl, #0, 4
    109c:	18020001 	stmdane	r2, {r0}
    10a0:	00184291 	mulseq	r8, r1, r2
    10a4:	00051300 	andeq	r1, r5, r0, lsl #6
    10a8:	0b3a0803 	bleq	e830bc <__bss_end__+0xe792fc>
    10ac:	0b390b3b 	bleq	e43da0 <__bss_end__+0xe39fe0>
    10b0:	17021349 	strne	r1, [r2, -r9, asr #6]
    10b4:	001742b7 			; <UNDEFINED> instruction: 0x001742b7
    10b8:	82891400 	addhi	r1, r9, #0, 8
    10bc:	01110101 	tsteq	r1, r1, lsl #2
    10c0:	13011331 	movwne	r1, #4913	; 0x1331
    10c4:	34150000 	ldrcc	r0, [r5], #-0
    10c8:	3a080300 	bcc	201cd0 <__bss_end__+0x1f7f10>
    10cc:	390b3b0b 	stmdbcc	fp, {r0, r1, r3, r8, r9, fp, ip, sp}
    10d0:	0213490b 	andseq	r4, r3, #180224	; 0x2c000
    10d4:	1742b717 	smlaldne	fp, r2, r7, r7
    10d8:	34160000 	ldrcc	r0, [r6], #-0
    10dc:	3a0e0300 	bcc	381ce4 <__bss_end__+0x377f24>
    10e0:	390b3b0b 	stmdbcc	fp, {r0, r1, r3, r8, r9, fp, ip, sp}
    10e4:	1c13490b 			; <UNDEFINED> instruction: 0x1c13490b
    10e8:	17000005 	strne	r0, [r0, -r5]
    10ec:	0e03012e 	adfeqsp	f0, f3, #0.5
    10f0:	0b3b0b3a 	bleq	ec3de0 <__bss_end__+0xeba020>
    10f4:	19270b39 	stmdbne	r7!, {r0, r3, r4, r5, r8, r9, fp}
    10f8:	06120111 			; <UNDEFINED> instruction: 0x06120111
    10fc:	42971840 	addsmi	r1, r7, #64, 16	; 0x400000
    1100:	00130119 	andseq	r0, r3, r9, lsl r1
    1104:	00051800 	andeq	r1, r5, r0, lsl #16
    1108:	0b3a0e03 	bleq	e8491c <__bss_end__+0xe7ab5c>
    110c:	0b390b3b 	bleq	e43e00 <__bss_end__+0xe3a040>
    1110:	17021349 	strne	r1, [r2, -r9, asr #6]
    1114:	001742b7 			; <UNDEFINED> instruction: 0x001742b7
    1118:	00351900 	eorseq	r1, r5, r0, lsl #18
    111c:	2e1a0000 	cdpcs	0, 1, cr0, cr10, cr0, {0}
    1120:	3c193f00 	ldccc	15, cr3, [r9], {-0}
    1124:	030e6e19 	movweq	r6, #60953	; 0xee19
    1128:	3b0b3a0e 	blcc	2cf968 <__bss_end__+0x2c5ba8>
    112c:	000b390b 	andeq	r3, fp, fp, lsl #18
    1130:	11010000 	mrsne	r0, (UNDEF: 1)
    1134:	130e2501 	movwne	r2, #58625	; 0xe501
    1138:	1b0e030b 	blne	381d6c <__bss_end__+0x377fac>
    113c:	1201110e 	andne	r1, r1, #-2147483645	; 0x80000003
    1140:	00171006 	andseq	r1, r7, r6
    1144:	00240200 	eoreq	r0, r4, r0, lsl #4
    1148:	0b3e0b0b 	bleq	f83d7c <__bss_end__+0xf79fbc>
    114c:	00000803 	andeq	r0, r0, r3, lsl #16
    1150:	0b002403 	bleq	a164 <__bss_end__+0x3a4>
    1154:	030b3e0b 	movweq	r3, #48651	; 0xbe0b
    1158:	0400000e 	streq	r0, [r0], #-14
    115c:	19270115 	stmdbne	r7!, {r0, r2, r4, r8}
    1160:	13011349 	movwne	r1, #4937	; 0x1349
    1164:	05050000 	streq	r0, [r5, #-0]
    1168:	00134900 	andseq	r4, r3, r0, lsl #18
    116c:	00340600 	eorseq	r0, r4, r0, lsl #12
    1170:	0b3a0e03 	bleq	e84984 <__bss_end__+0xe7abc4>
    1174:	0b390b3b 	bleq	e43e68 <__bss_end__+0xe3a0a8>
    1178:	193f1349 	ldmdbne	pc!, {r0, r3, r6, r8, r9, ip}	; <UNPREDICTABLE>
    117c:	0000193c 	andeq	r1, r0, ip, lsr r9
    1180:	0b000f07 	bleq	4da4 <__code_start__-0x325c>
    1184:	0013490b 	andseq	r4, r3, fp, lsl #18
    1188:	00260800 	eoreq	r0, r6, r0, lsl #16
    118c:	00001349 	andeq	r1, r0, r9, asr #6
    1190:	47003409 	strmi	r3, [r0, -r9, lsl #8]
    1194:	3b0b3a13 	blcc	2cf9e8 <__bss_end__+0x2c5c28>
    1198:	020b390b 	andeq	r3, fp, #180224	; 0x2c000
    119c:	0a000018 	beq	1204 <__code_start__-0x6dfc>
    11a0:	193f012e 	ldmdbne	pc!, {r1, r2, r3, r5, r8}	; <UNPREDICTABLE>
    11a4:	0b3a0e03 	bleq	e849b8 <__bss_end__+0xe7abf8>
    11a8:	0b390b3b 	bleq	e43e9c <__bss_end__+0xe3a0dc>
    11ac:	01111927 	tsteq	r1, r7, lsr #18
    11b0:	18400612 	stmdane	r0, {r1, r4, r9, sl}^
    11b4:	01194297 			; <UNDEFINED> instruction: 0x01194297
    11b8:	0b000013 	bleq	120c <__code_start__-0x6df4>
    11bc:	08030005 	stmdaeq	r3, {r0, r2}
    11c0:	0b3b0b3a 	bleq	ec3eb0 <__bss_end__+0xeba0f0>
    11c4:	13490b39 	movtne	r0, #39737	; 0x9b39
    11c8:	00001802 	andeq	r1, r0, r2, lsl #16
    11cc:	3f002e0c 	svccc	0x00002e0c
    11d0:	3a0e0319 	bcc	381e3c <__bss_end__+0x37807c>
    11d4:	390b3b0b 	stmdbcc	fp, {r0, r1, r3, r8, r9, fp, ip, sp}
    11d8:	1119270b 	tstne	r9, fp, lsl #14
    11dc:	40061201 	andmi	r1, r6, r1, lsl #4
    11e0:	19429718 	stmdbne	r2, {r3, r4, r8, r9, sl, ip, pc}^
    11e4:	2e0d0000 	cdpcs	0, 0, cr0, cr13, cr0, {0}
    11e8:	3a0e0301 	bcc	381df4 <__bss_end__+0x378034>
    11ec:	390b3b0b 	stmdbcc	fp, {r0, r1, r3, r8, r9, fp, ip, sp}
    11f0:	4919270b 	ldmdbmi	r9, {r0, r1, r3, r8, r9, sl, sp}
    11f4:	12011113 	andne	r1, r1, #-1073741820	; 0xc0000004
    11f8:	97184006 	ldrls	r4, [r8, -r6]
    11fc:	13011942 	movwne	r1, #6466	; 0x1942
    1200:	050e0000 	streq	r0, [lr, #-0]
    1204:	3a080300 	bcc	201e0c <__bss_end__+0x1f804c>
    1208:	390b3b0b 	stmdbcc	fp, {r0, r1, r3, r8, r9, fp, ip, sp}
    120c:	0213490b 	andseq	r4, r3, #180224	; 0x2c000
    1210:	1742b717 	smlaldne	fp, r2, r7, r7
    1214:	890f0000 	stmdbhi	pc, {}	; <UNPREDICTABLE>
    1218:	11010182 	smlabbne	r1, r2, r1, r0
    121c:	00133101 	andseq	r3, r3, r1, lsl #2
    1220:	828a1000 	addhi	r1, sl, #0, 0
    1224:	18020001 	stmdane	r2, {r0}
    1228:	00184291 	mulseq	r8, r1, r2
    122c:	002e1100 	eoreq	r1, lr, r0, lsl #2
    1230:	193c193f 	ldmdbne	ip!, {r0, r1, r2, r3, r4, r5, r8, fp, ip}
    1234:	0e030e6e 	cdpeq	14, 0, cr0, cr3, cr14, {3}
    1238:	0b3b0b3a 	bleq	ec3f28 <__bss_end__+0xeba168>
    123c:	00000b39 	andeq	r0, r0, r9, lsr fp
    1240:	01110100 	tsteq	r1, r0, lsl #2
    1244:	0b130e25 	bleq	4c4ae0 <__bss_end__+0x4bad20>
    1248:	0e1b0e03 	cdpeq	14, 1, cr0, cr11, cr3, {0}
    124c:	06120111 			; <UNDEFINED> instruction: 0x06120111
    1250:	00001710 	andeq	r1, r0, r0, lsl r7
    1254:	0b002402 	bleq	a264 <__bss_end__+0x4a4>
    1258:	030b3e0b 	movweq	r3, #48651	; 0xbe0b
    125c:	03000008 	movweq	r0, #8
    1260:	0b0b0024 	bleq	2c12f8 <__bss_end__+0x2b7538>
    1264:	0e030b3e 	vmoveq.16	d3[0], r0
    1268:	15040000 	strne	r0, [r4, #-0]
    126c:	49192701 	ldmdbmi	r9, {r0, r8, r9, sl, sp}
    1270:	00130113 	andseq	r0, r3, r3, lsl r1
    1274:	00050500 	andeq	r0, r5, r0, lsl #10
    1278:	00001349 	andeq	r1, r0, r9, asr #6
    127c:	03003406 	movweq	r3, #1030	; 0x406
    1280:	3b0b3a0e 	blcc	2cfac0 <__bss_end__+0x2c5d00>
    1284:	490b390b 	stmdbmi	fp, {r0, r1, r3, r8, fp, ip, sp}
    1288:	3c193f13 	ldccc	15, cr3, [r9], {19}
    128c:	07000019 	smladeq	r0, r9, r0, r0
    1290:	0b0b000f 	bleq	2c12d4 <__bss_end__+0x2b7514>
    1294:	00001349 	andeq	r1, r0, r9, asr #6
    1298:	49002608 	stmdbmi	r0, {r3, r9, sl, sp}
    129c:	09000013 	stmdbeq	r0, {r0, r1, r4}
    12a0:	193f012e 	ldmdbne	pc!, {r1, r2, r3, r5, r8}	; <UNPREDICTABLE>
    12a4:	0b3a0e03 	bleq	e84ab8 <__bss_end__+0xe7acf8>
    12a8:	0b390b3b 	bleq	e43f9c <__bss_end__+0xe3a1dc>
    12ac:	13491927 	movtne	r1, #39207	; 0x9927
    12b0:	06120111 			; <UNDEFINED> instruction: 0x06120111
    12b4:	42971840 	addsmi	r1, r7, #64, 16	; 0x400000
    12b8:	00130119 	andseq	r0, r3, r9, lsl r1
    12bc:	00050a00 	andeq	r0, r5, r0, lsl #20
    12c0:	0b3a0e03 	bleq	e84ad4 <__bss_end__+0xe7ad14>
    12c4:	0b390b3b 	bleq	e43fb8 <__bss_end__+0xe3a1f8>
    12c8:	18021349 	stmdane	r2, {r0, r3, r6, r8, r9, ip}
    12cc:	050b0000 	streq	r0, [fp, #-0]
    12d0:	3a080300 	bcc	201ed8 <__bss_end__+0x1f8118>
    12d4:	390b3b0b 	stmdbcc	fp, {r0, r1, r3, r8, r9, fp, ip, sp}
    12d8:	0213490b 	andseq	r4, r3, #180224	; 0x2c000
    12dc:	1742b717 	smlaldne	fp, r2, r7, r7
    12e0:	340c0000 	strcc	r0, [ip], #-0
    12e4:	3a080300 	bcc	201eec <__bss_end__+0x1f812c>
    12e8:	390b3b0b 	stmdbcc	fp, {r0, r1, r3, r8, r9, fp, ip, sp}
    12ec:	0213490b 	andseq	r4, r3, #180224	; 0x2c000
    12f0:	1742b717 	smlaldne	fp, r2, r7, r7
    12f4:	01000000 	mrseq	r0, (UNDEF: 0)
    12f8:	0e250111 	mcreq	1, 1, r0, cr5, cr1, {0}
    12fc:	0e030b13 	vmoveq.32	d3[0], r0
    1300:	01110e1b 	tsteq	r1, fp, lsl lr
    1304:	17100612 			; <UNDEFINED> instruction: 0x17100612
    1308:	24020000 	strcs	r0, [r2], #-0
    130c:	3e0b0b00 	vmlacc.f64	d0, d11, d0
    1310:	0008030b 	andeq	r0, r8, fp, lsl #6
    1314:	00240300 	eoreq	r0, r4, r0, lsl #6
    1318:	0b3e0b0b 	bleq	f83f4c <__bss_end__+0xf7a18c>
    131c:	00000e03 	andeq	r0, r0, r3, lsl #28
    1320:	27011504 	strcs	r1, [r1, -r4, lsl #10]
    1324:	01134919 	tsteq	r3, r9, lsl r9
    1328:	05000013 	streq	r0, [r0, #-19]	; 0xffffffed
    132c:	13490005 	movtne	r0, #36869	; 0x9005
    1330:	34060000 	strcc	r0, [r6], #-0
    1334:	3a0e0300 	bcc	381f3c <__bss_end__+0x37817c>
    1338:	390b3b0b 	stmdbcc	fp, {r0, r1, r3, r8, r9, fp, ip, sp}
    133c:	3f13490b 	svccc	0x0013490b
    1340:	00193c19 	andseq	r3, r9, r9, lsl ip
    1344:	000f0700 	andeq	r0, pc, r0, lsl #14
    1348:	13490b0b 	movtne	r0, #39691	; 0x9b0b
    134c:	26080000 	strcs	r0, [r8], -r0
    1350:	00134900 	andseq	r4, r3, r0, lsl #18
    1354:	012e0900 			; <UNDEFINED> instruction: 0x012e0900
    1358:	0e03193f 			; <UNDEFINED> instruction: 0x0e03193f
    135c:	0b3b0b3a 	bleq	ec404c <__bss_end__+0xeba28c>
    1360:	19270b39 	stmdbne	r7!, {r0, r3, r4, r5, r8, r9, fp}
    1364:	01111349 	tsteq	r1, r9, asr #6
    1368:	18400612 	stmdane	r0, {r1, r4, r9, sl}^
    136c:	00194297 	mulseq	r9, r7, r2
    1370:	00050a00 	andeq	r0, r5, r0, lsl #20
    1374:	0b3a0803 	bleq	e83388 <__bss_end__+0xe795c8>
    1378:	0b390b3b 	bleq	e4406c <__bss_end__+0xe3a2ac>
    137c:	17021349 	strne	r1, [r2, -r9, asr #6]
    1380:	001742b7 			; <UNDEFINED> instruction: 0x001742b7
    1384:	11010000 	mrsne	r0, (UNDEF: 1)
    1388:	130e2501 	movwne	r2, #58625	; 0xe501
    138c:	1b0e030b 	blne	381fc0 <__bss_end__+0x378200>
    1390:	1201110e 	andne	r1, r1, #-2147483645	; 0x80000003
    1394:	00171006 	andseq	r1, r7, r6
    1398:	00240200 	eoreq	r0, r4, r0, lsl #4
    139c:	0b3e0b0b 	bleq	f83fd0 <__bss_end__+0xf7a210>
    13a0:	00000803 	andeq	r0, r0, r3, lsl #16
    13a4:	0b002403 	bleq	a3b8 <__bss_end__+0x5f8>
    13a8:	030b3e0b 	movweq	r3, #48651	; 0xbe0b
    13ac:	0400000e 	streq	r0, [r0], #-14
    13b0:	19270115 	stmdbne	r7!, {r0, r2, r4, r8}
    13b4:	13011349 	movwne	r1, #4937	; 0x1349
    13b8:	05050000 	streq	r0, [r5, #-0]
    13bc:	00134900 	andseq	r4, r3, r0, lsl #18
    13c0:	00340600 	eorseq	r0, r4, r0, lsl #12
    13c4:	0b3a0e03 	bleq	e84bd8 <__bss_end__+0xe7ae18>
    13c8:	0b390b3b 	bleq	e440bc <__bss_end__+0xe3a2fc>
    13cc:	193f1349 	ldmdbne	pc!, {r0, r3, r6, r8, r9, ip}	; <UNPREDICTABLE>
    13d0:	0000193c 	andeq	r1, r0, ip, lsr r9
    13d4:	0b000f07 	bleq	4ff8 <__code_start__-0x3008>
    13d8:	0013490b 	andseq	r4, r3, fp, lsl #18
    13dc:	00260800 	eoreq	r0, r6, r0, lsl #16
    13e0:	00001349 	andeq	r1, r0, r9, asr #6
    13e4:	3f012e09 	svccc	0x00012e09
    13e8:	3a0e0319 	bcc	382054 <__bss_end__+0x378294>
    13ec:	390b3b0b 	stmdbcc	fp, {r0, r1, r3, r8, r9, fp, ip, sp}
    13f0:	4919270b 	ldmdbmi	r9, {r0, r1, r3, r8, r9, sl, sp}
    13f4:	12011113 	andne	r1, r1, #-1073741820	; 0xc0000004
    13f8:	97184006 	ldrls	r4, [r8, -r6]
    13fc:	13011942 	movwne	r1, #6466	; 0x1942
    1400:	050a0000 	streq	r0, [sl, #-0]
    1404:	3a080300 	bcc	20200c <__bss_end__+0x1f824c>
    1408:	390b3b0b 	stmdbcc	fp, {r0, r1, r3, r8, r9, fp, ip, sp}
    140c:	0213490b 	andseq	r4, r3, #180224	; 0x2c000
    1410:	0b000018 	bleq	1478 <__code_start__-0x6b88>
    1414:	08030005 	stmdaeq	r3, {r0, r2}
    1418:	0b3b0b3a 	bleq	ec4108 <__bss_end__+0xeba348>
    141c:	13490b39 	movtne	r0, #39737	; 0x9b39
    1420:	42b71702 	adcsmi	r1, r7, #524288	; 0x80000
    1424:	0c000017 	stceq	0, cr0, [r0], {23}
    1428:	08030034 	stmdaeq	r3, {r2, r4, r5}
    142c:	0b3b0b3a 	bleq	ec411c <__bss_end__+0xeba35c>
    1430:	13490b39 	movtne	r0, #39737	; 0x9b39
    1434:	42b71702 	adcsmi	r1, r7, #524288	; 0x80000
    1438:	00000017 	andeq	r0, r0, r7, lsl r0
    143c:	25011101 	strcs	r1, [r1, #-257]	; 0xfffffeff
    1440:	030b130e 	movweq	r1, #45838	; 0xb30e
    1444:	550e1b0e 	strpl	r1, [lr, #-2830]	; 0xfffff4f2
    1448:	10011117 	andne	r1, r1, r7, lsl r1
    144c:	02000017 	andeq	r0, r0, #23, 0
    1450:	0b0b0024 	bleq	2c14e8 <__bss_end__+0x2b7728>
    1454:	08030b3e 	stmdaeq	r3, {r1, r2, r3, r4, r5, r8, r9, fp}
    1458:	16030000 	strne	r0, [r3], -r0
    145c:	3a0e0300 	bcc	382064 <__bss_end__+0x3782a4>
    1460:	390b3b0b 	stmdbcc	fp, {r0, r1, r3, r8, r9, fp, ip, sp}
    1464:	0013490b 	andseq	r4, r3, fp, lsl #18
    1468:	00240400 	eoreq	r0, r4, r0, lsl #8
    146c:	0b3e0b0b 	bleq	f840a0 <__bss_end__+0xf7a2e0>
    1470:	00000e03 	andeq	r0, r0, r3, lsl #28
    1474:	49002605 	stmdbmi	r0, {r0, r2, r9, sl, sp}
    1478:	06000013 			; <UNDEFINED> instruction: 0x06000013
    147c:	19270115 	stmdbne	r7!, {r0, r2, r4, r8}
    1480:	13011349 	movwne	r1, #4937	; 0x1349
    1484:	05070000 	streq	r0, [r7, #-0]
    1488:	00134900 	andseq	r4, r3, r0, lsl #18
    148c:	00340800 	eorseq	r0, r4, r0, lsl #16
    1490:	0b3a0e03 	bleq	e84ca4 <__bss_end__+0xe7aee4>
    1494:	0b390b3b 	bleq	e44188 <__bss_end__+0xe3a3c8>
    1498:	193f1349 	ldmdbne	pc!, {r0, r3, r6, r8, r9, ip}	; <UNPREDICTABLE>
    149c:	0000193c 	andeq	r1, r0, ip, lsr r9
    14a0:	0b000f09 	bleq	50cc <__code_start__-0x2f34>
    14a4:	0013490b 	andseq	r4, r3, fp, lsl #18
    14a8:	012e0a00 			; <UNDEFINED> instruction: 0x012e0a00
    14ac:	0e03193f 			; <UNDEFINED> instruction: 0x0e03193f
    14b0:	0b3b0b3a 	bleq	ec41a0 <__bss_end__+0xeba3e0>
    14b4:	19270b39 	stmdbne	r7!, {r0, r3, r4, r5, r8, r9, fp}
    14b8:	01111349 	tsteq	r1, r9, asr #6
    14bc:	18400612 	stmdane	r0, {r1, r4, r9, sl}^
    14c0:	01194297 			; <UNDEFINED> instruction: 0x01194297
    14c4:	0b000013 	bleq	1518 <__code_start__-0x6ae8>
    14c8:	08030005 	stmdaeq	r3, {r0, r2}
    14cc:	0b3b0b3a 	bleq	ec41bc <__bss_end__+0xeba3fc>
    14d0:	13490b39 	movtne	r0, #39737	; 0x9b39
    14d4:	42b71702 	adcsmi	r1, r7, #524288	; 0x80000
    14d8:	0c000017 	stceq	0, cr0, [r0], {23}
    14dc:	08030034 	stmdaeq	r3, {r2, r4, r5}
    14e0:	0b3b0b3a 	bleq	ec41d0 <__bss_end__+0xeba410>
    14e4:	13490b39 	movtne	r0, #39737	; 0x9b39
    14e8:	42b71702 	adcsmi	r1, r7, #524288	; 0x80000
    14ec:	00000017 	andeq	r0, r0, r7, lsl r0
    14f0:	25011101 	strcs	r1, [r1, #-257]	; 0xfffffeff
    14f4:	030b130e 	movweq	r1, #45838	; 0xb30e
    14f8:	110e1b0e 	tstne	lr, lr, lsl #22
    14fc:	10061201 	andne	r1, r6, r1, lsl #4
    1500:	02000017 	andeq	r0, r0, #23, 0
    1504:	0b0b0024 	bleq	2c159c <__bss_end__+0x2b77dc>
    1508:	08030b3e 	stmdaeq	r3, {r1, r2, r3, r4, r5, r8, r9, fp}
    150c:	24030000 	strcs	r0, [r3], #-0
    1510:	3e0b0b00 	vmlacc.f64	d0, d11, d0
    1514:	000e030b 	andeq	r0, lr, fp, lsl #6
    1518:	01150400 	tsteq	r5, r0, lsl #8
    151c:	13491927 	movtne	r1, #39207	; 0x9927
    1520:	00001301 	andeq	r1, r0, r1, lsl #6
    1524:	49000505 	stmdbmi	r0, {r0, r2, r8, sl}
    1528:	06000013 			; <UNDEFINED> instruction: 0x06000013
    152c:	0e030034 	mcreq	0, 0, r0, cr3, cr4, {1}
    1530:	0b3b0b3a 	bleq	ec4220 <__bss_end__+0xeba460>
    1534:	13490b39 	movtne	r0, #39737	; 0x9b39
    1538:	193c193f 	ldmdbne	ip!, {r0, r1, r2, r3, r4, r5, r8, fp, ip}
    153c:	0f070000 	svceq	0x00070000
    1540:	490b0b00 	stmdbmi	fp, {r8, r9, fp}
    1544:	08000013 	stmdaeq	r0, {r0, r1, r4}
    1548:	13490026 	movtne	r0, #36902	; 0x9026
    154c:	2e090000 	cdpcs	0, 0, cr0, cr9, cr0, {0}
    1550:	03193f00 	tsteq	r9, #0, 30
    1554:	3b0b3a0e 	blcc	2cfd94 <__bss_end__+0x2c5fd4>
    1558:	270b390b 	strcs	r3, [fp, -fp, lsl #18]
    155c:	12011119 	andne	r1, r1, #1073741830	; 0x40000006
    1560:	97184006 	ldrls	r4, [r8, -r6]
    1564:	00001942 	andeq	r1, r0, r2, asr #18
	...

Disassembly of section .debug_loc:

00000000 <.debug_loc>:
       0:	000c0002 	andeq	r0, ip, r2
       4:	00140000 	andseq	r0, r4, r0
       8:	00020000 	andeq	r0, r2, r0
       c:	00009f30 	andeq	r9, r0, r0, lsr pc
	...
      18:	001c0000 	andseq	r0, ip, r0
      1c:	00200000 	eoreq	r0, r0, r0
      20:	00010000 	andeq	r0, r1, r0
      24:	00002050 	andeq	r2, r0, r0, asr r0
      28:	00002700 	andeq	r2, r0, r0, lsl #14
      2c:	52000100 	andpl	r0, r0, #0
	...
      38:	00000001 	andeq	r0, r0, r1
      3c:	00000180 	andeq	r0, r0, r0, lsl #3
      40:	00000184 	andeq	r0, r0, r4, lsl #3
      44:	9f300002 	svcls	0x00300002
      48:	0000018c 	andeq	r0, r0, ip, lsl #3
      4c:	0000019c 	muleq	r0, ip, r1
      50:	00500001 	subseq	r0, r0, r1
	...
      5c:	52522929 	subspl	r2, r2, #671744	; 0xa4000
      60:	01005555 	tsteq	r0, r5, asr r5
      64:	53532a2a 	cmppl	r3, #172032	; 0x2a000
      68:	00005555 	andeq	r5, r0, r5, asr r5
      6c:	52522929 	subspl	r2, r2, #671744	; 0xa4000
      70:	00005555 	andeq	r5, r0, r5, asr r5
      74:	2f2f0606 	svccs	0x002f0606
      78:	38383535 	ldmdacc	r8!, {r0, r2, r4, r5, r8, sl, ip, sp}
      7c:	06060000 	streq	r0, [r6], -r0
      80:	12120c0c 	andsne	r0, r2, #12, 24	; 0xc00
      84:	1b1b1818 	blne	6c60ec <__bss_end__+0x6bc32c>
      88:	0000a000 	andeq	sl, r0, r0
      8c:	0000a000 	andeq	sl, r0, r0
      90:	50000100 	andpl	r0, r0, r0, lsl #2
      94:	000000a0 	andeq	r0, r0, r0, lsr #1
      98:	000000a0 	andeq	r0, r0, r0, lsr #1
      9c:	00700008 	rsbseq	r0, r0, r8
      a0:	311af009 	tstcc	sl, r9	; <UNPREDICTABLE>
      a4:	00a09f21 	adceq	r9, r0, r1, lsr #30
      a8:	00a00000 	adceq	r0, r0, r0
      ac:	000b0000 	andeq	r0, fp, r0
      b0:	f00b0070 			; <UNDEFINED> instruction: 0xf00b0070
      b4:	010a1af9 	strdeq	r1, [sl, -r9]
      b8:	a09f2106 	addsge	r2, pc, r6, lsl #2
      bc:	a8000000 	stmdage	r0, {}	; <UNPREDICTABLE>
      c0:	0d000000 	stceq	0, cr0, [r0, #-0]
      c4:	0b007000 	bleq	1c0cc <__bss_end__+0x1230c>
      c8:	0c1af9f0 			; <UNDEFINED> instruction: 0x0c1af9f0
      cc:	5a000601 	bpl	18d8 <__code_start__-0x6728>
      d0:	00b89f21 	adcseq	r9, r8, r1, lsr #30
      d4:	00b80000 	adcseq	r0, r8, r0
      d8:	00020000 	andeq	r0, r2, r0
      dc:	00b89f30 	adcseq	r9, r8, r0, lsr pc
      e0:	00b80000 	adcseq	r0, r8, r0
      e4:	00040000 	andeq	r0, r4, r0
      e8:	9f60000a 	svcls	0x0060000a
      ec:	000000b8 	strheq	r0, [r0], -r8
      f0:	000000b8 	strheq	r0, [r0], -r8
      f4:	d80a0004 	stmdale	sl, {r2}
      f8:	00b89f6c 	adcseq	r9, r8, ip, ror #30
      fc:	00d00000 	sbcseq	r0, r0, r0
     100:	00060000 	andeq	r0, r6, r0
     104:	006cd80c 	rsbeq	sp, ip, ip, lsl #16
     108:	00d09f5a 	sbcseq	r9, r0, sl, asr pc
     10c:	00d00000 	sbcseq	r0, r0, r0
     110:	00010000 	andeq	r0, r1, r0
     114:	0000d050 	andeq	sp, r0, r0, asr r0
     118:	0000d000 	andeq	sp, r0, r0
     11c:	70000c00 	andvc	r0, r0, r0, lsl #24
     120:	87ff1100 	ldrbhi	r1, [pc, r0, lsl #2]!
     124:	000a1a40 	andeq	r1, sl, r0, asr #20
     128:	d09f21fc 			; <UNDEFINED> instruction: 0xd09f21fc
     12c:	d0000000 	andle	r0, r0, r0
     130:	0c000000 	stceq	0, cr0, [r0], {-0}
     134:	11007000 	mrsne	r7, (UNDEF: 0)
     138:	1a408080 	bne	1020340 <__bss_end__+0x1016580>
     13c:	21fc200a 	mvnscs	r2, sl
     140:	0000d09f 	muleq	r0, pc, r0	; <UNPREDICTABLE>
     144:	0000d800 	andeq	sp, r0, r0, lsl #16
     148:	70000e00 	andvc	r0, r0, r0, lsl #28
     14c:	80801100 	addhi	r1, r0, r0, lsl #2
     150:	200c1a40 	andcs	r1, ip, r0, asr #20
     154:	215a00fc 	ldrshcs	r0, [sl, #-12]
     158:	0000f09f 	muleq	r0, pc, r0	; <UNPREDICTABLE>
     15c:	0000f000 	andeq	pc, r0, r0
     160:	50000100 	andpl	r0, r0, r0, lsl #2
     164:	000000f0 	strdeq	r0, [r0], -r0	; <UNPREDICTABLE>
     168:	000000f0 	strdeq	r0, [r0], -r0	; <UNPREDICTABLE>
     16c:	00700007 	rsbseq	r0, r0, r7
     170:	21244a40 			; <UNDEFINED> instruction: 0x21244a40
     174:	0000f09f 	muleq	r0, pc, r0	; <UNPREDICTABLE>
     178:	0000f000 	andeq	pc, r0, r0
     17c:	70000e00 	andvc	r0, r0, r0, lsl #28
     180:	ffff1100 			; <UNDEFINED> instruction: 0xffff1100
     184:	000c1a43 	andeq	r1, ip, r3, asr #20
     188:	21400800 	cmpcs	r0, r0, lsl #16
     18c:	0000f09f 	muleq	r0, pc, r0	; <UNPREDICTABLE>
     190:	0000f000 	andeq	pc, r0, r0
     194:	70000f00 	andvc	r0, r0, r0, lsl #30
     198:	ffff1100 			; <UNDEFINED> instruction: 0xffff1100
     19c:	80111a43 	andshi	r1, r1, r3, asr #20
     1a0:	7c80a080 	stcvc	0, cr10, [r0], {128}	; 0x80
     1a4:	00f09f21 	rscseq	r9, r0, r1, lsr #30
     1a8:	01000000 	mrseq	r0, (UNDEF: 0)
     1ac:	000f0000 	andeq	r0, pc, r0
     1b0:	ff110070 			; <UNDEFINED> instruction: 0xff110070
     1b4:	111a43ff 			; <UNDEFINED> instruction: 0x111a43ff
     1b8:	d0a08080 	adcle	r8, r0, r0, lsl #1
     1bc:	0c9f217d 	ldfeqs	f2, [pc], {125}	; 0x7d
     1c0:	0c000001 	stceq	0, cr0, [r0], {1}
     1c4:	01000001 	tsteq	r0, r1
     1c8:	010c5000 	mrseq	r5, (UNDEF: 12)
     1cc:	010c0000 	mrseq	r0, (UNDEF: 12)
     1d0:	00050000 	andeq	r0, r5, r0
     1d4:	21310070 	teqcs	r1, r0, ror r0
     1d8:	00010c9f 	muleq	r1, pc, ip	; <UNPREDICTABLE>
     1dc:	00010c00 	andeq	r0, r1, r0, lsl #24
     1e0:	70000900 	andvc	r0, r0, r0, lsl #18
     1e4:	00010c00 	andeq	r0, r1, r0, lsl #24
     1e8:	9f210200 	svcls	0x00210200
     1ec:	0000010c 	andeq	r0, r0, ip, lsl #2
     1f0:	0000010c 	andeq	r0, r0, ip, lsl #2
     1f4:	00700009 	rsbseq	r0, r0, r9
     1f8:	0000110c 	andeq	r1, r0, ip, lsl #2
     1fc:	0c9f2102 	ldfeqs	f2, [pc], {2}
     200:	0c000001 	stceq	0, cr0, [r0], {1}
     204:	09000001 	stmdbeq	r0, {r0}
     208:	0c007000 	stceq	0, cr7, [r0], {-0}
     20c:	02000013 	andeq	r0, r0, #19, 0
     210:	010c9f21 	tsteq	ip, r1, lsr #30
     214:	01180000 	tsteq	r8, r0
     218:	00090000 	andeq	r0, r9, r0
     21c:	130c0070 	movwne	r0, #49264	; 0xc070
     220:	215a0000 	cmpcs	sl, r0
     224:	0000009f 	muleq	r0, pc, r0	; <UNPREDICTABLE>
     228:	00000000 	andeq	r0, r0, r0
     22c:	a0555300 	subsge	r5, r5, r0, lsl #6
     230:	a0000000 	andge	r0, r0, r0
     234:	0b000000 	bleq	23c <__code_start__-0x7dc4>
     238:	0b007000 	bleq	1c240 <__bss_end__+0x12480>
     23c:	0a1af9f0 	beq	6bea04 <__bss_end__+0x6b4c44>
     240:	9f210601 	svcls	0x00210601
	...
     24c:	00d05553 	sbcseq	r5, r0, r3, asr r5
     250:	00d00000 	sbcseq	r0, r0, r0
     254:	000c0000 	andeq	r0, ip, r0
     258:	80110070 	andshi	r0, r1, r0, ror r0
     25c:	0a1a4080 	beq	690464 <__bss_end__+0x6866a4>
     260:	9f21fc20 	svcls	0x0021fc20
	...
     26c:	00f03836 	rscseq	r3, r0, r6, lsr r8
     270:	00f00000 	rscseq	r0, r0, r0
     274:	000f0000 	andeq	r0, pc, r0
     278:	ff110070 			; <UNDEFINED> instruction: 0xff110070
     27c:	111a43ff 			; <UNDEFINED> instruction: 0x111a43ff
     280:	80a08080 	adchi	r8, r0, r0, lsl #1
     284:	009f217c 	addseq	r2, pc, ip, ror r1	; <UNPREDICTABLE>
     288:	00000000 	andeq	r0, r0, r0
     28c:	19000000 	stmdbne	r0, {}	; <UNPREDICTABLE>
     290:	00010c1b 	andeq	r0, r1, fp, lsl ip
     294:	00010c00 	andeq	r0, r1, r0, lsl #24
     298:	70000900 	andvc	r0, r0, r0, lsl #18
     29c:	00130c00 	andseq	r0, r3, r0, lsl #24
     2a0:	9f210200 	svcls	0x00210200
	...
     2ac:	00000001 	andeq	r0, r0, r1
     2b0:	00380000 	eorseq	r0, r8, r0
     2b4:	00060000 	andeq	r0, r6, r0
     2b8:	0006a4fa 	strdeq	sl, [r6], -sl	; <UNPREDICTABLE>
     2bc:	00009f00 	andeq	r9, r0, r0, lsl #30
     2c0:	00000000 	andeq	r0, r0, r0
     2c4:	00010000 	andeq	r0, r1, r0
     2c8:	00000000 	andeq	r0, r0, r0
     2cc:	00000038 	andeq	r0, r0, r8, lsr r0
     2d0:	99fa0006 	ldmibls	sl!, {r1, r2}^
     2d4:	9f000006 	svcls	0x00000006
	...
     2e0:	00000001 	andeq	r0, r0, r1
     2e4:	00380000 	eorseq	r0, r8, r0
     2e8:	00060000 	andeq	r0, r6, r0
     2ec:	00068efa 	strdeq	r8, [r6], -sl
     2f0:	00009f00 	andeq	r9, r0, r0, lsl #30
     2f4:	00000000 	andeq	r0, r0, r0
     2f8:	00010000 	andeq	r0, r1, r0
     2fc:	00000000 	andeq	r0, r0, r0
     300:	00000038 	andeq	r0, r0, r8, lsr r0
     304:	84fa0006 	ldrbthi	r0, [sl], #6
     308:	9f000006 	svcls	0x00000006
	...
     318:	00000038 	andeq	r0, r0, r8, lsr r0
     31c:	0000003c 	andeq	r0, r0, ip, lsr r0
     320:	3c500001 	mrrccc	0, 0, r0, r0, cr1	; <UNPREDICTABLE>
     324:	40000000 	andmi	r0, r0, r0
     328:	04000000 	streq	r0, [r0], #-0
     32c:	5001f300 	andpl	pc, r1, r0, lsl #6
     330:	0000009f 	muleq	r0, pc, r0	; <UNPREDICTABLE>
	...
     33c:	0000dc00 	andeq	sp, r0, r0, lsl #24
     340:	0000f000 	andeq	pc, r0, r0
     344:	50000100 	andpl	r0, r0, r0, lsl #2
     348:	000000f0 	strdeq	r0, [r0], -r0	; <UNPREDICTABLE>
     34c:	00000104 	andeq	r0, r0, r4, lsl #2
     350:	01f30004 	mvnseq	r0, r4
     354:	00009f50 	andeq	r9, r0, r0, asr pc
	...
     360:	00dc0000 	sbcseq	r0, ip, r0
     364:	00ec0000 	rsceq	r0, ip, r0
     368:	00010000 	andeq	r0, r1, r0
     36c:	0000ec51 	andeq	lr, r0, r1, asr ip
     370:	00010400 	andeq	r0, r1, r0, lsl #8
     374:	f3000400 	vshl.u8	d0, d0, d0
     378:	009f5101 	addseq	r5, pc, r1, lsl #2
	...
     384:	dc000000 	stcle	0, cr0, [r0], {-0}
     388:	e8000000 	stmda	r0, {}	; <UNPREDICTABLE>
     38c:	01000000 	mrseq	r0, (UNDEF: 0)
     390:	00e85200 	rsceq	r5, r8, r0, lsl #4
     394:	01040000 	mrseq	r0, (UNDEF: 4)
     398:	00040000 	andeq	r0, r4, r0
     39c:	9f5201f3 	svcls	0x005201f3
	...
     3b8:	0000009c 	muleq	r0, ip, r0
     3bc:	9c500001 	mrrcls	0, 0, r0, r0, cr1	; <UNPREDICTABLE>
     3c0:	a4000000 	strge	r0, [r0], #-0
     3c4:	04000000 	streq	r0, [r0], #-0
     3c8:	5001f300 	andpl	pc, r1, r0, lsl #6
     3cc:	0000a49f 	muleq	r0, pc, r4	; <UNPREDICTABLE>
     3d0:	0000a800 	andeq	sl, r0, r0, lsl #16
     3d4:	50000100 	andpl	r0, r0, r0, lsl #2
     3d8:	000000a8 	andeq	r0, r0, r8, lsr #1
     3dc:	000000ac 	andeq	r0, r0, ip, lsr #1
     3e0:	01f30004 	mvnseq	r0, r4
     3e4:	00ac9f50 	adceq	r9, ip, r0, asr pc
     3e8:	00bc0000 	adcseq	r0, ip, r0
     3ec:	00010000 	andeq	r0, r1, r0
     3f0:	0000bc50 	andeq	fp, r0, r0, asr ip
     3f4:	0000dc00 	andeq	sp, r0, r0, lsl #24
     3f8:	f3000400 	vshl.u8	d0, d0, d0
     3fc:	009f5001 	addseq	r5, pc, r1
	...
     410:	98000000 	stmdals	r0, {}	; <UNPREDICTABLE>
     414:	01000000 	mrseq	r0, (UNDEF: 0)
     418:	00985100 	addseq	r5, r8, r0, lsl #2
     41c:	00a40000 	adceq	r0, r4, r0
     420:	00040000 	andeq	r0, r4, r0
     424:	9f5101f3 	svcls	0x005101f3
     428:	000000a4 	andeq	r0, r0, r4, lsr #1
     42c:	000000b8 	strheq	r0, [r0], -r8
     430:	b8510001 	ldmdalt	r1, {r0}^
     434:	dc000000 	stcle	0, cr0, [r0], {-0}
     438:	04000000 	streq	r0, [r0], #-0
     43c:	5101f300 	mrspl	pc, SP_irq	; <UNPREDICTABLE>
     440:	0000009f 	muleq	r0, pc, r0	; <UNPREDICTABLE>
	...
     454:	00002c00 	andeq	r2, r0, r0, lsl #24
     458:	52000100 	andpl	r0, r0, #0
     45c:	0000002c 	andeq	r0, r0, ip, lsr #32
     460:	000000a4 	andeq	r0, r0, r4, lsr #1
     464:	01f30004 	mvnseq	r0, r4
     468:	00a49f52 	adceq	r9, r4, r2, asr pc
     46c:	00b40000 	adcseq	r0, r4, r0
     470:	00010000 	andeq	r0, r1, r0
     474:	0000b452 	andeq	fp, r0, r2, asr r4
     478:	0000dc00 	andeq	sp, r0, r0, lsl #24
     47c:	f3000400 	vshl.u8	d0, d0, d0
     480:	009f5201 	addseq	r5, pc, r1, lsl #4
	...
     494:	2c000000 	stccs	0, cr0, [r0], {-0}
     498:	01000000 	mrseq	r0, (UNDEF: 0)
     49c:	002c5300 	eoreq	r5, ip, r0, lsl #6
     4a0:	00a40000 	adceq	r0, r4, r0
     4a4:	00040000 	andeq	r0, r4, r0
     4a8:	9f5301f3 	svcls	0x005301f3
     4ac:	000000a4 	andeq	r0, r0, r4, lsr #1
     4b0:	000000b0 	strheq	r0, [r0], -r0	; <UNPREDICTABLE>
     4b4:	b0530001 	subslt	r0, r3, r1
     4b8:	dc000000 	stcle	0, cr0, [r0], {-0}
     4bc:	04000000 	streq	r0, [r0], #-0
     4c0:	5301f300 	movwpl	pc, #4864	; 0x1300	; <UNPREDICTABLE>
     4c4:	0000009f 	muleq	r0, pc, r0	; <UNPREDICTABLE>
     4c8:	00000000 	andeq	r0, r0, r0
     4cc:	0c000000 	stceq	0, cr0, [r0], {-0}
     4d0:	dc000000 	stcle	0, cr0, [r0], {-0}
     4d4:	01000000 	mrseq	r0, (UNDEF: 0)
     4d8:	00005700 	andeq	r5, r0, r0, lsl #14
	...
     4e4:	0000008c 	andeq	r0, r0, ip, lsl #1
     4e8:	000000a4 	andeq	r0, r0, r4, lsr #1
     4ec:	9f300002 	svcls	0x00300002
	...
     500:	00000014 	andeq	r0, r0, r4, lsl r0
     504:	0000002c 	andeq	r0, r0, ip, lsr #32
     508:	9f300002 	svcls	0x00300002
     50c:	0000002c 	andeq	r0, r0, ip, lsr #32
     510:	00000048 	andeq	r0, r0, r8, asr #32
     514:	4c5c0001 	mrrcmi	0, 0, r0, ip, cr1
     518:	9f000000 	svcls	0x00000000
     51c:	01000000 	mrseq	r0, (UNDEF: 0)
     520:	00a45c00 	adceq	r5, r4, r0, lsl #24
     524:	00ac0000 	adceq	r0, ip, r0
     528:	00020000 	andeq	r0, r2, r0
     52c:	00009f30 	andeq	r9, r0, r0, lsr pc
	...
     538:	0000008c 	andeq	r0, r0, ip, lsl #1
     53c:	000000a4 	andeq	r0, r0, r4, lsr #1
     540:	9f310002 	svcls	0x00310002
	...
     550:	00140000 	andseq	r0, r4, r0
     554:	002c0000 	eoreq	r0, ip, r0
     558:	00020000 	andeq	r0, r2, r0
     55c:	002c9f31 	eoreq	r9, ip, r1, lsr pc
     560:	00a40000 	adceq	r0, r4, r0
     564:	00010000 	andeq	r0, r1, r0
     568:	0000a454 	andeq	sl, r0, r4, asr r4
     56c:	0000ac00 	andeq	sl, r0, r0, lsl #24
     570:	31000200 	mrscc	r0, R8_usr
     574:	0000009f 	muleq	r0, pc, r0	; <UNPREDICTABLE>
	...
     580:	00003000 	andeq	r3, r0, r0
     584:	00005800 	andeq	r5, r0, r0, lsl #16
     588:	53000100 	movwpl	r0, #256	; 0x100
     58c:	00000058 	andeq	r0, r0, r8, asr r0
     590:	00000060 	andeq	r0, r0, r0, rrx
     594:	01720003 	cmneq	r2, r3
     598:	0000009f 	muleq	r0, pc, r0	; <UNPREDICTABLE>
	...
     5a4:	00006000 	andeq	r6, r0, r0
     5a8:	00006c00 	andeq	r6, r0, r0, lsl #24
     5ac:	52000100 	andpl	r0, r0, #0
     5b0:	0000006c 	andeq	r0, r0, ip, rrx
     5b4:	00000074 	andeq	r0, r0, r4, ror r0
     5b8:	00700005 	rsbseq	r0, r0, r5
     5bc:	00220073 	eoreq	r0, r2, r3, ror r0
	...
     5c8:	00006c00 	andeq	r6, r0, r0, lsl #24
     5cc:	00007800 	andeq	r7, r0, r0, lsl #16
     5d0:	52000100 	andpl	r0, r0, #0
	...
     5dc:	008c0403 	addeq	r0, ip, r3, lsl #8
     5e0:	008c0000 	addeq	r0, ip, r0
     5e4:	00020000 	andeq	r0, r2, r0
     5e8:	00009f31 	andeq	r9, r0, r1, lsr pc
     5ec:	00000000 	andeq	r0, r0, r0
     5f0:	00050000 	andeq	r0, r5, r0
     5f4:	0000008c 	andeq	r0, r0, ip, lsl #1
     5f8:	000000a4 	andeq	r0, r0, r4, lsr #1
     5fc:	9f320002 	svcls	0x00320002
	...
     608:	008c0007 	addeq	r0, ip, r7
     60c:	00a40000 	adceq	r0, r4, r0
     610:	00020000 	andeq	r0, r2, r0
     614:	00009f30 	andeq	r9, r0, r0, lsr pc
     618:	00000000 	andeq	r0, r0, r0
     61c:	11090000 	mrsne	r0, (UNDEF: 9)
     620:	008c0011 	addeq	r0, ip, r1, lsl r0
     624:	008c0000 	addeq	r0, ip, r0
     628:	00020000 	andeq	r0, r2, r0
     62c:	008c9f30 	addeq	r9, ip, r0, lsr pc
     630:	00a40000 	adceq	r0, r4, r0
     634:	00020000 	andeq	r0, r2, r0
     638:	00009f31 	andeq	r9, r0, r1, lsr pc
     63c:	00000000 	andeq	r0, r0, r0
     640:	0d0a0000 	stceq	0, cr0, [sl, #-0]
     644:	0000008c 	andeq	r0, r0, ip, lsl #1
     648:	0000008c 	andeq	r0, r0, ip, lsl #1
     64c:	b8030005 	stmdalt	r3, {r0, r2}
     650:	00000095 	muleq	r0, r5, r0
     654:	00000000 	andeq	r0, r0, r0
     658:	0b000000 	bleq	660 <__code_start__-0x79a0>
     65c:	00008c0c 	andeq	r8, r0, ip, lsl #24
     660:	00008c00 	andeq	r8, r0, r0, lsl #24
     664:	03000900 	movweq	r0, #2304	; 0x900
     668:	000093b8 			; <UNDEFINED> instruction: 0x000093b8
     66c:	9f1f0294 	svcls	0x001f0294
	...
     678:	008c000f 	addeq	r0, ip, pc
     67c:	00a40000 	adceq	r0, r4, r0
     680:	00020000 	andeq	r0, r2, r0
     684:	00009f30 	andeq	r9, r0, r0, lsr pc
     688:	00000000 	andeq	r0, r0, r0
     68c:	00130000 	andseq	r0, r3, r0
     690:	008c0000 	addeq	r0, ip, r0
     694:	009c0000 	addseq	r0, ip, r0
     698:	00020000 	andeq	r0, r2, r0
     69c:	009c0270 	addseq	r0, ip, r0, ror r2
     6a0:	009f0000 	addseq	r0, pc, r0
     6a4:	00050000 	andeq	r0, r5, r0
     6a8:	235001f3 	cmpcs	r0, #-1073741764	; 0xc000003c
     6ac:	00000002 	andeq	r0, r0, r2
     6b0:	00000000 	andeq	r0, r0, r0
     6b4:	00001500 	andeq	r1, r0, r0, lsl #10
     6b8:	00008c00 	andeq	r8, r0, r0, lsl #24
     6bc:	00009c00 	andeq	r9, r0, r0, lsl #24
     6c0:	70000200 	andvc	r0, r0, r0, lsl #4
     6c4:	00009c02 	andeq	r9, r0, r2, lsl #24
     6c8:	00009f00 	andeq	r9, r0, r0, lsl #30
     6cc:	f3000500 	vrshl.u8	d0, d0, d0
     6d0:	02235001 	eoreq	r5, r3, #1, 0
	...
     6e0:	002c0000 	eoreq	r0, ip, r0
     6e4:	00380000 	eorseq	r0, r8, r0
     6e8:	00010000 	andeq	r0, r1, r0
     6ec:	00003850 	andeq	r3, r0, r0, asr r8
     6f0:	00004800 	andeq	r4, r0, r0, lsl #16
     6f4:	54000100 	strpl	r0, [r0], #-256	; 0xffffff00
     6f8:	00000048 	andeq	r0, r0, r8, asr #32
     6fc:	00000058 	andeq	r0, r0, r8, asr r0
     700:	00500001 	subseq	r0, r0, r1
	...
     70c:	00000101 	andeq	r0, r0, r1, lsl #2
     710:	08000000 	stmdaeq	r0, {}	; <UNPREDICTABLE>
     714:	01000000 	mrseq	r0, (UNDEF: 0)
     718:	00085000 	andeq	r5, r8, r0
     71c:	00340000 	eorseq	r0, r4, r0
     720:	00010000 	andeq	r0, r1, r0
     724:	00000054 	andeq	r0, r0, r4, asr r0
	...
     730:	88000000 	stmdahi	r0, {}	; <UNPREDICTABLE>
     734:	b8000002 	stmdalt	r0, {r1}
     738:	01000002 	tsteq	r0, r2
     73c:	02b85000 	adcseq	r5, r8, #0, 0
     740:	07040000 	streq	r0, [r4, -r0]
     744:	00010000 	andeq	r0, r1, r0
     748:	00070459 	andeq	r0, r7, r9, asr r4
     74c:	00074000 	andeq	r4, r7, r0
     750:	f3000400 	vshl.u8	d0, d0, d0
     754:	009f5001 	addseq	r5, pc, r1
	...
     764:	00028800 	andeq	r8, r2, r0, lsl #16
     768:	0002a000 	andeq	sl, r2, r0
     76c:	51000100 	mrspl	r0, (UNDEF: 16)
     770:	000002a0 	andeq	r0, r0, r0, lsr #5
     774:	000002b8 			; <UNDEFINED> instruction: 0x000002b8
     778:	01710003 	cmneq	r1, r3
     77c:	0002b89f 	muleq	r2, pc, r8	; <UNPREDICTABLE>
     780:	00074000 	andeq	r4, r7, r0
     784:	f3000400 	vshl.u8	d0, d0, d0
     788:	009f5101 	addseq	r5, pc, r1, lsl #2
	...
     79c:	88000000 	stmdahi	r0, {}	; <UNPREDICTABLE>
     7a0:	b8000002 	stmdalt	r0, {r1}
     7a4:	01000002 	tsteq	r0, r2
     7a8:	02b85200 	adcseq	r5, r8, #0, 4
     7ac:	03ec0000 	mvneq	r0, #0, 0
     7b0:	00010000 	andeq	r0, r1, r0
     7b4:	0003ec56 	andeq	lr, r3, r6, asr ip
     7b8:	0004b800 	andeq	fp, r4, r0, lsl #16
     7bc:	5b000100 	blpl	bc4 <__code_start__-0x743c>
     7c0:	000004b8 			; <UNDEFINED> instruction: 0x000004b8
     7c4:	000004d8 	ldrdeq	r0, [r0], -r8
     7c8:	d8560001 	ldmdale	r6, {r0}^
     7cc:	5c000004 	stcpl	0, cr0, [r0], {4}
     7d0:	01000005 	tsteq	r0, r5
     7d4:	055c5b00 	ldrbeq	r5, [ip, #-2816]	; 0xfffff500
     7d8:	07040000 	streq	r0, [r4, -r0]
     7dc:	00010000 	andeq	r0, r1, r0
     7e0:	00000056 	andeq	r0, r0, r6, asr r0
     7e4:	00000000 	andeq	r0, r0, r0
     7e8:	00000100 	andeq	r0, r0, r0, lsl #2
     7ec:	00000000 	andeq	r0, r0, r0
     7f0:	00000101 	andeq	r0, r0, r1, lsl #2
     7f4:	00000000 	andeq	r0, r0, r0
     7f8:	00000202 	andeq	r0, r0, r2, lsl #4
     7fc:	00029c00 	andeq	r9, r2, r0, lsl #24
     800:	0002b800 	andeq	fp, r2, r0, lsl #16
     804:	50000100 	andpl	r0, r0, r0, lsl #2
     808:	000002b8 			; <UNDEFINED> instruction: 0x000002b8
     80c:	000002bc 			; <UNDEFINED> instruction: 0x000002bc
     810:	bc540001 	mrrclt	0, 0, r0, r4, cr1
     814:	c0000002 	andgt	r0, r0, r2
     818:	03000002 	movweq	r0, #2
     81c:	9f017400 	svcls	0x00017400
     820:	000002c0 	andeq	r0, r0, r0, asr #5
     824:	000002e4 	andeq	r0, r0, r4, ror #5
     828:	e4540001 	ldrb	r0, [r4], #-1
     82c:	e8000002 	stmda	r0, {r1}
     830:	03000002 	movweq	r0, #2
     834:	9f017400 	svcls	0x00017400
     838:	000002e8 	andeq	r0, r0, r8, ror #5
     83c:	000006d4 	ldrdeq	r0, [r0], -r4
     840:	d4540001 	ldrble	r0, [r4], #-1
     844:	d8000006 	stmdale	r0, {r1, r2}
     848:	03000006 	movweq	r0, #6
     84c:	9f017400 	svcls	0x00017400
     850:	000006d8 	ldrdeq	r0, [r0], -r8
     854:	000006f0 	strdeq	r0, [r0], -r0	; <UNPREDICTABLE>
     858:	f0540001 			; <UNDEFINED> instruction: 0xf0540001
     85c:	f8000006 			; <UNDEFINED> instruction: 0xf8000006
     860:	03000006 	movweq	r0, #6
     864:	9f017400 	svcls	0x00017400
     868:	000006f8 	strdeq	r0, [r0], -r8
     86c:	00000704 	andeq	r0, r0, r4, lsl #14
     870:	00540001 	subseq	r0, r4, r1
	...
     87c:	a4000000 	strge	r0, [r0], #-0
     880:	04000002 	streq	r0, [r0], #-2
     884:	01000007 	tsteq	r0, r7
     888:	07045800 	streq	r5, [r4, -r0, lsl #16]
     88c:	07400000 	strbeq	r0, [r0, -r0]
     890:	000a0000 	andeq	r0, sl, r0
     894:	f35101f3 	vbsl	q8, <illegal reg q8.5>, <illegal reg q9.5>
     898:	31225001 			; <UNDEFINED> instruction: 0x31225001
     89c:	00009f1c 	andeq	r9, r0, ip, lsl pc
     8a0:	00000000 	andeq	r0, r0, r0
     8a4:	00010000 	andeq	r0, r1, r0
     8a8:	00000000 	andeq	r0, r0, r0
     8ac:	00000408 	andeq	r0, r0, r8, lsl #8
     8b0:	00000474 	andeq	r0, r0, r4, ror r4
     8b4:	d8570001 	ldmdale	r7, {r0}^
     8b8:	fc000004 	stc2	0, cr0, [r0], {4}
     8bc:	01000004 	tsteq	r0, r4
     8c0:	05405700 	strbeq	r5, [r0, #-1792]	; 0xfffff900
     8c4:	055c0000 	ldrbeq	r0, [ip, #-0]
     8c8:	00010000 	andeq	r0, r1, r0
     8cc:	00000057 	andeq	r0, r0, r7, asr r0
     8d0:	00000000 	andeq	r0, r0, r0
     8d4:	00000200 	andeq	r0, r0, r0, lsl #4
     8d8:	00040800 	andeq	r0, r4, r0, lsl #16
     8dc:	0004b800 	andeq	fp, r4, r0, lsl #16
     8e0:	5a000100 	bpl	ce8 <__code_start__-0x7318>
     8e4:	000004d8 	ldrdeq	r0, [r0], -r8
     8e8:	0000055c 	andeq	r0, r0, ip, asr r5
     8ec:	005a0001 	subseq	r0, sl, r1
     8f0:	00000000 	andeq	r0, r0, r0
     8f4:	01000000 	mrseq	r0, (UNDEF: 0)
     8f8:	ac000000 	stcge	0, cr0, [r0], {-0}
     8fc:	b8000002 	stmdalt	r0, {r1}
     900:	01000002 	tsteq	r0, r2
     904:	02b85200 	adcseq	r5, r8, #0, 4
     908:	07400000 	strbeq	r0, [r0, -r0]
     90c:	00030000 	andeq	r0, r3, r0
     910:	007dc891 			; <UNDEFINED> instruction: 0x007dc891
	...
     924:	00000101 	andeq	r0, r0, r1, lsl #2
	...
     930:	00047400 	andeq	r7, r4, r0, lsl #8
     934:	00048c00 	andeq	r8, r4, r0, lsl #24
     938:	50000100 	andpl	r0, r0, r0, lsl #2
     93c:	0000048c 	andeq	r0, r0, ip, lsl #9
     940:	000004b8 			; <UNDEFINED> instruction: 0x000004b8
     944:	fc570001 	mrrc2	0, 0, r0, r7, cr1
     948:	14000004 	strne	r0, [r0], #-4
     94c:	01000005 	tsteq	r0, r5
     950:	05145000 	ldreq	r5, [r4, #-0]
     954:	05400000 	strbeq	r0, [r0, #-0]
     958:	00010000 	andeq	r0, r1, r0
     95c:	0005a457 	andeq	sl, r5, r7, asr r4
     960:	0005a400 	andeq	sl, r5, r0, lsl #8
     964:	50000100 	andpl	r0, r0, r0, lsl #2
     968:	000005a4 	andeq	r0, r0, r4, lsr #11
     96c:	000005ac 	andeq	r0, r0, ip, lsr #11
     970:	dc570001 	mrrcle	0, 0, r0, r7, cr1
     974:	e0000005 	and	r0, r0, r5
     978:	01000005 	tsteq	r0, r5
     97c:	06105000 	ldreq	r5, [r0], -r0
     980:	06140000 	ldreq	r0, [r4], -r0
     984:	00010000 	andeq	r0, r1, r0
     988:	00064450 	andeq	r4, r6, r0, asr r4
     98c:	00064800 	andeq	r4, r6, r0, lsl #16
     990:	50000100 	andpl	r0, r0, r0, lsl #2
     994:	0000068c 	andeq	r0, r0, ip, lsl #13
     998:	00000690 	muleq	r0, r0, r6
     99c:	d0500001 	subsle	r0, r0, r1
     9a0:	f0000006 			; <UNDEFINED> instruction: 0xf0000006
     9a4:	01000006 	tsteq	r0, r6
     9a8:	00005700 	andeq	r5, r0, r0, lsl #14
     9ac:	00000000 	andeq	r0, r0, r0
     9b0:	00020000 	andeq	r0, r2, r0
     9b4:	00000000 	andeq	r0, r0, r0
     9b8:	000002f4 	strdeq	r0, [r0], -r4
     9bc:	000002f8 	strdeq	r0, [r0], -r8
     9c0:	9f300002 	svcls	0x00300002
     9c4:	000002f8 	strdeq	r0, [r0], -r8
     9c8:	00000314 	andeq	r0, r0, r4, lsl r3
     9cc:	1c550001 	mrrcne	0, 0, r0, r5, cr1
     9d0:	f0000003 			; <UNDEFINED> instruction: 0xf0000003
     9d4:	01000006 	tsteq	r0, r6
     9d8:	00005500 	andeq	r5, r0, r0, lsl #10
     9dc:	00000000 	andeq	r0, r0, r0
     9e0:	00010000 	andeq	r0, r1, r0
	...
     9ec:	000003b8 			; <UNDEFINED> instruction: 0x000003b8
     9f0:	00000454 	andeq	r0, r0, r4, asr r4
     9f4:	54560001 	ldrbpl	r0, [r6], #-1
     9f8:	b8000004 	stmdalt	r0, {r2}
     9fc:	03000004 	movweq	r0, #4
     a00:	9f7e7b00 	svcls	0x007e7b00
     a04:	000004b8 			; <UNDEFINED> instruction: 0x000004b8
     a08:	000004dc 	ldrdeq	r0, [r0], -ip
     a0c:	dc560001 	mrrcle	0, 0, r0, r6, cr1
     a10:	40000004 	andmi	r0, r0, r4
     a14:	03000005 	movweq	r0, #5
     a18:	9f7e7b00 	svcls	0x007e7b00
     a1c:	00000540 	andeq	r0, r0, r0, asr #10
     a20:	0000055c 	andeq	r0, r0, ip, asr r5
     a24:	00560001 	subseq	r0, r6, r1
	...
     a34:	00007000 	andeq	r7, r0, r0
     a38:	00009400 	andeq	r9, r0, r0, lsl #8
     a3c:	50000100 	andpl	r0, r0, r0, lsl #2
     a40:	00000094 	muleq	r0, r4, r0
     a44:	000000fc 	strdeq	r0, [r0], -ip
     a48:	02700003 	rsbseq	r0, r0, #3, 0
     a4c:	0000fc9f 	muleq	r0, pc, ip	; <UNPREDICTABLE>
     a50:	00022400 	andeq	r2, r2, r0, lsl #8
     a54:	f3000400 	vshl.u8	d0, d0, d0
     a58:	009f5001 	addseq	r5, pc, r1
	...
     a70:	70000000 	andvc	r0, r0, r0
     a74:	e0000000 	and	r0, r0, r0
     a78:	01000000 	mrseq	r0, (UNDEF: 0)
     a7c:	00e05100 	rsceq	r5, r0, r0, lsl #2
     a80:	01540000 	cmpeq	r4, r0
     a84:	00010000 	andeq	r0, r1, r0
     a88:	00015455 	andeq	r5, r1, r5, asr r4
     a8c:	00015800 	andeq	r5, r1, r0, lsl #16
     a90:	51000100 	mrspl	r0, (UNDEF: 16)
     a94:	00000158 	andeq	r0, r0, r8, asr r1
     a98:	000001b0 			; <UNDEFINED> instruction: 0x000001b0
     a9c:	b0550001 	subslt	r0, r5, r1
     aa0:	c0000001 	andgt	r0, r0, r1
     aa4:	01000001 	tsteq	r0, r1
     aa8:	01c05100 	biceq	r5, r0, r0, lsl #2
     aac:	01e40000 	mvneq	r0, r0
     ab0:	00010000 	andeq	r0, r1, r0
     ab4:	0001e455 	andeq	lr, r1, r5, asr r4
     ab8:	0001f800 	andeq	pc, r1, r0, lsl #16
     abc:	51000100 	mrspl	r0, (UNDEF: 16)
     ac0:	000001f8 	strdeq	r0, [r0], -r8
     ac4:	00000224 	andeq	r0, r0, r4, lsr #4
     ac8:	00550001 	subseq	r0, r5, r1
	...
     ad4:	70000000 	andvc	r0, r0, r0
     ad8:	84000000 	strhi	r0, [r0], #-0
     adc:	01000000 	mrseq	r0, (UNDEF: 0)
     ae0:	00845200 	addeq	r5, r4, r0, lsl #4
     ae4:	02240000 	eoreq	r0, r4, #0, 0
     ae8:	00010000 	andeq	r0, r1, r0
     aec:	00000054 	andeq	r0, r0, r4, asr r0
	...
     af8:	00010000 	andeq	r0, r1, r0
     afc:	00000000 	andeq	r0, r0, r0
     b00:	00007000 	andeq	r7, r0, r0
     b04:	0000f400 	andeq	pc, r0, r0, lsl #8
     b08:	53000100 	movwpl	r0, #256	; 0x100
     b0c:	0000014c 	andeq	r0, r0, ip, asr #2
     b10:	00000180 	andeq	r0, r0, r0, lsl #3
     b14:	80530001 	subshi	r0, r3, r1
     b18:	8c000001 	stchi	0, cr0, [r0], {1}
     b1c:	04000001 	streq	r0, [r0], #-1
     b20:	5301f300 	movwpl	pc, #4864	; 0x1300	; <UNPREDICTABLE>
     b24:	0001b09f 	muleq	r1, pc, r0	; <UNPREDICTABLE>
     b28:	0001e800 	andeq	lr, r1, r0, lsl #16
     b2c:	53000100 	movwpl	r0, #256	; 0x100
     b30:	000001e8 	andeq	r0, r0, r8, ror #3
     b34:	000001ff 	strdeq	r0, [r0], -pc	; <UNPREDICTABLE>
     b38:	ff5c0001 			; <UNDEFINED> instruction: 0xff5c0001
     b3c:	24000001 	strcs	r0, [r0], #-1
     b40:	04000002 	streq	r0, [r0], #-2
     b44:	5301f300 	movwpl	pc, #4864	; 0x1300	; <UNPREDICTABLE>
     b48:	0000009f 	muleq	r0, pc, r0	; <UNPREDICTABLE>
	...
     b54:	70000000 	andvc	r0, r0, r0
     b58:	8c000000 	stchi	0, cr0, [r0], {-0}
     b5c:	02000000 	andeq	r0, r0, #0, 0
     b60:	8c009100 	stfhid	f1, [r0], {-0}
     b64:	93000000 	movwls	r0, #0
     b68:	01000001 	tsteq	r0, r1
     b6c:	01b05200 	lslseq	r5, r0, #4
     b70:	01f40000 	mvnseq	r0, r0
     b74:	00010000 	andeq	r0, r1, r0
     b78:	00000052 	andeq	r0, r0, r2, asr r0
     b7c:	00000000 	andeq	r0, r0, r0
     b80:	00000100 	andeq	r0, r0, r0, lsl #2
     b84:	00000101 	andeq	r0, r0, r1, lsl #2
     b88:	00000000 	andeq	r0, r0, r0
     b8c:	01010000 	mrseq	r0, (UNDEF: 1)
     b90:	00000101 	andeq	r0, r0, r1, lsl #2
     b94:	00000101 	andeq	r0, r0, r1, lsl #2
	...
     ba0:	00008c00 	andeq	r8, r0, r0, lsl #24
     ba4:	0000fc00 	andeq	pc, r0, r0, lsl #24
     ba8:	91000400 	tstls	r0, r0, lsl #8
     bac:	fc9f7fa0 	ldc2	15, cr7, [pc], {160}	; 0xa0
     bb0:	3c000000 	stccc	0, cr0, [r0], {-0}
     bb4:	01000001 	tsteq	r0, r1
     bb8:	013c5000 	teqeq	ip, r0
     bbc:	01480000 	mrseq	r0, (UNDEF: 72)
     bc0:	00030000 	andeq	r0, r3, r0
     bc4:	489f0271 	ldmmi	pc, {r0, r4, r5, r6, r9}	; <UNPREDICTABLE>
     bc8:	4c000001 	stcmi	0, cr0, [r0], {1}
     bcc:	01000001 	tsteq	r0, r1
     bd0:	014c5000 	mrseq	r5, (UNDEF: 76)
     bd4:	01580000 	cmpeq	r8, r0
     bd8:	00040000 	andeq	r0, r4, r0
     bdc:	9f7fa091 	svcls	0x007fa091
     be0:	00000158 	andeq	r0, r0, r8, asr r1
     be4:	0000016c 	andeq	r0, r0, ip, ror #2
     be8:	6c510001 	mrrcvs	0, 0, r0, r1, cr1
     bec:	78000001 	stmdavc	r0, {r0}
     bf0:	03000001 	movweq	r0, #1
     bf4:	9f7f7100 	svcls	0x007f7100
     bf8:	00000178 	andeq	r0, r0, r8, ror r1
     bfc:	00000184 	andeq	r0, r0, r4, lsl #3
     c00:	01710003 	cmneq	r1, r3
     c04:	0001849f 	muleq	r1, pc, r4	; <UNPREDICTABLE>
     c08:	00019300 	andeq	r9, r1, r0, lsl #6
     c0c:	50000100 	andpl	r0, r0, r0, lsl #2
     c10:	000001b0 			; <UNDEFINED> instruction: 0x000001b0
     c14:	000001b0 			; <UNDEFINED> instruction: 0x000001b0
     c18:	a0910004 	addsge	r0, r1, r4
     c1c:	01b09f7f 	rorseq	r9, pc, pc
     c20:	01b80000 			; <UNDEFINED> instruction: 0x01b80000
     c24:	00040000 	andeq	r0, r4, r0
     c28:	9f7fa191 	svcls	0x007fa191
     c2c:	000001b8 			; <UNDEFINED> instruction: 0x000001b8
     c30:	000001bc 			; <UNDEFINED> instruction: 0x000001bc
     c34:	bc500001 	mrrclt	0, 0, r0, r0, cr1	; <UNPREDICTABLE>
     c38:	c0000001 	andgt	r0, r0, r1
     c3c:	04000001 	streq	r0, [r0], #-1
     c40:	7fa09100 	svcvc	0x00a09100
     c44:	0001c09f 	muleq	r1, pc, r0	; <UNPREDICTABLE>
     c48:	0001d400 	andeq	sp, r1, r0, lsl #8
     c4c:	50000100 	andpl	r0, r0, r0, lsl #2
     c50:	000001d4 	ldrdeq	r0, [r0], -r4
     c54:	000001e4 	andeq	r0, r0, r4, ror #3
     c58:	7f700003 	svcvc	0x00700003
     c5c:	0001e49f 	muleq	r1, pc, r4	; <UNPREDICTABLE>
     c60:	00022400 	andeq	r2, r2, r0, lsl #8
     c64:	91000400 	tstls	r0, r0, lsl #8
     c68:	009f7fa0 	addseq	r7, pc, r0, lsr #31
	...
     c74:	01010000 	mrseq	r0, (UNDEF: 1)
	...
     c84:	90000000 	andls	r0, r0, r0
     c88:	dc000000 	stcle	0, cr0, [r0], {-0}
     c8c:	01000000 	mrseq	r0, (UNDEF: 0)
     c90:	00dc5c00 	sbcseq	r5, ip, r0, lsl #24
     c94:	00f40000 	rscseq	r0, r4, r0
     c98:	00010000 	andeq	r0, r1, r0
     c9c:	0000f453 	andeq	pc, r0, r3, asr r4	; <UNPREDICTABLE>
     ca0:	00014c00 	andeq	r4, r1, r0, lsl #24
     ca4:	5c000100 	stfpls	f0, [r0], {-0}
     ca8:	0000014c 	andeq	r0, r0, ip, asr #2
     cac:	00000158 	andeq	r0, r0, r8, asr r1
     cb0:	58530001 	ldmdapl	r3, {r0}^
     cb4:	74000001 	strvc	r0, [r0], #-1
     cb8:	01000001 	tsteq	r0, r1
     cbc:	01b05c00 	lslseq	r5, r0, #24
     cc0:	01c00000 	biceq	r0, r0, r0
     cc4:	00010000 	andeq	r0, r1, r0
     cc8:	0001c053 	andeq	ip, r1, r3, asr r0
     ccc:	0001dc00 	andeq	sp, r1, r0, lsl #24
     cd0:	5c000100 	stfpls	f0, [r0], {-0}
     cd4:	000001e4 	andeq	r0, r0, r4, ror #3
     cd8:	000001e8 	andeq	r0, r0, r8, ror #3
     cdc:	e8530001 	ldmda	r3, {r0}^
     ce0:	ff000001 			; <UNDEFINED> instruction: 0xff000001
     ce4:	01000001 	tsteq	r0, r1
     ce8:	01ff5c00 	mvnseq	r5, r0, lsl #24
     cec:	02240000 	eoreq	r0, r4, #0, 0
     cf0:	00040000 	andeq	r0, r4, r0
     cf4:	9f5301f3 	svcls	0x005301f3
	...
     d00:	00010101 	andeq	r0, r1, r1, lsl #2
     d04:	00000000 	andeq	r0, r0, r0
     d08:	000000dc 	ldrdeq	r0, [r0], -ip
     d0c:	000000f0 	strdeq	r0, [r0], -r0	; <UNPREDICTABLE>
     d10:	9f300002 	svcls	0x00300002
     d14:	000000f0 	strdeq	r0, [r0], -r0	; <UNPREDICTABLE>
     d18:	000000f8 	strdeq	r0, [r0], -r8
     d1c:	9f310002 	svcls	0x00310002
     d20:	000000fc 	strdeq	r0, [r0], -ip
     d24:	0000014c 	andeq	r0, r0, ip, asr #2
     d28:	4c560001 	mrrcmi	0, 0, r0, r6, cr1
     d2c:	54000001 	strpl	r0, [r0], #-1
     d30:	02000001 	andeq	r0, r0, #1, 0
     d34:	009f3000 	addseq	r3, pc, r0
	...
     d40:	01010000 	mrseq	r0, (UNDEF: 1)
     d44:	01010000 	mrseq	r0, (UNDEF: 1)
     d48:	00003800 	andeq	r3, r0, r0, lsl #16
     d4c:	00005400 	andeq	r5, r0, r0, lsl #8
     d50:	50000100 	andpl	r0, r0, r0, lsl #2
     d54:	00000054 	andeq	r0, r0, r4, asr r0
     d58:	00000058 	andeq	r0, r0, r8, asr r0
     d5c:	58520001 	ldmdapl	r2, {r0}^
     d60:	60000000 	andvs	r0, r0, r0
     d64:	03000000 	movweq	r0, #0
     d68:	9f017200 	svcls	0x00017200
     d6c:	00000060 	andeq	r0, r0, r0, rrx
     d70:	00000064 	andeq	r0, r0, r4, rrx
     d74:	64520001 	ldrbvs	r0, [r2], #-1
     d78:	70000000 	andvc	r0, r0, r0
     d7c:	03000000 	movweq	r0, #0
     d80:	9f017200 	svcls	0x00017200
	...
     d90:	00000038 	andeq	r0, r0, r8, lsr r0
     d94:	00000050 	andeq	r0, r0, r0, asr r0
     d98:	50510001 	subspl	r0, r1, r1
     d9c:	70000000 	andvc	r0, r0, r0
     da0:	04000000 	streq	r0, [r0], #-0
     da4:	5101f300 	mrspl	pc, SP_irq	; <UNPREDICTABLE>
     da8:	0000009f 	muleq	r0, pc, r0	; <UNPREDICTABLE>
	...
     db4:	01010000 	mrseq	r0, (UNDEF: 1)
     db8:	00003800 	andeq	r3, r0, r0, lsl #16
     dbc:	00005000 	andeq	r5, r0, r0
     dc0:	52000100 	andpl	r0, r0, #0
     dc4:	00000050 	andeq	r0, r0, r0, asr r0
     dc8:	0000005c 	andeq	r0, r0, ip, asr r0
     dcc:	5c510001 	mrrcpl	0, 0, r0, r1, cr1
     dd0:	60000000 	andvs	r0, r0, r0
     dd4:	03000000 	movweq	r0, #0
     dd8:	9f017100 	svcls	0x00017100
     ddc:	00000060 	andeq	r0, r0, r0, rrx
     de0:	00000070 	andeq	r0, r0, r0, ror r0
     de4:	00510001 	subseq	r0, r1, r1
	...
     df0:	38000000 	stmdacc	r0, {}	; <UNPREDICTABLE>
     df4:	4c000000 	stcmi	0, cr0, [r0], {-0}
     df8:	01000000 	mrseq	r0, (UNDEF: 0)
     dfc:	004c5300 	subeq	r5, ip, r0, lsl #6
     e00:	00680000 	rsbeq	r0, r8, r0
     e04:	00010000 	andeq	r0, r1, r0
     e08:	00000053 	andeq	r0, r0, r3, asr r0
	...
     e18:	00004000 	andeq	r4, r0, r0
     e1c:	00004800 	andeq	r4, r0, r0, lsl #16
     e20:	5c000100 	stfpls	f0, [r0], {-0}
     e24:	00000048 	andeq	r0, r0, r8, asr #32
     e28:	0000004c 	andeq	r0, r0, ip, asr #32
     e2c:	00720008 	rsbseq	r0, r2, r8
     e30:	231c0073 	tstcs	ip, #115, 0	; 0x73
     e34:	004c9f01 	subeq	r9, ip, r1, lsl #30
     e38:	00540000 	subseq	r0, r4, r0
     e3c:	00090000 	andeq	r0, r9, r0
     e40:	01f30072 	mvnseq	r0, r2, ror r0
     e44:	01231c53 			; <UNDEFINED> instruction: 0x01231c53
     e48:	0000549f 	muleq	r0, pc, r4	; <UNPREDICTABLE>
     e4c:	00007000 	andeq	r7, r0, r0
     e50:	f3000a00 	vpmax.u8	d0, d0, d0
     e54:	01f35201 	mvnseq	r5, r1, lsl #4
     e58:	01231c53 			; <UNDEFINED> instruction: 0x01231c53
     e5c:	0000009f 	muleq	r0, pc, r0	; <UNPREDICTABLE>
     e60:	00000000 	andeq	r0, r0, r0
     e64:	4c000100 	stfmis	f0, [r0], {-0}
     e68:	70000000 	andvc	r0, r0, r0
     e6c:	01000000 	mrseq	r0, (UNDEF: 0)
     e70:	00005000 	andeq	r5, r0, r0
     e74:	00000000 	andeq	r0, r0, r0
     e78:	01000000 	mrseq	r0, (UNDEF: 0)
     e7c:	00000001 	andeq	r0, r0, r1
     e80:	00000014 	andeq	r0, r0, r4, lsl r0
     e84:	0000001c 	andeq	r0, r0, ip, lsl r0
     e88:	1c500001 	mrrcne	0, 0, r0, r0, cr1	; <UNPREDICTABLE>
     e8c:	24000000 	strcs	r0, [r0], #-0
     e90:	03000000 	movweq	r0, #0
     e94:	9f017000 	svcls	0x00017000
     e98:	00000024 	andeq	r0, r0, r4, lsr #32
     e9c:	00000038 	andeq	r0, r0, r8, lsr r0
     ea0:	00500001 	subseq	r0, r0, r1
	...
     eac:	14000000 	strne	r0, [r0], #-0
     eb0:	18000000 	stmdane	r0, {}	; <UNPREDICTABLE>
     eb4:	01000000 	mrseq	r0, (UNDEF: 0)
     eb8:	00185100 	andseq	r5, r8, r0, lsl #2
     ebc:	00380000 	eorseq	r0, r8, r0
     ec0:	00040000 	andeq	r0, r4, r0
     ec4:	9f5101f3 	svcls	0x005101f3
	...
     ed0:	00180000 	andseq	r0, r8, r0
     ed4:	00380000 	eorseq	r0, r8, r0
     ed8:	00010000 	andeq	r0, r1, r0
     edc:	00000051 	andeq	r0, r0, r1, asr r0
	...
     eec:	04000000 	streq	r0, [r0], #-0
     ef0:	01000000 	mrseq	r0, (UNDEF: 0)
     ef4:	00045000 	andeq	r5, r4, r0
     ef8:	000c0000 	andeq	r0, ip, r0
     efc:	00030000 	andeq	r0, r3, r0
     f00:	0c9f3070 	ldceq	0, cr3, [pc], {112}	; 0x70
     f04:	14000000 	strne	r0, [r0], #-0
     f08:	04000000 	streq	r0, [r0], #-0
     f0c:	5001f300 	andpl	pc, r1, r0, lsl #6
     f10:	0000009f 	muleq	r0, pc, r0	; <UNPREDICTABLE>
	...
     f1c:	00022400 	andeq	r2, r2, r0, lsl #8
     f20:	00026800 	andeq	r6, r2, r0, lsl #16
     f24:	50000100 	andpl	r0, r0, r0, lsl #2
     f28:	00000268 	andeq	r0, r0, r8, ror #4
     f2c:	00000288 	andeq	r0, r0, r8, lsl #5
     f30:	01f30004 	mvnseq	r0, r4
     f34:	00009f50 	andeq	r9, r0, r0, asr pc
	...
     f40:	02240000 	eoreq	r0, r4, #0, 0
     f44:	02640000 	rsbeq	r0, r4, #0, 0
     f48:	00010000 	andeq	r0, r1, r0
     f4c:	00026451 	andeq	r6, r2, r1, asr r4
     f50:	00028800 	andeq	r8, r2, r0, lsl #16
     f54:	f3000400 	vshl.u8	d0, d0, d0
     f58:	009f5101 	addseq	r5, pc, r1, lsl #2
	...
     f64:	00000101 	andeq	r0, r0, r1, lsl #2
     f68:	008b0c00 	addeq	r0, fp, r0, lsl #24
     f6c:	008b0c00 	addeq	r0, fp, r0, lsl #24
     f70:	53000100 	movwpl	r0, #256	; 0x100
     f74:	00008b0c 	andeq	r8, r0, ip, lsl #22
     f78:	00008b10 	andeq	r8, r0, r0, lsl fp
     f7c:	00730007 	rsbseq	r0, r3, r7
     f80:	1aefff0b 	bne	ffc00bb4 <__bss_end__+0xffbf6df4>
     f84:	008b109f 	umulleq	r1, fp, pc, r0	; <UNPREDICTABLE>
     f88:	008b1800 	addeq	r1, fp, r0, lsl #16
     f8c:	53000100 	movwpl	r0, #256	; 0x100
	...
     f98:	00010100 	andeq	r0, r1, r0, lsl #2
     f9c:	8afc0000 	bhi	fff00fa4 <__bss_end__+0xffef71e4>
     fa0:	8afc0000 	bhi	fff00fa8 <__bss_end__+0xffef71e8>
     fa4:	00010000 	andeq	r0, r1, r0
     fa8:	008afc53 	addeq	pc, sl, r3, asr ip	; <UNPREDICTABLE>
     fac:	008b0000 	addeq	r0, fp, r0
     fb0:	73000700 	movwvc	r0, #1792	; 0x700
     fb4:	10000a00 	andne	r0, r0, r0, lsl #20
     fb8:	8b009f21 	blhi	28c44 <__bss_end__+0x1ee84>
     fbc:	8b080000 	blhi	200fc4 <__bss_end__+0x1f7204>
     fc0:	00010000 	andeq	r0, r1, r0
     fc4:	00000053 	andeq	r0, r0, r3, asr r0
     fc8:	00000000 	andeq	r0, r0, r0
     fcc:	01010000 	mrseq	r0, (UNDEF: 1)
     fd0:	0c000000 	stceq	0, cr0, [r0], {-0}
     fd4:	14000000 	strne	r0, [r0], #-0
     fd8:	01000000 	mrseq	r0, (UNDEF: 0)
     fdc:	00145300 	andseq	r5, r4, r0, lsl #6
     fe0:	001c0000 	andseq	r0, ip, r0
     fe4:	00030000 	andeq	r0, r3, r0
     fe8:	1c9f0473 	cfldrsne	mvf0, [pc], {115}	; 0x73
     fec:	23000000 	movwcs	r0, #0
     ff0:	01000000 	mrseq	r0, (UNDEF: 0)
     ff4:	00005300 	andeq	r5, r0, r0, lsl #6
     ff8:	00000000 	andeq	r0, r0, r0
     ffc:	00010000 	andeq	r0, r1, r0
    1000:	00008be8 	andeq	r8, r0, r8, ror #23
    1004:	00008c04 	andeq	r8, r0, r4, lsl #24
    1008:	1c0c0006 	stcne	0, cr0, [ip], {6}
    100c:	9f201000 	svcls	0x00201000
	...
    1018:	8be80002 	blhi	ffa01028 <__bss_end__+0xff9f7268>
    101c:	8c040000 	stchi	0, cr0, [r4], {-0}
    1020:	00060000 	andeq	r0, r6, r0
    1024:	1000240c 	andne	r2, r0, ip, lsl #8
    1028:	00009f20 	andeq	r9, r0, r0, lsr #30
    102c:	00000000 	andeq	r0, r0, r0
    1030:	00030000 	andeq	r0, r3, r0
    1034:	00008be8 	andeq	r8, r0, r8, ror #23
    1038:	00008c04 	andeq	r8, r0, r4, lsl #24
    103c:	b4080005 	strlt	r0, [r8], #-5
    1040:	009f2447 	addseq	r2, pc, r7, asr #8
    1044:	00000000 	andeq	r0, r0, r0
    1048:	04000000 	streq	r0, [r0], #-0
    104c:	008be800 	addeq	lr, fp, r0, lsl #16
    1050:	008c0400 	addeq	r0, ip, r0, lsl #8
    1054:	08000300 	stmdaeq	r0, {r8, r9}
    1058:	00009f20 	andeq	r9, r0, r0, lsr #30
    105c:	00000000 	andeq	r0, r0, r0
    1060:	00020000 	andeq	r0, r2, r0
    1064:	00000000 	andeq	r0, r0, r0
    1068:	00008bb4 			; <UNDEFINED> instruction: 0x00008bb4
    106c:	00008bb8 			; <UNDEFINED> instruction: 0x00008bb8
    1070:	9f300002 	svcls	0x00300002
    1074:	00008bb8 			; <UNDEFINED> instruction: 0x00008bb8
    1078:	00008bbc 			; <UNDEFINED> instruction: 0x00008bbc
    107c:	c0530001 	subsgt	r0, r3, r1
    1080:	c800008b 	stmdagt	r0, {r0, r1, r3, r7}
    1084:	0100008b 	smlabbeq	r0, fp, r0, r0
    1088:	00005300 	andeq	r5, r0, r0, lsl #6
    108c:	00000000 	andeq	r0, r0, r0
    1090:	00020000 	andeq	r0, r2, r0
    1094:	8b9c0000 	blhi	fe70109c <__bss_end__+0xfe6f72dc>
    1098:	8ba00000 	blhi	fe8010a0 <__bss_end__+0xfe7f72e0>
    109c:	00020000 	andeq	r0, r2, r0
    10a0:	8ba09f30 	blhi	fe828d68 <__bss_end__+0xfe81efa8>
    10a4:	8ba40000 	blhi	fe9010ac <__bss_end__+0xfe8f72ec>
    10a8:	00010000 	andeq	r0, r1, r0
    10ac:	00000050 	andeq	r0, r0, r0, asr r0
	...
    10b8:	00006c00 	andeq	r6, r0, r0, lsl #24
    10bc:	00007800 	andeq	r7, r0, r0, lsl #16
    10c0:	50000100 	andpl	r0, r0, r0, lsl #2
    10c4:	00000078 	andeq	r0, r0, r8, ror r0
    10c8:	00000084 	andeq	r0, r0, r4, lsl #1
    10cc:	01f30004 	mvnseq	r0, r4
    10d0:	00009f50 	andeq	r9, r0, r0, asr pc
	...
    10dc:	00540000 	subseq	r0, r4, r0
    10e0:	00600000 	rsbeq	r0, r0, r0
    10e4:	00010000 	andeq	r0, r1, r0
    10e8:	00006050 	andeq	r6, r0, r0, asr r0
    10ec:	00006c00 	andeq	r6, r0, r0, lsl #24
    10f0:	f3000400 	vshl.u8	d0, d0, d0
    10f4:	009f5001 	addseq	r5, pc, r1
	...
    1100:	30000000 	andcc	r0, r0, r0
    1104:	3b000000 	blcc	110c <__code_start__-0x6ef4>
    1108:	01000000 	mrseq	r0, (UNDEF: 0)
    110c:	003b5000 	eorseq	r5, fp, r0
    1110:	00540000 	subseq	r0, r4, r0
    1114:	00010000 	andeq	r0, r1, r0
    1118:	00000055 	andeq	r0, r0, r5, asr r0
    111c:	00000000 	andeq	r0, r0, r0
    1120:	40000000 	andmi	r0, r0, r0
    1124:	54000000 	strpl	r0, [r0], #-0
    1128:	01000000 	mrseq	r0, (UNDEF: 0)
    112c:	00005400 	andeq	r5, r0, r0, lsl #8
	...
    1138:	00000044 	andeq	r0, r0, r4, asr #32
    113c:	00000048 	andeq	r0, r0, r8, asr #32
    1140:	00500001 	subseq	r0, r0, r1
	...
    114c:	24000000 	strcs	r0, [r0], #-0
    1150:	27000000 	strcs	r0, [r0, -r0]
    1154:	01000000 	mrseq	r0, (UNDEF: 0)
    1158:	00275000 	eoreq	r5, r7, r0
    115c:	00300000 	eorseq	r0, r0, r0
    1160:	00010000 	andeq	r0, r1, r0
    1164:	00000054 	andeq	r0, r0, r4, asr r0
	...
    1174:	0000e800 	andeq	lr, r0, r0, lsl #16
    1178:	00010000 	andeq	r0, r1, r0
    117c:	50000100 	andpl	r0, r0, r0, lsl #2
    1180:	00000100 	andeq	r0, r0, r0, lsl #2
    1184:	00000110 	andeq	r0, r0, r0, lsl r1
    1188:	01f30004 	mvnseq	r0, r4
    118c:	01109f50 	tsteq	r0, r0, asr pc
    1190:	01140000 	tsteq	r4, r0
    1194:	00010000 	andeq	r0, r1, r0
    1198:	00011450 	andeq	r1, r1, r0, asr r4
    119c:	00011c00 	andeq	r1, r1, r0, lsl #24
    11a0:	f3000400 	vshl.u8	d0, d0, d0
    11a4:	009f5001 	addseq	r5, pc, r1
    11a8:	00000000 	andeq	r0, r0, r0
    11ac:	01000000 	mrseq	r0, (UNDEF: 0)
    11b0:	00000000 	andeq	r0, r0, r0
    11b4:	0000f400 	andeq	pc, r0, r0, lsl #8
    11b8:	00010000 	andeq	r0, r1, r0
    11bc:	70000b00 	andvc	r0, r0, r0, lsl #22
    11c0:	23253500 			; <UNDEFINED> instruction: 0x23253500
    11c4:	818080b4 	strhhi	r8, [r0, r4]
    11c8:	01009f02 	tsteq	r0, r2, lsl #30
    11cc:	01030000 	mrseq	r0, (UNDEF: 3)
    11d0:	00010000 	andeq	r0, r1, r0
    11d4:	00010350 	andeq	r0, r1, r0, asr r3
    11d8:	00011000 	andeq	r1, r1, r0
    11dc:	f3000c00 			; <UNDEFINED> instruction: 0xf3000c00
    11e0:	25355001 	ldrcs	r5, [r5, #-1]!
    11e4:	8080b423 	addhi	fp, r0, r3, lsr #8
    11e8:	009f0281 	addseq	r0, pc, r1, lsl #5
	...
    11f4:	0000f800 	andeq	pc, r0, r0, lsl #16
    11f8:	00011000 	andeq	r1, r1, r0
    11fc:	54000100 	strpl	r0, [r0], #-256	; 0xffffff00
	...
    1210:	000000cc 	andeq	r0, r0, ip, asr #1
    1214:	000000db 	ldrdeq	r0, [r0], -fp
    1218:	db500001 	blle	1401224 <__bss_end__+0x13f7464>
    121c:	e0000000 	and	r0, r0, r0
    1220:	04000000 	streq	r0, [r0], #-0
    1224:	5001f300 	andpl	pc, r1, r0, lsl #6
    1228:	0000e09f 	muleq	r0, pc, r0	; <UNPREDICTABLE>
    122c:	0000e300 	andeq	lr, r0, r0, lsl #6
    1230:	50000100 	andpl	r0, r0, r0, lsl #2
    1234:	000000e3 	andeq	r0, r0, r3, ror #1
    1238:	000000e8 	andeq	r0, r0, r8, ror #1
    123c:	01f30004 	mvnseq	r0, r4
    1240:	00009f50 	andeq	r9, r0, r0, asr pc
	...
    1250:	00cc0000 	sbceq	r0, ip, r0
    1254:	00db0000 	sbcseq	r0, fp, r0
    1258:	00010000 	andeq	r0, r1, r0
    125c:	0000db51 	andeq	sp, r0, r1, asr fp
    1260:	0000e000 	andeq	lr, r0, r0
    1264:	f3000400 	vshl.u8	d0, d0, d0
    1268:	e09f5101 	adds	r5, pc, r1, lsl #2
    126c:	e3000000 	movw	r0, #0
    1270:	01000000 	mrseq	r0, (UNDEF: 0)
    1274:	00e35100 	rsceq	r5, r3, r0, lsl #2
    1278:	00e80000 	rsceq	r0, r8, r0
    127c:	00040000 	andeq	r0, r4, r0
    1280:	9f5101f3 	svcls	0x005101f3
	...
    1290:	000000bc 	strheq	r0, [r0], -ip
    1294:	000000c7 	andeq	r0, r0, r7, asr #1
    1298:	c7500001 	ldrbgt	r0, [r0, -r1]
    129c:	cc000000 	stcgt	0, cr0, [r0], {-0}
    12a0:	04000000 	streq	r0, [r0], #-0
    12a4:	5001f300 	andpl	pc, r1, r0, lsl #6
    12a8:	0000009f 	muleq	r0, pc, r0	; <UNPREDICTABLE>
	...
    12b4:	00009800 	andeq	r9, r0, r0, lsl #16
    12b8:	0000b000 	andeq	fp, r0, r0
    12bc:	50000100 	andpl	r0, r0, r0, lsl #2
    12c0:	000000b0 	strheq	r0, [r0], -r0	; <UNPREDICTABLE>
    12c4:	000000bc 	strheq	r0, [r0], -ip
    12c8:	01f30004 	mvnseq	r0, r4
    12cc:	00009f50 	andeq	r9, r0, r0, asr pc
	...
    12d8:	00740000 	rsbseq	r0, r4, r0
    12dc:	008c0000 	addeq	r0, ip, r0
    12e0:	00010000 	andeq	r0, r1, r0
    12e4:	00008c50 	andeq	r8, r0, r0, asr ip
    12e8:	00009800 	andeq	r9, r0, r0, lsl #16
    12ec:	f3000400 	vshl.u8	d0, d0, d0
    12f0:	009f5001 	addseq	r5, pc, r1
	...
    12fc:	64000000 	strvs	r0, [r0], #-0
    1300:	6f000000 	svcvs	0x00000000
    1304:	01000000 	mrseq	r0, (UNDEF: 0)
    1308:	006f5000 	rsbeq	r5, pc, r0
    130c:	00740000 	rsbseq	r0, r4, r0
    1310:	00040000 	andeq	r0, r4, r0
    1314:	9f5001f3 	svcls	0x005001f3
	...
    1328:	00000038 	andeq	r0, r0, r8, lsr r0
    132c:	38500001 	ldmdacc	r0, {r0}^
    1330:	64000000 	strvs	r0, [r0], #-0
    1334:	04000000 	streq	r0, [r0], #-0
    1338:	5001f300 	andpl	pc, r1, r0, lsl #6
    133c:	0000009f 	muleq	r0, pc, r0	; <UNPREDICTABLE>
	...
    134c:	00004700 	andeq	r4, r0, r0, lsl #14
    1350:	51000100 	mrspl	r0, (UNDEF: 16)
    1354:	00000047 	andeq	r0, r0, r7, asr #32
    1358:	00000064 	andeq	r0, r0, r4, rrx
    135c:	01f30004 	mvnseq	r0, r4
    1360:	00009f51 	andeq	r9, r0, r1, asr pc
	...
    136c:	00000034 	andeq	r0, r0, r4, lsr r0
    1370:	00000064 	andeq	r0, r0, r4, rrx
    1374:	00540001 	subseq	r0, r4, r1
	...
    1380:	00004000 	andeq	r4, r0, r0
    1384:	00006400 	andeq	r6, r0, r0, lsl #8
    1388:	56000100 	strpl	r0, [r0], -r0, lsl #2
	...
    1394:	01000000 	mrseq	r0, (UNDEF: 0)
    1398:	00000001 	andeq	r0, r0, r1
    139c:	00000048 	andeq	r0, r0, r8, asr #32
    13a0:	00000050 	andeq	r0, r0, r0, asr r0
    13a4:	50500001 	subspl	r0, r0, r1
    13a8:	50000000 	andpl	r0, r0, r0
    13ac:	01000000 	mrseq	r0, (UNDEF: 0)
    13b0:	00505100 	subseq	r5, r0, r0, lsl #2
    13b4:	00540000 	subseq	r0, r4, r0
    13b8:	00090000 	andeq	r0, r9, r0
    13bc:	00740075 	rsbseq	r0, r4, r5, ror r0
    13c0:	21007124 	tstcs	r0, r4, lsr #2
    13c4:	0000549f 	muleq	r0, pc, r4	; <UNPREDICTABLE>
    13c8:	00005b00 	andeq	r5, r0, r0, lsl #22
    13cc:	51000100 	mrspl	r0, (UNDEF: 16)
	...
    13dc:	00000158 	andeq	r0, r0, r8, asr r1
    13e0:	00000163 	andeq	r0, r0, r3, ror #2
    13e4:	63500001 	cmpvs	r0, #1, 0
    13e8:	88000001 	stmdahi	r0, {r0}
    13ec:	01000001 	tsteq	r0, r1
    13f0:	00005400 	andeq	r5, r0, r0, lsl #8
	...
    13fc:	00000148 	andeq	r0, r0, r8, asr #2
    1400:	00000158 	andeq	r0, r0, r8, asr r1
    1404:	00540001 	subseq	r0, r4, r1
	...
    1414:	0f000000 	svceq	0x00000000
    1418:	01000000 	mrseq	r0, (UNDEF: 0)
    141c:	000f5000 	andeq	r5, pc, r0
    1420:	00200000 	eoreq	r0, r0, r0
    1424:	00010000 	andeq	r0, r1, r0
    1428:	00000054 	andeq	r0, r0, r4, asr r0
	...
    1438:	00000f00 	andeq	r0, r0, r0, lsl #30
    143c:	51000100 	mrspl	r0, (UNDEF: 16)
    1440:	0000000f 	andeq	r0, r0, pc
    1444:	00000020 	andeq	r0, r0, r0, lsr #32
    1448:	00550001 	subseq	r0, r5, r1
	...
    1454:	20000000 	andcs	r0, r0, r0
    1458:	2f000000 	svccs	0x00000000
    145c:	01000000 	mrseq	r0, (UNDEF: 0)
    1460:	002f5000 	eoreq	r5, pc, r0
    1464:	00400000 	subeq	r0, r0, r0
    1468:	00010000 	andeq	r0, r1, r0
    146c:	00000054 	andeq	r0, r0, r4, asr r0
	...
    1478:	00002000 	andeq	r2, r0, r0
    147c:	00002f00 	andeq	r2, r0, r0, lsl #30
    1480:	51000100 	mrspl	r0, (UNDEF: 16)
    1484:	0000002f 	andeq	r0, r0, pc, lsr #32
    1488:	00000040 	andeq	r0, r0, r0, asr #32
    148c:	00550001 	subseq	r0, r5, r1
	...
    149c:	0b000000 	bleq	14a4 <__code_start__-0x6b5c>
    14a0:	01000000 	mrseq	r0, (UNDEF: 0)
    14a4:	000b5000 	andeq	r5, fp, r0
    14a8:	00140000 	andseq	r0, r4, r0
    14ac:	00010000 	andeq	r0, r1, r0
    14b0:	00000054 	andeq	r0, r0, r4, asr r0
	...
    14c0:	00001c00 	andeq	r1, r0, r0, lsl #24
    14c4:	51000100 	mrspl	r0, (UNDEF: 16)
    14c8:	0000001c 	andeq	r0, r0, ip, lsl r0
    14cc:	00000034 	andeq	r0, r0, r4, lsr r0
    14d0:	01f30004 	mvnseq	r0, r4
    14d4:	00009f51 	andeq	r9, r0, r1, asr pc
    14d8:	00000000 	andeq	r0, r0, r0
    14dc:	00020000 	andeq	r0, r2, r0
    14e0:	01000000 	mrseq	r0, (UNDEF: 0)
    14e4:	00000001 	andeq	r0, r0, r1
    14e8:	00000000 	andeq	r0, r0, r0
    14ec:	00000004 	andeq	r0, r0, r4
    14f0:	04500001 	ldrbeq	r0, [r0], #-1
    14f4:	1c000000 	stcne	0, cr0, [r0], {-0}
    14f8:	01000000 	mrseq	r0, (UNDEF: 0)
    14fc:	001c5200 	andseq	r5, ip, r0, lsl #4
    1500:	00240000 	eoreq	r0, r4, r0
    1504:	00010000 	andeq	r0, r1, r0
    1508:	00002453 	andeq	r2, r0, r3, asr r4
    150c:	00002800 	andeq	r2, r0, r0, lsl #16
    1510:	73000300 	movwvc	r0, #768	; 0x300
    1514:	00289f01 	eoreq	r9, r8, r1, lsl #30
    1518:	00340000 	eorseq	r0, r4, r0
    151c:	00010000 	andeq	r0, r1, r0
    1520:	00000053 	andeq	r0, r0, r3, asr r0
    1524:	00000000 	andeq	r0, r0, r0
    1528:	00000300 	andeq	r0, r0, r0, lsl #6
    152c:	00000000 	andeq	r0, r0, r0
    1530:	00002400 	andeq	r2, r0, r0, lsl #8
    1534:	51000100 	mrspl	r0, (UNDEF: 16)
    1538:	00000024 	andeq	r0, r0, r4, lsr #32
    153c:	00000034 	andeq	r0, r0, r4, lsr r0
    1540:	7f710003 	svcvc	0x00710003
    1544:	0000009f 	muleq	r0, pc, r0	; <UNPREDICTABLE>
	...
    1550:	00001000 	andeq	r1, r0, r0
    1554:	00001c00 	andeq	r1, r0, r0, lsl #24
    1558:	5c000100 	stfpls	f0, [r0], {-0}
    155c:	00000024 	andeq	r0, r0, r4, lsr #32
    1560:	00000034 	andeq	r0, r0, r4, lsr r0
    1564:	00520001 	subseq	r0, r2, r1
	...
    1574:	18000000 	stmdane	r0, {}	; <UNPREDICTABLE>
    1578:	01000000 	mrseq	r0, (UNDEF: 0)
    157c:	00185000 	andseq	r5, r8, r0
    1580:	00240000 	eoreq	r0, r4, r0
    1584:	00010000 	andeq	r0, r1, r0
    1588:	00000050 	andeq	r0, r0, r0, asr r0
	...
    1598:	00001c00 	andeq	r1, r0, r0, lsl #24
    159c:	51000100 	mrspl	r0, (UNDEF: 16)
    15a0:	0000001c 	andeq	r0, r0, ip, lsl r0
    15a4:	0000002c 	andeq	r0, r0, ip, lsr #32
    15a8:	00510001 	subseq	r0, r1, r1
	...
    15bc:	00000400 	andeq	r0, r0, r0, lsl #8
    15c0:	51000100 	mrspl	r0, (UNDEF: 16)
    15c4:	00000004 	andeq	r0, r0, r4
    15c8:	0000000c 	andeq	r0, r0, ip
    15cc:	0c510001 	mrrceq	0, 0, r0, r1, cr1
    15d0:	20000000 	andcs	r0, r0, r0
    15d4:	03000000 	movweq	r0, #0
    15d8:	9f7f7100 	svcls	0x007f7100
	...
    15e4:	00000002 	andeq	r0, r0, r2
    15e8:	00000000 	andeq	r0, r0, r0
    15ec:	00040000 	andeq	r0, r4, r0
    15f0:	00010000 	andeq	r0, r1, r0
    15f4:	00000450 	andeq	r0, r0, r0, asr r4
    15f8:	00001400 	andeq	r1, r0, r0, lsl #8
    15fc:	5c000100 	stfpls	f0, [r0], {-0}
    1600:	00000014 	andeq	r0, r0, r4, lsl r0
    1604:	00000020 	andeq	r0, r0, r0, lsr #32
    1608:	7f7c0003 	svcvc	0x007c0003
    160c:	0000009f 	muleq	r0, pc, r0	; <UNPREDICTABLE>
    1610:	00000000 	andeq	r0, r0, r0
    1614:	03030000 	movweq	r0, #12288	; 0x3000
    1618:	00906800 	addseq	r6, r0, r0, lsl #16
    161c:	00906800 	addseq	r6, r0, r0, lsl #16
    1620:	50000100 	andpl	r0, r0, r0, lsl #2
    1624:	00009068 	andeq	r9, r0, r8, rrx
    1628:	00009094 	muleq	r0, r4, r0
    162c:	01f30004 	mvnseq	r0, r4
    1630:	00009f50 	andeq	r9, r0, r0, asr pc
    1634:	00000000 	andeq	r0, r0, r0
    1638:	03000000 	movweq	r0, #0
    163c:	90680003 	rsbls	r0, r8, r3
    1640:	90680000 	rsbls	r0, r8, r0
    1644:	00010000 	andeq	r0, r1, r0
    1648:	00906851 	addseq	r6, r0, r1, asr r8
    164c:	00909400 	addseq	r9, r0, r0, lsl #8
    1650:	f3000400 	vshl.u8	d0, d0, d0
    1654:	009f5101 	addseq	r5, pc, r1, lsl #2
	...
    1660:	00000303 	andeq	r0, r0, r3, lsl #6
    1664:	00906800 	addseq	r6, r0, r0, lsl #16
    1668:	00906800 	addseq	r6, r0, r0, lsl #16
    166c:	52000100 	andpl	r0, r0, #0
    1670:	00009068 	andeq	r9, r0, r8, rrx
    1674:	00009070 	andeq	r9, r0, r0, ror r0
    1678:	70520001 	subsvc	r0, r2, r1
    167c:	94000090 	strls	r0, [r0], #-144	; 0xffffff70
    1680:	03000090 	movweq	r0, #144	; 0x90
    1684:	9f017200 	svcls	0x00017200
	...
    1690:	00010102 	andeq	r0, r1, r2, lsl #2
    1694:	00000000 	andeq	r0, r0, r0
    1698:	00009068 	andeq	r9, r0, r8, rrx
    169c:	00009074 	andeq	r9, r0, r4, ror r0
    16a0:	74500001 	ldrbvc	r0, [r0], #-1
    16a4:	78000090 	stmdavc	r0, {r4, r7}
    16a8:	03000090 	movweq	r0, #144	; 0x90
    16ac:	9f017000 	svcls	0x00017000
    16b0:	00009078 	andeq	r9, r0, r8, ror r0
    16b4:	00009088 	andeq	r9, r0, r8, lsl #1
    16b8:	8c500001 	mrrchi	0, 0, r0, r0, cr1	; <UNPREDICTABLE>
    16bc:	90000090 	mulls	r0, r0, r0
    16c0:	01000090 	swpeq	r0, r0, [r0]	; <UNPREDICTABLE>
    16c4:	00005000 	andeq	r5, r0, r0
    16c8:	00000000 	andeq	r0, r0, r0
    16cc:	00020000 	andeq	r0, r2, r0
    16d0:	00000000 	andeq	r0, r0, r0
    16d4:	00009068 	andeq	r9, r0, r8, rrx
    16d8:	00009078 	andeq	r9, r0, r8, ror r0
    16dc:	78510001 	ldmdavc	r1, {r0}^
    16e0:	7c000090 	stcvc	0, cr0, [r0], {144}	; 0x90
    16e4:	03000090 	movweq	r0, #144	; 0x90
    16e8:	9f017100 	svcls	0x00017100
    16ec:	0000907c 	andeq	r9, r0, ip, ror r0
    16f0:	00009094 	muleq	r0, r4, r0
    16f4:	00510001 	subseq	r0, r1, r1
    16f8:	00000000 	andeq	r0, r0, r0
    16fc:	Address 0x00000000000016fc is out of bounds.


Disassembly of section .debug_aranges:

00000000 <.debug_aranges>:
   0:	0000001c 	andeq	r0, r0, ip, lsl r0
   4:	00000002 	andeq	r0, r0, r2
   8:	00040000 	andeq	r0, r4, r0
   c:	00000000 	andeq	r0, r0, r0
  10:	00008038 	andeq	r8, r0, r8, lsr r0
  14:	00000048 	andeq	r0, r0, r8, asr #32
	...
  20:	0000001c 	andeq	r0, r0, ip, lsl r0
  24:	018b0002 	orreq	r0, fp, r2
  28:	00040000 	andeq	r0, r4, r0
  2c:	00000000 	andeq	r0, r0, r0
  30:	00008080 	andeq	r8, r0, r0, lsl #1
  34:	000001a8 	andeq	r0, r0, r8, lsr #3
	...
  40:	0000001c 	andeq	r0, r0, ip, lsl r0
  44:	0a820002 	beq	fe080054 <__bss_end__+0xfe076294>
  48:	00040000 	andeq	r0, r4, r0
  4c:	00000000 	andeq	r0, r0, r0
  50:	00008228 	andeq	r8, r0, r8, lsr #4
  54:	00000104 	andeq	r0, r0, r4, lsl #2
	...
  60:	0000001c 	andeq	r0, r0, ip, lsl r0
  64:	10280002 	eorne	r0, r8, r2
  68:	00040000 	andeq	r0, r4, r0
  6c:	00000000 	andeq	r0, r0, r0
  70:	0000832c 	andeq	r8, r0, ip, lsr #6
  74:	00000058 	andeq	r0, r0, r8, asr r0
	...
  80:	0000001c 	andeq	r0, r0, ip, lsl r0
  84:	11c90002 	bicne	r0, r9, r2
  88:	00040000 	andeq	r0, r4, r0
  8c:	00000000 	andeq	r0, r0, r0
  90:	00008384 	andeq	r8, r0, r4, lsl #7
  94:	00000034 	andeq	r0, r0, r4, lsr r0
	...
  a0:	0000001c 	andeq	r0, r0, ip, lsl r0
  a4:	12c00002 	sbcne	r0, r0, #2, 0
  a8:	00040000 	andeq	r0, r4, r0
  ac:	00000000 	andeq	r0, r0, r0
  b0:	000083b8 			; <UNDEFINED> instruction: 0x000083b8
  b4:	00000740 	andeq	r0, r0, r0, asr #14
	...
  c0:	0000001c 	andeq	r0, r0, ip, lsl r0
  c4:	1d9b0002 	ldcne	0, cr0, [fp, #8]
  c8:	00040000 	andeq	r0, r4, r0
  cc:	00000000 	andeq	r0, r0, r0
  d0:	00008af8 	strdeq	r8, [r0], -r8	; <UNPREDICTABLE>
  d4:	00000020 	andeq	r0, r0, r0, lsr #32
	...
  e0:	0000001c 	andeq	r0, r0, ip, lsl r0
  e4:	1ea90002 	cdpne	0, 10, cr0, cr9, cr2, {0}
  e8:	00040000 	andeq	r0, r4, r0
  ec:	00000000 	andeq	r0, r0, r0
  f0:	00008b18 	andeq	r8, r0, r8, lsl fp
  f4:	0000002c 	andeq	r0, r0, ip, lsr #32
	...
 100:	0000001c 	andeq	r0, r0, ip, lsl r0
 104:	1fdc0002 	svcne	0x00dc0002
 108:	00040000 	andeq	r0, r4, r0
 10c:	00000000 	andeq	r0, r0, r0
 110:	00008b44 	andeq	r8, r0, r4, asr #22
 114:	0000003c 	andeq	r0, r0, ip, lsr r0
	...
 120:	0000001c 	andeq	r0, r0, ip, lsl r0
 124:	21690002 	cmncs	r9, r2
 128:	00040000 	andeq	r0, r4, r0
 12c:	00000000 	andeq	r0, r0, r0
 130:	00008b80 	andeq	r8, r0, r0, lsl #23
 134:	00000004 	andeq	r0, r0, r4
	...
 140:	0000001c 	andeq	r0, r0, ip, lsl r0
 144:	223b0002 	eorscs	r0, fp, #2, 0
 148:	00040000 	andeq	r0, r4, r0
 14c:	00000000 	andeq	r0, r0, r0
 150:	00008b9c 	muleq	r0, ip, fp
 154:	00000080 	andeq	r0, r0, r0, lsl #1
	...
 160:	0000001c 	andeq	r0, r0, ip, lsl r0
 164:	24750002 	ldrbtcs	r0, [r5], #-2
 168:	00040000 	andeq	r0, r4, r0
 16c:	00000000 	andeq	r0, r0, r0
 170:	00008c1c 	andeq	r8, r0, ip, lsl ip
 174:	00000084 	andeq	r0, r0, r4, lsl #1
	...
 180:	0000001c 	andeq	r0, r0, ip, lsl r0
 184:	26c60002 	strbcs	r0, [r6], r2
 188:	00040000 	andeq	r0, r4, r0
 18c:	00000000 	andeq	r0, r0, r0
 190:	00008ca0 	andeq	r8, r0, r0, lsr #25
 194:	0000011c 	andeq	r0, r0, ip, lsl r1
	...
 1a0:	0000001c 	andeq	r0, r0, ip, lsl r0
 1a4:	2a6f0002 	bcs	1bc01b4 <__bss_end__+0x1bb63f4>
 1a8:	00040000 	andeq	r0, r4, r0
 1ac:	00000000 	andeq	r0, r0, r0
 1b0:	00008dbc 			; <UNDEFINED> instruction: 0x00008dbc
 1b4:	000001f0 	strdeq	r0, [r0], -r0	; <UNPREDICTABLE>
	...
 1c0:	0000001c 	andeq	r0, r0, ip, lsl r0
 1c4:	30400002 	subcc	r0, r0, r2
 1c8:	00040000 	andeq	r0, r4, r0
 1cc:	00000000 	andeq	r0, r0, r0
 1d0:	00008fac 	andeq	r8, r0, ip, lsr #31
 1d4:	0000003c 	andeq	r0, r0, ip, lsr r0
	...
 1e0:	0000001c 	andeq	r0, r0, ip, lsl r0
 1e4:	318d0002 	orrcc	r0, sp, r2
 1e8:	00040000 	andeq	r0, r4, r0
 1ec:	00000000 	andeq	r0, r0, r0
 1f0:	00008fe8 	andeq	r8, r0, r8, ror #31
 1f4:	00000034 	andeq	r0, r0, r4, lsr r0
	...
 200:	0000001c 	andeq	r0, r0, ip, lsl r0
 204:	32c80002 	sbccc	r0, r8, #2, 0
 208:	00040000 	andeq	r0, r4, r0
 20c:	00000000 	andeq	r0, r0, r0
 210:	0000901c 	andeq	r9, r0, ip, lsl r0
 214:	0000002c 	andeq	r0, r0, ip, lsr #32
	...
 220:	0000001c 	andeq	r0, r0, ip, lsl r0
 224:	33c30002 	biccc	r0, r3, #2, 0
 228:	00040000 	andeq	r0, r4, r0
 22c:	00000000 	andeq	r0, r0, r0
 230:	00009048 	andeq	r9, r0, r8, asr #32
 234:	00000020 	andeq	r0, r0, r0, lsr #32
	...
 240:	0000001c 	andeq	r0, r0, ip, lsl r0
 244:	34d60002 	ldrbcc	r0, [r6], #2
 248:	00040000 	andeq	r0, r4, r0
 24c:	00000000 	andeq	r0, r0, r0
 250:	00009068 	andeq	r9, r0, r8, rrx
 254:	0000002c 	andeq	r0, r0, ip, lsr #32
	...
 260:	0000001c 	andeq	r0, r0, ip, lsl r0
 264:	36280002 	strtcc	r0, [r8], -r2
 268:	00040000 	andeq	r0, r4, r0
 26c:	00000000 	andeq	r0, r0, r0
 270:	00009094 	muleq	r0, r4, r0
 274:	00000004 	andeq	r0, r0, r4
	...

Disassembly of section .debug_ranges:

00000000 <.debug_ranges>:
   0:	0000000c 	andeq	r0, r0, ip
   4:	0000000c 	andeq	r0, r0, ip
   8:	00000010 	andeq	r0, r0, r0, lsl r0
   c:	00000030 	andeq	r0, r0, r0, lsr r0
	...
  18:	000000a0 	andeq	r0, r0, r0, lsr #1
  1c:	000000a0 	andeq	r0, r0, r0, lsr #1
  20:	000000a4 	andeq	r0, r0, r4, lsr #1
  24:	000000ac 	andeq	r0, r0, ip, lsr #1
	...
  30:	000000d0 	ldrdeq	r0, [r0], -r0	; <UNPREDICTABLE>
  34:	000000d0 	ldrdeq	r0, [r0], -r0	; <UNPREDICTABLE>
  38:	000000d4 	ldrdeq	r0, [r0], -r4
  3c:	000000dc 	ldrdeq	r0, [r0], -ip
	...
  48:	000000f0 	strdeq	r0, [r0], -r0	; <UNPREDICTABLE>
  4c:	000000f0 	strdeq	r0, [r0], -r0	; <UNPREDICTABLE>
  50:	000000f0 	strdeq	r0, [r0], -r0	; <UNPREDICTABLE>
  54:	000000f4 	strdeq	r0, [r0], -r4
	...
  60:	00000014 	andeq	r0, r0, r4, lsl r0
  64:	00000018 	andeq	r0, r0, r8, lsl r0
  68:	00000028 	andeq	r0, r0, r8, lsr #32
  6c:	0000002c 	andeq	r0, r0, ip, lsr #32
  70:	00000030 	andeq	r0, r0, r0, lsr r0
  74:	0000008c 	andeq	r0, r0, ip, lsl #1
	...
  80:	00008af8 	strdeq	r8, [r0], -r8	; <UNPREDICTABLE>
  84:	00008b18 	andeq	r8, r0, r8, lsl fp
	...
  90:	00008b9c 	muleq	r0, ip, fp
  94:	00008c1c 	andeq	r8, r0, ip, lsl ip
	...
  a0:	00009068 	andeq	r9, r0, r8, rrx
  a4:	00009094 	muleq	r0, r4, r0
	...

Disassembly of section .debug_line:

00000000 <.debug_line>:
       0:	00000162 	andeq	r0, r0, r2, ror #2
       4:	00f20003 	rscseq	r0, r2, r3
       8:	01020000 	mrseq	r0, (UNDEF: 2)
       c:	000d0efb 	strdeq	r0, [sp], -fp
      10:	01010101 	tsteq	r1, r1, lsl #2
      14:	01000000 	mrseq	r0, (UNDEF: 0)
      18:	74010000 	strvc	r0, [r1], #-0
      1c:	73747365 	cmnvc	r4, #-1811939327	; 0x94000001
      20:	73552f00 	cmpvc	r5, #0, 30
      24:	2f737265 	svccs	0x00737265
      28:	696d616a 	stmdbvs	sp!, {r1, r3, r5, r6, r8, sp, lr}^
      2c:	6f442f65 	svcvs	0x00442f65
      30:	656d7563 	strbvs	r7, [sp, #-1379]!	; 0xfffffa9d
      34:	2f73746e 	svccs	0x0073746e
      38:	34315343 	ldrtcc	r5, [r1], #-835	; 0xfffffcbd
      3c:	632f4530 			; <UNDEFINED> instruction: 0x632f4530
      40:	30343173 	eorscc	r3, r4, r3, ror r1
      44:	69662d45 	stmdbvs	r6!, {r0, r2, r6, r8, sl, fp, sp}^
      48:	2d6c616e 	stfcse	f6, [ip, #-440]!	; 0xfffffe48
      4c:	6a6f7270 	bvs	1bdca14 <__bss_end__+0x1bd2c54>
      50:	2f746365 	svccs	0x00746365
      54:	7362696c 	cmnvc	r2, #108, 18	; 0x1b0000
      58:	3034322d 	eorscc	r3, r4, sp, lsr #4
      5c:	6c2f786c 	stcvs	8, cr7, [pc], #-432	; fffffeb4 <__bss_end__+0xffff60f4>
      60:	69706269 	ldmdbvs	r0!, {r0, r3, r5, r6, r9, sp, lr}^
      64:	636e692f 	cmnvs	lr, #770048	; 0xbc000
      68:	6564756c 	strbvs	r7, [r4, #-1388]!	; 0xfffffa94
      6c:	2f002e00 	svccs	0x00002e00
      70:	2f727375 	svccs	0x00727375
      74:	61636f6c 	cmnvs	r3, ip, ror #30
      78:	65432f6c 	strbvs	r2, [r3, #-3948]	; 0xfffff094
      7c:	72616c6c 	rsbvc	r6, r1, #108, 24	; 0x6c00
      80:	6d72612f 	ldfvse	f6, [r2, #-188]!	; 0xffffff44
      84:	6e6f6e2d 	cdpvs	14, 6, cr6, cr15, cr13, {1}
      88:	61652d65 	cmnvs	r5, r5, ror #26
      8c:	742d6962 	strtvc	r6, [sp], #-2402	; 0xfffff69e
      90:	2f747365 	svccs	0x00747365
      94:	30322d39 	eorscc	r2, r2, r9, lsr sp
      98:	34713931 	ldrbtcc	r3, [r1], #-2353	; 0xfffff6cf
      9c:	3173632d 	cmncc	r3, sp, lsr #6
      a0:	2f653730 	svccs	0x00653730
      a4:	2f62696c 	svccs	0x0062696c
      a8:	2f636367 	svccs	0x00636367
      ac:	2d6d7261 	sfmcs	f7, 2, [sp, #-388]!	; 0xfffffe7c
      b0:	656e6f6e 	strbvs	r6, [lr, #-3950]!	; 0xfffff092
      b4:	6261652d 	rsbvs	r6, r1, #188743680	; 0xb400000
      b8:	2e392f69 	cdpcs	15, 3, cr2, cr9, cr9, {3}
      bc:	2f312e32 	svccs	0x00312e32
      c0:	6c636e69 	stclvs	14, cr6, [r3], #-420	; 0xfffffe5c
      c4:	00656475 	rsbeq	r6, r5, r5, ror r4
      c8:	692d3100 	pushvs	{r8, ip, sp}
      cc:	742d7332 	strtvc	r7, [sp], #-818	; 0xfffffcce
      d0:	2e747365 	cdpcs	3, 7, cr7, cr4, cr5, {3}
      d4:	00010063 	andeq	r0, r1, r3, rrx
      d8:	69707200 	ldmdbvs	r0!, {r9, ip, sp, lr}^
      dc:	0200682e 	andeq	r6, r0, #3014656	; 0x2e0000
      e0:	32690000 	rsbcc	r0, r9, #0, 0
      e4:	00682e73 	rsbeq	r2, r8, r3, ror lr
      e8:	73000003 	movwvc	r0, #3
      ec:	6e696474 	mcrvs	4, 3, r6, cr9, cr4, {3}
      f0:	63672d74 	cmnvs	r7, #116, 26	; 0x1d00
      f4:	00682e63 	rsbeq	r2, r8, r3, ror #28
      f8:	00000004 	andeq	r0, r0, r4
      fc:	05001405 	streq	r1, [r0, #-1029]	; 0xfffffbfb
     100:	00803802 	addeq	r3, r0, r2, lsl #16
     104:	05051900 	streq	r1, [r5, #-2304]	; 0xfffff700
     108:	06140513 			; <UNDEFINED> instruction: 0x06140513
     10c:	2f050511 	svccs	0x00050511
     110:	05333006 	ldreq	r3, [r3, #-6]!
     114:	1505010a 	strne	r0, [r5, #-266]	; 0xfffffef6
     118:	06050501 	streq	r0, [r5], -r1, lsl #10
     11c:	3509050d 	strcc	r0, [r9, #-1293]	; 0xfffffaf3
     120:	03040200 	movweq	r0, #16896	; 0x4200
     124:	1a052d06 	bne	14b544 <__bss_end__+0x141784>
     128:	03040200 	movweq	r0, #16896	; 0x4200
     12c:	09050106 	stmdbeq	r5, {r1, r2, r8}
     130:	03040200 	movweq	r0, #16896	; 0x4200
     134:	02004b06 	andeq	r4, r0, #6144	; 0x1800
     138:	2e060304 	cdpcs	3, 0, cr0, cr6, cr4, {0}
     13c:	03040200 	movweq	r0, #16896	; 0x4200
     140:	0021054a 	eoreq	r0, r1, sl, asr #10
     144:	06030402 	streq	r0, [r3], -r2, lsl #8
     148:	00150510 	andseq	r0, r5, r0, lsl r5
     14c:	01030402 	tsteq	r3, r2, lsl #8
     150:	02000505 	andeq	r0, r0, #20971520	; 0x1400000
     154:	01060304 	tsteq	r6, r4, lsl #6
     158:	01054f06 	tsteq	r5, r6, lsl #30
     15c:	05052f06 	streq	r2, [r5, #-3846]	; 0xfffff0fa
     160:	0008022d 	andeq	r0, r8, sp, lsr #4
     164:	0a9e0101 	beq	fe780570 <__bss_end__+0xfe7767b0>
     168:	00030000 	andeq	r0, r3, r0
     16c:	00000147 	andeq	r0, r0, r7, asr #2
     170:	0efb0102 	cdpeq	1, 15, cr0, cr11, cr2, {0}
     174:	0101000d 	tsteq	r1, sp
     178:	00000101 	andeq	r0, r0, r1, lsl #2
     17c:	00000100 	andeq	r0, r0, r0, lsl #2
     180:	73552f01 	cmpvc	r5, #1, 30
     184:	2f737265 	svccs	0x00737265
     188:	696d616a 	stmdbvs	sp!, {r1, r3, r5, r6, r8, sp, lr}^
     18c:	6f442f65 	svcvs	0x00442f65
     190:	656d7563 	strbvs	r7, [sp, #-1379]!	; 0xfffffa9d
     194:	2f73746e 	svccs	0x0073746e
     198:	34315343 	ldrtcc	r5, [r1], #-835	; 0xfffffcbd
     19c:	632f4530 			; <UNDEFINED> instruction: 0x632f4530
     1a0:	30343173 	eorscc	r3, r4, r3, ror r1
     1a4:	69662d45 	stmdbvs	r6!, {r0, r2, r6, r8, sl, fp, sp}^
     1a8:	2d6c616e 	stfcse	f6, [ip, #-440]!	; 0xfffffe48
     1ac:	6a6f7270 	bvs	1bdcb74 <__bss_end__+0x1bd2db4>
     1b0:	2f746365 	svccs	0x00746365
     1b4:	7362696c 	cmnvc	r2, #108, 18	; 0x1b0000
     1b8:	3034322d 	eorscc	r3, r4, sp, lsr #4
     1bc:	6c2f786c 	stcvs	8, cr7, [pc], #-432	; 14 <__code_start__-0x7fec>
     1c0:	69706269 	ldmdbvs	r0!, {r0, r3, r5, r6, r9, sp, lr}^
     1c4:	62696c2f 	rsbvs	r6, r9, #12032	; 0x2f00
     1c8:	752f0063 	strvc	r0, [pc, #-99]!	; 16d <__code_start__-0x7e93>
     1cc:	6c2f7273 	sfmvs	f7, 4, [pc], #-460	; 8 <__code_start__-0x7ff8>
     1d0:	6c61636f 	stclvs	3, cr6, [r1], #-444	; 0xfffffe44
     1d4:	6c65432f 	stclvs	3, cr4, [r5], #-188	; 0xffffff44
     1d8:	2f72616c 	svccs	0x0072616c
     1dc:	2d6d7261 	sfmcs	f7, 2, [sp, #-388]!	; 0xfffffe7c
     1e0:	656e6f6e 	strbvs	r6, [lr, #-3950]!	; 0xfffff092
     1e4:	6261652d 	rsbvs	r6, r1, #188743680	; 0xb400000
     1e8:	65742d69 	ldrbvs	r2, [r4, #-3433]!	; 0xfffff297
     1ec:	392f7473 	stmdbcc	pc!, {r0, r1, r4, r5, r6, sl, ip, sp, lr}	; <UNPREDICTABLE>
     1f0:	3130322d 	teqcc	r0, sp, lsr #4
     1f4:	2d347139 	ldfcss	f7, [r4, #-228]!	; 0xffffff1c
     1f8:	30317363 	eorscc	r7, r1, r3, ror #6
     1fc:	6c2f6537 	cfstr32vs	mvfx6, [pc], #-220	; 128 <__code_start__-0x7ed8>
     200:	672f6269 	strvs	r6, [pc, -r9, ror #4]!
     204:	612f6363 			; <UNDEFINED> instruction: 0x612f6363
     208:	6e2d6d72 	mcrvs	13, 1, r6, cr13, cr2, {3}
     20c:	2d656e6f 	stclcs	14, cr6, [r5, #-444]!	; 0xfffffe44
     210:	69626165 	stmdbvs	r2!, {r0, r2, r5, r6, r8, sp, lr}^
     214:	322e392f 	eorcc	r3, lr, #770048	; 0xbc000
     218:	692f312e 	stmdbvs	pc!, {r1, r2, r3, r5, r8, ip, sp}	; <UNPREDICTABLE>
     21c:	756c636e 	strbvc	r6, [ip, #-878]!	; 0xfffffc92
     220:	2f006564 	svccs	0x00006564
     224:	72657355 	rsbvc	r7, r5, #1409286145	; 0x54000001
     228:	616a2f73 	smcvs	41715	; 0xa2f3
     22c:	2f65696d 	svccs	0x0065696d
     230:	75636f44 	strbvc	r6, [r3, #-3908]!	; 0xfffff0bc
     234:	746e656d 	strbtvc	r6, [lr], #-1389	; 0xfffffa93
     238:	53432f73 	movtpl	r2, #16243	; 0x3f73
     23c:	45303431 	ldrmi	r3, [r0, #-1073]!	; 0xfffffbcf
     240:	3173632f 	cmncc	r3, pc, lsr #6
     244:	2d453034 	stclcs	0, cr3, [r5, #-208]	; 0xffffff30
     248:	616e6966 	cmnvs	lr, r6, ror #18
     24c:	72702d6c 	rsbsvc	r2, r0, #108, 26	; 0x1b00
     250:	63656a6f 	cmnvs	r5, #454656	; 0x6f000
     254:	696c2f74 	stmdbvs	ip!, {r2, r4, r5, r6, r8, r9, sl, fp, sp}^
     258:	322d7362 	eorcc	r7, sp, #-2013265919	; 0x88000001
     25c:	786c3034 	stmdavc	ip!, {r2, r4, r5, ip, sp}^
     260:	62696c2f 	rsbvs	r6, r9, #12032	; 0x2f00
     264:	692f6970 	stmdbvs	pc!, {r4, r5, r6, r8, fp, sp, lr}	; <UNPREDICTABLE>
     268:	756c636e 	strbvc	r6, [ip, #-878]!	; 0xfffffc92
     26c:	00006564 	andeq	r6, r0, r4, ror #10
     270:	2d746962 			; <UNDEFINED> instruction: 0x2d746962
     274:	70707573 	rsbsvc	r7, r0, r3, ror r5
     278:	2e74726f 	cdpcs	2, 7, cr7, cr4, cr15, {3}
     27c:	00010068 	andeq	r0, r1, r8, rrx
     280:	73326900 	teqvc	r2, #0, 18
     284:	0000632e 	andeq	r6, r0, lr, lsr #6
     288:	74730000 	ldrbtvc	r0, [r3], #-0
     28c:	746e6964 	strbtvc	r6, [lr], #-2404	; 0xfffff69c
     290:	6363672d 	cmnvs	r3, #11796480	; 0xb40000
     294:	0200682e 	andeq	r6, r0, #3014656	; 0x2e0000
     298:	70720000 	rsbsvc	r0, r2, r0
     29c:	00682e69 	rsbeq	r2, r8, r9, ror #28
     2a0:	69000003 	stmdbvs	r0, {r0, r1}
     2a4:	682e7332 	stmdavs	lr!, {r1, r4, r5, r8, r9, ip, sp, lr}
     2a8:	00000000 	andeq	r0, r0, r0
     2ac:	6f697067 	svcvs	0x00697067
     2b0:	0300682e 	movweq	r6, #2094	; 0x82e
     2b4:	05000000 	streq	r0, [r0, #-0]
     2b8:	02050001 	andeq	r0, r5, #1, 0
     2bc:	00008080 	andeq	r8, r0, r0, lsl #1
     2c0:	0100cc03 	tsteq	r0, r3, lsl #24
     2c4:	0b030505 	bleq	c16e0 <__bss_end__+0xb7920>
     2c8:	01050101 	tsteq	r5, r1, lsl #2
     2cc:	01750306 	cmneq	r5, r6, lsl #6
     2d0:	0b030505 	bleq	c16ec <__bss_end__+0xb792c>
     2d4:	0301052e 	movweq	r0, #5422	; 0x152e
     2d8:	05052e75 	streq	r2, [r5, #-3701]	; 0xfffff18b
     2dc:	062e0b03 	strteq	r0, [lr], -r3, lsl #22
     2e0:	050204ba 	streq	r0, [r2, #-1210]	; 0xfffffb46
     2e4:	7fbc0325 	svcvc	0x00bc0325
     2e8:	1605059e 			; <UNDEFINED> instruction: 0x1605059e
     2ec:	13060105 	movwne	r0, #24837	; 0x6105
     2f0:	0615052e 	ldreq	r0, [r5], -lr, lsr #10
     2f4:	13050530 	movwne	r0, #21808	; 0x5530
     2f8:	06150501 	ldreq	r0, [r5], -r1, lsl #10
     2fc:	2f050511 	svccs	0x00050511
     300:	052d1505 	streq	r1, [sp, #-1285]!	; 0xfffffafb
     304:	01042f05 	tsteq	r4, r5, lsl #30
     308:	010d3606 	tsteq	sp, r6, lsl #12
     30c:	04130101 	ldreq	r0, [r3], #-257	; 0xfffffeff
     310:	000e0602 	andeq	r0, lr, r2, lsl #12
     314:	06020402 	streq	r0, [r2], -r2, lsl #8
     318:	0402004a 	streq	r0, [r2], #-74	; 0xffffffb6
     31c:	02000102 	andeq	r0, r0, #-2147483648	; 0x80000000
     320:	00160204 	andseq	r0, r6, r4, lsl #4
     324:	67020402 	strvs	r0, [r2, -r2, lsl #8]
     328:	02040200 	andeq	r0, r4, #0, 4
     32c:	04020067 	streq	r0, [r2], #-103	; 0xffffff99
     330:	02006802 	andeq	r6, r0, #131072	; 0x20000
     334:	004b0204 	subeq	r0, fp, r4, lsl #4
     338:	4b020402 	blmi	81348 <__bss_end__+0x77588>
     33c:	02040200 	andeq	r0, r4, #0, 4
     340:	0402004c 	streq	r0, [r2], #-76	; 0xffffffb4
     344:	14053102 	strne	r3, [r5], #-258	; 0xfffffefe
     348:	02040200 	andeq	r0, r4, #0, 4
     34c:	05050106 	streq	r0, [r5, #-262]	; 0xfffffefa
     350:	02040200 	andeq	r0, r4, #0, 4
     354:	01044b06 	tsteq	r4, r6, lsl #22
     358:	02040200 	andeq	r0, r4, #0, 4
     35c:	00012203 	andeq	r2, r1, r3, lsl #4
     360:	01020402 	tsteq	r2, r2, lsl #8
     364:	02040200 	andeq	r0, r4, #0, 4
     368:	04020001 	streq	r0, [r2], #-1
     36c:	02000102 	andeq	r0, r0, #-2147483648	; 0x80000000
     370:	00130204 	andseq	r0, r3, r4, lsl #4
     374:	01020402 	tsteq	r2, r2, lsl #8
     378:	02040200 	andeq	r0, r4, #0, 4
     37c:	04020001 	streq	r0, [r2], #-1
     380:	02000102 	andeq	r0, r0, #-2147483648	; 0x80000000
     384:	00190204 	andseq	r0, r9, r4, lsl #4
     388:	13020402 	movwne	r0, #9218	; 0x2402
     38c:	02040200 	andeq	r0, r4, #0, 4
     390:	04020001 	streq	r0, [r2], #-1
     394:	02000102 	andeq	r0, r0, #-2147483648	; 0x80000000
     398:	00010204 	andeq	r0, r1, r4, lsl #4
     39c:	13020402 	movwne	r0, #9218	; 0x2402
     3a0:	02040200 	andeq	r0, r4, #0, 4
     3a4:	04020001 	streq	r0, [r2], #-1
     3a8:	01590302 	cmpeq	r9, r2, lsl #6
     3ac:	02040200 	andeq	r0, r4, #0, 4
     3b0:	04020014 	streq	r0, [r2], #-20	; 0xffffffec
     3b4:	02000102 	andeq	r0, r0, #-2147483648	; 0x80000000
     3b8:	00010204 	andeq	r0, r1, r4, lsl #4
     3bc:	01020402 	tsteq	r2, r2, lsl #8
     3c0:	02040200 	andeq	r0, r4, #0, 4
     3c4:	04020013 	streq	r0, [r2], #-19	; 0xffffffed
     3c8:	01240302 			; <UNDEFINED> instruction: 0x01240302
     3cc:	02040200 	andeq	r0, r4, #0, 4
     3d0:	04020001 	streq	r0, [r2], #-1
     3d4:	02001402 	andeq	r1, r0, #33554432	; 0x2000000
     3d8:	68030204 	stmdavs	r3, {r2, r9}
     3dc:	04020001 	streq	r0, [r2], #-1
     3e0:	02000102 	andeq	r0, r0, #-2147483648	; 0x80000000
     3e4:	00010204 	andeq	r0, r1, r4, lsl #4
     3e8:	01020402 	tsteq	r2, r2, lsl #8
     3ec:	02040200 	andeq	r0, r4, #0, 4
     3f0:	04020013 	streq	r0, [r2], #-19	; 0xffffffed
     3f4:	02000102 	andeq	r0, r0, #-2147483648	; 0x80000000
     3f8:	00010204 	andeq	r0, r1, r4, lsl #4
     3fc:	01020402 	tsteq	r2, r2, lsl #8
     400:	02040200 	andeq	r0, r4, #0, 4
     404:	04020014 	streq	r0, [r2], #-20	; 0xffffffec
     408:	016c0302 	cmneq	ip, r2, lsl #6
     40c:	02040200 	andeq	r0, r4, #0, 4
     410:	04020014 	streq	r0, [r2], #-20	; 0xffffffec
     414:	02000102 	andeq	r0, r0, #-2147483648	; 0x80000000
     418:	00010204 	andeq	r0, r1, r4, lsl #4
     41c:	01020402 	tsteq	r2, r2, lsl #8
     420:	02040200 	andeq	r0, r4, #0, 4
     424:	04020013 	streq	r0, [r2], #-19	; 0xffffffed
     428:	01140302 	tsteq	r4, r2, lsl #6
     42c:	02000204 	andeq	r0, r0, #4, 4	; 0x40000000
     430:	65030204 	strvs	r0, [r3, #-516]	; 0xfffffdfc
     434:	00010401 	andeq	r0, r1, r1, lsl #8
     438:	03020402 	movweq	r0, #9218	; 0x2402
     43c:	02000121 	andeq	r0, r0, #1073741832	; 0x40000008
     440:	00010204 	andeq	r0, r1, r4, lsl #4
     444:	01020402 	tsteq	r2, r2, lsl #8
     448:	02040200 	andeq	r0, r4, #0, 4
     44c:	04020001 	streq	r0, [r2], #-1
     450:	02001302 	andeq	r1, r0, #134217728	; 0x8000000
     454:	00010204 	andeq	r0, r1, r4, lsl #4
     458:	01020402 	tsteq	r2, r2, lsl #8
     45c:	02040200 	andeq	r0, r4, #0, 4
     460:	04020001 	streq	r0, [r2], #-1
     464:	02001902 	andeq	r1, r0, #32768	; 0x8000
     468:	00130204 	andseq	r0, r3, r4, lsl #4
     46c:	01020402 	tsteq	r2, r2, lsl #8
     470:	02040200 	andeq	r0, r4, #0, 4
     474:	04020001 	streq	r0, [r2], #-1
     478:	02000102 	andeq	r0, r0, #-2147483648	; 0x80000000
     47c:	00130204 	andseq	r0, r3, r4, lsl #4
     480:	01020402 	tsteq	r2, r2, lsl #8
     484:	02040200 	andeq	r0, r4, #0, 4
     488:	00015903 	andeq	r5, r1, r3, lsl #18
     48c:	14020402 	strne	r0, [r2], #-1026	; 0xfffffbfe
     490:	02040200 	andeq	r0, r4, #0, 4
     494:	04020001 	streq	r0, [r2], #-1
     498:	02000102 	andeq	r0, r0, #-2147483648	; 0x80000000
     49c:	00010204 	andeq	r0, r1, r4, lsl #4
     4a0:	13020402 	movwne	r0, #9218	; 0x2402
     4a4:	02040200 	andeq	r0, r4, #0, 4
     4a8:	00012403 	andeq	r2, r1, r3, lsl #8
     4ac:	01020402 	tsteq	r2, r2, lsl #8
     4b0:	02040200 	andeq	r0, r4, #0, 4
     4b4:	04020014 	streq	r0, [r2], #-20	; 0xffffffec
     4b8:	01680302 	cmneq	r8, r2, lsl #6
     4bc:	02040200 	andeq	r0, r4, #0, 4
     4c0:	04020001 	streq	r0, [r2], #-1
     4c4:	02000102 	andeq	r0, r0, #-2147483648	; 0x80000000
     4c8:	00010204 	andeq	r0, r1, r4, lsl #4
     4cc:	13020402 	movwne	r0, #9218	; 0x2402
     4d0:	02040200 	andeq	r0, r4, #0, 4
     4d4:	04020001 	streq	r0, [r2], #-1
     4d8:	02000102 	andeq	r0, r0, #-2147483648	; 0x80000000
     4dc:	00010204 	andeq	r0, r1, r4, lsl #4
     4e0:	14020402 	strne	r0, [r2], #-1026	; 0xfffffbfe
     4e4:	02040200 	andeq	r0, r4, #0, 4
     4e8:	00016c03 	andeq	r6, r1, r3, lsl #24
     4ec:	14020402 	strne	r0, [r2], #-1026	; 0xfffffbfe
     4f0:	02040200 	andeq	r0, r4, #0, 4
     4f4:	04020001 	streq	r0, [r2], #-1
     4f8:	02000102 	andeq	r0, r0, #-2147483648	; 0x80000000
     4fc:	00010204 	andeq	r0, r1, r4, lsl #4
     500:	13020402 	movwne	r0, #9218	; 0x2402
     504:	02040200 	andeq	r0, r4, #0, 4
     508:	04011403 	streq	r1, [r1], #-1027	; 0xfffffbfd
     50c:	04020002 	streq	r0, [r2], #-2
     510:	01660302 	cmneq	r6, r2, lsl #6
     514:	02000a05 	andeq	r0, r0, #20480	; 0x5000
     518:	66030204 	strvs	r0, [r3], -r4, lsl #4
     51c:	00050501 	andeq	r0, r5, r1, lsl #10
     520:	16020402 	strne	r0, [r2], -r2, lsl #8
     524:	02040200 	andeq	r0, r4, #0, 4
     528:	02000106 	andeq	r0, r0, #-2147483647	; 0x80000001
     52c:	03060204 	movweq	r0, #25092	; 0x6204
     530:	10050117 	andne	r0, r5, r7, lsl r1
     534:	02040200 	andeq	r0, r4, #0, 4
     538:	2e690306 	cdpcs	3, 6, cr0, cr9, cr6, {0}
     53c:	02040200 	andeq	r0, r4, #0, 4
     540:	0005052e 	andeq	r0, r5, lr, lsr #10
     544:	03020402 	movweq	r0, #9218	; 0x2402
     548:	02002e17 	andeq	r2, r0, #368	; 0x170
     54c:	69060204 	stmdbvs	r6, {r2, r9}
     550:	02040200 	andeq	r0, r4, #0, 4
     554:	00010413 	andeq	r0, r1, r3, lsl r4
     558:	03020402 	movweq	r0, #9218	; 0x2402
     55c:	0200011b 	andeq	r0, r0, #-1073741818	; 0xc0000006
     560:	00010204 	andeq	r0, r1, r4, lsl #4
     564:	01020402 	tsteq	r2, r2, lsl #8
     568:	02040200 	andeq	r0, r4, #0, 4
     56c:	04020001 	streq	r0, [r2], #-1
     570:	02001302 	andeq	r1, r0, #134217728	; 0x8000000
     574:	00010204 	andeq	r0, r1, r4, lsl #4
     578:	01020402 	tsteq	r2, r2, lsl #8
     57c:	02040200 	andeq	r0, r4, #0, 4
     580:	04020001 	streq	r0, [r2], #-1
     584:	02001902 	andeq	r1, r0, #32768	; 0x8000
     588:	00130204 	andseq	r0, r3, r4, lsl #4
     58c:	01020402 	tsteq	r2, r2, lsl #8
     590:	02040200 	andeq	r0, r4, #0, 4
     594:	04020001 	streq	r0, [r2], #-1
     598:	02000102 	andeq	r0, r0, #-2147483648	; 0x80000000
     59c:	00130204 	andseq	r0, r3, r4, lsl #4
     5a0:	01020402 	tsteq	r2, r2, lsl #8
     5a4:	02040200 	andeq	r0, r4, #0, 4
     5a8:	00015903 	andeq	r5, r1, r3, lsl #18
     5ac:	14020402 	strne	r0, [r2], #-1026	; 0xfffffbfe
     5b0:	02040200 	andeq	r0, r4, #0, 4
     5b4:	04020001 	streq	r0, [r2], #-1
     5b8:	02000102 	andeq	r0, r0, #-2147483648	; 0x80000000
     5bc:	00010204 	andeq	r0, r1, r4, lsl #4
     5c0:	13020402 	movwne	r0, #9218	; 0x2402
     5c4:	02040200 	andeq	r0, r4, #0, 4
     5c8:	00012403 	andeq	r2, r1, r3, lsl #8
     5cc:	01020402 	tsteq	r2, r2, lsl #8
     5d0:	02040200 	andeq	r0, r4, #0, 4
     5d4:	04020014 	streq	r0, [r2], #-20	; 0xffffffec
     5d8:	01680302 	cmneq	r8, r2, lsl #6
     5dc:	02040200 	andeq	r0, r4, #0, 4
     5e0:	04020001 	streq	r0, [r2], #-1
     5e4:	02000102 	andeq	r0, r0, #-2147483648	; 0x80000000
     5e8:	00010204 	andeq	r0, r1, r4, lsl #4
     5ec:	13020402 	movwne	r0, #9218	; 0x2402
     5f0:	02040200 	andeq	r0, r4, #0, 4
     5f4:	04020001 	streq	r0, [r2], #-1
     5f8:	02000102 	andeq	r0, r0, #-2147483648	; 0x80000000
     5fc:	00010204 	andeq	r0, r1, r4, lsl #4
     600:	14020402 	strne	r0, [r2], #-1026	; 0xfffffbfe
     604:	02040200 	andeq	r0, r4, #0, 4
     608:	00016c03 	andeq	r6, r1, r3, lsl #24
     60c:	14020402 	strne	r0, [r2], #-1026	; 0xfffffbfe
     610:	02040200 	andeq	r0, r4, #0, 4
     614:	04020001 	streq	r0, [r2], #-1
     618:	02000102 	andeq	r0, r0, #-2147483648	; 0x80000000
     61c:	00010204 	andeq	r0, r1, r4, lsl #4
     620:	13020402 	movwne	r0, #9218	; 0x2402
     624:	02040200 	andeq	r0, r4, #0, 4
     628:	04011403 	streq	r1, [r1], #-1027	; 0xfffffbfd
     62c:	04020002 	streq	r0, [r2], #-2
     630:	016c0302 	cmneq	ip, r2, lsl #6
     634:	02000104 	andeq	r0, r0, #1
     638:	1a030204 	bne	c0e50 <__bss_end__+0xb7090>
     63c:	04020001 	streq	r0, [r2], #-1
     640:	02000102 	andeq	r0, r0, #-2147483648	; 0x80000000
     644:	00010204 	andeq	r0, r1, r4, lsl #4
     648:	01020402 	tsteq	r2, r2, lsl #8
     64c:	02040200 	andeq	r0, r4, #0, 4
     650:	04020013 	streq	r0, [r2], #-19	; 0xffffffed
     654:	02000102 	andeq	r0, r0, #-2147483648	; 0x80000000
     658:	00010204 	andeq	r0, r1, r4, lsl #4
     65c:	01020402 	tsteq	r2, r2, lsl #8
     660:	02040200 	andeq	r0, r4, #0, 4
     664:	04020019 	streq	r0, [r2], #-25	; 0xffffffe7
     668:	02001302 	andeq	r1, r0, #134217728	; 0x8000000
     66c:	00010204 	andeq	r0, r1, r4, lsl #4
     670:	01020402 	tsteq	r2, r2, lsl #8
     674:	02040200 	andeq	r0, r4, #0, 4
     678:	04020001 	streq	r0, [r2], #-1
     67c:	02001302 	andeq	r1, r0, #134217728	; 0x8000000
     680:	00010204 	andeq	r0, r1, r4, lsl #4
     684:	03020402 	movweq	r0, #9218	; 0x2402
     688:	02000159 	andeq	r0, r0, #1073741846	; 0x40000016
     68c:	00140204 	andseq	r0, r4, r4, lsl #4
     690:	01020402 	tsteq	r2, r2, lsl #8
     694:	02040200 	andeq	r0, r4, #0, 4
     698:	04020001 	streq	r0, [r2], #-1
     69c:	02000102 	andeq	r0, r0, #-2147483648	; 0x80000000
     6a0:	00130204 	andseq	r0, r3, r4, lsl #4
     6a4:	03020402 	movweq	r0, #9218	; 0x2402
     6a8:	02000124 	andeq	r0, r0, #9
     6ac:	00010204 	andeq	r0, r1, r4, lsl #4
     6b0:	14020402 	strne	r0, [r2], #-1026	; 0xfffffbfe
     6b4:	02040200 	andeq	r0, r4, #0, 4
     6b8:	00016803 	andeq	r6, r1, r3, lsl #16
     6bc:	01020402 	tsteq	r2, r2, lsl #8
     6c0:	02040200 	andeq	r0, r4, #0, 4
     6c4:	04020001 	streq	r0, [r2], #-1
     6c8:	02000102 	andeq	r0, r0, #-2147483648	; 0x80000000
     6cc:	00130204 	andseq	r0, r3, r4, lsl #4
     6d0:	01020402 	tsteq	r2, r2, lsl #8
     6d4:	02040200 	andeq	r0, r4, #0, 4
     6d8:	04020001 	streq	r0, [r2], #-1
     6dc:	02000102 	andeq	r0, r0, #-2147483648	; 0x80000000
     6e0:	00140204 	andseq	r0, r4, r4, lsl #4
     6e4:	03020402 	movweq	r0, #9218	; 0x2402
     6e8:	0200016c 	andeq	r0, r0, #27
     6ec:	00140204 	andseq	r0, r4, r4, lsl #4
     6f0:	01020402 	tsteq	r2, r2, lsl #8
     6f4:	02040200 	andeq	r0, r4, #0, 4
     6f8:	04020001 	streq	r0, [r2], #-1
     6fc:	02000102 	andeq	r0, r0, #-2147483648	; 0x80000000
     700:	00130204 	andseq	r0, r3, r4, lsl #4
     704:	03020402 	movweq	r0, #9218	; 0x2402
     708:	02040114 	andeq	r0, r4, #5
     70c:	02040200 	andeq	r0, r4, #0, 4
     710:	00016d03 	andeq	r6, r1, r3, lsl #26
     714:	03020402 	movweq	r0, #9218	; 0x2402
     718:	02000163 	andeq	r0, r0, #-1073741800	; 0xc0000018
     71c:	1e030204 	cdpne	2, 0, cr0, cr3, cr4, {0}
     720:	04020001 	streq	r0, [r2], #-1
     724:	02006802 	andeq	r6, r0, #131072	; 0x20000
     728:	05320204 	ldreq	r0, [r2, #-516]!	; 0xfffffdfc
     72c:	0402000b 	streq	r0, [r2], #-11
     730:	05010602 	streq	r0, [r1, #-1538]	; 0xfffff9fe
     734:	04020005 	streq	r0, [r2], #-5
     738:	044b0602 	strbeq	r0, [fp], #-1538	; 0xfffff9fe
     73c:	04020001 	streq	r0, [r2], #-1
     740:	01110302 	tsteq	r1, r2, lsl #6
     744:	02040200 	andeq	r0, r4, #0, 4
     748:	04020001 	streq	r0, [r2], #-1
     74c:	02000102 	andeq	r0, r0, #-2147483648	; 0x80000000
     750:	00010204 	andeq	r0, r1, r4, lsl #4
     754:	13020402 	movwne	r0, #9218	; 0x2402
     758:	02040200 	andeq	r0, r4, #0, 4
     75c:	04020001 	streq	r0, [r2], #-1
     760:	02000102 	andeq	r0, r0, #-2147483648	; 0x80000000
     764:	00010204 	andeq	r0, r1, r4, lsl #4
     768:	19020402 	stmdbne	r2, {r1, sl}
     76c:	02040200 	andeq	r0, r4, #0, 4
     770:	04020013 	streq	r0, [r2], #-19	; 0xffffffed
     774:	02000102 	andeq	r0, r0, #-2147483648	; 0x80000000
     778:	00010204 	andeq	r0, r1, r4, lsl #4
     77c:	01020402 	tsteq	r2, r2, lsl #8
     780:	02040200 	andeq	r0, r4, #0, 4
     784:	04020013 	streq	r0, [r2], #-19	; 0xffffffed
     788:	02000102 	andeq	r0, r0, #-2147483648	; 0x80000000
     78c:	59030204 	stmdbpl	r3, {r2, r9}
     790:	04020001 	streq	r0, [r2], #-1
     794:	02001402 	andeq	r1, r0, #33554432	; 0x2000000
     798:	00010204 	andeq	r0, r1, r4, lsl #4
     79c:	01020402 	tsteq	r2, r2, lsl #8
     7a0:	02040200 	andeq	r0, r4, #0, 4
     7a4:	04020001 	streq	r0, [r2], #-1
     7a8:	02001302 	andeq	r1, r0, #134217728	; 0x8000000
     7ac:	24030204 	strcs	r0, [r3], #-516	; 0xfffffdfc
     7b0:	04020001 	streq	r0, [r2], #-1
     7b4:	02000102 	andeq	r0, r0, #-2147483648	; 0x80000000
     7b8:	00140204 	andseq	r0, r4, r4, lsl #4
     7bc:	03020402 	movweq	r0, #9218	; 0x2402
     7c0:	02000168 	andeq	r0, r0, #26
     7c4:	00010204 	andeq	r0, r1, r4, lsl #4
     7c8:	01020402 	tsteq	r2, r2, lsl #8
     7cc:	02040200 	andeq	r0, r4, #0, 4
     7d0:	04020001 	streq	r0, [r2], #-1
     7d4:	02001302 	andeq	r1, r0, #134217728	; 0x8000000
     7d8:	00010204 	andeq	r0, r1, r4, lsl #4
     7dc:	01020402 	tsteq	r2, r2, lsl #8
     7e0:	02040200 	andeq	r0, r4, #0, 4
     7e4:	04020001 	streq	r0, [r2], #-1
     7e8:	02001402 	andeq	r1, r0, #33554432	; 0x2000000
     7ec:	6c030204 	sfmvs	f0, 4, [r3], {4}
     7f0:	04020001 	streq	r0, [r2], #-1
     7f4:	02001402 	andeq	r1, r0, #33554432	; 0x2000000
     7f8:	00010204 	andeq	r0, r1, r4, lsl #4
     7fc:	01020402 	tsteq	r2, r2, lsl #8
     800:	02040200 	andeq	r0, r4, #0, 4
     804:	04020001 	streq	r0, [r2], #-1
     808:	02001302 	andeq	r1, r0, #134217728	; 0x8000000
     80c:	14030204 	strne	r0, [r3], #-516	; 0xfffffdfc
     810:	00020401 	andeq	r0, r2, r1, lsl #8
     814:	03020402 	movweq	r0, #9218	; 0x2402
     818:	01040176 	tsteq	r4, r6, ror r1
     81c:	02040200 	andeq	r0, r4, #0, 4
     820:	00011003 	andeq	r1, r1, r3
     824:	01020402 	tsteq	r2, r2, lsl #8
     828:	02040200 	andeq	r0, r4, #0, 4
     82c:	04020001 	streq	r0, [r2], #-1
     830:	02000102 	andeq	r0, r0, #-2147483648	; 0x80000000
     834:	00130204 	andseq	r0, r3, r4, lsl #4
     838:	01020402 	tsteq	r2, r2, lsl #8
     83c:	02040200 	andeq	r0, r4, #0, 4
     840:	04020001 	streq	r0, [r2], #-1
     844:	02000102 	andeq	r0, r0, #-2147483648	; 0x80000000
     848:	00190204 	andseq	r0, r9, r4, lsl #4
     84c:	13020402 	movwne	r0, #9218	; 0x2402
     850:	02040200 	andeq	r0, r4, #0, 4
     854:	04020001 	streq	r0, [r2], #-1
     858:	02000102 	andeq	r0, r0, #-2147483648	; 0x80000000
     85c:	00010204 	andeq	r0, r1, r4, lsl #4
     860:	13020402 	movwne	r0, #9218	; 0x2402
     864:	02040200 	andeq	r0, r4, #0, 4
     868:	04020001 	streq	r0, [r2], #-1
     86c:	01590302 	cmpeq	r9, r2, lsl #6
     870:	02040200 	andeq	r0, r4, #0, 4
     874:	04020014 	streq	r0, [r2], #-20	; 0xffffffec
     878:	02000102 	andeq	r0, r0, #-2147483648	; 0x80000000
     87c:	00010204 	andeq	r0, r1, r4, lsl #4
     880:	01020402 	tsteq	r2, r2, lsl #8
     884:	02040200 	andeq	r0, r4, #0, 4
     888:	04020013 	streq	r0, [r2], #-19	; 0xffffffed
     88c:	01240302 			; <UNDEFINED> instruction: 0x01240302
     890:	02040200 	andeq	r0, r4, #0, 4
     894:	04020001 	streq	r0, [r2], #-1
     898:	02001402 	andeq	r1, r0, #33554432	; 0x2000000
     89c:	68030204 	stmdavs	r3, {r2, r9}
     8a0:	04020001 	streq	r0, [r2], #-1
     8a4:	02000102 	andeq	r0, r0, #-2147483648	; 0x80000000
     8a8:	00010204 	andeq	r0, r1, r4, lsl #4
     8ac:	01020402 	tsteq	r2, r2, lsl #8
     8b0:	02040200 	andeq	r0, r4, #0, 4
     8b4:	04020013 	streq	r0, [r2], #-19	; 0xffffffed
     8b8:	02000102 	andeq	r0, r0, #-2147483648	; 0x80000000
     8bc:	00010204 	andeq	r0, r1, r4, lsl #4
     8c0:	01020402 	tsteq	r2, r2, lsl #8
     8c4:	02040200 	andeq	r0, r4, #0, 4
     8c8:	04020014 	streq	r0, [r2], #-20	; 0xffffffec
     8cc:	016c0302 	cmneq	ip, r2, lsl #6
     8d0:	02040200 	andeq	r0, r4, #0, 4
     8d4:	04020014 	streq	r0, [r2], #-20	; 0xffffffec
     8d8:	02000102 	andeq	r0, r0, #-2147483648	; 0x80000000
     8dc:	00010204 	andeq	r0, r1, r4, lsl #4
     8e0:	01020402 	tsteq	r2, r2, lsl #8
     8e4:	02040200 	andeq	r0, r4, #0, 4
     8e8:	04020013 	streq	r0, [r2], #-19	; 0xffffffed
     8ec:	01140302 	tsteq	r4, r2, lsl #6
     8f0:	02000204 	andeq	r0, r0, #4, 4	; 0x40000000
     8f4:	77030204 	strvc	r0, [r3, -r4, lsl #4]
     8f8:	000a0501 	andeq	r0, sl, r1, lsl #10
     8fc:	03020402 	movweq	r0, #9218	; 0x2402
     900:	05050155 	streq	r0, [r5, #-341]	; 0xfffffeab
     904:	02040200 	andeq	r0, r4, #0, 4
     908:	04020016 	streq	r0, [r2], #-22	; 0xffffffea
     90c:	00010602 	andeq	r0, r1, r2, lsl #12
     910:	06020402 	streq	r0, [r2], -r2, lsl #8
     914:	05012803 	streq	r2, [r1, #-2051]	; 0xfffff7fd
     918:	04020010 	streq	r0, [r2], #-16
     91c:	58030602 	stmdapl	r3, {r1, r9, sl}
     920:	0402002e 	streq	r0, [r2], #-46	; 0xffffffd2
     924:	05052e02 	streq	r2, [r5, #-3586]	; 0xfffff1fe
     928:	02040200 	andeq	r0, r4, #0, 4
     92c:	002e2803 	eoreq	r2, lr, r3, lsl #16
     930:	06020402 	streq	r0, [r2], -r2, lsl #8
     934:	000b0568 	andeq	r0, fp, r8, ror #10
     938:	06020402 	streq	r0, [r2], -r2, lsl #8
     93c:	00050501 	andeq	r0, r5, r1, lsl #10
     940:	06020402 	streq	r0, [r2], -r2, lsl #8
     944:	0001044b 	andeq	r0, r1, fp, asr #8
     948:	03020402 	movweq	r0, #9218	; 0x2402
     94c:	0200014c 	andeq	r0, r0, #19
     950:	00010204 	andeq	r0, r1, r4, lsl #4
     954:	01020402 	tsteq	r2, r2, lsl #8
     958:	02040200 	andeq	r0, r4, #0, 4
     95c:	04020001 	streq	r0, [r2], #-1
     960:	02041302 	andeq	r1, r4, #134217728	; 0x8000000
     964:	02040200 	andeq	r0, r4, #0, 4
     968:	04013403 	streq	r3, [r1], #-1027	; 0xfffffbfd
     96c:	04020001 	streq	r0, [r2], #-1
     970:	010a0302 	tsteq	sl, r2, lsl #6
     974:	02040200 	andeq	r0, r4, #0, 4
     978:	04020001 	streq	r0, [r2], #-1
     97c:	02000102 	andeq	r0, r0, #-2147483648	; 0x80000000
     980:	00010204 	andeq	r0, r1, r4, lsl #4
     984:	13020402 	movwne	r0, #9218	; 0x2402
     988:	02040200 	andeq	r0, r4, #0, 4
     98c:	04020001 	streq	r0, [r2], #-1
     990:	02000102 	andeq	r0, r0, #-2147483648	; 0x80000000
     994:	00010204 	andeq	r0, r1, r4, lsl #4
     998:	19020402 	stmdbne	r2, {r1, sl}
     99c:	02040200 	andeq	r0, r4, #0, 4
     9a0:	04020013 	streq	r0, [r2], #-19	; 0xffffffed
     9a4:	02000102 	andeq	r0, r0, #-2147483648	; 0x80000000
     9a8:	00010204 	andeq	r0, r1, r4, lsl #4
     9ac:	01020402 	tsteq	r2, r2, lsl #8
     9b0:	02040200 	andeq	r0, r4, #0, 4
     9b4:	04020013 	streq	r0, [r2], #-19	; 0xffffffed
     9b8:	02000102 	andeq	r0, r0, #-2147483648	; 0x80000000
     9bc:	59030204 	stmdbpl	r3, {r2, r9}
     9c0:	04020001 	streq	r0, [r2], #-1
     9c4:	02001402 	andeq	r1, r0, #33554432	; 0x2000000
     9c8:	00010204 	andeq	r0, r1, r4, lsl #4
     9cc:	01020402 	tsteq	r2, r2, lsl #8
     9d0:	02040200 	andeq	r0, r4, #0, 4
     9d4:	04020001 	streq	r0, [r2], #-1
     9d8:	02001302 	andeq	r1, r0, #134217728	; 0x8000000
     9dc:	24030204 	strcs	r0, [r3], #-516	; 0xfffffdfc
     9e0:	04020001 	streq	r0, [r2], #-1
     9e4:	02000102 	andeq	r0, r0, #-2147483648	; 0x80000000
     9e8:	00140204 	andseq	r0, r4, r4, lsl #4
     9ec:	03020402 	movweq	r0, #9218	; 0x2402
     9f0:	02000168 	andeq	r0, r0, #26
     9f4:	00010204 	andeq	r0, r1, r4, lsl #4
     9f8:	01020402 	tsteq	r2, r2, lsl #8
     9fc:	02040200 	andeq	r0, r4, #0, 4
     a00:	04020001 	streq	r0, [r2], #-1
     a04:	02001302 	andeq	r1, r0, #134217728	; 0x8000000
     a08:	00010204 	andeq	r0, r1, r4, lsl #4
     a0c:	01020402 	tsteq	r2, r2, lsl #8
     a10:	02040200 	andeq	r0, r4, #0, 4
     a14:	04020001 	streq	r0, [r2], #-1
     a18:	02001402 	andeq	r1, r0, #33554432	; 0x2000000
     a1c:	6c030204 	sfmvs	f0, 4, [r3], {4}
     a20:	04020001 	streq	r0, [r2], #-1
     a24:	02001402 	andeq	r1, r0, #33554432	; 0x2000000
     a28:	00010204 	andeq	r0, r1, r4, lsl #4
     a2c:	01020402 	tsteq	r2, r2, lsl #8
     a30:	02040200 	andeq	r0, r4, #0, 4
     a34:	04020001 	streq	r0, [r2], #-1
     a38:	02001302 	andeq	r1, r0, #134217728	; 0x8000000
     a3c:	14030204 	strne	r0, [r3], #-516	; 0xfffffdfc
     a40:	00020401 	andeq	r0, r2, r1, lsl #8
     a44:	0f020402 	svceq	0x00020402
     a48:	02000104 	andeq	r0, r0, #1
     a4c:	4a030204 	bmi	c1264 <__bss_end__+0xb74a4>
     a50:	04020001 	streq	r0, [r2], #-1
     a54:	02000102 	andeq	r0, r0, #-2147483648	; 0x80000000
     a58:	00010204 	andeq	r0, r1, r4, lsl #4
     a5c:	01020402 	tsteq	r2, r2, lsl #8
     a60:	02040200 	andeq	r0, r4, #0, 4
     a64:	00020413 	andeq	r0, r2, r3, lsl r4
     a68:	03020402 	movweq	r0, #9218	; 0x2402
     a6c:	0a050136 	beq	140f4c <__bss_end__+0x13718c>
     a70:	02040200 	andeq	r0, r4, #0, 4
     a74:	05014e03 	streq	r4, [r1, #-3587]	; 0xfffff1fd
     a78:	04020005 	streq	r0, [r2], #-5
     a7c:	02001602 	andeq	r1, r0, #2097152	; 0x200000
     a80:	01060204 	tsteq	r6, r4, lsl #4
     a84:	02040200 	andeq	r0, r4, #0, 4
     a88:	012f0306 			; <UNDEFINED> instruction: 0x012f0306
     a8c:	02001005 	andeq	r1, r0, #5, 0
     a90:	03060204 	movweq	r0, #25092	; 0x6204
     a94:	05050151 	streq	r0, [r5, #-337]	; 0xfffffeaf
     a98:	02040200 	andeq	r0, r4, #0, 4
     a9c:	002e2f03 	eoreq	r2, lr, r3, lsl #30
     aa0:	66020402 	strvs	r0, [r2], -r2, lsl #8
     aa4:	02040200 	andeq	r0, r4, #0, 4
     aa8:	0b053006 	bleq	14cac8 <__bss_end__+0x142d08>
     aac:	02040200 	andeq	r0, r4, #0, 4
     ab0:	05050106 	streq	r0, [r5, #-262]	; 0xfffffefa
     ab4:	02040200 	andeq	r0, r4, #0, 4
     ab8:	01044b06 	tsteq	r4, r6, lsl #22
     abc:	02040200 	andeq	r0, r4, #0, 4
     ac0:	00014503 	andeq	r4, r1, r3, lsl #10
     ac4:	01020402 	tsteq	r2, r2, lsl #8
     ac8:	02040200 	andeq	r0, r4, #0, 4
     acc:	04020001 	streq	r0, [r2], #-1
     ad0:	02000102 	andeq	r0, r0, #-2147483648	; 0x80000000
     ad4:	04130204 	ldreq	r0, [r3], #-516	; 0xfffffdfc
     ad8:	04020002 	streq	r0, [r2], #-2
     adc:	013b0302 	teqeq	fp, r2, lsl #6
     ae0:	02000104 	andeq	r0, r0, #1
     ae4:	44030204 	strmi	r0, [r3], #-516	; 0xfffffdfc
     ae8:	04020001 	streq	r0, [r2], #-1
     aec:	02000102 	andeq	r0, r0, #-2147483648	; 0x80000000
     af0:	00010204 	andeq	r0, r1, r4, lsl #4
     af4:	01020402 	tsteq	r2, r2, lsl #8
     af8:	02040200 	andeq	r0, r4, #0, 4
     afc:	00020413 	andeq	r0, r2, r3, lsl r4
     b00:	03020402 	movweq	r0, #9218	; 0x2402
     b04:	0104013c 	tsteq	r4, ip, lsr r1
     b08:	02040200 	andeq	r0, r4, #0, 4
     b0c:	00014303 	andeq	r4, r1, r3, lsl #6
     b10:	01020402 	tsteq	r2, r2, lsl #8
     b14:	02040200 	andeq	r0, r4, #0, 4
     b18:	04020001 	streq	r0, [r2], #-1
     b1c:	02000102 	andeq	r0, r0, #-2147483648	; 0x80000000
     b20:	04130204 	ldreq	r0, [r3], #-516	; 0xfffffdfc
     b24:	04020002 	streq	r0, [r2], #-2
     b28:	013d0302 	teqeq	sp, r2, lsl #6
     b2c:	02000104 	andeq	r0, r0, #1
     b30:	42030204 	andmi	r0, r3, #4, 4	; 0x40000000
     b34:	04020001 	streq	r0, [r2], #-1
     b38:	02000102 	andeq	r0, r0, #-2147483648	; 0x80000000
     b3c:	00010204 	andeq	r0, r1, r4, lsl #4
     b40:	01020402 	tsteq	r2, r2, lsl #8
     b44:	02040200 	andeq	r0, r4, #0, 4
     b48:	00020413 	andeq	r0, r2, r3, lsl r4
     b4c:	03020402 	movweq	r0, #9218	; 0x2402
     b50:	0a05013e 	beq	141050 <__bss_end__+0x137290>
     b54:	02040200 	andeq	r0, r4, #0, 4
     b58:	05014603 	streq	r4, [r1, #-1539]	; 0xfffff9fd
     b5c:	04020005 	streq	r0, [r2], #-5
     b60:	02001602 	andeq	r1, r0, #2097152	; 0x200000
     b64:	01060204 	tsteq	r6, r4, lsl #4
     b68:	02040200 	andeq	r0, r4, #0, 4
     b6c:	01370306 	teqeq	r7, r6, lsl #6
     b70:	02040200 	andeq	r0, r4, #0, 4
     b74:	02006606 	andeq	r6, r0, #6291456	; 0x600000
     b78:	30060204 	andcc	r0, r6, r4, lsl #4
     b7c:	02000105 	andeq	r0, r0, #1073741825	; 0x40000001
     b80:	16060204 	strne	r0, [r6], -r4, lsl #4
     b84:	02000505 	andeq	r0, r0, #20971520	; 0x1400000
     b88:	00460204 	subeq	r0, r6, r4, lsl #4
     b8c:	06010402 	streq	r0, [r1], -r2, lsl #8
     b90:	002e4b03 	eoreq	r4, lr, r3, lsl #22
     b94:	01010402 	tsteq	r1, r2, lsl #8
     b98:	01040200 	mrseq	r0, R12_usr
     b9c:	031f05d6 	tsteq	pc, #897581056	; 0x35800000
     ba0:	0590083b 	ldreq	r0, [r0, #2107]	; 0x83b
     ba4:	1f051305 	svcne	0x00051305
     ba8:	05051106 	streq	r1, [r5, #-262]	; 0xfffffefa
     bac:	142f062f 	strtne	r0, [pc], #-1583	; bb4 <__code_start__-0x744c>
     bb0:	01061a05 	tsteq	r6, r5, lsl #20
     bb4:	02007305 	andeq	r7, r0, #335544320	; 0x14000000
     bb8:	2e060104 	adfcss	f0, f6, f4
     bbc:	02000a05 	andeq	r0, r0, #20480	; 0x5000
     bc0:	05010104 	streq	r0, [r1, #-260]	; 0xfffffefc
     bc4:	0402001a 	streq	r0, [r2], #-26	; 0xffffffe6
     bc8:	04010601 	streq	r0, [r1], #-1537	; 0xfffff9ff
     bcc:	00050501 	andeq	r0, r5, r1, lsl #10
     bd0:	06010402 	streq	r0, [r1], -r2, lsl #8
     bd4:	004a4403 	subeq	r4, sl, r3, lsl #8
     bd8:	01010402 	tsteq	r1, r2, lsl #8
     bdc:	01040200 	mrseq	r0, R12_usr
     be0:	04020001 	streq	r0, [r2], #-1
     be4:	02000101 	andeq	r0, r0, #1073741824	; 0x40000000
     be8:	04130104 	ldreq	r0, [r3], #-260	; 0xfffffefc
     bec:	000a0502 	andeq	r0, sl, r2, lsl #10
     bf0:	06010402 	streq	r0, [r1], -r2, lsl #8
     bf4:	05013b03 	streq	r3, [r1, #-2819]	; 0xfffff4fd
     bf8:	05500605 	ldrbeq	r0, [r0, #-1541]	; 0xfffff9fb
     bfc:	05130601 	ldreq	r0, [r3, #-1537]	; 0xfffff9ff
     c00:	022e2d0c 	eoreq	r2, lr, #12, 26	; 0x300
     c04:	01010006 	tsteq	r1, r6
     c08:	0000023e 	andeq	r0, r0, lr, lsr r2
     c0c:	00f50003 	rscseq	r0, r5, r3
     c10:	01020000 	mrseq	r0, (UNDEF: 2)
     c14:	000d0efb 	strdeq	r0, [sp], -fp
     c18:	01010101 	tsteq	r1, r1, lsl #2
     c1c:	01000000 	mrseq	r0, (UNDEF: 0)
     c20:	2f010000 	svccs	0x00010000
     c24:	2f727375 	svccs	0x00727375
     c28:	61636f6c 	cmnvs	r3, ip, ror #30
     c2c:	65432f6c 	strbvs	r2, [r3, #-3948]	; 0xfffff094
     c30:	72616c6c 	rsbvc	r6, r1, #108, 24	; 0x6c00
     c34:	6d72612f 	ldfvse	f6, [r2, #-188]!	; 0xffffff44
     c38:	6e6f6e2d 	cdpvs	14, 6, cr6, cr15, cr13, {1}
     c3c:	61652d65 	cmnvs	r5, r5, ror #26
     c40:	742d6962 	strtvc	r6, [sp], #-2402	; 0xfffff69e
     c44:	2f747365 	svccs	0x00747365
     c48:	30322d39 	eorscc	r2, r2, r9, lsr sp
     c4c:	34713931 	ldrbtcc	r3, [r1], #-2353	; 0xfffff6cf
     c50:	3173632d 	cmncc	r3, sp, lsr #6
     c54:	2f653730 	svccs	0x00653730
     c58:	2f62696c 	svccs	0x0062696c
     c5c:	2f636367 	svccs	0x00636367
     c60:	2d6d7261 	sfmcs	f7, 2, [sp, #-388]!	; 0xfffffe7c
     c64:	656e6f6e 	strbvs	r6, [lr, #-3950]!	; 0xfffff092
     c68:	6261652d 	rsbvs	r6, r1, #188743680	; 0xb400000
     c6c:	2e392f69 	cdpcs	15, 3, cr2, cr9, cr9, {3}
     c70:	2f312e32 	svccs	0x00312e32
     c74:	6c636e69 	stclvs	14, cr6, [r3], #-420	; 0xfffffe5c
     c78:	00656475 	rsbeq	r6, r5, r5, ror r4
     c7c:	6573552f 	ldrbvs	r5, [r3, #-1327]!	; 0xfffffad1
     c80:	6a2f7372 	bvs	bdda50 <__bss_end__+0xbd3c90>
     c84:	65696d61 	strbvs	r6, [r9, #-3425]!	; 0xfffff29f
     c88:	636f442f 	cmnvs	pc, #788529152	; 0x2f000000
     c8c:	6e656d75 	mcrvs	13, 3, r6, cr5, cr5, {3}
     c90:	432f7374 			; <UNDEFINED> instruction: 0x432f7374
     c94:	30343153 	eorscc	r3, r4, r3, asr r1
     c98:	73632f45 	cmnvc	r3, #276	; 0x114
     c9c:	45303431 	ldrmi	r3, [r0, #-1073]!	; 0xfffffbcf
     ca0:	6e69662d 	cdpvs	6, 6, cr6, cr9, cr13, {1}
     ca4:	702d6c61 	eorvc	r6, sp, r1, ror #24
     ca8:	656a6f72 	strbvs	r6, [sl, #-3954]!	; 0xfffff08e
     cac:	6c2f7463 	cfstrsvs	mvf7, [pc], #-396	; b28 <__code_start__-0x74d8>
     cb0:	2d736269 	lfmcs	f6, 2, [r3, #-420]!	; 0xfffffe5c
     cb4:	6c303432 	cfldrsvs	mvf3, [r0], #-200	; 0xffffff38
     cb8:	696c2f78 	stmdbvs	ip!, {r3, r4, r5, r6, r8, r9, sl, fp, sp}^
     cbc:	2f697062 	svccs	0x00697062
     cc0:	6c636e69 	stclvs	14, cr6, [r3], #-420	; 0xfffffe5c
     cc4:	00656475 	rsbeq	r6, r5, r5, ror r4
     cc8:	74666600 	strbtvc	r6, [r6], #-1536	; 0xfffffa00
     ccc:	0000632e 	andeq	r6, r0, lr, lsr #6
     cd0:	66660000 	strbtvs	r0, [r6], -r0
     cd4:	00682e74 	rsbeq	r2, r8, r4, ror lr
     cd8:	73000000 	movwvc	r0, #0
     cdc:	6e696474 	mcrvs	4, 3, r6, cr9, cr4, {3}
     ce0:	63672d74 	cmnvs	r7, #116, 26	; 0x1d00
     ce4:	00682e63 	rsbeq	r2, r8, r3, ror #28
     ce8:	72000001 	andvc	r0, r0, #1, 0
     cec:	682e6970 	stmdavs	lr!, {r4, r5, r6, r8, fp, sp, lr}
     cf0:	00000200 	andeq	r0, r0, r0, lsl #4
     cf4:	5f746666 	svcpl	0x00746666
     cf8:	656e6973 	strbvs	r6, [lr, #-2419]!	; 0xfffff68d
     cfc:	74756c5f 	ldrbtvc	r6, [r5], #-3167	; 0xfffff3a1
     d00:	0000682e 	andeq	r6, r0, lr, lsr #16
     d04:	05000000 	streq	r0, [r0, #-0]
     d08:	0205005a 	andeq	r0, r5, #90, 0	; 0x5a
     d0c:	00008228 	andeq	r8, r0, r8, lsr #4
     d10:	05010903 	streq	r0, [r1, #-2307]	; 0xfffff6fd
     d14:	5a051405 	bpl	145d30 <__bss_end__+0x13bf70>
     d18:	14051006 	strne	r1, [r5], #-6
     d1c:	06050530 			; <UNDEFINED> instruction: 0x06050530
     d20:	0608054c 	streq	r0, [r8], -ip, asr #10
     d24:	06210501 	strteq	r0, [r1], -r1, lsl #10
     d28:	06050552 			; <UNDEFINED> instruction: 0x06050552
     d2c:	2b0d0501 	blcs	342138 <__bss_end__+0x338378>
     d30:	2e850505 	cdpcs	5, 8, cr0, cr5, cr5, {0}
     d34:	050f0d05 	streq	r0, [pc, #-3333]	; 37 <__code_start__-0x7fc9>
     d38:	04020009 	streq	r0, [r2], #-9
     d3c:	05330601 	ldreq	r0, [r3, #-1537]!	; 0xfffff9ff
     d40:	0402000d 	streq	r0, [r2], #-13
     d44:	11051301 	tstne	r5, r1, lsl #6
     d48:	01040200 	mrseq	r0, R12_usr
     d4c:	02000106 	andeq	r0, r0, #-2147483647	; 0x80000001
     d50:	2f060104 	svccs	0x00060104
     d54:	02001b05 	andeq	r1, r0, #5120	; 0x1400
     d58:	01060104 	tsteq	r6, r4, lsl #2
     d5c:	02000905 	andeq	r0, r0, #81920	; 0x14000
     d60:	062e0104 	strteq	r0, [lr], -r4, lsl #2
     d64:	0625054c 	strteq	r0, [r5], -ip, asr #10
     d68:	2e1e0501 	cfmul32cs	mvfx0, mvfx14, mvfx1
     d6c:	052e2b05 	streq	r2, [lr, #-2821]!	; 0xfffff4fb
     d70:	052f0609 	streq	r0, [pc, #-1545]!	; 76f <__code_start__-0x7891>
     d74:	0501060c 	streq	r0, [r1, #-1548]	; 0xfffff9f4
     d78:	054e0609 	strbeq	r0, [lr, #-1545]	; 0xfffff9f7
     d7c:	2e13061e 	mrccs	6, 0, r0, cr3, cr14, {0}
     d80:	052d1105 	streq	r1, [sp, #-261]!	; 0xfffffefb
     d84:	052f0609 	streq	r0, [pc, #-1545]!	; 783 <__code_start__-0x787d>
     d88:	05010618 	streq	r0, [r1, #-1560]	; 0xfffff9e8
     d8c:	052f0609 	streq	r0, [pc, #-1545]!	; 78b <__code_start__-0x7875>
     d90:	05010618 	streq	r0, [r1, #-1560]	; 0xfffff9e8
     d94:	052f0609 	streq	r0, [pc, #-1545]!	; 793 <__code_start__-0x786d>
     d98:	05010611 	streq	r0, [r1, #-1553]	; 0xfffff9ef
     d9c:	052f0609 	streq	r0, [pc, #-1545]!	; 79b <__code_start__-0x7865>
     da0:	0501061e 	streq	r0, [r1, #-1566]	; 0xfffff9e2
     da4:	09052e18 	stmdbeq	r5, {r3, r4, r9, sl, fp, sp}
     da8:	18052f06 	stmdane	r5, {r1, r2, r8, r9, sl, fp, sp}
     dac:	052e0106 	streq	r0, [lr, #-262]!	; 0xfffffefa
     db0:	0402002f 	streq	r0, [r2], #-47	; 0xffffffd1
     db4:	70030602 	andvc	r0, r3, r2, lsl #12
     db8:	00370501 	eorseq	r0, r7, r1, lsl #10
     dbc:	06020402 	streq	r0, [r2], -r2, lsl #8
     dc0:	00210501 	eoreq	r0, r1, r1, lsl #10
     dc4:	06020402 	streq	r0, [r2], -r2, lsl #8
     dc8:	0005052e 	andeq	r0, r5, lr, lsr #10
     dcc:	06020402 	streq	r0, [r2], -r2, lsl #8
     dd0:	04020001 	streq	r0, [r2], #-1
     dd4:	0b058202 	bleq	1615e4 <__bss_end__+0x157824>
     dd8:	01150306 	tsteq	r5, r6, lsl #6
     ddc:	13130905 	tstne	r3, #81920	; 0x14000
     de0:	13011503 	movwne	r1, #5379	; 0x1503
     de4:	05010e05 	streq	r0, [r1, #-3589]	; 0xfffff1fb
     de8:	0d050121 	stfeqs	f0, [r5, #-132]	; 0xffffff7c
     dec:	15131413 	ldrne	r1, [r3, #-1043]	; 0xfffffbed
     df0:	12051616 	andne	r1, r5, #23068672	; 0x1600000
     df4:	01250501 			; <UNDEFINED> instruction: 0x01250501
     df8:	13131105 	tstne	r3, #1073741825	; 0x40000001
     dfc:	10050204 	andne	r0, r5, r4, lsl #4
     e00:	017fbd03 	cmneq	pc, r3, lsl #26
     e04:	05130505 	ldreq	r0, [r3, #-1285]	; 0xfffffafb
     e08:	01750310 	cmneq	r5, r0, lsl r3
     e0c:	01130505 	tsteq	r3, r5, lsl #10
     e10:	062e6606 	strteq	r6, [lr], -r6, lsl #12
     e14:	042e062e 	strteq	r0, [lr], #-1582	; 0xfffff9d2
     e18:	03010501 	movweq	r0, #5377	; 0x1501
     e1c:	2e0100de 	mcrcs	0, 0, r0, cr1, cr14, {6}
     e20:	03060905 	movweq	r0, #26885	; 0x6905
     e24:	012e7fa9 			; <UNDEFINED> instruction: 0x012e7fa9
     e28:	2e2e2e06 	cdpcs	14, 2, cr2, cr14, cr6, {0}
     e2c:	052e062e 	streq	r0, [lr, #-1582]!	; 0xfffff9d2
     e30:	00da034b 	sbcseq	r0, sl, fp, asr #6
     e34:	130505d6 	movwne	r0, #21974	; 0x55d6
     e38:	064b0501 	strbeq	r0, [fp], -r1, lsl #10
     e3c:	2f05052d 	svccs	0x0005052d
     e40:	062e2e2e 	strteq	r2, [lr], -lr, lsr #28
     e44:	0008022e 	andeq	r0, r8, lr, lsr #4
     e48:	012f0101 			; <UNDEFINED> instruction: 0x012f0101
     e4c:	00030000 	andeq	r0, r3, r0
     e50:	000000fd 	strdeq	r0, [r0], -sp
     e54:	0efb0102 	cdpeq	1, 15, cr0, cr11, cr2, {0}
     e58:	0101000d 	tsteq	r1, sp
     e5c:	00000101 	andeq	r0, r0, r1, lsl #2
     e60:	00000100 	andeq	r0, r0, r0, lsl #2
     e64:	6c2f2e01 	stcvs	14, cr2, [pc], #-4	; e68 <__code_start__-0x7198>
     e68:	00636269 	rsbeq	r6, r3, r9, ror #4
     e6c:	7273752f 	rsbsvc	r7, r3, #197132288	; 0xbc00000
     e70:	636f6c2f 	cmnvs	pc, #12032	; 0x2f00
     e74:	432f6c61 			; <UNDEFINED> instruction: 0x432f6c61
     e78:	616c6c65 	cmnvs	ip, r5, ror #24
     e7c:	72612f72 	rsbvc	r2, r1, #456	; 0x1c8
     e80:	6f6e2d6d 	svcvs	0x006e2d6d
     e84:	652d656e 	strvs	r6, [sp, #-1390]!	; 0xfffffa92
     e88:	2d696261 	sfmcs	f6, 2, [r9, #-388]!	; 0xfffffe7c
     e8c:	74736574 	ldrbtvc	r6, [r3], #-1396	; 0xfffffa8c
     e90:	322d392f 	eorcc	r3, sp, #770048	; 0xbc000
     e94:	71393130 	teqvc	r9, r0, lsr r1
     e98:	73632d34 	cmnvc	r3, #52, 26	; 0xd00
     e9c:	65373031 	ldrvs	r3, [r7, #-49]!	; 0xffffffcf
     ea0:	62696c2f 	rsbvs	r6, r9, #12032	; 0x2f00
     ea4:	6363672f 	cmnvs	r3, #12320768	; 0xbc0000
     ea8:	6d72612f 	ldfvse	f6, [r2, #-188]!	; 0xffffff44
     eac:	6e6f6e2d 	cdpvs	14, 6, cr6, cr15, cr13, {1}
     eb0:	61652d65 	cmnvs	r5, r5, ror #26
     eb4:	392f6962 	stmdbcc	pc!, {r1, r5, r6, r8, fp, sp, lr}	; <UNPREDICTABLE>
     eb8:	312e322e 			; <UNDEFINED> instruction: 0x312e322e
     ebc:	636e692f 	cmnvs	lr, #770048	; 0xbc000
     ec0:	6564756c 	strbvs	r7, [r4, #-1388]!	; 0xfffffa94
     ec4:	73552f00 	cmpvc	r5, #0, 30
     ec8:	2f737265 	svccs	0x00737265
     ecc:	696d616a 	stmdbvs	sp!, {r1, r3, r5, r6, r8, sp, lr}^
     ed0:	6f442f65 	svcvs	0x00442f65
     ed4:	656d7563 	strbvs	r7, [sp, #-1379]!	; 0xfffffa9d
     ed8:	2f73746e 	svccs	0x0073746e
     edc:	34315343 	ldrtcc	r5, [r1], #-835	; 0xfffffcbd
     ee0:	632f4530 			; <UNDEFINED> instruction: 0x632f4530
     ee4:	30343173 	eorscc	r3, r4, r3, ror r1
     ee8:	69662d45 	stmdbvs	r6!, {r0, r2, r6, r8, sl, fp, sp}^
     eec:	2d6c616e 	stfcse	f6, [ip, #-440]!	; 0xfffffe48
     ef0:	6a6f7270 	bvs	1bdd8b8 <__bss_end__+0x1bd3af8>
     ef4:	2f746365 	svccs	0x00746365
     ef8:	7362696c 	cmnvc	r2, #108, 18	; 0x1b0000
     efc:	3034322d 	eorscc	r3, r4, sp, lsr #4
     f00:	6c2f786c 	stcvs	8, cr7, [pc], #-432	; d58 <__code_start__-0x72a8>
     f04:	69706269 	ldmdbvs	r0!, {r0, r3, r5, r6, r9, sp, lr}^
     f08:	636e692f 	cmnvs	lr, #770048	; 0xbc000
     f0c:	6564756c 	strbvs	r7, [r4, #-1388]!	; 0xfffffa94
     f10:	72700000 	rsbsvc	r0, r0, #0, 0
     f14:	6b746e69 	blvs	1d1c8c0 <__bss_end__+0x1d12b00>
     f18:	0100632e 	tsteq	r0, lr, lsr #6
     f1c:	74730000 	ldrbtvc	r0, [r3], #-0
     f20:	67726164 	ldrbvs	r6, [r2, -r4, ror #2]!
     f24:	0200682e 	andeq	r6, r0, #3014656	; 0x2e0000
     f28:	70720000 	rsbsvc	r0, r2, r0
     f2c:	00682e69 	rsbeq	r2, r8, r9, ror #28
     f30:	3c000003 	stccc	0, cr0, [r0], {3}
     f34:	6c697562 	cfstr64vs	mvdx7, [r9], #-392	; 0xfffffe78
     f38:	6e692d74 	mcrvs	13, 3, r2, cr9, cr4, {3}
     f3c:	0000003e 	andeq	r0, r0, lr, lsr r0
     f40:	2d617600 	stclcs	6, cr7, [r1, #-0]
     f44:	6e697270 	mcrvs	2, 3, r7, cr9, cr0, {3}
     f48:	682e6b74 	stmdavs	lr!, {r2, r4, r5, r6, r8, r9, fp, sp, lr}
     f4c:	00000100 	andeq	r0, r0, r0, lsl #2
     f50:	00220500 	eoreq	r0, r2, r0, lsl #10
     f54:	832c0205 			; <UNDEFINED> instruction: 0x832c0205
     f58:	06170000 	ldreq	r0, [r7], -r0
     f5c:	06050501 	streq	r0, [r5], -r1, lsl #10
     f60:	05141368 	ldreq	r1, [r4, #-872]	; 0xfffffc98
     f64:	12054b09 	andne	r4, r5, #9216	; 0x2400
     f68:	05050106 	streq	r0, [r5, #-262]	; 0xfffffefa
     f6c:	0616bb06 	ldreq	fp, [r6], -r6, lsl #22
     f70:	05340666 	ldreq	r0, [r4, #-1638]!	; 0xfffff99a
     f74:	66130601 	ldrvs	r0, [r3], -r1, lsl #12
     f78:	01000802 	tsteq	r0, r2, lsl #16
     f7c:	0000c701 	andeq	ip, r0, r1, lsl #14
     f80:	79000300 	stmdbvc	r0, {r8, r9}
     f84:	02000000 	andeq	r0, r0, #0, 0
     f88:	0d0efb01 	vstreq	d15, [lr, #-4]
     f8c:	01010100 	mrseq	r0, (UNDEF: 17)
     f90:	00000001 	andeq	r0, r0, r1
     f94:	01000001 	tsteq	r0, r1
     f98:	696c2f2e 	stmdbvs	ip!, {r1, r2, r3, r5, r8, r9, sl, fp, sp}^
     f9c:	2f006362 	svccs	0x00006362
     fa0:	72657355 	rsbvc	r7, r5, #1409286145	; 0x54000001
     fa4:	616a2f73 	smcvs	41715	; 0xa2f3
     fa8:	2f65696d 	svccs	0x0065696d
     fac:	75636f44 	strbvc	r6, [r3, #-3908]!	; 0xfffff0bc
     fb0:	746e656d 	strbtvc	r6, [lr], #-1389	; 0xfffffa93
     fb4:	53432f73 	movtpl	r2, #16243	; 0x3f73
     fb8:	45303431 	ldrmi	r3, [r0, #-1073]!	; 0xfffffbcf
     fbc:	3173632f 	cmncc	r3, pc, lsr #6
     fc0:	2d453034 	stclcs	0, cr3, [r5, #-208]	; 0xffffff30
     fc4:	616e6966 	cmnvs	lr, r6, ror #18
     fc8:	72702d6c 	rsbsvc	r2, r0, #108, 26	; 0x1b00
     fcc:	63656a6f 	cmnvs	r5, #454656	; 0x6f000
     fd0:	696c2f74 	stmdbvs	ip!, {r2, r4, r5, r6, r8, r9, sl, fp, sp}^
     fd4:	322d7362 	eorcc	r7, sp, #-2013265919	; 0x88000001
     fd8:	786c3034 	stmdavc	ip!, {r2, r4, r5, ip, sp}^
     fdc:	62696c2f 	rsbvs	r6, r9, #12032	; 0x2f00
     fe0:	692f6970 	stmdbvs	pc!, {r4, r5, r6, r8, fp, sp, lr}	; <UNPREDICTABLE>
     fe4:	756c636e 	strbvc	r6, [ip, #-878]!	; 0xfffffc92
     fe8:	00006564 	andeq	r6, r0, r4, ror #10
     fec:	6b747570 	blvs	1d1e5b4 <__bss_end__+0x1d147f4>
     ff0:	0100632e 	tsteq	r0, lr, lsr #6
     ff4:	70720000 	rsbsvc	r0, r2, r0
     ff8:	00682e69 	rsbeq	r2, r8, r9, ror #28
     ffc:	00000002 	andeq	r0, r0, r2
    1000:	05002205 	streq	r2, [r0, #-517]	; 0xfffffdfb
    1004:	00838402 	addeq	r8, r3, r2, lsl #8
    1008:	01061500 	tsteq	r6, r0, lsl #10
    100c:	4b060505 	blmi	182428 <__bss_end__+0x178668>
    1010:	02000b05 	andeq	r0, r0, #5120	; 0x1400
    1014:	05010104 	streq	r0, [r1, #-260]	; 0xfffffefc
    1018:	04020005 	streq	r0, [r2], #-5
    101c:	052e0601 	streq	r0, [lr, #-1537]!	; 0xfffff9ff
    1020:	04020009 	streq	r0, [r2], #-9
    1024:	054b0602 	strbeq	r0, [fp, #-1538]	; 0xfffff9fe
    1028:	0402000f 	streq	r0, [r2], #-15
    102c:	10056502 	andne	r6, r5, r2, lsl #10
    1030:	02040200 	andeq	r0, r4, #0, 4
    1034:	02000106 	andeq	r0, r0, #-2147483647	; 0x80000001
    1038:	052e0204 	streq	r0, [lr, #-516]!	; 0xfffffdfc
    103c:	05320605 	ldreq	r0, [r2, #-1541]!	; 0xfffff9fb
    1040:	02130601 	andseq	r0, r3, #1048576	; 0x100000
    1044:	01010006 	tsteq	r1, r6
    1048:	00000619 	andeq	r0, r0, r9, lsl r6
    104c:	01130003 	tsteq	r3, r3
    1050:	01020000 	mrseq	r0, (UNDEF: 2)
    1054:	000d0efb 	strdeq	r0, [sp], -fp
    1058:	01010101 	tsteq	r1, r1, lsl #2
    105c:	01000000 	mrseq	r0, (UNDEF: 0)
    1060:	2e010000 	cdpcs	0, 0, cr0, cr1, cr0, {0}
    1064:	62696c2f 	rsbvs	r6, r9, #12032	; 0x2f00
    1068:	752f0063 	strvc	r0, [pc, #-99]!	; 100d <__code_start__-0x6ff3>
    106c:	6c2f7273 	sfmvs	f7, 4, [pc], #-460	; ea8 <__code_start__-0x7158>
    1070:	6c61636f 	stclvs	3, cr6, [r1], #-444	; 0xfffffe44
    1074:	6c65432f 	stclvs	3, cr4, [r5], #-188	; 0xffffff44
    1078:	2f72616c 	svccs	0x0072616c
    107c:	2d6d7261 	sfmcs	f7, 2, [sp, #-388]!	; 0xfffffe7c
    1080:	656e6f6e 	strbvs	r6, [lr, #-3950]!	; 0xfffff092
    1084:	6261652d 	rsbvs	r6, r1, #188743680	; 0xb400000
    1088:	65742d69 	ldrbvs	r2, [r4, #-3433]!	; 0xfffff297
    108c:	392f7473 	stmdbcc	pc!, {r0, r1, r4, r5, r6, sl, ip, sp, lr}	; <UNPREDICTABLE>
    1090:	3130322d 	teqcc	r0, sp, lsr #4
    1094:	2d347139 	ldfcss	f7, [r4, #-228]!	; 0xffffff1c
    1098:	30317363 	eorscc	r7, r1, r3, ror #6
    109c:	6c2f6537 	cfstr32vs	mvfx6, [pc], #-220	; fc8 <__code_start__-0x7038>
    10a0:	672f6269 	strvs	r6, [pc, -r9, ror #4]!
    10a4:	612f6363 			; <UNDEFINED> instruction: 0x612f6363
    10a8:	6e2d6d72 	mcrvs	13, 1, r6, cr13, cr2, {3}
    10ac:	2d656e6f 	stclcs	14, cr6, [r5, #-444]!	; 0xfffffe44
    10b0:	69626165 	stmdbvs	r2!, {r0, r2, r5, r6, r8, sp, lr}^
    10b4:	322e392f 	eorcc	r3, lr, #770048	; 0xbc000
    10b8:	692f312e 	stmdbvs	pc!, {r1, r2, r3, r5, r8, ip, sp}	; <UNPREDICTABLE>
    10bc:	756c636e 	strbvc	r6, [ip, #-878]!	; 0xfffffc92
    10c0:	2f006564 	svccs	0x00006564
    10c4:	72657355 	rsbvc	r7, r5, #1409286145	; 0x54000001
    10c8:	616a2f73 	smcvs	41715	; 0xa2f3
    10cc:	2f65696d 	svccs	0x0065696d
    10d0:	75636f44 	strbvc	r6, [r3, #-3908]!	; 0xfffff0bc
    10d4:	746e656d 	strbtvc	r6, [lr], #-1389	; 0xfffffa93
    10d8:	53432f73 	movtpl	r2, #16243	; 0x3f73
    10dc:	45303431 	ldrmi	r3, [r0, #-1073]!	; 0xfffffbcf
    10e0:	3173632f 	cmncc	r3, pc, lsr #6
    10e4:	2d453034 	stclcs	0, cr3, [r5, #-208]	; 0xffffff30
    10e8:	616e6966 	cmnvs	lr, r6, ror #18
    10ec:	72702d6c 	rsbsvc	r2, r0, #108, 26	; 0x1b00
    10f0:	63656a6f 	cmnvs	r5, #454656	; 0x6f000
    10f4:	696c2f74 	stmdbvs	ip!, {r2, r4, r5, r6, r8, r9, sl, fp, sp}^
    10f8:	322d7362 	eorcc	r7, sp, #-2013265919	; 0x88000001
    10fc:	786c3034 	stmdavc	ip!, {r2, r4, r5, ip, sp}^
    1100:	62696c2f 	rsbvs	r6, r9, #12032	; 0x2f00
    1104:	692f6970 	stmdbvs	pc!, {r4, r5, r6, r8, fp, sp, lr}	; <UNPREDICTABLE>
    1108:	756c636e 	strbvc	r6, [ip, #-878]!	; 0xfffffc92
    110c:	00006564 	andeq	r6, r0, r4, ror #10
    1110:	702d6176 	eorvc	r6, sp, r6, ror r1
    1114:	746e6972 	strbtvc	r6, [lr], #-2418	; 0xfffff68e
    1118:	00632e6b 	rsbeq	r2, r3, fp, ror #28
    111c:	73000001 	movwvc	r0, #1
    1120:	6e696474 	mcrvs	4, 3, r6, cr9, cr4, {3}
    1124:	63672d74 	cmnvs	r7, #116, 26	; 0x1d00
    1128:	00682e63 	rsbeq	r2, r8, r3, ror #28
    112c:	72000002 	andvc	r0, r0, #2, 0
    1130:	682e6970 	stmdavs	lr!, {r4, r5, r6, r8, fp, sp, lr}
    1134:	00000300 	andeq	r0, r0, r0, lsl #6
    1138:	2d697072 	stclcs	0, cr7, [r9, #-456]!	; 0xfffffe38
    113c:	65746e69 	ldrbvs	r6, [r4, #-3689]!	; 0xfffff197
    1140:	6c616e72 	stclvs	14, cr6, [r1], #-456	; 0xfffffe38
    1144:	0300682e 	movweq	r6, #2094	; 0x82e
    1148:	74730000 	ldrbtvc	r0, [r3], #-0
    114c:	67726164 	ldrbvs	r6, [r2, -r4, ror #2]!
    1150:	0200682e 	andeq	r6, r0, #3014656	; 0x2e0000
    1154:	623c0000 	eorsvs	r0, ip, #0, 0
    1158:	746c6975 	strbtvc	r6, [ip], #-2421	; 0xfffff68b
    115c:	3e6e692d 	vmulcc.f16	s13, s28, s27	; <UNPREDICTABLE>
    1160:	00000000 	andeq	r0, r0, r0
    1164:	001b0500 	andseq	r0, fp, r0, lsl #10
    1168:	83b80205 			; <UNDEFINED> instruction: 0x83b80205
    116c:	26030000 	strcs	r0, [r3], -r0
    1170:	011d0501 	tsteq	sp, r1, lsl #10
    1174:	01062d05 	tsteq	r6, r5, lsl #26
    1178:	4a2e0105 	bmi	b81594 <__bss_end__+0xb777d4>
    117c:	51063305 	tstpl	r6, r5, lsl #6
    1180:	05130205 	ldreq	r0, [r3, #-517]	; 0xfffffdfb
    1184:	05010606 	streq	r0, [r1, #-1542]	; 0xfffff9fa
    1188:	05300602 	ldreq	r0, [r0, #-1538]!	; 0xfffff9fe
    118c:	04020008 	streq	r0, [r2], #-8
    1190:	02050101 	andeq	r0, r5, #1073741824	; 0x40000000
    1194:	01040200 	mrseq	r0, R12_usr
    1198:	03050106 	movweq	r0, #20742	; 0x5106
    119c:	02040200 	andeq	r0, r4, #0, 4
    11a0:	08052f06 	stmdaeq	r5, {r1, r2, r8, r9, sl, fp, sp}
    11a4:	02040200 	andeq	r0, r4, #0, 4
    11a8:	15050106 	strne	r0, [r5, #-262]	; 0xfffffefa
    11ac:	02040200 	andeq	r0, r4, #0, 4
    11b0:	18054906 	stmdane	r5, {r1, r2, r8, fp, lr}
    11b4:	02040200 	andeq	r0, r4, #0, 4
    11b8:	02000106 	andeq	r0, r0, #-2147483647	; 0x80000001
    11bc:	052e0204 	streq	r0, [lr, #-516]!	; 0xfffffdfc
    11c0:	05300602 	ldreq	r0, [r0, #-1538]!	; 0xfffff9fe
    11c4:	05010605 	streq	r0, [r1, #-1541]	; 0xfffff9fb
    11c8:	054b0602 	strbeq	r0, [fp, #-1538]	; 0xfffff9fe
    11cc:	05130601 	ldreq	r0, [r3, #-1537]	; 0xfffff9ff
    11d0:	0531063e 	ldreq	r0, [r1, #-1598]!	; 0xfffff9c2
    11d4:	0e051402 	cdpeq	4, 0, cr1, cr5, cr2, {0}
    11d8:	06050106 	streq	r0, [r5], -r6, lsl #2
    11dc:	0602052e 	streq	r0, [r2], -lr, lsr #10
    11e0:	0604052f 	streq	r0, [r4], -pc, lsr #10
    11e4:	06030501 	streq	r0, [r3], -r1, lsl #10
    11e8:	0611052f 	ldreq	r0, [r1], -pc, lsr #10
    11ec:	2e090501 	cfsh32cs	mvfx0, mvfx9, #1
    11f0:	30060205 	andcc	r0, r6, r5, lsl #4
    11f4:	06070515 			; <UNDEFINED> instruction: 0x06070515
    11f8:	2e020501 	cfsh32cs	mvfx0, mvfx2, #1
    11fc:	02000b05 	andeq	r0, r0, #5120	; 0x1400
    1200:	2e060104 	adfcss	f0, f6, f4
    1204:	02000205 	andeq	r0, r0, #1342177280	; 0x50000000
    1208:	01060104 	tsteq	r6, r4, lsl #2
    120c:	02000305 	andeq	r0, r0, #335544320	; 0x14000000
    1210:	2f060304 	svccs	0x00060304
    1214:	02000c05 	andeq	r0, r0, #1280	; 0x500
    1218:	01060304 	tsteq	r6, r4, lsl #6
    121c:	02000a05 	andeq	r0, r0, #20480	; 0x5000
    1220:	052e0304 	streq	r0, [lr, #-772]!	; 0xfffffcfc
    1224:	04020017 	streq	r0, [r2], #-23	; 0xffffffe9
    1228:	002d0603 	eoreq	r0, sp, r3, lsl #12
    122c:	06030402 	streq	r0, [r3], -r2, lsl #8
    1230:	06020501 	streq	r0, [r2], -r1, lsl #10
    1234:	06090530 			; <UNDEFINED> instruction: 0x06090530
    1238:	02052e01 	andeq	r2, r5, #1, 28
    123c:	01053006 	tsteq	r5, r6
    1240:	49051306 	stmdbmi	r5, {r1, r2, r8, r9, ip}
    1244:	01063106 	tsteq	r6, r6, lsl #2
    1248:	a0060205 	andge	r0, r6, r5, lsl #4
    124c:	01060405 	tsteq	r6, r5, lsl #8
    1250:	2f060305 	svccs	0x00060305
    1254:	01060905 	tsteq	r6, r5, lsl #18
    1258:	30060205 	andcc	r0, r6, r5, lsl #4
    125c:	060b0513 			; <UNDEFINED> instruction: 0x060b0513
    1260:	06020501 	streq	r0, [r2], -r1, lsl #10
    1264:	052e0630 	streq	r0, [lr, #-1584]!	; 0xfffff9d0
    1268:	24020604 	strcs	r0, [r2], #-1540	; 0xfffff9fc
    126c:	0f051315 	svceq	0x00051315
    1270:	052e0106 	streq	r0, [lr, #-262]!	; 0xfffffefa
    1274:	05054a06 	streq	r4, [r5, #-2566]	; 0xfffff5fa
    1278:	05134b06 	ldreq	r4, [r3, #-2822]	; 0xfffff4fa
    127c:	05010609 	streq	r0, [r1, #-1545]	; 0xfffff9f7
    1280:	052f0605 	streq	r0, [pc, #-1541]!	; c83 <__code_start__-0x737d>
    1284:	0510060b 	ldreq	r0, [r0, #-1547]	; 0xfffff9f5
    1288:	0402000d 	streq	r0, [r2], #-13
    128c:	04052c01 	streq	r2, [r5], #-3073	; 0xfffff3ff
    1290:	01040200 	mrseq	r0, R12_usr
    1294:	05053406 	streq	r3, [r5, #-1030]	; 0xfffffbfa
    1298:	01040200 	mrseq	r0, R12_usr
    129c:	001b0513 	andseq	r0, fp, r3, lsl r5
    12a0:	06010402 	streq	r0, [r1], -r2, lsl #8
    12a4:	00070501 	andeq	r0, r7, r1, lsl #10
    12a8:	d6010402 	strle	r0, [r1], -r2, lsl #8
    12ac:	02001805 	andeq	r1, r0, #327680	; 0x50000
    12b0:	052e0104 	streq	r0, [lr, #-260]!	; 0xfffffefc
    12b4:	0402000a 	streq	r0, [r2], #-10
    12b8:	0b054a01 	bleq	153ac4 <__bss_end__+0x149d04>
    12bc:	01040200 	mrseq	r0, R12_usr
    12c0:	0e052f06 	cdpeq	15, 0, cr2, cr5, cr6, {0}
    12c4:	01040200 	mrseq	r0, R12_usr
    12c8:	04052e06 	streq	r2, [r5], #-3590	; 0xfffff1fa
    12cc:	01040200 	mrseq	r0, R12_usr
    12d0:	054b062e 	strbeq	r0, [fp, #-1582]	; 0xfffff9d2
    12d4:	05010606 	streq	r0, [r1, #-1542]	; 0xfffff9fa
    12d8:	052f0605 	streq	r0, [pc, #-1541]!	; cdb <__code_start__-0x7325>
    12dc:	0501060a 	streq	r0, [r1, #-1546]	; 0xfffff9f6
    12e0:	052e4a07 	streq	r4, [lr, #-2567]!	; 0xfffff5f9
    12e4:	2e76030d 	cdpcs	3, 7, cr0, cr6, cr13, {0}
    12e8:	0d0b054a 	cfstr32eq	mvfx0, [fp, #-296]	; 0xfffffed8
    12ec:	02000d05 	andeq	r0, r0, #320	; 0x140
    12f0:	03060104 	movweq	r0, #24836	; 0x6104
    12f4:	11052e14 	tstne	r5, r4, lsl lr
    12f8:	01040200 	mrseq	r0, R12_usr
    12fc:	002d0513 	eoreq	r0, sp, r3, lsl r5
    1300:	06010402 	streq	r0, [r1], -r2, lsl #8
    1304:	002a0501 	eoreq	r0, sl, r1, lsl #10
    1308:	2e010402 	cdpcs	4, 0, cr0, cr1, cr2, {0}
    130c:	02001605 	andeq	r1, r0, #5242880	; 0x500000
    1310:	054a0104 	strbeq	r0, [sl, #-260]	; 0xfffffefc
    1314:	04020014 	streq	r0, [r2], #-20	; 0xffffffec
    1318:	054b0601 	strbeq	r0, [fp, #-1537]	; 0xfffff9ff
    131c:	0402000d 	streq	r0, [r2], #-13
    1320:	00010601 	andeq	r0, r1, r1, lsl #12
    1324:	4a010402 	bmi	42334 <__bss_end__+0x38574>
    1328:	12052f06 	andne	r2, r5, #6, 30
    132c:	054a0106 	strbeq	r0, [sl, #-262]	; 0xfffffefa
    1330:	052f060d 	streq	r0, [pc, #-1549]!	; d2b <__code_start__-0x72d5>
    1334:	05010612 	streq	r0, [r1, #-1554]	; 0xfffff9ee
    1338:	054b0619 	strbeq	r0, [fp, #-1561]	; 0xfffff9e7
    133c:	04020004 	streq	r0, [r2], #-4
    1340:	01110302 	tsteq	r1, r2, lsl #6
    1344:	02040200 	andeq	r0, r4, #0, 4
    1348:	00020501 	andeq	r0, r2, r1, lsl #10
    134c:	15020402 	strne	r0, [r2, #-1026]	; 0xfffffbfe
    1350:	02000905 	andeq	r0, r0, #81920	; 0x14000
    1354:	01060204 	tsteq	r6, r4, lsl #4
    1358:	02040200 	andeq	r0, r4, #0, 4
    135c:	0001054a 	andeq	r0, r1, sl, asr #10
    1360:	9f020402 	svcls	0x00020402
    1364:	03060405 	movweq	r0, #25605	; 0x6405
    1368:	09054a6e 	stmdbeq	r5, {r1, r2, r3, r5, r6, r9, fp, lr}
    136c:	04050106 	streq	r0, [r5], #-262	; 0xfffffefa
    1370:	06052f06 	streq	r2, [r5], -r6, lsl #30
    1374:	04051106 	streq	r1, [r5], #-262	; 0xfffffefa
    1378:	030b052f 	movweq	r0, #46383	; 0xb52f
    137c:	19052e63 	stmdbne	r5, {r0, r1, r5, r6, r9, sl, fp, sp}
    1380:	01040200 	mrseq	r0, R12_usr
    1384:	2e240306 	cdpcs	3, 2, cr0, cr4, cr6, {0}
    1388:	02001a05 	andeq	r1, r0, #20480	; 0x5000
    138c:	05130104 	ldreq	r0, [r3, #-260]	; 0xfffffefc
    1390:	04020028 	streq	r0, [r2], #-40	; 0xffffffd8
    1394:	05010601 	streq	r0, [r1, #-1537]	; 0xfffff9ff
    1398:	04020025 	streq	r0, [r2], #-37	; 0xffffffdb
    139c:	1f052e01 	svcne	0x00052e01
    13a0:	01040200 	mrseq	r0, R12_usr
    13a4:	000b054a 	andeq	r0, fp, sl, asr #10
    13a8:	06010402 	streq	r0, [r1], -r2, lsl #8
    13ac:	0004054b 	andeq	r0, r4, fp, asr #10
    13b0:	06010402 	streq	r0, [r1], -r2, lsl #8
    13b4:	04020001 	streq	r0, [r2], #-1
    13b8:	02004a01 	andeq	r4, r0, #4096	; 0x1000
    13bc:	4e060104 	adfmis	f0, f6, f4
    13c0:	01040200 	mrseq	r0, R12_usr
    13c4:	04020001 	streq	r0, [r2], #-1
    13c8:	02000101 	andeq	r0, r0, #1073741824	; 0x40000000
    13cc:	00010104 	andeq	r0, r1, r4, lsl #2
    13d0:	06010402 	streq	r0, [r1], -r2, lsl #8
    13d4:	0402002e 	streq	r0, [r2], #-46	; 0xffffffd2
    13d8:	02006601 	andeq	r6, r0, #1048576	; 0x100000
    13dc:	002e0104 	eoreq	r0, lr, r4, lsl #2
    13e0:	06010402 	streq	r0, [r1], -r2, lsl #8
    13e4:	0348054a 	movteq	r0, #34122	; 0x854a
    13e8:	20087fa6 	andcs	r7, r8, r6, lsr #31
    13ec:	01130505 	tsteq	r3, r5, lsl #10
    13f0:	02002e06 	andeq	r2, r0, #96	; 0x60
    13f4:	2e060204 	cdpcs	2, 0, cr0, cr6, cr4, {0}
    13f8:	02040200 	andeq	r0, r4, #0, 4
    13fc:	04020001 	streq	r0, [r2], #-1
    1400:	11051302 	tstne	r5, r2, lsl #6
    1404:	02040200 	andeq	r0, r4, #0, 4
    1408:	05050106 	streq	r0, [r5, #-262]	; 0xfffffefa
    140c:	02040200 	andeq	r0, r4, #0, 4
    1410:	07054b06 	streq	r4, [r5, -r6, lsl #22]
    1414:	02040200 	andeq	r0, r4, #0, 4
    1418:	09050106 	stmdbeq	r5, {r1, r2, r8}
    141c:	0e054b06 	vmlaeq.f64	d4, d5, d6
    1420:	48050106 	stmdami	r5, {r1, r2, r8}
    1424:	01040200 	mrseq	r0, R12_usr
    1428:	00050562 	andeq	r0, r5, r2, ror #10
    142c:	06010402 	streq	r0, [r1], -r2, lsl #8
    1430:	0402004b 	streq	r0, [r2], #-75	; 0xffffffb5
    1434:	02000101 	andeq	r0, r0, #1073741824	; 0x40000000
    1438:	9e060104 	adflss	f0, f6, f4
    143c:	01040200 	mrseq	r0, R12_usr
    1440:	0402002e 	streq	r0, [r2], #-46	; 0xffffffd2
    1444:	052e0601 	streq	r0, [lr, #-1537]!	; 0xfffff9ff
    1448:	00e10340 	rsceq	r0, r1, r0, asr #6
    144c:	050106d6 	streq	r0, [r1, #-1750]	; 0xfffff92a
    1450:	059f0602 	ldreq	r0, [pc, #1538]	; 1a5a <__code_start__-0x65a6>
    1454:	0501061e 	streq	r0, [r1, #-1566]	; 0xfffff9e2
    1458:	05052e12 	streq	r2, [r5, #-3602]	; 0xfffff1ee
    145c:	02052f06 	andeq	r2, r5, #6, 30
    1460:	06090514 			; <UNDEFINED> instruction: 0x06090514
    1464:	06050501 	streq	r0, [r5], -r1, lsl #10
    1468:	1302054b 	movwne	r0, #9547	; 0x254b
    146c:	0d060805 	stceq	8, cr0, [r6, #-20]	; 0xffffffec
    1470:	05330205 	ldreq	r0, [r3, #-517]!	; 0xfffffdfb
    1474:	054c0604 	strbeq	r0, [ip, #-1540]	; 0xfffff9fc
    1478:	0501060f 	streq	r0, [r1, #-1551]	; 0xfffff9f1
    147c:	08052e09 	stmdaeq	r5, {r0, r3, r9, sl, fp, sp}
    1480:	02052c06 	andeq	r2, r5, #1536	; 0x600
    1484:	0d052e06 	stceq	14, cr2, [r5, #-24]	; 0xffffffe8
    1488:	01040200 	mrseq	r0, R12_usr
    148c:	0603054a 	streq	r0, [r3], -sl, asr #10
    1490:	0605054b 	streq	r0, [r5], -fp, asr #10
    1494:	06080501 	streq	r0, [r8], -r1, lsl #10
    1498:	060e054d 	streq	r0, [lr], -sp, asr #10
    149c:	2e0a0501 	cfsh32cs	mvfx0, mvfx10, #1
    14a0:	2f060405 	svccs	0x00060405
    14a4:	01060905 	tsteq	r6, r5, lsl #18
    14a8:	2f060405 	svccs	0x00060405
    14ac:	01060705 	tsteq	r6, r5, lsl #14
    14b0:	0604052e 	streq	r0, [r4], -lr, lsr #10
    14b4:	06070530 			; <UNDEFINED> instruction: 0x06070530
    14b8:	06040501 	streq	r0, [r4], -r1, lsl #10
    14bc:	05141330 	ldreq	r1, [r4, #-816]	; 0xfffffcd0
    14c0:	0510060d 	ldreq	r0, [r0, #-1549]	; 0xfffff9f3
    14c4:	05300609 	ldreq	r0, [r0, #-1545]!	; 0xfffff9f7
    14c8:	05010612 	streq	r0, [r1, #-1554]	; 0xfffff9ee
    14cc:	09052e0a 	stmdbeq	r5, {r1, r3, r9, sl, fp, sp}
    14d0:	06050566 	streq	r0, [r5], -r6, ror #10
    14d4:	0612054b 	ldreq	r0, [r2], -fp, asr #10
    14d8:	2e160501 	cfmul32cs	mvfx0, mvfx6, mvfx1
    14dc:	052e0b05 	streq	r0, [lr, #-2821]!	; 0xfffff4fb
    14e0:	052f0605 	streq	r0, [pc, #-1541]!	; ee3 <__code_start__-0x711d>
    14e4:	2e010608 	cfmadd32cs	mvax0, mvfx0, mvfx1, mvfx8
    14e8:	30060405 	andcc	r0, r6, r5, lsl #8
    14ec:	15014a01 	strne	r4, [r1, #-2561]	; 0xfffff5ff
    14f0:	01040200 	mrseq	r0, R12_usr
    14f4:	000f3602 	andeq	r3, pc, r2, lsl #12
    14f8:	01010402 	tsteq	r1, r2, lsl #8
    14fc:	01040200 	mrseq	r0, R12_usr
    1500:	341105d6 	ldrcc	r0, [r1], #-1494	; 0xfffffa2a
    1504:	02000113 	andeq	r0, r0, #-1073741820	; 0xc0000004
    1508:	ba060204 	blt	181d20 <__bss_end__+0x177f60>
    150c:	03040200 	movweq	r0, #16896	; 0x4200
    1510:	0200ba06 	andeq	fp, r0, #24576	; 0x6000
    1514:	00010304 	andeq	r0, r1, r4, lsl #6
    1518:	14030402 	strne	r0, [r3], #-1026	; 0xfffffbfe
    151c:	02001505 	andeq	r1, r0, #20971520	; 0x1400000
    1520:	01060304 	tsteq	r6, r4, lsl #6
    1524:	02001105 	andeq	r1, r0, #1073741825	; 0x40000001
    1528:	2f060304 	svccs	0x00060304
    152c:	02001a05 	andeq	r1, r0, #20480	; 0x5000
    1530:	01060304 	tsteq	r6, r4, lsl #6
    1534:	02001105 	andeq	r1, r0, #1073741825	; 0x40000001
    1538:	d7060304 	strle	r0, [r6, -r4, lsl #6]
    153c:	03040200 	movweq	r0, #16896	; 0x4200
    1540:	04020013 	streq	r0, [r2], #-19	; 0xffffffed
    1544:	02001403 	andeq	r1, r0, #50331648	; 0x3000000
    1548:	00670304 	rsbeq	r0, r7, r4, lsl #6
    154c:	68030402 	stmdavs	r3, {r1, sl}
    1550:	02001405 	andeq	r1, r0, #83886080	; 0x5000000
    1554:	01060304 	tsteq	r6, r4, lsl #6
    1558:	02001305 	andeq	r1, r0, #335544320	; 0x14000000
    155c:	05820304 	streq	r0, [r2, #772]	; 0x304
    1560:	054e0618 	strbeq	r0, [lr, #-1560]	; 0xfffff9e8
    1564:	0501061b 	streq	r0, [r1, #-1563]	; 0xfffff9e5
    1568:	0905821a 	stmdbeq	r5, {r1, r3, r4, r9, pc}
    156c:	0d054b06 	vstreq	d4, [r5, #-24]	; 0xffffffe8
    1570:	052e0106 	streq	r0, [lr, #-262]!	; 0xfffffefa
    1574:	06f30609 	ldrbteq	r0, [r3], r9, lsl #12
    1578:	061505ba 			; <UNDEFINED> instruction: 0x061505ba
    157c:	06180530 			; <UNDEFINED> instruction: 0x06180530
    1580:	66170501 	ldrvs	r0, [r7], -r1, lsl #10
    1584:	4b061905 	blmi	1879a0 <__bss_end__+0x17dbe0>
    1588:	03061505 	movweq	r1, #25861	; 0x6505
    158c:	1105666f 	tstne	r5, pc, ror #12
    1590:	d6014806 	strle	r4, [r1], -r6, lsl #16
    1594:	0b030905 	bleq	c39b0 <__bss_end__+0xb9bf0>
    1598:	060d052e 	streq	r0, [sp], -lr, lsr #10
    159c:	09052e01 	stmdbeq	r5, {r0, r9, sl, fp, sp}
    15a0:	ba06f306 	blt	1be1c0 <__bss_end__+0x1b4400>
    15a4:	2f061505 	svccs	0x00061505
    15a8:	66750306 	ldrbtvs	r0, [r5], -r6, lsl #6
    15ac:	03061905 	movweq	r1, #26885	; 0x6905
    15b0:	15054a13 	strne	r4, [r5, #-2579]	; 0xfffff5ed
    15b4:	666d0306 	strbtvs	r0, [sp], -r6, lsl #6
    15b8:	4a150306 	bmi	5421d8 <__bss_end__+0x538418>
    15bc:	2e06ba01 	vmlacs.f32	s22, s12, s2
    15c0:	1a060505 	bne	1829dc <__bss_end__+0x178c1c>
    15c4:	032e9e01 			; <UNDEFINED> instruction: 0x032e9e01
    15c8:	0905010e 	stmdbeq	r5, {r1, r2, r3, r8}
    15cc:	05050106 	streq	r0, [r5, #-262]	; 0xfffffefa
    15d0:	05750806 	ldrbeq	r0, [r5, #-2054]!	; 0xfffff7fa
    15d4:	01180304 	tsteq	r8, r4, lsl #6
    15d8:	01060705 	tsteq	r6, r5, lsl #14
    15dc:	31060405 	tstcc	r6, r5, lsl #8
    15e0:	67030505 	strvs	r0, [r3, -r5, lsl #10]
    15e4:	061c052e 	ldreq	r0, [ip], -lr, lsr #10
    15e8:	82090501 	andhi	r0, r9, #4194304	; 0x400000
    15ec:	f3060505 	vrshl.u8	d0, d5, d6
    15f0:	061c0531 			; <UNDEFINED> instruction: 0x061c0531
    15f4:	82090501 	andhi	r0, r9, #4194304	; 0x400000
    15f8:	f3060505 	vrshl.u8	d0, d5, d6
    15fc:	061b0530 			; <UNDEFINED> instruction: 0x061b0530
    1600:	82090501 	andhi	r0, r9, #4194304	; 0x400000
    1604:	f3060505 	vrshl.u8	d0, d5, d6
    1608:	06070530 			; <UNDEFINED> instruction: 0x06070530
    160c:	06050501 	streq	r0, [r5], -r1, lsl #10
    1610:	09053083 	stmdbeq	r5, {r0, r1, r7, ip, sp}
    1614:	05050106 	streq	r0, [r5, #-262]	; 0xfffffefa
    1618:	05750806 	ldrbeq	r0, [r5, #-2054]!	; 0xfffff7fa
    161c:	22053011 	andcs	r3, r5, #17, 0
    1620:	05050106 	streq	r0, [r5, #-262]	; 0xfffffefa
    1624:	11054b06 	tstne	r5, r6, lsl #22
    1628:	83050583 	movwhi	r0, #21891	; 0x5583
    162c:	05359e01 	ldreq	r9, [r5, #-3585]!	; 0xfffff1ff
    1630:	0501060e 	streq	r0, [r1, #-1550]	; 0xfffff9f2
    1634:	2d062e0a 	stccs	14, cr2, [r6, #-40]	; 0xffffffd8
    1638:	01060405 	tsteq	r6, r5, lsl #8
    163c:	02001305 	andeq	r1, r0, #335544320	; 0x14000000
    1640:	054a0104 	strbeq	r0, [sl, #-260]	; 0xfffffefc
    1644:	04020010 	streq	r0, [r2], #-16
    1648:	02002e01 	andeq	r2, r0, #1, 28
    164c:	05660104 	strbeq	r0, [r6, #-260]!	; 0xfffffefc
    1650:	05160602 	ldreq	r0, [r6, #-1538]	; 0xfffff9fe
    1654:	05010607 	streq	r0, [r1, #-1543]	; 0xfffff9f9
    1658:	054b0602 	strbeq	r0, [fp, #-1538]	; 0xfffff9fe
    165c:	66130601 	ldrvs	r0, [r3], -r1, lsl #12
    1660:	01001e02 	tsteq	r0, r2, lsl #28
    1664:	0000c001 	andeq	ip, r0, r1
    1668:	7f000300 	svcvc	0x00000300
    166c:	02000000 	andeq	r0, r0, #0, 0
    1670:	0d0efb01 	vstreq	d15, [lr, #-4]
    1674:	01010100 	mrseq	r0, (UNDEF: 17)
    1678:	00000001 	andeq	r0, r0, r1
    167c:	01000001 	tsteq	r0, r1
    1680:	74732f2e 	ldrbtvc	r2, [r3], #-3886	; 0xfffff0d2
    1684:	2d666661 	stclcs	6, cr6, [r6, #-388]!	; 0xfffffe7c
    1688:	00637273 	rsbeq	r7, r3, r3, ror r2
    168c:	6573552f 	ldrbvs	r5, [r3, #-1327]!	; 0xfffffad1
    1690:	6a2f7372 	bvs	bde460 <__bss_end__+0xbd46a0>
    1694:	65696d61 	strbvs	r6, [r9, #-3425]!	; 0xfffff29f
    1698:	636f442f 	cmnvs	pc, #788529152	; 0x2f000000
    169c:	6e656d75 	mcrvs	13, 3, r6, cr5, cr5, {3}
    16a0:	432f7374 			; <UNDEFINED> instruction: 0x432f7374
    16a4:	30343153 	eorscc	r3, r4, r3, asr r1
    16a8:	73632f45 	cmnvc	r3, #276	; 0x114
    16ac:	45303431 	ldrmi	r3, [r0, #-1073]!	; 0xfffffbcf
    16b0:	6e69662d 	cdpvs	6, 6, cr6, cr9, cr13, {1}
    16b4:	702d6c61 	eorvc	r6, sp, r1, ror #24
    16b8:	656a6f72 	strbvs	r6, [sl, #-3954]!	; 0xfffff08e
    16bc:	6c2f7463 	cfstrsvs	mvf7, [pc], #-396	; 1538 <__code_start__-0x6ac8>
    16c0:	2d736269 	lfmcs	f6, 2, [r3, #-420]!	; 0xfffffe5c
    16c4:	6c303432 	cfldrsvs	mvf3, [r0], #-200	; 0xffffff38
    16c8:	696c2f78 	stmdbvs	ip!, {r3, r4, r5, r6, r8, r9, sl, fp, sp}^
    16cc:	2f697062 	svccs	0x00697062
    16d0:	6c636e69 	stclvs	14, cr6, [r3], #-420	; 0xfffffe5c
    16d4:	00656475 	rsbeq	r6, r5, r5, ror r4
    16d8:	63616300 	cmnvs	r1, #0, 6
    16dc:	632e6568 			; <UNDEFINED> instruction: 0x632e6568
    16e0:	00000100 	andeq	r0, r0, r0, lsl #2
    16e4:	2e697072 	mcrcs	0, 3, r7, cr9, cr2, {3}
    16e8:	00020068 	andeq	r0, r2, r8, rrx
    16ec:	19050000 	stmdbne	r5, {}	; <UNPREDICTABLE>
    16f0:	f8020500 			; <UNDEFINED> instruction: 0xf8020500
    16f4:	1400008a 	strne	r0, [r0], #-138	; 0xffffff76
    16f8:	13130505 	tstne	r3, #20971520	; 0x1400000
    16fc:	132f0205 			; <UNDEFINED> instruction: 0x132f0205
    1700:	01060405 	tsteq	r6, r5, lsl #8
    1704:	2f060505 	svccs	0x00060505
    1708:	2f060105 	svccs	0x00060105
    170c:	31061a05 	tstcc	r6, r5, lsl #20
    1710:	13130505 	tstne	r3, #20971520	; 0x1400000
    1714:	13300205 	teqne	r0, #1342177280	; 0x50000000
    1718:	01060405 	tsteq	r6, r5, lsl #8
    171c:	2f060505 	svccs	0x00060505
    1720:	2f060105 	svccs	0x00060105
    1724:	01000202 	tsteq	r0, r2, lsl #4
    1728:	0000a101 	andeq	sl, r0, r1, lsl #2
    172c:	86000300 	strhi	r0, [r0], -r0, lsl #6
    1730:	02000000 	andeq	r0, r0, #0, 0
    1734:	0d0efb01 	vstreq	d15, [lr, #-4]
    1738:	01010100 	mrseq	r0, (UNDEF: 17)
    173c:	00000001 	andeq	r0, r0, r1
    1740:	01000001 	tsteq	r0, r1
    1744:	74732f2e 	ldrbtvc	r2, [r3], #-3886	; 0xfffff0d2
    1748:	2d666661 	stclcs	6, cr6, [r6, #-388]!	; 0xfffffe7c
    174c:	00637273 	rsbeq	r7, r3, r3, ror r2
    1750:	6573552f 	ldrbvs	r5, [r3, #-1327]!	; 0xfffffad1
    1754:	6a2f7372 	bvs	bde524 <__bss_end__+0xbd4764>
    1758:	65696d61 	strbvs	r6, [r9, #-3425]!	; 0xfffff29f
    175c:	636f442f 	cmnvs	pc, #788529152	; 0x2f000000
    1760:	6e656d75 	mcrvs	13, 3, r6, cr5, cr5, {3}
    1764:	432f7374 			; <UNDEFINED> instruction: 0x432f7374
    1768:	30343153 	eorscc	r3, r4, r3, asr r1
    176c:	73632f45 	cmnvc	r3, #276	; 0x114
    1770:	45303431 	ldrmi	r3, [r0, #-1073]!	; 0xfffffbcf
    1774:	6e69662d 	cdpvs	6, 6, cr6, cr9, cr13, {1}
    1778:	702d6c61 	eorvc	r6, sp, r1, ror #24
    177c:	656a6f72 	strbvs	r6, [sl, #-3954]!	; 0xfffff08e
    1780:	6c2f7463 	cfstrsvs	mvf7, [pc], #-396	; 15fc <__code_start__-0x6a04>
    1784:	2d736269 	lfmcs	f6, 2, [r3, #-420]!	; 0xfffffe5c
    1788:	6c303432 	cfldrsvs	mvf3, [r0], #-200	; 0xffffff38
    178c:	696c2f78 	stmdbvs	ip!, {r3, r4, r5, r6, r8, r9, sl, fp, sp}^
    1790:	2f697062 	svccs	0x00697062
    1794:	6c636e69 	stclvs	14, cr6, [r3], #-420	; 0xfffffe5c
    1798:	00656475 	rsbeq	r6, r5, r5, ror r4
    179c:	656c6300 	strbvs	r6, [ip, #-768]!	; 0xfffffd00
    17a0:	722d6e61 	eorvc	r6, sp, #1552	; 0x610
    17a4:	6f6f6265 	svcvs	0x006f6265
    17a8:	00632e74 	rsbeq	r2, r3, r4, ror lr
    17ac:	72000001 	andvc	r0, r0, #1, 0
    17b0:	682e6970 	stmdavs	lr!, {r4, r5, r6, r8, fp, sp, lr}
    17b4:	00000200 	andeq	r0, r0, r0, lsl #4
    17b8:	00190500 	andseq	r0, r9, r0, lsl #10
    17bc:	8b180205 	blhi	601fd8 <__bss_end__+0x5f8218>
    17c0:	05150000 	ldreq	r0, [r5, #-0]
    17c4:	2f832f05 	svccs	0x00832f05
    17c8:	0006024b 	andeq	r0, r6, fp, asr #4
    17cc:	00bb0101 	adcseq	r0, fp, r1, lsl #2
    17d0:	00030000 	andeq	r0, r3, r0
    17d4:	00000080 	andeq	r0, r0, r0, lsl #1
    17d8:	0efb0102 	cdpeq	1, 15, cr0, cr11, cr2, {0}
    17dc:	0101000d 	tsteq	r1, sp
    17e0:	00000101 	andeq	r0, r0, r1, lsl #2
    17e4:	00000100 	andeq	r0, r0, r0, lsl #2
    17e8:	732f2e01 			; <UNDEFINED> instruction: 0x732f2e01
    17ec:	66666174 			; <UNDEFINED> instruction: 0x66666174
    17f0:	6372732d 	cmnvs	r2, #-1275068416	; 0xb4000000
    17f4:	73552f00 	cmpvc	r5, #0, 30
    17f8:	2f737265 	svccs	0x00737265
    17fc:	696d616a 	stmdbvs	sp!, {r1, r3, r5, r6, r8, sp, lr}^
    1800:	6f442f65 	svcvs	0x00442f65
    1804:	656d7563 	strbvs	r7, [sp, #-1379]!	; 0xfffffa9d
    1808:	2f73746e 	svccs	0x0073746e
    180c:	34315343 	ldrtcc	r5, [r1], #-835	; 0xfffffcbd
    1810:	632f4530 			; <UNDEFINED> instruction: 0x632f4530
    1814:	30343173 	eorscc	r3, r4, r3, ror r1
    1818:	69662d45 	stmdbvs	r6!, {r0, r2, r6, r8, sl, fp, sp}^
    181c:	2d6c616e 	stfcse	f6, [ip, #-440]!	; 0xfffffe48
    1820:	6a6f7270 	bvs	1bde1e8 <__bss_end__+0x1bd4428>
    1824:	2f746365 	svccs	0x00746365
    1828:	7362696c 	cmnvc	r2, #108, 18	; 0x1b0000
    182c:	3034322d 	eorscc	r3, r4, sp, lsr #4
    1830:	6c2f786c 	stcvs	8, cr7, [pc], #-432	; 1688 <__code_start__-0x6978>
    1834:	69706269 	ldmdbvs	r0!, {r0, r3, r5, r6, r9, sp, lr}^
    1838:	636e692f 	cmnvs	lr, #770048	; 0xbc000
    183c:	6564756c 	strbvs	r7, [r4, #-1388]!	; 0xfffffa94
    1840:	73630000 	cmnvc	r3, #0, 0
    1844:	74726174 	ldrbtvc	r6, [r2], #-372	; 0xfffffe8c
    1848:	0100632e 	tsteq	r0, lr, lsr #6
    184c:	70720000 	rsbsvc	r0, r2, r0
    1850:	00682e69 	rsbeq	r2, r8, r9, ror #28
    1854:	00000002 	andeq	r0, r0, r2
    1858:	05001005 	streq	r1, [r0, #-5]
    185c:	008b4402 	addeq	r4, fp, r2, lsl #8
    1860:	05051500 	streq	r1, [r5, #-1280]	; 0xfffffb00
    1864:	1302052f 	movwne	r0, #9519	; 0x252f
    1868:	30140505 	andscc	r0, r4, r5, lsl #10
    186c:	0a051413 	beq	1468c0 <__bss_end__+0x13cb00>
    1870:	31060f06 	tstcc	r6, r6, lsl #30
    1874:	054b0905 	strbeq	r0, [fp, #-2309]	; 0xfffff6fb
    1878:	4a010610 	bmi	430c0 <__bss_end__+0x39300>
    187c:	30060505 	andcc	r0, r6, r5, lsl #10
    1880:	4a010132 	bmi	41d50 <__bss_end__+0x37f90>
    1884:	2f020514 	svccs	0x00020514
    1888:	01000602 	tsteq	r0, r2, lsl #12
    188c:	00009f01 	andeq	r9, r0, r1, lsl #30
    1890:	87000300 	strhi	r0, [r0, -r0, lsl #6]
    1894:	02000000 	andeq	r0, r0, #0, 0
    1898:	0d0efb01 	vstreq	d15, [lr, #-4]
    189c:	01010100 	mrseq	r0, (UNDEF: 17)
    18a0:	00000001 	andeq	r0, r0, r1
    18a4:	01000001 	tsteq	r0, r1
    18a8:	74732f2e 	ldrbtvc	r2, [r3], #-3886	; 0xfffff0d2
    18ac:	2d666661 	stclcs	6, cr6, [r6, #-388]!	; 0xfffffe7c
    18b0:	00637273 	rsbeq	r7, r3, r3, ror r2
    18b4:	6573552f 	ldrbvs	r5, [r3, #-1327]!	; 0xfffffad1
    18b8:	6a2f7372 	bvs	bde688 <__bss_end__+0xbd48c8>
    18bc:	65696d61 	strbvs	r6, [r9, #-3425]!	; 0xfffff29f
    18c0:	636f442f 	cmnvs	pc, #788529152	; 0x2f000000
    18c4:	6e656d75 	mcrvs	13, 3, r6, cr5, cr5, {3}
    18c8:	432f7374 			; <UNDEFINED> instruction: 0x432f7374
    18cc:	30343153 	eorscc	r3, r4, r3, asr r1
    18d0:	73632f45 	cmnvc	r3, #276	; 0x114
    18d4:	45303431 	ldrmi	r3, [r0, #-1073]!	; 0xfffffbcf
    18d8:	6e69662d 	cdpvs	6, 6, cr6, cr9, cr13, {1}
    18dc:	702d6c61 	eorvc	r6, sp, r1, ror #24
    18e0:	656a6f72 	strbvs	r6, [sl, #-3954]!	; 0xfffff08e
    18e4:	6c2f7463 	cfstrsvs	mvf7, [pc], #-396	; 1760 <__code_start__-0x68a0>
    18e8:	2d736269 	lfmcs	f6, 2, [r3, #-420]!	; 0xfffffe5c
    18ec:	6c303432 	cfldrsvs	mvf3, [r0], #-200	; 0xffffff38
    18f0:	696c2f78 	stmdbvs	ip!, {r3, r4, r5, r6, r8, r9, sl, fp, sp}^
    18f4:	2f697062 	svccs	0x00697062
    18f8:	6c636e69 	stclvs	14, cr6, [r3], #-420	; 0xfffffe5c
    18fc:	00656475 	rsbeq	r6, r5, r5, ror r4
    1900:	73756300 	cmnvc	r5, #0, 6
    1904:	2d6d6f74 	stclcs	15, cr6, [sp, #-464]!	; 0xfffffe30
    1908:	64616f6c 	strbtvs	r6, [r1], #-3948	; 0xfffff094
    190c:	632e7265 			; <UNDEFINED> instruction: 0x632e7265
    1910:	00000100 	andeq	r0, r0, r0, lsl #2
    1914:	2e697072 	mcrcs	0, 3, r7, cr9, cr2, {3}
    1918:	00020068 	andeq	r0, r2, r8, rrx
    191c:	1a050000 	bne	141924 <__bss_end__+0x137b64>
    1920:	80020500 	andhi	r0, r2, r0, lsl #10
    1924:	1500008b 	strne	r0, [r0, #-139]	; 0xffffff75
    1928:	02140105 	andseq	r0, r4, #1073741825	; 0x40000001
    192c:	01010002 	tsteq	r1, r2
    1930:	000000ef 	andeq	r0, r0, pc, ror #1
    1934:	00800003 	addeq	r0, r0, r3
    1938:	01020000 	mrseq	r0, (UNDEF: 2)
    193c:	000d0efb 	strdeq	r0, [sp], -fp
    1940:	01010101 	tsteq	r1, r1, lsl #2
    1944:	01000000 	mrseq	r0, (UNDEF: 0)
    1948:	2e010000 	cdpcs	0, 0, cr0, cr1, cr0, {0}
    194c:	6174732f 	cmnvs	r4, pc, lsr #6
    1950:	732d6666 			; <UNDEFINED> instruction: 0x732d6666
    1954:	2f006372 	svccs	0x00006372
    1958:	72657355 	rsbvc	r7, r5, #1409286145	; 0x54000001
    195c:	616a2f73 	smcvs	41715	; 0xa2f3
    1960:	2f65696d 	svccs	0x0065696d
    1964:	75636f44 	strbvc	r6, [r3, #-3908]!	; 0xfffff0bc
    1968:	746e656d 	strbtvc	r6, [lr], #-1389	; 0xfffffa93
    196c:	53432f73 	movtpl	r2, #16243	; 0x3f73
    1970:	45303431 	ldrmi	r3, [r0, #-1073]!	; 0xfffffbcf
    1974:	3173632f 	cmncc	r3, pc, lsr #6
    1978:	2d453034 	stclcs	0, cr3, [r5, #-208]	; 0xffffff30
    197c:	616e6966 	cmnvs	lr, r6, ror #18
    1980:	72702d6c 	rsbsvc	r2, r0, #108, 26	; 0x1b00
    1984:	63656a6f 	cmnvs	r5, #454656	; 0x6f000
    1988:	696c2f74 	stmdbvs	ip!, {r2, r4, r5, r6, r8, r9, sl, fp, sp}^
    198c:	322d7362 	eorcc	r7, sp, #-2013265919	; 0x88000001
    1990:	786c3034 	stmdavc	ip!, {r2, r4, r5, ip, sp}^
    1994:	62696c2f 	rsbvs	r6, r9, #12032	; 0x2f00
    1998:	692f6970 	stmdbvs	pc!, {r4, r5, r6, r8, fp, sp, lr}	; <UNPREDICTABLE>
    199c:	756c636e 	strbvc	r6, [ip, #-878]!	; 0xfffffc92
    19a0:	00006564 	andeq	r6, r0, r4, ror #10
    19a4:	6f626572 	svcvs	0x00626572
    19a8:	632e746f 			; <UNDEFINED> instruction: 0x632e746f
    19ac:	00000100 	andeq	r0, r0, r0, lsl #2
    19b0:	2e697072 	mcrcs	0, 3, r7, cr9, cr2, {3}
    19b4:	00020068 	andeq	r0, r2, r8, rrx
    19b8:	19050000 	stmdbne	r5, {}	; <UNPREDICTABLE>
    19bc:	9c020500 	cfstr32ls	mvfx0, [r2], {-0}
    19c0:	0300008b 	movweq	r0, #139	; 0x8b
    19c4:	0505010d 	streq	r0, [r5, #-269]	; 0xfffffef3
    19c8:	05311313 	ldreq	r1, [r1, #-787]!	; 0xfffffced
    19cc:	05010613 	streq	r0, [r1, #-1555]	; 0xfffff9ed
    19d0:	1b052f01 	blne	14d5dc <__bss_end__+0x14381c>
    19d4:	05058506 	streq	r8, [r5, #-1286]	; 0xfffffafa
    19d8:	09051413 	stmdbeq	r5, {r0, r1, r4, sl, ip}
    19dc:	0616052f 	ldreq	r0, [r6], -pc, lsr #10
    19e0:	2e0e0501 	cfsh32cs	mvfx0, mvfx14, #1
    19e4:	2f060505 	svccs	0x00060505
    19e8:	2f060105 	svccs	0x00060105
    19ec:	30061705 	andcc	r1, r6, r5, lsl #14
    19f0:	052f0505 	streq	r0, [pc, #-1285]!	; 14f3 <__code_start__-0x6b0d>
    19f4:	05010608 	streq	r0, [r1, #-1544]	; 0xfffff9f8
    19f8:	05052e07 	streq	r2, [r5, #-3591]	; 0xfffff1f9
    19fc:	2f305006 	svccs	0x00305006
    1a00:	1313134d 	tstne	r3, #872415233	; 0x34000001
    1a04:	02006715 	andeq	r6, r0, #5505024	; 0x540000
    1a08:	05670104 	strbeq	r0, [r7, #-260]!	; 0xfffffefc
    1a0c:	0402000d 	streq	r0, [r2], #-13
    1a10:	0a050101 	beq	141e1c <__bss_end__+0x13805c>
    1a14:	01040200 	mrseq	r0, R12_usr
    1a18:	03090501 	movweq	r0, #38145	; 0x9501
    1a1c:	0c022e6d 	stceq	14, cr2, [r2], {109}	; 0x6d
    1a20:	f6010100 			; <UNDEFINED> instruction: 0xf6010100
    1a24:	03000000 	movweq	r0, #0
    1a28:	00007f00 	andeq	r7, r0, r0, lsl #30
    1a2c:	fb010200 	blx	42236 <__bss_end__+0x38476>
    1a30:	01000d0e 	tsteq	r0, lr, lsl #26
    1a34:	00010101 	andeq	r0, r1, r1, lsl #2
    1a38:	00010000 	andeq	r0, r1, r0
    1a3c:	2f2e0100 	svccs	0x002e0100
    1a40:	66617473 			; <UNDEFINED> instruction: 0x66617473
    1a44:	72732d66 	rsbsvc	r2, r3, #6528	; 0x1980
    1a48:	552f0063 	strpl	r0, [pc, #-99]!	; 19ed <__code_start__-0x6613>
    1a4c:	73726573 	cmnvc	r2, #482344960	; 0x1cc00000
    1a50:	6d616a2f 	vstmdbvs	r1!, {s13-s59}
    1a54:	442f6569 	strtmi	r6, [pc], #-1385	; 1a5c <__code_start__-0x65a4>
    1a58:	6d75636f 	ldclvs	3, cr6, [r5, #-444]!	; 0xfffffe44
    1a5c:	73746e65 	cmnvc	r4, #1616	; 0x650
    1a60:	3153432f 	cmpcc	r3, pc, lsr #6
    1a64:	2f453034 	svccs	0x00453034
    1a68:	34317363 	ldrtcc	r7, [r1], #-867	; 0xfffffc9d
    1a6c:	662d4530 			; <UNDEFINED> instruction: 0x662d4530
    1a70:	6c616e69 	stclvs	14, cr6, [r1], #-420	; 0xfffffe5c
    1a74:	6f72702d 	svcvs	0x0072702d
    1a78:	7463656a 	strbtvc	r6, [r3], #-1386	; 0xfffffa96
    1a7c:	62696c2f 	rsbvs	r6, r9, #12032	; 0x2f00
    1a80:	34322d73 	ldrtcc	r2, [r2], #-3443	; 0xfffff28d
    1a84:	2f786c30 	svccs	0x00786c30
    1a88:	7062696c 	rsbvc	r6, r2, ip, ror #18
    1a8c:	6e692f69 	cdpvs	15, 6, cr2, cr9, cr9, {3}
    1a90:	64756c63 	ldrbtvs	r6, [r5], #-3171	; 0xfffff39d
    1a94:	74000065 	strvc	r0, [r0], #-101	; 0xffffff9b
    1a98:	72656d69 	rsbvc	r6, r5, #6720	; 0x1a40
    1a9c:	0100632e 	tsteq	r0, lr, lsr #6
    1aa0:	70720000 	rsbsvc	r0, r2, r0
    1aa4:	00682e69 	rsbeq	r2, r8, r9, ror #28
    1aa8:	00000002 	andeq	r0, r0, r2
    1aac:	05002305 	streq	r2, [r0, #-773]	; 0xfffffcfb
    1ab0:	008c1c02 	addeq	r1, ip, r2, lsl #24
    1ab4:	05051500 	streq	r1, [r5, #-1280]	; 0xfffffb00
    1ab8:	060c052f 	streq	r0, [ip], -pc, lsr #10
    1abc:	4b010501 	blmi	42ec8 <__bss_end__+0x39108>
    1ac0:	4d061f05 	stcmi	15, cr1, [r6, #-20]	; 0xffffffec
    1ac4:	2f310505 	svccs	0x00310505
    1ac8:	01061205 	tsteq	r6, r5, lsl #4
    1acc:	4b060505 	blmi	182ee8 <__bss_end__+0x179128>
    1ad0:	0601052f 	streq	r0, [r1], -pc, lsr #10
    1ad4:	061c0513 			; <UNDEFINED> instruction: 0x061c0513
    1ad8:	0501064c 	streq	r0, [r1, #-1612]	; 0xfffff9b4
    1adc:	054b0605 	strbeq	r0, [fp, #-1541]	; 0xfffff9fb
    1ae0:	2e010613 	mcrcs	6, 0, r0, cr1, cr3, {0}
    1ae4:	2f060505 	svccs	0x00060505
    1ae8:	05130905 	ldreq	r0, [r3, #-2309]	; 0xfffff6fb
    1aec:	05010617 	streq	r0, [r1, #-1559]	; 0xfffff9e9
    1af0:	052f0609 	streq	r0, [pc, #-1545]!	; 14ef <__code_start__-0x6b11>
    1af4:	05010611 	streq	r0, [r1, #-1553]	; 0xfffff9ef
    1af8:	1c052e0c 	stcne	14, cr2, [r5], {12}
    1afc:	01066b06 	tsteq	r6, r6, lsl #22
    1b00:	2f060505 	svccs	0x00060505
    1b04:	01054a06 	tsteq	r5, r6, lsl #20
    1b08:	061e054b 	ldreq	r0, [lr], -fp, asr #10
    1b0c:	0501062f 	streq	r0, [r1, #-1583]	; 0xfffff9d1
    1b10:	062f0605 	strteq	r0, [pc], -r5, lsl #12
    1b14:	4b01054a 	blmi	43044 <__bss_end__+0x39284>
    1b18:	01000202 	tsteq	r0, r2, lsl #4
    1b1c:	0001bb01 	andeq	fp, r1, r1, lsl #22
    1b20:	bf000300 	svclt	0x00000300
    1b24:	02000000 	andeq	r0, r0, #0, 0
    1b28:	0d0efb01 	vstreq	d15, [lr, #-4]
    1b2c:	01010100 	mrseq	r0, (UNDEF: 17)
    1b30:	00000001 	andeq	r0, r0, r1
    1b34:	01000001 	tsteq	r0, r1
    1b38:	6d6f682f 	stclvs	8, cr6, [pc, #-188]!	; 1a84 <__code_start__-0x657c>
    1b3c:	6e652f65 	cdpvs	15, 6, cr2, cr5, cr5, {3}
    1b40:	72656c67 	rsbvc	r6, r5, #26368	; 0x6700
    1b44:	616c632f 	cmnvs	ip, pc, lsr #6
    1b48:	632f7373 			; <UNDEFINED> instruction: 0x632f7373
    1b4c:	30343273 	eorscc	r3, r4, r3, ror r2
    1b50:	322d786c 	eorcc	r7, sp, #108, 16	; 0x6c0000
    1b54:	72707332 	rsbsvc	r7, r0, #-939524096	; 0xc8000000
    1b58:	696c2f2f 	stmdbvs	ip!, {r0, r1, r2, r3, r5, r8, r9, sl, fp, sp}^
    1b5c:	2f697062 	svccs	0x00697062
    1b60:	6c636e69 	stclvs	14, cr6, [r3], #-420	; 0xfffffe5c
    1b64:	00656475 	rsbeq	r6, r5, r5, ror r4
    1b68:	7273752f 	rsbsvc	r7, r3, #197132288	; 0xbc00000
    1b6c:	6168732f 	cmnvs	r8, pc, lsr #6
    1b70:	672f6572 			; <UNDEFINED> instruction: 0x672f6572
    1b74:	612d6363 			; <UNDEFINED> instruction: 0x612d6363
    1b78:	6e2d6d72 	mcrvs	13, 1, r6, cr13, cr2, {3}
    1b7c:	2d656e6f 	stclcs	14, cr6, [r5, #-444]!	; 0xfffffe44
    1b80:	69626165 	stmdbvs	r2!, {r0, r2, r5, r6, r8, sp, lr}^
    1b84:	2e30312d 	rsfcssp	f3, f0, #5.0
    1b88:	30322d33 	eorscc	r2, r2, r3, lsr sp
    1b8c:	312e3132 			; <UNDEFINED> instruction: 0x312e3132
    1b90:	696c2f30 	stmdbvs	ip!, {r4, r5, r8, r9, sl, fp, sp}^
    1b94:	63672f62 	cmnvs	r7, #392	; 0x188
    1b98:	72612f63 	rsbvc	r2, r1, #396	; 0x18c
    1b9c:	6f6e2d6d 	svcvs	0x006e2d6d
    1ba0:	652d656e 	strvs	r6, [sp, #-1390]!	; 0xfffffa92
    1ba4:	2f696261 	svccs	0x00696261
    1ba8:	332e3031 			; <UNDEFINED> instruction: 0x332e3031
    1bac:	692f312e 	stmdbvs	pc!, {r1, r2, r3, r5, r8, ip, sp}	; <UNPREDICTABLE>
    1bb0:	756c636e 	strbvc	r6, [ip, #-878]!	; 0xfffffc92
    1bb4:	00006564 	andeq	r6, r0, r4, ror #10
    1bb8:	6f697067 	svcvs	0x00697067
    1bbc:	0000632e 	andeq	r6, r0, lr, lsr #6
    1bc0:	70720000 	rsbsvc	r0, r2, r0
    1bc4:	00682e69 	rsbeq	r2, r8, r9, ror #28
    1bc8:	73000001 	movwvc	r0, #1
    1bcc:	6e696474 	mcrvs	4, 3, r6, cr9, cr4, {3}
    1bd0:	63672d74 	cmnvs	r7, #116, 26	; 0x1d00
    1bd4:	00682e63 	rsbeq	r2, r8, r3, ror #28
    1bd8:	67000002 	strvs	r0, [r0, -r2]
    1bdc:	2e6f6970 			; <UNDEFINED> instruction: 0x2e6f6970
    1be0:	00010068 	andeq	r0, r1, r8, rrx
    1be4:	38050000 	stmdacc	r5, {}	; <UNPREDICTABLE>
    1be8:	a0020500 	andge	r0, r2, r0, lsl #10
    1bec:	0300008c 	movweq	r0, #140	; 0x8c
    1bf0:	05050127 	streq	r0, [r5, #-295]	; 0xfffffed9
    1bf4:	06070513 			; <UNDEFINED> instruction: 0x06070513
    1bf8:	49380501 	ldmdbmi	r8!, {r0, r8, sl}
    1bfc:	4d060505 	cfstr32mi	mvfx0, [r6, #-20]	; 0xffffffec
    1c00:	01060705 	tsteq	r6, r5, lsl #14
    1c04:	4c060505 	cfstr32mi	mvfx0, [r6], {5}
    1c08:	01061805 	tsteq	r6, r5, lsl #16
    1c0c:	05ba0e05 	ldreq	r0, [sl, #3589]!	; 0xe05
    1c10:	052f0605 	streq	r0, [pc, #-1541]!	; 1613 <__code_start__-0x69ed>
    1c14:	2e01061c 	mcrcs	6, 0, r0, cr1, cr12, {0}
    1c18:	052e0e05 	streq	r0, [lr, #-3589]!	; 0xfffff1fb
    1c1c:	05300605 	ldreq	r0, [r0, #-1541]!	; 0xfffff9fb
    1c20:	05010612 	streq	r0, [r1, #-1554]	; 0xfffff9ee
    1c24:	054b0605 	strbeq	r0, [fp, #-1541]	; 0xfffff9fb
    1c28:	05010607 	streq	r0, [r1, #-1543]	; 0xfffff9f9
    1c2c:	134b0605 	movtne	r0, #46597	; 0xb605
    1c30:	01052e06 	tsteq	r5, r6, lsl #28
    1c34:	0624054b 	strteq	r0, [r4], -fp, asr #10
    1c38:	0501064c 	streq	r0, [r1, #-1612]	; 0xfffff9b4
    1c3c:	052f0605 	streq	r0, [pc, #-1541]!	; 163f <__code_start__-0x69c1>
    1c40:	054b0601 	strbeq	r0, [fp, #-1537]	; 0xfffff9ff
    1c44:	05310620 	ldreq	r0, [r1, #-1568]!	; 0xfffff9e0
    1c48:	07051305 	streq	r1, [r5, -r5, lsl #6]
    1c4c:	20050106 	andcs	r0, r5, r6, lsl #2
    1c50:	06050549 	streq	r0, [r5], -r9, asr #10
    1c54:	05660631 	strbeq	r0, [r6, #-1585]!	; 0xfffff9cf
    1c58:	21052f01 	tstcs	r5, r1, lsl #30
    1c5c:	05054d06 	streq	r4, [r5, #-3334]	; 0xfffff2fa
    1c60:	06070513 			; <UNDEFINED> instruction: 0x06070513
    1c64:	49210501 	stmdbmi	r1!, {r0, r8, sl}
    1c68:	31060505 	tstcc	r6, r5, lsl #10
    1c6c:	01056606 	tsteq	r5, r6, lsl #12
    1c70:	0623052f 	strteq	r0, [r3], -pc, lsr #10
    1c74:	0501064d 	streq	r0, [r1, #-1613]	; 0xfffff9b3
    1c78:	052f0605 	streq	r0, [pc, #-1541]!	; 167b <__code_start__-0x6985>
    1c7c:	054b0601 	strbeq	r0, [fp, #-1537]	; 0xfffff9ff
    1c80:	0631062b 	ldrteq	r0, [r1], -fp, lsr #12
    1c84:	06050501 	streq	r0, [r5], -r1, lsl #10
    1c88:	0607052f 	streq	r0, [r7], -pc, lsr #10
    1c8c:	06090501 	streq	r0, [r9], -r1, lsl #10
    1c90:	062e064b 	strteq	r0, [lr], -fp, asr #12
    1c94:	06010530 			; <UNDEFINED> instruction: 0x06010530
    1c98:	061d052f 	ldreq	r0, [sp], -pc, lsr #10
    1c9c:	13050530 	movwne	r0, #21808	; 0x5530
    1ca0:	01060705 	tsteq	r6, r5, lsl #14
    1ca4:	05491d05 	strbeq	r1, [r9, #-3333]	; 0xfffff2fb
    1ca8:	13310605 	teqne	r1, #5242880	; 0x500000
    1cac:	01060e05 	tsteq	r6, r5, lsl #28
    1cb0:	2f060505 	svccs	0x00060505
    1cb4:	01061705 	tsteq	r6, r5, lsl #14
    1cb8:	2e23054a 	cfsh64cs	mvdx0, mvdx3, #42
    1cbc:	30050204 	andcc	r0, r5, r4, lsl #4
    1cc0:	00dc0306 	sbcseq	r0, ip, r6, lsl #6
    1cc4:	0501042e 	streq	r0, [r1, #-1070]	; 0xfffffbd2
    1cc8:	a403060c 	strge	r0, [r3], #-1548	; 0xfffff9f4
    1ccc:	0105017f 	tsteq	r5, pc, ror r1
    1cd0:	2a10052f 	bcs	403194 <__bss_end__+0x3f93d4>
    1cd4:	02320105 	eorseq	r0, r2, #1073741825	; 0x40000001
    1cd8:	01010004 	tsteq	r1, r4
    1cdc:	00000205 	andeq	r0, r0, r5, lsl #4
    1ce0:	00c90003 	sbceq	r0, r9, r3
    1ce4:	01020000 	mrseq	r0, (UNDEF: 2)
    1ce8:	000d0efb 	strdeq	r0, [sp], -fp
    1cec:	01010101 	tsteq	r1, r1, lsl #2
    1cf0:	01000000 	mrseq	r0, (UNDEF: 0)
    1cf4:	2f010000 	svccs	0x00010000
    1cf8:	656d6f68 	strbvs	r6, [sp, #-3944]!	; 0xfffff098
    1cfc:	676e652f 	strbvs	r6, [lr, -pc, lsr #10]!
    1d00:	2f72656c 	svccs	0x0072656c
    1d04:	73616c63 	cmnvc	r1, #25344	; 0x6300
    1d08:	73632f73 	cmnvc	r3, #460	; 0x1cc
    1d0c:	6c303432 	cfldrsvs	mvf3, [r0], #-200	; 0xffffff38
    1d10:	32322d78 	eorscc	r2, r2, #120, 26	; 0x1e00
    1d14:	2f727073 	svccs	0x00727073
    1d18:	62696c2f 	rsbvs	r6, r9, #12032	; 0x2f00
    1d1c:	692f6970 	stmdbvs	pc!, {r4, r5, r6, r8, fp, sp, lr}	; <UNPREDICTABLE>
    1d20:	756c636e 	strbvc	r6, [ip, #-878]!	; 0xfffffc92
    1d24:	2f006564 	svccs	0x00006564
    1d28:	2f727375 	svccs	0x00727375
    1d2c:	72616873 	rsbvc	r6, r1, #7536640	; 0x730000
    1d30:	63672f65 	cmnvs	r7, #404	; 0x194
    1d34:	72612d63 	rsbvc	r2, r1, #6336	; 0x18c0
    1d38:	6f6e2d6d 	svcvs	0x006e2d6d
    1d3c:	652d656e 	strvs	r6, [sp, #-1390]!	; 0xfffffa92
    1d40:	2d696261 	sfmcs	f6, 2, [r9, #-388]!	; 0xfffffe7c
    1d44:	332e3031 			; <UNDEFINED> instruction: 0x332e3031
    1d48:	3230322d 	eorscc	r3, r0, #-805306366	; 0xd0000002
    1d4c:	30312e31 	eorscc	r2, r1, r1, lsr lr
    1d50:	62696c2f 	rsbvs	r6, r9, #12032	; 0x2f00
    1d54:	6363672f 	cmnvs	r3, #12320768	; 0xbc0000
    1d58:	6d72612f 	ldfvse	f6, [r2, #-188]!	; 0xffffff44
    1d5c:	6e6f6e2d 	cdpvs	14, 6, cr6, cr15, cr13, {1}
    1d60:	61652d65 	cmnvs	r5, r5, ror #26
    1d64:	312f6962 			; <UNDEFINED> instruction: 0x312f6962
    1d68:	2e332e30 	mrccs	14, 1, r2, cr3, cr0, {1}
    1d6c:	6e692f31 	mcrvs	15, 3, r2, cr9, cr1, {1}
    1d70:	64756c63 	ldrbtvs	r6, [r5], #-3171	; 0xfffff39d
    1d74:	75000065 	strvc	r0, [r0, #-101]	; 0xffffff9b
    1d78:	2e747261 	cdpcs	2, 7, cr7, cr4, cr1, {3}
    1d7c:	00000063 	andeq	r0, r0, r3, rrx
    1d80:	72617500 	rsbvc	r7, r1, #0, 10
    1d84:	00682e74 	rsbeq	r2, r8, r4, ror lr
    1d88:	72000001 	andvc	r0, r0, #1, 0
    1d8c:	682e6970 	stmdavs	lr!, {r4, r5, r6, r8, fp, sp, lr}
    1d90:	00000100 	andeq	r0, r0, r0, lsl #2
    1d94:	6f697067 	svcvs	0x00697067
    1d98:	0100682e 	tsteq	r0, lr, lsr #16
    1d9c:	74730000 	ldrbtvc	r0, [r3], #-0
    1da0:	746e6964 	strbtvc	r6, [lr], #-2404	; 0xfffff69c
    1da4:	6363672d 	cmnvs	r3, #11796480	; 0xb40000
    1da8:	0200682e 	andeq	r6, r0, #3014656	; 0x2e0000
    1dac:	05000000 	streq	r0, [r0, #-0]
    1db0:	02050039 	andeq	r0, r5, #57, 0	; 0x39
    1db4:	00008dbc 			; <UNDEFINED> instruction: 0x00008dbc
    1db8:	06013003 	streq	r3, [r1], -r3
    1dbc:	06050501 	streq	r0, [r5], -r1, lsl #10
    1dc0:	06110567 	ldreq	r0, [r1], -r7, ror #10
    1dc4:	2e050501 	cfsh32cs	mvfx0, mvfx5, #1
    1dc8:	05670105 	strbeq	r0, [r7, #-261]!	; 0xfffffefb
    1dcc:	06290638 			; <UNDEFINED> instruction: 0x06290638
    1dd0:	06050501 	streq	r0, [r5], -r1, lsl #10
    1dd4:	06110567 	ldreq	r0, [r1], -r7, ror #10
    1dd8:	2e050501 	cfsh32cs	mvfx0, mvfx5, #1
    1ddc:	05670105 	strbeq	r0, [r7, #-261]!	; 0xfffffefb
    1de0:	15030616 	strne	r0, [r3, #-1558]	; 0xfffff9ea
    1de4:	3505052e 	strcc	r0, [r5, #-1326]	; 0xfffffad2
    1de8:	68356867 	ldmdavs	r5!, {r0, r1, r2, r5, r6, fp, sp, lr}
    1dec:	852e0c03 	strhi	r0, [lr, #-3075]!	; 0xfffff3fd
    1df0:	0369696b 	cmneq	r9, #1753088	; 0x1ac000
    1df4:	6b13660c 	blvs	4db62c <__bss_end__+0x4d186c>
    1df8:	06010567 	streq	r0, [r1], -r7, ror #10
    1dfc:	0619052f 	ldreq	r0, [r9], -pc, lsr #10
    1e00:	05052508 	streq	r2, [r5, #-1288]	; 0xfffffaf8
    1e04:	060d0534 			; <UNDEFINED> instruction: 0x060d0534
    1e08:	4c010501 	cfstr32mi	mvfx0, [r1], {1}
    1e0c:	67061905 	strvs	r1, [r6, -r5, lsl #18]
    1e10:	05360505 	ldreq	r0, [r6, #-1285]!	; 0xfffffafb
    1e14:	0501060d 	streq	r0, [r1, #-1549]	; 0xfffff9f3
    1e18:	01054a28 	tsteq	r5, r8, lsr #20
    1e1c:	06150530 			; <UNDEFINED> instruction: 0x06150530
    1e20:	2f050587 	svccs	0x00050587
    1e24:	0009052f 	andeq	r0, r9, pc, lsr #10
    1e28:	13010402 	movwne	r0, #5122	; 0x1402
    1e2c:	02000a05 	andeq	r0, r0, #20480	; 0x5000
    1e30:	05110104 	ldreq	r0, [r1, #-260]	; 0xfffffefc
    1e34:	0402000c 	streq	r0, [r2], #-12
    1e38:	05010601 	streq	r0, [r1, #-1537]	; 0xfffff9ff
    1e3c:	0402000a 	streq	r0, [r2], #-10
    1e40:	05052e01 	streq	r2, [r5, #-3585]	; 0xfffff1ff
    1e44:	0e054c06 	cdpeq	12, 0, cr4, cr5, cr6, {0}
    1e48:	09050106 	stmdbeq	r5, {r1, r2, r8}
    1e4c:	0605054a 	streq	r0, [r5], -sl, asr #10
    1e50:	01052f2f 	tsteq	r5, pc, lsr #30
    1e54:	1c051306 	stcne	3, cr1, [r5], {6}
    1e58:	01066706 	tsteq	r6, r6, lsl #14
    1e5c:	4b060505 	blmi	183278 <__bss_end__+0x1794b8>
    1e60:	0009052f 	andeq	r0, r9, pc, lsr #10
    1e64:	13010402 	movwne	r0, #5122	; 0x1402
    1e68:	02000a05 	andeq	r0, r0, #20480	; 0x5000
    1e6c:	05110104 	ldreq	r0, [r1, #-260]	; 0xfffffefc
    1e70:	0402000c 	streq	r0, [r2], #-12
    1e74:	05010601 	streq	r0, [r1, #-1537]	; 0xfffff9ff
    1e78:	0402000a 	streq	r0, [r2], #-10
    1e7c:	05052e01 	streq	r2, [r5, #-3585]	; 0xfffff1ff
    1e80:	05674c06 	strbeq	r4, [r7, #-3078]!	; 0xfffff3fa
    1e84:	052f0601 	streq	r0, [pc, #-1537]!	; 188b <__code_start__-0x6775>
    1e88:	054c0619 	strbeq	r0, [ip, #-1561]	; 0xfffff9e7
    1e8c:	2a052e1b 	bcs	14d700 <__bss_end__+0x143940>
    1e90:	0631052e 	ldrteq	r0, [r1], -lr, lsr #10
    1e94:	2e420501 	cdpcs	5, 4, cr0, cr2, cr1, {0}
    1e98:	31061c05 	tstcc	r6, r5, lsl #24
    1e9c:	032f0505 			; <UNDEFINED> instruction: 0x032f0505
    1ea0:	0e052e09 	cdpeq	14, 0, cr2, cr5, cr9, {0}
    1ea4:	21050106 	tstcs	r5, r6, lsl #2
    1ea8:	0301054a 	movweq	r0, #5450	; 0x154a
    1eac:	1a052e0a 	bne	14d6dc <__bss_end__+0x14391c>
    1eb0:	09056806 	stmdbeq	r5, {r1, r2, fp, sp, lr}
    1eb4:	01040200 	mrseq	r0, R12_usr
    1eb8:	000a0530 	andeq	r0, sl, r0, lsr r5
    1ebc:	11010402 	tstne	r1, r2, lsl #8
    1ec0:	02000c05 	andeq	r0, r0, #1280	; 0x500
    1ec4:	01060104 	tsteq	r6, r4, lsl #2
    1ec8:	02000a05 	andeq	r0, r0, #20480	; 0x5000
    1ecc:	052e0104 	streq	r0, [lr, #-260]!	; 0xfffffefc
    1ed0:	e8030619 	stmda	r3, {r0, r3, r4, r9, sl}
    1ed4:	0505667e 	streq	r6, [r5, #-1662]	; 0xfffff982
    1ed8:	672f2f2f 	strvs	r2, [pc, -pc, lsr #30]!
    1edc:	2f060105 	svccs	0x00060105
    1ee0:	01000402 	tsteq	r0, r2, lsl #8
    1ee4:	0000ba01 	andeq	fp, r0, r1, lsl #20
    1ee8:	7c000300 	stcvc	3, cr0, [r0], {-0}
    1eec:	02000000 	andeq	r0, r0, #0, 0
    1ef0:	0d0efb01 	vstreq	d15, [lr, #-4]
    1ef4:	01010100 	mrseq	r0, (UNDEF: 17)
    1ef8:	00000001 	andeq	r0, r0, r1
    1efc:	01000001 	tsteq	r0, r1
    1f00:	696c2f2e 	stmdbvs	ip!, {r1, r2, r3, r5, r8, r9, sl, fp, sp}^
    1f04:	2f006362 	svccs	0x00006362
    1f08:	72657355 	rsbvc	r7, r5, #1409286145	; 0x54000001
    1f0c:	616a2f73 	smcvs	41715	; 0xa2f3
    1f10:	2f65696d 	svccs	0x0065696d
    1f14:	75636f44 	strbvc	r6, [r3, #-3908]!	; 0xfffff0bc
    1f18:	746e656d 	strbtvc	r6, [lr], #-1389	; 0xfffffa93
    1f1c:	53432f73 	movtpl	r2, #16243	; 0x3f73
    1f20:	45303431 	ldrmi	r3, [r0, #-1073]!	; 0xfffffbcf
    1f24:	3173632f 	cmncc	r3, pc, lsr #6
    1f28:	2d453034 	stclcs	0, cr3, [r5, #-208]	; 0xffffff30
    1f2c:	616e6966 	cmnvs	lr, r6, ror #18
    1f30:	72702d6c 	rsbsvc	r2, r0, #108, 26	; 0x1b00
    1f34:	63656a6f 	cmnvs	r5, #454656	; 0x6f000
    1f38:	696c2f74 	stmdbvs	ip!, {r2, r4, r5, r6, r8, r9, sl, fp, sp}^
    1f3c:	322d7362 	eorcc	r7, sp, #-2013265919	; 0x88000001
    1f40:	786c3034 	stmdavc	ip!, {r2, r4, r5, ip, sp}^
    1f44:	62696c2f 	rsbvs	r6, r9, #12032	; 0x2f00
    1f48:	692f6970 	stmdbvs	pc!, {r4, r5, r6, r8, fp, sp, lr}	; <UNPREDICTABLE>
    1f4c:	756c636e 	strbvc	r6, [ip, #-878]!	; 0xfffffc92
    1f50:	00006564 	andeq	r6, r0, r4, ror #10
    1f54:	63747570 	cmnvs	r4, #112, 10	; 0x1c000000
    1f58:	2e726168 	rpwcssz	f6, f2, #0.0
    1f5c:	00010063 	andeq	r0, r1, r3, rrx
    1f60:	69707200 	ldmdbvs	r0!, {r9, ip, sp, lr}^
    1f64:	0200682e 	andeq	r6, r0, #3014656	; 0x2e0000
    1f68:	05000000 	streq	r0, [r0, #-0]
    1f6c:	02050024 	andeq	r0, r5, #36, 0	; 0x24
    1f70:	00008fac 	andeq	r8, r0, ip, lsr #31
    1f74:	05010614 	streq	r0, [r1, #-1556]	; 0xfffff9ec
    1f78:	054a0626 	strbeq	r0, [sl, #-1574]	; 0xfffff9da
    1f7c:	01052e34 	tsteq	r5, r4, lsr lr
    1f80:	1b050106 	blne	1423a0 <__bss_end__+0x1385e0>
    1f84:	05054f06 	streq	r4, [r5, #-3846]	; 0xfffff0fa
    1f88:	06110513 			; <UNDEFINED> instruction: 0x06110513
    1f8c:	67010501 	strvs	r0, [r1, -r1, lsl #10]
    1f90:	67062305 	strvs	r2, [r6, -r5, lsl #6]
    1f94:	05130505 	ldreq	r0, [r3, #-1285]	; 0xfffffafb
    1f98:	05010611 	streq	r0, [r1, #-1553]	; 0xfffff9ef
    1f9c:	04024b01 	streq	r4, [r2], #-2817	; 0xfffff4ff
    1fa0:	06010100 	streq	r0, [r1], -r0, lsl #2
    1fa4:	03000001 	movweq	r0, #1
    1fa8:	00007b00 	andeq	r7, r0, r0, lsl #22
    1fac:	fb010200 	blx	427b6 <__bss_end__+0x389f6>
    1fb0:	01000d0e 	tsteq	r0, lr, lsl #26
    1fb4:	00010101 	andeq	r0, r1, r1, lsl #2
    1fb8:	00010000 	andeq	r0, r1, r0
    1fbc:	2f2e0100 	svccs	0x002e0100
    1fc0:	6362696c 	cmnvs	r2, #108, 18	; 0x1b0000
    1fc4:	73552f00 	cmpvc	r5, #0, 30
    1fc8:	2f737265 	svccs	0x00737265
    1fcc:	696d616a 	stmdbvs	sp!, {r1, r3, r5, r6, r8, sp, lr}^
    1fd0:	6f442f65 	svcvs	0x00442f65
    1fd4:	656d7563 	strbvs	r7, [sp, #-1379]!	; 0xfffffa9d
    1fd8:	2f73746e 	svccs	0x0073746e
    1fdc:	34315343 	ldrtcc	r5, [r1], #-835	; 0xfffffcbd
    1fe0:	632f4530 			; <UNDEFINED> instruction: 0x632f4530
    1fe4:	30343173 	eorscc	r3, r4, r3, ror r1
    1fe8:	69662d45 	stmdbvs	r6!, {r0, r2, r6, r8, sl, fp, sp}^
    1fec:	2d6c616e 	stfcse	f6, [ip, #-440]!	; 0xfffffe48
    1ff0:	6a6f7270 	bvs	1bde9b8 <__bss_end__+0x1bd4bf8>
    1ff4:	2f746365 	svccs	0x00746365
    1ff8:	7362696c 	cmnvc	r2, #108, 18	; 0x1b0000
    1ffc:	3034322d 	eorscc	r3, r4, sp, lsr #4
    2000:	6c2f786c 	stcvs	8, cr7, [pc], #-432	; 1e58 <__code_start__-0x61a8>
    2004:	69706269 	ldmdbvs	r0!, {r0, r3, r5, r6, r9, sp, lr}^
    2008:	636e692f 	cmnvs	lr, #770048	; 0xbc000
    200c:	6564756c 	strbvs	r7, [r4, #-1388]!	; 0xfffffa94
    2010:	74730000 	ldrbtvc	r0, [r3], #-0
    2014:	74616372 	strbtvc	r6, [r1], #-882	; 0xfffffc8e
    2018:	0100632e 	tsteq	r0, lr, lsr #6
    201c:	70720000 	rsbsvc	r0, r2, r0
    2020:	00682e69 	rsbeq	r2, r8, r9, ror #28
    2024:	00000002 	andeq	r0, r0, r2
    2028:	05002c05 	streq	r2, [r0, #-3077]	; 0xfffff3fb
    202c:	008fe802 	addeq	lr, pc, r2, lsl #16
    2030:	05051500 	streq	r1, [r5, #-1280]	; 0xfffffb00
    2034:	0b051313 	bleq	146c88 <__bss_end__+0x13cec8>
    2038:	05051106 	streq	r1, [r5, #-262]	; 0xfffffefa
    203c:	01040200 	mrseq	r0, R12_usr
    2040:	02003006 	andeq	r3, r0, #6, 0
    2044:	05150104 	ldreq	r0, [r5, #-260]	; 0xfffffefc
    2048:	04020009 	streq	r0, [r2], #-9
    204c:	10051301 	andne	r1, r5, r1, lsl #6
    2050:	01040200 	mrseq	r0, R12_usr
    2054:	0b052e06 	bleq	14d874 <__bss_end__+0x143ab4>
    2058:	01040200 	mrseq	r0, R12_usr
    205c:	0402002e 	streq	r0, [r2], #-46	; 0xffffffd2
    2060:	052f0601 	streq	r0, [pc, #-1537]!	; 1a67 <__code_start__-0x6599>
    2064:	04020005 	streq	r0, [r2], #-5
    2068:	06010601 	streq	r0, [r1], -r1, lsl #12
    206c:	0608054e 	streq	r0, [r8], -lr, asr #10
    2070:	00050501 	andeq	r0, r5, r1, lsl #10
    2074:	06010402 	streq	r0, [r1], -r2, lsl #8
    2078:	0009052f 	andeq	r0, r9, pc, lsr #10
    207c:	13010402 	movwne	r0, #5122	; 0x1402
    2080:	02000b05 	andeq	r0, r0, #5120	; 0x1400
    2084:	01060104 	tsteq	r6, r4, lsl #2
    2088:	02000905 	andeq	r0, r0, #81920	; 0x14000
    208c:	4b060104 	blmi	1824a4 <__bss_end__+0x1786e4>
    2090:	02000f05 	andeq	r0, r0, #5, 30
    2094:	01060104 	tsteq	r6, r4, lsl #2
    2098:	02000d05 	andeq	r0, r0, #320	; 0x140
    209c:	2f060104 	svccs	0x00060104
    20a0:	02000505 	andeq	r0, r0, #20971520	; 0x1400000
    20a4:	01060104 	tsteq	r6, r4, lsl #2
    20a8:	01000602 	tsteq	r0, r2, lsl #12
    20ac:	0000bf01 	andeq	fp, r0, r1, lsl #30
    20b0:	7b000300 	blvc	2cb8 <__code_start__-0x5348>
    20b4:	02000000 	andeq	r0, r0, #0, 0
    20b8:	0d0efb01 	vstreq	d15, [lr, #-4]
    20bc:	01010100 	mrseq	r0, (UNDEF: 17)
    20c0:	00000001 	andeq	r0, r0, r1
    20c4:	01000001 	tsteq	r0, r1
    20c8:	696c2f2e 	stmdbvs	ip!, {r1, r2, r3, r5, r8, r9, sl, fp, sp}^
    20cc:	2f006362 	svccs	0x00006362
    20d0:	72657355 	rsbvc	r7, r5, #1409286145	; 0x54000001
    20d4:	616a2f73 	smcvs	41715	; 0xa2f3
    20d8:	2f65696d 	svccs	0x0065696d
    20dc:	75636f44 	strbvc	r6, [r3, #-3908]!	; 0xfffff0bc
    20e0:	746e656d 	strbtvc	r6, [lr], #-1389	; 0xfffffa93
    20e4:	53432f73 	movtpl	r2, #16243	; 0x3f73
    20e8:	45303431 	ldrmi	r3, [r0, #-1073]!	; 0xfffffbcf
    20ec:	3173632f 	cmncc	r3, pc, lsr #6
    20f0:	2d453034 	stclcs	0, cr3, [r5, #-208]	; 0xffffff30
    20f4:	616e6966 	cmnvs	lr, r6, ror #18
    20f8:	72702d6c 	rsbsvc	r2, r0, #108, 26	; 0x1b00
    20fc:	63656a6f 	cmnvs	r5, #454656	; 0x6f000
    2100:	696c2f74 	stmdbvs	ip!, {r2, r4, r5, r6, r8, r9, sl, fp, sp}^
    2104:	322d7362 	eorcc	r7, sp, #-2013265919	; 0x88000001
    2108:	786c3034 	stmdavc	ip!, {r2, r4, r5, ip, sp}^
    210c:	62696c2f 	rsbvs	r6, r9, #12032	; 0x2f00
    2110:	692f6970 	stmdbvs	pc!, {r4, r5, r6, r8, fp, sp, lr}	; <UNPREDICTABLE>
    2114:	756c636e 	strbvc	r6, [ip, #-878]!	; 0xfffffc92
    2118:	00006564 	andeq	r6, r0, r4, ror #10
    211c:	63727473 	cmnvs	r2, #1929379840	; 0x73000000
    2120:	632e706d 			; <UNDEFINED> instruction: 0x632e706d
    2124:	00000100 	andeq	r0, r0, r0, lsl #2
    2128:	2e697072 	mcrcs	0, 3, r7, cr9, cr2, {3}
    212c:	00020068 	andeq	r0, r2, r8, rrx
    2130:	2a050000 	bcs	142138 <__bss_end__+0x138378>
    2134:	1c020500 	cfstr32ne	mvfx0, [r2], {-0}
    2138:	14000090 	strne	r0, [r0], #-144	; 0xffffff70
    213c:	05130905 	ldreq	r0, [r3, #-2309]	; 0xfffff6fb
    2140:	1005010f 	andne	r0, r5, pc, lsl #2
    2144:	0f050106 	svceq	0x00050106
    2148:	001c052e 	andseq	r0, ip, lr, lsr #10
    214c:	4a010402 	bmi	4315c <__bss_end__+0x3939c>
    2150:	02001305 	andeq	r1, r0, #335544320	; 0x14000000
    2154:	052e0104 	streq	r0, [lr, #-260]!	; 0xfffffefc
    2158:	052f0611 	streq	r0, [pc, #-1553]!	; 1b4f <__code_start__-0x64b1>
    215c:	2e2e0616 	mcrcs	6, 1, r0, cr14, cr6, {0}
    2160:	2f060905 	svccs	0x00060905
    2164:	01061505 	tsteq	r6, r5, lsl #10
    2168:	022f0105 	eoreq	r0, pc, #1073741825	; 0x40000001
    216c:	01010004 	tsteq	r1, r4
    2170:	000000bd 	strheq	r0, [r0], -sp
    2174:	007b0003 	rsbseq	r0, fp, r3
    2178:	01020000 	mrseq	r0, (UNDEF: 2)
    217c:	000d0efb 	strdeq	r0, [sp], -fp
    2180:	01010101 	tsteq	r1, r1, lsl #2
    2184:	01000000 	mrseq	r0, (UNDEF: 0)
    2188:	2e010000 	cdpcs	0, 0, cr0, cr1, cr0, {0}
    218c:	62696c2f 	rsbvs	r6, r9, #12032	; 0x2f00
    2190:	552f0063 	strpl	r0, [pc, #-99]!	; 2135 <__code_start__-0x5ecb>
    2194:	73726573 	cmnvc	r2, #482344960	; 0x1cc00000
    2198:	6d616a2f 	vstmdbvs	r1!, {s13-s59}
    219c:	442f6569 	strtmi	r6, [pc], #-1385	; 21a4 <__code_start__-0x5e5c>
    21a0:	6d75636f 	ldclvs	3, cr6, [r5, #-444]!	; 0xfffffe44
    21a4:	73746e65 	cmnvc	r4, #1616	; 0x650
    21a8:	3153432f 	cmpcc	r3, pc, lsr #6
    21ac:	2f453034 	svccs	0x00453034
    21b0:	34317363 	ldrtcc	r7, [r1], #-867	; 0xfffffc9d
    21b4:	662d4530 			; <UNDEFINED> instruction: 0x662d4530
    21b8:	6c616e69 	stclvs	14, cr6, [r1], #-420	; 0xfffffe5c
    21bc:	6f72702d 	svcvs	0x0072702d
    21c0:	7463656a 	strbtvc	r6, [r3], #-1386	; 0xfffffa96
    21c4:	62696c2f 	rsbvs	r6, r9, #12032	; 0x2f00
    21c8:	34322d73 	ldrtcc	r2, [r2], #-3443	; 0xfffff28d
    21cc:	2f786c30 	svccs	0x00786c30
    21d0:	7062696c 	rsbvc	r6, r2, ip, ror #18
    21d4:	6e692f69 	cdpvs	15, 6, cr2, cr9, cr9, {3}
    21d8:	64756c63 	ldrbtvs	r6, [r5], #-3171	; 0xfffff39d
    21dc:	73000065 	movwvc	r0, #101	; 0x65
    21e0:	70637274 	rsbvc	r7, r3, r4, ror r2
    21e4:	00632e79 	rsbeq	r2, r3, r9, ror lr
    21e8:	72000001 	andvc	r0, r0, #1, 0
    21ec:	682e6970 	stmdavs	lr!, {r4, r5, r6, r8, fp, sp, lr}
    21f0:	00000200 	andeq	r0, r0, r0, lsl #4
    21f4:	002a0500 	eoreq	r0, sl, r0, lsl #10
    21f8:	90480205 	subls	r0, r8, r5, lsl #4
    21fc:	05140000 	ldreq	r0, [r4, #-0]
    2200:	05131305 	ldreq	r1, [r3, #-773]	; 0xfffffcfb
    2204:	05110614 	ldreq	r0, [r1, #-1556]	; 0xfffff9ec
    2208:	04020022 	streq	r0, [r2], #-34	; 0xffffffde
    220c:	052f0601 	streq	r0, [pc, #-1537]!	; 1c13 <__code_start__-0x63ed>
    2210:	0402000b 	streq	r0, [r2], #-11
    2214:	15050101 	strne	r0, [r5, #-257]	; 0xfffffeff
    2218:	01040200 	mrseq	r0, R12_usr
    221c:	13050106 	movwne	r0, #20742	; 0x5106
    2220:	01040200 	mrseq	r0, R12_usr
    2224:	000b054a 	andeq	r0, fp, sl, asr #10
    2228:	4a010402 	bmi	43238 <__bss_end__+0x39478>
    222c:	01000602 	tsteq	r0, r2, lsl #12
    2230:	00011d01 	andeq	r1, r1, r1, lsl #26
    2234:	e1000300 	mrs	r0, LR_irq
    2238:	02000000 	andeq	r0, r0, #0, 0
    223c:	0d0efb01 	vstreq	d15, [lr, #-4]
    2240:	01010100 	mrseq	r0, (UNDEF: 17)
    2244:	00000001 	andeq	r0, r0, r1
    2248:	01000001 	tsteq	r0, r1
    224c:	696c2f2e 	stmdbvs	ip!, {r1, r2, r3, r5, r8, r9, sl, fp, sp}^
    2250:	2f006362 	svccs	0x00006362
    2254:	72657355 	rsbvc	r7, r5, #1409286145	; 0x54000001
    2258:	616a2f73 	smcvs	41715	; 0xa2f3
    225c:	2f65696d 	svccs	0x0065696d
    2260:	75636f44 	strbvc	r6, [r3, #-3908]!	; 0xfffff0bc
    2264:	746e656d 	strbtvc	r6, [lr], #-1389	; 0xfffffa93
    2268:	53432f73 	movtpl	r2, #16243	; 0x3f73
    226c:	45303431 	ldrmi	r3, [r0, #-1073]!	; 0xfffffbcf
    2270:	3173632f 	cmncc	r3, pc, lsr #6
    2274:	2d453034 	stclcs	0, cr3, [r5, #-208]	; 0xffffff30
    2278:	616e6966 	cmnvs	lr, r6, ror #18
    227c:	72702d6c 	rsbsvc	r2, r0, #108, 26	; 0x1b00
    2280:	63656a6f 	cmnvs	r5, #454656	; 0x6f000
    2284:	696c2f74 	stmdbvs	ip!, {r2, r4, r5, r6, r8, r9, sl, fp, sp}^
    2288:	322d7362 	eorcc	r7, sp, #-2013265919	; 0x88000001
    228c:	786c3034 	stmdavc	ip!, {r2, r4, r5, ip, sp}^
    2290:	62696c2f 	rsbvs	r6, r9, #12032	; 0x2f00
    2294:	692f6970 	stmdbvs	pc!, {r4, r5, r6, r8, fp, sp, lr}	; <UNPREDICTABLE>
    2298:	756c636e 	strbvc	r6, [ip, #-878]!	; 0xfffffc92
    229c:	2f006564 	svccs	0x00006564
    22a0:	2f727375 	svccs	0x00727375
    22a4:	61636f6c 	cmnvs	r3, ip, ror #30
    22a8:	65432f6c 	strbvs	r2, [r3, #-3948]	; 0xfffff094
    22ac:	72616c6c 	rsbvc	r6, r1, #108, 24	; 0x6c00
    22b0:	6d72612f 	ldfvse	f6, [r2, #-188]!	; 0xffffff44
    22b4:	6e6f6e2d 	cdpvs	14, 6, cr6, cr15, cr13, {1}
    22b8:	61652d65 	cmnvs	r5, r5, ror #26
    22bc:	742d6962 	strtvc	r6, [sp], #-2402	; 0xfffff69e
    22c0:	2f747365 	svccs	0x00747365
    22c4:	30322d39 	eorscc	r2, r2, r9, lsr sp
    22c8:	34713931 	ldrbtcc	r3, [r1], #-2353	; 0xfffff6cf
    22cc:	3173632d 	cmncc	r3, sp, lsr #6
    22d0:	2f653730 	svccs	0x00653730
    22d4:	2f62696c 	svccs	0x0062696c
    22d8:	2f636367 	svccs	0x00636367
    22dc:	2d6d7261 	sfmcs	f7, 2, [sp, #-388]!	; 0xfffffe7c
    22e0:	656e6f6e 	strbvs	r6, [lr, #-3950]!	; 0xfffff092
    22e4:	6261652d 	rsbvs	r6, r1, #188743680	; 0xb400000
    22e8:	2e392f69 	cdpcs	15, 3, cr2, cr9, cr9, {3}
    22ec:	2f312e32 	svccs	0x00312e32
    22f0:	6c636e69 	stclvs	14, cr6, [r3], #-420	; 0xfffffe5c
    22f4:	00656475 	rsbeq	r6, r5, r5, ror r4
    22f8:	72747300 	rsbsvc	r7, r4, #0, 6
    22fc:	706d636e 	rsbvc	r6, sp, lr, ror #6
    2300:	0100632e 	tsteq	r0, lr, lsr #6
    2304:	70720000 	rsbsvc	r0, r2, r0
    2308:	00682e69 	rsbeq	r2, r8, r9, ror #28
    230c:	73000002 	movwvc	r0, #2
    2310:	65646474 	strbvs	r6, [r4, #-1140]!	; 0xfffffb8c
    2314:	00682e66 	rsbeq	r2, r8, r6, ror #28
    2318:	00000003 	andeq	r0, r0, r3
    231c:	05003905 	streq	r3, [r0, #-2309]	; 0xfffff6fb
    2320:	00906802 	addseq	r6, r0, r2, lsl #16
    2324:	05051500 	streq	r1, [r5, #-1280]	; 0xfffffb00
    2328:	0a051313 	beq	146f7c <__bss_end__+0x13d1bc>
    232c:	4a010601 	bmi	43b38 <__bss_end__+0x39d78>
    2330:	2f060905 	svccs	0x00060905
    2334:	01060c05 	tsteq	r6, r5, lsl #24
    2338:	052e1305 	streq	r1, [lr, #-773]!	; 0xfffffcfb
    233c:	0d052e0b 	stceq	14, cr2, [r5, #-44]	; 0xffffffd4
    2340:	1b054b06 	blne	154f60 <__bss_end__+0x14b1a0>
    2344:	052e0106 	streq	r0, [lr, #-262]!	; 0xfffffefa
    2348:	0105300c 	tsteq	r5, ip
    234c:	0002022f 	andeq	r0, r2, pc, lsr #4
    2350:	00ac0101 	adceq	r0, ip, r1, lsl #2
    2354:	00030000 	andeq	r0, r3, r0
    2358:	00000090 	muleq	r0, r0, r0
    235c:	0efb0102 	cdpeq	1, 15, cr0, cr11, cr2, {0}
    2360:	0101000d 	tsteq	r1, sp
    2364:	00000101 	andeq	r0, r0, r1, lsl #2
    2368:	00000100 	andeq	r0, r0, r0, lsl #2
    236c:	732f2e01 			; <UNDEFINED> instruction: 0x732f2e01
    2370:	66666174 			; <UNDEFINED> instruction: 0x66666174
    2374:	6372732d 	cmnvs	r2, #-1275068416	; 0xb4000000
    2378:	73552f00 	cmpvc	r5, #0, 30
    237c:	2f737265 	svccs	0x00737265
    2380:	696d616a 	stmdbvs	sp!, {r1, r3, r5, r6, r8, sp, lr}^
    2384:	6f442f65 	svcvs	0x00442f65
    2388:	656d7563 	strbvs	r7, [sp, #-1379]!	; 0xfffffa9d
    238c:	2f73746e 	svccs	0x0073746e
    2390:	34315343 	ldrtcc	r5, [r1], #-835	; 0xfffffcbd
    2394:	632f4530 			; <UNDEFINED> instruction: 0x632f4530
    2398:	30343173 	eorscc	r3, r4, r3, ror r1
    239c:	69662d45 	stmdbvs	r6!, {r0, r2, r6, r8, sl, fp, sp}^
    23a0:	2d6c616e 	stfcse	f6, [ip, #-440]!	; 0xfffffe48
    23a4:	6a6f7270 	bvs	1bded6c <__bss_end__+0x1bd4fac>
    23a8:	2f746365 	svccs	0x00746365
    23ac:	7362696c 	cmnvc	r2, #108, 18	; 0x1b0000
    23b0:	3034322d 	eorscc	r3, r4, sp, lsr #4
    23b4:	6c2f786c 	stcvs	8, cr7, [pc], #-432	; 220c <__code_start__-0x5df4>
    23b8:	69706269 	ldmdbvs	r0!, {r0, r3, r5, r6, r9, sp, lr}^
    23bc:	636e692f 	cmnvs	lr, #770048	; 0xbc000
    23c0:	6564756c 	strbvs	r7, [r4, #-1388]!	; 0xfffffa94
    23c4:	65640000 	strbvs	r0, [r4, #-0]!
    23c8:	6c756166 	ldfvse	f6, [r5], #-408	; 0xfffffe68
    23cc:	65722d74 	ldrbvs	r2, [r2, #-3444]!	; 0xfffff28c
    23d0:	746f6f62 	strbtvc	r6, [pc], #-3938	; 23d8 <__code_start__-0x5c28>
    23d4:	6c61632d 	stclvs	3, cr6, [r1], #-180	; 0xffffff4c
    23d8:	74756f6c 	ldrbtvc	r6, [r5], #-3948	; 0xfffff094
    23dc:	0100632e 	tsteq	r0, lr, lsr #6
    23e0:	70720000 	rsbsvc	r0, r2, r0
    23e4:	00682e69 	rsbeq	r2, r8, r9, ror #28
    23e8:	00000002 	andeq	r0, r0, r2
    23ec:	05001b05 	streq	r1, [r0, #-2821]	; 0xfffff4fb
    23f0:	00909402 	addseq	r9, r0, r2, lsl #8
    23f4:	1c051400 	cfstrsne	mvf1, [r5], {-0}
    23f8:	06010501 	streq	r0, [r1], -r1, lsl #10
    23fc:	00020201 	andeq	r0, r2, r1, lsl #4
    2400:	Address 0x0000000000002400 is out of bounds.


Disassembly of section .debug_str:

00000000 <.debug_str>:
   0:	676e6f6c 	strbvs	r6, [lr, -ip, ror #30]!
   4:	6e6f6c20 	cdpvs	12, 6, cr6, cr15, cr0, {1}
   8:	6e692067 	cdpvs	0, 6, cr2, cr9, cr7, {3}
   c:	32690074 	rsbcc	r0, r9, #116, 0	; 0x74
  10:	65725f73 	ldrbvs	r5, [r2, #-3955]!	; 0xfffff08d
  14:	735f6461 	cmpvc	pc, #1627389952	; 0x61000000
  18:	6c706d61 	ldclvs	13, cr6, [r0], #-388	; 0xfffffe7c
  1c:	65740065 	ldrbvs	r0, [r4, #-101]!	; 0xffffff9b
  20:	2f737473 	svccs	0x00737473
  24:	32692d31 	rsbcc	r2, r9, #3136	; 0xc40
  28:	65742d73 	ldrbvs	r2, [r4, #-3443]!	; 0xfffff28d
  2c:	632e7473 			; <UNDEFINED> instruction: 0x632e7473
  30:	6e6f6c00 	cdpvs	12, 6, cr6, cr15, cr0, {0}
  34:	6f6c2067 	svcvs	0x006c2067
  38:	7520676e 	strvc	r6, [r0, #-1902]!	; 0xfffff892
  3c:	6769736e 	strbvs	r7, [r9, -lr, ror #6]!
  40:	2064656e 	rsbcs	r6, r4, lr, ror #10
  44:	00746e69 	rsbseq	r6, r4, r9, ror #28
  48:	6573552f 	ldrbvs	r5, [r3, #-1327]!	; 0xfffffad1
  4c:	6a2f7372 	bvs	bdce1c <__bss_end__+0xbd305c>
  50:	65696d61 	strbvs	r6, [r9, #-3425]!	; 0xfffff29f
  54:	636f442f 	cmnvs	pc, #788529152	; 0x2f000000
  58:	6e656d75 	mcrvs	13, 3, r6, cr5, cr5, {3}
  5c:	432f7374 			; <UNDEFINED> instruction: 0x432f7374
  60:	30343153 	eorscc	r3, r4, r3, asr r1
  64:	73632f45 	cmnvc	r3, #276	; 0x114
  68:	45303431 	ldrmi	r3, [r0, #-1073]!	; 0xfffffbcf
  6c:	6e69662d 	cdpvs	6, 6, cr6, cr9, cr13, {1}
  70:	702d6c61 	eorvc	r6, sp, r1, ror #24
  74:	656a6f72 	strbvs	r6, [sl, #-3954]!	; 0xfffff08e
  78:	722f7463 	eorvc	r7, pc, #1660944384	; 0x63000000
  7c:	76656c65 	strbtvc	r6, [r5], -r5, ror #24
  80:	2d746e61 	ldclcs	14, cr6, [r4, #-388]!	; 0xfffffe7c
  84:	7362616c 	cmnvc	r2, #27
  88:	63696d2f 	cmnvs	r9, #3008	; 0xbc0
  8c:	68706f72 	ldmdavs	r0!, {r1, r4, r5, r6, r8, r9, sl, fp, sp, lr}^
  90:	2d656e6f 	stclcs	14, cr6, [r5, #-444]!	; 0xfffffe44
  94:	34327363 	ldrtcc	r7, [r2], #-867	; 0xfffffc9d
  98:	2d786c30 	ldclcs	12, cr6, [r8, #-192]!	; 0xffffff40
  9c:	692d3731 	pushvs	{r0, r4, r5, r8, r9, sl, ip, sp}
  a0:	632f7332 			; <UNDEFINED> instruction: 0x632f7332
  a4:	0065646f 	rsbeq	r6, r5, pc, ror #8
  a8:	69736e75 	ldmdbvs	r3!, {r0, r2, r4, r5, r6, r9, sl, fp, sp, lr}^
  ac:	64656e67 	strbtvs	r6, [r5], #-3687	; 0xfffff199
  b0:	61686320 	cmnvs	r8, r0, lsr #6
  b4:	4e470072 	mcrmi	0, 2, r0, cr7, cr2, {3}
  b8:	39432055 	stmdbcc	r3, {r0, r2, r4, r6, sp}^
  bc:	2e392039 	mrccs	0, 1, r2, cr9, cr9, {1}
  c0:	20312e32 	eorscs	r2, r1, r2, lsr lr
  c4:	39313032 	ldmdbcc	r1!, {r1, r4, r5, ip, sp}
  c8:	35323031 	ldrcc	r3, [r2, #-49]!	; 0xffffffcf
  cc:	65722820 	ldrbvs	r2, [r2, #-2080]!	; 0xfffff7e0
  d0:	7361656c 	cmnvc	r1, #108, 10	; 0x1b000000
  d4:	5b202965 	blpl	80a670 <__bss_end__+0x8008b0>
  d8:	2f4d5241 	svccs	0x004d5241
  dc:	2d6d7261 	sfmcs	f7, 2, [sp, #-388]!	; 0xfffffe7c
  e0:	72622d39 	rsbvc	r2, r2, #3648	; 0xe40
  e4:	68636e61 	stmdavs	r3!, {r0, r5, r6, r9, sl, fp, sp, lr}^
  e8:	76657220 	strbtvc	r7, [r5], -r0, lsr #4
  ec:	6f697369 	svcvs	0x00697369
  f0:	3732206e 	ldrcc	r2, [r2, -lr, rrx]!
  f4:	39393537 	ldmdbcc	r9!, {r0, r1, r2, r4, r5, r8, sl, ip, sp}
  f8:	6d2d205d 	stcvs	0, cr2, [sp, #-372]!	; 0xfffffe8c
  fc:	3d757063 	ldclcc	0, cr7, [r5, #-396]!	; 0xfffffe74
 100:	316d7261 	cmncc	sp, r1, ror #4
 104:	6a363731 	bvs	d8ddd0 <__bss_end__+0xd84010>
 108:	732d667a 			; <UNDEFINED> instruction: 0x732d667a
 10c:	746d2d20 	strbtvc	r2, [sp], #-3360	; 0xfffff2e0
 110:	3d656e75 	stclcc	14, cr6, [r5, #-468]!	; 0xfffffe2c
 114:	316d7261 	cmncc	sp, r1, ror #4
 118:	6a363731 	bvs	d8dde4 <__bss_end__+0xd84024>
 11c:	732d667a 			; <UNDEFINED> instruction: 0x732d667a
 120:	666d2d20 	strbtvs	r2, [sp], -r0, lsr #26
 124:	74616f6c 	strbtvc	r6, [r1], #-3948	; 0xfffff094
 128:	6962612d 	stmdbvs	r2!, {r0, r2, r3, r5, r8, sp, lr}^
 12c:	666f733d 			; <UNDEFINED> instruction: 0x666f733d
 130:	6d2d2074 	stcvs	0, cr2, [sp, #-464]!	; 0xfffffe30
 134:	206d7261 	rsbcs	r7, sp, r1, ror #4
 138:	72616d2d 	rsbvc	r6, r1, #2880	; 0xb40
 13c:	613d6863 	teqvs	sp, r3, ror #16
 140:	36766d72 			; <UNDEFINED> instruction: 0x36766d72
 144:	2d207a6b 	vstmdbcs	r0!, {s14-s120}
 148:	62646767 	rsbvs	r6, r4, #27000832	; 0x19c0000
 14c:	334f2d20 	movtcc	r2, #64800	; 0xfd20
 150:	74732d20 	ldrbtvc	r2, [r3], #-3360	; 0xfffff2e0
 154:	6e673d64 	cdpvs	13, 6, cr3, cr7, cr4, {3}
 158:	20393975 	eorscs	r3, r9, r5, ror r9
 15c:	7266662d 	rsbvc	r6, r6, #47185920	; 0x2d00000
 160:	74736565 	ldrbtvc	r6, [r3], #-1381	; 0xfffffa9b
 164:	69646e61 	stmdbvs	r4!, {r0, r5, r6, r9, sl, fp, sp, lr}^
 168:	6e00676e 	cdpvs	7, 0, cr6, cr0, cr14, {3}
 16c:	616d746f 	cmnvs	sp, pc, ror #8
 170:	73006e69 	movwvc	r6, #3689	; 0xe69
 174:	74726f68 	ldrbtvc	r6, [r2], #-3944	; 0xfffff098
 178:	736e7520 	cmnvc	lr, #32, 10	; 0x8000000
 17c:	656e6769 	strbvs	r6, [lr, #-1897]!	; 0xfffff897
 180:	6e692064 	cdpvs	0, 6, cr2, cr9, cr4, {3}
 184:	32690074 	rsbcc	r0, r9, #116, 0	; 0x74
 188:	6e695f73 	mcrvs	15, 3, r5, cr9, cr3, {3}
 18c:	73007469 	movwvc	r7, #1129	; 0x469
 190:	74726f68 	ldrbtvc	r6, [r2], #-3944	; 0xfffff098
 194:	746e6920 	strbtvc	r6, [lr], #-2336	; 0xfffff6e0
 198:	616e6500 	cmnvs	lr, r0, lsl #10
 19c:	5f656c62 	svcpl	0x00656c62
 1a0:	68636163 	stmdavs	r3!, {r0, r1, r5, r6, r8, sp, lr}^
 1a4:	70720065 	rsbsvc	r0, r2, r5, rrx
 1a8:	75705f69 	ldrbvc	r5, [r0, #-3945]!	; 0xfffff097
 1ac:	61686374 	smcvs	34356	; 0x8634
 1b0:	6d630072 	stclvs	0, cr0, [r3, #-456]!	; 0xfffffe38
 1b4:	6765725f 			; <UNDEFINED> instruction: 0x6765725f
 1b8:	00745f73 	rsbseq	r5, r4, r3, ror pc
 1bc:	5f533249 	svcpl	0x00533249
 1c0:	525f5343 	subspl	r5, pc, #201326593	; 0xc000001
 1c4:	524c4358 	subpl	r4, ip, #88, 6	; 0x60000001
 1c8:	53324900 	teqpl	r2, #0, 18
 1cc:	5f53435f 	svcpl	0x0053435f
 1d0:	43004e45 	movwmi	r4, #3653	; 0xe45
 1d4:	00415f53 	subeq	r5, r1, r3, asr pc
 1d8:	5f533249 	svcpl	0x00533249
 1dc:	5f435852 	svcpl	0x00435852
 1e0:	57314843 	ldrpl	r4, [r1, -r3, asr #16]!
 1e4:	555f4449 	ldrbpl	r4, [pc, #-1097]	; fffffda3 <__bss_end__+0xffff5fe3>
 1e8:	6e690042 	cdpvs	0, 6, cr0, cr9, cr2, {2}
 1ec:	74735f74 	ldrbtvc	r5, [r3], #-3956	; 0xfffff08c
 1f0:	4f4d0063 	svcmi	0x004d0063
 1f4:	415f4544 	cmpmi	pc, r4, asr #10
 1f8:	53324900 	teqpl	r2, #0, 18
 1fc:	4358525f 	cmpmi	r8, #-268435451	; 0xf0000005
 200:	3148435f 	cmpcc	r8, pc, asr r3
 204:	5f534f50 	svcpl	0x00534f50
 208:	4900424c 	stmdbmi	r0, {r2, r3, r6, r9, lr}
 20c:	525f5332 	subspl	r5, pc, #-939524096	; 0xc8000000
 210:	435f4358 	cmpmi	pc, #88, 6	; 0x60000001
 214:	45573248 	ldrbmi	r3, [r7, #-584]	; 0xfffffdb8
 218:	72670058 	rsbvc	r0, r7, #88, 0	; 0x58
 21c:	69007961 	stmdbvs	r0, {r0, r5, r6, r8, fp, ip, sp, lr}
 220:	725f7332 	subsvc	r7, pc, #-939524096	; 0xc8000000
 224:	5f736765 	svcpl	0x00736765
 228:	50470074 	subpl	r0, r7, r4, ror r0
 22c:	465f4f49 	ldrbmi	r4, [pc], -r9, asr #30
 230:	5f434e55 	svcpl	0x00434e55
 234:	5054554f 	subspl	r5, r4, pc, asr #10
 238:	69005455 	stmdbvs	r0, {r0, r2, r4, r6, sl, ip, lr}
 23c:	655f746e 	ldrbvs	r7, [pc, #-1134]	; fffffdd6 <__bss_end__+0xffff6016>
 240:	4350006e 	cmpmi	r0, #110, 0	; 0x6e
 244:	54435f4d 	strbpl	r5, [r3], #-3917	; 0xfffff0b3
 248:	70004c52 	andvc	r4, r0, r2, asr ip
 24c:	635f6d63 	cmpvs	pc, #6336	; 0x18c0
 250:	006c7274 	rsbeq	r7, ip, r4, ror r2
 254:	65646f6d 	strbvs	r6, [r4, #-3949]!	; 0xfffff093
 258:	53324900 	teqpl	r2, #0, 18
 25c:	5f53435f 	svcpl	0x0053435f
 260:	59425453 	stmdbpl	r2, {r0, r1, r4, r6, sl, ip, lr}^
 264:	4d435000 	stclmi	0, cr5, [r3, #-0]
 268:	5649445f 			; <UNDEFINED> instruction: 0x5649445f
 26c:	73326900 	teqvc	r2, #0, 18
 270:	4700632e 	strmi	r6, [r0, -lr, lsr #6]
 274:	5f4f4950 	svcpl	0x004f4950
 278:	434e5546 	movtmi	r5, #58694	; 0xe546
 27c:	544c415f 	strbpl	r4, [ip], #-351	; 0xfffffea1
 280:	50470031 	subpl	r0, r7, r1, lsr r0
 284:	465f4f49 	ldrbmi	r4, [pc], -r9, asr #30
 288:	5f434e55 	svcpl	0x00434e55
 28c:	32544c41 	subscc	r4, r4, #16640	; 0x4100
 290:	49504700 	ldmdbmi	r0, {r8, r9, sl, lr}^
 294:	55465f4f 	strbpl	r5, [r6, #-3919]	; 0xfffff0b1
 298:	415f434e 	cmpmi	pc, lr, asr #6
 29c:	0033544c 	eorseq	r5, r3, ip, asr #8
 2a0:	4f495047 	svcmi	0x00495047
 2a4:	4e55465f 	mrcmi	6, 2, r4, cr5, cr15, {2}
 2a8:	4c415f43 	mcrrmi	15, 4, r5, r1, cr3
 2ac:	47003454 	smlsdmi	r0, r4, r4, r3
 2b0:	5f4f4950 	svcpl	0x004f4950
 2b4:	434e5546 	movtmi	r5, #58694	; 0xe546
 2b8:	544c415f 	strbpl	r4, [ip], #-351	; 0xfffffea1
 2bc:	32690035 	rsbcc	r0, r9, #53, 0	; 0x35
 2c0:	65725f73 	ldrbvs	r5, [r2, #-3955]!	; 0xfffff08d
 2c4:	62007367 	andvs	r7, r0, #-1677721599	; 0x9c000001
 2c8:	735f7469 	cmpvc	pc, #1761607680	; 0x69000000
 2cc:	49007465 	stmdbmi	r0, {r0, r2, r5, r6, sl, ip, sp, lr}
 2d0:	525f5332 	subspl	r5, pc, #-939524096	; 0xc8000000
 2d4:	435f4358 	cmpmi	pc, #88, 6	; 0x60000001
 2d8:	49573248 	ldmdbmi	r7, {r3, r6, r9, ip, sp}^
 2dc:	42555f44 	subsmi	r5, r5, #68, 30	; 0x110
 2e0:	69626e00 	stmdbvs	r2!, {r9, sl, fp, sp, lr}^
 2e4:	62007374 	andvs	r7, r0, #116, 6	; 0xd0000001
 2e8:	5f737469 	svcpl	0x00737469
 2ec:	00726c63 	rsbseq	r6, r2, r3, ror #24
 2f0:	5f746962 	svcpl	0x00746962
 2f4:	6f5f7369 	svcvs	0x005f7369
 2f8:	49006666 	stmdbmi	r0, {r1, r2, r5, r6, r9, sl, sp, lr}
 2fc:	435f5332 	cmpmi	pc, #-939524096	; 0xc8000000
 300:	58525f53 	ldmdapl	r2, {r0, r1, r4, r6, r8, r9, sl, fp, ip, lr}^
 304:	00584553 	subseq	r4, r8, r3, asr r5
 308:	5f533249 	svcpl	0x00533249
 30c:	5f435852 	svcpl	0x00435852
 310:	50324843 	eorspl	r4, r2, r3, asr #16
 314:	555f534f 	ldrbpl	r5, [pc, #-847]	; ffffffcd <__bss_end__+0xffff620d>
 318:	63700042 	cmnvs	r0, #66, 0	; 0x42
 31c:	69645f6d 	stmdbvs	r4!, {r0, r2, r3, r5, r6, r8, r9, sl, fp, ip, lr}^
 320:	5f5f0076 	svcpl	0x005f0076
 324:	434e5546 	movtmi	r5, #58694	; 0xe546
 328:	4e4f4954 			; <UNDEFINED> instruction: 0x4e4f4954
 32c:	49005f5f 	stmdbmi	r0, {r0, r1, r2, r3, r4, r6, r8, r9, sl, fp, ip, lr}
 330:	435f5332 	cmpmi	pc, #-939524096	; 0xc8000000
 334:	58525f53 	ldmdapl	r2, {r0, r1, r4, r6, r8, r9, sl, fp, ip, lr}^
 338:	00525245 	subseq	r5, r2, r5, asr #4
 33c:	33544547 	cmpcc	r4, #297795584	; 0x11c00000
 340:	6c630032 	stclvs	0, cr0, [r3], #-200	; 0xffffff38
 344:	5f6e6165 	svcpl	0x006e6165
 348:	6f626572 	svcvs	0x00626572
 34c:	6200746f 	andvs	r7, r0, #1862270976	; 0x6f000000
 350:	695f7469 	ldmdbvs	pc, {r0, r3, r5, r6, sl, ip, sp, lr}^	; <UNPREDICTABLE>
 354:	6e6f5f73 	mcrvs	15, 3, r5, cr15, cr3, {3}
 358:	49504700 	ldmdbmi	r0, {r8, r9, sl, lr}^
 35c:	55465f4f 	strbpl	r5, [r6, #-3919]	; 0xfffff0b1
 360:	415f434e 	cmpmi	pc, lr, asr #6
 364:	0030544c 	eorseq	r5, r0, ip, asr #8
 368:	5f435852 	svcpl	0x00435852
 36c:	32490041 	subcc	r0, r9, #65, 0	; 0x41
 370:	53435f53 	movtpl	r5, #16211	; 0x3f53
 374:	4658525f 			; <UNDEFINED> instruction: 0x4658525f
 378:	5f4d4300 	svcpl	0x004d4300
 37c:	5f676572 	svcpl	0x00676572
 380:	756c6176 	strbvc	r6, [ip, #-374]!	; 0xfffffe8a
 384:	50470065 	subpl	r0, r7, r5, rrx
 388:	465f4f49 	ldrbmi	r4, [pc], -r9, asr #30
 38c:	5f434e55 	svcpl	0x00434e55
 390:	55504e49 	ldrbpl	r4, [r0, #-3657]	; 0xfffff1b7
 394:	32490054 	subcc	r0, r9, #84, 0	; 0x54
 398:	53435f53 	movtpl	r5, #16211	; 0x3f53
 39c:	5258525f 	subspl	r5, r8, #-268435451	; 0xf0000005
 3a0:	6e697500 	cdpvs	5, 6, cr7, cr9, cr0, {0}
 3a4:	5f323374 	svcpl	0x00323374
 3a8:	32490074 	subcc	r0, r9, #116, 0	; 0x74
 3ac:	4f4d5f53 	svcmi	0x004d5f53
 3b0:	465f4544 	ldrbmi	r4, [pc], -r4, asr #10
 3b4:	5f4e454c 	svcpl	0x004e454c
 3b8:	4900424c 	stmdbmi	r0, {r2, r3, r6, r9, lr}
 3bc:	435f5332 	cmpmi	pc, #-939524096	; 0xc8000000
 3c0:	58525f53 	ldmdapl	r2, {r0, r1, r4, r6, r8, r9, sl, fp, ip, lr}^
 3c4:	434e5953 	movtmi	r5, #59731	; 0xe953
 3c8:	74696200 	strbtvc	r6, [r9], #-512	; 0xfffffe00
 3cc:	65735f73 	ldrbvs	r5, [r3, #-3955]!	; 0xfffff08d
 3d0:	6d630074 	stclvs	0, cr0, [r3, #-464]!	; 0xfffffe30
 3d4:	6765725f 			; <UNDEFINED> instruction: 0x6765725f
 3d8:	32490073 	subcc	r0, r9, #115, 0	; 0x73
 3dc:	58525f53 	ldmdapl	r2, {r0, r1, r4, r6, r8, r9, sl, fp, ip, lr}^
 3e0:	48435f43 	stmdami	r3, {r0, r1, r6, r8, r9, sl, fp, ip, lr}^
 3e4:	004e4531 	subeq	r4, lr, r1, lsr r5
 3e8:	6f666966 	svcvs	0x00666966
 3ec:	53324900 	teqpl	r2, #0, 18
 3f0:	444f4d5f 	strbmi	r4, [pc], #-3423	; 3f8 <__code_start__-0x7c08>
 3f4:	53465f45 	movtpl	r5, #28485	; 0x6f45
 3f8:	5f4e454c 	svcpl	0x004e454c
 3fc:	4900424c 	stmdbmi	r0, {r2, r3, r6, r9, lr}
 400:	525f5332 	subspl	r5, pc, #-939524096	; 0xc8000000
 404:	435f4358 	cmpmi	pc, #88, 6	; 0x60000001
 408:	49573148 	ldmdbmi	r7, {r3, r6, r8, ip, sp}^
 40c:	424c5f44 	submi	r5, ip, #68, 30	; 0x110
 410:	53324900 	teqpl	r2, #0, 18
 414:	5f53435f 	svcpl	0x0053435f
 418:	48545852 	ldmdami	r4, {r1, r4, r6, fp, ip, lr}^
 41c:	424c5f52 	submi	r5, ip, #328	; 0x148
 420:	53324900 	teqpl	r2, #0, 18
 424:	4358525f 	cmpmi	r8, #-268435451	; 0xf0000005
 428:	3248435f 	subcc	r4, r8, #2080374785	; 0x7c000001
 42c:	49004e45 	stmdbmi	r0, {r0, r2, r6, r9, sl, fp, lr}
 430:	435f5332 	cmpmi	pc, #-939524096	; 0xc8000000
 434:	59535f53 	ldmdbpl	r3, {r0, r1, r4, r6, r8, r9, sl, fp, ip, lr}^
 438:	4900434e 	stmdbmi	r0, {r1, r2, r3, r6, r8, r9, lr}
 43c:	525f5332 	subspl	r5, pc, #-939524096	; 0xc8000000
 440:	435f4358 	cmpmi	pc, #88, 6	; 0x60000001
 444:	49573248 	ldmdbmi	r7, {r3, r6, r9, ip, sp}^
 448:	424c5f44 	submi	r5, ip, #68, 30	; 0x110
 44c:	76656400 	strbtvc	r6, [r5], -r0, lsl #8
 450:	7261625f 	rsbvc	r6, r1, #-268435451	; 0xf0000005
 454:	72656972 	rsbvc	r6, r5, #1867776	; 0x1c8000
 458:	53324900 	teqpl	r2, #0, 18
 45c:	4358525f 	cmpmi	r8, #-268435451	; 0xf0000005
 460:	3248435f 	subcc	r4, r8, #2080374785	; 0x7c000001
 464:	5f534f50 	svcpl	0x00534f50
 468:	4900424c 	stmdbmi	r0, {r2, r3, r6, r9, lr}
 46c:	435f5332 	cmpmi	pc, #-939524096	; 0xc8000000
 470:	58525f53 	ldmdapl	r2, {r0, r1, r4, r6, r8, r9, sl, fp, ip, lr}^
 474:	72640044 	rsbvc	r0, r4, #68, 0	; 0x44
 478:	62007165 	andvs	r7, r0, #1073741849	; 0x40000019
 47c:	5f737469 	svcpl	0x00737469
 480:	6b73616d 	blvs	1cd8a3c <__bss_end__+0x1ccec7c>
 484:	53324900 	teqpl	r2, #0, 18
 488:	4358525f 	cmpmi	r8, #-268435451	; 0xf0000005
 48c:	3148435f 	cmpcc	r8, pc, asr r3
 490:	00584557 	subseq	r4, r8, r7, asr r5
 494:	6f697067 	svcvs	0x00697067
 498:	7465735f 	strbtvc	r7, [r5], #-863	; 0xfffffca1
 49c:	6e75665f 	mrcvs	6, 3, r6, cr5, cr15, {2}
 4a0:	6f697463 	svcvs	0x00697463
 4a4:	746f006e 	strbtvc	r0, [pc], #-110	; 4ac <__code_start__-0x7b54>
 4a8:	5f726568 	svcpl	0x00726568
 4ac:	73676572 	cmnvc	r7, #478150656	; 0x1c800000
 4b0:	54555000 	ldrbpl	r5, [r5], #-0
 4b4:	49003233 	stmdbmi	r0, {r0, r1, r4, r5, r9, ip, sp}
 4b8:	435f5332 	cmpmi	pc, #-939524096	; 0xc8000000
 4bc:	58525f53 	ldmdapl	r2, {r0, r1, r4, r6, r8, r9, sl, fp, ip, lr}^
 4c0:	74004e4f 	strvc	r4, [r0], #-3663	; 0xfffff1b1
 4c4:	66635f78 	uqsub16vs	r5, r3, r8
 4c8:	70670067 	rsbvc	r0, r7, r7, rrx
 4cc:	735f6f69 	cmpvc	pc, #420	; 0x1a4
 4d0:	6f5f7465 	svcvs	0x005f7465
 4d4:	3249006e 	subcc	r0, r9, #110, 0	; 0x6e
 4d8:	53435f53 	movtpl	r5, #16211	; 0x3f53
 4dc:	5458525f 	ldrbpl	r5, [r8], #-607	; 0xfffffda1
 4e0:	555f5248 	ldrbpl	r5, [pc, #-584]	; 2a0 <__code_start__-0x7d60>
 4e4:	32490042 	subcc	r0, r9, #66, 0	; 0x42
 4e8:	4f4d5f53 	svcmi	0x004d5f53
 4ec:	465f4544 	ldrbmi	r4, [pc], -r4, asr #10
 4f0:	4e454c53 	mcrmi	12, 2, r4, cr5, cr3, {2}
 4f4:	0042555f 	subeq	r5, r2, pc, asr r5
 4f8:	635f7872 	cmpvs	pc, #7471104	; 0x720000
 4fc:	49006766 	stmdbmi	r0, {r1, r2, r5, r6, r8, r9, sl, sp, lr}
 500:	525f5332 	subspl	r5, pc, #-939524096	; 0xc8000000
 504:	435f4358 	cmpmi	pc, #88, 6	; 0x60000001
 508:	4f503148 	svcmi	0x00503148
 50c:	42555f53 	subsmi	r5, r5, #332	; 0x14c
 510:	46494600 	strbmi	r4, [r9], -r0, lsl #12
 514:	00415f4f 	subeq	r5, r1, pc, asr #30
 518:	5f533249 	svcpl	0x00533249
 51c:	45444f4d 	strbmi	r4, [r4, #-3917]	; 0xfffff0b3
 520:	454c465f 	strbmi	r4, [ip, #-1631]	; 0xfffff9a1
 524:	42555f4e 	subsmi	r5, r5, #312	; 0x138
 528:	72756300 	rsbsvc	r6, r5, #0, 6
 52c:	64695f72 	strbtvs	r5, [r9], #-3954	; 0xfffff08e
 530:	77730078 			; <UNDEFINED> instruction: 0x77730078
 534:	695f7061 	ldmdbvs	pc, {r0, r5, r6, ip, sp, lr}^	; <UNPREDICTABLE>
 538:	74007864 	strvc	r7, [r0], #-2148	; 0xfffff79c
 53c:	00706d65 	rsbseq	r6, r0, r5, ror #26
 540:	32676f6c 	rsbcc	r6, r7, #108, 30	; 0x1b0
 544:	6e656c5f 	mcrvs	12, 3, r6, cr5, cr15, {2}
 548:	73616200 	cmnvc	r1, #0, 4
 54c:	65725f65 	ldrbvs	r5, [r2, #-3941]!	; 0xfffff09b
 550:	69006c61 	stmdbvs	r0, {r0, r5, r6, sl, fp, sp, lr}
 554:	7274735f 	rsbsvc	r7, r4, #2080374785	; 0x7c000001
 558:	00656469 	rsbeq	r6, r5, r9, ror #8
 55c:	64697774 	strbtvs	r7, [r9], #-1908	; 0xfffff88c
 560:	616d695f 	cmnvs	sp, pc, asr r9
 564:	6e690067 	cdpvs	0, 6, cr0, cr9, cr7, {3}
 568:	73726576 	cmnvc	r2, #494927872	; 0x1d800000
 56c:	66660065 	strbtvs	r0, [r6], -r5, rrx
 570:	69665f74 	stmdbvs	r6!, {r2, r4, r5, r6, r8, r9, sl, fp, ip, lr}^
 574:	5f646578 	svcpl	0x00646578
 578:	006c756d 	rsbeq	r7, ip, sp, ror #10
 57c:	66696873 			; <UNDEFINED> instruction: 0x66696873
 580:	66660074 			; <UNDEFINED> instruction: 0x66660074
 584:	00632e74 	rsbeq	r2, r3, r4, ror lr
 588:	64697774 	strbtvs	r7, [r9], #-1908	; 0xfffff88c
 58c:	6165725f 	cmnvs	r5, pc, asr r2
 590:	6f72006c 	svcvs	0x0072006c
 594:	00646e75 	rsbeq	r6, r4, r5, ror lr
 598:	6c616373 	stclvs	3, cr6, [r1], #-460	; 0xfffffe34
 59c:	66660065 	strbtvs	r0, [r6], -r5, rrx
 5a0:	69665f74 	stmdbvs	r6!, {r2, r4, r5, r6, r8, r9, sl, fp, ip, lr}^
 5a4:	5f646578 	svcpl	0x00646578
 5a8:	74666672 	strbtvc	r6, [r6], #-1650	; 0xfffff98e
 5ac:	6d657400 	cfstrdvs	mvd7, [r5, #-0]
 5b0:	6d695f70 	stclvs	15, cr5, [r9, #-448]!	; 0xfffffe40
 5b4:	66006761 	strvs	r6, [r0], -r1, ror #14
 5b8:	665f7466 	ldrbvs	r7, [pc], -r6, ror #8
 5bc:	64657869 	strbtvs	r7, [r5], #-2153	; 0xfffff797
 5c0:	6c756d5f 	ldclvs	13, cr6, [r5], #-380	; 0xfffffe84
 5c4:	3531715f 	ldrcc	r7, [r1, #-351]!	; 0xfffffea1
 5c8:	676f6c00 	strbvs	r6, [pc, -r0, lsl #24]!
 5cc:	5f6a5f32 	svcpl	0x006a5f32
 5d0:	69727473 	ldmdbvs	r2!, {r0, r1, r4, r5, r6, sl, ip, sp, lr}^
 5d4:	63006564 	movwvs	r6, #1380	; 0x564
 5d8:	5f727275 	svcpl	0x00727275
 5dc:	67616d69 	strbvs	r6, [r1, -r9, ror #26]!
 5e0:	72756300 	rsbsvc	r6, r5, #0, 6
 5e4:	6e690072 	mcrvs	0, 3, r0, cr9, cr2, {3}
 5e8:	5f363174 	svcpl	0x00363174
 5ec:	66660074 			; <UNDEFINED> instruction: 0x66660074
 5f0:	69665f74 	stmdbvs	r6!, {r2, r4, r5, r6, r8, r9, sl, fp, ip, lr}^
 5f4:	5f646578 	svcpl	0x00646578
 5f8:	74666663 	strbtvc	r6, [r6], #-1635	; 0xfffff99d
 5fc:	54464600 	strbpl	r4, [r6], #-1536	; 0xfffffa00
 600:	4e49535f 	mcrmi	3, 2, r5, cr9, cr15, {2}
 604:	554c5f45 	strbpl	r5, [ip, #-3909]	; 0xfffff0bb
 608:	65740054 	ldrbvs	r0, [r4, #-84]!	; 0xffffffac
 60c:	725f706d 	subsvc	r7, pc, #109, 0	; 0x6d
 610:	006c6165 	rsbeq	r6, ip, r5, ror #2
 614:	65736162 	ldrbvs	r6, [r3, #-354]!	; 0xfffffe9e
 618:	616d695f 	cmnvs	sp, pc, asr r9
 61c:	75630067 	strbvc	r0, [r3, #-103]!	; 0xffffff99
 620:	725f7272 	subsvc	r7, pc, #536870919	; 0x20000007
 624:	006c6165 	rsbeq	r6, ip, r5, ror #2
 628:	20554e47 	subscs	r4, r5, r7, asr #28
 62c:	20393943 	eorscs	r3, r9, r3, asr #18
 630:	2e322e39 	mrccs	14, 1, r2, cr2, cr9, {1}
 634:	30322031 	eorscc	r2, r2, r1, lsr r0
 638:	30313931 	eorscc	r3, r1, r1, lsr r9
 63c:	28203532 	stmdacs	r0!, {r1, r4, r5, r8, sl, ip, sp}
 640:	656c6572 	strbvs	r6, [ip, #-1394]!	; 0xfffffa8e
 644:	29657361 	stmdbcs	r5!, {r0, r5, r6, r8, r9, ip, sp, lr}^
 648:	52415b20 	subpl	r5, r1, #32, 22	; 0x8000
 64c:	72612f4d 	rsbvc	r2, r1, #308	; 0x134
 650:	2d392d6d 	ldccs	13, cr2, [r9, #-436]!	; 0xfffffe4c
 654:	6e617262 	cdpvs	2, 6, cr7, cr1, cr2, {3}
 658:	72206863 	eorvc	r6, r0, #6488064	; 0x630000
 65c:	73697665 	cmnvc	r9, #105906176	; 0x6500000
 660:	206e6f69 	rsbcs	r6, lr, r9, ror #30
 664:	35373732 	ldrcc	r3, [r7, #-1842]!	; 0xfffff8ce
 668:	205d3939 	subscs	r3, sp, r9, lsr r9
 66c:	70636d2d 	rsbvc	r6, r3, sp, lsr #26
 670:	72613d75 	rsbvc	r3, r1, #7488	; 0x1d40
 674:	3731316d 	ldrcc	r3, [r1, -sp, ror #2]!
 678:	667a6a36 			; <UNDEFINED> instruction: 0x667a6a36
 67c:	2d20732d 	stccs	3, cr7, [r0, #-180]!	; 0xffffff4c
 680:	6e75746d 	cdpvs	4, 7, cr7, cr5, cr13, {3}
 684:	72613d65 	rsbvc	r3, r1, #6464	; 0x1940
 688:	3731316d 	ldrcc	r3, [r1, -sp, ror #2]!
 68c:	667a6a36 			; <UNDEFINED> instruction: 0x667a6a36
 690:	2d20732d 	stccs	3, cr7, [r0, #-180]!	; 0xffffff4c
 694:	6f6c666d 	svcvs	0x006c666d
 698:	612d7461 			; <UNDEFINED> instruction: 0x612d7461
 69c:	733d6962 	teqvc	sp, #1605632	; 0x188000
 6a0:	2074666f 	rsbscs	r6, r4, pc, ror #12
 6a4:	72616d2d 	rsbvc	r6, r1, #2880	; 0xb40
 6a8:	6d2d206d 	stcvs	0, cr2, [sp, #-436]!	; 0xfffffe4c
 6ac:	68637261 	stmdavs	r3!, {r0, r5, r6, r9, ip, sp, lr}^
 6b0:	6d72613d 	ldfvse	f6, [r2, #-244]!	; 0xffffff0c
 6b4:	7a6b3676 	bvc	1ace094 <__bss_end__+0x1ac42d4>
 6b8:	67672d20 	strbvs	r2, [r7, -r0, lsr #26]!
 6bc:	2d206264 	sfmcs	f6, 4, [r0, #-400]!	; 0xfffffe70
 6c0:	62646767 	rsbvs	r6, r4, #27000832	; 0x19c0000
 6c4:	674f2d20 	strbvs	r2, [pc, -r0, lsr #26]
 6c8:	674f2d20 	strbvs	r2, [pc, -r0, lsr #26]
 6cc:	74732d20 	ldrbtvc	r2, [r3], #-3360	; 0xfffff2e0
 6d0:	6e673d64 	cdpvs	13, 6, cr3, cr7, cr4, {3}
 6d4:	20393975 	eorscs	r3, r9, r5, ror r9
 6d8:	6474732d 	ldrbtvs	r7, [r4], #-813	; 0xfffffcd3
 6dc:	756e673d 	strbvc	r6, [lr, #-1853]!	; 0xfffff8c3
 6e0:	2d203939 			; <UNDEFINED> instruction: 0x2d203939
 6e4:	65726666 	ldrbvs	r6, [r2, #-1638]!	; 0xfffff99a
 6e8:	61747365 	cmnvs	r4, r5, ror #6
 6ec:	6e69646e 	cdpvs	4, 6, cr6, cr9, cr14, {3}
 6f0:	72610067 	rsbvc	r0, r1, #103, 0	; 0x67
 6f4:	76007367 	strvc	r7, [r0], -r7, ror #6
 6f8:	72705f61 	rsbsvc	r5, r0, #388	; 0x184
 6fc:	6b746e69 	blvs	1d1c0a8 <__bss_end__+0x1d122e8>
 700:	675f5f00 	ldrbvs	r5, [pc, -r0, lsl #30]
 704:	5f63756e 	svcpl	0x0063756e
 708:	6c5f6176 	ldfvse	f6, [pc], {118}	; 0x76
 70c:	00747369 	rsbseq	r7, r4, r9, ror #6
 710:	70615f5f 	rsbvc	r5, r1, pc, asr pc
 714:	73552f00 	cmpvc	r5, #0, 30
 718:	2f737265 	svccs	0x00737265
 71c:	696d616a 	stmdbvs	sp!, {r1, r3, r5, r6, r8, sp, lr}^
 720:	6f442f65 	svcvs	0x00442f65
 724:	656d7563 	strbvs	r7, [sp, #-1379]!	; 0xfffffa9d
 728:	2f73746e 	svccs	0x0073746e
 72c:	34315343 	ldrtcc	r5, [r1], #-835	; 0xfffffcbd
 730:	632f4530 			; <UNDEFINED> instruction: 0x632f4530
 734:	30343173 	eorscc	r3, r4, r3, ror r1
 738:	69662d45 	stmdbvs	r6!, {r0, r2, r6, r8, sl, fp, sp}^
 73c:	2d6c616e 	stfcse	f6, [ip, #-440]!	; 0xfffffe48
 740:	6a6f7270 	bvs	1bdd108 <__bss_end__+0x1bd3348>
 744:	2f746365 	svccs	0x00746365
 748:	7362696c 	cmnvc	r2, #108, 18	; 0x1b0000
 74c:	3034322d 	eorscc	r3, r4, sp, lsr #4
 750:	6c2f786c 	stcvs	8, cr7, [pc], #-432	; 5a8 <__code_start__-0x7a58>
 754:	69706269 	ldmdbvs	r0!, {r0, r3, r5, r6, r9, sp, lr}^
 758:	6c2f2e00 	stcvs	14, cr2, [pc], #-0	; 760 <__code_start__-0x78a0>
 75c:	2f636269 	svccs	0x00636269
 760:	6e697270 	mcrvs	2, 3, r7, cr9, cr0, {3}
 764:	632e6b74 			; <UNDEFINED> instruction: 0x632e6b74
 768:	765f5f00 	ldrbvc	r5, [pc], -r0, lsl #30
 76c:	696c5f61 	stmdbvs	ip!, {r0, r5, r6, r8, r9, sl, fp, ip, lr}^
 770:	69007473 	stmdbvs	r0, {r0, r1, r4, r5, r6, sl, ip, sp, lr}
 774:	7265746e 	rsbvc	r7, r5, #1845493760	; 0x6e000000
 778:	5f6c616e 	svcpl	0x006c616e
 77c:	6b747570 	blvs	1d1dd44 <__bss_end__+0x1d13f84>
 780:	6c2f2e00 	stcvs	14, cr2, [pc], #-0	; 788 <__code_start__-0x7878>
 784:	2f636269 	svccs	0x00636269
 788:	6b747570 	blvs	1d1dd50 <__bss_end__+0x1d13f90>
 78c:	6900632e 	stmdbvs	r0, {r1, r2, r3, r5, r8, r9, sp, lr}
 790:	67696473 			; <UNDEFINED> instruction: 0x67696473
 794:	75007469 	strvc	r7, [r0, #-1129]	; 0xfffffb97
 798:	36746e69 	ldrbtcc	r6, [r4], -r9, ror #28
 79c:	00745f34 	rsbseq	r5, r4, r4, lsr pc
 7a0:	696c2f2e 	stmdbvs	ip!, {r1, r2, r3, r5, r8, r9, sl, fp, sp}^
 7a4:	762f6362 	strtvc	r6, [pc], -r2, ror #6
 7a8:	72702d61 	rsbsvc	r2, r0, #6208	; 0x1840
 7ac:	6b746e69 	blvs	1d1c158 <__bss_end__+0x1d12398>
 7b0:	5f00632e 	svcpl	0x0000632e
 7b4:	646f635f 	strbtvs	r6, [pc], #-863	; 7bc <__code_start__-0x7844>
 7b8:	74735f65 	ldrbtvc	r5, [r3], #-3941	; 0xfffff09b
 7bc:	5f747261 	svcpl	0x00747261
 7c0:	5f5f005f 	svcpl	0x005f005f
 7c4:	5f737362 	svcpl	0x00737362
 7c8:	72617473 	rsbvc	r7, r1, #1929379840	; 0x73000000
 7cc:	005f5f74 	subseq	r5, pc, r4, ror pc	; <UNPREDICTABLE>
 7d0:	74646977 	strbtvc	r6, [r4], #-2423	; 0xfffff689
 7d4:	5f5f0068 	svcpl	0x005f0068
 7d8:	61746164 	cmnvs	r4, r4, ror #2
 7dc:	646e655f 	strbtvs	r6, [lr], #-1375	; 0xfffffaa1
 7e0:	70005f5f 	andvc	r5, r0, pc, asr pc
 7e4:	5f637475 	svcpl	0x00637475
 7e8:	5f007066 	svcpl	0x00007066
 7ec:	7373625f 	cmnvc	r3, #-268435451	; 0xf0000005
 7f0:	646e655f 	strbtvs	r6, [lr], #-1375	; 0xfffffaa1
 7f4:	5f005f5f 	svcpl	0x00005f5f
 7f8:	6165685f 	cmnvs	r5, pc, asr r8
 7fc:	74735f70 	ldrbtvc	r5, [r3], #-3952	; 0xfffff090
 800:	5f747261 	svcpl	0x00747261
 804:	7072005f 	rsbsvc	r0, r2, pc, asr r0
 808:	65735f69 	ldrbvs	r5, [r3, #-3945]!	; 0xfffff097
 80c:	756f5f74 	strbvc	r5, [pc, #-3956]!	; fffff8a0 <__bss_end__+0xffff5ae0>
 810:	74757074 	ldrbtvc	r7, [r5], #-116	; 0xffffff8c
 814:	746d6600 	strbtvc	r6, [sp], #-1536	; 0xfffffa00
 818:	6174735f 	cmnvs	r4, pc, asr r3
 81c:	73007472 	movwvc	r7, #1138	; 0x472
 820:	70637274 	rsbvc	r7, r3, r4, ror r2
 824:	656e0079 	strbvs	r0, [lr, #-121]!	; 0xffffff87
 828:	00705f67 	rsbseq	r5, r0, r7, ror #30
 82c:	6f635f5f 	svcvs	0x00635f5f
 830:	655f6564 	ldrbvs	r6, [pc, #-1380]	; 2d4 <__code_start__-0x7d2c>
 834:	5f5f646e 	svcpl	0x005f646e
 838:	696d6500 	stmdbvs	sp!, {r8, sl, sp, lr}^
 83c:	75700074 	ldrbvc	r0, [r0, #-116]!	; 0xffffff8c
 840:	665f7374 			; <UNDEFINED> instruction: 0x665f7374
 844:	65720070 	ldrbvs	r0, [r2, #-112]!	; 0xffffff90
 848:	73726576 	cmnvc	r2, #494927872	; 0x1d800000
 84c:	74730065 	ldrbtvc	r0, [r3], #-101	; 0xffffff9b
 850:	74616372 	strbtvc	r6, [r1], #-882	; 0xfffffc8e
 854:	72747300 	rsbsvc	r7, r4, #0, 6
 858:	00706d63 	rsbseq	r6, r0, r3, ror #26
 85c:	61645f5f 	cmnvs	r4, pc, asr pc
 860:	735f6174 	cmpvc	pc, #29
 864:	74726174 	ldrbtvc	r6, [r2], #-372	; 0xfffffe8c
 868:	5f005f5f 	svcpl	0x00005f5f
 86c:	6f72705f 	svcvs	0x0072705f
 870:	6e655f67 	cdpvs	15, 6, cr5, cr5, cr7, {3}
 874:	005f5f64 	subseq	r5, pc, r4, ror #30
 878:	316d756e 	cmncc	sp, lr, ror #10
 87c:	72747300 	rsbsvc	r7, r4, #0, 6
 880:	706d636e 	rsbvc	r6, sp, lr, ror #6
 884:	73616200 	cmnvc	r1, #0, 4
 888:	69730065 	ldmdbvs	r3!, {r0, r2, r5, r6}^
 88c:	64656e67 	strbtvs	r6, [r5], #-3687	; 0xfffff199
 890:	6400705f 	strvs	r7, [r0], #-95	; 0xffffffa1
 894:	62617369 	rsbvs	r7, r1, #-1543503871	; 0xa4000001
 898:	635f656c 	cmpvs	pc, #108, 10	; 0x1b000000
 89c:	65686361 	strbvs	r6, [r8, #-865]!	; 0xfffffc9f
 8a0:	732f2e00 			; <UNDEFINED> instruction: 0x732f2e00
 8a4:	66666174 			; <UNDEFINED> instruction: 0x66666174
 8a8:	6372732d 	cmnvs	r2, #-1275068416	; 0xb4000000
 8ac:	6361632f 	cmnvs	r1, #-1140850688	; 0xbc000000
 8b0:	632e6568 			; <UNDEFINED> instruction: 0x632e6568
 8b4:	69707200 	ldmdbvs	r0!, {r9, ip, sp, lr}^
 8b8:	6265725f 	rsbvs	r7, r5, #-268435451	; 0xf0000005
 8bc:	00746f6f 	rsbseq	r6, r4, pc, ror #30
 8c0:	616c6564 	cmnvs	ip, r4, ror #10
 8c4:	736d5f79 	cmnvc	sp, #484	; 0x1e4
 8c8:	732f2e00 			; <UNDEFINED> instruction: 0x732f2e00
 8cc:	66666174 			; <UNDEFINED> instruction: 0x66666174
 8d0:	6372732d 	cmnvs	r2, #-1275068416	; 0xb4000000
 8d4:	656c632f 	strbvs	r6, [ip, #-815]!	; 0xfffffcd1
 8d8:	722d6e61 	eorvc	r6, sp, #1552	; 0x610
 8dc:	6f6f6265 	svcvs	0x006f6265
 8e0:	00632e74 	rsbeq	r2, r3, r4, ror lr
 8e4:	74726175 	ldrbtvc	r6, [r2], #-373	; 0xfffffe8b
 8e8:	756c665f 	strbvc	r6, [ip, #-1631]!	; 0xfffff9a1
 8ec:	745f6873 	ldrbvc	r6, [pc], #-2163	; 8f4 <__code_start__-0x770c>
 8f0:	635f0078 	cmpvs	pc, #120, 0	; 0x78
 8f4:	72617473 	rsbvc	r7, r1, #1929379840	; 0x73000000
 8f8:	73620074 	cmnvc	r2, #116, 0	; 0x74
 8fc:	6e655f73 	mcrvs	15, 3, r5, cr5, cr3, {3}
 900:	61750064 	cmnvs	r5, r4, rrx
 904:	695f7472 	ldmdbvs	pc, {r1, r4, r5, r6, sl, ip, sp, lr}^	; <UNPREDICTABLE>
 908:	0074696e 	rsbseq	r6, r4, lr, ror #18
 90c:	74737563 	ldrbtvc	r7, [r3], #-1379	; 0xfffffa9d
 910:	6c5f6d6f 	mrrcvs	13, 6, r6, pc, cr15	; <UNPREDICTABLE>
 914:	6564616f 	strbvs	r6, [r4, #-367]!	; 0xfffffe91
 918:	2f2e0072 	svccs	0x002e0072
 91c:	66617473 			; <UNDEFINED> instruction: 0x66617473
 920:	72732d66 	rsbsvc	r2, r3, #6528	; 0x1980
 924:	73632f63 	cmnvc	r3, #396	; 0x18c
 928:	74726174 	ldrbtvc	r6, [r2], #-372	; 0xfffffe8c
 92c:	2e00632e 	cdpcs	3, 0, cr6, cr0, cr14, {1}
 930:	6174732f 	cmnvs	r4, pc, lsr #6
 934:	732d6666 			; <UNDEFINED> instruction: 0x732d6666
 938:	632f6372 			; <UNDEFINED> instruction: 0x632f6372
 93c:	6f747375 	svcvs	0x00747375
 940:	6f6c2d6d 	svcvs	0x006c2d6d
 944:	72656461 	rsbvc	r6, r5, #1627389952	; 0x61000000
 948:	7200632e 	andvc	r6, r0, #-1207959552	; 0xb8000000
 94c:	6f6f6265 	svcvs	0x006f6265
 950:	61635f74 	smcvs	13812	; 0x35f4
 954:	756f6c6c 	strbvc	r6, [pc, #-3180]!	; fffffcf0 <__bss_end__+0xffff5f30>
 958:	4d500074 	ldclmi	0, cr0, [r0, #-464]	; 0xfffffe30
 95c:	4f44575f 	svcmi	0x0044575f
 960:	65730047 	ldrbvs	r0, [r3, #-71]!	; 0xffffffb9
 964:	73755f74 	cmnvc	r5, #116, 30	; 0x1d0
 968:	6c5f7265 	lfmvs	f7, 2, [pc], {101}	; 0x65
 96c:	6c657665 	stclvs	6, cr7, [r5], #-404	; 0xfffffe6c
 970:	732f2e00 			; <UNDEFINED> instruction: 0x732f2e00
 974:	66666174 			; <UNDEFINED> instruction: 0x66666174
 978:	6372732d 	cmnvs	r2, #-1275068416	; 0xb4000000
 97c:	6265722f 	rsbvs	r7, r5, #-268435454	; 0xf0000002
 980:	2e746f6f 	cdpcs	15, 7, cr6, cr4, cr15, {3}
 984:	4d500063 	ldclmi	0, cr0, [r0, #-396]	; 0xfffffe74
 988:	5341505f 	movtpl	r5, #4191	; 0x105f
 98c:	524f5753 	subpl	r5, pc, #21757952	; 0x14c0000
 990:	74610044 	strbtvc	r0, [r1], #-68	; 0xffffffbc
 994:	6573755f 	ldrbvs	r7, [r3, #-1375]!	; 0xfffffaa1
 998:	656c5f72 	strbvs	r5, [ip, #-3954]!	; 0xfffff08e
 99c:	006c6576 	rsbeq	r6, ip, r6, ror r5
 9a0:	525f4d50 	subspl	r4, pc, #80, 26	; 0x1400
 9a4:	5f435453 	svcpl	0x00435453
 9a8:	46435257 			; <UNDEFINED> instruction: 0x46435257
 9ac:	55465f47 	strbpl	r5, [r6, #-3911]	; 0xfffff0b9
 9b0:	525f4c4c 	subspl	r4, pc, #76, 24	; 0x4c00
 9b4:	54455345 	strbpl	r5, [r5], #-837	; 0xfffffcbb
 9b8:	5f4d5000 	svcpl	0x004d5000
 9bc:	43545352 	cmpmi	r4, #1207959553	; 0x48000001
 9c0:	73706300 	cmnvc	r0, #0, 6
 9c4:	65640072 	strbvs	r0, [r4, #-114]!	; 0xffffff8e
 9c8:	5f79616c 	svcpl	0x0079616c
 9cc:	00636573 	rsbeq	r6, r3, r3, ror r5
 9d0:	74732f2e 	ldrbtvc	r2, [r3], #-3886	; 0xfffff0d2
 9d4:	2d666661 	stclcs	6, cr6, [r6, #-388]!	; 0xfffffe7c
 9d8:	2f637273 	svccs	0x00637273
 9dc:	656d6974 	strbvs	r6, [sp, #-2420]!	; 0xfffff68c
 9e0:	00632e72 	rsbeq	r2, r3, r2, ror lr
 9e4:	656d6974 	strbvs	r6, [sp, #-2420]!	; 0xfffff68c
 9e8:	65675f72 	strbvs	r5, [r7, #-3954]!	; 0xfffff08e
 9ec:	73755f74 	cmnvc	r5, #116, 30	; 0x1d0
 9f0:	64006365 	strvs	r6, [r0], #-869	; 0xfffffc9b
 9f4:	79616c65 	stmdbvc	r1!, {r0, r2, r5, r6, sl, fp, sp, lr}^
 9f8:	0073755f 	rsbseq	r7, r3, pc, asr r5
 9fc:	656d6974 	strbvs	r6, [sp, #-2420]!	; 0xfffff68c
 a00:	65675f72 	strbvs	r5, [r7, #-3954]!	; 0xfffff08e
 a04:	73755f74 	cmnvc	r5, #116, 30	; 0x1d0
 a08:	725f6365 	subsvc	r6, pc, #-1811939327	; 0x94000001
 a0c:	67007761 	strvs	r7, [r0, -r1, ror #14]
 a10:	5f6f6970 	svcpl	0x006f6970
 a14:	30726c63 	rsbscc	r6, r2, r3, ror #24
 a18:	69706700 	ldmdbvs	r0!, {r8, r9, sl, sp, lr}^
 a1c:	65735f6f 	ldrbvs	r5, [r3, #-3951]!	; 0xfffff091
 a20:	67003074 	smlsdxvs	r0, r4, r0, r3
 a24:	5f6f6970 	svcpl	0x006f6970
 a28:	74697277 	strbtvc	r7, [r9], #-631	; 0xfffffd89
 a2c:	45440065 	strbmi	r0, [r4, #-101]	; 0xffffff9b
 a30:	41565f56 	cmpmi	r6, r6, asr pc
 a34:	0032334c 	eorseq	r3, r2, ip, asr #6
 a38:	6f697067 	svcvs	0x00697067
 a3c:	6165725f 	cmnvs	r5, pc, asr r2
 a40:	70670064 	rsbvc	r0, r7, r4, rrx
 a44:	735f6f69 	cmpvc	pc, #420	; 0x1a4
 a48:	695f7465 	ldmdbvs	pc, {r0, r2, r5, r6, sl, ip, sp, lr}^	; <UNPREDICTABLE>
 a4c:	7475706e 	ldrbtvc	r7, [r5], #-110	; 0xffffff92
 a50:	6f682f00 	svcvs	0x00682f00
 a54:	652f656d 	strvs	r6, [pc, #-1389]!	; 4ef <__code_start__-0x7b11>
 a58:	656c676e 	strbvs	r6, [ip, #-1902]!	; 0xfffff892
 a5c:	6c632f72 	stclvs	15, cr2, [r3], #-456	; 0xfffffe38
 a60:	2f737361 	svccs	0x00737361
 a64:	34327363 	ldrtcc	r7, [r2], #-867	; 0xfffffc9d
 a68:	2d786c30 	ldclcs	12, cr6, [r8, #-192]!	; 0xffffff40
 a6c:	70733232 	rsbsvc	r3, r3, r2, lsr r2
 a70:	696c2f72 	stmdbvs	ip!, {r1, r4, r5, r6, r8, r9, sl, fp, sp}^
 a74:	2f697062 	svccs	0x00697062
 a78:	66617473 			; <UNDEFINED> instruction: 0x66617473
 a7c:	72702d66 	rsbsvc	r2, r0, #6528	; 0x1980
 a80:	74617669 	strbtvc	r7, [r1], #-1641	; 0xfffff997
 a84:	70670065 	rsbvc	r0, r7, r5, rrx
 a88:	735f6f69 	cmpvc	pc, #420	; 0x1a4
 a8c:	6f5f7465 	svcvs	0x005f7465
 a90:	67006666 	strvs	r6, [r0, -r6, ror #12]
 a94:	5f6f6970 	svcpl	0x006f6970
 a98:	5f746573 	svcpl	0x00746573
 a9c:	7074756f 	rsbsvc	r7, r4, pc, ror #10
 aa0:	66007475 			; <UNDEFINED> instruction: 0x66007475
 aa4:	00636e75 	rsbeq	r6, r3, r5, ror lr
 aa8:	6f697067 	svcvs	0x00697067
 aac:	6e75665f 	mrcvs	6, 3, r6, cr5, cr15, {2}
 ab0:	00745f63 	rsbseq	r5, r4, r3, ror #30
 ab4:	20554e47 	subscs	r4, r5, r7, asr #28
 ab8:	20393943 	eorscs	r3, r9, r3, asr #18
 abc:	332e3031 			; <UNDEFINED> instruction: 0x332e3031
 ac0:	3220312e 	eorcc	r3, r0, #-2147483637	; 0x8000000b
 ac4:	30313230 	eorscc	r3, r1, r0, lsr r2
 ac8:	20343238 	eorscs	r3, r4, r8, lsr r2
 acc:	6c657228 	sfmvs	f7, 2, [r5], #-160	; 0xffffff60
 ad0:	65736165 	ldrbvs	r6, [r3, #-357]!	; 0xfffffe9b
 ad4:	6d2d2029 	stcvs	0, cr2, [sp, #-164]!	; 0xffffff5c
 ad8:	3d757063 	ldclcc	0, cr7, [r5, #-396]!	; 0xfffffe74
 adc:	316d7261 	cmncc	sp, r1, ror #4
 ae0:	6a363731 	bvs	d8e7ac <__bss_end__+0xd849ec>
 ae4:	732d667a 			; <UNDEFINED> instruction: 0x732d667a
 ae8:	746d2d20 	strbtvc	r2, [sp], #-3360	; 0xfffff2e0
 aec:	3d656e75 	stclcc	14, cr6, [r5, #-468]!	; 0xfffffe2c
 af0:	316d7261 	cmncc	sp, r1, ror #4
 af4:	6a363731 	bvs	d8e7c0 <__bss_end__+0xd84a00>
 af8:	732d667a 			; <UNDEFINED> instruction: 0x732d667a
 afc:	666d2d20 	strbtvs	r2, [sp], -r0, lsr #26
 b00:	74616f6c 	strbtvc	r6, [r1], #-3948	; 0xfffff094
 b04:	6962612d 	stmdbvs	r2!, {r0, r2, r3, r5, r8, sp, lr}^
 b08:	666f733d 			; <UNDEFINED> instruction: 0x666f733d
 b0c:	6d2d2074 	stcvs	0, cr2, [sp, #-464]!	; 0xfffffe30
 b10:	206d7261 	rsbcs	r7, sp, r1, ror #4
 b14:	72616d2d 	rsbvc	r6, r1, #2880	; 0xb40
 b18:	613d6863 	teqvs	sp, r3, ror #16
 b1c:	36766d72 			; <UNDEFINED> instruction: 0x36766d72
 b20:	2d207a6b 	vstmdbcs	r0!, {s14-s120}
 b24:	62646767 	rsbvs	r6, r4, #27000832	; 0x19c0000
 b28:	674f2d20 	strbvs	r2, [pc, -r0, lsr #26]
 b2c:	74732d20 	ldrbtvc	r2, [r3], #-3360	; 0xfffff2e0
 b30:	6e673d64 	cdpvs	13, 6, cr3, cr7, cr4, {3}
 b34:	20393975 	eorscs	r3, r9, r5, ror r9
 b38:	7266662d 	rsbvc	r6, r6, #47185920	; 0x2d00000
 b3c:	74736565 	ldrbtvc	r6, [r3], #-1381	; 0xfffffa9b
 b40:	69646e61 	stmdbvs	r4!, {r0, r5, r6, r9, sl, fp, sp, lr}^
 b44:	6700676e 	strvs	r6, [r0, -lr, ror #14]
 b48:	5f6f6970 	svcpl	0x006f6970
 b4c:	3076656c 	rsbscc	r6, r6, ip, ror #10
 b50:	6e616200 	cdpvs	2, 6, cr6, cr1, cr0, {0}
 b54:	7067006b 	rsbvc	r0, r7, fp, rrx
 b58:	632e6f69 			; <UNDEFINED> instruction: 0x632e6f69
 b5c:	74757000 	ldrbtvc	r7, [r5], #-0
 b60:	62003233 	andvs	r3, r0, #805306371	; 0x30000003
 b64:	5f647561 	svcpl	0x00647561
 b68:	006c6176 	rsbeq	r6, ip, r6, ror r1
 b6c:	74617473 	strbtvc	r7, [r1], #-1139	; 0xfffffb8d
 b70:	72617500 	rsbvc	r7, r1, #0, 10
 b74:	61635f74 	smcvs	13812	; 0x35f4
 b78:	65675f6e 	strbvs	r5, [r7, #-3950]!	; 0xfffff092
 b7c:	61006374 	tstvs	r0, r4, ror r3
 b80:	705f7875 	subsvc	r7, pc, r5, ror r8	; <UNPREDICTABLE>
 b84:	70697265 	rsbvc	r7, r9, r5, ror #4
 b88:	75007368 	strvc	r7, [r0, #-872]	; 0xfffffc98
 b8c:	2e747261 	cdpcs	2, 7, cr7, cr4, cr1, {3}
 b90:	61750063 	cmnvs	r5, r3, rrx
 b94:	635f7472 	cmpvs	pc, #1912602624	; 0x72000000
 b98:	705f6e61 	subsvc	r6, pc, r1, ror #28
 b9c:	00637475 	rsbeq	r7, r3, r5, ror r4
 ba0:	72646461 	rsbvc	r6, r4, #1627389952	; 0x61000000
 ba4:	72617500 	rsbvc	r7, r1, #0, 10
 ba8:	78745f74 	ldmdavc	r4!, {r2, r4, r5, r6, r8, r9, sl, fp, ip, lr}^
 bac:	5f73695f 	svcpl	0x0073695f
 bb0:	74706d65 	ldrbtvc	r6, [r0], #-3429	; 0xfffff29b
 bb4:	61620079 	smcvs	8201	; 0x2009
 bb8:	61006475 	tstvs	r0, r5, ror r4
 bbc:	655f7875 	ldrbvs	r7, [pc, #-2165]	; 34f <__code_start__-0x7cb1>
 bc0:	6c62616e 	stfvse	f6, [r2], #-440	; 0xfffffe48
 bc4:	75007365 	strvc	r7, [r0, #-869]	; 0xfffffc9b
 bc8:	5f747261 	svcpl	0x00747261
 bcc:	63746567 	cmnvs	r4, #432013312	; 0x19c00000
 bd0:	746e6300 	strbtvc	r6, [lr], #-768	; 0xfffffd00
 bd4:	6175006c 	cmnvs	r5, ip, rrx
 bd8:	645f7472 	ldrbvs	r7, [pc], #-1138	; be0 <__code_start__-0x7420>
 bdc:	62617369 	rsbvs	r7, r1, #-1543503871	; 0xa4000001
 be0:	7500656c 	strvc	r6, [r0, #-1388]	; 0xfffffa94
 be4:	5f747261 	svcpl	0x00747261
 be8:	5f736168 	svcpl	0x00736168
 bec:	61746164 	cmnvs	r4, r4, ror #2
 bf0:	5f726f00 	svcpl	0x00726f00
 bf4:	32336e69 	eorscc	r6, r3, #1680	; 0x690
 bf8:	72637300 	rsbvc	r7, r3, #0, 6
 bfc:	68637461 	stmdavs	r3!, {r0, r5, r6, sl, ip, sp, lr}^
 c00:	72617500 	rsbvc	r7, r1, #0, 10
 c04:	6e610074 	mcrvs	0, 3, r0, cr1, cr4, {3}
 c08:	6e695f64 	cdpvs	15, 6, cr5, cr9, cr4, {3}
 c0c:	75003233 	strvc	r3, [r0, #-563]	; 0xfffffdcd
 c10:	5f747261 	svcpl	0x00747261
 c14:	63747570 	cmnvs	r4, #112, 10	; 0x1c000000
 c18:	74656700 	strbtvc	r6, [r5], #-1792	; 0xfffff900
 c1c:	69003233 	stmdbvs	r0, {r0, r1, r4, r5, r9, ip, sp}
 c20:	7265746e 	rsbvc	r7, r5, #1845493760	; 0x6e000000
 c24:	5f6c616e 	svcpl	0x006c616e
 c28:	63747570 	cmnvs	r4, #112, 10	; 0x1c000000
 c2c:	00726168 	rsbseq	r6, r2, r8, ror #2
 c30:	5f697072 	svcpl	0x00697072
 c34:	5f746573 	svcpl	0x00746573
 c38:	63747570 	cmnvs	r4, #112, 10	; 0x1c000000
 c3c:	6c2f2e00 	stcvs	14, cr2, [pc], #-0	; c44 <__code_start__-0x73bc>
 c40:	2f636269 	svccs	0x00636269
 c44:	63747570 	cmnvs	r4, #112, 10	; 0x1c000000
 c48:	2e726168 	rpwcssz	f6, f2, #0.0
 c4c:	70720063 	rsbsvc	r0, r2, r3, rrx
 c50:	65725f69 	ldrbvs	r5, [r2, #-3945]!	; 0xfffff097
 c54:	5f746573 	svcpl	0x00746573
 c58:	63747570 	cmnvs	r4, #112, 10	; 0x1c000000
 c5c:	73656400 	cmnvc	r5, #0, 8
 c60:	2f2e0074 	svccs	0x002e0074
 c64:	6362696c 	cmnvs	r2, #108, 18	; 0x1b0000
 c68:	7274732f 	rsbsvc	r7, r4, #-1140850688	; 0xbc000000
 c6c:	2e746163 	rpwcssz	f6, f4, f3
 c70:	2f2e0063 	svccs	0x002e0063
 c74:	6362696c 	cmnvs	r2, #108, 18	; 0x1b0000
 c78:	7274732f 	rsbsvc	r7, r4, #-1140850688	; 0xbc000000
 c7c:	2e706d63 	cdpcs	13, 7, cr6, cr0, cr3, {3}
 c80:	2f2e0063 	svccs	0x002e0063
 c84:	6362696c 	cmnvs	r2, #108, 18	; 0x1b0000
 c88:	7274732f 	rsbsvc	r7, r4, #-1140850688	; 0xbc000000
 c8c:	2e797063 	cdpcs	0, 7, cr7, cr9, cr3, {3}
 c90:	69730063 	ldmdbvs	r3!, {r0, r1, r5, r6}^
 c94:	745f657a 	ldrbvc	r6, [pc], #-1402	; c9c <__code_start__-0x7364>
 c98:	6c2f2e00 	stcvs	14, cr2, [pc], #-0	; ca0 <__code_start__-0x7360>
 c9c:	2f636269 	svccs	0x00636269
 ca0:	6e727473 	mrcvs	4, 3, r7, cr2, cr3, {3}
 ca4:	2e706d63 	cdpcs	13, 7, cr6, cr0, cr3, {3}
 ca8:	2f2e0063 	svccs	0x002e0063
 cac:	66617473 			; <UNDEFINED> instruction: 0x66617473
 cb0:	72732d66 	rsbsvc	r2, r3, #6528	; 0x1980
 cb4:	65642f63 	strbvs	r2, [r4, #-3939]!	; 0xfffff09d
 cb8:	6c756166 	ldfvse	f6, [r5], #-408	; 0xfffffe68
 cbc:	65722d74 	ldrbvs	r2, [r2, #-3444]!	; 0xfffff28c
 cc0:	746f6f62 	strbtvc	r6, [pc], #-3938	; cc8 <__code_start__-0x7338>
 cc4:	6c61632d 	stclvs	3, cr6, [r1], #-180	; 0xffffff4c
 cc8:	74756f6c 	ldrbtvc	r6, [r5], #-3948	; 0xfffff094
 ccc:	Address 0x0000000000000ccc is out of bounds.


Disassembly of section .debug_frame:

00000000 <.debug_frame>:
   0:	0000000c 	andeq	r0, r0, ip
   4:	ffffffff 			; <UNDEFINED> instruction: 0xffffffff
   8:	7c020001 	stcvc	0, cr0, [r2], {1}
   c:	000d0c0e 	andeq	r0, sp, lr, lsl #24
  10:	00000020 	andeq	r0, r0, r0, lsr #32
  14:	00000000 	andeq	r0, r0, r0
  18:	00008038 	andeq	r8, r0, r8, lsr r0
  1c:	00000048 	andeq	r0, r0, r8, asr #32
  20:	84100e42 	ldrhi	r0, [r0], #-3650	; 0xfffff1be
  24:	86038504 	strhi	r8, [r3], -r4, lsl #10
  28:	5a018e02 	bpl	63838 <__bss_end__+0x59a78>
  2c:	c4c5c6ce 	strbgt	ip, [r5], #1742	; 0x6ce
  30:	0000000e 	andeq	r0, r0, lr
  34:	0000000c 	andeq	r0, r0, ip
  38:	ffffffff 			; <UNDEFINED> instruction: 0xffffffff
  3c:	7c020001 	stcvc	0, cr0, [r2], {1}
  40:	000d0c0e 	andeq	r0, sp, lr, lsl #24
  44:	00000014 	andeq	r0, r0, r4, lsl r0
  48:	00000034 	andeq	r0, r0, r4, lsr r0
  4c:	00008080 	andeq	r8, r0, r0, lsl #1
  50:	00000038 	andeq	r0, r0, r8, lsr r0
  54:	8e040e42 	cdphi	14, 0, cr0, cr4, cr2, {2}
  58:	100e4401 	andne	r4, lr, r1, lsl #8
  5c:	0000000c 	andeq	r0, r0, ip
  60:	00000034 	andeq	r0, r0, r4, lsr r0
  64:	000080b8 	strheq	r8, [r0], -r8	; <UNPREDICTABLE>
  68:	00000008 	andeq	r0, r0, r8
  6c:	00000020 	andeq	r0, r0, r0, lsr #32
  70:	00000034 	andeq	r0, r0, r4, lsr r0
  74:	000080c0 	andeq	r8, r0, r0, asr #1
  78:	00000138 	andeq	r0, r0, r8, lsr r1
  7c:	8e040e42 	cdphi	14, 0, cr0, cr4, cr2, {2}
  80:	100e4401 	andne	r4, lr, r1, lsl #8
  84:	0e0a6a02 	vmlaeq.f32	s12, s20, s4
  88:	0ece4204 	cdpeq	2, 12, cr4, cr14, cr4, {0}
  8c:	000b4200 	andeq	r4, fp, r0, lsl #4
  90:	00000018 	andeq	r0, r0, r8, lsl r0
  94:	00000034 	andeq	r0, r0, r4, lsr r0
  98:	000081f8 	strdeq	r8, [r0], -r8	; <UNPREDICTABLE>
  9c:	00000030 	andeq	r0, r0, r0, lsr r0
  a0:	84080e42 	strhi	r0, [r8], #-3650	; 0xfffff1be
  a4:	4e018e02 	cdpmi	14, 0, cr8, cr1, cr2, {0}
  a8:	000ec4ce 	andeq	ip, lr, lr, asr #9
  ac:	0000000c 	andeq	r0, r0, ip
  b0:	ffffffff 			; <UNDEFINED> instruction: 0xffffffff
  b4:	7c020001 	stcvc	0, cr0, [r2], {1}
  b8:	000d0c0e 	andeq	r0, sp, lr, lsl #24
  bc:	0000001c 	andeq	r0, r0, ip, lsl r0
  c0:	000000ac 	andeq	r0, r0, ip, lsr #1
  c4:	00008228 	andeq	r8, r0, r8, lsr #4
  c8:	000000dc 	ldrdeq	r0, [r0], -ip
  cc:	84180e42 	ldrhi	r0, [r8], #-3650	; 0xfffff1be
  d0:	86058506 	strhi	r8, [r5], -r6, lsl #10
  d4:	88038704 	stmdahi	r3, {r2, r8, r9, sl, pc}
  d8:	00018e02 	andeq	r8, r1, r2, lsl #28
  dc:	00000014 	andeq	r0, r0, r4, lsl r0
  e0:	000000ac 	andeq	r0, r0, ip, lsr #1
  e4:	00008304 	andeq	r8, r0, r4, lsl #6
  e8:	00000028 	andeq	r0, r0, r8, lsr #32
  ec:	84080e44 	strhi	r0, [r8], #-3652	; 0xfffff1bc
  f0:	00018e02 	andeq	r8, r1, r2, lsl #28
  f4:	0000000c 	andeq	r0, r0, ip
  f8:	ffffffff 			; <UNDEFINED> instruction: 0xffffffff
  fc:	7c020001 	stcvc	0, cr0, [r2], {1}
 100:	000d0c0e 	andeq	r0, sp, lr, lsl #24
 104:	00000034 	andeq	r0, r0, r4, lsr r0
 108:	000000f4 	strdeq	r0, [r0], -r4
 10c:	0000832c 	andeq	r8, r0, ip, lsr #6
 110:	00000058 	andeq	r0, r0, r8, asr r0
 114:	80100e42 	andshi	r0, r0, r2, asr #28
 118:	82038104 	andhi	r8, r3, #1
 11c:	42018302 	andmi	r8, r1, #134217728	; 0x8000000
 120:	07841c0e 	streq	r1, [r4, lr, lsl #24]
 124:	058e0685 	streq	r0, [lr, #1669]	; 0x685
 128:	5c280e42 	stcpl	14, cr0, [r8], #-264	; 0xfffffef8
 12c:	ce421c0e 	cdpgt	12, 4, cr1, cr2, cr14, {0}
 130:	100ec4c5 	andne	ip, lr, r5, asr #9
 134:	c1c2c342 	bicgt	ip, r2, r2, asr #6
 138:	00000ec0 	andeq	r0, r0, r0, asr #29
 13c:	0000000c 	andeq	r0, r0, ip
 140:	ffffffff 			; <UNDEFINED> instruction: 0xffffffff
 144:	7c020001 	stcvc	0, cr0, [r2], {1}
 148:	000d0c0e 	andeq	r0, sp, lr, lsl #24
 14c:	00000014 	andeq	r0, r0, r4, lsl r0
 150:	0000013c 	andeq	r0, r0, ip, lsr r1
 154:	00008384 	andeq	r8, r0, r4, lsl #7
 158:	00000034 	andeq	r0, r0, r4, lsr r0
 15c:	84080e42 	strhi	r0, [r8], #-3650	; 0xfffff1be
 160:	00018e02 	andeq	r8, r1, r2, lsl #28
 164:	0000000c 	andeq	r0, r0, ip
 168:	ffffffff 			; <UNDEFINED> instruction: 0xffffffff
 16c:	7c020001 	stcvc	0, cr0, [r2], {1}
 170:	000d0c0e 	andeq	r0, sp, lr, lsl #24
 174:	0000000c 	andeq	r0, r0, ip
 178:	00000164 	andeq	r0, r0, r4, ror #2
 17c:	000083b8 			; <UNDEFINED> instruction: 0x000083b8
 180:	00000014 	andeq	r0, r0, r4, lsl r0
 184:	0000000c 	andeq	r0, r0, ip
 188:	00000164 	andeq	r0, r0, r4, ror #2
 18c:	000083cc 	andeq	r8, r0, ip, asr #7
 190:	00000024 	andeq	r0, r0, r4, lsr #32
 194:	0000000c 	andeq	r0, r0, ip
 198:	00000164 	andeq	r0, r0, r4, ror #2
 19c:	000083f0 	strdeq	r8, [r0], -r0
 1a0:	00000038 	andeq	r0, r0, r8, lsr r0
 1a4:	00000024 	andeq	r0, r0, r4, lsr #32
 1a8:	00000164 	andeq	r0, r0, r4, ror #2
 1ac:	00008428 	andeq	r8, r0, r8, lsr #8
 1b0:	000001b4 			; <UNDEFINED> instruction: 0x000001b4
 1b4:	84140e42 	ldrhi	r0, [r4], #-3650	; 0xfffff1be
 1b8:	86048505 	strhi	r8, [r4], -r5, lsl #10
 1bc:	8e028703 	cdphi	7, 0, cr8, cr2, cr3, {0}
 1c0:	600e4201 	andvs	r4, lr, r1, lsl #4
 1c4:	0e0a9a02 	vmlaeq.f32	s18, s20, s4
 1c8:	000b4214 	andeq	r4, fp, r4, lsl r2
 1cc:	00000014 	andeq	r0, r0, r4, lsl r0
 1d0:	00000164 	andeq	r0, r0, r4, ror #2
 1d4:	000085dc 	ldrdeq	r8, [r0], -ip
 1d8:	00000064 	andeq	r0, r0, r4, rrx
 1dc:	8e040e54 	mcrhi	14, 0, r0, cr4, cr4, {2}
 1e0:	100e4201 	andne	r4, lr, r1, lsl #4
 1e4:	0000002c 	andeq	r0, r0, ip, lsr #32
 1e8:	00000164 	andeq	r0, r0, r4, ror #2
 1ec:	00008640 	andeq	r8, r0, r0, asr #12
 1f0:	000004b8 			; <UNDEFINED> instruction: 0x000004b8
 1f4:	84240e42 	strthi	r0, [r4], #-3650	; 0xfffff1be
 1f8:	86088509 	strhi	r8, [r8], -r9, lsl #10
 1fc:	88068707 	stmdahi	r6, {r0, r1, r2, r8, r9, sl, pc}
 200:	8a048905 	bhi	12261c <__bss_end__+0x11885c>
 204:	8e028b03 	vmlahi.f64	d8, d2, d3
 208:	b80e4201 	stmdalt	lr, {r0, r9, lr}
 20c:	02380302 	eorseq	r0, r8, #134217728	; 0x8000000
 210:	0000240e 	andeq	r2, r0, lr, lsl #8
 214:	0000000c 	andeq	r0, r0, ip
 218:	ffffffff 			; <UNDEFINED> instruction: 0xffffffff
 21c:	7c020001 	stcvc	0, cr0, [r2], {1}
 220:	000d0c0e 	andeq	r0, sp, lr, lsl #24
 224:	0000000c 	andeq	r0, r0, ip
 228:	00000214 	andeq	r0, r0, r4, lsl r2
 22c:	00008af8 	strdeq	r8, [r0], -r8	; <UNPREDICTABLE>
 230:	00000010 	andeq	r0, r0, r0, lsl r0
 234:	0000000c 	andeq	r0, r0, ip
 238:	00000214 	andeq	r0, r0, r4, lsl r2
 23c:	00008b08 	andeq	r8, r0, r8, lsl #22
 240:	00000010 	andeq	r0, r0, r0, lsl r0
 244:	0000000c 	andeq	r0, r0, ip
 248:	ffffffff 			; <UNDEFINED> instruction: 0xffffffff
 24c:	7c020001 	stcvc	0, cr0, [r2], {1}
 250:	000d0c0e 	andeq	r0, sp, lr, lsl #24
 254:	00000014 	andeq	r0, r0, r4, lsl r0
 258:	00000244 	andeq	r0, r0, r4, asr #4
 25c:	00008b18 	andeq	r8, r0, r8, lsl fp
 260:	0000002c 	andeq	r0, r0, ip, lsr #32
 264:	84080e42 	strhi	r0, [r8], #-3650	; 0xfffff1be
 268:	00018e02 	andeq	r8, r1, r2, lsl #28
 26c:	0000000c 	andeq	r0, r0, ip
 270:	ffffffff 			; <UNDEFINED> instruction: 0xffffffff
 274:	7c020001 	stcvc	0, cr0, [r2], {1}
 278:	000d0c0e 	andeq	r0, sp, lr, lsl #24
 27c:	00000014 	andeq	r0, r0, r4, lsl r0
 280:	0000026c 	andeq	r0, r0, ip, ror #4
 284:	00008b44 	andeq	r8, r0, r4, asr #22
 288:	0000003c 	andeq	r0, r0, ip, lsr r0
 28c:	84080e42 	strhi	r0, [r8], #-3650	; 0xfffff1be
 290:	00018e02 	andeq	r8, r1, r2, lsl #28
 294:	0000000c 	andeq	r0, r0, ip
 298:	ffffffff 			; <UNDEFINED> instruction: 0xffffffff
 29c:	7c020001 	stcvc	0, cr0, [r2], {1}
 2a0:	000d0c0e 	andeq	r0, sp, lr, lsl #24
 2a4:	0000000c 	andeq	r0, r0, ip
 2a8:	00000294 	muleq	r0, r4, r2
 2ac:	00008b80 	andeq	r8, r0, r0, lsl #23
 2b0:	00000004 	andeq	r0, r0, r4
 2b4:	0000000c 	andeq	r0, r0, ip
 2b8:	ffffffff 			; <UNDEFINED> instruction: 0xffffffff
 2bc:	7c020001 	stcvc	0, cr0, [r2], {1}
 2c0:	000d0c0e 	andeq	r0, sp, lr, lsl #24
 2c4:	0000000c 	andeq	r0, r0, ip
 2c8:	000002b4 			; <UNDEFINED> instruction: 0x000002b4
 2cc:	00008b9c 	muleq	r0, ip, fp
 2d0:	00000018 	andeq	r0, r0, r8, lsl r0
 2d4:	0000000c 	andeq	r0, r0, ip
 2d8:	000002b4 			; <UNDEFINED> instruction: 0x000002b4
 2dc:	00008bb4 			; <UNDEFINED> instruction: 0x00008bb4
 2e0:	00000014 	andeq	r0, r0, r4, lsl r0
 2e4:	00000014 	andeq	r0, r0, r4, lsl r0
 2e8:	000002b4 			; <UNDEFINED> instruction: 0x000002b4
 2ec:	00008bc8 	andeq	r8, r0, r8, asr #23
 2f0:	00000054 	andeq	r0, r0, r4, asr r0
 2f4:	84080e42 	strhi	r0, [r8], #-3650	; 0xfffff1be
 2f8:	00018e02 	andeq	r8, r1, r2, lsl #28
 2fc:	0000000c 	andeq	r0, r0, ip
 300:	ffffffff 			; <UNDEFINED> instruction: 0xffffffff
 304:	7c020001 	stcvc	0, cr0, [r2], {1}
 308:	000d0c0e 	andeq	r0, sp, lr, lsl #24
 30c:	00000014 	andeq	r0, r0, r4, lsl r0
 310:	000002fc 	strdeq	r0, [r0], -ip
 314:	00008c1c 	andeq	r8, r0, ip, lsl ip
 318:	00000014 	andeq	r0, r0, r4, lsl r0
 31c:	84080e42 	strhi	r0, [r8], #-3650	; 0xfffff1be
 320:	00018e02 	andeq	r8, r1, r2, lsl #28
 324:	00000014 	andeq	r0, r0, r4, lsl r0
 328:	000002fc 	strdeq	r0, [r0], -ip
 32c:	00008c30 	andeq	r8, r0, r0, lsr ip
 330:	0000001c 	andeq	r0, r0, ip, lsl r0
 334:	84080e42 	strhi	r0, [r8], #-3650	; 0xfffff1be
 338:	00018e02 	andeq	r8, r1, r2, lsl #28
 33c:	00000018 	andeq	r0, r0, r8, lsl r0
 340:	000002fc 	strdeq	r0, [r0], -ip
 344:	00008c4c 	andeq	r8, r0, ip, asr #24
 348:	00000024 	andeq	r0, r0, r4, lsr #32
 34c:	84100e42 	ldrhi	r0, [r0], #-3650	; 0xfffff1be
 350:	86038504 	strhi	r8, [r3], -r4, lsl #10
 354:	00018e02 	andeq	r8, r1, r2, lsl #28
 358:	00000014 	andeq	r0, r0, r4, lsl r0
 35c:	000002fc 	strdeq	r0, [r0], -ip
 360:	00008c70 	andeq	r8, r0, r0, ror ip
 364:	00000018 	andeq	r0, r0, r8, lsl r0
 368:	84080e42 	strhi	r0, [r8], #-3650	; 0xfffff1be
 36c:	00018e02 	andeq	r8, r1, r2, lsl #28
 370:	00000014 	andeq	r0, r0, r4, lsl r0
 374:	000002fc 	strdeq	r0, [r0], -ip
 378:	00008c88 	andeq	r8, r0, r8, lsl #25
 37c:	00000018 	andeq	r0, r0, r8, lsl r0
 380:	84080e42 	strhi	r0, [r8], #-3650	; 0xfffff1be
 384:	00018e02 	andeq	r8, r1, r2, lsl #28
 388:	0000000c 	andeq	r0, r0, ip
 38c:	ffffffff 			; <UNDEFINED> instruction: 0xffffffff
 390:	7c020001 	stcvc	0, cr0, [r2], {1}
 394:	000d0c0e 	andeq	r0, sp, lr, lsl #24
 398:	00000018 	andeq	r0, r0, r8, lsl r0
 39c:	00000388 	andeq	r0, r0, r8, lsl #7
 3a0:	00008ca0 	andeq	r8, r0, r0, lsr #25
 3a4:	00000064 	andeq	r0, r0, r4, rrx
 3a8:	84100e46 	ldrhi	r0, [r0], #-3654	; 0xfffff1ba
 3ac:	86038504 	strhi	r8, [r3], -r4, lsl #10
 3b0:	00018e02 	andeq	r8, r1, r2, lsl #28
 3b4:	00000014 	andeq	r0, r0, r4, lsl r0
 3b8:	00000388 	andeq	r0, r0, r8, lsl #7
 3bc:	00008d04 	andeq	r8, r0, r4, lsl #26
 3c0:	00000010 	andeq	r0, r0, r0, lsl r0
 3c4:	84080e42 	strhi	r0, [r8], #-3650	; 0xfffff1be
 3c8:	00018e02 	andeq	r8, r1, r2, lsl #28
 3cc:	00000014 	andeq	r0, r0, r4, lsl r0
 3d0:	00000388 	andeq	r0, r0, r8, lsl #7
 3d4:	00008d14 	andeq	r8, r0, r4, lsl sp
 3d8:	00000024 	andeq	r0, r0, r4, lsr #32
 3dc:	84080e46 	strhi	r0, [r8], #-3654	; 0xfffff1ba
 3e0:	00018e02 	andeq	r8, r1, r2, lsl #28
 3e4:	00000014 	andeq	r0, r0, r4, lsl r0
 3e8:	00000388 	andeq	r0, r0, r8, lsl #7
 3ec:	00008d38 	andeq	r8, r0, r8, lsr sp
 3f0:	00000024 	andeq	r0, r0, r4, lsr #32
 3f4:	84080e46 	strhi	r0, [r8], #-3654	; 0xfffff1ba
 3f8:	00018e02 	andeq	r8, r1, r2, lsl #28
 3fc:	00000014 	andeq	r0, r0, r4, lsl r0
 400:	00000388 	andeq	r0, r0, r8, lsl #7
 404:	00008d5c 	andeq	r8, r0, ip, asr sp
 408:	00000010 	andeq	r0, r0, r0, lsl r0
 40c:	84080e42 	strhi	r0, [r8], #-3650	; 0xfffff1be
 410:	00018e02 	andeq	r8, r1, r2, lsl #28
 414:	00000014 	andeq	r0, r0, r4, lsl r0
 418:	00000388 	andeq	r0, r0, r8, lsl #7
 41c:	00008d6c 	andeq	r8, r0, ip, ror #26
 420:	0000001c 	andeq	r0, r0, ip, lsl r0
 424:	84080e42 	strhi	r0, [r8], #-3650	; 0xfffff1be
 428:	00018e02 	andeq	r8, r1, r2, lsl #28
 42c:	00000018 	andeq	r0, r0, r8, lsl r0
 430:	00000388 	andeq	r0, r0, r8, lsl #7
 434:	00008d88 	andeq	r8, r0, r8, lsl #27
 438:	00000034 	andeq	r0, r0, r4, lsr r0
 43c:	84080e46 	strhi	r0, [r8], #-3654	; 0xfffff1ba
 440:	4e018e02 	cdpmi	14, 0, cr8, cr1, cr2, {0}
 444:	cec4000e 	cdpgt	0, 12, cr0, cr4, cr14, {0}
 448:	0000000c 	andeq	r0, r0, ip
 44c:	ffffffff 			; <UNDEFINED> instruction: 0xffffffff
 450:	7c020001 	stcvc	0, cr0, [r2], {1}
 454:	000d0c0e 	andeq	r0, sp, lr, lsl #24
 458:	00000018 	andeq	r0, r0, r8, lsl r0
 45c:	00000448 	andeq	r0, r0, r8, asr #8
 460:	00008dbc 			; <UNDEFINED> instruction: 0x00008dbc
 464:	00000020 	andeq	r0, r0, r0, lsr #32
 468:	84100e42 	ldrhi	r0, [r0], #-3650	; 0xfffff1be
 46c:	86038504 	strhi	r8, [r3], -r4, lsl #10
 470:	00018e02 	andeq	r8, r1, r2, lsl #28
 474:	00000018 	andeq	r0, r0, r8, lsl r0
 478:	00000448 	andeq	r0, r0, r8, asr #8
 47c:	00008ddc 	ldrdeq	r8, [r0], -ip
 480:	00000020 	andeq	r0, r0, r0, lsr #32
 484:	84100e42 	ldrhi	r0, [r0], #-3650	; 0xfffff1be
 488:	86038504 	strhi	r8, [r3], -r4, lsl #10
 48c:	00018e02 	andeq	r8, r1, r2, lsl #28
 490:	00000014 	andeq	r0, r0, r4, lsl r0
 494:	00000448 	andeq	r0, r0, r8, asr #8
 498:	00008dfc 	strdeq	r8, [r0], -ip
 49c:	000000b0 	strheq	r0, [r0], -r0	; <UNPREDICTABLE>
 4a0:	84080e42 	strhi	r0, [r8], #-3650	; 0xfffff1be
 4a4:	00018e02 	andeq	r8, r1, r2, lsl #28
 4a8:	00000014 	andeq	r0, r0, r4, lsl r0
 4ac:	00000448 	andeq	r0, r0, r8, asr #8
 4b0:	00008eac 	andeq	r8, r0, ip, lsr #29
 4b4:	00000018 	andeq	r0, r0, r8, lsl r0
 4b8:	84080e42 	strhi	r0, [r8], #-3650	; 0xfffff1be
 4bc:	00018e02 	andeq	r8, r1, r2, lsl #28
 4c0:	00000014 	andeq	r0, r0, r4, lsl r0
 4c4:	00000448 	andeq	r0, r0, r8, asr #8
 4c8:	00008ec4 	andeq	r8, r0, r4, asr #29
 4cc:	00000020 	andeq	r0, r0, r0, lsr #32
 4d0:	84080e42 	strhi	r0, [r8], #-3650	; 0xfffff1be
 4d4:	00018e02 	andeq	r8, r1, r2, lsl #28
 4d8:	00000014 	andeq	r0, r0, r4, lsl r0
 4dc:	00000448 	andeq	r0, r0, r8, asr #8
 4e0:	00008ee4 	andeq	r8, r0, r4, ror #29
 4e4:	00000030 	andeq	r0, r0, r0, lsr r0
 4e8:	84080e42 	strhi	r0, [r8], #-3650	; 0xfffff1be
 4ec:	00018e02 	andeq	r8, r1, r2, lsl #28
 4f0:	00000014 	andeq	r0, r0, r4, lsl r0
 4f4:	00000448 	andeq	r0, r0, r8, asr #8
 4f8:	00008f14 	andeq	r8, r0, r4, lsl pc
 4fc:	00000030 	andeq	r0, r0, r0, lsr r0
 500:	84080e42 	strhi	r0, [r8], #-3650	; 0xfffff1be
 504:	00018e02 	andeq	r8, r1, r2, lsl #28
 508:	00000014 	andeq	r0, r0, r4, lsl r0
 50c:	00000448 	andeq	r0, r0, r8, asr #8
 510:	00008f44 	andeq	r8, r0, r4, asr #30
 514:	00000010 	andeq	r0, r0, r0, lsl r0
 518:	84080e42 	strhi	r0, [r8], #-3650	; 0xfffff1be
 51c:	00018e02 	andeq	r8, r1, r2, lsl #28
 520:	00000014 	andeq	r0, r0, r4, lsl r0
 524:	00000448 	andeq	r0, r0, r8, asr #8
 528:	00008f54 	andeq	r8, r0, r4, asr pc
 52c:	00000020 	andeq	r0, r0, r0, lsr #32
 530:	84080e42 	strhi	r0, [r8], #-3650	; 0xfffff1be
 534:	00018e02 	andeq	r8, r1, r2, lsl #28
 538:	00000014 	andeq	r0, r0, r4, lsl r0
 53c:	00000448 	andeq	r0, r0, r8, asr #8
 540:	00008f74 	andeq	r8, r0, r4, ror pc
 544:	00000014 	andeq	r0, r0, r4, lsl r0
 548:	84080e42 	strhi	r0, [r8], #-3650	; 0xfffff1be
 54c:	00018e02 	andeq	r8, r1, r2, lsl #28
 550:	00000014 	andeq	r0, r0, r4, lsl r0
 554:	00000448 	andeq	r0, r0, r8, asr #8
 558:	00008f88 	andeq	r8, r0, r8, lsl #31
 55c:	00000024 	andeq	r0, r0, r4, lsr #32
 560:	84080e42 	strhi	r0, [r8], #-3650	; 0xfffff1be
 564:	00018e02 	andeq	r8, r1, r2, lsl #28
 568:	0000000c 	andeq	r0, r0, ip
 56c:	ffffffff 			; <UNDEFINED> instruction: 0xffffffff
 570:	7c020001 	stcvc	0, cr0, [r2], {1}
 574:	000d0c0e 	andeq	r0, sp, lr, lsl #24
 578:	00000014 	andeq	r0, r0, r4, lsl r0
 57c:	00000568 	andeq	r0, r0, r8, ror #10
 580:	00008fac 	andeq	r8, r0, ip, lsr #31
 584:	00000014 	andeq	r0, r0, r4, lsl r0
 588:	84080e42 	strhi	r0, [r8], #-3650	; 0xfffff1be
 58c:	00018e02 	andeq	r8, r1, r2, lsl #28
 590:	0000000c 	andeq	r0, r0, ip
 594:	00000568 	andeq	r0, r0, r8, ror #10
 598:	00008fc0 	andeq	r8, r0, r0, asr #31
 59c:	00000018 	andeq	r0, r0, r8, lsl r0
 5a0:	0000000c 	andeq	r0, r0, ip
 5a4:	00000568 	andeq	r0, r0, r8, ror #10
 5a8:	00008fd8 	ldrdeq	r8, [r0], -r8	; <UNPREDICTABLE>
 5ac:	00000010 	andeq	r0, r0, r0, lsl r0
 5b0:	0000000c 	andeq	r0, r0, ip
 5b4:	ffffffff 			; <UNDEFINED> instruction: 0xffffffff
 5b8:	7c020001 	stcvc	0, cr0, [r2], {1}
 5bc:	000d0c0e 	andeq	r0, sp, lr, lsl #24
 5c0:	0000000c 	andeq	r0, r0, ip
 5c4:	000005b0 			; <UNDEFINED> instruction: 0x000005b0
 5c8:	00008fe8 	andeq	r8, r0, r8, ror #31
 5cc:	00000034 	andeq	r0, r0, r4, lsr r0
 5d0:	0000000c 	andeq	r0, r0, ip
 5d4:	ffffffff 			; <UNDEFINED> instruction: 0xffffffff
 5d8:	7c020001 	stcvc	0, cr0, [r2], {1}
 5dc:	000d0c0e 	andeq	r0, sp, lr, lsl #24
 5e0:	0000000c 	andeq	r0, r0, ip
 5e4:	000005d0 	ldrdeq	r0, [r0], -r0	; <UNPREDICTABLE>
 5e8:	0000901c 	andeq	r9, r0, ip, lsl r0
 5ec:	0000002c 	andeq	r0, r0, ip, lsr #32
 5f0:	0000000c 	andeq	r0, r0, ip
 5f4:	ffffffff 			; <UNDEFINED> instruction: 0xffffffff
 5f8:	7c020001 	stcvc	0, cr0, [r2], {1}
 5fc:	000d0c0e 	andeq	r0, sp, lr, lsl #24
 600:	0000000c 	andeq	r0, r0, ip
 604:	000005f0 	strdeq	r0, [r0], -r0	; <UNPREDICTABLE>
 608:	00009048 	andeq	r9, r0, r8, asr #32
 60c:	00000020 	andeq	r0, r0, r0, lsr #32
 610:	0000000c 	andeq	r0, r0, ip
 614:	ffffffff 			; <UNDEFINED> instruction: 0xffffffff
 618:	7c020001 	stcvc	0, cr0, [r2], {1}
 61c:	000d0c0e 	andeq	r0, sp, lr, lsl #24
 620:	0000000c 	andeq	r0, r0, ip
 624:	00000610 	andeq	r0, r0, r0, lsl r6
 628:	00009068 	andeq	r9, r0, r8, rrx
 62c:	0000002c 	andeq	r0, r0, ip, lsr #32
 630:	0000000c 	andeq	r0, r0, ip
 634:	ffffffff 			; <UNDEFINED> instruction: 0xffffffff
 638:	7c020001 	stcvc	0, cr0, [r2], {1}
 63c:	000d0c0e 	andeq	r0, sp, lr, lsl #24
 640:	0000000c 	andeq	r0, r0, ip
 644:	00000630 	andeq	r0, r0, r0, lsr r6
 648:	00009094 	muleq	r0, r4, r0
 64c:	00000004 	andeq	r0, r0, r4
