
tests/4-fft-test.elf:     file format elf32-littlearm


Disassembly of section .text:

00008000 <__code_start__>:
    8000:	e3a00013 	mov	r0, #19, 0
    8004:	e3800080 	orr	r0, r0, #128, 0	; 0x80
    8008:	e129f000 	msr	CPSR_fc, r0
    800c:	e3a01000 	mov	r1, #0, 0
    8010:	ee071f95 	mcr	15, 0, r1, cr7, cr5, {4}
    8014:	e3a0d302 	mov	sp, #134217728	; 0x8000000
    8018:	e3a0b000 	mov	fp, #0, 0
    801c:	eb00036a 	bl	8dcc <_cstart>
    8020:	eb00038a 	bl	8e50 <rpi_reboot>

00008024 <PUT32>:
    8024:	e5801000 	str	r1, [r0]
    8028:	e12fff1e 	bx	lr

0000802c <GET32>:
    802c:	e5900000 	ldr	r0, [r0]
    8030:	e12fff1e 	bx	lr

00008034 <BRANCHTO>:
    8034:	e12fff10 	bx	r0

00008038 <notmain>:
    8038:	e92d43f0 	push	{r4, r5, r6, r7, r8, r9, lr}
    803c:	e24dd044 	sub	sp, sp, #68, 0	; 0x44
    8040:	eb00034e 	bl	8d80 <enable_cache>
    8044:	e1a0c00d 	mov	ip, sp
    8048:	e59fe0f8 	ldr	lr, [pc, #248]	; 8148 <notmain+0x110>
    804c:	e28d5020 	add	r5, sp, #32, 0
    8050:	e8be000f 	ldm	lr!, {r0, r1, r2, r3}
    8054:	e8ac000f 	stmia	ip!, {r0, r1, r2, r3}
    8058:	e89e000f 	ldm	lr, {r0, r1, r2, r3}
    805c:	e88c000f 	stm	ip, {r0, r1, r2, r3}
    8060:	e3a02020 	mov	r2, #32, 0
    8064:	e3a01000 	mov	r1, #0, 0
    8068:	e28d0020 	add	r0, sp, #32, 0
    806c:	eb00014a 	bl	859c <memset>
    8070:	e59f00d4 	ldr	r0, [pc, #212]	; 814c <notmain+0x114>
    8074:	e1a08005 	mov	r8, r5
    8078:	eb00014d 	bl	85b4 <printk>
    807c:	e1a0600d 	mov	r6, sp
    8080:	e1a0700d 	mov	r7, sp
    8084:	e3a04000 	mov	r4, #0, 0
    8088:	e59f90c0 	ldr	r9, [pc, #192]	; 8150 <notmain+0x118>
    808c:	e1a01004 	mov	r1, r4
    8090:	e1a00009 	mov	r0, r9
    8094:	e0d830f2 	ldrsh	r3, [r8], #2
    8098:	e0d720f2 	ldrsh	r2, [r7], #2
    809c:	e2844001 	add	r4, r4, #1, 0
    80a0:	eb000143 	bl	85b4 <printk>
    80a4:	e3540010 	cmp	r4, #16, 0
    80a8:	1afffff7 	bne	808c <notmain+0x54>
    80ac:	e59f00a0 	ldr	r0, [pc, #160]	; 8154 <notmain+0x11c>
    80b0:	eb00013f 	bl	85b4 <printk>
    80b4:	e3a03000 	mov	r3, #0, 0
    80b8:	e3a02004 	mov	r2, #4, 0
    80bc:	e1a0000d 	mov	r0, sp
    80c0:	e28d1020 	add	r1, sp, #32, 0
    80c4:	eb000099 	bl	8330 <fft_fixed_cfft>
    80c8:	e1a0700d 	mov	r7, sp
    80cc:	e3a04000 	mov	r4, #0, 0
    80d0:	e59f9078 	ldr	r9, [pc, #120]	; 8150 <notmain+0x118>
    80d4:	e28d8020 	add	r8, sp, #32, 0
    80d8:	e1a01004 	mov	r1, r4
    80dc:	e1a00009 	mov	r0, r9
    80e0:	e0d830f2 	ldrsh	r3, [r8], #2
    80e4:	e0d720f2 	ldrsh	r2, [r7], #2
    80e8:	e2844001 	add	r4, r4, #1, 0
    80ec:	eb000130 	bl	85b4 <printk>
    80f0:	e3540010 	cmp	r4, #16, 0
    80f4:	1afffff7 	bne	80d8 <notmain+0xa0>
    80f8:	e59f0058 	ldr	r0, [pc, #88]	; 8158 <notmain+0x120>
    80fc:	eb00012c 	bl	85b4 <printk>
    8100:	e1a0000d 	mov	r0, sp
    8104:	e3a03001 	mov	r3, #1, 0
    8108:	e3a02004 	mov	r2, #4, 0
    810c:	e28d1020 	add	r1, sp, #32, 0
    8110:	eb000086 	bl	8330 <fft_fixed_cfft>
    8114:	e3a04000 	mov	r4, #0, 0
    8118:	e59f7030 	ldr	r7, [pc, #48]	; 8150 <notmain+0x118>
    811c:	e1a01004 	mov	r1, r4
    8120:	e1a00007 	mov	r0, r7
    8124:	e0d530f2 	ldrsh	r3, [r5], #2
    8128:	e0d620f2 	ldrsh	r2, [r6], #2
    812c:	e2844001 	add	r4, r4, #1, 0
    8130:	eb00011f 	bl	85b4 <printk>
    8134:	e3540010 	cmp	r4, #16, 0
    8138:	1afffff7 	bne	811c <notmain+0xe4>
    813c:	e59f0018 	ldr	r0, [pc, #24]	; 815c <notmain+0x124>
    8140:	eb00011b 	bl	85b4 <printk>
    8144:	eb000315 	bl	8da0 <clean_reboot>
    8148:	00009344 	andeq	r9, r0, r4, asr #6
    814c:	00009320 	andeq	r9, r0, r0, lsr #6
    8150:	00009324 	andeq	r9, r0, r4, lsr #6
    8154:	00009334 	andeq	r9, r0, r4, lsr r3
    8158:	0000933c 	andeq	r9, r0, ip, lsr r3
    815c:	0000957c 	andeq	r9, r0, ip, ror r5

00008160 <bits_set.part.0>:
    8160:	e52de004 	push	{lr}		; (str lr, [sp, #-4]!)
    8164:	e59f201c 	ldr	r2, [pc, #28]	; 8188 <bits_set.part.0+0x28>
    8168:	e24dd00c 	sub	sp, sp, #12, 0
    816c:	e3a03058 	mov	r3, #88, 0	; 0x58
    8170:	e59f1014 	ldr	r1, [pc, #20]	; 818c <bits_set.part.0+0x2c>
    8174:	e58d2000 	str	r2, [sp]
    8178:	e59f0010 	ldr	r0, [pc, #16]	; 8190 <bits_set.part.0+0x30>
    817c:	e59f2010 	ldr	r2, [pc, #16]	; 8194 <bits_set.part.0+0x34>
    8180:	eb00010b 	bl	85b4 <printk>
    8184:	eb000305 	bl	8da0 <clean_reboot>
    8188:	000093d0 	ldrdeq	r9, [r0], -r0
    818c:	00009364 	andeq	r9, r0, r4, ror #6
    8190:	000093bc 			; <UNDEFINED> instruction: 0x000093bc
    8194:	00009414 	andeq	r9, r0, r4, lsl r4

00008198 <CM_reg_value>:
    8198:	e380045a 	orr	r0, r0, #1509949440	; 0x5a000000
    819c:	e12fff1e 	bx	lr

000081a0 <i2s_init>:
    81a0:	e92d4010 	push	{r4, lr}
    81a4:	e59f0128 	ldr	r0, [pc, #296]	; 82d4 <i2s_init+0x134>
    81a8:	e24dd008 	sub	sp, sp, #8, 0
    81ac:	ebffff9e 	bl	802c <GET32>
    81b0:	e3100001 	tst	r0, #1, 0
    81b4:	1a00003e 	bne	82b4 <i2s_init+0x114>
    81b8:	e3a01004 	mov	r1, #4, 0
    81bc:	e3a00012 	mov	r0, #18, 0
    81c0:	eb000358 	bl	8f28 <gpio_set_function>
    81c4:	e3a01004 	mov	r1, #4, 0
    81c8:	e3a00013 	mov	r0, #19, 0
    81cc:	eb000355 	bl	8f28 <gpio_set_function>
    81d0:	e3a01004 	mov	r1, #4, 0
    81d4:	e3a00014 	mov	r0, #20, 0
    81d8:	eb000352 	bl	8f28 <gpio_set_function>
    81dc:	e3a00012 	mov	r0, #18, 0
    81e0:	eb00036d 	bl	8f9c <gpio_set_on>
    81e4:	e3a00013 	mov	r0, #19, 0
    81e8:	eb00036b 	bl	8f9c <gpio_set_on>
    81ec:	e3a00014 	mov	r0, #20, 0
    81f0:	eb000369 	bl	8f9c <gpio_set_on>
    81f4:	eb000304 	bl	8e0c <dev_barrier>
    81f8:	e59f00d8 	ldr	r0, [pc, #216]	; 82d8 <i2s_init+0x138>
    81fc:	ebffff8a 	bl	802c <GET32>
    8200:	e59f10d4 	ldr	r1, [pc, #212]	; 82dc <i2s_init+0x13c>
    8204:	e3c00c06 	bic	r0, r0, #1536	; 0x600
    8208:	e3c0000f 	bic	r0, r0, #15, 0
    820c:	e1801001 	orr	r1, r0, r1
    8210:	e59f00c0 	ldr	r0, [pc, #192]	; 82d8 <i2s_init+0x138>
    8214:	ebffff82 	bl	8024 <PUT32>
    8218:	e59f10c0 	ldr	r1, [pc, #192]	; 82e0 <i2s_init+0x140>
    821c:	e59f00c0 	ldr	r0, [pc, #192]	; 82e4 <i2s_init+0x144>
    8220:	ebffff7f 	bl	8024 <PUT32>
    8224:	e59f00ac 	ldr	r0, [pc, #172]	; 82d8 <i2s_init+0x138>
    8228:	ebffff7f 	bl	802c <GET32>
    822c:	e380145a 	orr	r1, r0, #1509949440	; 0x5a000000
    8230:	e3811010 	orr	r1, r1, #16, 0
    8234:	e59f009c 	ldr	r0, [pc, #156]	; 82d8 <i2s_init+0x138>
    8238:	ebffff79 	bl	8024 <PUT32>
    823c:	eb0002f2 	bl	8e0c <dev_barrier>
    8240:	e59f00a0 	ldr	r0, [pc, #160]	; 82e8 <i2s_init+0x148>
    8244:	ebffff78 	bl	802c <GET32>
    8248:	e1a01a20 	lsr	r1, r0, #20
    824c:	e1a01a01 	lsl	r1, r1, #20
    8250:	e3811b3f 	orr	r1, r1, #64512	; 0xfc00
    8254:	e3811020 	orr	r1, r1, #32, 0
    8258:	e59f0088 	ldr	r0, [pc, #136]	; 82e8 <i2s_init+0x148>
    825c:	ebffff70 	bl	8024 <PUT32>
    8260:	e59f0084 	ldr	r0, [pc, #132]	; 82ec <i2s_init+0x14c>
    8264:	ebffff70 	bl	802c <GET32>
    8268:	e3c0180f 	bic	r1, r0, #983040	; 0xf0000
    826c:	e3811103 	orr	r1, r1, #-1073741824	; 0xc0000000
    8270:	e3811702 	orr	r1, r1, #524288	; 0x80000
    8274:	e59f0070 	ldr	r0, [pc, #112]	; 82ec <i2s_init+0x14c>
    8278:	ebffff69 	bl	8024 <PUT32>
    827c:	e59f0050 	ldr	r0, [pc, #80]	; 82d4 <i2s_init+0x134>
    8280:	ebffff69 	bl	802c <GET32>
    8284:	e3801403 	orr	r1, r0, #50331648	; 0x3000000
    8288:	e3811013 	orr	r1, r1, #19, 0
    828c:	e59f0040 	ldr	r0, [pc, #64]	; 82d4 <i2s_init+0x134>
    8290:	ebffff63 	bl	8024 <PUT32>
    8294:	e59f4038 	ldr	r4, [pc, #56]	; 82d4 <i2s_init+0x134>
    8298:	e1a00004 	mov	r0, r4
    829c:	ebffff62 	bl	802c <GET32>
    82a0:	e3100401 	tst	r0, #16777216	; 0x1000000
    82a4:	0afffffb 	beq	8298 <i2s_init+0xf8>
    82a8:	e28dd008 	add	sp, sp, #8, 0
    82ac:	e8bd4010 	pop	{r4, lr}
    82b0:	ea0002d5 	b	8e0c <dev_barrier>
    82b4:	e59f2034 	ldr	r2, [pc, #52]	; 82f0 <i2s_init+0x150>
    82b8:	e3a0301d 	mov	r3, #29, 0
    82bc:	e59f1030 	ldr	r1, [pc, #48]	; 82f4 <i2s_init+0x154>
    82c0:	e58d2000 	str	r2, [sp]
    82c4:	e59f002c 	ldr	r0, [pc, #44]	; 82f8 <i2s_init+0x158>
    82c8:	e59f202c 	ldr	r2, [pc, #44]	; 82fc <i2s_init+0x15c>
    82cc:	eb0000b8 	bl	85b4 <printk>
    82d0:	eb0002b2 	bl	8da0 <clean_reboot>
    82d4:	20203000 	eorcs	r3, r0, r0
    82d8:	20101098 	mulscs	r0, r8, r0
    82dc:	5a000601 	bpl	9ae8 <FFT_SINE_LUT+0x4b8>
    82e0:	5a006cd8 	bpl	23648 <__bss_end__+0x19610>
    82e4:	2010109c 	mulscs	r0, ip, r0
    82e8:	20203008 	eorcs	r3, r0, r8
    82ec:	2020300c 	eorcs	r3, r0, ip
    82f0:	000093f0 	strdeq	r9, [r0], -r0
    82f4:	000093e8 	andeq	r9, r0, r8, ror #7
    82f8:	000093bc 			; <UNDEFINED> instruction: 0x000093bc
    82fc:	00009420 	andeq	r9, r0, r0, lsr #8

00008300 <i2s_read_sample>:
    8300:	e92d4010 	push	{r4, lr}
    8304:	eb0002c0 	bl	8e0c <dev_barrier>
    8308:	e59f4018 	ldr	r4, [pc, #24]	; 8328 <i2s_read_sample+0x28>
    830c:	e1a00004 	mov	r0, r4
    8310:	ebffff45 	bl	802c <GET32>
    8314:	e3100601 	tst	r0, #1048576	; 0x100000
    8318:	0afffffb 	beq	830c <i2s_read_sample+0xc>
    831c:	e8bd4010 	pop	{r4, lr}
    8320:	e59f0004 	ldr	r0, [pc, #4]	; 832c <i2s_read_sample+0x2c>
    8324:	eaffff40 	b	802c <GET32>
    8328:	20203000 	eorcs	r3, r0, r0
    832c:	20203004 	eorcs	r3, r0, r4

00008330 <fft_fixed_cfft>:
    8330:	e3a0c001 	mov	ip, #1, 0
    8334:	e92d4ff0 	push	{r4, r5, r6, r7, r8, r9, sl, fp, lr}
    8338:	e1a0421c 	lsl	r4, ip, r2
    833c:	e24dd024 	sub	sp, sp, #36, 0	; 0x24
    8340:	e3540b01 	cmp	r4, #1024	; 0x400
    8344:	e58d3010 	str	r3, [sp, #16]
    8348:	8a000080 	bhi	8550 <fft_fixed_cfft+0x220>
    834c:	e154000c 	cmp	r4, ip
    8350:	9a00007b 	bls	8544 <fft_fixed_cfft+0x214>
    8354:	e1a07000 	mov	r7, r0
    8358:	e1a06001 	mov	r6, r1
    835c:	e3a01000 	mov	r1, #0, 0
    8360:	e1a0500c 	mov	r5, ip
    8364:	e2440001 	sub	r0, r4, #1, 0
    8368:	e287e002 	add	lr, r7, #2, 0
    836c:	e286c002 	add	ip, r6, #2, 0
    8370:	e1a03004 	mov	r3, r4
    8374:	e1a030a3 	lsr	r3, r3, #1
    8378:	e0832001 	add	r2, r3, r1
    837c:	e1520000 	cmp	r2, r0
    8380:	8afffffb 	bhi	8374 <fft_fixed_cfft+0x44>
    8384:	e2432001 	sub	r2, r3, #1, 0
    8388:	e0011002 	and	r1, r1, r2
    838c:	e0811003 	add	r1, r1, r3
    8390:	e1510005 	cmp	r1, r5
    8394:	9a000008 	bls	83bc <fft_fixed_cfft+0x8c>
    8398:	e1a03081 	lsl	r3, r1, #1
    839c:	e19780f3 	ldrsh	r8, [r7, r3]
    83a0:	e1de20f0 	ldrsh	r2, [lr]
    83a4:	e1ce80b0 	strh	r8, [lr]
    83a8:	e18720b3 	strh	r2, [r7, r3]
    83ac:	e1dc20f0 	ldrsh	r2, [ip]
    83b0:	e19680f3 	ldrsh	r8, [r6, r3]
    83b4:	e1cc80b0 	strh	r8, [ip]
    83b8:	e18620b3 	strh	r2, [r6, r3]
    83bc:	e2855001 	add	r5, r5, #1, 0
    83c0:	e1540005 	cmp	r4, r5
    83c4:	e28ee002 	add	lr, lr, #2, 0
    83c8:	e28cc002 	add	ip, ip, #2, 0
    83cc:	1affffe7 	bne	8370 <fft_fixed_cfft+0x40>
    83d0:	e3a03001 	mov	r3, #1, 0
    83d4:	e1a0a006 	mov	sl, r6
    83d8:	e58d5008 	str	r5, [sp, #8]
    83dc:	e58d3004 	str	r3, [sp, #4]
    83e0:	e59d2004 	ldr	r2, [sp, #4]
    83e4:	e59d1008 	ldr	r1, [sp, #8]
    83e8:	e1a03002 	mov	r3, r2
    83ec:	e1510003 	cmp	r1, r3
    83f0:	21a01003 	movcs	r1, r3
    83f4:	e1a03103 	lsl	r3, r3, #2
    83f8:	e58d300c 	str	r3, [sp, #12]
    83fc:	e3a03000 	mov	r3, #0, 0
    8400:	e1a0900a 	mov	r9, sl
    8404:	e1a0a007 	mov	sl, r7
    8408:	e1a02082 	lsl	r2, r2, #1
    840c:	e58d2004 	str	r2, [sp, #4]
    8410:	e58d101c 	str	r1, [sp, #28]
    8414:	e58d2018 	str	r2, [sp, #24]
    8418:	e58d3014 	str	r3, [sp, #20]
    841c:	e1a06009 	mov	r6, r9
    8420:	e59d7018 	ldr	r7, [sp, #24]
    8424:	e59db014 	ldr	fp, [sp, #20]
    8428:	e1620180 	smulbb	r2, r0, r1
    842c:	eb00027a 	bl	8e1c <dsb>
    8430:	e1a00002 	mov	r0, r2
    8434:	e1a05744 	asr	r5, r4, #14
    8438:	e2055001 	and	r5, r5, #1, 0
    843c:	e08557c4 	add	r5, r5, r4, asr #15
    8440:	e6ff5075 	uxth	r5, r5
    8444:	e1620180 	smulbb	r2, r0, r1
    8448:	eb000273 	bl	8e1c <dsb>
    844c:	e1a00002 	mov	r0, r2
    8450:	e1a04743 	asr	r4, r3, #14
    8454:	e2044001 	and	r4, r4, #1, 0
    8458:	e08447c3 	add	r4, r4, r3, asr #15
    845c:	e6ff4074 	uxth	r4, r4
    8460:	e0459004 	sub	r9, r5, r4
    8464:	e6ff9079 	uxth	r9, r9
    8468:	e1620180 	smulbb	r2, r0, r1
    846c:	eb00026a 	bl	8e1c <dsb>
    8470:	e1a00002 	mov	r0, r2
    8474:	e1620180 	smulbb	r2, r0, r1
    8478:	eb000267 	bl	8e1c <dsb>
    847c:	e1a00002 	mov	r0, r2
    8480:	e1a037c8 	asr	r3, r8, #15
    8484:	e08337c0 	add	r3, r3, r0, asr #15
    8488:	e1a02888 	lsl	r2, r8, #17
    848c:	e1a0c08b 	lsl	ip, fp, #1
    8490:	e0833fa2 	add	r3, r3, r2, lsr #31
    8494:	e1a00880 	lsl	r0, r0, #17
    8498:	e59d2010 	ldr	r2, [sp, #16]
    849c:	e0833fa0 	add	r3, r3, r0, lsr #31
    84a0:	e19600fc 	ldrsh	r0, [r6, ip]
    84a4:	e3520000 	cmp	r2, #0, 0
    84a8:	e19a20fc 	ldrsh	r2, [sl, ip]
    84ac:	00800fa0 	addeq	r0, r0, r0, lsr #31
    84b0:	e59d1004 	ldr	r1, [sp, #4]
    84b4:	00822fa2 	addeq	r2, r2, r2, lsr #31
    84b8:	01a000c0 	asreq	r0, r0, #1
    84bc:	e6ff3073 	uxth	r3, r3
    84c0:	01a020c2 	asreq	r2, r2, #1
    84c4:	e6ff0070 	uxth	r0, r0
    84c8:	e08bb001 	add	fp, fp, r1
    84cc:	e59d1008 	ldr	r1, [sp, #8]
    84d0:	e040e003 	sub	lr, r0, r3
    84d4:	e6ff2072 	uxth	r2, r2
    84d8:	e0830000 	add	r0, r3, r0
    84dc:	e0444005 	sub	r4, r4, r5
    84e0:	e59d300c 	ldr	r3, [sp, #12]
    84e4:	e0824004 	add	r4, r2, r4
    84e8:	e15b0001 	cmp	fp, r1
    84ec:	e0892002 	add	r2, r9, r2
    84f0:	e18a40b7 	strh	r4, [sl, r7]
    84f4:	e186e0b7 	strh	lr, [r6, r7]
    84f8:	e18a20bc 	strh	r2, [sl, ip]
    84fc:	e0877003 	add	r7, r7, r3
    8500:	e18600bc 	strh	r0, [r6, ip]
    8504:	3affffc7 	bcc	8428 <fft_fixed_cfft+0xf8>
    8508:	e59d3014 	ldr	r3, [sp, #20]
    850c:	e59d201c 	ldr	r2, [sp, #28]
    8510:	e2833001 	add	r3, r3, #1, 0
    8514:	e58d3014 	str	r3, [sp, #20]
    8518:	e1530002 	cmp	r3, r2
    851c:	e59d3018 	ldr	r3, [sp, #24]
    8520:	e1a09006 	mov	r9, r6
    8524:	e2833002 	add	r3, r3, #2, 0
    8528:	e58d3018 	str	r3, [sp, #24]
    852c:	3affffba 	bcc	841c <fft_fixed_cfft+0xec>
    8530:	e59d3004 	ldr	r3, [sp, #4]
    8534:	e1a0700a 	mov	r7, sl
    8538:	e1530001 	cmp	r3, r1
    853c:	e1a0a006 	mov	sl, r6
    8540:	3affffa6 	bcc	83e0 <fft_fixed_cfft+0xb0>
    8544:	e3a00000 	mov	r0, #0, 0
    8548:	e28dd024 	add	sp, sp, #36, 0	; 0x24
    854c:	e8bd8ff0 	pop	{r4, r5, r6, r7, r8, r9, sl, fp, pc}
    8550:	e3a0300f 	mov	r3, #15, 0
    8554:	e59f200c 	ldr	r2, [pc, #12]	; 8568 <fft_fixed_cfft+0x238>
    8558:	e59f100c 	ldr	r1, [pc, #12]	; 856c <fft_fixed_cfft+0x23c>
    855c:	e59f000c 	ldr	r0, [pc, #12]	; 8570 <fft_fixed_cfft+0x240>
    8560:	eb000013 	bl	85b4 <printk>
    8564:	eb00020d 	bl	8da0 <clean_reboot>
    8568:	00009494 	muleq	r0, r4, r4
    856c:	0000942c 	andeq	r9, r0, ip, lsr #8
    8570:	00009434 	andeq	r9, r0, r4, lsr r4

00008574 <fft_fixed_rfft>:
    8574:	e3a0306a 	mov	r3, #106, 0	; 0x6a
    8578:	e92d4010 	push	{r4, lr}
    857c:	e59f200c 	ldr	r2, [pc, #12]	; 8590 <fft_fixed_rfft+0x1c>
    8580:	e59f100c 	ldr	r1, [pc, #12]	; 8594 <fft_fixed_rfft+0x20>
    8584:	e59f000c 	ldr	r0, [pc, #12]	; 8598 <fft_fixed_rfft+0x24>
    8588:	eb000009 	bl	85b4 <printk>
    858c:	eb000203 	bl	8da0 <clean_reboot>
    8590:	000094a4 	andeq	r9, r0, r4, lsr #9
    8594:	0000942c 	andeq	r9, r0, ip, lsr #8
    8598:	00009464 	andeq	r9, r0, r4, ror #8

0000859c <memset>:
    859c:	e0802002 	add	r2, r0, r2
    85a0:	e1a03000 	mov	r3, r0
    85a4:	e1530002 	cmp	r3, r2
    85a8:	212fff1e 	bxcs	lr
    85ac:	e4c31001 	strb	r1, [r3], #1
    85b0:	eafffffb 	b	85a4 <memset+0x8>

000085b4 <printk>:
    85b4:	e92d000f 	push	{r0, r1, r2, r3}
    85b8:	e92d4030 	push	{r4, r5, lr}
    85bc:	e24dd00c 	sub	sp, sp, #12, 0
    85c0:	e28d301c 	add	r3, sp, #28, 0
    85c4:	e58d3004 	str	r3, [sp, #4]
    85c8:	e59f5034 	ldr	r5, [pc, #52]	; 8604 <printk+0x50>
    85cc:	e59d2018 	ldr	r2, [sp, #24]
    85d0:	e3a01b01 	mov	r1, #1024	; 0x400
    85d4:	e1a00005 	mov	r0, r5
    85d8:	eb0000ba 	bl	88c8 <va_printk>
    85dc:	e1a04000 	mov	r4, r0
    85e0:	e59f3020 	ldr	r3, [pc, #32]	; 8608 <printk+0x54>
    85e4:	e5933000 	ldr	r3, [r3]
    85e8:	e1a00005 	mov	r0, r5
    85ec:	e12fff33 	blx	r3
    85f0:	e1a00004 	mov	r0, r4
    85f4:	e28dd00c 	add	sp, sp, #12, 0
    85f8:	e8bd4030 	pop	{r4, r5, lr}
    85fc:	e28dd010 	add	sp, sp, #16, 0
    8600:	e12fff1e 	bx	lr
    8604:	00009c38 	andeq	r9, r0, r8, lsr ip
    8608:	00009c30 	andeq	r9, r0, r0, lsr ip

0000860c <internal_putk>:
    860c:	e92d4010 	push	{r4, lr}
    8610:	e1a04000 	mov	r4, r0
    8614:	e5d40000 	ldrb	r0, [r4]
    8618:	e3500000 	cmp	r0, #0, 0
    861c:	0a000004 	beq	8634 <internal_putk+0x28>
    8620:	e59f3014 	ldr	r3, [pc, #20]	; 863c <internal_putk+0x30>
    8624:	e5933000 	ldr	r3, [r3]
    8628:	e12fff33 	blx	r3
    862c:	e2844001 	add	r4, r4, #1, 0
    8630:	eafffff7 	b	8614 <internal_putk+0x8>
    8634:	e3a00001 	mov	r0, #1, 0
    8638:	e8bd8010 	pop	{r4, pc}
    863c:	00009c34 	andeq	r9, r0, r4, lsr ip

00008640 <isdigit>:
    8640:	e2400030 	sub	r0, r0, #48, 0	; 0x30
    8644:	e3500009 	cmp	r0, #9, 0
    8648:	83a00000 	movhi	r0, #0, 0
    864c:	93a00001 	movls	r0, #1, 0
    8650:	e12fff1e 	bx	lr

00008654 <pad>:
    8654:	e0401001 	sub	r1, r0, r1
    8658:	e1510002 	cmp	r1, r2
    865c:	b3a03020 	movlt	r3, #32, 0
    8660:	b4c03001 	strblt	r3, [r0], #1
    8664:	b2811001 	addlt	r1, r1, #1, 0
    8668:	bafffffa 	blt	8658 <pad+0x4>
    866c:	e3a03000 	mov	r3, #0, 0
    8670:	e5c03000 	strb	r3, [r0]
    8674:	e12fff1e 	bx	lr

00008678 <reverse>:
    8678:	e042c003 	sub	ip, r2, r3
    867c:	e28cc001 	add	ip, ip, #1, 0
    8680:	e15c0001 	cmp	ip, r1
    8684:	c04cc001 	subgt	ip, ip, r1
    8688:	c083300c 	addgt	r3, r3, ip
    868c:	e2421001 	sub	r1, r2, #1, 0
    8690:	e1a02000 	mov	r2, r0
    8694:	e1510003 	cmp	r1, r3
    8698:	2451c001 	ldrbcs	ip, [r1], #-1
    869c:	24c2c001 	strbcs	ip, [r2], #1
    86a0:	2afffffb 	bcs	8694 <reverse+0x1c>
    86a4:	e3a03000 	mov	r3, #0, 0
    86a8:	e5c23000 	strb	r3, [r2]
    86ac:	e12fff1e 	bx	lr

000086b0 <emit>:
    86b0:	e92d40f0 	push	{r4, r5, r6, r7, lr}
    86b4:	e24dd04c 	sub	sp, sp, #76, 0	; 0x4c
    86b8:	e1a05001 	mov	r5, r1
    86bc:	e1a04002 	mov	r4, r2
    86c0:	e59d2060 	ldr	r2, [sp, #96]	; 0x60
    86c4:	e1520004 	cmp	r2, r4
    86c8:	c2442001 	subgt	r2, r4, #1, 0
    86cc:	e1a0c003 	mov	ip, r3
    86d0:	e2400002 	sub	r0, r0, #2, 0
    86d4:	e350000e 	cmp	r0, #14, 0
    86d8:	979ff100 	ldrls	pc, [pc, r0, lsl #2]
    86dc:	ea000050 	b	8824 <emit+0x174>
    86e0:	000087fc 	strdeq	r8, [r0], -ip
    86e4:	00008824 	andeq	r8, r0, r4, lsr #16
    86e8:	00008824 	andeq	r8, r0, r4, lsr #16
    86ec:	00008824 	andeq	r8, r0, r4, lsr #16
    86f0:	00008824 	andeq	r8, r0, r4, lsr #16
    86f4:	00008824 	andeq	r8, r0, r4, lsr #16
    86f8:	000087f0 	strdeq	r8, [r0], -r0
    86fc:	00008824 	andeq	r8, r0, r4, lsr #16
    8700:	0000871c 	andeq	r8, r0, ip, lsl r7
    8704:	00008824 	andeq	r8, r0, r4, lsr #16
    8708:	00008824 	andeq	r8, r0, r4, lsr #16
    870c:	00008824 	andeq	r8, r0, r4, lsr #16
    8710:	00008824 	andeq	r8, r0, r4, lsr #16
    8714:	00008824 	andeq	r8, r0, r4, lsr #16
    8718:	00008794 	muleq	r0, r4, r7
    871c:	e59d1064 	ldr	r1, [sp, #100]	; 0x64
    8720:	e2511000 	subs	r1, r1, #0, 0
    8724:	13a01001 	movne	r1, #1, 0
    8728:	e0111fa3 	ands	r1, r1, r3, lsr #31
    872c:	0a000016 	beq	878c <emit+0xdc>
    8730:	e263c000 	rsb	ip, r3, #0, 0
    8734:	e3a06001 	mov	r6, #1, 0
    8738:	e28d0008 	add	r0, sp, #8, 0
    873c:	e59f3100 	ldr	r3, [pc, #256]	; 8844 <emit+0x194>
    8740:	e0831c93 	umull	r1, r3, r3, ip
    8744:	e1a031a3 	lsr	r3, r3, #3
    8748:	e1a0e003 	mov	lr, r3
    874c:	e0833103 	add	r3, r3, r3, lsl #2
    8750:	e04c3083 	sub	r3, ip, r3, lsl #1
    8754:	e1a01000 	mov	r1, r0
    8758:	e2800001 	add	r0, r0, #1, 0
    875c:	e59f70e4 	ldr	r7, [pc, #228]	; 8848 <emit+0x198>
    8760:	e7d73003 	ldrb	r3, [r7, r3]
    8764:	e5c13000 	strb	r3, [r1]
    8768:	e1a0300c 	mov	r3, ip
    876c:	e1a0c00e 	mov	ip, lr
    8770:	e3530009 	cmp	r3, #9, 0
    8774:	8afffff0 	bhi	873c <emit+0x8c>
    8778:	e3560000 	cmp	r6, #0, 0
    877c:	13a0302d 	movne	r3, #45, 0	; 0x2d
    8780:	15c03000 	strbne	r3, [r0]
    8784:	12810002 	addne	r0, r1, #2, 0
    8788:	ea00000f 	b	87cc <emit+0x11c>
    878c:	e3a06000 	mov	r6, #0, 0
    8790:	eaffffe8 	b	8738 <emit+0x88>
    8794:	e28d1008 	add	r1, sp, #8, 0
    8798:	e20c000f 	and	r0, ip, #15, 0
    879c:	e59fe0a8 	ldr	lr, [pc, #168]	; 884c <emit+0x19c>
    87a0:	e7de0000 	ldrb	r0, [lr, r0]
    87a4:	e5c10000 	strb	r0, [r1]
    87a8:	e2811001 	add	r1, r1, #1, 0
    87ac:	e35c000f 	cmp	ip, #15, 0
    87b0:	e1a0c22c 	lsr	ip, ip, #4
    87b4:	8afffff7 	bhi	8798 <emit+0xe8>
    87b8:	e1a00001 	mov	r0, r1
    87bc:	e3a03078 	mov	r3, #120, 0	; 0x78
    87c0:	e4c03002 	strb	r3, [r0], #2
    87c4:	e3a03030 	mov	r3, #48, 0	; 0x30
    87c8:	e5c13001 	strb	r3, [r1, #1]
    87cc:	e28d1008 	add	r1, sp, #8, 0
    87d0:	ebffff9f 	bl	8654 <pad>
    87d4:	e1a02000 	mov	r2, r0
    87d8:	e28d3008 	add	r3, sp, #8, 0
    87dc:	e1a01004 	mov	r1, r4
    87e0:	e1a00005 	mov	r0, r5
    87e4:	ebffffa3 	bl	8678 <reverse>
    87e8:	e28dd04c 	add	sp, sp, #76, 0	; 0x4c
    87ec:	e8bd80f0 	pop	{r4, r5, r6, r7, pc}
    87f0:	e5cd3008 	strb	r3, [sp, #8]
    87f4:	e28d0009 	add	r0, sp, #9, 0
    87f8:	eafffff3 	b	87cc <emit+0x11c>
    87fc:	e28d0008 	add	r0, sp, #8, 0
    8800:	e20c1001 	and	r1, ip, #1, 0
    8804:	e59fe044 	ldr	lr, [pc, #68]	; 8850 <emit+0x1a0>
    8808:	e7de1001 	ldrb	r1, [lr, r1]
    880c:	e5c01000 	strb	r1, [r0]
    8810:	e2800001 	add	r0, r0, #1, 0
    8814:	e35c0001 	cmp	ip, #1, 0
    8818:	e1a0c0ac 	lsr	ip, ip, #1
    881c:	8afffff7 	bhi	8800 <emit+0x150>
    8820:	eaffffe9 	b	87cc <emit+0x11c>
    8824:	e59f3028 	ldr	r3, [pc, #40]	; 8854 <emit+0x1a4>
    8828:	e58d3000 	str	r3, [sp]
    882c:	e3a03079 	mov	r3, #121, 0	; 0x79
    8830:	e59f2020 	ldr	r2, [pc, #32]	; 8858 <emit+0x1a8>
    8834:	e59f1020 	ldr	r1, [pc, #32]	; 885c <emit+0x1ac>
    8838:	e59f0020 	ldr	r0, [pc, #32]	; 8860 <emit+0x1b0>
    883c:	ebffff5c 	bl	85b4 <printk>
    8840:	eb000156 	bl	8da0 <clean_reboot>
    8844:	cccccccd 	stclgt	12, cr12, [ip], {205}	; 0xcd
    8848:	000094cc 	andeq	r9, r0, ip, asr #9
    884c:	000094d8 	ldrdeq	r9, [r0], -r8
    8850:	000094ec 	andeq	r9, r0, ip, ror #9
    8854:	000094c8 	andeq	r9, r0, r8, asr #9
    8858:	000095f8 	strdeq	r9, [r0], -r8
    885c:	000094b4 			; <UNDEFINED> instruction: 0x000094b4
    8860:	000093bc 			; <UNDEFINED> instruction: 0x000093bc

00008864 <rpi_set_output>:
    8864:	e3500000 	cmp	r0, #0, 0
    8868:	0a000006 	beq	8888 <rpi_set_output+0x24>
    886c:	e59f303c 	ldr	r3, [pc, #60]	; 88b0 <rpi_set_output+0x4c>
    8870:	e5830000 	str	r0, [r3]
    8874:	e3510000 	cmp	r1, #0, 0
    8878:	012fff1e 	bxeq	lr
    887c:	e59f3030 	ldr	r3, [pc, #48]	; 88b4 <rpi_set_output+0x50>
    8880:	e5831000 	str	r1, [r3]
    8884:	e12fff1e 	bx	lr
    8888:	e52de004 	push	{lr}		; (str lr, [sp, #-4]!)
    888c:	e24dd00c 	sub	sp, sp, #12, 0
    8890:	e59f3020 	ldr	r3, [pc, #32]	; 88b8 <rpi_set_output+0x54>
    8894:	e58d3000 	str	r3, [sp]
    8898:	e3a03020 	mov	r3, #32, 0
    889c:	e59f2018 	ldr	r2, [pc, #24]	; 88bc <rpi_set_output+0x58>
    88a0:	e59f1018 	ldr	r1, [pc, #24]	; 88c0 <rpi_set_output+0x5c>
    88a4:	e59f0018 	ldr	r0, [pc, #24]	; 88c4 <rpi_set_output+0x60>
    88a8:	ebffff41 	bl	85b4 <printk>
    88ac:	eb00013b 	bl	8da0 <clean_reboot>
    88b0:	00009c34 	andeq	r9, r0, r4, lsr ip
    88b4:	00009c30 	andeq	r9, r0, r0, lsr ip
    88b8:	000094f0 	strdeq	r9, [r0], -r0
    88bc:	00009600 	andeq	r9, r0, r0, lsl #12
    88c0:	000094b4 			; <UNDEFINED> instruction: 0x000094b4
    88c4:	000093bc 			; <UNDEFINED> instruction: 0x000093bc

000088c8 <va_printk>:
    88c8:	e92d4ff0 	push	{r4, r5, r6, r7, r8, r9, sl, fp, lr}
    88cc:	e24ddf45 	sub	sp, sp, #276	; 0x114
    88d0:	e1a09000 	mov	r9, r0
    88d4:	e58d2008 	str	r2, [sp, #8]
    88d8:	e58d300c 	str	r3, [sp, #12]
    88dc:	e2411001 	sub	r1, r1, #1, 0
    88e0:	e0808001 	add	r8, r0, r1
    88e4:	e3a03000 	mov	r3, #0, 0
    88e8:	e5c03000 	strb	r3, [r0]
    88ec:	e1a04000 	mov	r4, r0
    88f0:	e1a06002 	mov	r6, r2
    88f4:	ea000001 	b	8900 <va_printk+0x38>
    88f8:	e2866001 	add	r6, r6, #1, 0
    88fc:	e4c43001 	strb	r3, [r4], #1
    8900:	e5d63000 	ldrb	r3, [r6]
    8904:	e3530000 	cmp	r3, #0, 0
    8908:	0a000108 	beq	8d30 <va_printk+0x468>
    890c:	e1540008 	cmp	r4, r8
    8910:	2a000106 	bcs	8d30 <va_printk+0x468>
    8914:	e3530025 	cmp	r3, #37, 0	; 0x25
    8918:	1afffff6 	bne	88f8 <va_printk+0x30>
    891c:	e5d62001 	ldrb	r2, [r6, #1]
    8920:	e3520025 	cmp	r2, #37, 0	; 0x25
    8924:	04c43001 	strbeq	r3, [r4], #1
    8928:	02866002 	addeq	r6, r6, #2, 0
    892c:	0afffff3 	beq	8900 <va_printk+0x38>
    8930:	e2866001 	add	r6, r6, #1, 0
    8934:	e3a05000 	mov	r5, #0, 0
    8938:	e5d67000 	ldrb	r7, [r6]
    893c:	e1a0a007 	mov	sl, r7
    8940:	e1a00007 	mov	r0, r7
    8944:	ebffff3d 	bl	8640 <isdigit>
    8948:	e3500000 	cmp	r0, #0, 0
    894c:	0a000004 	beq	8964 <va_printk+0x9c>
    8950:	e0855105 	add	r5, r5, r5, lsl #2
    8954:	e0875085 	add	r5, r7, r5, lsl #1
    8958:	e2455030 	sub	r5, r5, #48, 0	; 0x30
    895c:	e2866001 	add	r6, r6, #1, 0
    8960:	eafffff4 	b	8938 <va_printk+0x70>
    8964:	e355001f 	cmp	r5, #31, 0
    8968:	8a00001a 	bhi	89d8 <va_printk+0x110>
    896c:	e2477062 	sub	r7, r7, #98, 0	; 0x62
    8970:	e3570016 	cmp	r7, #22, 0
    8974:	979ff107 	ldrls	pc, [pc, r7, lsl #2]
    8978:	ea0000d4 	b	8cd0 <va_printk+0x408>
    897c:	00008c54 	andeq	r8, r0, r4, asr ip
    8980:	00008c9c 	muleq	r0, ip, ip
    8984:	00008bb4 			; <UNDEFINED> instruction: 0x00008bb4
    8988:	00008cd0 	ldrdeq	r8, [r0], -r0
    898c:	00008b9c 	muleq	r0, ip, fp
    8990:	00008cd0 	ldrdeq	r8, [r0], -r0
    8994:	00008cd0 	ldrdeq	r8, [r0], -r0
    8998:	00008cd0 	ldrdeq	r8, [r0], -r0
    899c:	00008cd0 	ldrdeq	r8, [r0], -r0
    89a0:	00008cd0 	ldrdeq	r8, [r0], -r0
    89a4:	000089f8 	strdeq	r8, [r0], -r8	; <UNPREDICTABLE>
    89a8:	00008cd0 	ldrdeq	r8, [r0], -r0
    89ac:	00008cd0 	ldrdeq	r8, [r0], -r0
    89b0:	00008cd0 	ldrdeq	r8, [r0], -r0
    89b4:	00008c20 	andeq	r8, r0, r0, lsr #24
    89b8:	00008cd0 	ldrdeq	r8, [r0], -r0
    89bc:	00008cd0 	ldrdeq	r8, [r0], -r0
    89c0:	00008c88 	andeq	r8, r0, r8, lsl #25
    89c4:	00008cd0 	ldrdeq	r8, [r0], -r0
    89c8:	00008bec 	andeq	r8, r0, ip, ror #23
    89cc:	00008cd0 	ldrdeq	r8, [r0], -r0
    89d0:	00008cd0 	ldrdeq	r8, [r0], -r0
    89d4:	00008c20 	andeq	r8, r0, r0, lsr #24
    89d8:	e59f3364 	ldr	r3, [pc, #868]	; 8d44 <va_printk+0x47c>
    89dc:	e58d3000 	str	r3, [sp]
    89e0:	e3a03098 	mov	r3, #152, 0	; 0x98
    89e4:	e59f235c 	ldr	r2, [pc, #860]	; 8d48 <va_printk+0x480>
    89e8:	e59f135c 	ldr	r1, [pc, #860]	; 8d4c <va_printk+0x484>
    89ec:	e59f035c 	ldr	r0, [pc, #860]	; 8d50 <va_printk+0x488>
    89f0:	ebfffeef 	bl	85b4 <printk>
    89f4:	eb0000e9 	bl	8da0 <clean_reboot>
    89f8:	e3a02003 	mov	r2, #3, 0
    89fc:	e59f1350 	ldr	r1, [pc, #848]	; 8d54 <va_printk+0x48c>
    8a00:	e1a00006 	mov	r0, r6
    8a04:	eb000239 	bl	92f0 <strncmp>
    8a08:	e3500000 	cmp	r0, #0, 0
    8a0c:	0a000005 	beq	8a28 <va_printk+0x160>
    8a10:	e3a02003 	mov	r2, #3, 0
    8a14:	e59f133c 	ldr	r1, [pc, #828]	; 8d58 <va_printk+0x490>
    8a18:	e1a00006 	mov	r0, r6
    8a1c:	eb000233 	bl	92f0 <strncmp>
    8a20:	e3500000 	cmp	r0, #0, 0
    8a24:	1a000033 	bne	8af8 <va_printk+0x230>
    8a28:	e286b002 	add	fp, r6, #2, 0
    8a2c:	e59d300c 	ldr	r3, [sp, #12]
    8a30:	e2833007 	add	r3, r3, #7, 0
    8a34:	e3c33007 	bic	r3, r3, #7, 0
    8a38:	e2832008 	add	r2, r3, #8, 0
    8a3c:	e58d200c 	str	r2, [sp, #12]
    8a40:	e593a000 	ldr	sl, [r3]
    8a44:	e5937004 	ldr	r7, [r3, #4]
    8a48:	e1a01007 	mov	r1, r7
    8a4c:	e59f0308 	ldr	r0, [pc, #776]	; 8d5c <va_printk+0x494>
    8a50:	ebfffed7 	bl	85b4 <printk>
    8a54:	e1a0100a 	mov	r1, sl
    8a58:	e59f0300 	ldr	r0, [pc, #768]	; 8d60 <va_printk+0x498>
    8a5c:	ebfffed4 	bl	85b4 <printk>
    8a60:	e3a02003 	mov	r2, #3, 0
    8a64:	e59f12e8 	ldr	r1, [pc, #744]	; 8d54 <va_printk+0x48c>
    8a68:	e1a00006 	mov	r0, r6
    8a6c:	eb00021f 	bl	92f0 <strncmp>
    8a70:	e3500000 	cmp	r0, #0, 0
    8a74:	0a000027 	beq	8b18 <va_printk+0x250>
    8a78:	e3a02003 	mov	r2, #3, 0
    8a7c:	e59f12d4 	ldr	r1, [pc, #724]	; 8d58 <va_printk+0x490>
    8a80:	e1a00006 	mov	r0, r6
    8a84:	eb000219 	bl	92f0 <strncmp>
    8a88:	e3500000 	cmp	r0, #0, 0
    8a8c:	1a00003b 	bne	8b80 <va_printk+0x2b8>
    8a90:	e3a06000 	mov	r6, #0, 0
    8a94:	e58d6004 	str	r6, [sp, #4]
    8a98:	e58d5000 	str	r5, [sp]
    8a9c:	e1a03007 	mov	r3, r7
    8aa0:	e3a02080 	mov	r2, #128, 0	; 0x80
    8aa4:	e28d1010 	add	r1, sp, #16, 0
    8aa8:	e3a0000a 	mov	r0, #10, 0
    8aac:	ebfffeff 	bl	86b0 <emit>
    8ab0:	e1a07000 	mov	r7, r0
    8ab4:	e58d6004 	str	r6, [sp, #4]
    8ab8:	e58d5000 	str	r5, [sp]
    8abc:	e1a0300a 	mov	r3, sl
    8ac0:	e3a02080 	mov	r2, #128, 0	; 0x80
    8ac4:	e28d1090 	add	r1, sp, #144, 0	; 0x90
    8ac8:	e3a0000a 	mov	r0, #10, 0
    8acc:	ebfffef7 	bl	86b0 <emit>
    8ad0:	e59f128c 	ldr	r1, [pc, #652]	; 8d64 <va_printk+0x49c>
    8ad4:	e28d0010 	add	r0, sp, #16, 0
    8ad8:	eb0001f1 	bl	92a4 <strcmp>
    8adc:	e1500006 	cmp	r0, r6
    8ae0:	1a000021 	bne	8b6c <va_printk+0x2a4>
    8ae4:	e28d1090 	add	r1, sp, #144, 0	; 0x90
    8ae8:	e28d0010 	add	r0, sp, #16, 0
    8aec:	eb0001f7 	bl	92d0 <strcpy>
    8af0:	e1a0600b 	mov	r6, fp
    8af4:	ea00003a 	b	8be4 <va_printk+0x31c>
    8af8:	e59f3268 	ldr	r3, [pc, #616]	; 8d68 <va_printk+0x4a0>
    8afc:	e58d3000 	str	r3, [sp]
    8b00:	e3a0309f 	mov	r3, #159, 0	; 0x9f
    8b04:	e59f223c 	ldr	r2, [pc, #572]	; 8d48 <va_printk+0x480>
    8b08:	e59f123c 	ldr	r1, [pc, #572]	; 8d4c <va_printk+0x484>
    8b0c:	e59f023c 	ldr	r0, [pc, #572]	; 8d50 <va_printk+0x488>
    8b10:	ebfffea7 	bl	85b4 <printk>
    8b14:	eb0000a1 	bl	8da0 <clean_reboot>
    8b18:	e3a06000 	mov	r6, #0, 0
    8b1c:	e58d6004 	str	r6, [sp, #4]
    8b20:	e58d5000 	str	r5, [sp]
    8b24:	e1a03007 	mov	r3, r7
    8b28:	e3a02080 	mov	r2, #128, 0	; 0x80
    8b2c:	e28d1010 	add	r1, sp, #16, 0
    8b30:	e3a00010 	mov	r0, #16, 0
    8b34:	ebfffedd 	bl	86b0 <emit>
    8b38:	e1a07000 	mov	r7, r0
    8b3c:	e58d6004 	str	r6, [sp, #4]
    8b40:	e58d5000 	str	r5, [sp]
    8b44:	e1a0300a 	mov	r3, sl
    8b48:	e3a02080 	mov	r2, #128, 0	; 0x80
    8b4c:	e28d1090 	add	r1, sp, #144, 0	; 0x90
    8b50:	e3a00010 	mov	r0, #16, 0
    8b54:	ebfffed5 	bl	86b0 <emit>
    8b58:	e28d1092 	add	r1, sp, #146, 0	; 0x92
    8b5c:	e28d0010 	add	r0, sp, #16, 0
    8b60:	eb0001c2 	bl	9270 <strcat>
    8b64:	e1a0600b 	mov	r6, fp
    8b68:	ea00001d 	b	8be4 <va_printk+0x31c>
    8b6c:	e28d1090 	add	r1, sp, #144, 0	; 0x90
    8b70:	e28d0010 	add	r0, sp, #16, 0
    8b74:	eb0001bd 	bl	9270 <strcat>
    8b78:	e1a0600b 	mov	r6, fp
    8b7c:	ea000018 	b	8be4 <va_printk+0x31c>
    8b80:	e58d6000 	str	r6, [sp]
    8b84:	e3a030b6 	mov	r3, #182, 0	; 0xb6
    8b88:	e59f21b8 	ldr	r2, [pc, #440]	; 8d48 <va_printk+0x480>
    8b8c:	e59f11b8 	ldr	r1, [pc, #440]	; 8d4c <va_printk+0x484>
    8b90:	e59f01d4 	ldr	r0, [pc, #468]	; 8d6c <va_printk+0x4a4>
    8b94:	ebfffe86 	bl	85b4 <printk>
    8b98:	eb000080 	bl	8da0 <clean_reboot>
    8b9c:	e3a030be 	mov	r3, #190, 0	; 0xbe
    8ba0:	e59f21a0 	ldr	r2, [pc, #416]	; 8d48 <va_printk+0x480>
    8ba4:	e59f11a0 	ldr	r1, [pc, #416]	; 8d4c <va_printk+0x484>
    8ba8:	e59f01c0 	ldr	r0, [pc, #448]	; 8d70 <va_printk+0x4a8>
    8bac:	ebfffe80 	bl	85b4 <printk>
    8bb0:	eb00007a 	bl	8da0 <clean_reboot>
    8bb4:	e59d300c 	ldr	r3, [sp, #12]
    8bb8:	e2832004 	add	r2, r3, #4, 0
    8bbc:	e58d200c 	str	r2, [sp, #12]
    8bc0:	e5933000 	ldr	r3, [r3]
    8bc4:	e3a02001 	mov	r2, #1, 0
    8bc8:	e58d2004 	str	r2, [sp, #4]
    8bcc:	e58d5000 	str	r5, [sp]
    8bd0:	e3a02080 	mov	r2, #128, 0	; 0x80
    8bd4:	e28d1010 	add	r1, sp, #16, 0
    8bd8:	e3a0000a 	mov	r0, #10, 0
    8bdc:	ebfffeb3 	bl	86b0 <emit>
    8be0:	e1a07000 	mov	r7, r0
    8be4:	e2866001 	add	r6, r6, #1, 0
    8be8:	ea00004a 	b	8d18 <va_printk+0x450>
    8bec:	e59d300c 	ldr	r3, [sp, #12]
    8bf0:	e2832004 	add	r2, r3, #4, 0
    8bf4:	e58d200c 	str	r2, [sp, #12]
    8bf8:	e5933000 	ldr	r3, [r3]
    8bfc:	e3a02000 	mov	r2, #0, 0
    8c00:	e58d2004 	str	r2, [sp, #4]
    8c04:	e58d5000 	str	r5, [sp]
    8c08:	e3a02080 	mov	r2, #128, 0	; 0x80
    8c0c:	e28d1010 	add	r1, sp, #16, 0
    8c10:	e3a0000a 	mov	r0, #10, 0
    8c14:	ebfffea5 	bl	86b0 <emit>
    8c18:	e1a07000 	mov	r7, r0
    8c1c:	eafffff0 	b	8be4 <va_printk+0x31c>
    8c20:	e59d300c 	ldr	r3, [sp, #12]
    8c24:	e2832004 	add	r2, r3, #4, 0
    8c28:	e58d200c 	str	r2, [sp, #12]
    8c2c:	e5933000 	ldr	r3, [r3]
    8c30:	e3a02000 	mov	r2, #0, 0
    8c34:	e58d2004 	str	r2, [sp, #4]
    8c38:	e58d5000 	str	r5, [sp]
    8c3c:	e3a02080 	mov	r2, #128, 0	; 0x80
    8c40:	e28d1010 	add	r1, sp, #16, 0
    8c44:	e3a00010 	mov	r0, #16, 0
    8c48:	ebfffe98 	bl	86b0 <emit>
    8c4c:	e1a07000 	mov	r7, r0
    8c50:	eaffffe3 	b	8be4 <va_printk+0x31c>
    8c54:	e59d300c 	ldr	r3, [sp, #12]
    8c58:	e2832004 	add	r2, r3, #4, 0
    8c5c:	e58d200c 	str	r2, [sp, #12]
    8c60:	e5933000 	ldr	r3, [r3]
    8c64:	e3a02000 	mov	r2, #0, 0
    8c68:	e58d2004 	str	r2, [sp, #4]
    8c6c:	e58d5000 	str	r5, [sp]
    8c70:	e3a02080 	mov	r2, #128, 0	; 0x80
    8c74:	e28d1010 	add	r1, sp, #16, 0
    8c78:	e3a00002 	mov	r0, #2, 0
    8c7c:	ebfffe8b 	bl	86b0 <emit>
    8c80:	e1a07000 	mov	r7, r0
    8c84:	eaffffd6 	b	8be4 <va_printk+0x31c>
    8c88:	e59d300c 	ldr	r3, [sp, #12]
    8c8c:	e2832004 	add	r2, r3, #4, 0
    8c90:	e58d200c 	str	r2, [sp, #12]
    8c94:	e5937000 	ldr	r7, [r3]
    8c98:	eaffffd1 	b	8be4 <va_printk+0x31c>
    8c9c:	e59d300c 	ldr	r3, [sp, #12]
    8ca0:	e2832004 	add	r2, r3, #4, 0
    8ca4:	e58d200c 	str	r2, [sp, #12]
    8ca8:	e5933000 	ldr	r3, [r3]
    8cac:	e3a02000 	mov	r2, #0, 0
    8cb0:	e58d2004 	str	r2, [sp, #4]
    8cb4:	e58d5000 	str	r5, [sp]
    8cb8:	e3a02080 	mov	r2, #128, 0	; 0x80
    8cbc:	e28d1010 	add	r1, sp, #16, 0
    8cc0:	e3a00008 	mov	r0, #8, 0
    8cc4:	ebfffe79 	bl	86b0 <emit>
    8cc8:	e1a07000 	mov	r7, r0
    8ccc:	eaffffc4 	b	8be4 <va_printk+0x31c>
    8cd0:	e3a03000 	mov	r3, #0, 0
    8cd4:	e5c63001 	strb	r3, [r6, #1]
    8cd8:	e1a0200a 	mov	r2, sl
    8cdc:	e1a0100a 	mov	r1, sl
    8ce0:	e59f008c 	ldr	r0, [pc, #140]	; 8d74 <va_printk+0x4ac>
    8ce4:	ebfffe32 	bl	85b4 <printk>
    8ce8:	e59f3088 	ldr	r3, [pc, #136]	; 8d78 <va_printk+0x4b0>
    8cec:	e5933000 	ldr	r3, [r3]
    8cf0:	e59d0008 	ldr	r0, [sp, #8]
    8cf4:	e12fff33 	blx	r3
    8cf8:	e3a030e2 	mov	r3, #226, 0	; 0xe2
    8cfc:	e59f2044 	ldr	r2, [pc, #68]	; 8d48 <va_printk+0x480>
    8d00:	e59f1044 	ldr	r1, [pc, #68]	; 8d4c <va_printk+0x484>
    8d04:	e59f0070 	ldr	r0, [pc, #112]	; 8d7c <va_printk+0x4b4>
    8d08:	ebfffe29 	bl	85b4 <printk>
    8d0c:	eb000023 	bl	8da0 <clean_reboot>
    8d10:	e2877001 	add	r7, r7, #1, 0
    8d14:	e4c43001 	strb	r3, [r4], #1
    8d18:	e1540008 	cmp	r4, r8
    8d1c:	2afffef7 	bcs	8900 <va_printk+0x38>
    8d20:	e5d73000 	ldrb	r3, [r7]
    8d24:	e3530000 	cmp	r3, #0, 0
    8d28:	1afffff8 	bne	8d10 <va_printk+0x448>
    8d2c:	eafffef3 	b	8900 <va_printk+0x38>
    8d30:	e3a03000 	mov	r3, #0, 0
    8d34:	e4c43001 	strb	r3, [r4], #1
    8d38:	e0440009 	sub	r0, r4, r9
    8d3c:	e28ddf45 	add	sp, sp, #276	; 0x114
    8d40:	e8bd8ff0 	pop	{r4, r5, r6, r7, r8, r9, sl, fp, pc}
    8d44:	000094f8 	strdeq	r9, [r0], -r8
    8d48:	00009610 	andeq	r9, r0, r0, lsl r6
    8d4c:	000094b4 			; <UNDEFINED> instruction: 0x000094b4
    8d50:	000093bc 			; <UNDEFINED> instruction: 0x000093bc
    8d54:	00009504 	andeq	r9, r0, r4, lsl #10
    8d58:	00009508 	andeq	r9, r0, r8, lsl #10
    8d5c:	0000950c 	andeq	r9, r0, ip, lsl #10
    8d60:	00009514 	andeq	r9, r0, r4, lsl r5
    8d64:	000094c8 	andeq	r9, r0, r8, asr #9
    8d68:	0000951c 	andeq	r9, r0, ip, lsl r5
    8d6c:	00009558 	andeq	r9, r0, r8, asr r5
    8d70:	00009580 	andeq	r9, r0, r0, lsl #11
    8d74:	000095a8 	andeq	r9, r0, r8, lsr #11
    8d78:	00009c30 	andeq	r9, r0, r0, lsr ip
    8d7c:	000095d8 	ldrdeq	r9, [r0], -r8

00008d80 <enable_cache>:
    8d80:	ee113f10 	mrc	15, 0, r3, cr1, cr0, {0}
    8d84:	e3833b06 	orr	r3, r3, #6144	; 0x1800
    8d88:	ee013f10 	mcr	15, 0, r3, cr1, cr0, {0}
    8d8c:	e12fff1e 	bx	lr

00008d90 <disable_cache>:
    8d90:	ee113f10 	mrc	15, 0, r3, cr1, cr0, {0}
    8d94:	e3c33b06 	bic	r3, r3, #6144	; 0x1800
    8d98:	ee013f10 	mcr	15, 0, r3, cr1, cr0, {0}
    8d9c:	e12fff1e 	bx	lr

00008da0 <clean_reboot>:
    8da0:	e92d4010 	push	{r4, lr}
    8da4:	e59f3018 	ldr	r3, [pc, #24]	; 8dc4 <clean_reboot+0x24>
    8da8:	e5933000 	ldr	r3, [r3]
    8dac:	e59f0014 	ldr	r0, [pc, #20]	; 8dc8 <clean_reboot+0x28>
    8db0:	e12fff33 	blx	r3
    8db4:	eb000110 	bl	91fc <uart_flush_tx>
    8db8:	e3a0000a 	mov	r0, #10, 0
    8dbc:	eb00004d 	bl	8ef8 <delay_ms>
    8dc0:	eb000022 	bl	8e50 <rpi_reboot>
    8dc4:	00009c30 	andeq	r9, r0, r0, lsr ip
    8dc8:	0000961c 	andeq	r9, r0, ip, lsl r6

00008dcc <_cstart>:
    8dcc:	e92d4010 	push	{r4, lr}
    8dd0:	eb00000c 	bl	8e08 <custom_loader>
    8dd4:	e59f3024 	ldr	r3, [pc, #36]	; 8e00 <_cstart+0x34>
    8dd8:	e59f2024 	ldr	r2, [pc, #36]	; 8e04 <_cstart+0x38>
    8ddc:	e1530002 	cmp	r3, r2
    8de0:	33a02000 	movcc	r2, #0, 0
    8de4:	34832004 	strcc	r2, [r3], #4
    8de8:	3afffffa 	bcc	8dd8 <_cstart+0xc>
    8dec:	eb0000a4 	bl	9084 <uart_init>
    8df0:	e3a03001 	mov	r3, #1, 0
    8df4:	ee0f3f1c 	mcr	15, 0, r3, cr15, cr12, {0}
    8df8:	ebfffc8e 	bl	8038 <notmain>
    8dfc:	ebffffe7 	bl	8da0 <clean_reboot>
    8e00:	00009c38 	andeq	r9, r0, r8, lsr ip
    8e04:	0000a038 	andeq	sl, r0, r8, lsr r0

00008e08 <custom_loader>:
    8e08:	e12fff1e 	bx	lr

00008e0c <dev_barrier>:
    8e0c:	ea000002 	b	8e1c <dsb>

00008e10 <dmb>:
    8e10:	e3a00000 	mov	r0, #0, 0
    8e14:	ee070fba 	mcr	15, 0, r0, cr7, cr10, {5}
    8e18:	e12fff1e 	bx	lr

00008e1c <dsb>:
    8e1c:	ee070f9a 	mcr	15, 0, r0, cr7, cr10, {4}
    8e20:	e12fff1e 	bx	lr

00008e24 <at_user_level>:
    8e24:	e10f0000 	mrs	r0, CPSR
    8e28:	e200001f 	and	r0, r0, #31, 0
    8e2c:	e3500010 	cmp	r0, #16, 0
    8e30:	13a00000 	movne	r0, #0, 0
    8e34:	03a00001 	moveq	r0, #1, 0
    8e38:	e12fff1e 	bx	lr

00008e3c <set_user_level>:
    8e3c:	e10f3000 	mrs	r3, CPSR
    8e40:	e3c3301f 	bic	r3, r3, #31, 0
    8e44:	e3833010 	orr	r3, r3, #16, 0
    8e48:	e129f003 	msr	CPSR_fc, r3
    8e4c:	e12fff1e 	bx	lr

00008e50 <rpi_reboot>:
    8e50:	e92d4010 	push	{r4, lr}
    8e54:	ebfffff2 	bl	8e24 <at_user_level>
    8e58:	e3500000 	cmp	r0, #0, 0
    8e5c:	1a00000a 	bne	8e8c <rpi_reboot+0x3c>
    8e60:	eb00012d 	bl	931c <reboot_callout>
    8e64:	eb0000e4 	bl	91fc <uart_flush_tx>
    8e68:	e3a0000a 	mov	r0, #10, 0
    8e6c:	eb000021 	bl	8ef8 <delay_ms>
    8e70:	e59f101c 	ldr	r1, [pc, #28]	; 8e94 <rpi_reboot+0x44>
    8e74:	e59f001c 	ldr	r0, [pc, #28]	; 8e98 <rpi_reboot+0x48>
    8e78:	ebfffc69 	bl	8024 <PUT32>
    8e7c:	e59f1018 	ldr	r1, [pc, #24]	; 8e9c <rpi_reboot+0x4c>
    8e80:	e59f0018 	ldr	r0, [pc, #24]	; 8ea0 <rpi_reboot+0x50>
    8e84:	ebfffc66 	bl	8024 <PUT32>
    8e88:	eafffffe 	b	8e88 <rpi_reboot+0x38>
    8e8c:	ebffffea 	bl	8e3c <set_user_level>
    8e90:	eafffff2 	b	8e60 <rpi_reboot+0x10>
    8e94:	5a000001 	bpl	8ea0 <rpi_reboot+0x50>
    8e98:	20100024 	andscs	r0, r0, r4, lsr #32
    8e9c:	5a000020 	bpl	8f24 <delay_sec+0x14>
    8ea0:	2010001c 	andscs	r0, r0, ip, lsl r0

00008ea4 <timer_get_usec_raw>:
    8ea4:	e92d4010 	push	{r4, lr}
    8ea8:	e59f0004 	ldr	r0, [pc, #4]	; 8eb4 <timer_get_usec_raw+0x10>
    8eac:	ebfffc5e 	bl	802c <GET32>
    8eb0:	e8bd8010 	pop	{r4, pc}
    8eb4:	20003004 	andcs	r3, r0, r4

00008eb8 <timer_get_usec>:
    8eb8:	e92d4010 	push	{r4, lr}
    8ebc:	ebffffd2 	bl	8e0c <dev_barrier>
    8ec0:	ebfffff7 	bl	8ea4 <timer_get_usec_raw>
    8ec4:	e1a04000 	mov	r4, r0
    8ec8:	ebffffcf 	bl	8e0c <dev_barrier>
    8ecc:	e1a00004 	mov	r0, r4
    8ed0:	e8bd8010 	pop	{r4, pc}

00008ed4 <delay_us>:
    8ed4:	e92d4070 	push	{r4, r5, r6, lr}
    8ed8:	e1a05000 	mov	r5, r0
    8edc:	ebfffff5 	bl	8eb8 <timer_get_usec>
    8ee0:	e1a04000 	mov	r4, r0
    8ee4:	ebfffff3 	bl	8eb8 <timer_get_usec>
    8ee8:	e0400004 	sub	r0, r0, r4
    8eec:	e1500005 	cmp	r0, r5
    8ef0:	3afffffb 	bcc	8ee4 <delay_us+0x10>
    8ef4:	e8bd8070 	pop	{r4, r5, r6, pc}

00008ef8 <delay_ms>:
    8ef8:	e92d4010 	push	{r4, lr}
    8efc:	e0603280 	rsb	r3, r0, r0, lsl #5
    8f00:	e0800103 	add	r0, r0, r3, lsl #2
    8f04:	e1a00180 	lsl	r0, r0, #3
    8f08:	ebfffff1 	bl	8ed4 <delay_us>
    8f0c:	e8bd8010 	pop	{r4, pc}

00008f10 <delay_sec>:
    8f10:	e92d4010 	push	{r4, lr}
    8f14:	e0603280 	rsb	r3, r0, r0, lsl #5
    8f18:	e0800103 	add	r0, r0, r3, lsl #2
    8f1c:	e1a00180 	lsl	r0, r0, #3
    8f20:	ebfffff4 	bl	8ef8 <delay_ms>
    8f24:	e8bd8010 	pop	{r4, pc}

00008f28 <gpio_set_function>:
    8f28:	e350001f 	cmp	r0, #31, 0
    8f2c:	812fff1e 	bxhi	lr
    8f30:	e92d4070 	push	{r4, r5, r6, lr}
    8f34:	e1a05001 	mov	r5, r1
    8f38:	e3d13007 	bics	r3, r1, #7, 0
    8f3c:	18bd8070 	popne	{r4, r5, r6, pc}
    8f40:	e59f3040 	ldr	r3, [pc, #64]	; 8f88 <gpio_set_function+0x60>
    8f44:	e0832093 	umull	r2, r3, r3, r0
    8f48:	e1a031a3 	lsr	r3, r3, #3
    8f4c:	e1a02003 	mov	r2, r3
    8f50:	e0833103 	add	r3, r3, r3, lsl #2
    8f54:	e0403083 	sub	r3, r0, r3, lsl #1
    8f58:	e0834083 	add	r4, r3, r3, lsl #1
    8f5c:	e2820302 	add	r0, r2, #134217728	; 0x8000000
    8f60:	e2800702 	add	r0, r0, #524288	; 0x80000
    8f64:	e1a06100 	lsl	r6, r0, #2
    8f68:	e1a00006 	mov	r0, r6
    8f6c:	ebfffc2e 	bl	802c <GET32>
    8f70:	e3a01007 	mov	r1, #7, 0
    8f74:	e1c01411 	bic	r1, r0, r1, lsl r4
    8f78:	e1811415 	orr	r1, r1, r5, lsl r4
    8f7c:	e1a00006 	mov	r0, r6
    8f80:	ebfffc27 	bl	8024 <PUT32>
    8f84:	e8bd8070 	pop	{r4, r5, r6, pc}
    8f88:	cccccccd 	stclgt	12, cr12, [ip], {205}	; 0xcd

00008f8c <gpio_set_output>:
    8f8c:	e92d4010 	push	{r4, lr}
    8f90:	e3a01001 	mov	r1, #1, 0
    8f94:	ebffffe3 	bl	8f28 <gpio_set_function>
    8f98:	e8bd8010 	pop	{r4, pc}

00008f9c <gpio_set_on>:
    8f9c:	e350001f 	cmp	r0, #31, 0
    8fa0:	812fff1e 	bxhi	lr
    8fa4:	e92d4010 	push	{r4, lr}
    8fa8:	e3a01001 	mov	r1, #1, 0
    8fac:	e1a01011 	lsl	r1, r1, r0
    8fb0:	e59f0004 	ldr	r0, [pc, #4]	; 8fbc <gpio_set_on+0x20>
    8fb4:	ebfffc1a 	bl	8024 <PUT32>
    8fb8:	e8bd8010 	pop	{r4, pc}
    8fbc:	2020001c 	eorcs	r0, r0, ip, lsl r0

00008fc0 <gpio_set_off>:
    8fc0:	e350001f 	cmp	r0, #31, 0
    8fc4:	812fff1e 	bxhi	lr
    8fc8:	e92d4010 	push	{r4, lr}
    8fcc:	e3a01001 	mov	r1, #1, 0
    8fd0:	e1a01011 	lsl	r1, r1, r0
    8fd4:	e59f0004 	ldr	r0, [pc, #4]	; 8fe0 <gpio_set_off+0x20>
    8fd8:	ebfffc11 	bl	8024 <PUT32>
    8fdc:	e8bd8010 	pop	{r4, pc}
    8fe0:	20200028 	eorcs	r0, r0, r8, lsr #32

00008fe4 <gpio_set_input>:
    8fe4:	e92d4010 	push	{r4, lr}
    8fe8:	e3a01000 	mov	r1, #0, 0
    8fec:	ebffffcd 	bl	8f28 <gpio_set_function>
    8ff0:	e8bd8010 	pop	{r4, pc}

00008ff4 <gpio_write>:
    8ff4:	e92d4010 	push	{r4, lr}
    8ff8:	e3510000 	cmp	r1, #0, 0
    8ffc:	0a000001 	beq	9008 <gpio_write+0x14>
    9000:	ebffffe5 	bl	8f9c <gpio_set_on>
    9004:	e8bd8010 	pop	{r4, pc}
    9008:	ebffffec 	bl	8fc0 <gpio_set_off>
    900c:	e8bd8010 	pop	{r4, pc}

00009010 <gpio_read>:
    9010:	e350001f 	cmp	r0, #31, 0
    9014:	8a000007 	bhi	9038 <gpio_read+0x28>
    9018:	e92d4010 	push	{r4, lr}
    901c:	e200401f 	and	r4, r0, #31, 0
    9020:	e59f3018 	ldr	r3, [pc, #24]	; 9040 <gpio_read+0x30>
    9024:	e08302a0 	add	r0, r3, r0, lsr #5
    9028:	ebfffbff 	bl	802c <GET32>
    902c:	e1a00430 	lsr	r0, r0, r4
    9030:	e2000001 	and	r0, r0, #1, 0
    9034:	e8bd8010 	pop	{r4, pc}
    9038:	e3e00000 	mvn	r0, #0, 0
    903c:	e12fff1e 	bx	lr
    9040:	20200034 	eorcs	r0, r0, r4, lsr r0

00009044 <and_in32>:
    9044:	e92d4070 	push	{r4, r5, r6, lr}
    9048:	e1a04000 	mov	r4, r0
    904c:	e1a05001 	mov	r5, r1
    9050:	ebfffbf5 	bl	802c <GET32>
    9054:	e0001005 	and	r1, r0, r5
    9058:	e1a00004 	mov	r0, r4
    905c:	ebfffbf0 	bl	8024 <PUT32>
    9060:	e8bd8070 	pop	{r4, r5, r6, pc}

00009064 <or_in32>:
    9064:	e92d4070 	push	{r4, r5, r6, lr}
    9068:	e1a04000 	mov	r4, r0
    906c:	e1a05001 	mov	r5, r1
    9070:	ebfffbed 	bl	802c <GET32>
    9074:	e1801005 	orr	r1, r0, r5
    9078:	e1a00004 	mov	r0, r4
    907c:	ebfffbe8 	bl	8024 <PUT32>
    9080:	e8bd8070 	pop	{r4, r5, r6, pc}

00009084 <uart_init>:
    9084:	e92d4010 	push	{r4, lr}
    9088:	e3a01002 	mov	r1, #2, 0
    908c:	e3a0000e 	mov	r0, #14, 0
    9090:	ebffffa4 	bl	8f28 <gpio_set_function>
    9094:	e3a01002 	mov	r1, #2, 0
    9098:	e3a0000f 	mov	r0, #15, 0
    909c:	ebffffa1 	bl	8f28 <gpio_set_function>
    90a0:	ebffff59 	bl	8e0c <dev_barrier>
    90a4:	e3a01001 	mov	r1, #1, 0
    90a8:	e59f0064 	ldr	r0, [pc, #100]	; 9114 <uart_init+0x90>
    90ac:	ebffffec 	bl	9064 <or_in32>
    90b0:	ebffff55 	bl	8e0c <dev_barrier>
    90b4:	e59f405c 	ldr	r4, [pc, #92]	; 9118 <uart_init+0x94>
    90b8:	e3a01000 	mov	r1, #0, 0
    90bc:	e1a00004 	mov	r0, r4
    90c0:	ebfffbd7 	bl	8024 <PUT32>
    90c4:	e3a01000 	mov	r1, #0, 0
    90c8:	e59f004c 	ldr	r0, [pc, #76]	; 911c <uart_init+0x98>
    90cc:	ebfffbd4 	bl	8024 <PUT32>
    90d0:	e3a01003 	mov	r1, #3, 0
    90d4:	e59f0044 	ldr	r0, [pc, #68]	; 9120 <uart_init+0x9c>
    90d8:	ebfffbd1 	bl	8024 <PUT32>
    90dc:	e3a01000 	mov	r1, #0, 0
    90e0:	e59f003c 	ldr	r0, [pc, #60]	; 9124 <uart_init+0xa0>
    90e4:	ebfffbce 	bl	8024 <PUT32>
    90e8:	e3a010c7 	mov	r1, #199, 0	; 0xc7
    90ec:	e59f0034 	ldr	r0, [pc, #52]	; 9128 <uart_init+0xa4>
    90f0:	ebfffbcb 	bl	8024 <PUT32>
    90f4:	e59f1030 	ldr	r1, [pc, #48]	; 912c <uart_init+0xa8>
    90f8:	e59f0030 	ldr	r0, [pc, #48]	; 9130 <uart_init+0xac>
    90fc:	ebfffbc8 	bl	8024 <PUT32>
    9100:	e3a01003 	mov	r1, #3, 0
    9104:	e1a00004 	mov	r0, r4
    9108:	ebfffbc5 	bl	8024 <PUT32>
    910c:	ebffff3e 	bl	8e0c <dev_barrier>
    9110:	e8bd8010 	pop	{r4, pc}
    9114:	20215004 	eorcs	r5, r1, r4
    9118:	20215060 	eorcs	r5, r1, r0, rrx
    911c:	20215044 	eorcs	r5, r1, r4, asr #32
    9120:	2021504c 	eorcs	r5, r1, ip, asr #32
    9124:	20215050 	eorcs	r5, r1, r0, asr r0
    9128:	20215048 	eorcs	r5, r1, r8, asr #32
    912c:	0000010e 	andeq	r0, r0, lr, lsl #2
    9130:	20215068 	eorcs	r5, r1, r8, rrx

00009134 <uart_can_getc>:
    9134:	e92d4010 	push	{r4, lr}
    9138:	e59f0008 	ldr	r0, [pc, #8]	; 9148 <uart_can_getc+0x14>
    913c:	ebfffbba 	bl	802c <GET32>
    9140:	e2000001 	and	r0, r0, #1, 0
    9144:	e8bd8010 	pop	{r4, pc}
    9148:	20215064 	eorcs	r5, r1, r4, rrx

0000914c <uart_can_putc>:
    914c:	e92d4010 	push	{r4, lr}
    9150:	e59f0010 	ldr	r0, [pc, #16]	; 9168 <uart_can_putc+0x1c>
    9154:	ebfffbb4 	bl	802c <GET32>
    9158:	e3100002 	tst	r0, #2, 0
    915c:	13a00001 	movne	r0, #1, 0
    9160:	03a00000 	moveq	r0, #0, 0
    9164:	e8bd8010 	pop	{r4, pc}
    9168:	20215064 	eorcs	r5, r1, r4, rrx

0000916c <uart_getc>:
    916c:	e92d4010 	push	{r4, lr}
    9170:	ebffff25 	bl	8e0c <dev_barrier>
    9174:	ebffffee 	bl	9134 <uart_can_getc>
    9178:	e3500000 	cmp	r0, #0, 0
    917c:	0afffffc 	beq	9174 <uart_getc+0x8>
    9180:	e59f0010 	ldr	r0, [pc, #16]	; 9198 <uart_getc+0x2c>
    9184:	ebfffba8 	bl	802c <GET32>
    9188:	e6ef4070 	uxtb	r4, r0
    918c:	ebffff1e 	bl	8e0c <dev_barrier>
    9190:	e1a00004 	mov	r0, r4
    9194:	e8bd8010 	pop	{r4, pc}
    9198:	20215040 	eorcs	r5, r1, r0, asr #32

0000919c <uart_putc>:
    919c:	e92d4010 	push	{r4, lr}
    91a0:	e1a04000 	mov	r4, r0
    91a4:	ebffff18 	bl	8e0c <dev_barrier>
    91a8:	ebffffe7 	bl	914c <uart_can_putc>
    91ac:	e3500000 	cmp	r0, #0, 0
    91b0:	0afffffc 	beq	91a8 <uart_putc+0xc>
    91b4:	e6ef1074 	uxtb	r1, r4
    91b8:	e59f0008 	ldr	r0, [pc, #8]	; 91c8 <uart_putc+0x2c>
    91bc:	ebfffb98 	bl	8024 <PUT32>
    91c0:	ebffff11 	bl	8e0c <dev_barrier>
    91c4:	e8bd8010 	pop	{r4, pc}
    91c8:	20215040 	eorcs	r5, r1, r0, asr #32

000091cc <uart_has_data>:
    91cc:	e92d4010 	push	{r4, lr}
    91d0:	ebffff0d 	bl	8e0c <dev_barrier>
    91d4:	ebffffd6 	bl	9134 <uart_can_getc>
    91d8:	e8bd8010 	pop	{r4, pc}

000091dc <uart_tx_is_empty>:
    91dc:	e92d4010 	push	{r4, lr}
    91e0:	ebffff09 	bl	8e0c <dev_barrier>
    91e4:	e59f000c 	ldr	r0, [pc, #12]	; 91f8 <uart_tx_is_empty+0x1c>
    91e8:	ebfffb8f 	bl	802c <GET32>
    91ec:	e1a004a0 	lsr	r0, r0, #9
    91f0:	e2000001 	and	r0, r0, #1, 0
    91f4:	e8bd8010 	pop	{r4, pc}
    91f8:	20215064 	eorcs	r5, r1, r4, rrx

000091fc <uart_flush_tx>:
    91fc:	e92d4010 	push	{r4, lr}
    9200:	ebfffff5 	bl	91dc <uart_tx_is_empty>
    9204:	e3500000 	cmp	r0, #0, 0
    9208:	0afffffc 	beq	9200 <uart_flush_tx+0x4>
    920c:	e8bd8010 	pop	{r4, pc}

00009210 <uart_disable>:
    9210:	e92d4010 	push	{r4, lr}
    9214:	ebfffff8 	bl	91fc <uart_flush_tx>
    9218:	ebfffefb 	bl	8e0c <dev_barrier>
    921c:	e3e01001 	mvn	r1, #1, 0
    9220:	e59f0008 	ldr	r0, [pc, #8]	; 9230 <uart_disable+0x20>
    9224:	ebffff86 	bl	9044 <and_in32>
    9228:	ebfffef7 	bl	8e0c <dev_barrier>
    922c:	e8bd8010 	pop	{r4, pc}
    9230:	20215004 	eorcs	r5, r1, r4

00009234 <internal_putchar>:
    9234:	e92d4010 	push	{r4, lr}
    9238:	e1a04000 	mov	r4, r0
    923c:	ebffffd6 	bl	919c <uart_putc>
    9240:	e1a00004 	mov	r0, r4
    9244:	e8bd8010 	pop	{r4, pc}

00009248 <rpi_reset_putc>:
    9248:	e59f3008 	ldr	r3, [pc, #8]	; 9258 <rpi_reset_putc+0x10>
    924c:	e59f2008 	ldr	r2, [pc, #8]	; 925c <rpi_reset_putc+0x14>
    9250:	e5832000 	str	r2, [r3]
    9254:	e12fff1e 	bx	lr
    9258:	00009c34 	andeq	r9, r0, r4, lsr ip
    925c:	00009234 	andeq	r9, r0, r4, lsr r2

00009260 <rpi_set_putc>:
    9260:	e59f3004 	ldr	r3, [pc, #4]	; 926c <rpi_set_putc+0xc>
    9264:	e5830000 	str	r0, [r3]
    9268:	e12fff1e 	bx	lr
    926c:	00009c34 	andeq	r9, r0, r4, lsr ip

00009270 <strcat>:
    9270:	e1a02000 	mov	r2, r0
    9274:	e1a03002 	mov	r3, r2
    9278:	e2822001 	add	r2, r2, #1, 0
    927c:	e5d3c000 	ldrb	ip, [r3]
    9280:	e35c0000 	cmp	ip, #0, 0
    9284:	1afffffa 	bne	9274 <strcat+0x4>
    9288:	e2433001 	sub	r3, r3, #1, 0
    928c:	e5d12000 	ldrb	r2, [r1]
    9290:	e2811001 	add	r1, r1, #1, 0
    9294:	e5e32001 	strb	r2, [r3, #1]!
    9298:	e3520000 	cmp	r2, #0, 0
    929c:	1afffffa 	bne	928c <strcat+0x1c>
    92a0:	e12fff1e 	bx	lr

000092a4 <strcmp>:
    92a4:	e5d03000 	ldrb	r3, [r0]
    92a8:	e3530000 	cmp	r3, #0, 0
    92ac:	0a000004 	beq	92c4 <strcmp+0x20>
    92b0:	e5d12000 	ldrb	r2, [r1]
    92b4:	e1530002 	cmp	r3, r2
    92b8:	02800001 	addeq	r0, r0, #1, 0
    92bc:	02811001 	addeq	r1, r1, #1, 0
    92c0:	0afffff7 	beq	92a4 <strcmp>
    92c4:	e5d10000 	ldrb	r0, [r1]
    92c8:	e0430000 	sub	r0, r3, r0
    92cc:	e12fff1e 	bx	lr

000092d0 <strcpy>:
    92d0:	e1a0c000 	mov	ip, r0
    92d4:	e5d12000 	ldrb	r2, [r1]
    92d8:	e2811001 	add	r1, r1, #1, 0
    92dc:	e5cc2000 	strb	r2, [ip]
    92e0:	e28cc001 	add	ip, ip, #1, 0
    92e4:	e3520000 	cmp	r2, #0, 0
    92e8:	1afffff9 	bne	92d4 <strcpy+0x4>
    92ec:	e12fff1e 	bx	lr

000092f0 <strncmp>:
    92f0:	e3520000 	cmp	r2, #0, 0
    92f4:	e2422001 	sub	r2, r2, #1, 0
    92f8:	0a000005 	beq	9314 <strncmp+0x24>
    92fc:	e4d03001 	ldrb	r3, [r0], #1
    9300:	e4d1c001 	ldrb	ip, [r1], #1
    9304:	e153000c 	cmp	r3, ip
    9308:	0afffff8 	beq	92f0 <strncmp>
    930c:	e043000c 	sub	r0, r3, ip
    9310:	e12fff1e 	bx	lr
    9314:	e3a00000 	mov	r0, #0, 0
    9318:	e12fff1e 	bx	lr

0000931c <reboot_callout>:
    931c:	e12fff1e 	bx	lr

Disassembly of section .rodata:

00009320 <__FUNCTION__.3985-0xf4>:
    9320:	000a4e49 	andeq	r4, sl, r9, asr #28
    9324:	203a6425 	eorscs	r6, sl, r5, lsr #8
    9328:	2b206425 	blcs	8223c4 <__bss_end__+0x81838c>
    932c:	6a642520 	bvs	19127b4 <__bss_end__+0x190877c>
    9330:	0000000a 	andeq	r0, r0, sl
    9334:	4457460a 	ldrbmi	r4, [r7], #-1546	; 0xfffff9f6
    9338:	0000000a 	andeq	r0, r0, sl
    933c:	564e490a 	strbpl	r4, [lr], -sl, lsl #18
    9340:	0000000a 	andeq	r0, r0, sl
    9344:	fc000400 	stc2	4, cr0, [r0], {-0}
    9348:	fc000400 	stc2	4, cr0, [r0], {-0}
    934c:	fc000400 	stc2	4, cr0, [r0], {-0}
    9350:	fc000400 	stc2	4, cr0, [r0], {-0}
    9354:	fc000400 	stc2	4, cr0, [r0], {-0}
    9358:	fc000400 	stc2	4, cr0, [r0], {-0}
    935c:	fc000400 	stc2	4, cr0, [r0], {-0}
    9360:	fc000400 	stc2	4, cr0, [r0], {-0}
    9364:	6573552f 	ldrbvs	r5, [r3, #-1327]!	; 0xfffffad1
    9368:	6a2f7372 	bvs	be6138 <__bss_end__+0xbdc100>
    936c:	65696d61 	strbvs	r6, [r9, #-3425]!	; 0xfffff29f
    9370:	636f442f 	cmnvs	pc, #788529152	; 0x2f000000
    9374:	6e656d75 	mcrvs	13, 3, r6, cr5, cr5, {3}
    9378:	432f7374 			; <UNDEFINED> instruction: 0x432f7374
    937c:	30343153 	eorscc	r3, r4, r3, asr r1
    9380:	73632f45 	cmnvc	r3, #276	; 0x114
    9384:	45303431 	ldrmi	r3, [r0, #-1073]!	; 0xfffffbcf
    9388:	6e69662d 	cdpvs	6, 6, cr6, cr9, cr13, {1}
    938c:	702d6c61 	eorvc	r6, sp, r1, ror #24
    9390:	656a6f72 	strbvs	r6, [sl, #-3954]!	; 0xfffff08e
    9394:	6c2f7463 	cfstrsvs	mvf7, [pc], #-396	; 9210 <uart_disable>
    9398:	2d736269 	lfmcs	f6, 2, [r3, #-420]!	; 0xfffffe5c
    939c:	6c303432 	cfldrsvs	mvf3, [r0], #-200	; 0xffffff38
    93a0:	696c2f78 	stmdbvs	ip!, {r3, r4, r5, r6, r8, r9, sl, fp, sp}^
    93a4:	2f697062 	svccs	0x00697062
    93a8:	6362696c 	cmnvs	r2, #108, 18	; 0x1b0000
    93ac:	7469622f 	strbtvc	r6, [r9], #-559	; 0xfffffdd1
    93b0:	7075732d 	rsbsvc	r7, r5, sp, lsr #6
    93b4:	74726f70 	ldrbtvc	r6, [r2], #-3952	; 0xfffff090
    93b8:	0000682e 	andeq	r6, r0, lr, lsr #16
    93bc:	494e4150 	stmdbmi	lr, {r4, r6, r8, lr}^
    93c0:	73253a43 			; <UNDEFINED> instruction: 0x73253a43
    93c4:	3a73253a 	bcc	1cd28b4 <__bss_end__+0x1cc887c>
    93c8:	253a6425 	ldrcs	r6, [sl, #-1061]!	; 0xfffffbdb
    93cc:	00000a73 	andeq	r0, r0, r3, ror sl
    93d0:	74696228 	strbtvc	r6, [r9], #-552	; 0xfffffdd8
    93d4:	616d5f73 	smcvs	54771	; 0xd5f3
    93d8:	6e286b73 	vmovvs.16	d8[3], r6
    93dc:	20262029 	eorcs	r2, r6, r9, lsr #32
    93e0:	3d202976 			; <UNDEFINED> instruction: 0x3d202976
    93e4:	0076203d 	rsbseq	r2, r6, sp, lsr r0
    93e8:	2e733269 	cdpcs	2, 7, cr3, cr3, cr9, {3}
    93ec:	00000063 	andeq	r0, r0, r3, rrx
    93f0:	5f746962 	svcpl	0x00746962
    93f4:	6f5f7369 	svcvs	0x005f7369
    93f8:	47286666 	strmi	r6, [r8, -r6, ror #12]!
    93fc:	32335445 	eorscc	r5, r3, #1157627904	; 0x45000000
    9400:	5f534328 	svcpl	0x00534328
    9404:	202c2941 	eorcs	r2, ip, r1, asr #18
    9408:	5f533249 	svcpl	0x00533249
    940c:	455f5343 	ldrbmi	r5, [pc, #-835]	; 90d1 <uart_init+0x4d>
    9410:	0000294e 	andeq	r2, r0, lr, asr #18

00009414 <__FUNCTION__.3985>:
    9414:	73746962 	cmnvc	r4, #1605632	; 0x188000
    9418:	7465735f 	strbtvc	r7, [r5], #-863	; 0xfffffca1
    941c:	00000000 	andeq	r0, r0, r0

00009420 <__FUNCTION__.4099>:
    9420:	5f733269 	svcpl	0x00733269
    9424:	74696e69 	strbtvc	r6, [r9], #-3689	; 0xfffff197
    9428:	00000000 	andeq	r0, r0, r0
    942c:	2e746666 	cdpcs	6, 7, cr6, cr4, cr6, {3}
    9430:	00000063 	andeq	r0, r0, r3, rrx
    9434:	494e4150 	stmdbmi	lr, {r4, r6, r8, lr}^
    9438:	73253a43 			; <UNDEFINED> instruction: 0x73253a43
    943c:	3a73253a 	bcc	1cd292c <__bss_end__+0x1cc88f4>
    9440:	663a6425 	ldrtvs	r6, [sl], -r5, lsr #8
    9444:	665f7466 	ldrbvs	r7, [pc], -r6, ror #8
    9448:	64657869 	strbtvs	r7, [r5], #-2153	; 0xfffff797
    944c:	6666635f 			; <UNDEFINED> instruction: 0x6666635f
    9450:	46203a74 			; <UNDEFINED> instruction: 0x46203a74
    9454:	74205446 	strtvc	r5, [r0], #-1094	; 0xfffffbba
    9458:	6c206f6f 	stcvs	15, cr6, [r0], #-444	; 0xfffffe44
    945c:	0a676e6f 	beq	19e4e20 <__bss_end__+0x19dade8>
    9460:	00000000 	andeq	r0, r0, r0
    9464:	494e4150 	stmdbmi	lr, {r4, r6, r8, lr}^
    9468:	73253a43 			; <UNDEFINED> instruction: 0x73253a43
    946c:	3a73253a 	bcc	1cd295c <__bss_end__+0x1cc8924>
    9470:	663a6425 	ldrtvs	r6, [sl], -r5, lsr #8
    9474:	665f7466 	ldrbvs	r7, [pc], -r6, ror #8
    9478:	64657869 	strbtvs	r7, [r5], #-2153	; 0xfffff797
    947c:	6666725f 			; <UNDEFINED> instruction: 0x6666725f
    9480:	73203a74 			; <UNDEFINED> instruction: 0x73203a74
    9484:	736d6565 	cmnvc	sp, #423624704	; 0x19400000
    9488:	6f726220 	svcvs	0x00726220
    948c:	0a6e656b 	beq	1ba2a40 <__bss_end__+0x1b98a08>
    9490:	00000000 	andeq	r0, r0, r0

00009494 <__FUNCTION__.3971>:
    9494:	5f746666 	svcpl	0x00746666
    9498:	65786966 	ldrbvs	r6, [r8, #-2406]!	; 0xfffff69a
    949c:	66635f64 	strbtvs	r5, [r3], -r4, ror #30
    94a0:	00007466 	andeq	r7, r0, r6, ror #8

000094a4 <__FUNCTION__.4016>:
    94a4:	5f746666 	svcpl	0x00746666
    94a8:	65786966 	ldrbvs	r6, [r8, #-2406]!	; 0xfffff69a
    94ac:	66725f64 	ldrbtvs	r5, [r2], -r4, ror #30
    94b0:	00007466 	andeq	r7, r0, r6, ror #8
    94b4:	696c2f2e 	stmdbvs	ip!, {r1, r2, r3, r5, r8, r9, sl, fp, sp}^
    94b8:	762f6362 	strtvc	r6, [pc], -r2, ror #6
    94bc:	72702d61 	rsbsvc	r2, r0, #6208	; 0x1840
    94c0:	6b746e69 	blvs	1d24e6c <__bss_end__+0x1d1ae34>
    94c4:	0000632e 	andeq	r6, r0, lr, lsr #6
    94c8:	00000030 	andeq	r0, r0, r0, lsr r0
    94cc:	33323130 	teqcc	r2, #12
    94d0:	37363534 			; <UNDEFINED> instruction: 0x37363534
    94d4:	00003938 	andeq	r3, r0, r8, lsr r9
    94d8:	33323130 	teqcc	r2, #12
    94dc:	37363534 			; <UNDEFINED> instruction: 0x37363534
    94e0:	62613938 	rsbvs	r3, r1, #56, 18	; 0xe0000
    94e4:	66656463 	strbtvs	r6, [r5], -r3, ror #8
    94e8:	00000000 	andeq	r0, r0, r0
    94ec:	00003130 	andeq	r3, r0, r0, lsr r1
    94f0:	63747570 	cmnvs	r4, #112, 10	; 0x1c000000
    94f4:	0070665f 	rsbseq	r6, r0, pc, asr r6
    94f8:	74646977 	strbtvc	r6, [r4], #-2423	; 0xfffff689
    94fc:	203c2068 	eorscs	r2, ip, r8, rrx
    9500:	00003233 	andeq	r3, r0, r3, lsr r2
    9504:	00786c6c 	rsbseq	r6, r8, ip, ror #24
    9508:	00646c6c 	rsbeq	r6, r4, ip, ror #24
    950c:	253d3078 	ldrcs	r3, [sp, #-120]!	; 0xffffff88
    9510:	00000a78 	andeq	r0, r0, r8, ror sl
    9514:	253d3178 	ldrcs	r3, [sp, #-376]!	; 0xfffffe88
    9518:	00000a78 	andeq	r0, r0, r8, ror sl
    951c:	6e727473 	mrcvs	4, 3, r7, cr2, cr3, {3}
    9520:	28706d63 	ldmdacs	r0!, {r0, r1, r5, r6, r8, sl, fp, sp, lr}^
    9524:	202c7974 	eorcs	r7, ip, r4, ror r9
    9528:	786c6c22 	stmdavc	ip!, {r1, r5, sl, fp, sp, lr}^
    952c:	33202c22 			; <UNDEFINED> instruction: 0x33202c22
    9530:	3d3d2029 	ldccc	0, cr2, [sp, #-164]!	; 0xffffff5c
    9534:	7c203020 	stcvc	0, cr3, [r0], #-128	; 0xffffff80
    9538:	7473207c 	ldrbtvc	r2, [r3], #-124	; 0xffffff84
    953c:	6d636e72 	stclvs	14, cr6, [r3, #-456]!	; 0xfffffe38
    9540:	79742870 	ldmdbvc	r4!, {r4, r5, r6, fp, sp}^
    9544:	6c22202c 	stcvs	0, cr2, [r2], #-176	; 0xffffff50
    9548:	2c22646c 	cfstrscs	mvf6, [r2], #-432	; 0xfffffe50
    954c:	20293320 	eorcs	r3, r9, r0, lsr #6
    9550:	30203d3d 	eorcc	r3, r0, sp, lsr sp
    9554:	00000000 	andeq	r0, r0, r0
    9558:	494e4150 	stmdbmi	lr, {r4, r6, r8, lr}^
    955c:	73253a43 			; <UNDEFINED> instruction: 0x73253a43
    9560:	3a73253a 	bcc	1cd2a50 <__bss_end__+0x1cc8a18>
    9564:	693a6425 	ldmdbvs	sl!, {r0, r2, r5, sl, sp, lr}
    9568:	736f706d 	cmnvc	pc, #109, 0	; 0x6d
    956c:	6c626973 			; <UNDEFINED> instruction: 0x6c626973
    9570:	66203a65 	strtvs	r3, [r0], -r5, ror #20
    9574:	3c3d746d 	cfldrscc	mvf7, [sp], #-436	; 0xfffffe4c
    9578:	0a3e7325 	beq	fa6214 <__bss_end__+0xf9c1dc>
    957c:	0000000a 	andeq	r0, r0, sl
    9580:	494e4150 	stmdbmi	lr, {r4, r6, r8, lr}^
    9584:	73253a43 			; <UNDEFINED> instruction: 0x73253a43
    9588:	3a73253a 	bcc	1cd2a78 <__bss_end__+0x1cc8a40>
    958c:	663a6425 	ldrtvs	r6, [sl], -r5, lsr #8
    9590:	74616f6c 	strbtvc	r6, [r1], #-3948	; 0xfffff094
    9594:	746f6e20 	strbtvc	r6, [pc], #-3616	; 959c <__FUNCTION__.4016+0xf8>
    9598:	616e6520 	cmnvs	lr, r0, lsr #10
    959c:	64656c62 	strbtvs	r6, [r5], #-3170	; 0xfffff39e
    95a0:	0a212121 	beq	851a2c <__bss_end__+0x8479f4>
    95a4:	00000000 	andeq	r0, r0, r0
    95a8:	6e697270 	mcrvs	2, 3, r7, cr9, cr0, {3}
    95ac:	203a6b74 	eorscs	r6, sl, r4, ror fp
    95b0:	20746f6e 	rsbscs	r6, r4, lr, ror #30
    95b4:	646e6168 	strbtvs	r6, [lr], #-360	; 0xfffffe98
    95b8:	676e696c 	strbvs	r6, [lr, -ip, ror #18]!
    95bc:	65707320 	ldrbvs	r7, [r0, #-800]!	; 0xfffffce0
    95c0:	69666963 	stmdbvs	r6!, {r0, r1, r5, r6, r8, fp, sp, lr}^
    95c4:	27207265 	strcs	r7, [r0, -r5, ror #4]!
    95c8:	20276325 	eorcs	r6, r7, r5, lsr #6
    95cc:	63736128 	cmnvs	r3, #10
    95d0:	253d6969 	ldrcs	r6, [sp, #-2409]!	; 0xfffff697
    95d4:	000a2964 	andeq	r2, sl, r4, ror #18
    95d8:	494e4150 	stmdbmi	lr, {r4, r6, r8, lr}^
    95dc:	73253a43 			; <UNDEFINED> instruction: 0x73253a43
    95e0:	3a73253a 	bcc	1cd2ad0 <__bss_end__+0x1cc8a98>
    95e4:	703a6425 	eorsvc	r6, sl, r5, lsr #8
    95e8:	746e6972 	strbtvc	r6, [lr], #-2418	; 0xfffff68e
    95ec:	7265206b 	rsbvc	r2, r5, #107, 0	; 0x6b
    95f0:	0a726f72 	beq	1ca53c0 <__bss_end__+0x1c9b388>
    95f4:	0000000a 	andeq	r0, r0, sl

000095f8 <__FUNCTION__.4008>:
    95f8:	74696d65 	strbtvc	r6, [r9], #-3429	; 0xfffff29b
    95fc:	00000000 	andeq	r0, r0, r0

00009600 <__FUNCTION__.3956>:
    9600:	5f697072 	svcpl	0x00697072
    9604:	5f746573 	svcpl	0x00746573
    9608:	7074756f 	rsbsvc	r7, r4, pc, ror #10
    960c:	00007475 	andeq	r7, r0, r5, ror r4

00009610 <__FUNCTION__.4034>:
    9610:	705f6176 	subsvc	r6, pc, r6, ror r1	; <UNPREDICTABLE>
    9614:	746e6972 	strbtvc	r6, [lr], #-2418	; 0xfffff68e
    9618:	0000006b 	andeq	r0, r0, fp, rrx
    961c:	454e4f44 	strbmi	r4, [lr, #-3908]	; 0xfffff0bc
    9620:	0a212121 	beq	851aac <__bss_end__+0x847a74>
	...

Disassembly of section .data:

00009628 <cm_regs>:
    9628:	20101000 	andscs	r1, r0, r0

0000962c <i2s_regs>:
    962c:	20203000 	eorcs	r3, r0, r0

00009630 <FFT_SINE_LUT>:
    9630:	00c90000 	sbceq	r0, r9, r0
    9634:	025b0192 	subseq	r0, fp, #-2147483612	; 0x80000024
    9638:	03ed0324 	mvneq	r0, #36, 6	; 0x90000000
    963c:	057e04b6 	ldrbeq	r0, [lr, #-1206]!	; 0xfffffb4a
    9640:	07100647 	ldreq	r0, [r0, -r7, asr #12]
    9644:	08a107d9 	stmiaeq	r1!, {r0, r3, r4, r6, r7, r8, r9, sl}
    9648:	0a32096a 	beq	c8bbf8 <__bss_end__+0xc81bc0>
    964c:	0bc30afb 	bleq	ff0cc240 <__bss_end__+0xff0c2208>
    9650:	0d530c8b 	ldcleq	12, cr0, [r3, #-556]	; 0xfffffdd4
    9654:	0ee30e1b 	mcreq	14, 7, r0, cr3, cr11, {0}
    9658:	10720fab 	rsbsne	r0, r2, fp, lsr #31
    965c:	12001139 	andne	r1, r0, #1073741838	; 0x4000000e
    9660:	138e12c7 	orrne	r1, lr, #1879048204	; 0x7000000c
    9664:	151b1455 	ldrne	r1, [fp, #-1109]	; 0xfffffbab
    9668:	16a715e1 	strtne	r1, [r7], r1, ror #11
    966c:	1833176d 	ldmdane	r3!, {r0, r2, r3, r5, r6, r8, r9, sl, ip}
    9670:	19bd18f8 	ldmibne	sp!, {r3, r4, r5, r6, r7, fp, ip}
    9674:	1b461a82 	blne	1190084 <__bss_end__+0x118604c>
    9678:	1ccf1c0b 	stclne	12, cr1, [pc], {11}
    967c:	1e561d93 	mrcne	13, 2, r1, cr6, cr3, {4}
    9680:	1fdc1f19 	svcne	0x00dc1f19
    9684:	2161209f 			; <UNDEFINED> instruction: 0x2161209f
    9688:	22e42223 	rsccs	r2, r4, #805306370	; 0x30000002
    968c:	246723a6 	strbtcs	r2, [r7], #-934	; 0xfffffc5a
    9690:	25e72527 	strbcs	r2, [r7, #1319]!	; 0x527
    9694:	276726a7 	strbcs	r2, [r7, -r7, lsr #13]!
    9698:	28e52826 	stmiacs	r5!, {r1, r2, r5, fp, sp}^
    969c:	2a6129a3 	bcs	1853d30 <__bss_end__+0x1849cf8>
    96a0:	2bdb2b1e 	blcs	ff6d4320 <__bss_end__+0xff6ca2e8>
    96a4:	2d542c98 	ldclcs	12, cr2, [r4, #-608]	; 0xfffffda0
    96a8:	2ecc2e10 	mcrcs	14, 6, r2, cr12, cr0, {0}
    96ac:	30412f86 	subcc	r2, r1, r6, lsl #31
    96b0:	31b430fb 	ldrshcc	r3, [r4, fp]!
    96b4:	3326326d 			; <UNDEFINED> instruction: 0x3326326d
    96b8:	349633de 	ldrcc	r3, [r6], #990	; 0x3de
    96bc:	3603354d 	strcc	r3, [r3], -sp, asr #10
    96c0:	376f36b9 			; <UNDEFINED> instruction: 0x376f36b9
    96c4:	38d83824 	ldmcc	r8, {r2, r5, fp, ip, sp}^
    96c8:	3a3f398c 	bcc	fd7d00 <__bss_end__+0xfcdcc8>
    96cc:	3ba43af2 	blcc	fe91829c <__bss_end__+0xfe90e264>
    96d0:	3d073c56 	stccc	12, cr3, [r7, #-344]	; 0xfffffea8
    96d4:	3e673db7 	mcrcc	13, 3, r3, cr7, cr7, {5}
    96d8:	3fc53f16 	svccc	0x00c53f16
    96dc:	41204073 			; <UNDEFINED> instruction: 0x41204073
    96e0:	427941cd 	rsbsmi	r4, r9, #1073741875	; 0x40000033
    96e4:	43d04325 	bicsmi	r4, r0, #-1811939328	; 0x94000000
    96e8:	4523447a 	strmi	r4, [r3, #-1146]!	; 0xfffffb86
    96ec:	467445cc 	ldrbtmi	r4, [r4], -ip, asr #11
    96f0:	47c3471c 	bfimi	r4, ip, (invalid: 14:3)
    96f4:	490e4869 	stmdbmi	lr, {r0, r3, r5, r6, fp, lr}
    96f8:	4a5749b3 	bmi	15dbdcc <__bss_end__+0x15d1d94>
    96fc:	4b9d4afa 	blmi	fe75c2ec <__bss_end__+0xfe7522b4>
    9700:	4ce04c3f 	stclmi	12, cr4, [r0], #252	; 0xfc
    9704:	4e204d80 	cdpmi	13, 2, cr4, cr0, cr0, {4}
    9708:	4f5d4ebf 	svcmi	0x005d4ebf
    970c:	50974ffa 			; <UNDEFINED> instruction: 0x50974ffa
    9710:	51ce5133 	bicpl	r5, lr, r3, lsr r1
    9714:	53015268 	movwpl	r5, #4712	; 0x1268
    9718:	5432539a 	ldrtpl	r5, [r2], #-922	; 0xfffffc66
    971c:	555f54c9 	ldrbpl	r5, [pc, #-1225]	; 925b <rpi_reset_putc+0x13>
    9720:	568955f4 			; <UNDEFINED> instruction: 0x568955f4
    9724:	57b0571d 			; <UNDEFINED> instruction: 0x57b0571d
    9728:	58d35842 	ldmpl	r3, {r1, r6, fp, ip, lr}^
    972c:	59f35963 	ldmibpl	r3!, {r0, r1, r5, r6, r8, fp, ip, lr}^
    9730:	5b0f5a81 	blpl	3e013c <__bss_end__+0x3d6104>
    9734:	5c285b9c 			; <UNDEFINED> instruction: 0x5c285b9c
    9738:	5d3d5cb3 	ldcpl	12, cr5, [sp, #-716]!	; 0xfffffd34
    973c:	5e4f5dc6 	cdppl	13, 4, cr5, cr15, cr6, {6}
    9740:	5f5d5ed6 	svcpl	0x005d5ed6
    9744:	60675fe2 	rsbvs	r5, r7, r2, ror #31
    9748:	616e60eb 	cmnvs	lr, fp, ror #1
    974c:	627161f0 	rsbsvs	r6, r1, #60	; 0x3c
    9750:	637062f1 	cmnvs	r0, #268435471	; 0x1000000f
    9754:	646b63ee 	strbtvs	r6, [fp], #-1006	; 0xfffffc12
    9758:	656264e7 	strbvs	r6, [r2, #-1255]!	; 0xfffffb19
    975c:	665665dd 			; <UNDEFINED> instruction: 0x665665dd
    9760:	674566ce 	strbvs	r6, [r5, -lr, asr #13]
    9764:	683167bc 	ldmdavs	r1!, {r2, r3, r4, r5, r7, r8, r9, sl, sp, lr}
    9768:	691968a5 	ldmdbvs	r9, {r0, r2, r5, r7, fp, sp, lr}
    976c:	69fc698b 	ldmibvs	ip!, {r0, r1, r3, r7, r8, fp, sp, lr}^
    9770:	6adb6a6c 	bvs	ff6e4128 <__bss_end__+0xff6da0f0>
    9774:	6bb76b4a 	blvs	fede44a4 <__bss_end__+0xfedda46c>
    9778:	6c8e6c23 	stcvs	12, cr6, [lr], {35}	; 0x23
    977c:	6d616cf8 	stclvs	12, cr6, [r1, #-992]!	; 0xfffffc20
    9780:	6e306dc9 	cdpvs	13, 3, cr6, cr0, cr9, {6}
    9784:	6efa6e95 	mrcvs	14, 7, r6, cr10, cr5, {4}
    9788:	6fc06f5e 	svcvs	0x00c06f5e
    978c:	70827022 	addvc	r7, r2, r2, lsr #32
    9790:	714070e1 	smlalttvc	r7, r0, r1, r0
    9794:	71f9719d 			; <UNDEFINED> instruction: 0x71f9719d
    9798:	72ae7254 	adcvc	r7, lr, #84, 4	; 0x40000005
    979c:	735e7306 	cmpvc	lr, #402653184	; 0x18000000
    97a0:	740a73b5 	strvc	r7, [sl], #-949	; 0xfffffc4b
    97a4:	74b1745e 	ldrtvc	r7, [r1], #1118	; 0x45e
    97a8:	75547503 	ldrbvc	r7, [r4, #-1283]	; 0xfffffafd
    97ac:	75f375a4 	ldrbvc	r7, [r3, #1444]!	; 0x5a4
    97b0:	768d7640 	strvc	r7, [sp], r0, asr #12
    97b4:	772276d8 			; <UNDEFINED> instruction: 0x772276d8
    97b8:	77b3776b 	ldrvc	r7, [r3, fp, ror #14]!
    97bc:	783f77f9 	ldmdavc	pc!, {r0, r3, r4, r5, r6, r7, r8, r9, sl, ip, sp, lr}	; <UNPREDICTABLE>
    97c0:	78c67883 	stmiavc	r6, {r0, r1, r7, fp, ip, sp, lr}^
    97c4:	79497908 	stmdbvc	r9, {r3, r8, fp, ip, sp, lr}^
    97c8:	79c77989 	stmibvc	r7, {r0, r3, r7, r8, fp, ip, sp, lr}^
    97cc:	7a417a04 	bvc	1067fe4 <__bss_end__+0x105dfac>
    97d0:	7ab57a7c 	bvc	fed681c8 <__bss_end__+0xfed5e190>
    97d4:	7b257aee 	blvc	968394 <__bss_end__+0x95e35c>
    97d8:	7b917b5c 	blvc	fe468550 <__bss_end__+0xfe45e518>
    97dc:	7bf77bc4 	blvc	ffde86f4 <__bss_end__+0xffdde6bc>
    97e0:	7c597c29 	mrrcvc	12, 2, r7, r9, cr9
    97e4:	7cb67c88 	ldcvc	12, cr7, [r6], #544	; 0x220
    97e8:	7d0e7ce2 	stcvc	12, cr7, [lr, #-904]	; 0xfffffc78
    97ec:	7d617d38 	stclvc	13, cr7, [r1, #-224]!	; 0xffffff20
    97f0:	7db07d89 	ldcvc	13, cr7, [r0, #548]!	; 0x224
    97f4:	7df97dd5 	ldclvc	13, cr7, [r9, #852]!	; 0x354
    97f8:	7e3e7e1c 	mrcvc	14, 1, r7, cr14, cr12, {0}
    97fc:	7e7e7e5e 	mrcvc	14, 3, r7, cr14, cr14, {2}
    9800:	7eb97e9c 	mrcvc	14, 5, r7, cr9, cr12, {4}
    9804:	7eef7ed4 	mcrvc	14, 7, r7, cr15, cr4, {6}
    9808:	7f207f08 	svcvc	0x00207f08
    980c:	7f4c7f37 	svcvc	0x004c7f37
    9810:	7f747f61 	svcvc	0x00747f61
    9814:	7f967f86 	svcvc	0x00967f86
    9818:	7fb47fa6 	svcvc	0x00b47fa6
    981c:	7fcd7fc1 	svcvc	0x00cd7fc1
    9820:	7fe07fd7 	svcvc	0x00e07fd7
    9824:	7fef7fe8 	svcvc	0x00ef7fe8
    9828:	7ff97ff5 	svcvc	0x00f97ff5
    982c:	7ffe7ffc 	svcvc	0x00fe7ffc
    9830:	7ffe7fff 	svcvc	0x00fe7fff
    9834:	7ff97ffc 	svcvc	0x00f97ffc
    9838:	7fef7ff5 	svcvc	0x00ef7ff5
    983c:	7fe07fe8 	svcvc	0x00e07fe8
    9840:	7fcd7fd7 	svcvc	0x00cd7fd7
    9844:	7fb47fc1 	svcvc	0x00b47fc1
    9848:	7f967fa6 	svcvc	0x00967fa6
    984c:	7f747f86 	svcvc	0x00747f86
    9850:	7f4c7f61 	svcvc	0x004c7f61
    9854:	7f207f37 	svcvc	0x00207f37
    9858:	7eef7f08 	cdpvc	15, 14, cr7, cr15, cr8, {0}
    985c:	7eb97ed4 	mrcvc	14, 5, r7, cr9, cr4, {6}
    9860:	7e7e7e9c 	mrcvc	14, 3, r7, cr14, cr12, {4}
    9864:	7e3e7e5e 	mrcvc	14, 1, r7, cr14, cr14, {2}
    9868:	7df97e1c 	ldclvc	14, cr7, [r9, #112]!	; 0x70
    986c:	7db07dd5 	ldcvc	13, cr7, [r0, #852]!	; 0x354
    9870:	7d617d89 	stclvc	13, cr7, [r1, #-548]!	; 0xfffffddc
    9874:	7d0e7d38 	stcvc	13, cr7, [lr, #-224]	; 0xffffff20
    9878:	7cb67ce2 	ldcvc	12, cr7, [r6], #904	; 0x388
    987c:	7c597c88 	mrrcvc	12, 8, r7, r9, cr8
    9880:	7bf77c29 	blvc	ffde892c <__bss_end__+0xffdde8f4>
    9884:	7b917bc4 	blvc	fe46879c <__bss_end__+0xfe45e764>
    9888:	7b257b5c 	blvc	968600 <__bss_end__+0x95e5c8>
    988c:	7ab57aee 	bvc	fed6844c <__bss_end__+0xfed5e414>
    9890:	7a417a7c 	bvc	1068288 <__bss_end__+0x105e250>
    9894:	79c77a04 	stmibvc	r7, {r2, r9, fp, ip, sp, lr}^
    9898:	79497989 	stmdbvc	r9, {r0, r3, r7, r8, fp, ip, sp, lr}^
    989c:	78c67908 	stmiavc	r6, {r3, r8, fp, ip, sp, lr}^
    98a0:	783f7883 	ldmdavc	pc!, {r0, r1, r7, fp, ip, sp, lr}	; <UNPREDICTABLE>
    98a4:	77b377f9 			; <UNDEFINED> instruction: 0x77b377f9
    98a8:	7722776b 	strvc	r7, [r2, -fp, ror #14]!
    98ac:	768d76d8 	pkhtbvc	r7, sp, r8, asr #13
    98b0:	75f37640 	ldrbvc	r7, [r3, #1600]!	; 0x640
    98b4:	755475a4 	ldrbvc	r7, [r4, #-1444]	; 0xfffffa5c
    98b8:	74b17503 	ldrtvc	r7, [r1], #1283	; 0x503
    98bc:	740a745e 	strvc	r7, [sl], #-1118	; 0xfffffba2
    98c0:	735e73b5 	cmpvc	lr, #-738197502	; 0xd4000002
    98c4:	72ae7306 	adcvc	r7, lr, #402653184	; 0x18000000
    98c8:	71f97254 	mvnsvc	r7, r4, asr r2
    98cc:	7140719d 			; <UNDEFINED> instruction: 0x7140719d
    98d0:	708270e1 	addvc	r7, r2, r1, ror #1
    98d4:	6fc07022 	svcvs	0x00c07022
    98d8:	6efa6f5e 	mrcvs	15, 7, r6, cr10, cr14, {2}
    98dc:	6e306e95 	mrcvs	14, 1, r6, cr0, cr5, {4}
    98e0:	6d616dc9 	stclvs	13, cr6, [r1, #-804]!	; 0xfffffcdc
    98e4:	6c8e6cf8 	stcvs	12, cr6, [lr], {248}	; 0xf8
    98e8:	6bb76c23 	blvs	fede497c <__bss_end__+0xfedda944>
    98ec:	6adb6b4a 	bvs	ff6e461c <__bss_end__+0xff6da5e4>
    98f0:	69fc6a6c 	ldmibvs	ip!, {r2, r3, r5, r6, r9, fp, sp, lr}^
    98f4:	6919698b 	ldmdbvs	r9, {r0, r1, r3, r7, r8, fp, sp, lr}
    98f8:	683168a5 	ldmdavs	r1!, {r0, r2, r5, r7, fp, sp, lr}
    98fc:	674567bc 			; <UNDEFINED> instruction: 0x674567bc
    9900:	665666ce 	ldrbvs	r6, [r6], -lr, asr #13
    9904:	656265dd 	strbvs	r6, [r2, #-1501]!	; 0xfffffa23
    9908:	646b64e7 	strbtvs	r6, [fp], #-1255	; 0xfffffb19
    990c:	637063ee 	cmnvs	r0, #-1207959549	; 0xb8000003
    9910:	627162f1 	rsbsvs	r6, r1, #268435471	; 0x1000000f
    9914:	616e61f0 	strdvs	r6, [lr, #-16]!
    9918:	606760eb 	rsbvs	r6, r7, fp, ror #1
    991c:	5f5d5fe2 	svcpl	0x005d5fe2
    9920:	5e4f5ed6 	mcrpl	14, 2, r5, cr15, cr6, {6}
    9924:	5d3d5dc6 	ldcpl	13, cr5, [sp, #-792]!	; 0xfffffce8
    9928:	5c285cb3 	stcpl	12, cr5, [r8], #-716	; 0xfffffd34
    992c:	5b0f5b9c 	blpl	3e07a4 <__bss_end__+0x3d676c>
    9930:	59f35a81 	ldmibpl	r3!, {r0, r7, r9, fp, ip, lr}^
    9934:	58d35963 	ldmpl	r3, {r0, r1, r5, r6, r8, fp, ip, lr}^
    9938:	57b05842 	ldrpl	r5, [r0, r2, asr #16]!
    993c:	5689571d 	pkhbtpl	r5, r9, sp, lsl #14
    9940:	555f55f4 	ldrbpl	r5, [pc, #-1524]	; 9354 <__code_end__+0x34>
    9944:	543254c9 	ldrtpl	r5, [r2], #-1225	; 0xfffffb37
    9948:	5301539a 	movwpl	r5, #5018	; 0x139a
    994c:	51ce5268 	bicpl	r5, lr, r8, ror #4
    9950:	50975133 	addspl	r5, r7, r3, lsr r1
    9954:	4f5d4ffa 	svcmi	0x005d4ffa
    9958:	4e204ebf 	mcrmi	14, 1, r4, cr0, cr15, {5}
    995c:	4ce04d80 	stclmi	13, cr4, [r0], #512	; 0x200
    9960:	4b9d4c3f 	blmi	fe75ca64 <__bss_end__+0xfe752a2c>
    9964:	4a574afa 	bmi	15dc554 <__bss_end__+0x15d251c>
    9968:	490e49b3 	stmdbmi	lr, {r0, r1, r4, r5, r7, r8, fp, lr}
    996c:	47c34869 	strbmi	r4, [r3, r9, ror #16]
    9970:	4674471c 			; <UNDEFINED> instruction: 0x4674471c
    9974:	452345cc 	strmi	r4, [r3, #-1484]!	; 0xfffffa34
    9978:	43d0447a 	bicsmi	r4, r0, #2046820352	; 0x7a000000
    997c:	42794325 	rsbsmi	r4, r9, #-1811939328	; 0x94000000
    9980:	412041cd 	smlawtmi	r0, sp, r1, r4
    9984:	3fc54073 	svccc	0x00c54073
    9988:	3e673f16 	mcrcc	15, 3, r3, cr7, cr6, {0}
    998c:	3d073db7 	stccc	13, cr3, [r7, #-732]	; 0xfffffd24
    9990:	3ba43c56 	blcc	fe918af0 <__bss_end__+0xfe90eab8>
    9994:	3a3f3af2 	bcc	fd8564 <__bss_end__+0xfce52c>
    9998:	38d8398c 	ldmcc	r8, {r2, r3, r7, r8, fp, ip, sp}^
    999c:	376f3824 	strbcc	r3, [pc, -r4, lsr #16]!
    99a0:	360336b9 			; <UNDEFINED> instruction: 0x360336b9
    99a4:	3496354d 	ldrcc	r3, [r6], #1357	; 0x54d
    99a8:	332633de 			; <UNDEFINED> instruction: 0x332633de
    99ac:	31b4326d 			; <UNDEFINED> instruction: 0x31b4326d
    99b0:	304130fb 	strdcc	r3, [r1], #-11
    99b4:	2ecc2f86 	cdpcs	15, 12, cr2, cr12, cr6, {4}
    99b8:	2d542e10 	ldclcs	14, cr2, [r4, #-64]	; 0xffffffc0
    99bc:	2bdb2c98 	blcs	ff6d4c24 <__bss_end__+0xff6cabec>
    99c0:	2a612b1e 	bcs	1854640 <__bss_end__+0x184a608>
    99c4:	28e529a3 	stmiacs	r5!, {r0, r1, r5, r7, r8, fp, sp}^
    99c8:	27672826 	strbcs	r2, [r7, -r6, lsr #16]!
    99cc:	25e726a7 	strbcs	r2, [r7, #1703]!	; 0x6a7
    99d0:	24672527 	strbtcs	r2, [r7], #-1319	; 0xfffffad9
    99d4:	22e423a6 	rsccs	r2, r4, #-1744830462	; 0x98000002
    99d8:	21612223 	cmncs	r1, r3, lsr #4
    99dc:	1fdc209f 	svcne	0x00dc209f
    99e0:	1e561f19 	mrcne	15, 2, r1, cr6, cr9, {0}
    99e4:	1ccf1d93 	stclne	13, cr1, [pc], {147}	; 0x93
    99e8:	1b461c0b 	blne	1190a1c <__bss_end__+0x11869e4>
    99ec:	19bd1a82 	ldmibne	sp!, {r1, r7, r9, fp, ip}
    99f0:	183318f8 	ldmdane	r3!, {r3, r4, r5, r6, r7, fp, ip}
    99f4:	16a7176d 	strtne	r1, [r7], sp, ror #14
    99f8:	151b15e1 	ldrne	r1, [fp, #-1505]	; 0xfffffa1f
    99fc:	138e1455 	orrne	r1, lr, #1426063360	; 0x55000000
    9a00:	120012c7 	andne	r1, r0, #1879048204	; 0x7000000c
    9a04:	10721139 	rsbsne	r1, r2, r9, lsr r1
    9a08:	0ee30fab 	cdpeq	15, 14, cr0, cr3, cr11, {5}
    9a0c:	0d530e1b 	ldcleq	14, cr0, [r3, #-108]	; 0xffffff94
    9a10:	0bc30c8b 	bleq	ff0ccc44 <__bss_end__+0xff0c2c0c>
    9a14:	0a320afb 	beq	c8c608 <__bss_end__+0xc825d0>
    9a18:	08a1096a 	stmiaeq	r1!, {r1, r3, r5, r6, r8, fp}
    9a1c:	071007d9 			; <UNDEFINED> instruction: 0x071007d9
    9a20:	057e0647 	ldrbeq	r0, [lr, #-1607]!	; 0xfffff9b9
    9a24:	03ed04b6 	mvneq	r0, #-1241513984	; 0xb6000000
    9a28:	025b0324 	subseq	r0, fp, #36, 6	; 0x90000000
    9a2c:	00c90192 	smulleq	r0, r9, r2, r1
    9a30:	ff370000 			; <UNDEFINED> instruction: 0xff370000
    9a34:	fda5fe6e 	stc2	14, cr15, [r5, #440]!	; 0x1b8
    9a38:	fc13fcdc 	ldc2	12, cr15, [r3], {220}	; 0xdc
    9a3c:	fa82fb4a 	blx	fe0c876c <__bss_end__+0xfe0be734>
    9a40:	f8f0f9b9 			; <UNDEFINED> instruction: 0xf8f0f9b9
    9a44:	f75ff827 	pld	[pc, -r7, lsr #16]
    9a48:	f5cef696 			; <UNDEFINED> instruction: 0xf5cef696
    9a4c:	f43df505 			; <UNDEFINED> instruction: 0xf43df505
    9a50:	f2adf375 	vrsra.s32	<illegal reg q7.5>, <illegal reg q10.5>, #19
    9a54:	f11df1e5 			; <UNDEFINED> instruction: 0xf11df1e5
    9a58:	ef8ef055 	svc	0x008ef055
    9a5c:	ee00eec7 	cdp	14, 0, cr14, cr0, cr7, {6}
    9a60:	ec72ed39 	ldcl	13, cr14, [r2], #-228	; 0xffffff1c
    9a64:	eae5ebab 	b	ff984918 <__bss_end__+0xff97a8e0>
    9a68:	e959ea1f 	ldmdb	r9, {r0, r1, r2, r3, r4, r9, fp, sp, lr, pc}^
    9a6c:	e7cde893 	bfi	lr, r3, (invalid: 17:13)
    9a70:	e643e708 	strb	lr, [r3], -r8, lsl #14
    9a74:	e4bae57e 	ldrt	lr, [sl], #1406	; 0x57e
    9a78:	e331e3f5 	teq	r1, #-738197501	; 0xd4000003
    9a7c:	e1aae26d 			; <UNDEFINED> instruction: 0xe1aae26d
    9a80:	e024e0e7 	eor	lr, r4, r7, ror #1
    9a84:	de9fdf61 	cdple	15, 9, cr13, cr15, cr1, {3}
    9a88:	dd1cdddd 	ldcle	13, cr13, [ip, #-884]	; 0xfffffc8c
    9a8c:	db99dc5a 	blle	fe680bfc <__bss_end__+0xfe676bc4>
    9a90:	da19dad9 	ble	6805fc <__bss_end__+0x6765c4>
    9a94:	d899d959 	ldmle	r9, {r0, r3, r4, r6, r8, fp, ip, lr, pc}
    9a98:	d71bd7da 			; <UNDEFINED> instruction: 0xd71bd7da
    9a9c:	d59fd65d 	ldrle	sp, [pc, #1629]	; a101 <__bss_end__+0xc9>
    9aa0:	d425d4e2 	strtle	sp, [r5], #-1250	; 0xfffffb1e
    9aa4:	d2acd368 	adcle	sp, ip, #104, 6	; 0xa0000001
    9aa8:	d134d1f0 	teqle	r4, r0	; <illegal shifter operand>
    9aac:	cfbfd07a 	svcgt	0x00bfd07a
    9ab0:	ce4ccf05 	cdpgt	15, 4, cr12, cr12, cr5, {0}
    9ab4:	ccdacd93 	ldclgt	13, cr12, [sl], {147}	; 0x93
    9ab8:	cb6acc22 	blgt	1abcb48 <__bss_end__+0x1ab2b10>
    9abc:	c9fdcab3 	ldmibgt	sp!, {r0, r1, r4, r5, r7, r9, fp, lr, pc}^
    9ac0:	c891c947 	ldmgt	r1, {r0, r1, r2, r6, r8, fp, lr, pc}
    9ac4:	c728c7dc 			; <UNDEFINED> instruction: 0xc728c7dc
    9ac8:	c5c1c674 	strbgt	ip, [r1, #1652]	; 0x674
    9acc:	c45cc50e 	ldrbgt	ip, [ip], #-1294	; 0xfffffaf2
    9ad0:	c2f9c3aa 	rscsgt	ip, r9, #-1476395006	; 0xa8000002
    9ad4:	c199c249 	orrsgt	ip, r9, r9, asr #4
    9ad8:	c03bc0ea 	eorsgt	ip, fp, sl, ror #1
    9adc:	bee0bf8d 	cdplt	15, 14, cr11, cr0, cr13, {4}
    9ae0:	bd87be33 	stclt	14, cr11, [r7, #204]	; 0xcc
    9ae4:	bc30bcdb 	ldclt	12, cr11, [r0], #-876	; 0xfffffc94
    9ae8:	baddbb86 	blt	ff778908 <__bss_end__+0xff76e8d0>
    9aec:	b98cba34 	stmiblt	ip, {r2, r4, r5, r9, fp, ip, sp, pc}
    9af0:	b83db8e4 	ldmdalt	sp!, {r2, r5, r6, r7, fp, ip, sp, pc}
    9af4:	b6f2b797 	usatlt	fp, #18, r7, lsl #15
    9af8:	b5a9b64d 	strlt	fp, [r9, #1613]!	; 0x64d
    9afc:	b463b506 	strbtlt	fp, [r3], #-1286	; 0xfffffafa
    9b00:	b320b3c1 			; <UNDEFINED> instruction: 0xb320b3c1
    9b04:	b1e0b280 	mvnlt	fp, r0, lsl #5
    9b08:	b0a3b141 	adclt	fp, r3, r1, asr #2
    9b0c:	af69b006 	svcge	0x0069b006
    9b10:	ae32aecd 	cdpge	14, 3, cr10, cr2, cr13, {6}
    9b14:	acffad98 	ldclge	13, cr10, [pc], #608	; 9d7c <__data_end__+0x144>
    9b18:	abceac66 	blge	ff3b4cb8 <__bss_end__+0xff3aac80>
    9b1c:	aaa1ab37 	bge	fe874800 <__bss_end__+0xfe86a7c8>
    9b20:	a977aa0c 	ldmdbge	r7!, {r2, r3, r9, fp, sp, pc}^
    9b24:	a850a8e3 	ldmdage	r0, {r0, r1, r5, r6, r7, fp, sp, pc}^
    9b28:	a72da7be 			; <UNDEFINED> instruction: 0xa72da7be
    9b2c:	a60da69d 			; <UNDEFINED> instruction: 0xa60da69d
    9b30:	a4f1a57f 	ldrbtge	sl, [r1], #1407	; 0x57f
    9b34:	a3d8a464 	bicsge	sl, r8, #100, 8	; 0x64000000
    9b38:	a2c3a34d 	sbcge	sl, r3, #872415233	; 0x34000001
    9b3c:	a1b1a23a 			; <UNDEFINED> instruction: 0xa1b1a23a
    9b40:	a0a3a12a 	adcge	sl, r3, sl, lsr #2
    9b44:	9f99a01e 	svcls	0x0099a01e
    9b48:	9e929f15 	mrcls	15, 4, r9, cr2, cr5, {0}
    9b4c:	9d8f9e10 	stcls	14, cr9, [pc, #64]	; 9b94 <FFT_SINE_LUT+0x564>
    9b50:	9c909d0f 	ldcls	13, cr9, [r0], {15}
    9b54:	9b959c12 	blls	fe570ba4 <__bss_end__+0xfe566b6c>
    9b58:	9a9e9b19 	bls	fe7b07c4 <__bss_end__+0xfe7a678c>
    9b5c:	99aa9a23 	stmibls	sl!, {r0, r1, r5, r9, fp, ip, pc}
    9b60:	98bb9932 	ldmls	fp!, {r1, r4, r5, r8, fp, ip, pc}
    9b64:	97cf9844 	strbls	r9, [pc, r4, asr #16]
    9b68:	96e7975b 	usatls	r9, #7, fp, asr #14
    9b6c:	96049675 			; <UNDEFINED> instruction: 0x96049675
    9b70:	95259594 	strls	r9, [r5, #-1428]!	; 0xfffffa6c
    9b74:	944994b6 	strbls	r9, [r9], #-1206	; 0xfffffb4a
    9b78:	937293dd 	cmnls	r2, #1946157059	; 0x74000003
    9b7c:	929f9308 	addsls	r9, pc, #8, 6	; 0x20000000
    9b80:	91d09237 	bicsls	r9, r0, r7, lsr r2
    9b84:	9106916b 	tstls	r6, fp, ror #2
    9b88:	904090a2 	subls	r9, r0, r2, lsr #1
    9b8c:	8f7e8fde 	svchi	0x007e8fde
    9b90:	8ec08f1f 	mcrhi	15, 6, r8, cr0, cr15, {0}
    9b94:	8e078e63 	cdphi	14, 0, cr8, cr7, cr3, {3}
    9b98:	8d528dac 	ldclhi	13, cr8, [r2, #-688]	; 0xfffffd50
    9b9c:	8ca28cfa 	stchi	12, cr8, [r2], #1000	; 0x3e8
    9ba0:	8bf68c4b 	blhi	ffdaccd4 <__bss_end__+0xffda2c9c>
    9ba4:	8b4f8ba2 	blhi	13eca34 <__bss_end__+0x13e29fc>
    9ba8:	8aac8afd 	bhi	feb2c7a4 <__bss_end__+0xfeb2276c>
    9bac:	8a0d8a5c 	bhi	36c524 <__bss_end__+0x3624ec>
    9bb0:	897389c0 	ldmdbhi	r3!, {r6, r7, r8, fp, pc}^
    9bb4:	88de8928 	ldmhi	lr, {r3, r5, r8, fp, pc}^
    9bb8:	884d8895 	stmdahi	sp, {r0, r2, r4, r7, fp, pc}^
    9bbc:	87c18807 	strbhi	r8, [r1, r7, lsl #16]
    9bc0:	873a877d 			; <UNDEFINED> instruction: 0x873a877d
    9bc4:	86b786f8 			; <UNDEFINED> instruction: 0x86b786f8
    9bc8:	86398677 			; <UNDEFINED> instruction: 0x86398677
    9bcc:	85bf85fc 	ldrhi	r8, [pc, #1532]!	; a1d0 <__bss_end__+0x198>
    9bd0:	854b8584 	strbhi	r8, [fp, #-1412]	; 0xfffffa7c
    9bd4:	84db8512 	ldrbhi	r8, [fp], #1298	; 0x512
    9bd8:	846f84a4 	strbthi	r8, [pc], #-1188	; 9be0 <FFT_SINE_LUT+0x5b0>
    9bdc:	8409843c 	strhi	r8, [r9], #-1084	; 0xfffffbc4
    9be0:	83a783d7 			; <UNDEFINED> instruction: 0x83a783d7
    9be4:	834a8378 	movthi	r8, #41848	; 0xa378
    9be8:	82f2831e 	rscshi	r8, r2, #2013265920	; 0x78000000
    9bec:	829f82c8 	addshi	r8, pc, #200, 4	; 0x8000000c
    9bf0:	82508277 	subshi	r8, r0, #1879048199	; 0x70000007
    9bf4:	8207822b 	andhi	r8, r7, #-1342177278	; 0xb0000002
    9bf8:	81c281e4 	bichi	r8, r2, r4, ror #3
    9bfc:	818281a2 	orrhi	r8, r2, r2, lsr #3
    9c00:	81478164 	cmphi	r7, r4, ror #2
    9c04:	8111812c 	tsthi	r1, ip, lsr #2
    9c08:	80e080f8 	strdhi	r8, [r0], #8	; <UNPREDICTABLE>
    9c0c:	80b480c9 	adcshi	r8, r4, r9, asr #1
    9c10:	808c809f 	umullhi	r8, ip, pc, r0	; <UNPREDICTABLE>
    9c14:	806a807a 	rsbhi	r8, sl, sl, ror r0
    9c18:	804c805a 	subhi	r8, ip, sl, asr r0
    9c1c:	8033803f 	eorshi	r8, r3, pc, lsr r0
    9c20:	80208029 	eorhi	r8, r0, r9, lsr #32
    9c24:	80118018 	andshi	r8, r1, r8, lsl r0
    9c28:	8007800b 	andhi	r8, r7, fp
    9c2c:	80028004 	andhi	r8, r2, r4

00009c30 <putk>:
    9c30:	0000860c 	andeq	r8, r0, ip, lsl #12

00009c34 <rpi_putchar>:
    9c34:	00009234 	andeq	r9, r0, r4, lsr r2

Disassembly of section .bss:

00009c38 <__bss_start__>:
	...

Disassembly of section .ARM.attributes:

00000000 <.ARM.attributes>:
   0:	00002a41 	andeq	r2, r0, r1, asr #20
   4:	61656100 	cmnvs	r5, r0, lsl #2
   8:	01006962 	tsteq	r0, r2, ror #18
   c:	00000020 	andeq	r0, r0, r0, lsr #32
  10:	4b5a3605 	blmi	168d82c <__bss_end__+0x16837f4>
  14:	08070600 	stmdaeq	r7, {r9, sl}
  18:	12010901 	andne	r0, r1, #16384	; 0x4000
  1c:	15011404 	strne	r1, [r1, #-1028]	; 0xfffffbfc
  20:	18031701 	stmdane	r3, {r0, r8, r9, sl, ip}
  24:	22011a01 	andcs	r1, r1, #4096	; 0x1000
  28:	Address 0x0000000000000028 is out of bounds.


Disassembly of section .comment:

00000000 <.comment>:
   0:	3a434347 	bcc	10d0d24 <__bss_end__+0x10c6cec>
   4:	4e472820 	cdpmi	8, 4, cr2, cr7, cr0, {1}
   8:	6f542055 	svcvs	0x00542055
   c:	20736c6f 	rsbscs	r6, r3, pc, ror #24
  10:	20726f66 	rsbscs	r6, r2, r6, ror #30
  14:	206d7241 	rsbcs	r7, sp, r1, asr #4
  18:	65626d45 	strbvs	r6, [r2, #-3397]!	; 0xfffff2bb
  1c:	64656464 	strbtvs	r6, [r5], #-1124	; 0xfffffb9c
  20:	6f725020 	svcvs	0x00725020
  24:	73736563 	cmnvc	r3, #415236096	; 0x18c00000
  28:	2073726f 	rsbscs	r7, r3, pc, ror #4
  2c:	30322d39 	eorscc	r2, r2, r9, lsr sp
  30:	712d3931 			; <UNDEFINED> instruction: 0x712d3931
  34:	616d2d34 	cmnvs	sp, r4, lsr sp
  38:	29726f6a 	ldmdbcs	r2!, {r1, r3, r5, r6, r8, r9, sl, fp, sp, lr}^
  3c:	322e3920 	eorcc	r3, lr, #32, 18	; 0x80000
  40:	3220312e 	eorcc	r3, r0, #-2147483637	; 0x8000000b
  44:	31393130 	teqcc	r9, r0, lsr r1
  48:	20353230 	eorscs	r3, r5, r0, lsr r2
  4c:	6c657228 	sfmvs	f7, 2, [r5], #-160	; 0xffffff60
  50:	65736165 	ldrbvs	r6, [r3, #-357]!	; 0xfffffe9b
  54:	415b2029 	cmpmi	fp, r9, lsr #32
  58:	612f4d52 			; <UNDEFINED> instruction: 0x612f4d52
  5c:	392d6d72 	pushcc	{r1, r4, r5, r6, r8, sl, fp, sp, lr}
  60:	6172622d 	cmnvs	r2, sp, lsr #4
  64:	2068636e 	rsbcs	r6, r8, lr, ror #6
  68:	69766572 	ldmdbvs	r6!, {r1, r4, r5, r6, r8, sl, sp, lr}^
  6c:	6e6f6973 			; <UNDEFINED> instruction: 0x6e6f6973
  70:	37373220 	ldrcc	r3, [r7, -r0, lsr #4]!
  74:	5d393935 			; <UNDEFINED> instruction: 0x5d393935
  78:	43434700 	movtmi	r4, #14080	; 0x3700
  7c:	4728203a 			; <UNDEFINED> instruction: 0x4728203a
  80:	4120554e 			; <UNDEFINED> instruction: 0x4120554e
  84:	45206d72 	strmi	r6, [r0, #-3442]!	; 0xfffff28e
  88:	6465626d 	strbtvs	r6, [r5], #-621	; 0xfffffd93
  8c:	20646564 	rsbcs	r6, r4, r4, ror #10
  90:	6c6f6f54 	stclvs	15, cr6, [pc], #-336	; ffffff48 <__bss_end__+0xffff5f10>
  94:	69616863 	stmdbvs	r1!, {r0, r1, r5, r6, fp, sp, lr}^
  98:	3031206e 	eorscc	r2, r1, lr, rrx
  9c:	322d332e 	eorcc	r3, sp, #-1207959552	; 0xb8000000
  a0:	2e313230 	mrccs	2, 1, r3, cr1, cr0, {1}
  a4:	20293031 	eorcs	r3, r9, r1, lsr r0
  a8:	332e3031 			; <UNDEFINED> instruction: 0x332e3031
  ac:	3220312e 	eorcc	r3, r0, #-2147483637	; 0x8000000b
  b0:	30313230 	eorscc	r3, r1, r0, lsr r2
  b4:	20343238 	eorscs	r3, r4, r8, lsr r2
  b8:	6c657228 	sfmvs	f7, 2, [r5], #-160	; 0xffffff60
  bc:	65736165 	ldrbvs	r6, [r3, #-357]!	; 0xfffffe9b
  c0:	Address 0x00000000000000c0 is out of bounds.


Disassembly of section .debug_info:

00000000 <.debug_info>:
       0:	000002b8 			; <UNDEFINED> instruction: 0x000002b8
       4:	00000004 	andeq	r0, r0, r4
       8:	01040000 	mrseq	r0, (UNDEF: 4)
       c:	000000a7 	andeq	r0, r0, r7, lsr #1
      10:	0001730c 	andeq	r7, r1, ip, lsl #6
      14:	00004700 	andeq	r4, r0, r0, lsl #14
      18:	00803800 	addeq	r3, r0, r0, lsl #16
      1c:	00012800 	andeq	r2, r1, r0, lsl #16
      20:	00000000 	andeq	r0, r0, r0
      24:	05040200 	streq	r0, [r4, #-512]	; 0xfffffe00
      28:	00746e69 	rsbseq	r6, r4, r9, ror #28
      2c:	66070403 	strvs	r0, [r7], -r3, lsl #8
      30:	03000001 	movweq	r0, #1
      34:	000a0601 	andeq	r0, sl, r1, lsl #12
      38:	95040000 	strls	r0, [r4, #-0]
      3c:	04000001 	streq	r0, [r0], #-1
      40:	00461825 	subeq	r1, r6, r5, lsr #16
      44:	02030000 	andeq	r0, r3, #0, 0
      48:	0001b705 	andeq	fp, r1, r5, lsl #14
      4c:	05040300 	streq	r0, [r4, #-768]	; 0xfffffd00
      50:	000001a2 	andeq	r0, r0, r2, lsr #3
      54:	9d050803 	stcls	8, cr0, [r5, #-12]
      58:	03000001 	movweq	r0, #1
      5c:	00080801 	andeq	r0, r8, r1, lsl #16
      60:	02030000 	andeq	r0, r3, #0, 0
      64:	00003407 	andeq	r3, r0, r7, lsl #8
      68:	07040300 	streq	r0, [r4, -r0, lsl #6]
      6c:	00000161 	andeq	r0, r0, r1, ror #2
      70:	5c070803 	stcpl	8, cr0, [r7], {3}
      74:	05000001 	streq	r0, [r0, #-1]
      78:	00000025 	andeq	r0, r0, r5, lsr #32
      7c:	00000086 	andeq	r0, r0, r6, lsl #1
      80:	00002506 	andeq	r2, r0, r6, lsl #10
      84:	ab070000 	blge	1c008c <__bss_end__+0x1b6054>
      88:	02000001 	andeq	r0, r0, #1, 0
      8c:	00920e1c 	addseq	r0, r2, ip, lsl lr
      90:	04080000 	streq	r0, [r8], #-0
      94:	00000077 	andeq	r0, r0, r7, ror r0
      98:	00002505 	andeq	r2, r0, r5, lsl #10
      9c:	0000a700 	andeq	sl, r0, r0, lsl #14
      a0:	00a70600 	adceq	r0, r7, r0, lsl #12
      a4:	08000000 	stmdaeq	r0, {}	; <UNPREDICTABLE>
      a8:	0000b404 	andeq	fp, r0, r4, lsl #8
      ac:	08010300 	stmdaeq	r1, {r8, r9}
      b0:	00000011 	andeq	r0, r0, r1, lsl r0
      b4:	0000ad09 	andeq	sl, r0, r9, lsl #26
      b8:	07a70700 	streq	r0, [r7, r0, lsl #14]!
      bc:	21020000 	mrscs	r0, (UNDEF: 2)
      c0:	0000c50e 	andeq	ip, r0, lr, lsl #10
      c4:	98040800 	stmdals	r4, {fp}
      c8:	0a000000 	beq	d0 <__code_start__-0x7f30>
      cc:	00000000 	andeq	r0, r0, r0
      d0:	38060b01 	stmdacc	r6, {r0, r8, r9, fp}
      d4:	28000080 	stmdacs	r0, {r7}
      d8:	01000001 	tsteq	r0, r1
      dc:	0002709c 	muleq	r2, ip, r0
      e0:	05b50b00 	ldreq	r0, [r5, #2816]!	; 0xb00
      e4:	0f010000 	svceq	0x00010000
      e8:	0002700d 	andeq	r7, r2, sp
      ec:	a0910300 	addsge	r0, r1, r0, lsl #6
      f0:	05890b7f 	streq	r0, [r9, #2943]	; 0xb7f
      f4:	10010000 	andne	r0, r1, r0
      f8:	0002700d 	andeq	r7, r2, sp
      fc:	40910200 	addsmi	r0, r1, r0, lsl #4
     100:	0000000c 	andeq	r0, r0, ip
     104:	00013200 	andeq	r3, r1, r0, lsl #4
     108:	00690d00 	rsbeq	r0, r9, r0, lsl #26
     10c:	250e1201 	strcs	r1, [lr, #-513]	; 0xfffffdff
     110:	0a000000 	beq	118 <__code_start__-0x7ee8>
     114:	00000000 	andeq	r0, r0, r0
     118:	0e000000 	cdpeq	0, 0, cr0, cr0, cr0, {0}
     11c:	000080a4 	andeq	r8, r0, r4, lsr #1
     120:	00000280 	andeq	r0, r0, r0, lsl #5
     124:	0250010f 	subseq	r0, r0, #-1073741821	; 0xc0000003
     128:	010f0079 	tsteq	pc, r9, ror r0	; <UNPREDICTABLE>
     12c:	7f740251 	svcvc	0x00740251
     130:	180c0000 	stmdane	ip, {}	; <UNPREDICTABLE>
     134:	64000000 	strvs	r0, [r0], #-0
     138:	0d000001 	stceq	0, cr0, [r0, #-4]
     13c:	19010069 	stmdbne	r1, {r0, r3, r5, r6}
     140:	0000250e 	andeq	r2, r0, lr, lsl #10
     144:	00005600 	andeq	r5, r0, r0, lsl #12
     148:	00004c00 	andeq	r4, r0, r0, lsl #24
     14c:	80f00e00 	rscshi	r0, r0, r0, lsl #28
     150:	02800000 	addeq	r0, r0, #0, 0
     154:	010f0000 	mrseq	r0, CPSR
     158:	00790250 	rsbseq	r0, r9, r0, asr r2
     15c:	0251010f 	subseq	r0, r1, #-1073741821	; 0xc0000003
     160:	00007f74 	andeq	r7, r0, r4, ror pc
     164:	00811410 	addeq	r1, r1, r0, lsl r4
     168:	00002800 	andeq	r2, r0, r0, lsl #16
     16c:	00019a00 	andeq	r9, r1, r0, lsl #20
     170:	00690d00 	rsbeq	r0, r9, r0, lsl #26
     174:	250e2101 	strcs	r2, [lr, #-257]	; 0xfffffeff
     178:	a2000000 	andge	r0, r0, #0, 0
     17c:	98000000 	stmdals	r0, {}	; <UNPREDICTABLE>
     180:	0e000000 	cdpeq	0, 0, cr0, cr0, cr0, {0}
     184:	00008134 	andeq	r8, r0, r4, lsr r1
     188:	00000280 	andeq	r0, r0, r0, lsl #5
     18c:	0250010f 	subseq	r0, r0, #-1073741821	; 0xc0000003
     190:	010f0079 	tsteq	pc, r9, ror r0	; <UNPREDICTABLE>
     194:	7f740251 	svcvc	0x00740251
     198:	44110000 	ldrmi	r0, [r1], #-0
     19c:	8c000080 	stchi	0, cr0, [r0], {128}	; 0x80
     1a0:	12000002 	andne	r0, r0, #2, 0
     1a4:	00008070 	andeq	r8, r0, r0, ror r0
     1a8:	00000298 	muleq	r0, r8, r2
     1ac:	000001c2 	andeq	r0, r0, r2, asr #3
     1b0:	0250010f 	subseq	r0, r0, #-1073741821	; 0xc0000003
     1b4:	010f0075 	tsteq	pc, r5, ror r0	; <UNPREDICTABLE>
     1b8:	0f300151 	svceq	0x00300151
     1bc:	08025201 	stmdaeq	r2, {r0, r9, ip, lr}
     1c0:	7c120020 	ldcvc	0, cr0, [r2], {32}
     1c4:	80000080 	andhi	r0, r0, r0, lsl #1
     1c8:	d9000002 	stmdble	r0, {r1}
     1cc:	0f000001 	svceq	0x00000001
     1d0:	03055001 	movweq	r5, #20481	; 0x5001
     1d4:	00009320 	andeq	r9, r0, r0, lsr #6
     1d8:	80b41200 	adcshi	r1, r4, r0, lsl #4
     1dc:	02800000 	addeq	r0, r0, #0, 0
     1e0:	01f00000 	mvnseq	r0, r0
     1e4:	010f0000 	mrseq	r0, CPSR
     1e8:	34030550 	strcc	r0, [r3], #-1360	; 0xfffffab0
     1ec:	00000093 	muleq	r0, r3, r0
     1f0:	0080c812 	addeq	ip, r0, r2, lsl r8
     1f4:	0002a300 	andeq	sl, r2, r0, lsl #6
     1f8:	00021400 	andeq	r1, r2, r0, lsl #8
     1fc:	50010f00 	andpl	r0, r1, r0, lsl #30
     200:	0f007602 	svceq	0x00007602
     204:	75025101 	strvc	r5, [r2, #-257]	; 0xfffffeff
     208:	52010f00 	andpl	r0, r1, #0, 30
     20c:	010f3401 	tsteq	pc, r1, lsl #8
     210:	00300153 	eorseq	r0, r0, r3, asr r1
     214:	00810012 	addeq	r0, r1, r2, lsl r0
     218:	00028000 	andeq	r8, r2, r0
     21c:	00022b00 	andeq	r2, r2, r0, lsl #22
     220:	50010f00 	andpl	r0, r1, r0, lsl #30
     224:	933c0305 	teqls	ip, #335544320	; 0x14000000
     228:	12000000 	andne	r0, r0, #0, 0
     22c:	00008114 	andeq	r8, r0, r4, lsl r1
     230:	000002a3 	andeq	r0, r0, r3, lsr #5
     234:	0000024f 	andeq	r0, r0, pc, asr #4
     238:	0250010f 	subseq	r0, r0, #-1073741821	; 0xc0000003
     23c:	010f0076 	tsteq	pc, r6, ror r0	; <UNPREDICTABLE>
     240:	00750251 	rsbseq	r0, r5, r1, asr r2
     244:	0152010f 	cmpeq	r2, pc, lsl #2
     248:	53010f34 	movwpl	r0, #7988	; 0x1f34
     24c:	12003101 	andne	r3, r0, #1073741824	; 0x40000000
     250:	00008144 	andeq	r8, r0, r4, asr #2
     254:	00000280 	andeq	r0, r0, r0, lsl #5
     258:	00000266 	andeq	r0, r0, r6, ror #4
     25c:	0550010f 	ldrbeq	r0, [r0, #-271]	; 0xfffffef1
     260:	00957c03 	addseq	r7, r5, r3, lsl #24
     264:	48110000 	ldmdami	r1, {}	; <UNPREDICTABLE>
     268:	af000081 	svcge	0x00000081
     26c:	00000002 	andeq	r0, r0, r2
     270:	00003a13 	andeq	r3, r0, r3, lsl sl
     274:	00028000 	andeq	r8, r2, r0
     278:	002c1400 	eoreq	r1, ip, r0, lsl #8
     27c:	000f0000 	andeq	r0, pc, r0
     280:	00076915 	andeq	r6, r7, r5, lsl r9
     284:	00076900 	andeq	r6, r7, r0, lsl #18
     288:	06280200 	strteq	r0, [r8], -r0, lsl #4
     28c:	0001c115 	andeq	ip, r1, r5, lsl r1
     290:	0001c100 	andeq	ip, r1, r0, lsl #2
     294:	06a50200 	strteq	r0, [r5], r0, lsl #4
     298:	00002d16 	andeq	r2, r0, r6, lsl sp
     29c:	00002300 	andeq	r2, r0, r0, lsl #6
     2a0:	15000500 	strne	r0, [r0, #-1280]	; 0xfffffb00
     2a4:	00000186 	andeq	r0, r0, r6, lsl #3
     2a8:	00000186 	andeq	r0, r0, r6, lsl #3
     2ac:	15092d03 	strne	r2, [r9, #-3331]	; 0xfffff2fd
     2b0:	00000016 	andeq	r0, r0, r6, lsl r0
     2b4:	00000016 	andeq	r0, r0, r6, lsl r0
     2b8:	00066e02 	andeq	r6, r6, r2, lsl #28
     2bc:	00000a18 	andeq	r0, r0, r8, lsl sl
     2c0:	01280004 			; <UNDEFINED> instruction: 0x01280004
     2c4:	01040000 	mrseq	r0, (UNDEF: 4)
     2c8:	000000a7 	andeq	r0, r0, r7, lsr #1
     2cc:	0002890c 	andeq	r8, r2, ip, lsl #18
     2d0:	00004700 	andeq	r4, r0, r0, lsl #14
     2d4:	00816000 	addeq	r6, r1, r0
     2d8:	0001d000 	andeq	sp, r1, r0
     2dc:	0001f900 	andeq	pc, r1, r0, lsl #18
     2e0:	05040200 	streq	r0, [r4, #-512]	; 0xfffffe00
     2e4:	00746e69 	rsbseq	r6, r4, r9, ror #28
     2e8:	66070403 	strvs	r0, [r7], -r3, lsl #8
     2ec:	03000001 	movweq	r0, #1
     2f0:	000a0601 	andeq	r0, sl, r1, lsl #12
     2f4:	02030000 	andeq	r0, r3, #0, 0
     2f8:	0001b705 	andeq	fp, r1, r5, lsl #14
     2fc:	03ba0400 			; <UNDEFINED> instruction: 0x03ba0400
     300:	28030000 	stmdacs	r3, {}	; <UNPREDICTABLE>
     304:	00004d18 	andeq	r4, r0, r8, lsl sp
     308:	05040300 	streq	r0, [r4, #-768]	; 0xfffffd00
     30c:	000001a2 	andeq	r0, r0, r2, lsr #3
     310:	9d050803 	stcls	8, cr0, [r5, #-12]
     314:	03000001 	movweq	r0, #1
     318:	00080801 	andeq	r0, r8, r1, lsl #16
     31c:	02030000 	andeq	r0, r3, #0, 0
     320:	00003407 	andeq	r3, r0, r7, lsl #8
     324:	03b90400 			; <UNDEFINED> instruction: 0x03b90400
     328:	34030000 	strcc	r0, [r3], #-0
     32c:	00007519 	andeq	r7, r0, r9, lsl r5
     330:	07040300 	streq	r0, [r4, -r0, lsl #6]
     334:	00000161 	andeq	r0, r0, r1, ror #2
     338:	5c070803 	stcpl	8, cr0, [r7], {3}
     33c:	05000001 	streq	r0, [r0, #-1]
     340:	00000025 	andeq	r0, r0, r5, lsr #32
     344:	00000092 	muleq	r0, r2, r0
     348:	00002506 	andeq	r2, r0, r6, lsl #10
     34c:	ab070000 	blge	1c0354 <__bss_end__+0x1b631c>
     350:	04000001 	streq	r0, [r0], #-1
     354:	009e0e1c 	addseq	r0, lr, ip, lsl lr
     358:	04080000 	streq	r0, [r8], #-0
     35c:	00000083 	andeq	r0, r0, r3, lsl #1
     360:	00002505 	andeq	r2, r0, r5, lsl #10
     364:	0000b300 	andeq	fp, r0, r0, lsl #6
     368:	00b30600 	adcseq	r0, r3, r0, lsl #12
     36c:	08000000 	stmdaeq	r0, {}	; <UNPREDICTABLE>
     370:	0000c004 	andeq	ip, r0, r4
     374:	08010300 	stmdaeq	r1, {r8, r9}
     378:	00000011 	andeq	r0, r0, r1, lsl r0
     37c:	0000b909 	andeq	fp, r0, r9, lsl #18
     380:	07a70700 	streq	r0, [r7, r0, lsl #14]!
     384:	21040000 	mrscs	r0, (UNDEF: 4)
     388:	0000d10e 	andeq	sp, r0, lr, lsl #2
     38c:	a4040800 	strge	r0, [r4], #-2048	; 0xfffff800
     390:	0a000000 	beq	398 <__code_start__-0x7c68>
     394:	005b0107 	subseq	r0, fp, r7, lsl #2
     398:	0c060000 	stceq	0, cr0, [r6], {-0}
     39c:	0001160e 	andeq	r1, r1, lr, lsl #12
     3a0:	039e0b00 	orrseq	r0, lr, #0, 22
     3a4:	0b000000 	bleq	3ac <__code_start__-0x7c54>
     3a8:	00000246 	andeq	r0, r0, r6, asr #4
     3ac:	03710b01 	cmneq	r1, #1024	; 0x400
     3b0:	0b040000 	bleq	1003b8 <__bss_end__+0xf6380>
     3b4:	0000028f 	andeq	r0, r0, pc, lsl #5
     3b8:	029e0b05 	addseq	r0, lr, #5120	; 0x1400
     3bc:	0b060000 	bleq	1803c4 <__bss_end__+0x17638c>
     3c0:	000002ad 	andeq	r0, r0, sp, lsr #5
     3c4:	02bc0b07 	adcseq	r0, ip, #7168	; 0x1c00
     3c8:	0b030000 	bleq	c03d0 <__bss_end__+0xb6398>
     3cc:	000002cb 	andeq	r0, r0, fp, asr #5
     3d0:	240c0002 	strcs	r0, [ip], #-2
     3d4:	94091005 	strls	r1, [r9], #-5
     3d8:	0d000001 	stceq	0, cr0, [r0, #-4]
     3dc:	05007363 	streq	r7, [r0, #-867]	; 0xfffffc9d
     3e0:	00690e11 	rsbeq	r0, r9, r1, lsl lr
     3e4:	0e000000 	cdpeq	0, 0, cr0, cr0, cr0, {0}
     3e8:	00000400 	andeq	r0, r0, r0, lsl #8
     3ec:	690e1205 	stmdbvs	lr, {r0, r2, r9, ip}
     3f0:	04000000 	streq	r0, [r0], #-0
     3f4:	0002700e 	andeq	r7, r2, lr
     3f8:	0e130500 	cfmul32eq	mvfx0, mvfx3, mvfx0
     3fc:	00000069 	andeq	r0, r0, r9, rrx
     400:	05200e08 	streq	r0, [r0, #-3592]!	; 0xfffff1f8
     404:	14050000 	strne	r0, [r5], #-0
     408:	0000690e 	andeq	r6, r0, lr, lsl #18
     40c:	eb0e0c00 	bl	383414 <__bss_end__+0x3793dc>
     410:	05000004 	streq	r0, [r0, #-4]
     414:	00690e15 	rsbeq	r0, r9, r5, lsl lr
     418:	0e100000 	cdpeq	0, 1, cr0, cr0, cr0, {0}
     41c:	0000048e 	andeq	r0, r0, lr, lsl #9
     420:	690e1605 	stmdbvs	lr, {r0, r2, r9, sl, ip}
     424:	14000000 	strne	r0, [r0], #-0
     428:	0002570e 	andeq	r5, r2, lr, lsl #14
     42c:	0e170500 	cfmul32eq	mvfx0, mvfx7, mvfx0
     430:	00000069 	andeq	r0, r0, r9, rrx
     434:	02060e18 	andeq	r0, r6, #24, 28	; 0x180
     438:	18050000 	stmdane	r5, {}	; <UNPREDICTABLE>
     43c:	0000690e 	andeq	r6, r0, lr, lsl #18
     440:	360e1c00 	strcc	r1, [lr], -r0, lsl #24
     444:	05000002 	streq	r0, [r0, #-2]
     448:	00690e19 	rsbeq	r0, r9, r9, lsl lr
     44c:	00200000 	eoreq	r0, r0, r0
     450:	00023b04 	andeq	r3, r2, r4, lsl #22
     454:	031a0500 	tsteq	sl, #0, 10
     458:	00000116 	andeq	r0, r0, r6, lsl r1
     45c:	0001940f 	andeq	r9, r1, pc, lsl #8
     460:	01070a00 	tsteq	r7, r0, lsl #20
     464:	0000005b 	andeq	r0, r0, fp, asr r0
     468:	020e3105 	andeq	r3, lr, #1073741825	; 0x40000001
     46c:	0b000002 	bleq	47c <__code_start__-0x7b84>
     470:	000001e5 	andeq	r0, r0, r5, ror #3
     474:	04cf0b00 	strbeq	r0, [pc], #2816	; 47c <__code_start__-0x7b84>
     478:	0b010000 	bleq	40480 <__bss_end__+0x36448>
     47c:	000001d8 	ldrdeq	r0, [r0], -r8
     480:	04290b04 	strteq	r0, [r9], #-2820	; 0xfffff4fc
     484:	0b070000 	bleq	1c048c <__bss_end__+0x1b6454>
     488:	000004fe 	strdeq	r0, [r0], -lr
     48c:	03d30b08 	bicseq	r0, r3, #8, 22	; 0x2000
     490:	0b0e0000 	bleq	380498 <__bss_end__+0x376460>
     494:	00000354 	andeq	r0, r0, r4, asr r3
     498:	03ae0b10 			; <UNDEFINED> instruction: 0x03ae0b10
     49c:	0b120000 	bleq	4804a4 <__bss_end__+0x47646c>
     4a0:	00000483 	andeq	r0, r0, r3, lsl #9
     4a4:	03860b14 	orreq	r0, r6, #20, 22	; 0x5000
     4a8:	0b160000 	bleq	5804b0 <__bss_end__+0x576478>
     4ac:	00000317 	andeq	r0, r0, r7, lsl r3
     4b0:	04470b17 	strbeq	r0, [r7], #-2839	; 0xfffff4e9
     4b4:	0b180000 	bleq	6004bc <__bss_end__+0x5f6484>
     4b8:	00000275 	andeq	r0, r0, r5, ror r2
     4bc:	070a0019 	smladeq	sl, r9, r0, r0
     4c0:	00005b01 	andeq	r5, r0, r1, lsl #22
     4c4:	0e420500 	cdpeq	5, 4, cr0, cr2, cr0, {0}
     4c8:	00000229 	andeq	r0, r0, r9, lsr #4
     4cc:	0004050b 	andeq	r0, r4, fp, lsl #10
     4d0:	0e0b0000 	cdpeq	0, 0, cr0, cr11, cr0, {0}
     4d4:	09000005 	stmdbeq	r0, {r0, r2}
     4d8:	0003c20b 	andeq	ip, r3, fp, lsl #4
     4dc:	400b0a00 	andmi	r0, fp, r0, lsl #20
     4e0:	13000005 	movwne	r0, #5
     4e4:	01070a00 	tsteq	r7, r0, lsl #20
     4e8:	0000005b 	andeq	r0, r0, fp, asr r0
     4ec:	800e4a05 	andhi	r4, lr, r5, lsl #20
     4f0:	0b000002 	bleq	500 <__code_start__-0x7b00>
     4f4:	00000453 	andeq	r0, r0, r3, asr r4
     4f8:	02eb0b00 	rsceq	r0, fp, #0, 22
     4fc:	0b030000 	bleq	c0504 <__bss_end__+0xb64cc>
     500:	00000471 	andeq	r0, r0, r1, ror r4
     504:	03240b04 			; <UNDEFINED> instruction: 0x03240b04
     508:	0b0d0000 	bleq	340510 <__bss_end__+0x3364d8>
     50c:	00000439 	andeq	r0, r0, r9, lsr r4
     510:	02270b0e 	eoreq	r0, r7, #14336	; 0x3800
     514:	0b0f0000 	bleq	3c051c <__bss_end__+0x3b64e4>
     518:	00000417 	andeq	r0, r0, r7, lsl r4
     51c:	01f40b10 	mvnseq	r0, r0, lsl fp
     520:	0b130000 	bleq	4c0528 <__bss_end__+0x4b64f0>
     524:	00000215 	andeq	r0, r0, r5, lsl r2
     528:	05270b14 	streq	r0, [r7, #-2836]!	; 0xfffff4ec
     52c:	0b1d0000 	bleq	740534 <__bss_end__+0x7364fc>
     530:	000003f2 	strdeq	r0, [r0], -r2
     534:	049d0b1e 	ldreq	r0, [sp], #2846	; 0xb1e
     538:	001f0000 	andseq	r0, pc, r0
     53c:	6d05a00c 	stcvs	0, cr10, [r5, #-48]	; 0xffffffd0
     540:	0002b109 	andeq	fp, r2, r9, lsl #2
     544:	04be0e00 	ldrteq	r0, [lr], #3584	; 0xe00
     548:	6e050000 	cdpvs	0, 0, cr0, cr5, cr0, {0}
     54c:	0002b10e 	andeq	fp, r2, lr, lsl #2
     550:	670e0000 	strvs	r0, [lr, -r0]
     554:	05000002 	streq	r0, [r0, #-2]
     558:	00690e6f 	rsbeq	r0, r9, pc, ror #28
     55c:	0e980000 	cdpeq	0, 9, cr0, cr8, cr0, {0}
     560:	00000336 	andeq	r0, r0, r6, lsr r3
     564:	690e7005 	stmdbvs	lr, {r0, r2, ip, sp, lr}
     568:	9c000000 	stcls	0, cr0, [r0], {-0}
     56c:	00691000 	rsbeq	r1, r9, r0
     570:	02c10000 	sbceq	r0, r1, #0, 0
     574:	2c110000 	ldccs	0, cr0, [r1], {-0}
     578:	25000000 	strcs	r0, [r0, #-0]
     57c:	01ce0400 	biceq	r0, lr, r0, lsl #8
     580:	71050000 	mrsvc	r0, (UNDEF: 5)
     584:	00028003 	andeq	r8, r2, r3
     588:	02c10f00 	sbceq	r0, r1, #0, 30
     58c:	da120000 	ble	480594 <__bss_end__+0x47655c>
     590:	02000002 	andeq	r0, r0, #2, 0
     594:	02e41604 	rsceq	r1, r4, #4, 12	; 0x400000
     598:	03050000 	movweq	r0, #20480	; 0x5000
     59c:	0000962c 	andeq	r9, r0, ip, lsr #12
     5a0:	01a00408 	lsleq	r0, r8, #8
     5a4:	ea120000 	b	4805ac <__bss_end__+0x476574>
     5a8:	02000003 	andeq	r0, r0, #3, 0
     5ac:	02fc1505 	rscseq	r1, ip, #20971520	; 0x1400000
     5b0:	03050000 	movweq	r0, #20480	; 0x5000
     5b4:	00009628 	andeq	r9, r0, r8, lsr #12
     5b8:	02cd0408 	sbceq	r0, sp, #8, 8	; 0x8000000
     5bc:	070a0000 	streq	r0, [sl, -r0]
     5c0:	00002c04 	andeq	r2, r0, r4, lsl #24
     5c4:	06090200 	streq	r0, [r9], -r0, lsl #4
     5c8:	00000347 	andeq	r0, r0, r7, asr #6
     5cc:	00025e13 	andeq	r5, r2, r3, lsl lr
     5d0:	10109800 	andsne	r9, r0, r0, lsl #16
     5d4:	02811320 	addeq	r1, r1, #32, 6	; 0x80000000
     5d8:	109c0000 	addsne	r0, ip, r0
     5dc:	0e132010 	mrceq	0, 0, r2, cr3, cr0, {0}
     5e0:	08000002 	stmdaeq	r0, {r1}
     5e4:	13202030 			; <UNDEFINED> instruction: 0x13202030
     5e8:	00000380 	andeq	r0, r0, r0, lsl #7
     5ec:	2020300c 	eorcs	r3, r0, ip
     5f0:	0001ef13 	andeq	lr, r1, r3, lsl pc
     5f4:	20300000 	eorscs	r0, r0, r0
     5f8:	05391320 	ldreq	r1, [r9, #-800]!	; 0xfffffce0
     5fc:	30040000 	andcc	r0, r4, r0
     600:	14002020 	strne	r2, [r0], #-32	; 0xffffffe0
     604:	000004db 	ldrdeq	r0, [r0], -fp
     608:	41096502 	tstmi	r9, r2, lsl #10
     60c:	00000000 	andeq	r0, r0, r0
     610:	30000083 	andcc	r0, r0, r3, lsl #1
     614:	01000000 	mrseq	r0, (UNDEF: 0)
     618:	0003a69c 	muleq	r3, ip, r6
     61c:	61761500 	cmnvs	r6, r0, lsl #10
     620:	6702006c 	strvs	r0, [r2, -ip, rrx]
     624:	00002c0e 	andeq	r2, r0, lr, lsl #24
     628:	0000e800 	andeq	lr, r0, r0, lsl #16
     62c:	0000e400 	andeq	lr, r0, r0, lsl #8
     630:	83081600 	movwhi	r1, #34304	; 0x8600
     634:	09c70000 	stmibeq	r7, {}^	; <UNPREDICTABLE>
     638:	14170000 	ldrne	r0, [r7], #-0
     63c:	d3000083 	movwle	r0, #131	; 0x83
     640:	92000009 	andls	r0, r0, #9, 0
     644:	18000003 	stmdane	r0, {r0, r1}
     648:	74025001 	strvc	r5, [r2], #-1
     64c:	28190000 	ldmdacs	r9, {}	; <UNPREDICTABLE>
     650:	d3000083 	movwle	r0, #131	; 0x83
     654:	18000009 	stmdane	r0, {r0, r3}
     658:	0c055001 	stceq	0, cr5, [r5], {1}
     65c:	20203004 	eorcs	r3, r0, r4
     660:	3e1a0000 	cdpcc	0, 1, cr0, cr10, cr0, {0}
     664:	02000003 	andeq	r0, r0, #3, 0
     668:	81a0061c 	lslhi	r0, ip, r6
     66c:	01600000 	cmneq	r0, r0
     670:	9c010000 	stcls	0, cr0, [r1], {-0}
     674:	00000765 	andeq	r0, r0, r5, ror #14
     678:	0003471b 	andeq	r4, r3, fp, lsl r7
     67c:	00077500 	andeq	r7, r7, r0, lsl #10
     680:	20030500 	andcs	r0, r3, r0, lsl #10
     684:	15000094 	strne	r0, [r0, #-148]	; 0xffffff6c
     688:	006c6176 	rsbeq	r6, ip, r6, ror r1
     68c:	2c0e2c02 	stccs	12, cr2, [lr], {2}
     690:	37000000 	strcc	r0, [r0, -r0]
     694:	07000001 	streq	r0, [r0, -r1]
     698:	1c000001 	stcne	0, cr0, [r0], {1}
     69c:	0000077a 	andeq	r0, r0, sl, ror r7
     6a0:	00008200 	andeq	r8, r0, r0, lsl #4
     6a4:	00380053 	eorseq	r0, r8, r3, asr r0
     6a8:	2f020000 	svccs	0x00020000
     6ac:	0004030b 	andeq	r0, r4, fp, lsl #6
     6b0:	078b1d00 	streq	r1, [fp, r0, lsl #26]
     6b4:	02d90000 	sbcseq	r0, r9, #0, 0
     6b8:	02d70000 	sbcseq	r0, r7, #0, 0
     6bc:	1e000000 	cdpne	0, 0, cr0, cr0, cr0, {0}
     6c0:	0000077a 	andeq	r0, r0, sl, ror r7
     6c4:	0000822c 	andeq	r8, r0, ip, lsr #4
     6c8:	822c0007 	eorhi	r0, ip, #7, 0
     6cc:	00000000 	andeq	r0, r0, r0
     6d0:	3c020000 	stccc	0, cr0, [r2], {-0}
     6d4:	00042b0b 	andeq	r2, r4, fp, lsl #22
     6d8:	078b1d00 	streq	r1, [fp, r0, lsl #26]
     6dc:	02f80000 	rscseq	r0, r8, #0, 0
     6e0:	02f60000 	rscseq	r0, r6, #0, 0
     6e4:	1c000000 	stcne	0, cr0, [r0], {-0}
     6e8:	00000798 	muleq	r0, r8, r7
     6ec:	00008248 	andeq	r8, r0, r8, asr #4
     6f0:	0050002a 	subseq	r0, r0, sl, lsr #32
     6f4:	45020000 	strmi	r0, [r2, #-0]
     6f8:	0004890b 	andeq	r8, r4, fp, lsl #18
     6fc:	07c91d00 	strbeq	r1, [r9, r0, lsl #26]
     700:	03110000 	tsteq	r1, #0, 0
     704:	030f0000 	movweq	r0, #61440	; 0xf000
     708:	be1d0000 	cdplt	0, 1, cr0, cr13, cr0, {0}
     70c:	28000007 	stmdacs	r0, {r0, r1, r2}
     710:	26000003 	strcs	r0, [r0], -r3
     714:	1d000003 	stcne	0, cr0, [r0, #-12]
     718:	000007b3 			; <UNDEFINED> instruction: 0x000007b3
     71c:	0000033e 	andeq	r0, r0, lr, lsr r3
     720:	0000033c 	andeq	r0, r0, ip, lsr r3
     724:	0007a91d 	andeq	sl, r7, sp, lsl r9
     728:	00035400 	andeq	r5, r3, r0, lsl #8
     72c:	00035200 	andeq	r5, r3, r0, lsl #4
     730:	00501f00 	subseq	r1, r0, r0, lsl #30
     734:	e2200000 	eor	r0, r0, #0, 0
     738:	74000007 	strvc	r0, [r0], #-7
     73c:	72000003 	andvc	r0, r0, #3, 0
     740:	00000003 	andeq	r0, r0, r3
     744:	08cd1c00 	stmiaeq	sp, {sl, fp, ip}^
     748:	82680000 	rsbhi	r0, r8, #0, 0
     74c:	00300000 	eorseq	r0, r0, r0
     750:	00000070 	andeq	r0, r0, r0, ror r0
     754:	bf0b4b02 	svclt	0x000b4b02
     758:	1d000004 	stcne	0, cr0, [r0, #-16]
     75c:	000008e8 	andeq	r0, r0, r8, ror #17
     760:	0000038a 	andeq	r0, r0, sl, lsl #7
     764:	00000388 	andeq	r0, r0, r8, lsl #7
     768:	0008de1d 	andeq	sp, r8, sp, lsl lr
     76c:	0003a000 	andeq	sl, r3, r0
     770:	00039e00 	andeq	r9, r3, r0, lsl #28
     774:	00702100 	rsbseq	r2, r0, r0, lsl #2
     778:	1e000000 	cdpne	0, 0, cr0, cr0, cr0, {0}
     77c:	000008cd 	andeq	r0, r0, sp, asr #17
     780:	00008284 	andeq	r8, r0, r4, lsl #5
     784:	82840019 	addhi	r0, r4, #25, 0
     788:	00000000 	andeq	r0, r0, r0
     78c:	57020000 	strpl	r0, [r2, -r0]
     790:	0004f40b 	andeq	pc, r4, fp, lsl #8
     794:	08e81d00 	stmiaeq	r8!, {r8, sl, fp, ip}^
     798:	03c20000 	biceq	r0, r2, #0, 0
     79c:	03c00000 	biceq	r0, r0, #0, 0
     7a0:	de1d0000 	cdple	0, 1, cr0, cr13, cr0, {0}
     7a4:	d8000008 	stmdale	r0, {r3}
     7a8:	d6000003 	strle	r0, [r0], -r3
     7ac:	00000003 	andeq	r0, r0, r3
     7b0:	0008701c 	andeq	r7, r8, ip, lsl r0
     7b4:	0082a000 	addeq	sl, r2, r0
     7b8:	88000000 	stmdahi	r0, {}	; <UNPREDICTABLE>
     7bc:	02000000 	andeq	r0, r0, #0, 0
     7c0:	05560b5a 	ldrbeq	r0, [r6, #-2906]	; 0xfffff4a6
     7c4:	8b1d0000 	blhi	7407cc <__bss_end__+0x736794>
     7c8:	f5000008 			; <UNDEFINED> instruction: 0xf5000008
     7cc:	f3000003 	vhadd.u8	d0, d0, d3
     7d0:	1d000003 	stcne	0, cr0, [r0, #-12]
     7d4:	00000881 	andeq	r0, r0, r1, lsl #17
     7d8:	0000040b 	andeq	r0, r0, fp, lsl #8
     7dc:	00000409 	andeq	r0, r0, r9, lsl #8
     7e0:	00089822 	andeq	r9, r8, r2, lsr #16
     7e4:	0082a000 	addeq	sl, r2, r0
     7e8:	a0000200 	andge	r0, r0, r0, lsl #4
     7ec:	00000082 	andeq	r0, r0, r2, lsl #1
     7f0:	01000000 	mrseq	r0, (UNDEF: 0)
     7f4:	b31d0c24 	tstlt	sp, #36, 24	; 0x2400
     7f8:	20000008 	andcs	r0, r0, r8
     7fc:	1e000004 	cdpne	0, 0, cr0, cr0, cr4, {0}
     800:	1d000004 	stcne	0, cr0, [r0, #-16]
     804:	000008a9 	andeq	r0, r0, r9, lsr #17
     808:	00000436 	andeq	r0, r0, r6, lsr r4
     80c:	00000434 	andeq	r0, r0, r4, lsr r4
     810:	b0170000 	andslt	r0, r7, r0
     814:	d3000081 	movwle	r0, #129	; 0x81
     818:	6d000009 	stcvs	0, cr0, [r0, #-36]	; 0xffffffdc
     81c:	18000005 	stmdane	r0, {r0, r2}
     820:	0c055001 	stceq	0, cr5, [r5], {1}
     824:	20203000 	eorcs	r3, r0, r0
     828:	81c41700 	bichi	r1, r4, r0, lsl #14
     82c:	09df0000 	ldmibeq	pc, {}^	; <UNPREDICTABLE>
     830:	05850000 	streq	r0, [r5]
     834:	01180000 	tsteq	r8, r0
     838:	18420150 	stmdane	r2, {r4, r6, r8}^
     83c:	34015101 	strcc	r5, [r1], #-257	; 0xfffffeff
     840:	81d01700 	bicshi	r1, r0, r0, lsl #14
     844:	09df0000 	ldmibeq	pc, {}^	; <UNPREDICTABLE>
     848:	059d0000 	ldreq	r0, [sp]
     84c:	01180000 	tsteq	r8, r0
     850:	18430150 	stmdane	r3, {r4, r6, r8}^
     854:	34015101 	strcc	r5, [r1], #-257	; 0xfffffeff
     858:	81dc1700 	bicshi	r1, ip, r0, lsl #14
     85c:	09df0000 	ldmibeq	pc, {}^	; <UNPREDICTABLE>
     860:	05b50000 	ldreq	r0, [r5, #0]!
     864:	01180000 	tsteq	r8, r0
     868:	18440150 	stmdane	r4, {r4, r6, r8}^
     86c:	34015101 	strcc	r5, [r1], #-257	; 0xfffffeff
     870:	81e41700 	mvnhi	r1, r0, lsl #14
     874:	09eb0000 	stmibeq	fp!, {}^	; <UNPREDICTABLE>
     878:	05c80000 	strbeq	r0, [r8]
     87c:	01180000 	tsteq	r8, r0
     880:	00420150 	subeq	r0, r2, r0, asr r1
     884:	0081ec17 	addeq	lr, r1, r7, lsl ip
     888:	0009eb00 	andeq	lr, r9, r0, lsl #22
     88c:	0005db00 	andeq	sp, r5, r0, lsl #22
     890:	50011800 	andpl	r1, r1, r0, lsl #16
     894:	17004301 	strne	r4, [r0, -r1, lsl #6]
     898:	000081f4 	strdeq	r8, [r0], -r4
     89c:	000009eb 	andeq	r0, r0, fp, ror #19
     8a0:	000005ee 	andeq	r0, r0, lr, ror #11
     8a4:	01500118 	cmpeq	r0, r8, lsl r1
     8a8:	f8160044 			; <UNDEFINED> instruction: 0xf8160044
     8ac:	c7000081 	strgt	r0, [r0, -r1, lsl #1]
     8b0:	17000009 	strne	r0, [r0, -r9]
     8b4:	00008200 	andeq	r8, r0, r0, lsl #4
     8b8:	000009d3 	ldrdeq	r0, [r0], -r3
     8bc:	0000060e 	andeq	r0, r0, lr, lsl #12
     8c0:	05500118 	ldrbeq	r0, [r0, #-280]	; 0xfffffee8
     8c4:	1010980c 	andsne	r9, r0, ip, lsl #16
     8c8:	18170020 	ldmdane	r7, {r5}
     8cc:	f7000082 			; <UNDEFINED> instruction: 0xf7000082
     8d0:	25000009 	strcs	r0, [r0, #-9]
     8d4:	18000006 	stmdane	r0, {r1, r2}
     8d8:	0c055001 	stceq	0, cr5, [r5], {1}
     8dc:	20101098 	mulscs	r0, r8, r0
     8e0:	82241700 	eorhi	r1, r4, #0, 14
     8e4:	09f70000 	ldmibeq	r7!, {}^	; <UNPREDICTABLE>
     8e8:	06450000 	strbeq	r0, [r5], -r0
     8ec:	01180000 	tsteq	r8, r0
     8f0:	9c0c0550 	cfstr32ls	mvfx0, [ip], {80}	; 0x50
     8f4:	18201010 	stmdane	r0!, {r4, ip}
     8f8:	0c055101 	stfeqs	f5, [r5], {1}
     8fc:	5a006cd8 	bpl	1bc64 <__bss_end__+0x11c2c>
     900:	822c1700 	eorhi	r1, ip, #0, 14
     904:	09d30000 	ldmibeq	r3, {}^	; <UNPREDICTABLE>
     908:	065c0000 	ldrbeq	r0, [ip], -r0
     90c:	01180000 	tsteq	r8, r0
     910:	980c0550 	stmdals	ip, {r4, r6, r8, sl}
     914:	00201010 	eoreq	r1, r0, r0, lsl r0
     918:	00823c17 	addeq	r3, r2, r7, lsl ip
     91c:	0009f700 	andeq	pc, r9, r0, lsl #14
     920:	00067300 	andeq	r7, r6, r0, lsl #6
     924:	50011800 	andpl	r1, r1, r0, lsl #16
     928:	10980c05 	addsne	r0, r8, r5, lsl #24
     92c:	16002010 			; <UNDEFINED> instruction: 0x16002010
     930:	00008240 	andeq	r8, r0, r0, asr #4
     934:	000009c7 	andeq	r0, r0, r7, asr #19
     938:	00824817 	addeq	r4, r2, r7, lsl r8
     93c:	0009d300 	andeq	sp, r9, r0, lsl #6
     940:	00069300 	andeq	r9, r6, r0, lsl #6
     944:	50011800 	andpl	r1, r1, r0, lsl #16
     948:	30080c05 	andcc	r0, r8, r5, lsl #24
     94c:	17002020 	strne	r2, [r0, -r0, lsr #32]
     950:	00008260 	andeq	r8, r0, r0, ror #4
     954:	000009f7 	strdeq	r0, [r0], -r7
     958:	000006aa 	andeq	r0, r0, sl, lsr #13
     95c:	05500118 	ldrbeq	r0, [r0, #-280]	; 0xfffffee8
     960:	2030080c 	eorscs	r0, r0, ip, lsl #16
     964:	68170020 	ldmdavs	r7, {r5}
     968:	d3000082 	movwle	r0, #130	; 0x82
     96c:	c1000009 	tstgt	r0, r9
     970:	18000006 	stmdane	r0, {r1, r2}
     974:	0c055001 	stceq	0, cr5, [r5], {1}
     978:	2020300c 	eorcs	r3, r0, ip
     97c:	827c1700 	rsbshi	r1, ip, #0, 14
     980:	09f70000 	ldmibeq	r7!, {}^	; <UNPREDICTABLE>
     984:	06d80000 	ldrbeq	r0, [r8], r0
     988:	01180000 	tsteq	r8, r0
     98c:	0c0c0550 	cfstr32eq	mvfx0, [ip], {80}	; 0x50
     990:	00202030 	eoreq	r2, r0, r0, lsr r0
     994:	00828417 	addeq	r8, r2, r7, lsl r4
     998:	0009d300 	andeq	sp, r9, r0, lsl #6
     99c:	0006ef00 	andeq	lr, r6, r0, lsl #30
     9a0:	50011800 	andpl	r1, r1, r0, lsl #16
     9a4:	30000c05 	andcc	r0, r0, r5, lsl #24
     9a8:	17002020 	strne	r2, [r0, -r0, lsr #32]
     9ac:	00008294 	muleq	r0, r4, r2
     9b0:	000009f7 	strdeq	r0, [r0], -r7
     9b4:	00000706 	andeq	r0, r0, r6, lsl #14
     9b8:	05500118 	ldrbeq	r0, [r0, #-280]	; 0xfffffee8
     9bc:	2030000c 	eorscs	r0, r0, ip
     9c0:	a0170020 	andsge	r0, r7, r0, lsr #32
     9c4:	d3000082 	movwle	r0, #130	; 0x82
     9c8:	1a000009 	bne	9f4 <__code_start__-0x760c>
     9cc:	18000007 	stmdane	r0, {r0, r1, r2}
     9d0:	74025001 	strvc	r5, [r2], #-1
     9d4:	b4230000 	strtlt	r0, [r3], #-0
     9d8:	c7000082 	strgt	r0, [r0, -r2, lsl #1]
     9dc:	17000009 	strne	r0, [r0, -r9]
     9e0:	000082d0 	ldrdeq	r8, [r0], -r0
     9e4:	00000a03 	andeq	r0, r0, r3, lsl #20
     9e8:	0000075b 	andeq	r0, r0, fp, asr r7
     9ec:	05500118 	ldrbeq	r0, [r0, #-280]	; 0xfffffee8
     9f0:	0093bc03 	addseq	fp, r3, r3, lsl #24
     9f4:	51011800 	tstpl	r1, r0, lsl #16
     9f8:	93e80305 	mvnls	r0, #335544320	; 0x14000000
     9fc:	01180000 	tsteq	r8, r0
     a00:	20030552 	andcs	r0, r3, r2, asr r5
     a04:	18000094 	stmdane	r0, {r2, r4, r7}
     a08:	4d015301 	stcmi	3, cr5, [r1, #-4]
     a0c:	007d0218 	rsbseq	r0, sp, r8, lsl r2
     a10:	93f00305 	mvnsls	r0, #335544320	; 0x14000000
     a14:	16000000 	strne	r0, [r0], -r0
     a18:	000082d4 	ldrdeq	r8, [r0], -r4
     a1c:	00000a0f 	andeq	r0, r0, pc, lsl #20
     a20:	00c01000 	sbceq	r1, r0, r0
     a24:	07750000 	ldrbeq	r0, [r5, -r0]!
     a28:	2c110000 	ldccs	0, cr0, [r1], {-0}
     a2c:	08000000 	stmdaeq	r0, {}	; <UNPREDICTABLE>
     a30:	07650900 	strbeq	r0, [r5, -r0, lsl #18]!
     a34:	91240000 			; <UNDEFINED> instruction: 0x91240000
     a38:	02000003 	andeq	r0, r0, #3, 0
     a3c:	00690a15 	rsbeq	r0, r9, r5, lsl sl
     a40:	98010000 	stmdals	r1, {}	; <UNPREDICTABLE>
     a44:	25000007 	strcs	r0, [r0, #-7]
     a48:	006c6176 	rsbeq	r6, ip, r6, ror r1
     a4c:	69201502 	stmdbvs	r0!, {r1, r8, sl, ip}
     a50:	00000000 	andeq	r0, r0, r0
     a54:	0003e126 	andeq	lr, r3, r6, lsr #2
     a58:	014d0100 	mrseq	r0, (UNDEF: 93)
     a5c:	00000069 	andeq	r0, r0, r9, rrx
     a60:	0007ed03 	andeq	lr, r7, r3, lsl #26
     a64:	00782500 	rsbseq	r2, r8, r0, lsl #10
     a68:	69134d01 	ldmdbvs	r3, {r0, r8, sl, fp, lr}
     a6c:	25000000 	strcs	r0, [r0, #-0]
     a70:	0100626c 	tsteq	r0, ip, ror #4
     a74:	002c1f4d 	eoreq	r1, ip, sp, asr #30
     a78:	75250000 	strvc	r0, [r5, #-0]!
     a7c:	4d010062 	stcmi	0, cr0, [r1, #-392]	; 0xfffffe78
     a80:	00002c2c 	andeq	r2, r0, ip, lsr #24
     a84:	00762500 	rsbseq	r2, r6, r0, lsl #10
     a88:	69394d01 	ldmdbvs	r9!, {r0, r8, sl, fp, lr}
     a8c:	1b000000 	blne	a94 <__code_start__-0x756c>
     a90:	00000347 	andeq	r0, r0, r7, asr #6
     a94:	00000775 	andeq	r0, r0, r5, ror r7
     a98:	94140305 	ldrls	r0, [r4], #-773	; 0xfffffcfb
     a9c:	6e270000 	cdpvs	0, 2, cr0, cr7, cr0, {0}
     aa0:	0e560100 	rdfeqs	f0, f6, f0
     aa4:	0000002c 	andeq	r0, r0, ip, lsr #32
     aa8:	03032600 	movweq	r2, #13824	; 0x3600
     aac:	41010000 	mrsmi	r0, (UNDEF: 1)
     ab0:	00006901 	andeq	r6, r0, r1, lsl #18
     ab4:	08340300 	ldmdaeq	r4!, {r8, r9}
     ab8:	78250000 	stmdavc	r5!, {}	; <UNPREDICTABLE>
     abc:	13410100 	movtne	r0, #4352	; 0x1100
     ac0:	00000069 	andeq	r0, r0, r9, rrx
     ac4:	00626c25 	rsbeq	r6, r2, r5, lsr #24
     ac8:	2c1f4101 	ldfcss	f4, [pc], {1}
     acc:	25000000 	strcs	r0, [r0, #-0]
     ad0:	01006275 	tsteq	r0, r5, ror r2
     ad4:	002c2c41 	eoreq	r2, ip, r1, asr #24
     ad8:	47280000 	strmi	r0, [r8, -r0]!
     adc:	75000003 	strvc	r0, [r0, #-3]
     ae0:	29000007 	stmdbcs	r0, {r0, r1, r2}
     ae4:	00000498 	muleq	r0, r8, r4
     ae8:	690e4501 	stmdbvs	lr, {r0, r8, sl, lr}
     aec:	00000000 	andeq	r0, r0, r0
     af0:	00049326 	andeq	r9, r4, r6, lsr #6
     af4:	182f0100 	stmdane	pc!, {r8}	; <UNPREDICTABLE>
     af8:	00000069 	andeq	r0, r0, r9, rrx
     afc:	00085b03 	andeq	r5, r8, r3, lsl #22
     b00:	02fd2a00 	rscseq	r2, sp, #0, 20
     b04:	2f010000 	svccs	0x00010000
     b08:	00002c2b 	andeq	r2, r0, fp, lsr #24
     b0c:	03472800 	movteq	r2, #30720	; 0x7800
     b10:	086b0000 	stmdaeq	fp!, {}^	; <UNPREDICTABLE>
     b14:	10000000 	andne	r0, r0, r0
     b18:	000000c0 	andeq	r0, r0, r0, asr #1
     b1c:	0000086b 	andeq	r0, r0, fp, ror #16
     b20:	00002c11 	andeq	r2, r0, r1, lsl ip
     b24:	09000900 	stmdbeq	r0, {r8, fp}
     b28:	0000085b 	andeq	r0, r0, fp, asr r8
     b2c:	00030c26 	andeq	r0, r3, r6, lsr #24
     b30:	01230100 			; <UNDEFINED> instruction: 0x01230100
     b34:	0000002c 	andeq	r0, r0, ip, lsr #32
     b38:	00089803 	andeq	r9, r8, r3, lsl #16
     b3c:	00782500 	rsbseq	r2, r8, r0, lsl #10
     b40:	69152301 	ldmdbvs	r5, {r0, r8, r9, sp}
     b44:	25000000 	strcs	r0, [r0, #-0]
     b48:	00746962 	rsbseq	r6, r4, r2, ror #18
     b4c:	2c212301 	stccs	3, cr2, [r1], #-4
     b50:	00000000 	andeq	r0, r0, r0
     b54:	00036726 	andeq	r6, r3, r6, lsr #14
     b58:	011e0100 	tsteq	lr, r0, lsl #2
     b5c:	0000002c 	andeq	r0, r0, ip, lsr #32
     b60:	0008cd03 	andeq	ip, r8, r3, lsl #26
     b64:	00782500 	rsbseq	r2, r8, r0, lsl #10
     b68:	69141e01 	ldmdbvs	r4, {r0, r9, sl, fp, ip}
     b6c:	25000000 	strcs	r0, [r0, #-0]
     b70:	00746962 	rsbseq	r6, r4, r2, ror #18
     b74:	2c201e01 	stccs	14, cr1, [r0], #-4
     b78:	2b000000 	blcs	b80 <__code_start__-0x7480>
     b7c:	00000347 	andeq	r0, r0, r7, asr #6
     b80:	0000086b 	andeq	r0, r0, fp, ror #16
     b84:	00000367 	andeq	r0, r0, r7, ror #6
     b88:	02e32600 	rsceq	r2, r3, #0, 12
     b8c:	0e010000 	cdpeq	0, 0, cr0, cr1, cr0, {0}
     b90:	00006901 	andeq	r6, r0, r1, lsl #18
     b94:	09020300 	stmdbeq	r2, {r8, r9}
     b98:	78250000 	stmdavc	r5!, {}	; <UNPREDICTABLE>
     b9c:	120e0100 	andne	r0, lr, #0
     ba0:	00000069 	andeq	r0, r0, r9, rrx
     ba4:	74696225 	strbtvc	r6, [r9], #-549	; 0xfffffddb
     ba8:	1e0e0100 	adfnee	f0, f6, f0
     bac:	0000002c 	andeq	r0, r0, ip, lsr #32
     bb0:	0003472b 	andeq	r4, r3, fp, lsr #14
     bb4:	00091200 	andeq	r1, r9, r0, lsl #4
     bb8:	0002e300 	andeq	lr, r2, r0, lsl #6
     bbc:	c0100000 	andsgt	r0, r0, r0
     bc0:	12000000 	andne	r0, r0, #0, 0
     bc4:	11000009 	tstne	r0, r9
     bc8:	0000002c 	andeq	r0, r0, ip, lsr #32
     bcc:	02090007 	andeq	r0, r9, #7, 0
     bd0:	2c000009 	stccs	0, cr0, [r0], {9}
     bd4:	00000798 	muleq	r0, r8, r7
     bd8:	00008160 	andeq	r8, r0, r0, ror #2
     bdc:	00000038 	andeq	r0, r0, r8, lsr r0
     be0:	09a69c01 	stmibeq	r6!, {r0, sl, fp, ip, pc}
     be4:	e22d0000 	eor	r0, sp, #0, 0
     be8:	1d000007 	stcne	0, cr0, [r0, #-28]	; 0xffffffe4
     bec:	000007c9 	andeq	r0, r0, r9, asr #15
     bf0:	0000044b 	andeq	r0, r0, fp, asr #8
     bf4:	00000449 	andeq	r0, r0, r9, asr #8
     bf8:	0007be1d 	andeq	fp, r7, sp, lsl lr
     bfc:	00046500 	andeq	r6, r4, r0, lsl #10
     c00:	00046300 	andeq	r6, r4, r0, lsl #6
     c04:	07b31d00 	ldreq	r1, [r3, r0, lsl #26]!
     c08:	047f0000 	ldrbteq	r0, [pc], #-0	; c10 <__code_start__-0x73f0>
     c0c:	047d0000 	ldrbteq	r0, [sp], #-0
     c10:	a91d0000 	ldmdbge	sp, {}	; <UNPREDICTABLE>
     c14:	99000007 	stmdbls	r0, {r0, r1, r2}
     c18:	97000004 	strls	r0, [r0, -r4]
     c1c:	17000004 	strne	r0, [r0, -r4]
     c20:	00008184 	andeq	r8, r0, r4, lsl #3
     c24:	00000a03 	andeq	r0, r0, r3, lsl #20
     c28:	0000099c 	muleq	r0, ip, r9
     c2c:	05500118 	ldrbeq	r0, [r0, #-280]	; 0xfffffee8
     c30:	0093bc03 	addseq	fp, r3, r3, lsl #24
     c34:	51011800 	tstpl	r1, r0, lsl #16
     c38:	93640305 	cmnls	r4, #335544320	; 0x14000000
     c3c:	01180000 	tsteq	r8, r0
     c40:	14030552 	strne	r0, [r3], #-1362	; 0xfffffaae
     c44:	18000094 	stmdane	r0, {r2, r4, r7}
     c48:	08025301 	stmdaeq	r2, {r0, r8, r9, ip, lr}
     c4c:	7d021858 	stcvc	8, cr1, [r2, #-352]	; 0xfffffea0
     c50:	d0030500 	andle	r0, r3, r0, lsl #10
     c54:	00000093 	muleq	r0, r3, r0
     c58:	00818816 	addeq	r8, r1, r6, lsl r8
     c5c:	000a0f00 	andeq	r0, sl, r0, lsl #30
     c60:	7a2c0000 	bvc	b00c68 <__bss_end__+0xaf6c30>
     c64:	98000007 	stmdals	r0, {r0, r1, r2}
     c68:	08000081 	stmdaeq	r0, {r0, r7}
     c6c:	01000000 	mrseq	r0, (UNDEF: 0)
     c70:	0009c79c 	muleq	r9, ip, r7
     c74:	078b1d00 	streq	r1, [fp, r0, lsl #26]
     c78:	04b50000 	ldrteq	r0, [r5], #0
     c7c:	04b10000 	ldrteq	r0, [r1], #0
     c80:	2e000000 	cdpcs	0, 0, cr0, cr0, cr0, {0}
     c84:	00000465 	andeq	r0, r0, r5, ror #8
     c88:	00000465 	andeq	r0, r0, r5, ror #8
     c8c:	2e06a104 	mvfcss	f2, f4
     c90:	00000361 	andeq	r0, r0, r1, ror #6
     c94:	00000361 	andeq	r0, r0, r1, ror #6
     c98:	2e0ac704 	cdpcs	7, 0, cr12, cr10, cr4, {0}
     c9c:	000004ac 	andeq	r0, r0, ip, lsr #9
     ca0:	000004ac 	andeq	r0, r0, ip, lsr #9
     ca4:	2e061906 	vmlacs.f16	s2, s12, s12	; <UNPREDICTABLE>
     ca8:	000004f2 	strdeq	r0, [r0], -r2
     cac:	000004f2 	strdeq	r0, [r0], -r2
     cb0:	2e062706 	cdpcs	7, 0, cr2, cr6, cr6, {0}
     cb4:	000004c9 	andeq	r0, r0, r9, asr #9
     cb8:	000004c9 	andeq	r0, r0, r9, asr #9
     cbc:	2e06b204 	cdpcs	2, 0, cr11, cr6, cr4, {0}
     cc0:	00000769 	andeq	r0, r0, r9, ror #14
     cc4:	00000769 	andeq	r0, r0, r9, ror #14
     cc8:	2e062804 	cdpcs	8, 0, cr2, cr6, cr4, {0}
     ccc:	00000016 	andeq	r0, r0, r6, lsl r0
     cd0:	00000016 	andeq	r0, r0, r6, lsl r0
     cd4:	00066e04 	andeq	r6, r6, r4, lsl #28
     cd8:	00000709 	andeq	r0, r0, r9, lsl #14
     cdc:	03c90004 	biceq	r0, r9, #4, 0
     ce0:	01040000 	mrseq	r0, (UNDEF: 4)
     ce4:	000000a7 	andeq	r0, r0, r7, lsr #1
     ce8:	0005aa0c 	andeq	sl, r5, ip, lsl #20
     cec:	00004700 	andeq	r4, r0, r0, lsl #14
     cf0:	00833000 	addeq	r3, r3, r0
     cf4:	00026c00 	andeq	r6, r2, r0, lsl #24
     cf8:	000d7200 	andeq	r7, sp, r0, lsl #4
     cfc:	05040200 	streq	r0, [r4, #-512]	; 0xfffffe00
     d00:	00746e69 	rsbseq	r6, r4, r9, ror #28
     d04:	66070403 	strvs	r0, [r7], -r3, lsl #8
     d08:	03000001 	movweq	r0, #1
     d0c:	000a0601 	andeq	r0, sl, r1, lsl #12
     d10:	95040000 	strls	r0, [r4, #-0]
     d14:	03000001 	movweq	r0, #1
     d18:	00461825 	subeq	r1, r6, r5, lsr #16
     d1c:	02030000 	andeq	r0, r3, #0, 0
     d20:	0001b705 	andeq	fp, r1, r5, lsl #14
     d24:	03ba0400 			; <UNDEFINED> instruction: 0x03ba0400
     d28:	28030000 	stmdacs	r3, {}	; <UNPREDICTABLE>
     d2c:	00005918 	andeq	r5, r0, r8, lsl r9
     d30:	05040300 	streq	r0, [r4, #-768]	; 0xfffffd00
     d34:	000001a2 	andeq	r0, r0, r2, lsr #3
     d38:	9d050803 	stcls	8, cr0, [r5, #-12]
     d3c:	03000001 	movweq	r0, #1
     d40:	00080801 	andeq	r0, r8, r1, lsl #16
     d44:	02030000 	andeq	r0, r3, #0, 0
     d48:	00003407 	andeq	r3, r0, r7, lsl #8
     d4c:	07040300 	streq	r0, [r4, -r0, lsl #6]
     d50:	00000161 	andeq	r0, r0, r1, ror #2
     d54:	5c070803 	stcpl	8, cr0, [r7], {3}
     d58:	05000001 	streq	r0, [r0, #-1]
     d5c:	00000025 	andeq	r0, r0, r5, lsr #32
     d60:	00000092 	muleq	r0, r2, r0
     d64:	00002506 	andeq	r2, r0, r6, lsl #10
     d68:	ab070000 	blge	1c0d70 <__bss_end__+0x1b6d38>
     d6c:	04000001 	streq	r0, [r0], #-1
     d70:	009e0e1c 	addseq	r0, lr, ip, lsl lr
     d74:	04080000 	streq	r0, [r8], #-0
     d78:	00000083 	andeq	r0, r0, r3, lsl #1
     d7c:	00002505 	andeq	r2, r0, r5, lsl #10
     d80:	0000b300 	andeq	fp, r0, r0, lsl #6
     d84:	00b30600 	adcseq	r0, r3, r0, lsl #12
     d88:	08000000 	stmdaeq	r0, {}	; <UNPREDICTABLE>
     d8c:	0000c004 	andeq	ip, r0, r4
     d90:	08010300 	stmdaeq	r1, {r8, r9}
     d94:	00000011 	andeq	r0, r0, r1, lsl r0
     d98:	0000b909 	andeq	fp, r0, r9, lsl #18
     d9c:	07a70700 	streq	r0, [r7, r0, lsl #14]!
     da0:	21040000 	mrscs	r0, (UNDEF: 4)
     da4:	0000d10e 	andeq	sp, r0, lr, lsl #2
     da8:	a4040800 	strge	r0, [r4], #-2048	; 0xfffff800
     dac:	0a000000 	beq	db4 <__code_start__-0x724c>
     db0:	0000003a 	andeq	r0, r0, sl, lsr r0
     db4:	000000e8 	andeq	r0, r0, r8, ror #1
     db8:	00002c0b 	andeq	r2, r0, fp, lsl #24
     dbc:	0002ff00 	andeq	pc, r2, r0, lsl #30
     dc0:	00060e0c 	andeq	r0, r6, ip, lsl #28
     dc4:	090a0500 	stmdbeq	sl, {r8, sl}
     dc8:	000000d7 	ldrdeq	r0, [r0], -r7
     dcc:	96300305 	ldrtls	r0, [r0], -r5, lsl #6
     dd0:	c60d0000 	strgt	r0, [sp], -r0
     dd4:	01000005 	tsteq	r0, r5
     dd8:	004d0969 	subeq	r0, sp, r9, ror #18
     ddc:	85740000 	ldrbhi	r0, [r4, #-0]!
     de0:	00280000 	eoreq	r0, r8, r0
     de4:	9c010000 	stcls	0, cr0, [r1], {-0}
     de8:	000001e2 	andeq	r0, r0, r2, ror #3
     dec:	000c170e 	andeq	r1, ip, lr, lsl #14
     df0:	21690100 	cmncs	r9, r0, lsl #2
     df4:	000001e2 	andeq	r0, r0, r2, ror #3
     df8:	000004da 	ldrdeq	r0, [r0], -sl
     dfc:	000004d6 	ldrdeq	r0, [r0], -r6
     e00:	0005680e 	andeq	r6, r5, lr, lsl #16
     e04:	2f690100 	svccs	0x00690100
     e08:	0000004d 	andeq	r0, r0, sp, asr #32
     e0c:	000004ff 	strdeq	r0, [r0], -pc	; <UNPREDICTABLE>
     e10:	000004fb 	strdeq	r0, [r0], -fp
     e14:	00058e0e 	andeq	r8, r5, lr, lsl #28
     e18:	42690100 	rsbmi	r0, r9, #0
     e1c:	0000002c 	andeq	r0, r0, ip, lsr #32
     e20:	00000524 	andeq	r0, r0, r4, lsr #10
     e24:	00000520 	andeq	r0, r0, r0, lsr #10
     e28:	0003470f 	andeq	r4, r3, pc, lsl #14
     e2c:	0001f800 	andeq	pc, r1, r0, lsl #16
     e30:	a4030500 	strge	r0, [r3], #-1280	; 0xfffffb00
     e34:	10000094 	mulne	r0, r4, r0
     e38:	6c010069 	stcvs	0, cr0, [r1], {105}	; 0x69
     e3c:	00004d0d 	andeq	r4, r0, sp, lsl #26
     e40:	004e1000 	subeq	r1, lr, r0
     e44:	2c0e6d01 	stccs	13, cr6, [lr], {1}
     e48:	11000000 	mrsne	r0, (UNDEF: 0)
     e4c:	000005c0 	andeq	r0, r0, r0, asr #11
     e50:	4d0d6e01 	stcmi	14, cr6, [sp, #-4]
     e54:	11000000 	mrsne	r0, (UNDEF: 0)
     e58:	000005b5 			; <UNDEFINED> instruction: 0x000005b5
     e5c:	e20e6f01 	and	r6, lr, #1, 30
     e60:	11000001 	tstne	r0, r1
     e64:	00000589 	andeq	r0, r0, r9, lsl #11
     e68:	e20e7001 	and	r7, lr, #1, 0
     e6c:	12000001 	andne	r0, r0, #1, 0
     e70:	000001a9 	andeq	r0, r0, r9, lsr #3
     e74:	00056311 	andeq	r6, r5, r1, lsl r3
     e78:	11760100 	cmnne	r6, r0, lsl #2
     e7c:	0000003a 	andeq	r0, r0, sl, lsr r0
     e80:	858c1300 	strhi	r1, [ip, #768]	; 0x300
     e84:	06e80000 	strbteq	r0, [r8], r0
     e88:	01d80000 	bicseq	r0, r8, r0
     e8c:	01140000 	tsteq	r4, r0
     e90:	64030550 	strvs	r0, [r3], #-1360	; 0xfffffab0
     e94:	14000094 	strne	r0, [r0], #-148	; 0xffffff6c
     e98:	03055101 	movweq	r5, #20737	; 0x5101
     e9c:	0000942c 	andeq	r9, r0, ip, lsr #8
     ea0:	05520114 	ldrbeq	r0, [r2, #-276]	; 0xfffffeec
     ea4:	0094a403 	addseq	sl, r4, r3, lsl #8
     ea8:	53011400 	movwpl	r1, #5120	; 0x1400
     eac:	006a0802 	rsbeq	r0, sl, r2, lsl #16
     eb0:	00859015 	addeq	r9, r5, r5, lsl r0
     eb4:	0006f400 	andeq	pc, r6, r0, lsl #8
     eb8:	04080000 	streq	r0, [r8], #-0
     ebc:	0000003a 	andeq	r0, r0, sl, lsr r0
     ec0:	0000c00a 	andeq	ip, r0, sl
     ec4:	0001f800 	andeq	pc, r1, r0, lsl #16
     ec8:	002c1600 	eoreq	r1, ip, r0, lsl #12
     ecc:	000e0000 	andeq	r0, lr, r0
     ed0:	0001e809 	andeq	lr, r1, r9, lsl #16
     ed4:	01860d00 	orreq	r0, r6, r0, lsl #26
     ed8:	0a010000 	beq	40ee0 <__bss_end__+0x36ea8>
     edc:	00004d09 	andeq	r4, r0, r9, lsl #26
     ee0:	00833000 	addeq	r3, r3, r0
     ee4:	00024400 	andeq	r4, r2, r0, lsl #8
     ee8:	7a9c0100 	bvc	fe7012f0 <__bss_end__+0xfe6f72b8>
     eec:	0e000006 	cdpeq	0, 0, cr0, cr0, cr6, {0}
     ef0:	000005b5 			; <UNDEFINED> instruction: 0x000005b5
     ef4:	e2210a01 	eor	r0, r1, #4096	; 0x1000
     ef8:	53000001 	movwpl	r0, #1
     efc:	45000005 	strmi	r0, [r0, #-5]
     f00:	0e000005 	cdpeq	0, 0, cr0, cr0, cr5, {0}
     f04:	00000589 	andeq	r0, r0, r9, lsl #11
     f08:	e2300a01 	eors	r0, r0, #4096	; 0x1000
     f0c:	bc000001 	stclt	0, cr0, [r0], {1}
     f10:	ae000005 	cdpge	0, 0, cr0, cr0, cr5, {0}
     f14:	0e000005 	cdpeq	0, 0, cr0, cr0, cr5, {0}
     f18:	00000568 	andeq	r0, r0, r8, ror #10
     f1c:	3a3e0a01 	bcc	f83728 <__bss_end__+0xf796f0>
     f20:	1f000000 	svcne	0x00000000
     f24:	17000006 	strne	r0, [r0, -r6]
     f28:	0e000006 	cdpeq	0, 0, cr0, cr0, cr6, {0}
     f2c:	0000058e 	andeq	r0, r0, lr, lsl #11
     f30:	2c510a01 	mrrccs	10, 0, r0, r1, cr1
     f34:	61000000 	mrsvs	r0, (UNDEF: 0)
     f38:	59000006 	stmdbpl	r0, {r1, r2}
     f3c:	17000006 	strne	r0, [r0, -r6]
     f40:	0c01006e 	stceq	0, cr0, [r1], {110}	; 0x6e
     f44:	00002c0e 	andeq	r2, r0, lr, lsl #24
     f48:	00069b00 	andeq	r9, r6, r0, lsl #22
     f4c:	00069700 	andeq	r9, r6, r0, lsl #14
     f50:	03470f00 	movteq	r0, #32512	; 0x7f00
     f54:	01f80000 	mvnseq	r0, r0
     f58:	03050000 	movweq	r0, #20480	; 0x5000
     f5c:	00009494 	muleq	r0, r4, r4
     f60:	0005c018 	andeq	ip, r5, r8, lsl r0
     f64:	0d120100 	ldfeqs	f0, [r2, #-0]
     f68:	0000004d 	andeq	r0, r0, sp, asr #32
     f6c:	000006bb 			; <UNDEFINED> instruction: 0x000006bb
     f70:	000006b9 			; <UNDEFINED> instruction: 0x000006b9
     f74:	00055a18 	andeq	r5, r5, r8, lsl sl
     f78:	0d130100 	ldfeqs	f0, [r3, #-0]
     f7c:	0000004d 	andeq	r0, r0, sp, asr #32
     f80:	000006d5 	ldrdeq	r0, [r0], -r5
     f84:	000006cf 	andeq	r0, r0, pc, asr #13
     f88:	6e656c17 	mcrvs	12, 3, r6, cr5, cr7, {0}
     f8c:	0e290100 	sufeqe	f0, f1, f0
     f90:	0000002c 	andeq	r0, r0, ip, lsr #32
     f94:	00000703 	andeq	r0, r0, r3, lsl #14
     f98:	000006ff 	strdeq	r0, [r0], -pc	; <UNPREDICTABLE>
     f9c:	0005f111 	andeq	pc, r5, r1, lsl r1	; <UNPREDICTABLE>
     fa0:	0d2a0100 	stfeqs	f0, [sl, #-0]
     fa4:	0000003a 	andeq	r0, r0, sl, lsr r0
     fa8:	0000a019 	andeq	sl, r0, r9, lsl r0
     fac:	00033400 	andeq	r3, r3, r0, lsl #8
     fb0:	05511800 	ldrbeq	r1, [r1, #-2048]	; 0xfffff800
     fb4:	16010000 	strne	r0, [r1], -r0
     fb8:	00002c13 	andeq	r2, r0, r3, lsl ip
     fbc:	00072900 	andeq	r2, r7, r0, lsl #18
     fc0:	00072300 	andeq	r2, r7, r0, lsl #6
     fc4:	83741a00 	cmnhi	r4, #0, 20
     fc8:	00480000 	subeq	r0, r8, r0
     fcc:	6c170000 	ldcvs	0, cr0, [r7], {-0}
     fd0:	01006e65 	tsteq	r0, r5, ror #28
     fd4:	002c1217 	eoreq	r1, ip, r7, lsl r2
     fd8:	07590000 	ldrbeq	r0, [r9, -r0]
     fdc:	07550000 	ldrbeq	r0, [r5, -r0]
     fe0:	1b180000 	blne	600fe8 <__bss_end__+0x5f6fb0>
     fe4:	01000006 	tsteq	r0, r6
     fe8:	003a1121 	eorseq	r1, sl, r1, lsr #2
     fec:	077d0000 	ldrbeq	r0, [sp, -r0]!
     ff0:	07790000 	ldrbeq	r0, [r9, -r0]!
     ff4:	d5180000 	ldrle	r0, [r8, #-0]
     ff8:	01000005 	tsteq	r0, r5
     ffc:	003a1124 	eorseq	r1, sl, r4, lsr #2
    1000:	07a10000 	streq	r0, [r1, r0]!
    1004:	079f0000 	ldreq	r0, [pc, r0]
    1008:	00000000 	andeq	r0, r0, r0
    100c:	0000c819 	andeq	ip, r0, r9, lsl r8
    1010:	00064200 	andeq	r4, r6, r0, lsl #4
    1014:	05a41800 	streq	r1, [r4, #2048]!	; 0x800
    1018:	2c010000 	stccs	0, cr0, [r1], {-0}
    101c:	00004d11 	andeq	r4, r0, r1, lsl sp
    1020:	0007b600 	andeq	fp, r7, r0, lsl #12
    1024:	0007b400 	andeq	fp, r7, r0, lsl #8
    1028:	057b1800 	ldrbeq	r1, [fp, #-2048]!	; 0xfffff800
    102c:	42010000 	andmi	r0, r1, #0, 0
    1030:	00002c12 	andeq	r2, r0, r2, lsl ip
    1034:	0007ce00 	andeq	ip, r7, r0, lsl #28
    1038:	0007ca00 	andeq	ip, r7, r0, lsl #20
    103c:	03811200 	orreq	r1, r1, #0, 4
    1040:	69100000 	ldmdbvs	r0, {}	; <UNPREDICTABLE>
    1044:	1b300100 	blne	c0144c <__bss_end__+0xbf7414>
    1048:	0000002c 	andeq	r0, r0, ip, lsr #32
    104c:	006a101b 	rsbeq	r1, sl, fp, lsl r0
    1050:	3a193101 	bcc	64d45c <__bss_end__+0x643424>
    1054:	00000000 	andeq	r0, r0, r0
    1058:	00e01c00 	rsceq	r1, r0, r0, lsl #24
    105c:	09180000 	ldmdbeq	r8, {}	; <UNPREDICTABLE>
    1060:	01000006 	tsteq	r0, r6
    1064:	002c1743 	eoreq	r1, ip, r3, asr #14
    1068:	07f20000 	ldrbeq	r0, [r2, r0]!
    106c:	07ee0000 	strbeq	r0, [lr, r0]!
    1070:	081c0000 	ldmdaeq	ip, {}	; <UNPREDICTABLE>
    1074:	10000001 	andne	r0, r0, r1
    1078:	4401006a 	strmi	r0, [r1], #-106	; 0xffffff96
    107c:	00004d15 	andeq	r4, r0, r5, lsl sp
    1080:	05b01100 	ldreq	r1, [r0, #256]!	; 0x100
    1084:	46010000 	strmi	r0, [r1], -r0
    1088:	00003a15 	andeq	r3, r0, r5, lsl sl
    108c:	05841100 	streq	r1, [r4, #256]	; 0x100
    1090:	47010000 	strmi	r0, [r1, -r0]
    1094:	00003a15 	andeq	r3, r0, r5, lsl sl
    1098:	01081c00 	tsteq	r8, r0, lsl #24
    109c:	69170000 	ldmdbvs	r7, {}	; <UNPREDICTABLE>
    10a0:	1b520100 	blne	14814a8 <__bss_end__+0x1477470>
    10a4:	0000002c 	andeq	r0, r0, ip, lsr #32
    10a8:	00000818 	andeq	r0, r0, r8, lsl r8
    10ac:	00000812 	andeq	r0, r0, r2, lsl r8
    10b0:	0001201c 	andeq	r2, r1, ip, lsl r0
    10b4:	05711800 	ldrbeq	r1, [r1, #-2048]!	; 0xfffff800
    10b8:	54010000 	strpl	r0, [r1], #-0
    10bc:	00003a19 	andeq	r3, r0, r9, lsl sl
    10c0:	00084400 	andeq	r4, r8, r0, lsl #8
    10c4:	00084200 	andeq	r4, r8, r0, lsl #4
    10c8:	06251800 	strteq	r1, [r5], -r0, lsl #16
    10cc:	55010000 	strpl	r0, [r1, #-0]
    10d0:	00003a19 	andeq	r3, r0, r9, lsl sl
    10d4:	00085900 	andeq	r5, r8, r0, lsl #18
    10d8:	00085700 	andeq	r5, r8, r0, lsl #14
    10dc:	062f1800 	strteq	r1, [pc], -r0, lsl #16
    10e0:	56010000 	strpl	r0, [r1], -r0
    10e4:	00003a19 	andeq	r3, r0, r9, lsl sl
    10e8:	00087000 	andeq	r7, r8, r0
    10ec:	00086c00 	andeq	r6, r8, r0, lsl #24
    10f0:	05ff1800 	ldrbeq	r1, [pc, #2048]!	; 18f8 <__code_start__-0x6708>
    10f4:	57010000 	strpl	r0, [r1, -r0]
    10f8:	00003a19 	andeq	r3, r0, r9, lsl sl
    10fc:	0008fa00 	andeq	pc, r8, r0, lsl #20
    1100:	0008f600 	andeq	pc, r8, r0, lsl #12
    1104:	067a1d00 	ldrbteq	r1, [sl], -r0, lsl #26
    1108:	84280000 	strthi	r0, [r8], #-0
    110c:	28030000 	stmdacs	r3, {}	; <UNPREDICTABLE>
    1110:	1c000084 	stcne	0, cr0, [r0], {132}	; 0x84
    1114:	01000000 	mrseq	r0, (UNDEF: 0)
    1118:	04b12554 	ldrteq	r2, [r1], #1364	; 0x554
    111c:	8b1e0000 	blhi	781124 <__bss_end__+0x7770ec>
    1120:	1f000006 	svcne	0x00000006
    1124:	00000695 	muleq	r0, r5, r6
    1128:	00000988 	andeq	r0, r0, r8, lsl #19
    112c:	00000980 	andeq	r0, r0, r0, lsl #19
    1130:	00069f20 	andeq	r9, r6, r0, lsr #30
    1134:	0009ce00 	andeq	ip, r9, r0, lsl #28
    1138:	0009cc00 	andeq	ip, r9, r0, lsl #24
    113c:	06a92000 	strteq	r2, [r9], r0
    1140:	09e70000 	stmibeq	r7!, {}^	; <UNPREDICTABLE>
    1144:	09e10000 	stmibeq	r1!, {}^	; <UNPREDICTABLE>
    1148:	b6210000 	strtlt	r0, [r1], -r0
    114c:	28000006 	stmdacs	r0, {r1, r2}
    1150:	05000084 	streq	r0, [r0, #-132]	; 0xffffff7c
    1154:	00008428 	andeq	r8, r0, r8, lsr #8
    1158:	0000000c 	andeq	r0, r0, ip
    115c:	1e112702 	cdpne	7, 1, cr2, cr1, cr2, {0}
    1160:	000006c7 	andeq	r0, r0, r7, asr #13
    1164:	0006d11f 	andeq	sp, r6, pc, lsl r1
    1168:	000a2400 	andeq	r2, sl, r0, lsl #8
    116c:	000a1c00 	andeq	r1, sl, r0, lsl #24
    1170:	06db2000 	ldrbeq	r2, [fp], r0
    1174:	0a6c0000 	beq	1b0117c <__bss_end__+0x1af7144>
    1178:	0a680000 	beq	1a01180 <__bss_end__+0x19f7148>
    117c:	30150000 	andscc	r0, r5, r0
    1180:	00000084 	andeq	r0, r0, r4, lsl #1
    1184:	00000007 	andeq	r0, r0, r7
    1188:	067a1d00 	ldrbteq	r1, [sl], -r0, lsl #26
    118c:	84440000 	strbhi	r0, [r4], #-0
    1190:	44010000 	strmi	r0, [r1], #-0
    1194:	1c000084 	stcne	0, cr0, [r0], {132}	; 0x84
    1198:	01000000 	mrseq	r0, (UNDEF: 0)
    119c:	05354d54 	ldreq	r4, [r5, #-3412]!	; 0xfffff2ac
    11a0:	8b1e0000 	blhi	7811a8 <__bss_end__+0x777170>
    11a4:	1f000006 	svcne	0x00000006
    11a8:	00000695 	muleq	r0, r5, r6
    11ac:	00000a91 	muleq	r0, r1, sl
    11b0:	00000a8b 	andeq	r0, r0, fp, lsl #21
    11b4:	00069f20 	andeq	r9, r6, r0, lsr #30
    11b8:	000ac800 	andeq	ip, sl, r0, lsl #16
    11bc:	000ac600 	andeq	ip, sl, r0, lsl #12
    11c0:	06a92000 	strteq	r2, [r9], r0
    11c4:	0ae10000 	beq	ff8411cc <__bss_end__+0xff837194>
    11c8:	0adb0000 	beq	ff6c11d0 <__bss_end__+0xff6b7198>
    11cc:	b6210000 	strtlt	r0, [r1], -r0
    11d0:	44000006 	strmi	r0, [r0], #-6
    11d4:	03000084 	movweq	r0, #132	; 0x84
    11d8:	00008444 	andeq	r8, r0, r4, asr #8
    11dc:	0000000c 	andeq	r0, r0, ip
    11e0:	1e112702 	cdpne	7, 1, cr2, cr1, cr2, {0}
    11e4:	000006c7 	andeq	r0, r0, r7, asr #13
    11e8:	0006d11f 	andeq	sp, r6, pc, lsl r1
    11ec:	000b1c00 	andeq	r1, fp, r0, lsl #24
    11f0:	000b1600 	andeq	r1, fp, r0, lsl #12
    11f4:	06db2000 	ldrbeq	r2, [fp], r0
    11f8:	0b550000 	bleq	1541200 <__bss_end__+0x15371c8>
    11fc:	0b510000 	bleq	1441204 <__bss_end__+0x14371cc>
    1200:	4c150000 	ldcmi	0, cr0, [r5], {-0}
    1204:	00000084 	andeq	r0, r0, r4, lsl #1
    1208:	00000007 	andeq	r0, r0, r7
    120c:	067a2200 	ldrbteq	r2, [sl], -r0, lsl #4
    1210:	84680000 	strbthi	r0, [r8], #-0
    1214:	48010000 	stmdami	r1, {}	; <UNPREDICTABLE>
    1218:	01000001 	tsteq	r0, r1
    121c:	05bb2555 	ldreq	r2, [fp, #1365]!	; 0x555
    1220:	8b1e0000 	blhi	781228 <__bss_end__+0x7771f0>
    1224:	1f000006 	svcne	0x00000006
    1228:	00000695 	muleq	r0, r5, r6
    122c:	00000b78 	andeq	r0, r0, r8, ror fp
    1230:	00000b74 	andeq	r0, r0, r4, ror fp
    1234:	0001481c 	andeq	r4, r1, ip, lsl r8
    1238:	069f2000 	ldreq	r2, [pc], r0
    123c:	0ba00000 	bleq	fe801244 <__bss_end__+0xfe7f720c>
    1240:	0b9e0000 	bleq	fe781248 <__bss_end__+0xfe777210>
    1244:	a9200000 	stmdbge	r0!, {}	; <UNPREDICTABLE>
    1248:	b5000006 	strlt	r0, [r0, #-6]
    124c:	b300000b 	movwlt	r0, #11
    1250:	2100000b 	tstcs	r0, fp
    1254:	000006b6 			; <UNDEFINED> instruction: 0x000006b6
    1258:	00008468 	andeq	r8, r0, r8, ror #8
    125c:	00846803 	addeq	r6, r4, r3, lsl #16
    1260:	00000c00 	andeq	r0, r0, r0, lsl #24
    1264:	11270200 			; <UNDEFINED> instruction: 0x11270200
    1268:	0006c71e 	andeq	ip, r6, lr, lsl r7
    126c:	06d11f00 	ldrbeq	r1, [r1], r0, lsl #30
    1270:	0bd20000 	bleq	ff481278 <__bss_end__+0xff477240>
    1274:	0bce0000 	bleq	ff38127c <__bss_end__+0xff377244>
    1278:	db200000 	blle	801280 <__bss_end__+0x7f7248>
    127c:	fc000006 	stc2	0, cr0, [r0], {6}
    1280:	f800000b 			; <UNDEFINED> instruction: 0xf800000b
    1284:	1500000b 	strne	r0, [r0, #-11]
    1288:	00008470 	andeq	r8, r0, r0, ror r4
    128c:	00000700 	andeq	r0, r0, r0, lsl #14
    1290:	23000000 	movwcs	r0, #0
    1294:	0000067a 	andeq	r0, r0, sl, ror r6
    1298:	00008474 	andeq	r8, r0, r4, ror r4
    129c:	00016805 	andeq	r6, r1, r5, lsl #16
    12a0:	4d550100 	ldfmie	f0, [r5, #-0]
    12a4:	00068b1e 	andeq	r8, r6, lr, lsl fp
    12a8:	06951f00 	ldreq	r1, [r5], r0, lsl #30
    12ac:	0c1d0000 	ldceq	0, cr0, [sp], {-0}
    12b0:	0c1b0000 	ldceq	0, cr0, [fp], {-0}
    12b4:	681c0000 	ldmdavs	ip, {}	; <UNPREDICTABLE>
    12b8:	20000001 	andcs	r0, r0, r1
    12bc:	0000069f 	muleq	r0, pc, r6	; <UNPREDICTABLE>
    12c0:	00000c36 	andeq	r0, r0, r6, lsr ip
    12c4:	00000c34 	andeq	r0, r0, r4, lsr ip
    12c8:	0006a920 	andeq	sl, r6, r0, lsr #18
    12cc:	000c4b00 	andeq	r4, ip, r0, lsl #22
    12d0:	000c4900 	andeq	r4, ip, r0, lsl #18
    12d4:	06b62100 	ldrteq	r2, [r6], r0, lsl #2
    12d8:	84740000 	ldrbthi	r0, [r4], #-0
    12dc:	74070000 	strvc	r0, [r7], #-0
    12e0:	0c000084 	stceq	0, cr0, [r0], {132}	; 0x84
    12e4:	02000000 	andeq	r0, r0, #0, 0
    12e8:	c71e1127 	ldrgt	r1, [lr, -r7, lsr #2]
    12ec:	1f000006 	svcne	0x00000006
    12f0:	000006d1 	ldrdeq	r0, [r0], -r1
    12f4:	00000c66 	andeq	r0, r0, r6, ror #24
    12f8:	00000c64 	andeq	r0, r0, r4, ror #24
    12fc:	0006db20 	andeq	sp, r6, r0, lsr #22
    1300:	000c8100 	andeq	r8, ip, r0, lsl #2
    1304:	000c7d00 	andeq	r7, ip, r0, lsl #26
    1308:	847c1500 	ldrbthi	r1, [ip], #-1280	; 0xfffffb00
    130c:	07000000 	streq	r0, [r0, -r0]
	...
    1318:	64130000 	ldrvs	r0, [r3], #-0
    131c:	e8000085 	stmda	r0, {r0, r2, r7}
    1320:	70000006 	andvc	r0, r0, r6
    1324:	14000006 	strne	r0, [r0], #-6
    1328:	03055001 	movweq	r5, #20481	; 0x5001
    132c:	00009434 	andeq	r9, r0, r4, lsr r4
    1330:	05510114 	ldrbeq	r0, [r1, #-276]	; 0xfffffeec
    1334:	00942c03 	addseq	r2, r4, r3, lsl #24
    1338:	52011400 	andpl	r1, r1, #0, 8
    133c:	94940305 	ldrls	r0, [r4], #773	; 0x305
    1340:	01140000 	tsteq	r4, r0
    1344:	003f0153 	eorseq	r0, pc, r3, asr r1	; <UNPREDICTABLE>
    1348:	00856815 	addeq	r6, r5, r5, lsl r8
    134c:	0006f400 	andeq	pc, r6, r0, lsl #8
    1350:	df240000 	svcle	0x00240000
    1354:	02000005 	andeq	r0, r0, #5, 0
    1358:	003a1026 	eorseq	r1, sl, r6, lsr #32
    135c:	b6030000 	strlt	r0, [r3], -r0
    1360:	25000006 	strcs	r0, [r0, #-6]
    1364:	26020061 	strcs	r0, [r2], -r1, rrx
    1368:	00003a2a 	andeq	r3, r0, sl, lsr #20
    136c:	00622500 	rsbeq	r2, r2, r0, lsl #10
    1370:	3a352602 	bcc	d4ab80 <__bss_end__+0xd40b48>
    1374:	10000000 	andne	r0, r0, r0
    1378:	27020063 	strcs	r0, [r2, -r3, rrx]
    137c:	00004d0d 	andeq	r4, r0, sp, lsl #26
    1380:	05ba1100 	ldreq	r1, [sl, #256]!	; 0x100
    1384:	29020000 	stmdbcs	r2, {}	; <UNPREDICTABLE>
    1388:	00004d0d 	andeq	r4, r0, sp, lsl #26
    138c:	96240000 	strtls	r0, [r4], -r0
    1390:	02000005 	andeq	r0, r0, #5, 0
    1394:	004d1009 	subeq	r1, sp, r9
    1398:	e8030000 	stmda	r3, {}	; <UNPREDICTABLE>
    139c:	25000006 	strcs	r0, [r0, #-6]
    13a0:	09020061 	stmdbeq	r2, {r0, r5, r6}
    13a4:	00003a26 	andeq	r3, r0, r6, lsr #20
    13a8:	00622500 	rsbeq	r2, r2, r0, lsl #10
    13ac:	3a310902 	bcc	c437bc <__bss_end__+0xc39784>
    13b0:	10000000 	andne	r0, r0, r0
    13b4:	00746572 	rsbseq	r6, r4, r2, ror r5
    13b8:	4d0d0d02 	stcmi	13, cr0, [sp, #-8]
    13bc:	00000000 	andeq	r0, r0, r0
    13c0:	00076926 	andeq	r6, r7, r6, lsr #18
    13c4:	00076900 	andeq	r6, r7, r0, lsl #18
    13c8:	06280400 	strteq	r0, [r8], -r0, lsl #8
    13cc:	00001626 	andeq	r1, r0, r6, lsr #12
    13d0:	00001600 	andeq	r1, r0, r0, lsl #12
    13d4:	066e0400 	strbteq	r0, [lr], -r0, lsl #8
    13d8:	62736427 	rsbsvs	r6, r3, #654311424	; 0x27000000
    13dc:	62736400 	rsbsvs	r6, r3, #0, 8
    13e0:	069e0400 	ldreq	r0, [lr], r0, lsl #8
    13e4:	00013a00 	andeq	r3, r1, r0, lsl #20
    13e8:	f6000400 			; <UNDEFINED> instruction: 0xf6000400
    13ec:	04000005 	streq	r0, [r0], #-5
    13f0:	00063901 	andeq	r3, r6, r1, lsl #18
    13f4:	07510c00 	ldrbeq	r0, [r1, -r0, lsl #24]
    13f8:	070a0000 	streq	r0, [sl, -r0]
    13fc:	859c0000 	ldrhi	r0, [ip]
    1400:	00180000 	andseq	r0, r8, r0
    1404:	11020000 	mrsne	r0, (UNDEF: 2)
    1408:	04020000 	streq	r0, [r2], #-0
    140c:	746e6905 	strbtvc	r6, [lr], #-2309	; 0xfffff6fb
    1410:	07030300 	streq	r0, [r3, -r0, lsl #6]
    1414:	d1030000 	mrsle	r0, (UNDEF: 3)
    1418:	00003817 	andeq	r3, r0, r7, lsl r8
    141c:	07040400 	streq	r0, [r4, -r0, lsl #8]
    1420:	00000166 	andeq	r0, r0, r6, ror #2
    1424:	0a060104 	beq	18183c <__bss_end__+0x177804>
    1428:	04000000 	streq	r0, [r0], #-0
    142c:	01b70502 			; <UNDEFINED> instruction: 0x01b70502
    1430:	04040000 	streq	r0, [r4], #-0
    1434:	0001a205 	andeq	sl, r1, r5, lsl #4
    1438:	05080400 	streq	r0, [r8, #-1024]	; 0xfffffc00
    143c:	0000019d 	muleq	r0, sp, r1
    1440:	08080104 	stmdaeq	r8, {r2, r8}
    1444:	04000000 	streq	r0, [r0], #-0
    1448:	00340702 	eorseq	r0, r4, r2, lsl #14
    144c:	04040000 	streq	r0, [r4], #-0
    1450:	00016107 	andeq	r6, r1, r7, lsl #2
    1454:	07080400 	streq	r0, [r8, -r0, lsl #8]
    1458:	0000015c 	andeq	r0, r0, ip, asr r1
    145c:	00002505 	andeq	r2, r0, r5, lsl #10
    1460:	00008600 	andeq	r8, r0, r0, lsl #12
    1464:	00250600 	eoreq	r0, r5, r0, lsl #12
    1468:	07000000 	streq	r0, [r0, -r0]
    146c:	000001ab 	andeq	r0, r0, fp, lsr #3
    1470:	920e1c02 	andls	r1, lr, #512	; 0x200
    1474:	08000000 	stmdaeq	r0, {}	; <UNPREDICTABLE>
    1478:	00007704 	andeq	r7, r0, r4, lsl #14
    147c:	00250500 	eoreq	r0, r5, r0, lsl #10
    1480:	00a70000 	adceq	r0, r7, r0
    1484:	a7060000 	strge	r0, [r6, -r0]
    1488:	00000000 	andeq	r0, r0, r0
    148c:	00b40408 	adcseq	r0, r4, r8, lsl #8
    1490:	01040000 	mrseq	r0, (UNDEF: 4)
    1494:	00001108 	andeq	r1, r0, r8, lsl #2
    1498:	00ad0900 	adceq	r0, sp, r0, lsl #18
    149c:	a7070000 	strge	r0, [r7, -r0]
    14a0:	02000007 	andeq	r0, r0, #7, 0
    14a4:	00c50e21 	sbceq	r0, r5, r1, lsr #28
    14a8:	04080000 	streq	r0, [r8], #-0
    14ac:	00000098 	muleq	r0, r8, r0
    14b0:	00002d0a 	andeq	r2, r0, sl, lsl #26
    14b4:	07040100 	streq	r0, [r4, -r0, lsl #2]
    14b8:	00000135 	andeq	r0, r0, r5, lsr r1
    14bc:	0000859c 	muleq	r0, ip, r5
    14c0:	00000018 	andeq	r0, r0, r8, lsl r0
    14c4:	01359c01 	teqeq	r5, r1, lsl #24
    14c8:	5f0b0000 	svcpl	0x000b0000
    14cc:	04010070 	streq	r0, [r1], #-112	; 0xffffff90
    14d0:	00013514 	andeq	r3, r1, r4, lsl r5
    14d4:	0b500100 	bleq	14018dc <__bss_end__+0x13f78a4>
    14d8:	04010063 	streq	r0, [r1], #-99	; 0xffffff9d
    14dc:	0000251c 	andeq	r2, r0, ip, lsl r5
    14e0:	0c510100 	ldfeqe	f0, [r1], {-0}
    14e4:	0401006e 	streq	r0, [r1], #-110	; 0xffffff92
    14e8:	00002c26 	andeq	r2, r0, r6, lsr #24
    14ec:	000ca400 	andeq	sl, ip, r0, lsl #8
    14f0:	000ca000 	andeq	sl, ip, r0
    14f4:	00700d00 	rsbseq	r0, r0, r0, lsl #26
    14f8:	370b0501 	strcc	r0, [fp, -r1, lsl #10]
    14fc:	cd000001 	stcgt	0, cr0, [r0, #-4]
    1500:	c500000c 	strgt	r0, [r0, #-12]
    1504:	0d00000c 	stceq	0, cr0, [r0, #-48]	; 0xffffffd0
    1508:	05010065 	streq	r0, [r1, #-101]	; 0xffffff9b
    150c:	00013714 	andeq	r3, r1, r4, lsl r7
    1510:	000d0500 	andeq	r0, sp, r0, lsl #10
    1514:	000d0300 	andeq	r0, sp, r0, lsl #6
    1518:	040e0000 	streq	r0, [lr], #-0
    151c:	00ad0408 	adceq	r0, sp, r8, lsl #8
    1520:	9d000000 	stcls	0, cr0, [r0, #-0]
    1524:	04000001 	streq	r0, [r0], #-1
    1528:	0006c200 	andeq	ip, r6, r0, lsl #4
    152c:	39010400 	stmdbcc	r1, {sl}
    1530:	0c000006 	stceq	0, cr0, [r0], {6}
    1534:	00000784 	andeq	r0, r0, r4, lsl #15
    1538:	0000070a 	andeq	r0, r0, sl, lsl #14
    153c:	000085b4 			; <UNDEFINED> instruction: 0x000085b4
    1540:	00000058 	andeq	r0, r0, r8, asr r0
    1544:	00001219 	andeq	r1, r0, r9, lsl r2
    1548:	00077002 	andeq	r7, r7, r2
    154c:	1b280200 	blne	a01d54 <__bss_end__+0x9f7d1c>
    1550:	00000031 	andeq	r0, r0, r1, lsr r0
    1554:	00079403 	andeq	r9, r7, r3, lsl #8
    1558:	00040400 	andeq	r0, r4, r0, lsl #8
    155c:	00000048 	andeq	r0, r0, r8, asr #32
    1560:	00077f04 	andeq	r7, r7, r4, lsl #30
    1564:	00004800 	andeq	r4, r0, r0, lsl #16
    1568:	05000000 	streq	r0, [r0, #-0]
    156c:	07960204 	ldreq	r0, [r6, r4, lsl #4]
    1570:	63020000 	movwvs	r0, #8192	; 0x2000
    1574:	00002518 	andeq	r2, r0, r8, lsl r5
    1578:	05040600 	streq	r0, [r4, #-1536]	; 0xfffffa00
    157c:	00746e69 	rsbseq	r6, r4, r9, ror #28
    1580:	66070407 	strvs	r0, [r7], -r7, lsl #8
    1584:	07000001 	streq	r0, [r0, -r1]
    1588:	000a0601 	andeq	r0, sl, r1, lsl #12
    158c:	02070000 	andeq	r0, r7, #0, 0
    1590:	0001b705 	andeq	fp, r1, r5, lsl #14
    1594:	05040700 	streq	r0, [r4, #-1792]	; 0xfffff900
    1598:	000001a2 	andeq	r0, r0, r2, lsr #3
    159c:	9d050807 	stcls	8, cr0, [r5, #-28]	; 0xffffffe4
    15a0:	07000001 	streq	r0, [r0, -r1]
    15a4:	00080801 	andeq	r0, r8, r1, lsl #16
    15a8:	02070000 	andeq	r0, r7, #0, 0
    15ac:	00003407 	andeq	r3, r0, r7, lsl #8
    15b0:	07040700 	streq	r0, [r4, -r0, lsl #14]
    15b4:	00000161 	andeq	r0, r0, r1, ror #2
    15b8:	5c070807 	stcpl	8, cr0, [r7], {7}
    15bc:	08000001 	stmdaeq	r0, {r0}
    15c0:	00000056 	andeq	r0, r0, r6, asr r0
    15c4:	000000ab 	andeq	r0, r0, fp, lsr #1
    15c8:	00005609 	andeq	r5, r0, r9, lsl #12
    15cc:	ab0a0000 	blge	2815d4 <__bss_end__+0x27759c>
    15d0:	03000001 	movweq	r0, #1
    15d4:	00b70e1c 	adcseq	r0, r7, ip, lsl lr
    15d8:	040b0000 	streq	r0, [fp], #-0
    15dc:	0000009c 	muleq	r0, ip, r0
    15e0:	00005608 	andeq	r5, r0, r8, lsl #12
    15e4:	0000cc00 	andeq	ip, r0, r0, lsl #24
    15e8:	00cc0900 	sbceq	r0, ip, r0, lsl #18
    15ec:	0b000000 	bleq	15f4 <__code_start__-0x6a0c>
    15f0:	0000d904 	andeq	sp, r0, r4, lsl #18
    15f4:	08010700 	stmdaeq	r1, {r8, r9, sl}
    15f8:	00000011 	andeq	r0, r0, r1, lsl r0
    15fc:	0000d20c 	andeq	sp, r0, ip, lsl #4
    1600:	07a70a00 	streq	r0, [r7, r0, lsl #20]!
    1604:	21030000 	mrscs	r0, (UNDEF: 3)
    1608:	0000ea0e 	andeq	lr, r0, lr, lsl #20
    160c:	bd040b00 	vstrlt	d0, [r4, #-0]
    1610:	0d000000 	stceq	0, cr0, [r0, #-0]
    1614:	00000769 	andeq	r0, r0, r9, ror #14
    1618:	56050601 	strpl	r0, [r5], -r1, lsl #12
    161c:	b4000000 	strlt	r0, [r0], #-0
    1620:	58000085 	stmdapl	r0, {r0, r2, r7}
    1624:	01000000 	mrseq	r0, (UNDEF: 0)
    1628:	0001839c 	muleq	r1, ip, r3
    162c:	6d660e00 	stclvs	14, cr0, [r6, #-0]
    1630:	06010074 			; <UNDEFINED> instruction: 0x06010074
    1634:	0000cc18 	andeq	ip, r0, r8, lsl ip
    1638:	70910200 	addsvc	r0, r1, r0, lsl #4
    163c:	7562100f 	strbvc	r1, [r2, #-15]!
    1640:	08010066 	stmdaeq	r1, {r1, r2, r5, r6}
    1644:	00018311 	andeq	r8, r1, r1, lsl r3
    1648:	38030500 	stmdacc	r3, {r8, sl}
    164c:	1100009c 	swpne	r0, ip, [r0]	; <UNPREDICTABLE>
    1650:	00000761 	andeq	r0, r0, r1, ror #14
    1654:	4a0d0901 	bmi	343a60 <__bss_end__+0x339a28>
    1658:	02000000 	andeq	r0, r0, #0, 0
    165c:	73125c91 	tstvc	r2, #37120	; 0x9100
    1660:	0c01007a 	stceq	0, cr0, [r1], {122}	; 0x7a
    1664:	0000560d 	andeq	r5, r0, sp, lsl #12
    1668:	000d1e00 	andeq	r1, sp, r0, lsl #28
    166c:	000d1800 	andeq	r1, sp, r0, lsl #16
    1670:	85dc1300 	ldrbhi	r1, [ip, #768]	; 0x300
    1674:	01940000 	orrseq	r0, r4, r0
    1678:	01760000 	cmneq	r6, r0
    167c:	01140000 	tsteq	r4, r0
    1680:	00750250 	rsbseq	r0, r5, r0, asr r2
    1684:	03510114 	cmpeq	r1, #5
    1688:	1404000a 	strne	r0, [r4], #-10
    168c:	91035201 	tstls	r3, r1, lsl #4
    1690:	01140648 	tsteq	r4, r8, asr #12
    1694:	4c910253 	lfmmi	f0, 4, [r1], {83}	; 0x53
    1698:	85f01500 	ldrbhi	r1, [r0, #1280]!	; 0x500
    169c:	01140000 	tsteq	r4, r0
    16a0:	00750250 	rsbseq	r0, r5, r0, asr r2
    16a4:	d2160000 	andsle	r0, r6, #0, 0
    16a8:	94000000 	strls	r0, [r0], #-0
    16ac:	17000001 	strne	r0, [r0, -r1]
    16b0:	0000005d 	andeq	r0, r0, sp, asr r0
    16b4:	180003ff 	stmdane	r0, {r0, r1, r2, r3, r4, r5, r6, r7, r8, r9}
    16b8:	00000766 	andeq	r0, r0, r6, ror #14
    16bc:	00000766 	andeq	r0, r0, r6, ror #14
    16c0:	00050205 	andeq	r0, r5, r5, lsl #4
    16c4:	000000f3 	strdeq	r0, [r0], -r3
    16c8:	08040004 	stmdaeq	r4, {r2}
    16cc:	01040000 	mrseq	r0, (UNDEF: 4)
    16d0:	00000639 	andeq	r0, r0, r9, lsr r6
    16d4:	0007ac0c 	andeq	sl, r7, ip, lsl #24
    16d8:	00070a00 	andeq	r0, r7, r0, lsl #20
    16dc:	00860c00 	addeq	r0, r6, r0, lsl #24
    16e0:	00003400 	andeq	r3, r0, r0, lsl #8
    16e4:	00134f00 	andseq	r4, r3, r0, lsl #30
    16e8:	05040200 	streq	r0, [r4, #-512]	; 0xfffffe00
    16ec:	00746e69 	rsbseq	r6, r4, r9, ror #28
    16f0:	66070403 	strvs	r0, [r7], -r3, lsl #8
    16f4:	03000001 	movweq	r0, #1
    16f8:	000a0601 	andeq	r0, sl, r1, lsl #12
    16fc:	02030000 	andeq	r0, r3, #0, 0
    1700:	0001b705 	andeq	fp, r1, r5, lsl #14
    1704:	05040300 	streq	r0, [r4, #-768]	; 0xfffffd00
    1708:	000001a2 	andeq	r0, r0, r2, lsr #3
    170c:	9d050803 	stcls	8, cr0, [r5, #-12]
    1710:	03000001 	movweq	r0, #1
    1714:	00080801 	andeq	r0, r8, r1, lsl #16
    1718:	02030000 	andeq	r0, r3, #0, 0
    171c:	00003407 	andeq	r3, r0, r7, lsl #8
    1720:	07040300 	streq	r0, [r4, -r0, lsl #6]
    1724:	00000161 	andeq	r0, r0, r1, ror #2
    1728:	5c070803 	stcpl	8, cr0, [r7], {3}
    172c:	04000001 	streq	r0, [r0], #-1
    1730:	00000025 	andeq	r0, r0, r5, lsr #32
    1734:	0000007a 	andeq	r0, r0, sl, ror r0
    1738:	00002505 	andeq	r2, r0, r5, lsl #10
    173c:	ab060000 	blge	181744 <__bss_end__+0x17770c>
    1740:	02000001 	andeq	r0, r0, #1, 0
    1744:	00860e1c 	addeq	r0, r6, ip, lsl lr
    1748:	04070000 	streq	r0, [r7], #-0
    174c:	0000006b 	andeq	r0, r0, fp, rrx
    1750:	00002504 	andeq	r2, r0, r4, lsl #10
    1754:	00009b00 	andeq	r9, r0, r0, lsl #22
    1758:	009b0500 	addseq	r0, fp, r0, lsl #10
    175c:	07000000 	streq	r0, [r0, -r0]
    1760:	0000a804 	andeq	sl, r0, r4, lsl #16
    1764:	08010300 	stmdaeq	r1, {r8, r9}
    1768:	00000011 	andeq	r0, r0, r1, lsl r0
    176c:	0000a108 	andeq	sl, r0, r8, lsl #2
    1770:	07a70600 	streq	r0, [r7, r0, lsl #12]!
    1774:	21020000 	mrscs	r0, (UNDEF: 2)
    1778:	0000b90e 	andeq	fp, r0, lr, lsl #18
    177c:	8c040700 	stchi	7, cr0, [r4], {-0}
    1780:	09000000 	stmdbeq	r0, {}	; <UNPREDICTABLE>
    1784:	000000ad 	andeq	r0, r0, sp, lsr #1
    1788:	05070c01 	streq	r0, [r7, #-3073]	; 0xfffff3ff
    178c:	009c3003 	addseq	r3, ip, r3
    1790:	079e0a00 	ldreq	r0, [lr, r0, lsl #20]
    1794:	04010000 	streq	r0, [r1], #-0
    1798:	00002505 	andeq	r2, r0, r5, lsl #10
    179c:	00860c00 	addeq	r0, r6, r0, lsl #24
    17a0:	00003400 	andeq	r3, r0, r0, lsl #8
    17a4:	0b9c0100 	bleq	fe701bac <__bss_end__+0xfe6f7b74>
    17a8:	04010070 	streq	r0, [r1], #-112	; 0xffffff90
    17ac:	00009b1f 	andeq	r9, r0, pc, lsl fp
    17b0:	000d4b00 	andeq	r4, sp, r0, lsl #22
    17b4:	000d4700 	andeq	r4, sp, r0, lsl #14
    17b8:	d7000000 	strle	r0, [r0, -r0]
    17bc:	0400000a 	streq	r0, [r0], #-10
    17c0:	0008a200 	andeq	sl, r8, r0, lsl #4
    17c4:	39010400 	stmdbcc	r1, {sl}
    17c8:	0c000006 	stceq	0, cr0, [r0], {6}
    17cc:	000007cb 	andeq	r0, r0, fp, asr #15
    17d0:	0000070a 	andeq	r0, r0, sl, lsl #14
    17d4:	00008640 	andeq	r8, r0, r0, asr #12
    17d8:	00000740 	andeq	r0, r0, r0, asr #14
    17dc:	0000141d 	andeq	r1, r0, sp, lsl r4
    17e0:	69050402 	stmdbvs	r5, {r1, sl}
    17e4:	0300746e 	movweq	r7, #1134	; 0x46e
    17e8:	01660704 	cmneq	r6, r4, lsl #14
    17ec:	01030000 	mrseq	r0, (UNDEF: 3)
    17f0:	00000a06 	andeq	r0, r0, r6, lsl #20
    17f4:	05020300 	streq	r0, [r2, #-768]	; 0xfffffd00
    17f8:	000001b7 			; <UNDEFINED> instruction: 0x000001b7
    17fc:	a2050403 	andge	r0, r5, #50331648	; 0x3000000
    1800:	03000001 	movweq	r0, #1
    1804:	019d0508 	orrseq	r0, sp, r8, lsl #10
    1808:	01030000 	mrseq	r0, (UNDEF: 3)
    180c:	00000808 	andeq	r0, r0, r8, lsl #16
    1810:	07020300 	streq	r0, [r2, -r0, lsl #6]
    1814:	00000034 	andeq	r0, r0, r4, lsr r0
    1818:	0003b904 	andeq	fp, r3, r4, lsl #18
    181c:	19340200 	ldmdbne	r4!, {r9}
    1820:	00000069 	andeq	r0, r0, r9, rrx
    1824:	61070403 	tstvs	r7, r3, lsl #8
    1828:	04000001 	streq	r0, [r0], #-1
    182c:	000007c2 	andeq	r0, r0, r2, asr #15
    1830:	7c193702 	ldcvc	7, cr3, [r9], {2}
    1834:	03000000 	movweq	r0, #0
    1838:	015c0708 	cmpeq	ip, r8, lsl #14
    183c:	25050000 	strcs	r0, [r5, #-0]
    1840:	92000000 	andls	r0, r0, #0, 0
    1844:	06000000 	streq	r0, [r0], -r0
    1848:	00000025 	andeq	r0, r0, r5, lsr #32
    184c:	01ab0700 			; <UNDEFINED> instruction: 0x01ab0700
    1850:	1c030000 	stcne	0, cr0, [r3], {-0}
    1854:	00009e0e 	andeq	r9, r0, lr, lsl #28
    1858:	83040800 	movwhi	r0, #18432	; 0x4800
    185c:	05000000 	streq	r0, [r0, #-0]
    1860:	00000025 	andeq	r0, r0, r5, lsr #32
    1864:	000000b3 	strheq	r0, [r0], -r3
    1868:	0000b306 	andeq	fp, r0, r6, lsl #6
    186c:	04080000 	streq	r0, [r8], #-0
    1870:	000000c0 	andeq	r0, r0, r0, asr #1
    1874:	11080103 	tstne	r8, r3, lsl #2
    1878:	09000000 	stmdbeq	r0, {}	; <UNPREDICTABLE>
    187c:	000000b9 	strheq	r0, [r0], -r9
    1880:	0007a707 	andeq	sl, r7, r7, lsl #14
    1884:	0e210300 	cdpeq	3, 2, cr0, cr1, cr0, {0}
    1888:	000000d1 	ldrdeq	r0, [r0], -r1
    188c:	00a40408 	adceq	r0, r4, r8, lsl #8
    1890:	de070000 	cdple	0, 0, cr0, cr7, cr0, {0}
    1894:	04000007 	streq	r0, [r0], #-7
    1898:	00b90d0b 	adcseq	r0, r9, fp, lsl #26
    189c:	5c070000 	stcpl	0, cr0, [r7], {-0}
    18a0:	04000008 	streq	r0, [r0], #-8
    18a4:	00b90d0c 	adcseq	r0, r9, ip, lsl #26
    18a8:	ed070000 	stc	0, cr0, [r7, #-0]
    18ac:	04000007 	streq	r0, [r0], #-7
    18b0:	00b90d0d 	adcseq	r0, r9, sp, lsl #26
    18b4:	16070000 	strne	r0, [r7], -r0
    18b8:	04000008 	streq	r0, [r0], #-8
    18bc:	00b90d0e 	adcseq	r0, r9, lr, lsl #26
    18c0:	8c070000 	stchi	0, cr0, [r7], {-0}
    18c4:	04000008 	streq	r0, [r0], #-8
    18c8:	00b90d0f 	adcseq	r0, r9, pc, lsl #26
    18cc:	01070000 	mrseq	r0, (UNDEF: 7)
    18d0:	04000008 	streq	r0, [r0], #-8
    18d4:	00b90d10 	adcseq	r0, r9, r0, lsl sp
    18d8:	9b070000 	blls	1c18e0 <__bss_end__+0x1b78a8>
    18dc:	04000008 	streq	r0, [r0], #-8
    18e0:	00b90d11 	adcseq	r0, r9, r1, lsl sp
    18e4:	22070000 	andcs	r0, r7, #0, 0
    18e8:	04000008 	streq	r0, [r0], #-8
    18ec:	00b90d12 	adcseq	r0, r9, r2, lsl sp
    18f0:	70040000 	andvc	r0, r4, r0
    18f4:	05000007 	streq	r0, [r0, #-7]
    18f8:	01431b28 	cmpeq	r3, r8, lsr #22
    18fc:	940a0000 	strls	r0, [sl], #-0
    1900:	04000007 	streq	r0, [r0], #-7
    1904:	015a0006 	cmpeq	sl, r6
    1908:	7f0b0000 	svcvc	0x000b0000
    190c:	5a000007 	bpl	1930 <__code_start__-0x66d0>
    1910:	00000001 	andeq	r0, r0, r1
    1914:	04040c00 	streq	r0, [r4], #-3072	; 0xfffff400
    1918:	00000796 	muleq	r0, r6, r7
    191c:	37186305 	ldrcc	r6, [r8, -r5, lsl #6]
    1920:	0d000001 	stceq	0, cr0, [r0, #-4]
    1924:	00000766 	andeq	r0, r0, r6, ror #14
    1928:	25058101 	strcs	r8, [r5, #-257]	; 0xfffffeff
    192c:	c8000000 	stmdagt	r0, {}	; <UNPREDICTABLE>
    1930:	b8000088 	stmdalt	r0, {r3, r7}
    1934:	01000004 	tsteq	r0, r4
    1938:	0007179c 	muleq	r7, ip, r7
    193c:	75620e00 	strbvc	r0, [r2, #-3584]!	; 0xfffff200
    1940:	81010066 	tsthi	r1, r6, rrx
    1944:	00071715 	andeq	r1, r7, r5, lsl r7
    1948:	000d6f00 	andeq	r6, sp, r0, lsl #30
    194c:	000d6900 	andeq	r6, sp, r0, lsl #18
    1950:	006e0e00 	rsbeq	r0, lr, r0, lsl #28
    1954:	251e8101 	ldrcs	r8, [lr, #-257]	; 0xfffffeff
    1958:	a1000000 	mrsge	r0, (UNDEF: 0)
    195c:	9b00000d 	blls	1998 <__code_start__-0x6668>
    1960:	0e00000d 	cdpeq	0, 0, cr0, cr0, cr13, {0}
    1964:	00746d66 	rsbseq	r6, r4, r6, ror #26
    1968:	b32d8101 			; <UNDEFINED> instruction: 0xb32d8101
    196c:	db000000 	blle	1974 <__code_start__-0x668c>
    1970:	cf00000d 	svcgt	0x0000000d
    1974:	0f00000d 	svceq	0x0000000d
    1978:	00000761 	andeq	r0, r0, r1, ror #14
    197c:	5c3a8101 	ldfpld	f0, [sl], #-4
    1980:	03000001 	movweq	r0, #1
    1984:	107dd491 			; <UNDEFINED> instruction: 0x107dd491
    1988:	82010070 	andhi	r0, r1, #112, 0	; 0x70
    198c:	00071708 	andeq	r1, r7, r8, lsl #14
    1990:	000e3900 	andeq	r3, lr, r0, lsl #18
    1994:	000e2500 	andeq	r2, lr, r0, lsl #10
    1998:	00651000 	rsbeq	r1, r5, r0
    199c:	17128201 	ldrne	r8, [r2, -r1, lsl #4]
    19a0:	bb000007 	bllt	19c4 <__code_start__-0x663c>
    19a4:	b700000e 	strlt	r0, [r0, -lr]
    19a8:	1000000e 	andne	r0, r0, lr
    19ac:	01003078 	tsteq	r0, r8, ror r0
    19b0:	005d0e83 	subseq	r0, sp, r3, lsl #29
    19b4:	0ee80000 	cdpeq	0, 14, cr0, cr8, cr0, {0}
    19b8:	0ee20000 	cdpeq	0, 14, cr0, cr2, cr0, {0}
    19bc:	78100000 	ldmdavc	r0, {}	; <UNPREDICTABLE>
    19c0:	83010031 	movwhi	r0, #4145	; 0x1031
    19c4:	00005d11 	andeq	r5, r0, r1, lsl sp
    19c8:	000f1500 	andeq	r1, pc, r0, lsl #10
    19cc:	000f1100 	andeq	r1, pc, r0, lsl #2
    19d0:	08401100 	stmdaeq	r0, {r8, ip}^
    19d4:	86010000 	strhi	r0, [r1], -r0
    19d8:	0000b311 	andeq	fp, r0, r1, lsl r3
    19dc:	000f3700 	andeq	r3, pc, r0, lsl #14
    19e0:	000f3300 	andeq	r3, pc, r0, lsl #6
    19e4:	03471200 	movteq	r1, #29184	; 0x7200
    19e8:	072d0000 	streq	r0, [sp, -r0]!
    19ec:	03050000 	movweq	r0, #20480	; 0x5000
    19f0:	00009610 	andeq	r9, r0, r0, lsl r6
    19f4:	00893013 	addeq	r3, r9, r3, lsl r0
    19f8:	00040000 	andeq	r0, r4, r0
    19fc:	00731000 	rsbseq	r1, r3, r0
    1a00:	170a9101 	strne	r9, [sl, -r1, lsl #2]
    1a04:	6d000007 	stcvs	0, cr0, [r0, #-28]	; 0xffffffe4
    1a08:	5700000f 	strpl	r0, [r0, -pc]
    1a0c:	1400000f 	strne	r0, [r0], #-15
    1a10:	006d756e 	rsbeq	r7, sp, lr, ror #10
    1a14:	320d9101 	andcc	r9, sp, #1073741824	; 0x40000000
    1a18:	03000007 	movweq	r0, #7
    1a1c:	157dd891 	ldrbne	sp, [sp, #-2193]!	; 0xfffff76f
    1a20:	00000857 	andeq	r0, r0, r7, asr r8
    1a24:	32179101 	andscc	r9, r7, #1073741824	; 0x40000000
    1a28:	03000007 	movweq	r0, #7
    1a2c:	117ed891 			; <UNDEFINED> instruction: 0x117ed891
    1a30:	000007fb 	strdeq	r0, [r0], -fp
    1a34:	2c0d9201 	sfmcs	f1, 1, [sp], {1}
    1a38:	f4000000 	vst4.8	{d0-d3}, [r0], r0
    1a3c:	ee00000f 	cdp	0, 0, cr0, cr0, cr15, {0}
    1a40:	1600000f 	strne	r0, [r0], -pc
    1a44:	000089f8 	strdeq	r8, [r0], -r8	; <UNPREDICTABLE>
    1a48:	000001a4 	andeq	r0, r0, r4, lsr #3
    1a4c:	00000539 	andeq	r0, r0, r9, lsr r5
    1a50:	00797410 	rsbseq	r7, r9, r0, lsl r4
    1a54:	b31d9e01 	tstlt	sp, #1, 28
    1a58:	28000000 	stmdacs	r0, {}	; <UNPREDICTABLE>
    1a5c:	1e000010 	mcrne	0, 0, r0, cr0, cr0, {0}
    1a60:	17000010 	smladne	r0, r0, r0, r0
    1a64:	01007878 	tsteq	r0, r8, ror r8
    1a68:	00701aa2 	rsbseq	r1, r0, r2, lsr #21
    1a6c:	08180000 	ldmdaeq	r8, {}	; <UNPREDICTABLE>
    1a70:	9200008a 	andls	r0, r0, #138, 0	; 0x8a
    1a74:	d500000a 	strle	r0, [r0, #-10]
    1a78:	19000002 	stmdbne	r0, {r1}
    1a7c:	76025001 	strvc	r5, [r2], -r1
    1a80:	51011900 	tstpl	r1, r0, lsl #18
    1a84:	95040305 	strls	r0, [r4, #-773]	; 0xfffffcfb
    1a88:	01190000 	tsteq	r9, r0
    1a8c:	00330152 	eorseq	r0, r3, r2, asr r1
    1a90:	008a2018 	addeq	r2, sl, r8, lsl r0
    1a94:	000a9200 	andeq	r9, sl, r0, lsl #4
    1a98:	0002f700 	andeq	pc, r2, r0, lsl #14
    1a9c:	50011900 	andpl	r1, r1, r0, lsl #18
    1aa0:	19007602 	stmdbne	r0, {r1, r9, sl, ip, sp, lr}
    1aa4:	03055101 	movweq	r5, #20737	; 0x5101
    1aa8:	00009508 	andeq	r9, r0, r8, lsl #10
    1aac:	01520119 	cmpeq	r2, r9, lsl r1
    1ab0:	54180033 	ldrpl	r0, [r8], #-51	; 0xffffffcd
    1ab4:	9e00008a 	cdpls	0, 0, cr0, cr0, cr10, {4}
    1ab8:	1400000a 	strne	r0, [r0], #-10
    1abc:	19000003 	stmdbne	r0, {r0, r1}
    1ac0:	03055001 	movweq	r5, #20481	; 0x5001
    1ac4:	0000950c 	andeq	r9, r0, ip, lsl #10
    1ac8:	02510119 	subseq	r0, r1, #1073741830	; 0x40000006
    1acc:	18000077 	stmdane	r0, {r0, r1, r2, r4, r5, r6}
    1ad0:	00008a60 	andeq	r8, r0, r0, ror #20
    1ad4:	00000a9e 	muleq	r0, lr, sl
    1ad8:	00000331 	andeq	r0, r0, r1, lsr r3
    1adc:	05500119 	ldrbeq	r0, [r0, #-281]	; 0xfffffee7
    1ae0:	00951403 	addseq	r1, r5, r3, lsl #8
    1ae4:	51011900 	tstpl	r1, r0, lsl #18
    1ae8:	00007a02 	andeq	r7, r0, r2, lsl #20
    1aec:	008a7018 	addeq	r7, sl, r8, lsl r0
    1af0:	000a9200 	andeq	r9, sl, r0, lsl #4
    1af4:	00035300 	andeq	r5, r3, r0, lsl #6
    1af8:	50011900 	andpl	r1, r1, r0, lsl #18
    1afc:	19007602 	stmdbne	r0, {r1, r9, sl, ip, sp, lr}
    1b00:	03055101 	movweq	r5, #20737	; 0x5101
    1b04:	00009504 	andeq	r9, r0, r4, lsl #10
    1b08:	01520119 	cmpeq	r2, r9, lsl r1
    1b0c:	88180033 	ldmdahi	r8, {r0, r1, r4, r5}
    1b10:	9200008a 	andls	r0, r0, #138, 0	; 0x8a
    1b14:	7500000a 	strvc	r0, [r0, #-10]
    1b18:	19000003 	stmdbne	r0, {r0, r1}
    1b1c:	76025001 	strvc	r5, [r2], -r1
    1b20:	51011900 	tstpl	r1, r0, lsl #18
    1b24:	95080305 	strls	r0, [r8, #-773]	; 0xfffffcfb
    1b28:	01190000 	tsteq	r9, r0
    1b2c:	00330152 	eorseq	r0, r3, r2, asr r1
    1b30:	008ab018 	addeq	fp, sl, r8, lsl r0
    1b34:	00074200 	andeq	r4, r7, r0, lsl #4
    1b38:	0003a900 	andeq	sl, r3, r0, lsl #18
    1b3c:	50011900 	andpl	r1, r1, r0, lsl #18
    1b40:	01193a01 	tsteq	r9, r1, lsl #20
    1b44:	d0910351 	addsle	r0, r1, r1, asr r3
    1b48:	5201197d 	andpl	r1, r1, #2048000	; 0x1f4000
    1b4c:	19800802 	stmibne	r0, {r1, fp}
    1b50:	77025301 	strvc	r5, [r2, -r1, lsl #6]
    1b54:	7d021900 	vstrvc.16	s2, [r2, #-0]	; <UNPREDICTABLE>
    1b58:	00750200 	rsbseq	r0, r5, r0, lsl #4
    1b5c:	047d0219 	ldrbteq	r0, [sp], #-537	; 0xfffffde7
    1b60:	00007602 	andeq	r7, r0, r2, lsl #12
    1b64:	008ad018 	addeq	sp, sl, r8, lsl r0
    1b68:	00074200 	andeq	r4, r7, r0, lsl #4
    1b6c:	0003dd00 	andeq	sp, r3, r0, lsl #26
    1b70:	50011900 	andpl	r1, r1, r0, lsl #18
    1b74:	01193a01 	tsteq	r9, r1, lsl #20
    1b78:	d0910351 	addsle	r0, r1, r1, asr r3
    1b7c:	5201197e 	andpl	r1, r1, #2064384	; 0x1f8000
    1b80:	19800802 	stmibne	r0, {r1, fp}
    1b84:	7a025301 	bvc	96790 <__bss_end__+0x8c758>
    1b88:	7d021900 	vstrvc.16	s2, [r2, #-0]	; <UNPREDICTABLE>
    1b8c:	00750200 	rsbseq	r0, r5, r0, lsl #4
    1b90:	047d0219 	ldrbteq	r0, [sp], #-537	; 0xfffffde7
    1b94:	00007602 	andeq	r7, r0, r2, lsl #12
    1b98:	008adc18 	addeq	sp, sl, r8, lsl ip
    1b9c:	000aaa00 	andeq	sl, sl, r0, lsl #20
    1ba0:	0003fb00 	andeq	pc, r3, r0, lsl #22
    1ba4:	50011900 	andpl	r1, r1, r0, lsl #18
    1ba8:	7dd09103 	ldfvcp	f1, [r0, #12]
    1bac:	05510119 	ldrbeq	r0, [r1, #-281]	; 0xfffffee7
    1bb0:	0094c803 	addseq	ip, r4, r3, lsl #16
    1bb4:	f0180000 			; <UNDEFINED> instruction: 0xf0180000
    1bb8:	b600008a 	strlt	r0, [r0], -sl, lsl #1
    1bbc:	1700000a 	strne	r0, [r0, -sl]
    1bc0:	19000004 	stmdbne	r0, {r2}
    1bc4:	91035001 	tstls	r3, r1
    1bc8:	01197dd0 			; <UNDEFINED> instruction: 0x01197dd0
    1bcc:	d0910351 	addsle	r0, r1, r1, asr r3
    1bd0:	1418007e 	ldrne	r0, [r8], #-126	; 0xffffff82
    1bd4:	9e00008b 	cdpls	0, 0, cr0, cr0, cr11, {4}
    1bd8:	5000000a 	andpl	r0, r0, sl
    1bdc:	19000004 	stmdbne	r0, {r2}
    1be0:	03055001 	movweq	r5, #20481	; 0x5001
    1be4:	000093bc 			; <UNDEFINED> instruction: 0x000093bc
    1be8:	05510119 	ldrbeq	r0, [r1, #-281]	; 0xfffffee7
    1bec:	0094b403 	addseq	fp, r4, r3, lsl #8
    1bf0:	52011900 	andpl	r1, r1, #0, 18
    1bf4:	96100305 	ldrls	r0, [r0], -r5, lsl #6
    1bf8:	01190000 	tsteq	r9, r0
    1bfc:	9f080253 	svcls	0x00080253
    1c00:	007d0219 	rsbseq	r0, sp, r9, lsl r2
    1c04:	951c0305 	ldrls	r0, [ip, #-773]	; 0xfffffcfb
    1c08:	1a000000 	bne	1c10 <__code_start__-0x63f0>
    1c0c:	00008b18 	andeq	r8, r0, r8, lsl fp
    1c10:	00000ac2 	andeq	r0, r0, r2, asr #21
    1c14:	008b3818 	addeq	r3, fp, r8, lsl r8
    1c18:	00074200 	andeq	r4, r7, r0, lsl #4
    1c1c:	00048d00 	andeq	r8, r4, r0, lsl #26
    1c20:	50011900 	andpl	r1, r1, r0, lsl #18
    1c24:	01194001 	tsteq	r9, r1
    1c28:	d0910351 	addsle	r0, r1, r1, asr r3
    1c2c:	5201197d 	andpl	r1, r1, #2048000	; 0x1f4000
    1c30:	19800802 	stmibne	r0, {r1, fp}
    1c34:	77025301 	strvc	r5, [r2, -r1, lsl #6]
    1c38:	7d021900 	vstrvc.16	s2, [r2, #-0]	; <UNPREDICTABLE>
    1c3c:	00750200 	rsbseq	r0, r5, r0, lsl #4
    1c40:	047d0219 	ldrbteq	r0, [sp], #-537	; 0xfffffde7
    1c44:	00007602 	andeq	r7, r0, r2, lsl #12
    1c48:	008b5818 	addeq	r5, fp, r8, lsl r8
    1c4c:	00074200 	andeq	r4, r7, r0, lsl #4
    1c50:	0004c100 	andeq	ip, r4, r0, lsl #2
    1c54:	50011900 	andpl	r1, r1, r0, lsl #18
    1c58:	01194001 	tsteq	r9, r1
    1c5c:	d0910351 	addsle	r0, r1, r1, asr r3
    1c60:	5201197e 	andpl	r1, r1, #2064384	; 0x1f8000
    1c64:	19800802 	stmibne	r0, {r1, fp}
    1c68:	7a025301 	bvc	96874 <__bss_end__+0x8c83c>
    1c6c:	7d021900 	vstrvc.16	s2, [r2, #-0]	; <UNPREDICTABLE>
    1c70:	00750200 	rsbseq	r0, r5, r0, lsl #4
    1c74:	047d0219 	ldrbteq	r0, [sp], #-537	; 0xfffffde7
    1c78:	00007602 	andeq	r7, r0, r2, lsl #12
    1c7c:	008b6418 	addeq	r6, fp, r8, lsl r4
    1c80:	000ace00 	andeq	ip, sl, r0, lsl #28
    1c84:	0004dd00 	andeq	sp, r4, r0, lsl #26
    1c88:	50011900 	andpl	r1, r1, r0, lsl #18
    1c8c:	7dd09103 	ldfvcp	f1, [r0, #12]
    1c90:	03510119 	cmpeq	r1, #1073741830	; 0x40000006
    1c94:	007ed291 			; <UNDEFINED> instruction: 0x007ed291
    1c98:	008b7818 	addeq	r7, fp, r8, lsl r8
    1c9c:	000ace00 	andeq	ip, sl, r0, lsl #28
    1ca0:	0004f900 	andeq	pc, r4, r0, lsl #18
    1ca4:	50011900 	andpl	r1, r1, r0, lsl #18
    1ca8:	7dd09103 	ldfvcp	f1, [r0, #12]
    1cac:	03510119 	cmpeq	r1, #1073741830	; 0x40000006
    1cb0:	007ed091 			; <UNDEFINED> instruction: 0x007ed091
    1cb4:	008b9818 	addeq	r9, fp, r8, lsl r8
    1cb8:	000a9e00 	andeq	r9, sl, r0, lsl #28
    1cbc:	00052f00 	andeq	r2, r5, r0, lsl #30
    1cc0:	50011900 	andpl	r1, r1, r0, lsl #18
    1cc4:	95580305 	ldrbls	r0, [r8, #-773]	; 0xfffffcfb
    1cc8:	01190000 	tsteq	r9, r0
    1ccc:	b4030551 	strlt	r0, [r3], #-1361	; 0xfffffaaf
    1cd0:	19000094 	stmdbne	r0, {r2, r4, r7}
    1cd4:	03055201 	movweq	r5, #20993	; 0x5201
    1cd8:	00009610 	andeq	r9, r0, r0, lsl r6
    1cdc:	02530119 	subseq	r0, r3, #1073741830	; 0x40000006
    1ce0:	0219b608 	andseq	fp, r9, #8, 12	; 0x800000
    1ce4:	7602007d 			; <UNDEFINED> instruction: 0x7602007d
    1ce8:	9c1a0000 	ldcls	0, cr0, [sl], {-0}
    1cec:	c200008b 	andgt	r0, r0, #139, 0	; 0x8b
    1cf0:	0000000a 	andeq	r0, r0, sl
    1cf4:	00894818 	addeq	r4, r9, r8, lsl r8
    1cf8:	0009c000 	andeq	ip, r9, r0
    1cfc:	00054d00 	andeq	r4, r5, r0, lsl #26
    1d00:	50011900 	andpl	r1, r1, r0, lsl #18
    1d04:	00007702 	andeq	r7, r0, r2, lsl #14
    1d08:	0089f418 	addeq	pc, r9, r8, lsl r4	; <UNPREDICTABLE>
    1d0c:	000a9e00 	andeq	r9, sl, r0, lsl #28
    1d10:	00058600 	andeq	r8, r5, r0, lsl #12
    1d14:	50011900 	andpl	r1, r1, r0, lsl #18
    1d18:	93bc0305 			; <UNDEFINED> instruction: 0x93bc0305
    1d1c:	01190000 	tsteq	r9, r0
    1d20:	b4030551 	strlt	r0, [r3], #-1361	; 0xfffffaaf
    1d24:	19000094 	stmdbne	r0, {r2, r4, r7}
    1d28:	03055201 	movweq	r5, #20993	; 0x5201
    1d2c:	00009610 	andeq	r9, r0, r0, lsl r6
    1d30:	02530119 	subseq	r0, r3, #1073741830	; 0x40000006
    1d34:	02199808 	andseq	r9, r9, #8, 16	; 0x80000
    1d38:	0305007d 	movweq	r0, #20605	; 0x507d
    1d3c:	000094f8 	strdeq	r9, [r0], -r8
    1d40:	89f81a00 	ldmibhi	r8!, {r9, fp, ip}^
    1d44:	0ac20000 	beq	ff081d4c <__bss_end__+0xff077d14>
    1d48:	b0180000 	andslt	r0, r8, r0
    1d4c:	9e00008b 	cdpls	0, 0, cr0, cr0, cr11, {4}
    1d50:	be00000a 	cdplt	0, 0, cr0, cr0, cr10, {0}
    1d54:	19000005 	stmdbne	r0, {r0, r2}
    1d58:	03055001 	movweq	r5, #20481	; 0x5001
    1d5c:	00009580 	andeq	r9, r0, r0, lsl #11
    1d60:	05510119 	ldrbeq	r0, [r1, #-281]	; 0xfffffee7
    1d64:	0094b403 	addseq	fp, r4, r3, lsl #8
    1d68:	52011900 	andpl	r1, r1, #0, 18
    1d6c:	96100305 	ldrls	r0, [r0], -r5, lsl #6
    1d70:	01190000 	tsteq	r9, r0
    1d74:	be080253 	mcrlt	2, 0, r0, cr8, cr3, {2}
    1d78:	8bb41a00 	blhi	fed08580 <__bss_end__+0xfecfe548>
    1d7c:	0ac20000 	beq	ff081d84 <__bss_end__+0xff077d4c>
    1d80:	e0180000 	ands	r0, r8, r0
    1d84:	4200008b 	andmi	r0, r0, #139, 0	; 0x8b
    1d88:	f4000007 	vst4.8	{d0-d3}, [r0], r7
    1d8c:	19000005 	stmdbne	r0, {r0, r2}
    1d90:	3a015001 	bcc	55d9c <__bss_end__+0x4bd64>
    1d94:	03510119 	cmpeq	r1, #1073741830	; 0x40000006
    1d98:	197dd091 	ldmdbne	sp!, {r0, r4, r7, ip, lr, pc}^
    1d9c:	08025201 	stmdaeq	r2, {r0, r9, ip, lr}
    1da0:	7d021980 	vstrvc.16	s2, [r2, #-256]	; 0xffffff00	; <UNPREDICTABLE>
    1da4:	00750200 	rsbseq	r0, r5, r0, lsl #4
    1da8:	047d0219 	ldrbteq	r0, [sp], #-537	; 0xfffffde7
    1dac:	18003101 	stmdane	r0, {r0, r8, ip, sp}
    1db0:	00008c18 	andeq	r8, r0, r8, lsl ip
    1db4:	00000742 	andeq	r0, r0, r2, asr #14
    1db8:	00000621 	andeq	r0, r0, r1, lsr #12
    1dbc:	01500119 	cmpeq	r0, r9, lsl r1
    1dc0:	5101193a 	tstpl	r1, sl, lsr r9
    1dc4:	7dd09103 	ldfvcp	f1, [r0, #12]
    1dc8:	02520119 	subseq	r0, r2, #1073741830	; 0x40000006
    1dcc:	02198008 	andseq	r8, r9, #8, 0
    1dd0:	7502007d 	strvc	r0, [r2, #-125]	; 0xffffff83
    1dd4:	7d021900 	vstrvc.16	s2, [r2, #-0]	; <UNPREDICTABLE>
    1dd8:	00300104 	eorseq	r0, r0, r4, lsl #2
    1ddc:	008c4c18 	addeq	r4, ip, r8, lsl ip
    1de0:	00074200 	andeq	r4, r7, r0, lsl #4
    1de4:	00064e00 	andeq	r4, r6, r0, lsl #28
    1de8:	50011900 	andpl	r1, r1, r0, lsl #18
    1dec:	01194001 	tsteq	r9, r1
    1df0:	d0910351 	addsle	r0, r1, r1, asr r3
    1df4:	5201197d 	andpl	r1, r1, #2048000	; 0x1f4000
    1df8:	19800802 	stmibne	r0, {r1, fp}
    1dfc:	02007d02 	andeq	r7, r0, #128	; 0x80
    1e00:	02190075 	andseq	r0, r9, #117, 0	; 0x75
    1e04:	3001047d 	andcc	r0, r1, sp, ror r4
    1e08:	8c801800 	stchi	8, cr1, [r0], {0}
    1e0c:	07420000 	strbeq	r0, [r2, -r0]
    1e10:	067b0000 	ldrbteq	r0, [fp], -r0
    1e14:	01190000 	tsteq	r9, r0
    1e18:	19320150 	ldmdbne	r2!, {r4, r6, r8}
    1e1c:	91035101 	tstls	r3, r1, lsl #2
    1e20:	01197dd0 			; <UNDEFINED> instruction: 0x01197dd0
    1e24:	80080252 	andhi	r0, r8, r2, asr r2
    1e28:	007d0219 	rsbseq	r0, sp, r9, lsl r2
    1e2c:	19007502 	stmdbne	r0, {r1, r8, sl, ip, sp, lr}
    1e30:	01047d02 	tsteq	r4, r2, lsl #26
    1e34:	c8180030 	ldmdagt	r8, {r4, r5}
    1e38:	4200008c 	andmi	r0, r0, #140, 0	; 0x8c
    1e3c:	a8000007 	stmdage	r0, {r0, r1, r2}
    1e40:	19000006 	stmdbne	r0, {r1, r2}
    1e44:	38015001 	stmdacc	r1, {r0, ip, lr}
    1e48:	03510119 	cmpeq	r1, #1073741830	; 0x40000006
    1e4c:	197dd091 	ldmdbne	sp!, {r0, r4, r7, ip, lr, pc}^
    1e50:	08025201 	stmdaeq	r2, {r0, r9, ip, lr}
    1e54:	7d021980 	vstrvc.16	s2, [r2, #-256]	; 0xffffff00	; <UNPREDICTABLE>
    1e58:	00750200 	rsbseq	r0, r5, r0, lsl #4
    1e5c:	047d0219 	ldrbteq	r0, [sp], #-537	; 0xfffffde7
    1e60:	18003001 	stmdane	r0, {r0, ip, sp}
    1e64:	00008ce8 	andeq	r8, r0, r8, ror #25
    1e68:	00000a9e 	muleq	r0, lr, sl
    1e6c:	000006cb 	andeq	r0, r0, fp, asr #13
    1e70:	05500119 	ldrbeq	r0, [r0, #-281]	; 0xfffffee7
    1e74:	0095a803 	addseq	sl, r5, r3, lsl #16
    1e78:	51011900 	tstpl	r1, r0, lsl #18
    1e7c:	19007a02 	stmdbne	r0, {r1, r9, fp, ip, sp, lr}
    1e80:	7a025201 	bvc	9668c <__bss_end__+0x8c654>
    1e84:	f81b0000 			; <UNDEFINED> instruction: 0xf81b0000
    1e88:	dd00008c 	stcle	0, cr0, [r0, #-560]	; 0xfffffdd0
    1e8c:	19000006 	stmdbne	r0, {r1, r2}
    1e90:	91045001 	tstls	r4, r1
    1e94:	00067dc8 	andeq	r7, r6, r8, asr #27
    1e98:	008d0c18 	addeq	r0, sp, r8, lsl ip
    1e9c:	000a9e00 	andeq	r9, sl, r0, lsl #28
    1ea0:	00070c00 	andeq	r0, r7, r0, lsl #24
    1ea4:	50011900 	andpl	r1, r1, r0, lsl #18
    1ea8:	95d80305 	ldrbls	r0, [r8, #773]	; 0x305
    1eac:	01190000 	tsteq	r9, r0
    1eb0:	b4030551 	strlt	r0, [r3], #-1361	; 0xfffffaaf
    1eb4:	19000094 	stmdbne	r0, {r2, r4, r7}
    1eb8:	03055201 	movweq	r5, #20993	; 0x5201
    1ebc:	00009610 	andeq	r9, r0, r0, lsl r6
    1ec0:	02530119 	subseq	r0, r3, #1073741830	; 0x40000006
    1ec4:	1a00e208 	bne	3a6ec <__bss_end__+0x306b4>
    1ec8:	00008d10 	andeq	r8, r0, r0, lsl sp
    1ecc:	00000ac2 	andeq	r0, r0, r2, asr #21
    1ed0:	04080000 	streq	r0, [r8], #-0
    1ed4:	000000b9 	strheq	r0, [r0], -r9
    1ed8:	0000c01c 	andeq	ip, r0, ip, lsl r0
    1edc:	00072d00 	andeq	r2, r7, r0, lsl #26
    1ee0:	002c1d00 	eoreq	r1, ip, r0, lsl #26
    1ee4:	00090000 	andeq	r0, r9, r0
    1ee8:	00071d09 	andeq	r1, r7, r9, lsl #26
    1eec:	00b91c00 	adcseq	r1, r9, r0, lsl #24
    1ef0:	07420000 	strbeq	r0, [r2, -r0]
    1ef4:	2c1d0000 	ldccs	0, cr0, [sp], {-0}
    1ef8:	7f000000 	svcvc	0x00000000
    1efc:	08691e00 	stmdaeq	r9!, {r9, sl, fp, ip}^
    1f00:	49010000 	stmdbmi	r1, {}	; <UNPREDICTABLE>
    1f04:	00071701 	andeq	r1, r7, r1, lsl #14
    1f08:	0086b000 	addeq	fp, r6, r0
    1f0c:	0001b400 	andeq	fp, r1, r0, lsl #8
    1f10:	ab9c0100 	blge	fe702318 <__bss_end__+0xfe6f82e0>
    1f14:	1f000008 	svcne	0x00000008
    1f18:	000008b0 			; <UNDEFINED> instruction: 0x000008b0
    1f1c:	2c0f4901 			; <UNDEFINED> instruction: 0x2c0f4901
    1f20:	71000000 	mrsvc	r0, (UNDEF: 0)
    1f24:	6b000010 	blvs	1f6c <__code_start__-0x6094>
    1f28:	0e000010 	mcreq	0, 0, r0, cr0, cr0, {0}
    1f2c:	00747364 	rsbseq	r7, r4, r4, ror #6
    1f30:	171b4901 	ldrne	r4, [fp, -r1, lsl #18]
    1f34:	af000007 	svcge	0x00000007
    1f38:	9f000010 	svcls	0x00000010
    1f3c:	0e000010 	mcreq	0, 0, r0, cr0, cr0, {0}
    1f40:	4901006e 	stmdbmi	r1, {r1, r2, r3, r5, r6}
    1f44:	00002524 	andeq	r2, r0, r4, lsr #10
    1f48:	00111300 	andseq	r1, r1, r0, lsl #6
    1f4c:	00110f00 	andseq	r0, r1, r0, lsl #30
    1f50:	61760e00 	cmnvs	r6, r0, lsl #28
    1f54:	4901006c 	stmdbmi	r1, {r2, r3, r5, r6}
    1f58:	0000252b 	andeq	r2, r0, fp, lsr #10
    1f5c:	00113d00 	andseq	r3, r1, r0, lsl #26
    1f60:	00113100 	andseq	r3, r1, r0, lsl #2
    1f64:	07fb1f00 	ldrbeq	r1, [fp, r0, lsl #30]!
    1f68:	49010000 	stmdbmi	r1, {}	; <UNPREDICTABLE>
    1f6c:	00002534 	andeq	r2, r0, r4, lsr r5
    1f70:	00119300 	andseq	r9, r1, r0, lsl #6
    1f74:	00118d00 	andseq	r8, r1, r0, lsl #26
    1f78:	08b50f00 	ldmeq	r5!, {r8, r9, sl, fp}
    1f7c:	49010000 	stmdbmi	r1, {}	; <UNPREDICTABLE>
    1f80:	0000253f 	andeq	r2, r0, pc, lsr r5
    1f84:	04910200 	ldreq	r0, [r1], #512	; 0x200
    1f88:	66756214 			; <UNDEFINED> instruction: 0x66756214
    1f8c:	074e0100 	strbeq	r0, [lr, -r0, lsl #2]
    1f90:	000008ab 	andeq	r0, r0, fp, lsr #17
    1f94:	7fa89103 	svcvc	0x00a89103
    1f98:	01007010 	tsteq	r0, r0, lsl r0
    1f9c:	0717114e 	ldreq	r1, [r7, -lr, asr #2]
    1fa0:	11dd0000 	bicsne	r0, sp, r0
    1fa4:	11bd0000 			; <UNDEFINED> instruction: 0x11bd0000
    1fa8:	75100000 	ldrvc	r0, [r0, #-0]
    1fac:	0b4f0100 	bleq	13c23b4 <__bss_end__+0x13b837c>
    1fb0:	0000002c 	andeq	r0, r0, ip, lsr #32
    1fb4:	000012c3 	andeq	r1, r0, r3, asr #5
    1fb8:	000012af 	andeq	r1, r0, pc, lsr #5
    1fbc:	00034712 	andeq	r4, r3, r2, lsl r7
    1fc0:	0008cb00 	andeq	ip, r8, r0, lsl #22
    1fc4:	f8030500 			; <UNDEFINED> instruction: 0xf8030500
    1fc8:	16000095 			; <UNDEFINED> instruction: 0x16000095
    1fcc:	0000871c 	andeq	r8, r0, ip, lsl r7
    1fd0:	00000078 	andeq	r0, r0, r8, ror r0
    1fd4:	00000832 	andeq	r0, r0, r2, lsr r8
    1fd8:	00085111 	andeq	r5, r8, r1, lsl r1
    1fdc:	0d540100 	ldfeqe	f0, [r4, #-0]
    1fe0:	0000002c 	andeq	r0, r0, ip, lsr #32
    1fe4:	00001344 	andeq	r1, r0, r4, asr #6
    1fe8:	0000133c 	andeq	r1, r0, ip, lsr r3
    1fec:	87d41800 	ldrbhi	r1, [r4, r0, lsl #16]
    1ff0:	095d0000 	ldmdbeq	sp, {}^	; <UNPREDICTABLE>
    1ff4:	08470000 	stmdaeq	r7, {}^	; <UNPREDICTABLE>
    1ff8:	01190000 	tsteq	r9, r0
    1ffc:	a0910351 	addsge	r0, r1, r1, asr r3
    2000:	e818007f 	ldmda	r8, {r0, r1, r2, r3, r4, r5, r6}
    2004:	d0000087 	andle	r0, r0, r7, lsl #1
    2008:	68000008 	stmdavs	r0, {r3}
    200c:	19000008 	stmdbne	r0, {r3}
    2010:	75025001 	strvc	r5, [r2, #-1]
    2014:	51011900 	tstpl	r1, r0, lsl #18
    2018:	19007402 	stmdbne	r0, {r1, sl, ip, sp, lr}
    201c:	91035301 	tstls	r3, r1, lsl #6
    2020:	18007fa0 	stmdane	r0, {r5, r7, r8, r9, sl, fp, ip, sp, lr}
    2024:	00008840 	andeq	r8, r0, r0, asr #16
    2028:	00000a9e 	muleq	r0, lr, sl
    202c:	000008a1 	andeq	r0, r0, r1, lsr #17
    2030:	05500119 	ldrbeq	r0, [r0, #-281]	; 0xfffffee7
    2034:	0093bc03 	addseq	fp, r3, r3, lsl #24
    2038:	51011900 	tstpl	r1, r0, lsl #18
    203c:	94b40305 	ldrtls	r0, [r4], #773	; 0x305
    2040:	01190000 	tsteq	r9, r0
    2044:	f8030552 			; <UNDEFINED> instruction: 0xf8030552
    2048:	19000095 	stmdbne	r0, {r0, r2, r4, r7}
    204c:	08025301 	stmdaeq	r2, {r0, r8, r9, ip, lr}
    2050:	7d021979 	vstrvc.16	s2, [r2, #-242]	; 0xffffff0e	; <UNPREDICTABLE>
    2054:	c8030500 	stmdagt	r3, {r8, sl}
    2058:	00000094 	muleq	r0, r4, r0
    205c:	0088441a 	addeq	r4, r8, sl, lsl r4
    2060:	000ac200 	andeq	ip, sl, r0, lsl #4
    2064:	b91c0000 	ldmdblt	ip, {}	; <UNPREDICTABLE>
    2068:	bb000000 	bllt	2070 <__code_start__-0x5f90>
    206c:	1d000008 	stcne	0, cr0, [r0, #-32]	; 0xffffffe0
    2070:	0000002c 	andeq	r0, r0, ip, lsr #32
    2074:	c01c003f 	andsgt	r0, ip, pc, lsr r0
    2078:	cb000000 	blgt	2080 <__code_start__-0x5f80>
    207c:	1d000008 	stcne	0, cr0, [r0, #-32]	; 0xffffffe0
    2080:	0000002c 	andeq	r0, r0, ip, lsr #32
    2084:	bb090004 	bllt	24209c <__bss_end__+0x238064>
    2088:	1e000008 	cdpne	0, 0, cr0, cr0, cr8, {0}
    208c:	00000876 	andeq	r0, r0, r6, ror r8
    2090:	170e3801 	strne	r3, [lr, -r1, lsl #16]
    2094:	78000007 	stmdavc	r0, {r0, r1, r2}
    2098:	38000086 	stmdacc	r0, {r1, r2, r7}
    209c:	01000000 	mrseq	r0, (UNDEF: 0)
    20a0:	00095d9c 	muleq	r9, ip, sp
    20a4:	73640e00 	cmnvc	r4, #0, 28
    20a8:	38010074 	stmdacc	r1, {r2, r4, r5, r6}
    20ac:	0007171c 	andeq	r1, r7, ip, lsl r7
    20b0:	00138500 	andseq	r8, r3, r0, lsl #10
    20b4:	00137b00 	andseq	r7, r3, r0, lsl #22
    20b8:	006e0e00 	rsbeq	r0, lr, r0, lsl #28
    20bc:	25253801 	strcs	r3, [r5, #-2049]!	; 0xfffff7ff
    20c0:	cc000000 	stcgt	0, cr0, [r0], {-0}
    20c4:	c8000013 	stmdagt	r0, {r0, r1, r4}
    20c8:	0e000013 	mcreq	0, 0, r0, cr0, cr3, {0}
    20cc:	38010070 	stmdacc	r1, {r4, r5, r6}
    20d0:	0007172e 	andeq	r1, r7, lr, lsr #14
    20d4:	0013f500 	andseq	pc, r3, r0, lsl #10
    20d8:	0013ed00 	andseq	lr, r3, r0, lsl #26
    20dc:	08441f00 	stmdaeq	r4, {r8, r9, sl, fp, ip}^
    20e0:	38010000 	stmdacc	r1, {}	; <UNPREDICTABLE>
    20e4:	00071737 	andeq	r1, r7, r7, lsr r7
    20e8:	00142f00 	andseq	r2, r4, r0, lsl #30
    20ec:	00142b00 	andseq	r2, r4, r0, lsl #22
    20f0:	656c1000 	strbvs	r1, [ip, #-0]!
    20f4:	3a01006e 	bcc	422b4 <__bss_end__+0x3827c>
    20f8:	00002506 	andeq	r2, r0, r6, lsl #10
    20fc:	00145500 	andseq	r5, r4, r0, lsl #10
    2100:	00144d00 	andseq	r4, r4, r0, lsl #26
    2104:	00731000 	rsbseq	r1, r3, r0
    2108:	17083e01 	strne	r3, [r8, -r1, lsl #28]
    210c:	a3000007 	movwge	r0, #7
    2110:	a1000014 	tstge	r0, r4, lsl r0
    2114:	00000014 	andeq	r0, r0, r4, lsl r0
    2118:	64617020 	strbtvs	r7, [r1], #-32	; 0xffffffe0
    211c:	0e2e0100 	sufeqe	f0, f6, f0
    2120:	00000717 	andeq	r0, r0, r7, lsl r7
    2124:	00008654 	andeq	r8, r0, r4, asr r6
    2128:	00000024 	andeq	r0, r0, r4, lsr #32
    212c:	09c09c01 	stmibeq	r0, {r0, sl, fp, ip, pc}^
    2130:	700e0000 	andvc	r0, lr, r0
    2134:	182e0100 	stmdane	lr!, {r8}
    2138:	00000717 	andeq	r0, r0, r7, lsl r7
    213c:	000014bc 			; <UNDEFINED> instruction: 0x000014bc
    2140:	000014b6 			; <UNDEFINED> instruction: 0x000014b6
    2144:	0008b01f 	andeq	fp, r8, pc, lsl r0
    2148:	222e0100 	eorcs	r0, lr, #0
    214c:	00000717 	andeq	r0, r0, r7, lsl r7
    2150:	000014eb 	andeq	r1, r0, fp, ror #9
    2154:	000014e7 	andeq	r1, r0, r7, ror #9
    2158:	0007fb0f 	andeq	pc, r7, pc, lsl #22
    215c:	2c2e0100 	stfcss	f0, [lr], #-0
    2160:	00000025 	andeq	r0, r0, r5, lsr #32
    2164:	6c105201 	lfmvs	f5, 4, [r0], {1}
    2168:	01006e65 	tsteq	r0, r5, ror #28
    216c:	0025062f 	eoreq	r0, r5, pc, lsr #12
    2170:	150e0000 	strne	r0, [lr, #-0]
    2174:	150c0000 	strne	r0, [ip, #-0]
    2178:	1e000000 	cdpne	0, 0, cr0, cr0, cr0, {0}
    217c:	000007ba 			; <UNDEFINED> instruction: 0x000007ba
    2180:	250c2701 	strcs	r2, [ip, #-1793]	; 0xfffff8ff
    2184:	40000000 	andmi	r0, r0, r0
    2188:	14000086 	strne	r0, [r0], #-134	; 0xffffff7a
    218c:	01000000 	mrseq	r0, (UNDEF: 0)
    2190:	0009ed9c 	muleq	r9, ip, sp
    2194:	00630e00 	rsbeq	r0, r3, r0, lsl #28
    2198:	25182701 	ldrcs	r2, [r8, #-1793]	; 0xfffff8ff
    219c:	27000000 	strcs	r0, [r0, -r0]
    21a0:	21000015 	tstcs	r0, r5, lsl r0
    21a4:	00000015 	andeq	r0, r0, r5, lsl r0
    21a8:	00083121 	andeq	r3, r8, r1, lsr #2
    21ac:	061f0100 	ldreq	r0, [pc], -r0, lsl #2
    21b0:	00008864 	andeq	r8, r0, r4, ror #16
    21b4:	00000064 	andeq	r0, r0, r4, rrx
    21b8:	0a7d9c01 	beq	1f691c4 <__bss_end__+0x1f5f18c>
    21bc:	0e1f0000 	cdpeq	0, 1, cr0, cr15, cr0, {0}
    21c0:	01000008 	tsteq	r0, r8
    21c4:	009e1b1f 	addseq	r1, lr, pc, lsl fp
    21c8:	15590000 	ldrbne	r0, [r9, #-0]
    21cc:	15550000 	ldrbne	r0, [r5, #-0]
    21d0:	6e1f0000 	cdpvs	0, 1, cr0, cr15, cr0, {0}
    21d4:	01000008 	tsteq	r0, r8
    21d8:	00d1301f 	sbcseq	r3, r1, pc, lsl r0
    21dc:	157e0000 	ldrbne	r0, [lr, #-0]!
    21e0:	157a0000 	ldrbne	r0, [sl, #-0]!
    21e4:	47120000 	ldrmi	r0, [r2, -r0]
    21e8:	8d000003 	stchi	0, cr0, [r0, #-12]
    21ec:	0500000a 	streq	r0, [r0, #-10]
    21f0:	00960003 	addseq	r0, r6, r3
    21f4:	88ac1800 	stmiahi	ip!, {fp, ip}
    21f8:	0a9e0000 	beq	fe782200 <__bss_end__+0xfe7781c8>
    21fc:	0a730000 	beq	1cc2204 <__bss_end__+0x1cb81cc>
    2200:	01190000 	tsteq	r9, r0
    2204:	bc030550 	cfstr32lt	mvfx0, [r3], {80}	; 0x50
    2208:	19000093 	stmdbne	r0, {r0, r1, r4, r7}
    220c:	03055101 	movweq	r5, #20737	; 0x5101
    2210:	000094b4 			; <UNDEFINED> instruction: 0x000094b4
    2214:	05520119 	ldrbeq	r0, [r2, #-281]	; 0xfffffee7
    2218:	00960003 	addseq	r0, r6, r3
    221c:	53011900 	movwpl	r1, #6400	; 0x1900
    2220:	19200802 	stmdbne	r0!, {r1, fp}
    2224:	05007d02 	streq	r7, [r0, #-3330]	; 0xfffff2fe
    2228:	0094f003 	addseq	pc, r4, r3
    222c:	b01a0000 	andslt	r0, sl, r0
    2230:	c2000088 	andgt	r0, r0, #136, 0	; 0x88
    2234:	0000000a 	andeq	r0, r0, sl
    2238:	0000c01c 	andeq	ip, r0, ip, lsl r0
    223c:	000a8d00 	andeq	r8, sl, r0, lsl #26
    2240:	002c1d00 	eoreq	r1, ip, r0, lsl #26
    2244:	000e0000 	andeq	r0, lr, r0
    2248:	000a7d09 	andeq	r7, sl, r9, lsl #26
    224c:	08a82200 	stmiaeq	r8!, {r9, sp}
    2250:	08a80000 	stmiaeq	r8!, {}	; <UNPREDICTABLE>
    2254:	f0030000 			; <UNDEFINED> instruction: 0xf0030000
    2258:	07692205 	strbeq	r2, [r9, -r5, lsl #4]!
    225c:	07690000 	strbeq	r0, [r9, -r0]!
    2260:	28030000 	stmdacs	r3, {}	; <UNPREDICTABLE>
    2264:	08852206 	stmeq	r5, {r1, r2, r9, sp}
    2268:	08850000 	stmeq	r5, {}	; <UNPREDICTABLE>
    226c:	ef030000 	svc	0x00030000
    2270:	084a2205 	stmdaeq	sl, {r0, r2, r9, sp}^
    2274:	084a0000 	stmdaeq	sl, {}^	; <UNPREDICTABLE>
    2278:	f2030000 	vhadd.s8	d0, d3, d0
    227c:	00162207 	andseq	r2, r6, r7, lsl #4
    2280:	00160000 	andseq	r0, r6, r0
    2284:	6e030000 	cdpvs	0, 0, cr0, cr3, cr0, {0}
    2288:	087e2206 	ldmdaeq	lr!, {r1, r2, r9, sp}^
    228c:	087e0000 	ldmdaeq	lr!, {}^	; <UNPREDICTABLE>
    2290:	f3030000 	vhadd.u8	d0, d3, d0
    2294:	010a0007 	tsteq	sl, r7
    2298:	00040000 	andeq	r0, r4, r0
    229c:	00000aac 	andeq	r0, r0, ip, lsr #21
    22a0:	06390104 	ldrteq	r0, [r9], -r4, lsl #2
    22a4:	cc0c0000 	stcgt	0, cr0, [ip], {-0}
    22a8:	0a000008 	beq	22d0 <__code_start__-0x5d30>
    22ac:	80000007 	andhi	r0, r0, r7
    22b0:	00000001 	andeq	r0, r0, r1
    22b4:	3d000000 	stccc	0, cr0, [r0, #-0]
    22b8:	0200001a 	andeq	r0, r0, #26, 0
    22bc:	6e690504 	cdpvs	5, 6, cr0, cr9, cr4, {0}
    22c0:	04030074 	streq	r0, [r3], #-116	; 0xffffff8c
    22c4:	00016607 	andeq	r6, r1, r7, lsl #12
    22c8:	06010300 	streq	r0, [r1], -r0, lsl #6
    22cc:	0000000a 	andeq	r0, r0, sl
    22d0:	b7050203 	strlt	r0, [r5, -r3, lsl #4]
    22d4:	03000001 	movweq	r0, #1
    22d8:	01a20504 			; <UNDEFINED> instruction: 0x01a20504
    22dc:	08030000 	stmdaeq	r3, {}	; <UNPREDICTABLE>
    22e0:	00019d05 	andeq	r9, r1, r5, lsl #26
    22e4:	08010300 	stmdaeq	r1, {r8, r9}
    22e8:	00000008 	andeq	r0, r0, r8
    22ec:	34070203 	strcc	r0, [r7], #-515	; 0xfffffdfd
    22f0:	03000000 	movweq	r0, #0
    22f4:	01610704 	cmneq	r1, r4, lsl #14
    22f8:	08030000 	stmdaeq	r3, {}	; <UNPREDICTABLE>
    22fc:	00015c07 	andeq	r5, r1, r7, lsl #24
    2300:	00250400 	eoreq	r0, r5, r0, lsl #8
    2304:	007a0000 	rsbseq	r0, sl, r0
    2308:	25050000 	strcs	r0, [r5, #-0]
    230c:	00000000 	andeq	r0, r0, r0
    2310:	0001ab06 	andeq	sl, r1, r6, lsl #22
    2314:	0e1c0200 	cdpeq	2, 1, cr0, cr12, cr0, {0}
    2318:	00000086 	andeq	r0, r0, r6, lsl #1
    231c:	006b0407 	rsbeq	r0, fp, r7, lsl #8
    2320:	25040000 	strcs	r0, [r4, #-0]
    2324:	9b000000 	blls	232c <__code_start__-0x5cd4>
    2328:	05000000 	streq	r0, [r0, #-0]
    232c:	0000009b 	muleq	r0, fp, r0
    2330:	a8040700 	stmdage	r4, {r8, r9, sl}
    2334:	03000000 	movweq	r0, #0
    2338:	00110801 	andseq	r0, r1, r1, lsl #16
    233c:	a1080000 	mrsge	r0, (UNDEF: 8)
    2340:	06000000 	streq	r0, [r0], -r0
    2344:	000007a7 	andeq	r0, r0, r7, lsr #15
    2348:	b90e2102 	stmdblt	lr, {r1, r8, sp}
    234c:	07000000 	streq	r0, [r0, -r0]
    2350:	00008c04 	andeq	r8, r0, r4, lsl #24
    2354:	08be0900 	ldmeq	lr!, {r8, fp}
    2358:	0c010000 	stceq	0, cr0, [r1], {-0}
    235c:	008d9006 	addeq	r9, sp, r6
    2360:	00001000 	andeq	r1, r0, r0
    2364:	e89c0100 	ldm	ip, {r8}
    2368:	0a000000 	beq	2370 <__code_start__-0x5c90>
    236c:	0d010072 	stceq	0, cr0, [r1, #-456]	; 0xfffffe38
    2370:	00002c0e 	andeq	r2, r0, lr, lsl #24
    2374:	0015a500 	andseq	sl, r5, r0, lsl #10
    2378:	00159f00 	andseq	r9, r5, r0, lsl #30
    237c:	c10b0000 	mrsgt	r0, (UNDEF: 11)
    2380:	01000001 	tsteq	r0, r1
    2384:	8d800603 	stchi	6, cr0, [r0, #12]
    2388:	00100000 	andseq	r0, r0, r0
    238c:	9c010000 	stcls	0, cr0, [r1], {-0}
    2390:	0100720a 	tsteq	r0, sl, lsl #4
    2394:	002c0e04 	eoreq	r0, ip, r4, lsl #28
    2398:	15da0000 	ldrbne	r0, [sl]
    239c:	15d40000 	ldrbne	r0, [r4]
    23a0:	00000000 	andeq	r0, r0, r0
    23a4:	0000012f 	andeq	r0, r0, pc, lsr #2
    23a8:	0b550004 	bleq	15423c0 <__bss_end__+0x1538388>
    23ac:	01040000 	mrseq	r0, (UNDEF: 4)
    23b0:	00000639 	andeq	r0, r0, r9, lsr r6
    23b4:	0008f40c 	andeq	pc, r8, ip, lsl #8
    23b8:	00070a00 	andeq	r0, r7, r0, lsl #20
    23bc:	008da000 	addeq	sl, sp, r0
    23c0:	00002c00 	andeq	r2, r0, r0, lsl #24
    23c4:	001b0400 	andseq	r0, fp, r0, lsl #8
    23c8:	05040200 	streq	r0, [r4, #-512]	; 0xfffffe00
    23cc:	00746e69 	rsbseq	r6, r4, r9, ror #28
    23d0:	66070403 	strvs	r0, [r7], -r3, lsl #8
    23d4:	03000001 	movweq	r0, #1
    23d8:	000a0601 	andeq	r0, sl, r1, lsl #12
    23dc:	02030000 	andeq	r0, r3, #0, 0
    23e0:	0001b705 	andeq	fp, r1, r5, lsl #14
    23e4:	05040300 	streq	r0, [r4, #-768]	; 0xfffffd00
    23e8:	000001a2 	andeq	r0, r0, r2, lsr #3
    23ec:	9d050803 	stcls	8, cr0, [r5, #-12]
    23f0:	03000001 	movweq	r0, #1
    23f4:	00080801 	andeq	r0, r8, r1, lsl #16
    23f8:	02030000 	andeq	r0, r3, #0, 0
    23fc:	00003407 	andeq	r3, r0, r7, lsl #8
    2400:	07040300 	streq	r0, [r4, -r0, lsl #6]
    2404:	00000161 	andeq	r0, r0, r1, ror #2
    2408:	5c070803 	stcpl	8, cr0, [r7], {3}
    240c:	04000001 	streq	r0, [r0], #-1
    2410:	00000025 	andeq	r0, r0, r5, lsr #32
    2414:	0000007a 	andeq	r0, r0, sl, ror r0
    2418:	00002505 	andeq	r2, r0, r5, lsl #10
    241c:	ab060000 	blge	182424 <__bss_end__+0x1783ec>
    2420:	02000001 	andeq	r0, r0, #1, 0
    2424:	00860e1c 	addeq	r0, r6, ip, lsl lr
    2428:	04070000 	streq	r0, [r7], #-0
    242c:	0000006b 	andeq	r0, r0, fp, rrx
    2430:	00002504 	andeq	r2, r0, r4, lsl #10
    2434:	00009b00 	andeq	r9, r0, r0, lsl #22
    2438:	009b0500 	addseq	r0, fp, r0, lsl #10
    243c:	07000000 	streq	r0, [r0, -r0]
    2440:	0000a804 	andeq	sl, r0, r4, lsl #16
    2444:	08010300 	stmdaeq	r1, {r8, r9}
    2448:	00000011 	andeq	r0, r0, r1, lsl r0
    244c:	0000a108 	andeq	sl, r0, r8, lsl #2
    2450:	07a70600 	streq	r0, [r7, r0, lsl #12]!
    2454:	21020000 	mrscs	r0, (UNDEF: 2)
    2458:	0000b90e 	andeq	fp, r0, lr, lsl #18
    245c:	8c040700 	stchi	7, cr0, [r4], {-0}
    2460:	09000000 	stmdbeq	r0, {}	; <UNPREDICTABLE>
    2464:	00000016 	andeq	r0, r0, r6, lsl r0
    2468:	a0060401 	andge	r0, r6, r1, lsl #8
    246c:	2c00008d 	stccs	0, cr0, [r0], {141}	; 0x8d
    2470:	01000000 	mrseq	r0, (UNDEF: 0)
    2474:	00010e9c 	muleq	r1, ip, lr
    2478:	8db40a00 			; <UNDEFINED> instruction: 0x8db40a00
    247c:	00e80000 	rsceq	r0, r8, r0
    2480:	010b0000 	mrseq	r0, (UNDEF: 11)
    2484:	1c030550 	cfstr32ne	mvfx0, [r3], {80}	; 0x50
    2488:	00000096 	muleq	r0, r6, r0
    248c:	008db80c 	addeq	fp, sp, ip, lsl #16
    2490:	00010e00 	andeq	r0, r1, r0, lsl #28
    2494:	8dc00d00 	stclhi	13, cr0, [r0]
    2498:	011a0000 	tsteq	sl, r0
    249c:	01040000 	mrseq	r0, (UNDEF: 4)
    24a0:	010b0000 	mrseq	r0, (UNDEF: 11)
    24a4:	003a0150 	eorseq	r0, sl, r0, asr r1
    24a8:	008dc40c 	addeq	ip, sp, ip, lsl #8
    24ac:	00012600 	andeq	r2, r1, r0, lsl #12
    24b0:	0f0e0000 	svceq	0x000e0000
    24b4:	0f000009 	svceq	0x00000009
    24b8:	02000009 	andeq	r0, r0, #9, 0
    24bc:	eb0e064d 	bl	383df8 <__bss_end__+0x379dc0>
    24c0:	eb000008 	bl	24e8 <__code_start__-0x5b18>
    24c4:	02000008 	andeq	r0, r0, #8, 0
    24c8:	e00e0658 	and	r0, lr, r8, asr r6
    24cc:	e0000008 	and	r0, r0, r8
    24d0:	02000008 	andeq	r0, r0, #8, 0
    24d4:	8900066b 	stmdbhi	r0, {r0, r1, r3, r5, r6, r9, sl}
    24d8:	04000001 	streq	r0, [r0], #-1
    24dc:	000c1500 	andeq	r1, ip, r0, lsl #10
    24e0:	39010400 	stmdbcc	r1, {sl}
    24e4:	0c000006 	stceq	0, cr0, [r0], {6}
    24e8:	00000945 	andeq	r0, r0, r5, asr #18
    24ec:	0000070a 	andeq	r0, r0, sl, lsl #14
    24f0:	00008dcc 	andeq	r8, r0, ip, asr #27
    24f4:	0000003c 	andeq	r0, r0, ip, lsr r0
    24f8:	00001bac 	andeq	r1, r0, ip, lsr #23
    24fc:	69050402 	stmdbvs	r5, {r1, sl}
    2500:	0300746e 	movweq	r7, #1134	; 0x46e
    2504:	01660704 	cmneq	r6, r4, lsl #14
    2508:	01030000 	mrseq	r0, (UNDEF: 3)
    250c:	00000a06 	andeq	r0, r0, r6, lsl #20
    2510:	05020300 	streq	r0, [r2, #-768]	; 0xfffffd00
    2514:	000001b7 			; <UNDEFINED> instruction: 0x000001b7
    2518:	a2050403 	andge	r0, r5, #50331648	; 0x3000000
    251c:	03000001 	movweq	r0, #1
    2520:	019d0508 	orrseq	r0, sp, r8, lsl #10
    2524:	01030000 	mrseq	r0, (UNDEF: 3)
    2528:	00000808 	andeq	r0, r0, r8, lsl #16
    252c:	07020300 	streq	r0, [r2, -r0, lsl #6]
    2530:	00000034 	andeq	r0, r0, r4, lsr r0
    2534:	61070403 	tstvs	r7, r3, lsl #8
    2538:	03000001 	movweq	r0, #1
    253c:	015c0708 	cmpeq	ip, r8, lsl #14
    2540:	25040000 	strcs	r0, [r4, #-0]
    2544:	7a000000 	bvc	254c <__code_start__-0x5ab4>
    2548:	05000000 	streq	r0, [r0, #-0]
    254c:	00000025 	andeq	r0, r0, r5, lsr #32
    2550:	01ab0600 			; <UNDEFINED> instruction: 0x01ab0600
    2554:	1c020000 	stcne	0, cr0, [r2], {-0}
    2558:	0000860e 	andeq	r8, r0, lr, lsl #12
    255c:	6b040700 	blvs	104164 <__bss_end__+0xfa12c>
    2560:	04000000 	streq	r0, [r0], #-0
    2564:	00000025 	andeq	r0, r0, r5, lsr #32
    2568:	0000009b 	muleq	r0, fp, r0
    256c:	00009b05 	andeq	r9, r0, r5, lsl #22
    2570:	04070000 	streq	r0, [r7], #-0
    2574:	000000a8 	andeq	r0, r0, r8, lsr #1
    2578:	11080103 	tstne	r8, r3, lsl #2
    257c:	08000000 	stmdaeq	r0, {}	; <UNPREDICTABLE>
    2580:	000000a1 	andeq	r0, r0, r1, lsr #1
    2584:	0007a706 	andeq	sl, r7, r6, lsl #14
    2588:	0e210200 	cdpeq	2, 2, cr0, cr1, cr0, {0}
    258c:	000000b9 	strheq	r0, [r0], -r9
    2590:	008c0407 	addeq	r0, ip, r7, lsl #8
    2594:	1d090000 	stcne	0, cr0, [r9, #-0]
    2598:	01000009 	tsteq	r0, r9
    259c:	8dcc0604 	stclhi	6, cr0, [ip, #16]
    25a0:	003c0000 	eorseq	r0, ip, r0
    25a4:	9c010000 	stcls	0, cr0, [r1], {-0}
    25a8:	00000154 	andeq	r0, r0, r4, asr r1
    25ac:	0007ed06 	andeq	lr, r7, r6, lsl #26
    25b0:	10050100 	andne	r0, r5, r0, lsl #2
    25b4:	00000025 	andeq	r0, r0, r5, lsr #32
    25b8:	00081606 	andeq	r1, r8, r6, lsl #12
    25bc:	1f050100 	svcne	0x00050100
    25c0:	00000025 	andeq	r0, r0, r5, lsr #32
    25c4:	0000000a 	andeq	r0, r0, sl
    25c8:	07060100 	streq	r0, [r6, -r0, lsl #2]
    25cc:	7373620b 	cmnvc	r3, #-1342177280	; 0xb0000000
    25d0:	0a0a0100 	beq	2829d8 <__bss_end__+0x2789a0>
    25d4:	00000154 	andeq	r0, r0, r4, asr r1
    25d8:	0000160f 	andeq	r1, r0, pc, lsl #12
    25dc:	00001609 	andeq	r1, r0, r9, lsl #12
    25e0:	0009250c 	andeq	r2, r9, ip, lsl #10
    25e4:	0a0b0100 	beq	2c29ec <__bss_end__+0x2b89b4>
    25e8:	00000154 	andeq	r0, r0, r4, asr r1
    25ec:	008df00d 	addeq	pc, sp, sp
    25f0:	00000800 	andeq	r0, r0, r0, lsl #16
    25f4:	00012f00 	andeq	r2, r1, r0, lsl #30
    25f8:	6e690e00 	cdpvs	14, 6, cr0, cr9, cr0, {0}
    25fc:	05140100 	ldreq	r0, [r4, #-256]	; 0xffffff00
    2600:	0000002c 	andeq	r0, r0, ip, lsr #32
    2604:	d40f0001 	strle	r0, [pc], #-1	; 260c <__code_start__-0x59f4>
    2608:	5a00008d 	bpl	2844 <__code_start__-0x57bc>
    260c:	0f000001 	svceq	0x00000001
    2610:	00008df0 	strdeq	r8, [r0], -r0
    2614:	00000167 	andeq	r0, r0, r7, ror #2
    2618:	008dfc0f 	addeq	pc, sp, pc, lsl #24
    261c:	00017300 	andeq	r7, r1, r0, lsl #6
    2620:	8e000f00 	cdphi	15, 0, cr0, cr0, cr0, {0}
    2624:	01800000 	orreq	r0, r0, r0
    2628:	07000000 	streq	r0, [r0, -r0]
    262c:	00002504 	andeq	r2, r0, r4, lsl #10
    2630:	09371000 	ldmdbeq	r7!, {ip}
    2634:	09370000 	ldmdbeq	r7!, {}	; <UNPREDICTABLE>
    2638:	36020000 	strcc	r0, [r2], -r0
    263c:	2d110601 	ldccs	6, cr0, [r1, #-4]
    2640:	2d000009 	stccs	0, cr0, [r0, #-36]	; 0xffffffdc
    2644:	02000009 	andeq	r0, r0, #9, 0
    2648:	0010063b 	andseq	r0, r0, fp, lsr r6
    264c:	00000000 	andeq	r0, r0, r0
    2650:	02000000 	andeq	r0, r0, #0, 0
    2654:	1106010a 	tstne	r6, sl, lsl #2
    2658:	00000016 	andeq	r0, r0, r6, lsl r0
    265c:	00000016 	andeq	r0, r0, r6, lsl r0
    2660:	00066e02 	andeq	r6, r6, r2, lsl #28
    2664:	000000ce 	andeq	r0, r0, lr, asr #1
    2668:	0d110004 	ldceq	0, cr0, [r1, #-16]
    266c:	01040000 	mrseq	r0, (UNDEF: 4)
    2670:	00000639 	andeq	r0, r0, r9, lsr r6
    2674:	00095a0c 	andeq	r5, r9, ip, lsl #20
    2678:	00070a00 	andeq	r0, r7, r0, lsl #20
    267c:	008e0800 	addeq	r0, lr, r0, lsl #16
    2680:	00000400 	andeq	r0, r0, r0, lsl #8
    2684:	001c6e00 	andseq	r6, ip, r0, lsl #28
    2688:	05040200 	streq	r0, [r4, #-512]	; 0xfffffe00
    268c:	00746e69 	rsbseq	r6, r4, r9, ror #28
    2690:	66070403 	strvs	r0, [r7], -r3, lsl #8
    2694:	03000001 	movweq	r0, #1
    2698:	000a0601 	andeq	r0, sl, r1, lsl #12
    269c:	02030000 	andeq	r0, r3, #0, 0
    26a0:	0001b705 	andeq	fp, r1, r5, lsl #14
    26a4:	05040300 	streq	r0, [r4, #-768]	; 0xfffffd00
    26a8:	000001a2 	andeq	r0, r0, r2, lsr #3
    26ac:	9d050803 	stcls	8, cr0, [r5, #-12]
    26b0:	03000001 	movweq	r0, #1
    26b4:	00080801 	andeq	r0, r8, r1, lsl #16
    26b8:	02030000 	andeq	r0, r3, #0, 0
    26bc:	00003407 	andeq	r3, r0, r7, lsl #8
    26c0:	07040300 	streq	r0, [r4, -r0, lsl #6]
    26c4:	00000161 	andeq	r0, r0, r1, ror #2
    26c8:	5c070803 	stcpl	8, cr0, [r7], {3}
    26cc:	04000001 	streq	r0, [r0], #-1
    26d0:	00000025 	andeq	r0, r0, r5, lsr #32
    26d4:	0000007a 	andeq	r0, r0, sl, ror r0
    26d8:	00002505 	andeq	r2, r0, r5, lsl #10
    26dc:	ab060000 	blge	1826e4 <__bss_end__+0x1786ac>
    26e0:	02000001 	andeq	r0, r0, #1, 0
    26e4:	00860e1c 	addeq	r0, r6, ip, lsl lr
    26e8:	04070000 	streq	r0, [r7], #-0
    26ec:	0000006b 	andeq	r0, r0, fp, rrx
    26f0:	00002504 	andeq	r2, r0, r4, lsl #10
    26f4:	00009b00 	andeq	r9, r0, r0, lsl #22
    26f8:	009b0500 	addseq	r0, fp, r0, lsl #10
    26fc:	07000000 	streq	r0, [r0, -r0]
    2700:	0000a804 	andeq	sl, r0, r4, lsl #16
    2704:	08010300 	stmdaeq	r1, {r8, r9}
    2708:	00000011 	andeq	r0, r0, r1, lsl r0
    270c:	0000a108 	andeq	sl, r0, r8, lsl #2
    2710:	07a70600 	streq	r0, [r7, r0, lsl #12]!
    2714:	21020000 	mrscs	r0, (UNDEF: 2)
    2718:	0000b90e 	andeq	fp, r0, lr, lsl #18
    271c:	8c040700 	stchi	7, cr0, [r4], {-0}
    2720:	09000000 	stmdbeq	r0, {}	; <UNPREDICTABLE>
    2724:	00000937 	andeq	r0, r0, r7, lsr r9
    2728:	08060401 	stmdaeq	r6, {r0, sl}
    272c:	0400008e 	streq	r0, [r0], #-142	; 0xffffff72
    2730:	01000000 	mrseq	r0, (UNDEF: 0)
    2734:	0236009c 	eorseq	r0, r6, #156, 0	; 0x9c
    2738:	00040000 	andeq	r0, r4, r0
    273c:	00000d8a 	andeq	r0, r0, sl, lsl #27
    2740:	06390104 	ldrteq	r0, [r9], -r4, lsl #2
    2744:	9c0c0000 	stcls	0, cr0, [ip], {-0}
    2748:	0a000009 	beq	2774 <__code_start__-0x588c>
    274c:	90000007 	andls	r0, r0, r7
    2750:	00000001 	andeq	r0, r0, r1
    2754:	14000000 	strne	r0, [r0], #-0
    2758:	0200001d 	andeq	r0, r0, #29, 0
    275c:	6e690504 	cdpvs	5, 6, cr0, cr9, cr4, {0}
    2760:	25030074 	strcs	r0, [r3, #-116]	; 0xffffff8c
    2764:	04000000 	streq	r0, [r0], #-0
    2768:	01660704 	cmneq	r6, r4, lsl #14
    276c:	01040000 	mrseq	r0, (UNDEF: 4)
    2770:	00000a06 	andeq	r0, r0, r6, lsl #20
    2774:	05020400 	streq	r0, [r2, #-1024]	; 0xfffffc00
    2778:	000001b7 			; <UNDEFINED> instruction: 0x000001b7
    277c:	a2050404 	andge	r0, r5, #4, 8	; 0x4000000
    2780:	04000001 	streq	r0, [r0], #-1
    2784:	019d0508 	orrseq	r0, sp, r8, lsl #10
    2788:	01040000 	mrseq	r0, (UNDEF: 4)
    278c:	00000808 	andeq	r0, r0, r8, lsl #16
    2790:	07020400 	streq	r0, [r2, -r0, lsl #8]
    2794:	00000034 	andeq	r0, r0, r4, lsr r0
    2798:	61070404 	tstvs	r7, r4, lsl #8
    279c:	04000001 	streq	r0, [r0], #-1
    27a0:	015c0708 	cmpeq	ip, r8, lsl #14
    27a4:	25050000 	strcs	r0, [r5, #-0]
    27a8:	7f000000 	svcvc	0x00000000
    27ac:	06000000 	streq	r0, [r0], -r0
    27b0:	00000025 	andeq	r0, r0, r5, lsr #32
    27b4:	01ab0700 			; <UNDEFINED> instruction: 0x01ab0700
    27b8:	1c020000 	stcne	0, cr0, [r2], {-0}
    27bc:	00008b0e 	andeq	r8, r0, lr, lsl #22
    27c0:	70040800 	andvc	r0, r4, r0, lsl #16
    27c4:	05000000 	streq	r0, [r0, #-0]
    27c8:	00000025 	andeq	r0, r0, r5, lsr #32
    27cc:	000000a0 	andeq	r0, r0, r0, lsr #1
    27d0:	0000a006 	andeq	sl, r0, r6
    27d4:	04080000 	streq	r0, [r8], #-0
    27d8:	000000ad 	andeq	r0, r0, sp, lsr #1
    27dc:	11080104 	tstne	r8, r4, lsl #2
    27e0:	03000000 	movweq	r0, #0
    27e4:	000000a6 	andeq	r0, r0, r6, lsr #1
    27e8:	0007a707 	andeq	sl, r7, r7, lsl #14
    27ec:	0e210200 	cdpeq	2, 2, cr0, cr1, cr0, {0}
    27f0:	000000be 	strheq	r0, [r0], -lr
    27f4:	00910408 	addseq	r0, r1, r8, lsl #8
    27f8:	c0090000 	andgt	r0, r9, r0
    27fc:	01000009 	tsteq	r0, r9
    2800:	0031110d 	eorseq	r1, r1, sp, lsl #2
    2804:	e00a0000 	and	r0, sl, r0
    2808:	01000008 	tsteq	r0, r8
    280c:	8e50061f 	mrchi	6, 2, r0, cr0, cr15, {0}
    2810:	00540000 	subseq	r0, r4, r0
    2814:	9c010000 	stcls	0, cr0, [r1], {-0}
    2818:	000001ae 	andeq	r0, r0, lr, lsr #3
    281c:	0009e40b 	andeq	lr, r9, fp, lsl #8
    2820:	0f2c0100 	svceq	0x002c0100
    2824:	0000002c 	andeq	r0, r0, ip, lsr #32
    2828:	0000163c 	andeq	r1, r0, ip, lsr r6
    282c:	0000163a 	andeq	r1, r0, sl, lsr r6
    2830:	0009850b 	andeq	r8, r9, fp, lsl #10
    2834:	0f2d0100 	svceq	0x002d0100
    2838:	0000002c 	andeq	r0, r0, ip, lsr #32
    283c:	00001656 	andeq	r1, r0, r6, asr r6
    2840:	00001654 	andeq	r1, r0, r4, asr r6
    2844:	0009b10b 	andeq	fp, r9, fp, lsl #2
    2848:	0f2e0100 	svceq	0x002e0100
    284c:	0000002c 	andeq	r0, r0, ip, lsr #32
    2850:	00001670 	andeq	r1, r0, r0, ror r6
    2854:	0000166e 	andeq	r1, r0, lr, ror #12
    2858:	0009cb0b 	andeq	ip, r9, fp, lsl #22
    285c:	0f2f0100 	svceq	0x002f0100
    2860:	0000002c 	andeq	r0, r0, ip, lsr #32
    2864:	00001689 	andeq	r1, r0, r9, lsl #13
    2868:	00001687 	andeq	r1, r0, r7, lsl #13
    286c:	008e580c 	addeq	r5, lr, ip, lsl #16
    2870:	0001d900 	andeq	sp, r1, r0, lsl #18
    2874:	8e640c00 	cdphi	12, 6, cr0, cr4, cr0, {0}
    2878:	02080000 	andeq	r0, r8, #0, 0
    287c:	680c0000 	stmdavs	ip, {}	; <UNPREDICTABLE>
    2880:	1500008e 	strne	r0, [r0, #-142]	; 0xffffff72
    2884:	0d000002 	stceq	0, cr0, [r0, #-8]
    2888:	00008e70 	andeq	r8, r0, r0, ror lr
    288c:	00000221 	andeq	r0, r0, r1, lsr #4
    2890:	00000164 	andeq	r0, r0, r4, ror #2
    2894:	0150010e 	cmpeq	r0, lr, lsl #2
    2898:	7c0d003a 	stcvc	0, cr0, [sp], {58}	; 0x3a
    289c:	2d00008e 	stccs	0, cr0, [r0, #-568]	; 0xfffffdc8
    28a0:	84000002 	strhi	r0, [r0], #-2
    28a4:	0e000001 	cdpeq	0, 0, cr0, cr0, cr1, {0}
    28a8:	0c055001 	stceq	0, cr5, [r5], {1}
    28ac:	20100024 	andscs	r0, r0, r4, lsr #32
    28b0:	0551010e 	ldrbeq	r0, [r1, #-270]	; 0xfffffef2
    28b4:	0000010c 	andeq	r0, r0, ip, lsl #2
    28b8:	880d005a 	stmdahi	sp, {r1, r3, r4, r6}
    28bc:	2d00008e 	stccs	0, cr0, [r0, #-568]	; 0xfffffdc8
    28c0:	a4000002 	strge	r0, [r0], #-2
    28c4:	0e000001 	cdpeq	0, 0, cr0, cr0, cr1, {0}
    28c8:	0c055001 	stceq	0, cr5, [r5], {1}
    28cc:	2010001c 	andscs	r0, r0, ip, lsl r0
    28d0:	0551010e 	ldrbeq	r0, [r1, #-270]	; 0xfffffef2
    28d4:	0000200c 	andeq	r2, r0, ip
    28d8:	900c005a 	andls	r0, ip, sl, asr r0
    28dc:	ae00008e 	cdpge	0, 0, cr0, cr0, cr14, {4}
    28e0:	00000001 	andeq	r0, r0, r1
    28e4:	00098d0f 	andeq	r8, r9, pc, lsl #26
    28e8:	06170100 	ldreq	r0, [r7], -r0, lsl #2
    28ec:	00008e3c 	andeq	r8, r0, ip, lsr lr
    28f0:	00000014 	andeq	r0, r0, r4, lsl r0
    28f4:	01d99c01 	bicseq	r9, r9, r1, lsl #24
    28f8:	ec0b0000 	stc	0, cr0, [fp], {-0}
    28fc:	01000009 	tsteq	r0, r9
    2900:	00310e18 	eorseq	r0, r1, r8, lsl lr
    2904:	16a40000 	strtne	r0, [r4], r0
    2908:	169e0000 	ldrne	r0, [lr], r0
    290c:	10000000 	andne	r0, r0, r0
    2910:	000009bd 			; <UNDEFINED> instruction: 0x000009bd
    2914:	25050e01 	strcs	r0, [r5, #-3585]	; 0xfffff1ff
    2918:	24000000 	strcs	r0, [r0], #-0
    291c:	1800008e 	stmdane	r0, {r1, r2, r3, r7}
    2920:	01000000 	mrseq	r0, (UNDEF: 0)
    2924:	0002089c 	muleq	r2, ip, r8
    2928:	09ec0b00 	stmibeq	ip!, {r8, r9, fp}^
    292c:	0f010000 	svceq	0x00010000
    2930:	0000310e 	andeq	r3, r0, lr, lsl #2
    2934:	0016d200 	andseq	sp, r6, r0, lsl #4
    2938:	0016ce00 	andseq	ip, r6, r0, lsl #28
    293c:	76110000 	ldrvc	r0, [r1], -r0
    2940:	76000009 	strvc	r0, [r0], -r9
    2944:	02000009 	andeq	r0, r0, #9, 0
    2948:	1206013b 	andne	r0, r6, #-1073741810	; 0xc000000e
    294c:	0000090f 	andeq	r0, r0, pc, lsl #18
    2950:	0000090f 	andeq	r0, r0, pc, lsl #18
    2954:	12064d02 	andne	r4, r6, #128	; 0x80
    2958:	000008eb 	andeq	r0, r0, fp, ror #17
    295c:	000008eb 	andeq	r0, r0, fp, ror #17
    2960:	12065802 	andne	r5, r6, #131072	; 0x20000
    2964:	000004c9 	andeq	r0, r0, r9, asr #9
    2968:	000004c9 	andeq	r0, r0, r9, asr #9
    296c:	0006b202 	andeq	fp, r6, r2, lsl #4
    2970:	0000024d 	andeq	r0, r0, sp, asr #4
    2974:	0eaf0004 	cdpeq	0, 10, cr0, cr15, cr4, {0}
    2978:	01040000 	mrseq	r0, (UNDEF: 4)
    297c:	00000639 	andeq	r0, r0, r9, lsr r6
    2980:	0009fb0c 	andeq	pc, r9, ip, lsl #22
    2984:	00070a00 	andeq	r0, r7, r0, lsl #20
    2988:	008ea400 	addeq	sl, lr, r0, lsl #8
    298c:	00008400 	andeq	r8, r0, r0, lsl #8
    2990:	001e0a00 	andseq	r0, lr, r0, lsl #20
    2994:	05040200 	streq	r0, [r4, #-512]	; 0xfffffe00
    2998:	00746e69 	rsbseq	r6, r4, r9, ror #28
    299c:	66070403 	strvs	r0, [r7], -r3, lsl #8
    29a0:	03000001 	movweq	r0, #1
    29a4:	000a0601 	andeq	r0, sl, r1, lsl #12
    29a8:	02030000 	andeq	r0, r3, #0, 0
    29ac:	0001b705 	andeq	fp, r1, r5, lsl #14
    29b0:	05040300 	streq	r0, [r4, #-768]	; 0xfffffd00
    29b4:	000001a2 	andeq	r0, r0, r2, lsr #3
    29b8:	9d050803 	stcls	8, cr0, [r5, #-12]
    29bc:	03000001 	movweq	r0, #1
    29c0:	00080801 	andeq	r0, r8, r1, lsl #16
    29c4:	02030000 	andeq	r0, r3, #0, 0
    29c8:	00003407 	andeq	r3, r0, r7, lsl #8
    29cc:	07040300 	streq	r0, [r4, -r0, lsl #6]
    29d0:	00000161 	andeq	r0, r0, r1, ror #2
    29d4:	5c070803 	stcpl	8, cr0, [r7], {3}
    29d8:	04000001 	streq	r0, [r0], #-1
    29dc:	00000025 	andeq	r0, r0, r5, lsr #32
    29e0:	0000007a 	andeq	r0, r0, sl, ror r0
    29e4:	00002505 	andeq	r2, r0, r5, lsl #10
    29e8:	ab060000 	blge	1829f0 <__bss_end__+0x1789b8>
    29ec:	02000001 	andeq	r0, r0, #1, 0
    29f0:	00860e1c 	addeq	r0, r6, ip, lsl lr
    29f4:	04070000 	streq	r0, [r7], #-0
    29f8:	0000006b 	andeq	r0, r0, fp, rrx
    29fc:	00002504 	andeq	r2, r0, r4, lsl #10
    2a00:	00009b00 	andeq	r9, r0, r0, lsl #22
    2a04:	009b0500 	addseq	r0, fp, r0, lsl #10
    2a08:	07000000 	streq	r0, [r0, -r0]
    2a0c:	0000a804 	andeq	sl, r0, r4, lsl #16
    2a10:	08010300 	stmdaeq	r1, {r8, r9}
    2a14:	00000011 	andeq	r0, r0, r1, lsl r0
    2a18:	0000a108 	andeq	sl, r0, r8, lsl #2
    2a1c:	07a70600 	streq	r0, [r7, r0, lsl #12]!
    2a20:	21020000 	mrscs	r0, (UNDEF: 2)
    2a24:	0000b90e 	andeq	fp, r0, lr, lsl #18
    2a28:	8c040700 	stchi	7, cr0, [r4], {-0}
    2a2c:	09000000 	stmdbeq	r0, {}	; <UNPREDICTABLE>
    2a30:	000009f1 	strdeq	r0, [r0], -r1
    2a34:	10061e01 	andne	r1, r6, r1, lsl #28
    2a38:	1800008f 	stmdane	r0, {r0, r1, r2, r3, r7}
    2a3c:	01000000 	mrseq	r0, (UNDEF: 0)
    2a40:	0001099c 	muleq	r1, ip, r9
    2a44:	65730a00 	ldrbvs	r0, [r3, #-2560]!	; 0xfffff600
    2a48:	1e010063 	cdpne	0, 0, cr0, cr1, cr3, {3}
    2a4c:	00002c19 	andeq	r2, r0, r9, lsl ip
    2a50:	0016f500 	andseq	pc, r6, r0, lsl #10
    2a54:	0016f100 	andseq	pc, r6, r0, lsl #2
    2a58:	8f240b00 	svchi	0x00240b00
    2a5c:	01090000 	mrseq	r0, (UNDEF: 9)
    2a60:	010c0000 	mrseq	r0, (UNDEF: 12)
    2a64:	01f31150 	mvnseq	r1, r0, asr r1
    2a68:	f3243550 	vqrshl.u32	<illegal reg q1.5>, q0, q2
    2a6c:	321c5001 	andscc	r5, ip, #1, 0
    2a70:	5001f324 	andpl	pc, r1, r4, lsr #6
    2a74:	00243322 	eoreq	r3, r4, r2, lsr #6
    2a78:	08eb0900 	stmiaeq	fp!, {r8, fp}^
    2a7c:	1b010000 	blne	42a84 <__bss_end__+0x38a4c>
    2a80:	008ef806 	addeq	pc, lr, r6, lsl #16
    2a84:	00001800 	andeq	r1, r0, r0, lsl #16
    2a88:	529c0100 	addspl	r0, ip, #0
    2a8c:	0a000001 	beq	2a98 <__code_start__-0x5568>
    2a90:	0100736d 	tsteq	r0, sp, ror #6
    2a94:	002c181b 	eoreq	r1, ip, fp, lsl r8
    2a98:	171a0000 	ldrne	r0, [sl, -r0]
    2a9c:	17160000 	ldrne	r0, [r6, -r0]
    2aa0:	0c0b0000 	stceq	0, cr0, [fp], {-0}
    2aa4:	5200008f 	andpl	r0, r0, #143, 0	; 0x8f
    2aa8:	0c000001 	stceq	0, cr0, [r0], {1}
    2aac:	f3115001 	vhadd.u16	d5, d1, d1
    2ab0:	24355001 	ldrtcs	r5, [r5], #-1
    2ab4:	1c5001f3 	ldfnee	f0, [r0], {243}	; 0xf3
    2ab8:	01f32432 	mvnseq	r2, r2, lsr r4
    2abc:	24332250 	ldrtcs	r2, [r3], #-592	; 0xfffffdb0
    2ac0:	1e090000 	cdpne	0, 0, cr0, cr9, cr0, {0}
    2ac4:	0100000a 	tsteq	r0, sl
    2ac8:	8ed40612 	mrchi	6, 6, r0, cr4, cr2, {0}
    2acc:	00240000 	eoreq	r0, r4, r0
    2ad0:	9c010000 	stcls	0, cr0, [r1], {-0}
    2ad4:	000001c2 	andeq	r0, r0, r2, asr #3
    2ad8:	0073750a 	rsbseq	r7, r3, sl, lsl #10
    2adc:	2c181201 	lfmcs	f1, 4, [r8], {1}
    2ae0:	3f000000 	svccc	0x00000000
    2ae4:	3b000017 	blcc	2b48 <__code_start__-0x54b8>
    2ae8:	0d000017 	stceq	0, cr0, [r0, #-92]	; 0xffffffa4
    2aec:	01006272 	tsteq	r0, r2, ror r2
    2af0:	002c0e13 	eoreq	r0, ip, r3, lsl lr
    2af4:	175f0000 	ldrbne	r0, [pc, -r0]
    2af8:	175d0000 	ldrbne	r0, [sp, -r0]
    2afc:	e40e0000 	str	r0, [lr], #-0
    2b00:	1400008e 	strne	r0, [r0], #-142	; 0xffffff72
    2b04:	b8000000 	stmdalt	r0, {}	; <UNPREDICTABLE>
    2b08:	0d000001 	stceq	0, cr0, [r0, #-4]
    2b0c:	01006172 	tsteq	r0, r2, ror r1
    2b10:	002c1215 	eoreq	r1, ip, r5, lsl r2
    2b14:	17740000 	ldrbne	r0, [r4, -r0]!
    2b18:	17720000 	ldrbne	r0, [r2, -r0]!
    2b1c:	e80f0000 	stmda	pc, {}	; <UNPREDICTABLE>
    2b20:	c200008e 	andgt	r0, r0, #142, 0	; 0x8e
    2b24:	00000001 	andeq	r0, r0, r1
    2b28:	008ee00f 	addeq	lr, lr, pc
    2b2c:	0001c200 	andeq	ip, r1, r0, lsl #4
    2b30:	0f100000 	svceq	0x00100000
    2b34:	0100000a 	tsteq	r0, sl
    2b38:	002c0a09 	eoreq	r0, ip, r9, lsl #20
    2b3c:	8eb80000 	cdphi	0, 11, cr0, cr8, cr0, {0}
    2b40:	001c0000 	andseq	r0, ip, r0
    2b44:	9c010000 	stcls	0, cr0, [r1], {-0}
    2b48:	0000020a 	andeq	r0, r0, sl, lsl #4
    2b4c:	0100750d 	tsteq	r0, sp, lsl #10
    2b50:	002c0e0d 	eoreq	r0, ip, sp, lsl #28
    2b54:	178b0000 	strne	r0, [fp, r0]
    2b58:	17870000 	strne	r0, [r7, r0]
    2b5c:	c00f0000 	andgt	r0, pc, r0
    2b60:	3800008e 	stmdacc	r0, {r1, r2, r3, r7}
    2b64:	0f000002 	svceq	0x00000002
    2b68:	00008ec4 	andeq	r8, r0, r4, asr #29
    2b6c:	0000020a 	andeq	r0, r0, sl, lsl #4
    2b70:	008ecc0f 	addeq	ip, lr, pc, lsl #24
    2b74:	00023800 	andeq	r3, r2, r0, lsl #16
    2b78:	27100000 	ldrcs	r0, [r0, -r0]
    2b7c:	0100000a 	tsteq	r0, sl
    2b80:	002c0a04 	eoreq	r0, ip, r4, lsl #20
    2b84:	8ea40000 	cdphi	0, 10, cr0, cr4, cr0, {0}
    2b88:	00140000 	andseq	r0, r4, r0
    2b8c:	9c010000 	stcls	0, cr0, [r1], {-0}
    2b90:	00000238 	andeq	r0, r0, r8, lsr r2
    2b94:	008eb00b 	addeq	fp, lr, fp
    2b98:	00024400 	andeq	r4, r2, r0, lsl #8
    2b9c:	50010c00 	andpl	r0, r1, r0, lsl #24
    2ba0:	30040c05 	andcc	r0, r4, r5, lsl #24
    2ba4:	00002000 	andeq	r2, r0, r0
    2ba8:	00046511 	andeq	r6, r4, r1, lsl r5
    2bac:	00046500 	andeq	r6, r4, r0, lsl #10
    2bb0:	06a10200 	strteq	r0, [r1], r0, lsl #4
    2bb4:	00036111 	andeq	r6, r3, r1, lsl r1
    2bb8:	00036100 	andeq	r6, r3, r0, lsl #2
    2bbc:	0ac70200 	beq	ff1c33c4 <__bss_end__+0xff1b938c>
    2bc0:	0003a500 	andeq	sl, r3, r0, lsl #10
    2bc4:	b0000400 	andlt	r0, r0, r0, lsl #8
    2bc8:	0400000f 	streq	r0, [r0], #-15
    2bcc:	000adf01 	andeq	sp, sl, r1, lsl #30
    2bd0:	0b810c00 	bleq	fe045bd8 <__bss_end__+0xfe03bba0>
    2bd4:	0a7c0000 	beq	1f02bdc <__bss_end__+0x1ef8ba4>
    2bd8:	8f280000 	svchi	0x00280000
    2bdc:	011c0000 	tsteq	ip, r0
    2be0:	1f070000 	svcne	0x00070000
    2be4:	04020000 	streq	r0, [r2], #-0
    2be8:	746e6905 	strbtvc	r6, [lr], #-2309	; 0xfffff6fb
    2bec:	07040300 	streq	r0, [r4, -r0, lsl #6]
    2bf0:	00000166 	andeq	r0, r0, r6, ror #2
    2bf4:	00002c04 	andeq	r2, r0, r4, lsl #24
    2bf8:	06010300 	streq	r0, [r1], -r0, lsl #6
    2bfc:	0000000a 	andeq	r0, r0, sl
    2c00:	b7050203 	strlt	r0, [r5, -r3, lsl #4]
    2c04:	03000001 	movweq	r0, #1
    2c08:	01a20504 			; <UNDEFINED> instruction: 0x01a20504
    2c0c:	08030000 	stmdaeq	r3, {}	; <UNPREDICTABLE>
    2c10:	00019d05 	andeq	r9, r1, r5, lsl #26
    2c14:	08010300 	stmdaeq	r1, {r8, r9}
    2c18:	00000008 	andeq	r0, r0, r8
    2c1c:	34070203 	strcc	r0, [r7], #-515	; 0xfffffdfd
    2c20:	05000000 	streq	r0, [r0, #-0]
    2c24:	000003b9 			; <UNDEFINED> instruction: 0x000003b9
    2c28:	6e193403 	cfmulsvs	mvf3, mvf9, mvf3
    2c2c:	03000000 	movweq	r0, #0
    2c30:	01610704 	cmneq	r1, r4, lsl #14
    2c34:	08030000 	stmdaeq	r3, {}	; <UNPREDICTABLE>
    2c38:	00015c07 	andeq	r5, r1, r7, lsl #24
    2c3c:	08010300 	stmdaeq	r1, {r8, r9}
    2c40:	00000011 	andeq	r0, r0, r1, lsl r0
    2c44:	54010706 	strpl	r0, [r1], #-1798	; 0xfffff8fa
    2c48:	04000000 	streq	r0, [r0], #-0
    2c4c:	00c20e0c 	sbceq	r0, r2, ip, lsl #28
    2c50:	9e070000 	cdpls	0, 0, cr0, cr7, cr0, {0}
    2c54:	00000003 	andeq	r0, r0, r3
    2c58:	00024607 	andeq	r4, r2, r7, lsl #12
    2c5c:	71070100 	mrsvc	r0, (UNDEF: 23)
    2c60:	04000003 	streq	r0, [r0], #-3
    2c64:	00028f07 	andeq	r8, r2, r7, lsl #30
    2c68:	9e070500 	cfsh32ls	mvfx0, mvfx7, #0
    2c6c:	06000002 	streq	r0, [r0], -r2
    2c70:	0002ad07 	andeq	sl, r2, r7, lsl #26
    2c74:	bc070700 	stclt	7, cr0, [r7], {-0}
    2c78:	03000002 	movweq	r0, #2
    2c7c:	0002cb07 	andeq	ip, r2, r7, lsl #22
    2c80:	05000200 	streq	r0, [r0, #-512]	; 0xfffffe00
    2c84:	00000ad3 	ldrdeq	r0, [r0], -r3
    2c88:	83031504 	movwhi	r1, #13572	; 0x3504
    2c8c:	08000000 	stmdaeq	r0, {}	; <UNPREDICTABLE>
    2c90:	00000a44 	andeq	r0, r0, r4, asr #20
    2c94:	33171d01 	tstcc	r7, #64	; 0x40
    2c98:	1c000000 	stcne	0, cr0, [r0], {-0}
    2c9c:	08202000 	stmdaeq	r0!, {sp}
    2ca0:	00000a3a 	andeq	r0, r0, sl, lsr sl
    2ca4:	33171e01 	tstcc	r7, #1, 28
    2ca8:	28000000 	stmdacs	r0, {}	; <UNPREDICTABLE>
    2cac:	08202000 	stmdaeq	r0!, {sp}
    2cb0:	00000b72 	andeq	r0, r0, r2, ror fp
    2cb4:	33171f01 	tstcc	r7, #1, 30
    2cb8:	34000000 	strcc	r0, [r0], #-0
    2cbc:	09202000 	stmdbeq	r0!, {sp}
    2cc0:	00000a63 	andeq	r0, r0, r3, ror #20
    2cc4:	25055501 	strcs	r5, [r5, #-1281]	; 0xfffffaff
    2cc8:	10000000 	andne	r0, r0, r0
    2ccc:	34000090 	strcc	r0, [r0], #-144	; 0xffffff70
    2cd0:	01000000 	mrseq	r0, (UNDEF: 0)
    2cd4:	00016e9c 	muleq	r1, ip, lr
    2cd8:	69700a00 	ldmdbvs	r0!, {r9, fp}^
    2cdc:	5501006e 	strpl	r0, [r1, #-110]	; 0xffffff92
    2ce0:	00002c18 	andeq	r2, r0, r8, lsl ip
    2ce4:	0017b100 	andseq	fp, r7, r0, lsl #2
    2ce8:	0017a900 	andseq	sl, r7, r0, lsl #18
    2cec:	0b7c0b00 	bleq	1f058f4 <__bss_end__+0x1efb8bc>
    2cf0:	58010000 	stmdapl	r1, {}	; <UNPREDICTABLE>
    2cf4:	00002c0e 	andeq	r2, r0, lr, lsl #24
    2cf8:	0017f100 	andseq	pc, r7, r0, lsl #2
    2cfc:	0017eb00 	andseq	lr, r7, r0, lsl #22
    2d00:	666f0c00 	strbtvs	r0, [pc], -r0, lsl #24
    2d04:	59010066 	stmdbpl	r1, {r1, r2, r5, r6}
    2d08:	00002c0e 	andeq	r2, r0, lr, lsl #24
    2d0c:	00183100 	andseq	r3, r8, r0, lsl #2
    2d10:	00182f00 	andseq	r2, r8, r0, lsl #30
    2d14:	902c0d00 	eorls	r0, ip, r0, lsl #26
    2d18:	03900000 	orrseq	r0, r0, #0, 0
    2d1c:	010e0000 	mrseq	r0, (UNDEF: 14)
    2d20:	01f30b50 	mvnseq	r0, r0, asr fp
    2d24:	23253550 			; <UNDEFINED> instruction: 0x23253550
    2d28:	818080b4 	strhhi	r8, [r0, r4]
    2d2c:	0f000002 	svceq	0x00000002
    2d30:	00000a4e 	andeq	r0, r0, lr, asr #20
    2d34:	f4064e01 			; <UNDEFINED> instruction: 0xf4064e01
    2d38:	1c00008f 	stcne	0, cr0, [r0], {143}	; 0x8f
    2d3c:	01000000 	mrseq	r0, (UNDEF: 0)
    2d40:	0001c99c 	muleq	r1, ip, r9
    2d44:	69700a00 	ldmdbvs	r0!, {r9, fp}^
    2d48:	4e01006e 	cdpmi	0, 0, cr0, cr1, cr14, {3}
    2d4c:	00002c1a 	andeq	r2, r0, sl, lsl ip
    2d50:	00184c00 	andseq	r4, r8, r0, lsl #24
    2d54:	00184400 	andseq	r4, r8, r0, lsl #8
    2d58:	00760a00 	rsbseq	r0, r6, r0, lsl #20
    2d5c:	2c284e01 	stccs	14, cr4, [r8], #-4
    2d60:	8e000000 	cdphi	0, 0, cr0, cr0, cr0, {0}
    2d64:	86000018 			; <UNDEFINED> instruction: 0x86000018
    2d68:	10000018 	andne	r0, r0, r8, lsl r0
    2d6c:	00009004 	andeq	r9, r0, r4
    2d70:	00000251 	andeq	r0, r0, r1, asr r2
    2d74:	000001bf 			; <UNDEFINED> instruction: 0x000001bf
    2d78:	0350010e 	cmpeq	r0, #-2147483645	; 0x80000003
    2d7c:	005001f3 	ldrsheq	r0, [r0], #-19	; 0xffffffed
    2d80:	00900c11 	addseq	r0, r0, r1, lsl ip
    2d84:	00020a00 	andeq	r0, r2, r0, lsl #20
    2d88:	6d0f0000 	stcvs	0, cr0, [pc, #-0]	; 2d90 <__code_start__-0x5270>
    2d8c:	0100000a 	tsteq	r0, sl
    2d90:	8fe40649 	svchi	0x00e40649
    2d94:	00100000 	andseq	r0, r0, r0
    2d98:	9c010000 	stcls	0, cr0, [r1], {-0}
    2d9c:	0000020a 	andeq	r0, r0, sl, lsl #4
    2da0:	6e69700a 	cdpvs	0, 6, cr7, cr9, cr10, {0}
    2da4:	1e490100 	dvfnee	f0, f1, f0
    2da8:	0000002c 	andeq	r0, r0, ip, lsr #32
    2dac:	000018cc 	andeq	r1, r0, ip, asr #17
    2db0:	000018c8 	andeq	r1, r0, r8, asr #17
    2db4:	008ff00d 	addeq	pc, pc, sp
    2db8:	0002d900 	andeq	sp, r2, r0, lsl #18
    2dbc:	50010e00 	andpl	r0, r1, r0, lsl #28
    2dc0:	5001f303 	andpl	pc, r1, r3, lsl #6
    2dc4:	0151010e 	cmpeq	r1, lr, lsl #2
    2dc8:	0f000030 	svceq	0x00000030
    2dcc:	00000ab1 			; <UNDEFINED> instruction: 0x00000ab1
    2dd0:	c0064201 	andgt	r4, r6, r1, lsl #4
    2dd4:	2400008f 	strcs	r0, [r0], #-143	; 0xffffff71
    2dd8:	01000000 	mrseq	r0, (UNDEF: 0)
    2ddc:	0002519c 	muleq	r2, ip, r1
    2de0:	69700a00 	ldmdbvs	r0!, {r9, fp}^
    2de4:	4201006e 	andmi	r0, r1, #110, 0	; 0x6e
    2de8:	00002c1c 	andeq	r2, r0, ip, lsl ip
    2dec:	0018f100 	andseq	pc, r8, r0, lsl #2
    2df0:	0018ed00 	andseq	lr, r8, r0, lsl #26
    2df4:	8fdc0d00 	svchi	0x00dc0d00
    2df8:	039c0000 	orrseq	r0, ip, #0, 0
    2dfc:	010e0000 	mrseq	r0, (UNDEF: 14)
    2e00:	280c0550 	stmdacs	ip, {r4, r6, r8, sl}
    2e04:	0e202000 	cdpeq	0, 2, cr2, cr0, cr0, {0}
    2e08:	31055101 	tstcc	r5, r1, lsl #2
    2e0c:	245001f3 	ldrbcs	r0, [r0], #-499	; 0xfffffe0d
    2e10:	f20f0000 	vhadd.s8	d0, d15, d0
    2e14:	01000004 	tsteq	r0, r4
    2e18:	8f9c063b 	svchi	0x009c063b
    2e1c:	00240000 	eoreq	r0, r4, r0
    2e20:	9c010000 	stcls	0, cr0, [r1], {-0}
    2e24:	00000298 	muleq	r0, r8, r2
    2e28:	6e69700a 	cdpvs	0, 6, cr7, cr9, cr10, {0}
    2e2c:	1b3b0100 	blne	ec3234 <__bss_end__+0xeb91fc>
    2e30:	0000002c 	andeq	r0, r0, ip, lsr #32
    2e34:	00001916 	andeq	r1, r0, r6, lsl r9
    2e38:	00001912 	andeq	r1, r0, r2, lsl r9
    2e3c:	008fb80d 	addeq	fp, pc, sp, lsl #16
    2e40:	00039c00 	andeq	r9, r3, r0, lsl #24
    2e44:	50010e00 	andpl	r0, r1, r0, lsl #28
    2e48:	001c0c05 	andseq	r0, ip, r5, lsl #24
    2e4c:	010e2020 	tsteq	lr, r0, lsr #32
    2e50:	f3310551 	vqrshl.u64	q0, <illegal reg q0.5>, <illegal reg q0.5>
    2e54:	00245001 	eoreq	r5, r4, r1
    2e58:	0abe0f00 	beq	fef86a60 <__bss_end__+0xfef7ca28>
    2e5c:	36010000 	strcc	r0, [r1], -r0
    2e60:	008f8c06 	addeq	r8, pc, r6, lsl #24
    2e64:	00001000 	andeq	r1, r0, r0
    2e68:	d99c0100 	ldmible	ip, {r8}
    2e6c:	0a000002 	beq	2e7c <__code_start__-0x5184>
    2e70:	006e6970 	rsbeq	r6, lr, r0, ror r9
    2e74:	2c1f3601 	ldccs	6, cr3, [pc], {1}
    2e78:	3b000000 	blcc	2e80 <__code_start__-0x5180>
    2e7c:	37000019 	smladcc	r0, r9, r0, r0
    2e80:	0d000019 	stceq	0, cr0, [r0, #-100]	; 0xffffff9c
    2e84:	00008f98 	muleq	r0, r8, pc	; <UNPREDICTABLE>
    2e88:	000002d9 	ldrdeq	r0, [r0], -r9
    2e8c:	0350010e 	cmpeq	r0, #-2147483645	; 0x80000003
    2e90:	0e5001f3 	mrceq	1, 2, r0, cr0, cr3, {7}
    2e94:	31015101 	tstcc	r1, r1, lsl #2
    2e98:	ac0f0000 	stcge	0, cr0, [pc], {-0}
    2e9c:	01000004 	tsteq	r0, r4
    2ea0:	8f280628 	svchi	0x00280628
    2ea4:	00640000 	rsbeq	r0, r4, r0
    2ea8:	9c010000 	stcls	0, cr0, [r1], {-0}
    2eac:	00000374 	andeq	r0, r0, r4, ror r3
    2eb0:	6e69700a 	cdpvs	0, 6, cr7, cr9, cr10, {0}
    2eb4:	21280100 			; <UNDEFINED> instruction: 0x21280100
    2eb8:	0000002c 	andeq	r0, r0, ip, lsr #32
    2ebc:	00001960 	andeq	r1, r0, r0, ror #18
    2ec0:	0000195c 	andeq	r1, r0, ip, asr r9
    2ec4:	000ace12 	andeq	ip, sl, r2, lsl lr
    2ec8:	32280100 	eorcc	r0, r8, #0
    2ecc:	000000c2 	andeq	r0, r0, r2, asr #1
    2ed0:	00001985 	andeq	r1, r0, r5, lsl #19
    2ed4:	00001981 	andeq	r1, r0, r1, lsl #19
    2ed8:	66666f0c 	strbtvs	r6, [r6], -ip, lsl #30
    2edc:	0e2d0100 	sufeqe	f0, f5, f0
    2ee0:	0000002c 	andeq	r0, r0, ip, lsr #32
    2ee4:	000019a8 	andeq	r1, r0, r8, lsr #19
    2ee8:	000019a6 	andeq	r1, r0, r6, lsr #19
    2eec:	0100670c 	tsteq	r0, ip, lsl #14
    2ef0:	002c0e2e 	eoreq	r0, ip, lr, lsr #28
    2ef4:	19bd0000 	ldmibne	sp!, {}	; <UNPREDICTABLE>
    2ef8:	19bb0000 	ldmibne	fp!, {}	; <UNPREDICTABLE>
    2efc:	760c0000 	strvc	r0, [ip], -r0
    2f00:	0e300100 	rsfeqs	f0, f0, f0
    2f04:	0000002c 	andeq	r0, r0, ip, lsr #32
    2f08:	000019d8 	ldrdeq	r1, [r0], -r8
    2f0c:	000019d0 	ldrdeq	r1, [r0], -r0
    2f10:	008f7010 	addeq	r7, pc, r0, lsl r0	; <UNPREDICTABLE>
    2f14:	00039000 	andeq	r9, r3, r0
    2f18:	00036300 	andeq	r6, r3, r0, lsl #6
    2f1c:	50010e00 	andpl	r0, r1, r0, lsl #28
    2f20:	00007602 	andeq	r7, r0, r2, lsl #12
    2f24:	008f840d 	addeq	r8, pc, sp, lsl #8
    2f28:	00039c00 	andeq	r9, r3, r0, lsl #24
    2f2c:	50010e00 	andpl	r0, r1, r0, lsl #28
    2f30:	00007602 	andeq	r7, r0, r2, lsl #12
    2f34:	0a591300 	beq	1647b3c <__bss_end__+0x163db04>
    2f38:	b6020000 	strlt	r0, [r2], -r0
    2f3c:	00006218 	andeq	r6, r0, r8, lsl r2
    2f40:	03900300 	orrseq	r0, r0, #0, 6
    2f44:	78140000 	ldmdavc	r4, {}	; <UNPREDICTABLE>
    2f48:	2bb60200 	blcs	fed83750 <__bss_end__+0xfed79718>
    2f4c:	00000062 	andeq	r0, r0, r2, rrx
    2f50:	03611500 	cmneq	r1, #0, 10
    2f54:	03610000 	cmneq	r1, #0, 0
    2f58:	c7020000 	strgt	r0, [r2, -r0]
    2f5c:	04c9150a 	strbeq	r1, [r9], #1290	; 0x50a
    2f60:	04c90000 	strbeq	r0, [r9], #0
    2f64:	b2020000 	andlt	r0, r2, #0, 0
    2f68:	05cd0006 	strbeq	r0, [sp, #6]
    2f6c:	00040000 	andeq	r0, r4, r0
    2f70:	0000110d 	andeq	r1, r0, sp, lsl #2
    2f74:	0adf0104 	beq	ff7c338c <__bss_end__+0xff7b9354>
    2f78:	b60c0000 	strlt	r0, [ip], -r0
    2f7c:	7c00000b 	stcvc	0, cr0, [r0], {11}
    2f80:	4400000a 	strmi	r0, [r0], #-10
    2f84:	f0000090 			; <UNDEFINED> instruction: 0xf0000090
    2f88:	c6000001 	strgt	r0, [r0], -r1
    2f8c:	02000020 	andeq	r0, r0, #32, 0
    2f90:	6e690504 	cdpvs	5, 6, cr0, cr9, cr4, {0}
    2f94:	04030074 	streq	r0, [r3], #-116	; 0xffffff8c
    2f98:	00016607 	andeq	r6, r1, r7, lsl #12
    2f9c:	002c0400 	eoreq	r0, ip, r0, lsl #8
    2fa0:	01030000 	mrseq	r0, (UNDEF: 3)
    2fa4:	00000a06 	andeq	r0, r0, r6, lsl #20
    2fa8:	05020300 	streq	r0, [r2, #-768]	; 0xfffffd00
    2fac:	000001b7 			; <UNDEFINED> instruction: 0x000001b7
    2fb0:	a2050403 	andge	r0, r5, #50331648	; 0x3000000
    2fb4:	03000001 	movweq	r0, #1
    2fb8:	019d0508 	orrseq	r0, sp, r8, lsl #10
    2fbc:	01030000 	mrseq	r0, (UNDEF: 3)
    2fc0:	00000808 	andeq	r0, r0, r8, lsl #16
    2fc4:	07020300 	streq	r0, [r2, -r0, lsl #6]
    2fc8:	00000034 	andeq	r0, r0, r4, lsr r0
    2fcc:	0003b905 	andeq	fp, r3, r5, lsl #18
    2fd0:	19340500 	ldmdbne	r4!, {r8, sl}
    2fd4:	0000006e 	andeq	r0, r0, lr, rrx
    2fd8:	61070403 	tstvs	r7, r3, lsl #8
    2fdc:	03000001 	movweq	r0, #1
    2fe0:	015c0708 	cmpeq	ip, r8, lsl #14
    2fe4:	01030000 	mrseq	r0, (UNDEF: 3)
    2fe8:	00001108 	andeq	r1, r0, r8, lsl #2
    2fec:	01070600 	tsteq	r7, r0, lsl #12
    2ff0:	00000054 	andeq	r0, r0, r4, asr r0
    2ff4:	c20e0c04 	andgt	r0, lr, #4, 24	; 0x400
    2ff8:	07000000 	streq	r0, [r0, -r0]
    2ffc:	0000039e 	muleq	r0, lr, r3
    3000:	02460700 	subeq	r0, r6, #0, 14
    3004:	07010000 	streq	r0, [r1, -r0]
    3008:	00000371 	andeq	r0, r0, r1, ror r3
    300c:	028f0704 	addeq	r0, pc, #4, 14	; 0x100000
    3010:	07050000 	streq	r0, [r5, -r0]
    3014:	0000029e 	muleq	r0, lr, r2
    3018:	02ad0706 	adceq	r0, sp, #1572864	; 0x180000
    301c:	07070000 	streq	r0, [r7, -r0]
    3020:	000002bc 			; <UNDEFINED> instruction: 0x000002bc
    3024:	02cb0703 	sbceq	r0, fp, #786432	; 0xc0000
    3028:	00020000 	andeq	r0, r2, r0
    302c:	000baa08 	andeq	sl, fp, r8, lsl #20
    3030:	06022c00 	streq	r2, [r2], -r0, lsl #24
    3034:	00015e08 	andeq	r5, r1, r8, lsl #28
    3038:	6f690900 	svcvs	0x00690900
    303c:	09090200 	stmdbeq	r9, {r9}
    3040:	00000033 	andeq	r0, r0, r3, lsr r0
    3044:	65690900 	strbvs	r0, [r9, #-2304]!	; 0xfffff700
    3048:	0a020072 	beq	83218 <__bss_end__+0x791e0>
    304c:	00003309 	andeq	r3, r0, r9, lsl #6
    3050:	69090400 	stmdbvs	r9, {sl}
    3054:	02007269 	andeq	r7, r0, #-1879048186	; 0x90000006
    3058:	00330911 	eorseq	r0, r3, r1, lsl r9
    305c:	09080000 	stmdbeq	r8, {}	; <UNPREDICTABLE>
    3060:	0072636c 	rsbseq	r6, r2, ip, ror #6
    3064:	33091302 	movwcc	r1, #37634	; 0x9302
    3068:	0c000000 	stceq	0, cr0, [r0], {-0}
    306c:	72636d09 	rsbvc	r6, r3, #576	; 0x240
    3070:	09140200 	ldmdbeq	r4, {r9}
    3074:	00000033 	andeq	r0, r0, r3, lsr r0
    3078:	736c0910 	cmnvc	ip, #16, 18	; 0x40000
    307c:	15020072 	strne	r0, [r2, #-114]	; 0xffffff8e
    3080:	00003309 	andeq	r3, r0, r9, lsl #6
    3084:	6d091400 	cfstrsvs	mvf1, [r9, #-0]
    3088:	02007273 	andeq	r7, r0, #805306375	; 0x30000007
    308c:	00330916 	eorseq	r0, r3, r6, lsl r9
    3090:	0a180000 	beq	603098 <__bss_end__+0x5f9060>
    3094:	00000c24 	andeq	r0, r0, r4, lsr #24
    3098:	33091702 	movwcc	r1, #38658	; 0x9702
    309c:	1c000000 	stcne	0, cr0, [r0], {-0}
    30a0:	000bfc0a 	andeq	pc, fp, sl, lsl #24
    30a4:	091b0200 	ldmdbeq	fp, {r9}
    30a8:	00000033 	andeq	r0, r0, r3, lsr r0
    30ac:	0b970a20 	bleq	fe5c5934 <__bss_end__+0xfe5bb8fc>
    30b0:	1d020000 	stcne	0, cr0, [r2, #-0]
    30b4:	00003309 	andeq	r3, r0, r9, lsl #6
    30b8:	e10a2400 	tst	sl, r0, lsl #8
    30bc:	0200000b 	andeq	r0, r0, #11, 0
    30c0:	0033091e 	eorseq	r0, r3, lr, lsl r9
    30c4:	00280000 	eoreq	r0, r8, r0
    30c8:	000be60b 	andeq	lr, fp, fp, lsl #12
    30cc:	09080100 	stmdbeq	r8, {r8}
    30d0:	00000174 	andeq	r0, r0, r4, ror r1
    30d4:	20215004 	eorcs	r5, r1, r4
    30d8:	0033040c 	eorseq	r0, r3, ip, lsl #8
    30dc:	6e0d0000 	cdpvs	0, 0, cr0, cr13, cr0, {0}
    30e0:	0b000001 	bleq	30ec <__code_start__-0x4f14>
    30e4:	00000c2c 	andeq	r0, r0, ip, lsr #24
    30e8:	8f232901 	svchi	0x00232901
    30ec:	40000001 	andmi	r0, r0, r1
    30f0:	0c202150 	stfeqs	f2, [r0], #-320	; 0xfffffec0
    30f4:	0000c204 	andeq	ip, r0, r4, lsl #4
    30f8:	01890d00 	orreq	r0, r9, r0, lsl #26
    30fc:	0f0e0000 	svceq	0x000e0000
    3100:	01000009 	tsteq	r0, r9
    3104:	91fc06cc 	mvnsls	r0, ip, asr #13
    3108:	00140000 	andseq	r0, r4, r0
    310c:	9c010000 	stcls	0, cr0, [r1], {-0}
    3110:	000001b4 			; <UNDEFINED> instruction: 0x000001b4
    3114:	0092040f 	addseq	r0, r2, pc, lsl #8
    3118:	0001b400 	andeq	fp, r1, r0, lsl #8
    311c:	d0100000 	andsle	r0, r0, r0
    3120:	0100000b 	tsteq	r0, fp
    3124:	002505b6 	strhteq	r0, [r5], -r6
    3128:	91dc0000 	bicsls	r0, ip, r0
    312c:	00200000 	eoreq	r0, r0, r0
    3130:	9c010000 	stcls	0, cr0, [r1], {-0}
    3134:	000001eb 	andeq	r0, r0, fp, ror #3
    3138:	0091e40f 	addseq	lr, r1, pc, lsl #8
    313c:	0005a000 	andeq	sl, r5, r0
    3140:	91ec1100 	mvnls	r1, r0, lsl #2
    3144:	05ac0000 	streq	r0, [ip, #0]!
    3148:	01120000 	tsteq	r2, r0
    314c:	640c0550 	strvs	r0, [ip], #-1360	; 0xfffffab0
    3150:	00202150 	eoreq	r2, r0, r0, asr r1
    3154:	0c0e1000 	stceq	0, cr1, [lr], {-0}
    3158:	b3010000 	movwlt	r0, #4096	; 0x1000
    315c:	00002505 	andeq	r2, r0, r5, lsl #10
    3160:	0091cc00 	addseq	ip, r1, r0, lsl #24
    3164:	00001000 	andeq	r1, r0, r0
    3168:	189c0100 	ldmne	ip, {r8}
    316c:	0f000002 	svceq	0x00000002
    3170:	000091d4 	ldrdeq	r9, [r0], -r4
    3174:	000005a0 	andeq	r0, r0, r0, lsr #11
    3178:	0091d80f 	addseq	sp, r1, pc, lsl #16
    317c:	00030900 	andeq	r0, r3, r0, lsl #18
    3180:	3a0e0000 	bcc	383188 <__bss_end__+0x379150>
    3184:	0100000c 	tsteq	r0, ip
    3188:	919c06ab 	orrsls	r0, ip, fp, lsr #13
    318c:	00300000 	eorseq	r0, r0, r0
    3190:	9c010000 	stcls	0, cr0, [r1], {-0}
    3194:	0000027c 	andeq	r0, r0, ip, ror r2
    3198:	01006313 	tsteq	r0, r3, lsl r3
    319c:	002c19ab 	eoreq	r1, ip, fp, lsr #19
    31a0:	1a180000 	bne	6031a8 <__bss_end__+0x5f9170>
    31a4:	1a140000 	bne	5031ac <__bss_end__+0x4f9174>
    31a8:	a80f0000 	stmdage	pc, {}	; <UNPREDICTABLE>
    31ac:	a0000091 	mulge	r0, r1, r0
    31b0:	0f000005 	svceq	0x00000005
    31b4:	000091ac 	andeq	r9, r0, ip, lsr #3
    31b8:	000002db 	ldrdeq	r0, [r0], -fp
    31bc:	0091c014 	addseq	ip, r1, r4, lsl r0
    31c0:	0005b800 	andeq	fp, r5, r0, lsl #16
    31c4:	00027200 	andeq	r7, r2, r0, lsl #4
    31c8:	50011200 	andpl	r1, r1, r0, lsl #4
    31cc:	50400c05 	subpl	r0, r0, r5, lsl #24
    31d0:	01122021 	tsteq	r2, r1, lsr #32
    31d4:	00740551 	rsbseq	r0, r4, r1, asr r5
    31d8:	001aff08 	andseq	pc, sl, r8, lsl #30
    31dc:	0091c40f 	addseq	ip, r1, pc, lsl #8
    31e0:	0005a000 	andeq	sl, r5, r0
    31e4:	f2100000 	vhadd.s16	d0, d0, d0
    31e8:	0100000b 	tsteq	r0, fp
    31ec:	002505a3 	eoreq	r0, r5, r3, lsr #11
    31f0:	916c0000 	cmnls	ip, r0
    31f4:	00300000 	eorseq	r0, r0, r0
    31f8:	9c010000 	stcls	0, cr0, [r1], {-0}
    31fc:	000002db 	ldrdeq	r0, [r0], -fp
    3200:	01006315 	tsteq	r0, r5, lsl r3
    3204:	002509a7 	eoreq	r0, r5, r7, lsr #19
    3208:	1a380000 	bne	e03210 <__bss_end__+0xdf91d8>
    320c:	1a360000 	bne	d83214 <__bss_end__+0xd791dc>
    3210:	740f0000 	strvc	r0, [pc], #-0	; 3218 <__code_start__-0x4de8>
    3214:	a0000091 	mulge	r0, r1, r0
    3218:	0f000005 	svceq	0x00000005
    321c:	00009178 	andeq	r9, r0, r8, ror r1
    3220:	00000309 	andeq	r0, r0, r9, lsl #6
    3224:	00918814 	addseq	r8, r1, r4, lsl r8
    3228:	0005ac00 	andeq	sl, r5, r0, lsl #24
    322c:	0002d100 	andeq	sp, r2, r0, lsl #2
    3230:	50011200 	andpl	r1, r1, r0, lsl #4
    3234:	50400c05 	subpl	r0, r0, r5, lsl #24
    3238:	0f002021 	svceq	0x00002021
    323c:	00009190 	muleq	r0, r0, r1
    3240:	000005a0 	andeq	r0, r0, r0, lsr #11
    3244:	0bbd1000 	bleq	fef4724c <__bss_end__+0xfef3d214>
    3248:	94010000 	strls	r0, [r1], #-0
    324c:	00002505 	andeq	r2, r0, r5, lsl #10
    3250:	00914c00 	addseq	r4, r1, r0, lsl #24
    3254:	00002000 	andeq	r2, r0, r0
    3258:	099c0100 	ldmibeq	ip, {r8}
    325c:	11000003 	tstne	r0, r3
    3260:	00009158 	andeq	r9, r0, r8, asr r1
    3264:	000005ac 	andeq	r0, r0, ip, lsr #11
    3268:	05500112 	ldrbeq	r0, [r0, #-274]	; 0xfffffeee
    326c:	2150640c 	cmpcs	r0, ip, lsl #8
    3270:	10000020 	andne	r0, r0, r0, lsr #32
    3274:	00000b9c 	muleq	r0, ip, fp
    3278:	25058b01 	strcs	r8, [r5, #-2817]	; 0xfffff4ff
    327c:	34000000 	strcc	r0, [r0], #-0
    3280:	18000091 	stmdane	r0, {r0, r4, r7}
    3284:	01000000 	mrseq	r0, (UNDEF: 0)
    3288:	0003379c 	muleq	r3, ip, r7
    328c:	91401100 	mrsls	r1, (UNDEF: 80)
    3290:	05ac0000 	streq	r0, [ip, #0]!
    3294:	01120000 	tsteq	r2, r0
    3298:	640c0550 	strvs	r0, [ip], #-1360	; 0xfffffab0
    329c:	00202150 	eoreq	r2, r0, r0, asr r1
    32a0:	092d0e00 	pusheq	{r9, sl, fp}
    32a4:	45010000 	strmi	r0, [r1, #-0]
    32a8:	00908406 	addseq	r8, r0, r6, lsl #8
    32ac:	0000b000 	andeq	fp, r0, r0
    32b0:	849c0100 	ldrhi	r0, [ip], #256	; 0x100
    32b4:	16000004 	strne	r0, [r0], -r4
    32b8:	00000b8e 	andeq	r0, r0, lr, lsl #23
    32bc:	620e7e01 	andvs	r7, lr, #1, 28
    32c0:	0e000000 	cdpeq	0, 0, cr0, cr0, cr0, {0}
    32c4:	90941401 	addsls	r1, r4, r1, lsl #8
    32c8:	05c40000 	strbeq	r0, [r4]
    32cc:	03730000 	cmneq	r3, #0, 0
    32d0:	01120000 	tsteq	r2, r0
    32d4:	123e0150 	eorsne	r0, lr, #20
    32d8:	32015101 	andcc	r5, r1, #1073741824	; 0x40000000
    32dc:	90a01400 	adcls	r1, r0, r0, lsl #8
    32e0:	05c40000 	strbeq	r0, [r4]
    32e4:	038b0000 	orreq	r0, fp, #0, 0
    32e8:	01120000 	tsteq	r2, r0
    32ec:	123f0150 	eorsne	r0, pc, #20
    32f0:	32015101 	andcc	r5, r1, #1073741824	; 0x40000000
    32f4:	90a40f00 	adcls	r0, r4, r0, lsl #30
    32f8:	05a00000 	streq	r0, [r0, #0]!
    32fc:	b0140000 	andslt	r0, r4, r0
    3300:	3d000090 	stccc	0, cr0, [r0, #-576]	; 0xfffffdc0
    3304:	b0000005 	andlt	r0, r0, r5
    3308:	12000003 	andne	r0, r0, #3, 0
    330c:	0c055001 	stceq	0, cr5, [r5], {1}
    3310:	20215004 	eorcs	r5, r1, r4
    3314:	01510112 	cmpeq	r1, r2, lsl r1
    3318:	b40f0031 	strlt	r0, [pc], #-49	; 3320 <__code_start__-0x4ce0>
    331c:	a0000090 	mulge	r0, r0, r0
    3320:	14000005 	strne	r0, [r0], #-5
    3324:	000090c4 	andeq	r9, r0, r4, asr #1
    3328:	000005b8 			; <UNDEFINED> instruction: 0x000005b8
    332c:	000003d2 	ldrdeq	r0, [r0], -r2
    3330:	02500112 	subseq	r0, r0, #-2147483644	; 0x80000004
    3334:	01120074 	tsteq	r2, r4, ror r0
    3338:	00300151 	eorseq	r0, r0, r1, asr r1
    333c:	0090d014 	addseq	sp, r0, r4, lsl r0
    3340:	0005b800 	andeq	fp, r5, r0, lsl #16
    3344:	0003ee00 	andeq	lr, r3, r0, lsl #28
    3348:	50011200 	andpl	r1, r1, r0, lsl #4
    334c:	50440c05 	subpl	r0, r4, r5, lsl #24
    3350:	01122021 	tsteq	r2, r1, lsr #32
    3354:	00300151 	eorseq	r0, r0, r1, asr r1
    3358:	0090dc14 	addseq	sp, r0, r4, lsl ip
    335c:	0005b800 	andeq	fp, r5, r0, lsl #16
    3360:	00040a00 	andeq	r0, r4, r0, lsl #20
    3364:	50011200 	andpl	r1, r1, r0, lsl #4
    3368:	504c0c05 	subpl	r0, ip, r5, lsl #24
    336c:	01122021 	tsteq	r2, r1, lsr #32
    3370:	00330151 	eorseq	r0, r3, r1, asr r1
    3374:	0090e814 	addseq	lr, r0, r4, lsl r8
    3378:	0005b800 	andeq	fp, r5, r0, lsl #16
    337c:	00042600 	andeq	r2, r4, r0, lsl #12
    3380:	50011200 	andpl	r1, r1, r0, lsl #4
    3384:	50500c05 	subspl	r0, r0, r5, lsl #24
    3388:	01122021 	tsteq	r2, r1, lsr #32
    338c:	00300151 	eorseq	r0, r0, r1, asr r1
    3390:	0090f414 	addseq	pc, r0, r4, lsl r4	; <UNPREDICTABLE>
    3394:	0005b800 	andeq	fp, r5, r0, lsl #16
    3398:	00044300 	andeq	r4, r4, r0, lsl #6
    339c:	50011200 	andpl	r1, r1, r0, lsl #4
    33a0:	50480c05 	subpl	r0, r8, r5, lsl #24
    33a4:	01122021 	tsteq	r2, r1, lsr #32
    33a8:	c7080251 	smlsdgt	r8, r1, r2, r0
    33ac:	91001400 	tstls	r0, r0, lsl #8
    33b0:	05b80000 	ldreq	r0, [r8, #0]!
    33b4:	04610000 	strbteq	r0, [r1], #-0
    33b8:	01120000 	tsteq	r2, r0
    33bc:	680c0550 	stmdavs	ip, {r4, r6, r8, sl}
    33c0:	12202150 	eorne	r2, r0, #20
    33c4:	0a035101 	beq	d77d0 <__bss_end__+0xcd798>
    33c8:	1400010e 	strne	r0, [r0], #-270	; 0xfffffef2
    33cc:	0000910c 	andeq	r9, r0, ip, lsl #2
    33d0:	000005b8 			; <UNDEFINED> instruction: 0x000005b8
    33d4:	0000047a 	andeq	r0, r0, sl, ror r4
    33d8:	02500112 	subseq	r0, r0, #-2147483644	; 0x80000004
    33dc:	01120074 	tsteq	r2, r4, ror r0
    33e0:	00330151 	eorseq	r0, r3, r1, asr r1
    33e4:	0091100f 	addseq	r1, r1, pc
    33e8:	0005a000 	andeq	sl, r5, r0
    33ec:	010e0000 	mrseq	r0, (UNDEF: 14)
    33f0:	0100000c 	tsteq	r0, ip
    33f4:	92100635 	andsls	r0, r0, #55574528	; 0x3500000
    33f8:	00240000 	eoreq	r0, r4, r0
    33fc:	9c010000 	stcls	0, cr0, [r1], {-0}
    3400:	000004d3 	ldrdeq	r0, [r0], -r3
    3404:	0092180f 	addseq	r1, r2, pc, lsl #16
    3408:	00019400 	andeq	r9, r1, r0, lsl #8
    340c:	921c0f00 	andsls	r0, ip, #0, 30
    3410:	05a00000 	streq	r0, [r0, #0]!
    3414:	28140000 	ldmdacs	r4, {}	; <UNPREDICTABLE>
    3418:	d3000092 	movwle	r0, #146	; 0x92
    341c:	c9000004 	stmdbgt	r0, {r2}
    3420:	12000004 	andne	r0, r0, #4, 0
    3424:	0c055001 	stceq	0, cr5, [r5], {1}
    3428:	20215004 	eorcs	r5, r1, r4
    342c:	02510112 	subseq	r0, r1, #-2147483644	; 0x80000004
    3430:	0f00fe09 	svceq	0x0000fe09
    3434:	0000922c 	andeq	r9, r0, ip, lsr #4
    3438:	000005a0 	andeq	r0, r0, r0, lsr #11
    343c:	0c311700 	ldceq	7, cr1, [r1], #-0
    3440:	31010000 	mrscc	r0, (UNDEF: 1)
    3444:	0090440d 	addseq	r4, r0, sp, lsl #8
    3448:	00002000 	andeq	r2, r0, r0
    344c:	369c0100 	ldrcc	r0, [ip], r0, lsl #2
    3450:	18000005 	stmdane	r0, {r0, r2}
    3454:	00000bcb 	andeq	r0, r0, fp, asr #23
    3458:	36253101 	strtcc	r3, [r5], -r1, lsl #2
    345c:	4f000005 	svcmi	0x00000005
    3460:	4b00001a 	blmi	34d0 <__code_start__-0x4b30>
    3464:	1300001a 	movwne	r0, #26
    3468:	006c6176 	rsbeq	r6, ip, r6, ror r1
    346c:	2c343101 	ldfcss	f3, [r4], #-4
    3470:	71000000 	mrsvc	r0, (UNDEF: 0)
    3474:	6d00001a 	stcvs	0, cr0, [r0, #-104]	; 0xffffff98
    3478:	1400001a 	strne	r0, [r0], #-26	; 0xffffffe6
    347c:	00009054 	andeq	r9, r0, r4, asr r0
    3480:	000005ac 	andeq	r0, r0, ip, lsr #11
    3484:	00000525 	andeq	r0, r0, r5, lsr #10
    3488:	02500112 	subseq	r0, r0, #-2147483644	; 0x80000004
    348c:	11000074 	tstne	r0, r4, ror r0
    3490:	00009060 	andeq	r9, r0, r0, rrx
    3494:	000005b8 			; <UNDEFINED> instruction: 0x000005b8
    3498:	02500112 	subseq	r0, r0, #-2147483644	; 0x80000004
    349c:	00000074 	andeq	r0, r0, r4, ror r0
    34a0:	053c040c 	ldreq	r0, [ip, #-1036]!	; 0xfffffbf4
    34a4:	17190000 	ldrne	r0, [r9, -r0]
    34a8:	00000c1c 	andeq	r0, r0, ip, lsl ip
    34ac:	640d2e01 	strvs	r2, [sp], #-3585	; 0xfffff1ff
    34b0:	20000090 	mulcs	r0, r0, r0
    34b4:	01000000 	mrseq	r0, (UNDEF: 0)
    34b8:	0005a09c 	muleq	r5, ip, r0
    34bc:	0bcb1800 	bleq	ff2c94c4 <__bss_end__+0xff2bf48c>
    34c0:	2e010000 	cdpcs	0, 0, cr0, cr1, cr0, {0}
    34c4:	00053624 	andeq	r3, r5, r4, lsr #12
    34c8:	001a9300 	andseq	r9, sl, r0, lsl #6
    34cc:	001a8f00 	andseq	r8, sl, r0, lsl #30
    34d0:	61761300 	cmnvs	r6, r0, lsl #6
    34d4:	2e01006c 	cdpcs	0, 0, cr0, cr1, cr12, {3}
    34d8:	00002c33 	andeq	r2, r0, r3, lsr ip
    34dc:	001ab500 	andseq	fp, sl, r0, lsl #10
    34e0:	001ab100 	andseq	fp, sl, r0, lsl #2
    34e4:	90741400 	rsbsls	r1, r4, r0, lsl #8
    34e8:	05ac0000 	streq	r0, [ip, #0]!
    34ec:	058f0000 	streq	r0, [pc]	; 34f4 <__code_start__-0x4b0c>
    34f0:	01120000 	tsteq	r2, r0
    34f4:	00740250 	rsbseq	r0, r4, r0, asr r2
    34f8:	90801100 	addls	r1, r0, r0, lsl #2
    34fc:	05b80000 	ldreq	r0, [r8, #0]!
    3500:	01120000 	tsteq	r2, r0
    3504:	00740250 	rsbseq	r0, r4, r0, asr r2
    3508:	651a0000 	ldrvs	r0, [sl, #-0]
    350c:	65000004 	strvs	r0, [r0, #-4]
    3510:	03000004 	movweq	r0, #4
    3514:	441a06a1 	ldrmi	r0, [sl], #-1697	; 0xfffff95f
    3518:	4400000c 	strmi	r0, [r0], #-12
    351c:	0300000c 	movweq	r0, #12
    3520:	881a0bc8 	ldmdahi	sl, {r3, r6, r7, r8, r9, fp}
    3524:	8800000b 	stmdahi	r0, {r0, r1, r3}
    3528:	0300000b 	movweq	r0, #11
    352c:	ac1a06b3 	ldcge	6, cr0, [sl], {179}	; 0xb3
    3530:	ac000004 	stcge	0, cr0, [r0], {4}
    3534:	04000004 	streq	r0, [r0], #-4
    3538:	49000619 	stmdbmi	r0, {r0, r3, r4, r9, sl}
    353c:	04000001 	streq	r0, [r0], #-1
    3540:	0012a500 	andseq	sl, r2, r0, lsl #10
    3544:	39010400 	stmdbcc	r1, {sl}
    3548:	0c000006 	stceq	0, cr0, [r0], {6}
    354c:	00000c68 	andeq	r0, r0, r8, ror #24
    3550:	0000070a 	andeq	r0, r0, sl, lsl #14
    3554:	00009234 	andeq	r9, r0, r4, lsr r2
    3558:	0000003c 	andeq	r0, r0, ip, lsr r0
    355c:	000022cf 	andeq	r2, r0, pc, asr #5
    3560:	69050402 	stmdbvs	r5, {r1, sl}
    3564:	0300746e 	movweq	r7, #1134	; 0x46e
    3568:	01660704 	cmneq	r6, r4, lsl #14
    356c:	01030000 	mrseq	r0, (UNDEF: 3)
    3570:	00000a06 	andeq	r0, r0, r6, lsl #20
    3574:	05020300 	streq	r0, [r2, #-768]	; 0xfffffd00
    3578:	000001b7 			; <UNDEFINED> instruction: 0x000001b7
    357c:	a2050403 	andge	r0, r5, #50331648	; 0x3000000
    3580:	03000001 	movweq	r0, #1
    3584:	019d0508 	orrseq	r0, sp, r8, lsl #10
    3588:	01030000 	mrseq	r0, (UNDEF: 3)
    358c:	00000808 	andeq	r0, r0, r8, lsl #16
    3590:	07020300 	streq	r0, [r2, -r0, lsl #6]
    3594:	00000034 	andeq	r0, r0, r4, lsr r0
    3598:	61070403 	tstvs	r7, r3, lsl #8
    359c:	03000001 	movweq	r0, #1
    35a0:	015c0708 	cmpeq	ip, r8, lsl #14
    35a4:	25040000 	strcs	r0, [r4, #-0]
    35a8:	7a000000 	bvc	35b0 <__code_start__-0x4a50>
    35ac:	05000000 	streq	r0, [r0, #-0]
    35b0:	00000025 	andeq	r0, r0, r5, lsr #32
    35b4:	01ab0600 			; <UNDEFINED> instruction: 0x01ab0600
    35b8:	1c020000 	stcne	0, cr0, [r2], {-0}
    35bc:	0000860e 	andeq	r8, r0, lr, lsl #12
    35c0:	6b040700 	blvs	1051c8 <__bss_end__+0xfb190>
    35c4:	04000000 	streq	r0, [r0], #-0
    35c8:	00000025 	andeq	r0, r0, r5, lsr #32
    35cc:	0000009b 	muleq	r0, fp, r0
    35d0:	00009b05 	andeq	r9, r0, r5, lsl #22
    35d4:	04070000 	streq	r0, [r7], #-0
    35d8:	000000a8 	andeq	r0, r0, r8, lsr #1
    35dc:	11080103 	tstne	r8, r3, lsl #2
    35e0:	08000000 	stmdaeq	r0, {}	; <UNPREDICTABLE>
    35e4:	000000a1 	andeq	r0, r0, r1, lsr #1
    35e8:	0007a706 	andeq	sl, r7, r6, lsl #14
    35ec:	0e210200 	cdpeq	2, 2, cr0, cr1, cr0, {0}
    35f0:	000000b9 	strheq	r0, [r0], -r9
    35f4:	008c0407 	addeq	r0, ip, r7, lsl #8
    35f8:	7a090000 	bvc	243600 <__bss_end__+0x2395c8>
    35fc:	01000000 	mrseq	r0, (UNDEF: 0)
    3600:	03050706 	movweq	r0, #22278	; 0x5706
    3604:	00009c34 	andeq	r9, r0, r4, lsr ip
    3608:	000c5b0a 	andeq	r5, ip, sl, lsl #22
    360c:	060b0100 	streq	r0, [fp], -r0, lsl #2
    3610:	00009260 	andeq	r9, r0, r0, ror #4
    3614:	00000010 	andeq	r0, r0, r0, lsl r0
    3618:	00f19c01 	rscseq	r9, r1, r1, lsl #24
    361c:	660b0000 	strvs	r0, [fp], -r0
    3620:	0b010070 	bleq	437e8 <__bss_end__+0x397b0>
    3624:	00008619 	andeq	r8, r0, r9, lsl r6
    3628:	00500100 	subseq	r0, r0, r0, lsl #2
    362c:	000c790c 	andeq	r7, ip, ip, lsl #18
    3630:	06080100 	streq	r0, [r8], -r0, lsl #2
    3634:	00009248 	andeq	r9, r0, r8, asr #4
    3638:	00000018 	andeq	r0, r0, r8, lsl r0
    363c:	4a0d9c01 	bmi	36a648 <__bss_end__+0x360610>
    3640:	0100000c 	tsteq	r0, ip
    3644:	00250c03 	eoreq	r0, r5, r3, lsl #24
    3648:	92340000 	eorsls	r0, r4, #0, 0
    364c:	00140000 	andseq	r0, r4, r0
    3650:	9c010000 	stcls	0, cr0, [r1], {-0}
    3654:	00000140 	andeq	r0, r0, r0, asr #2
    3658:	0100630e 	tsteq	r0, lr, lsl #6
    365c:	00252103 	eoreq	r2, r5, r3, lsl #2
    3660:	1ad70000 	bne	ff5c3668 <__bss_end__+0xff5b9630>
    3664:	1ad30000 	bne	ff4c366c <__bss_end__+0xff4b9634>
    3668:	400f0000 	andmi	r0, pc, r0
    366c:	40000092 	mulmi	r0, r2, r0
    3670:	10000001 	andne	r0, r0, r1
    3674:	74025001 	strvc	r5, [r2], #-1
    3678:	11000000 	mrsne	r0, (UNDEF: 0)
    367c:	00000c3a 	andeq	r0, r0, sl, lsr ip
    3680:	00000c3a 	andeq	r0, r0, sl, lsr ip
    3684:	00064202 	andeq	r4, r6, r2, lsl #4
    3688:	00000137 	andeq	r0, r0, r7, lsr r1
    368c:	13b40004 			; <UNDEFINED> instruction: 0x13b40004
    3690:	01040000 	mrseq	r0, (UNDEF: 4)
    3694:	00000639 	andeq	r0, r0, r9, lsr r6
    3698:	000c8d0c 	andeq	r8, ip, ip, lsl #26
    369c:	00070a00 	andeq	r0, r7, r0, lsl #20
    36a0:	00927000 	addseq	r7, r2, r0
    36a4:	00003400 	andeq	r3, r0, r0, lsl #8
    36a8:	00239000 	eoreq	r9, r3, r0
    36ac:	05040200 	streq	r0, [r4, #-512]	; 0xfffffe00
    36b0:	00746e69 	rsbseq	r6, r4, r9, ror #28
    36b4:	66070403 	strvs	r0, [r7], -r3, lsl #8
    36b8:	03000001 	movweq	r0, #1
    36bc:	000a0601 	andeq	r0, sl, r1, lsl #12
    36c0:	02030000 	andeq	r0, r3, #0, 0
    36c4:	0001b705 	andeq	fp, r1, r5, lsl #14
    36c8:	05040300 	streq	r0, [r4, #-768]	; 0xfffffd00
    36cc:	000001a2 	andeq	r0, r0, r2, lsr #3
    36d0:	9d050803 	stcls	8, cr0, [r5, #-12]
    36d4:	03000001 	movweq	r0, #1
    36d8:	00080801 	andeq	r0, r8, r1, lsl #16
    36dc:	02030000 	andeq	r0, r3, #0, 0
    36e0:	00003407 	andeq	r3, r0, r7, lsl #8
    36e4:	07040300 	streq	r0, [r4, -r0, lsl #6]
    36e8:	00000161 	andeq	r0, r0, r1, ror #2
    36ec:	5c070803 	stcpl	8, cr0, [r7], {3}
    36f0:	04000001 	streq	r0, [r0], #-1
    36f4:	00000025 	andeq	r0, r0, r5, lsr #32
    36f8:	0000007a 	andeq	r0, r0, sl, ror r0
    36fc:	00002505 	andeq	r2, r0, r5, lsl #10
    3700:	ab060000 	blge	183708 <__bss_end__+0x1796d0>
    3704:	02000001 	andeq	r0, r0, #1, 0
    3708:	00860e1c 	addeq	r0, r6, ip, lsl lr
    370c:	04070000 	streq	r0, [r7], #-0
    3710:	0000006b 	andeq	r0, r0, fp, rrx
    3714:	00002504 	andeq	r2, r0, r4, lsl #10
    3718:	00009b00 	andeq	r9, r0, r0, lsl #22
    371c:	009b0500 	addseq	r0, fp, r0, lsl #10
    3720:	07000000 	streq	r0, [r0, -r0]
    3724:	0000a804 	andeq	sl, r0, r4, lsl #16
    3728:	08010300 	stmdaeq	r1, {r8, r9}
    372c:	00000011 	andeq	r0, r0, r1, lsl r0
    3730:	0000a108 	andeq	sl, r0, r8, lsl #2
    3734:	07a70600 	streq	r0, [r7, r0, lsl #12]!
    3738:	21020000 	mrscs	r0, (UNDEF: 2)
    373c:	0000b90e 	andeq	fp, r0, lr, lsl #18
    3740:	8c040700 	stchi	7, cr0, [r4], {-0}
    3744:	09000000 	stmdbeq	r0, {}	; <UNPREDICTABLE>
    3748:	0000087e 	andeq	r0, r0, lr, ror r8
    374c:	34070401 	strcc	r0, [r7], #-1025	; 0xfffffbff
    3750:	70000001 	andvc	r0, r0, r1
    3754:	34000092 	strcc	r0, [r0], #-146	; 0xffffff6e
    3758:	01000000 	mrseq	r0, (UNDEF: 0)
    375c:	0001349c 	muleq	r1, ip, r4
    3760:	0c880a00 	vstmiaeq	r8, {s0-s-1}
    3764:	04010000 	streq	r0, [r1], #-0
    3768:	00013415 	andeq	r3, r1, r5, lsl r4
    376c:	0b500100 	bleq	1403b74 <__bss_end__+0x13f9b3c>
    3770:	00637273 	rsbeq	r7, r3, r3, ror r2
    3774:	9b270401 	blls	9c4780 <__bss_end__+0x9ba748>
    3778:	f9000000 			; <UNDEFINED> instruction: 0xf9000000
    377c:	f500001a 			; <UNDEFINED> instruction: 0xf500001a
    3780:	0c00001a 	stceq	0, cr0, [r0], {26}
    3784:	01003173 	tsteq	r0, r3, ror r1
    3788:	01340b05 	teqeq	r4, r5, lsl #22
    378c:	1b240000 	blne	903794 <__bss_end__+0x8f975c>
    3790:	1b1a0000 	blne	683798 <__bss_end__+0x679760>
    3794:	730c0000 	movwvc	r0, #49152	; 0xc000
    3798:	06010032 			; <UNDEFINED> instruction: 0x06010032
    379c:	00009b11 	andeq	r9, r0, r1, lsl fp
    37a0:	001b6900 	andseq	r6, fp, r0, lsl #18
    37a4:	001b6500 	andseq	r6, fp, r0, lsl #10
    37a8:	00630c00 	rsbeq	r0, r3, r0, lsl #24
    37ac:	a10a0701 	tstge	sl, r1, lsl #14
    37b0:	8d000000 	stchi	0, cr0, [r0, #-0]
    37b4:	8900001b 	stmdbhi	r0, {r0, r1, r3, r4}
    37b8:	0000001b 	andeq	r0, r0, fp, lsl r0
    37bc:	00a10407 	adceq	r0, r1, r7, lsl #8
    37c0:	f7000000 			; <UNDEFINED> instruction: 0xf7000000
    37c4:	04000000 	streq	r0, [r0], #-0
    37c8:	00146a00 	andseq	r6, r4, r0, lsl #20
    37cc:	39010400 	stmdbcc	r1, {sl}
    37d0:	0c000006 	stceq	0, cr0, [r0], {6}
    37d4:	00000c9d 	muleq	r0, sp, ip
    37d8:	0000070a 	andeq	r0, r0, sl, lsl #14
    37dc:	000092a4 	andeq	r9, r0, r4, lsr #5
    37e0:	0000002c 	andeq	r0, r0, ip, lsr #32
    37e4:	0000249d 	muleq	r0, sp, r4
    37e8:	69050402 	stmdbvs	r5, {r1, sl}
    37ec:	0300746e 	movweq	r7, #1134	; 0x46e
    37f0:	01660704 	cmneq	r6, r4, lsl #14
    37f4:	01030000 	mrseq	r0, (UNDEF: 3)
    37f8:	00000a06 	andeq	r0, r0, r6, lsl #20
    37fc:	05020300 	streq	r0, [r2, #-768]	; 0xfffffd00
    3800:	000001b7 			; <UNDEFINED> instruction: 0x000001b7
    3804:	a2050403 	andge	r0, r5, #50331648	; 0x3000000
    3808:	03000001 	movweq	r0, #1
    380c:	019d0508 	orrseq	r0, sp, r8, lsl #10
    3810:	01030000 	mrseq	r0, (UNDEF: 3)
    3814:	00000808 	andeq	r0, r0, r8, lsl #16
    3818:	07020300 	streq	r0, [r2, -r0, lsl #6]
    381c:	00000034 	andeq	r0, r0, r4, lsr r0
    3820:	61070403 	tstvs	r7, r3, lsl #8
    3824:	03000001 	movweq	r0, #1
    3828:	015c0708 	cmpeq	ip, r8, lsl #14
    382c:	25040000 	strcs	r0, [r4, #-0]
    3830:	7a000000 	bvc	3838 <__code_start__-0x47c8>
    3834:	05000000 	streq	r0, [r0, #-0]
    3838:	00000025 	andeq	r0, r0, r5, lsr #32
    383c:	01ab0600 			; <UNDEFINED> instruction: 0x01ab0600
    3840:	1c020000 	stcne	0, cr0, [r2], {-0}
    3844:	0000860e 	andeq	r8, r0, lr, lsl #12
    3848:	6b040700 	blvs	105450 <__bss_end__+0xfb418>
    384c:	04000000 	streq	r0, [r0], #-0
    3850:	00000025 	andeq	r0, r0, r5, lsr #32
    3854:	0000009b 	muleq	r0, fp, r0
    3858:	00009b05 	andeq	r9, r0, r5, lsl #22
    385c:	04070000 	streq	r0, [r7], #-0
    3860:	000000a8 	andeq	r0, r0, r8, lsr #1
    3864:	11080103 	tstne	r8, r3, lsl #2
    3868:	08000000 	stmdaeq	r0, {}	; <UNPREDICTABLE>
    386c:	000000a1 	andeq	r0, r0, r1, lsr #1
    3870:	0007a706 	andeq	sl, r7, r6, lsl #14
    3874:	0e210200 	cdpeq	2, 2, cr0, cr1, cr0, {0}
    3878:	000000b9 	strheq	r0, [r0], -r9
    387c:	008c0407 	addeq	r0, ip, r7, lsl #8
    3880:	85090000 	strhi	r0, [r9, #-0]
    3884:	01000008 	tsteq	r0, r8
    3888:	00250503 	eoreq	r0, r5, r3, lsl #10
    388c:	92a40000 	adcls	r0, r4, #0, 0
    3890:	002c0000 	eoreq	r0, ip, r0
    3894:	9c010000 	stcls	0, cr0, [r1], {-0}
    3898:	0100610a 	tsteq	r0, sl, lsl #2
    389c:	009b1803 	addseq	r1, fp, r3, lsl #16
    38a0:	1baf0000 	blne	febc38a8 <__bss_end__+0xfebb9870>
    38a4:	1bab0000 	blne	feac38ac <__bss_end__+0xfeab9874>
    38a8:	620a0000 	andvs	r0, sl, #0, 0
    38ac:	27030100 	strcs	r0, [r3, -r0, lsl #2]
    38b0:	0000009b 	muleq	r0, fp, r0
    38b4:	00001bd1 	ldrdeq	r1, [r0], -r1	; <UNPREDICTABLE>
    38b8:	00001bcd 	andeq	r1, r0, sp, asr #23
    38bc:	010f0000 	mrseq	r0, CPSR
    38c0:	00040000 	andeq	r0, r4, r0
    38c4:	000014f9 	strdeq	r1, [r0], -r9
    38c8:	06390104 	ldrteq	r0, [r9], -r4, lsl #2
    38cc:	ad0c0000 	stcge	0, cr0, [ip, #-0]
    38d0:	0a00000c 	beq	3908 <__code_start__-0x46f8>
    38d4:	d0000007 	andle	r0, r0, r7
    38d8:	20000092 	mulcs	r0, r2, r0
    38dc:	63000000 	movwvs	r0, #0
    38e0:	02000025 	andeq	r0, r0, #37, 0	; 0x25
    38e4:	6e690504 	cdpvs	5, 6, cr0, cr9, cr4, {0}
    38e8:	04030074 	streq	r0, [r3], #-116	; 0xffffff8c
    38ec:	00016607 	andeq	r6, r1, r7, lsl #12
    38f0:	06010300 	streq	r0, [r1], -r0, lsl #6
    38f4:	0000000a 	andeq	r0, r0, sl
    38f8:	b7050203 	strlt	r0, [r5, -r3, lsl #4]
    38fc:	03000001 	movweq	r0, #1
    3900:	01a20504 			; <UNDEFINED> instruction: 0x01a20504
    3904:	08030000 	stmdaeq	r3, {}	; <UNPREDICTABLE>
    3908:	00019d05 	andeq	r9, r1, r5, lsl #26
    390c:	08010300 	stmdaeq	r1, {r8, r9}
    3910:	00000008 	andeq	r0, r0, r8
    3914:	34070203 	strcc	r0, [r7], #-515	; 0xfffffdfd
    3918:	03000000 	movweq	r0, #0
    391c:	01610704 	cmneq	r1, r4, lsl #14
    3920:	08030000 	stmdaeq	r3, {}	; <UNPREDICTABLE>
    3924:	00015c07 	andeq	r5, r1, r7, lsl #24
    3928:	00250400 	eoreq	r0, r5, r0, lsl #8
    392c:	007a0000 	rsbseq	r0, sl, r0
    3930:	25050000 	strcs	r0, [r5, #-0]
    3934:	00000000 	andeq	r0, r0, r0
    3938:	0001ab06 	andeq	sl, r1, r6, lsl #22
    393c:	0e1c0200 	cdpeq	2, 1, cr0, cr12, cr0, {0}
    3940:	00000086 	andeq	r0, r0, r6, lsl #1
    3944:	006b0407 	rsbeq	r0, fp, r7, lsl #8
    3948:	25040000 	strcs	r0, [r4, #-0]
    394c:	9b000000 	blls	3954 <__code_start__-0x46ac>
    3950:	05000000 	streq	r0, [r0, #-0]
    3954:	0000009b 	muleq	r0, fp, r0
    3958:	a8040700 	stmdage	r4, {r8, r9, sl}
    395c:	03000000 	movweq	r0, #0
    3960:	00110801 	andseq	r0, r1, r1, lsl #16
    3964:	a1080000 	mrsge	r0, (UNDEF: 8)
    3968:	06000000 	streq	r0, [r0], -r0
    396c:	000007a7 	andeq	r0, r0, r7, lsr #15
    3970:	b90e2102 	stmdblt	lr, {r1, r8, sp}
    3974:	07000000 	streq	r0, [r0, -r0]
    3978:	00008c04 	andeq	r8, r0, r4, lsl #24
    397c:	084a0900 	stmdaeq	sl, {r8, fp}^
    3980:	03010000 	movweq	r0, #4096	; 0x1000
    3984:	00010c07 	andeq	r0, r1, r7, lsl #24
    3988:	0092d000 	addseq	sp, r2, r0
    398c:	00002000 	andeq	r2, r0, r0
    3990:	0c9c0100 	ldfeqs	f0, [ip], {0}
    3994:	0a000001 	beq	39a0 <__code_start__-0x4660>
    3998:	01003173 	tsteq	r0, r3, ror r1
    399c:	010c1503 	tsteq	ip, r3, lsl #10
    39a0:	50010000 	andpl	r0, r1, r0
    39a4:	0032730b 	eorseq	r7, r2, fp, lsl #6
    39a8:	9b260301 	blls	9845b4 <__bss_end__+0x97a57c>
    39ac:	f5000000 			; <UNDEFINED> instruction: 0xf5000000
    39b0:	ef00001b 	svc	0x0000001b
    39b4:	0c00001b 	stceq	0, cr0, [r0], {27}
    39b8:	04010073 	streq	r0, [r1], #-115	; 0xffffff8d
    39bc:	00010c14 	andeq	r0, r1, r4, lsl ip
    39c0:	001c2600 	andseq	r2, ip, r0, lsl #12
    39c4:	001c2000 	andseq	r2, ip, r0
    39c8:	04070000 	streq	r0, [r7], #-0
    39cc:	000000a1 	andeq	r0, r0, r1, lsr #1
    39d0:	00014e00 	andeq	r4, r1, r0, lsl #28
    39d4:	af000400 	svcge	0x00000400
    39d8:	04000015 	streq	r0, [r0], #-21	; 0xffffffeb
    39dc:	00063901 	andeq	r3, r6, r1, lsl #18
    39e0:	0cbd0c00 	ldceq	12, cr0, [sp]
    39e4:	070a0000 	streq	r0, [sl, -r0]
    39e8:	01a00000 	moveq	r0, r0
    39ec:	00000000 	andeq	r0, r0, r0
    39f0:	26270000 	strtcs	r0, [r7], -r0
    39f4:	04020000 	streq	r0, [r2], #-0
    39f8:	746e6905 	strbtvc	r6, [lr], #-2309	; 0xfffff6fb
    39fc:	07030300 	streq	r0, [r3, -r0, lsl #6]
    3a00:	d1030000 	mrsle	r0, (UNDEF: 3)
    3a04:	00003817 	andeq	r3, r0, r7, lsl r8
    3a08:	07040400 	streq	r0, [r4, -r0, lsl #8]
    3a0c:	00000166 	andeq	r0, r0, r6, ror #2
    3a10:	0a060104 	beq	183e28 <__bss_end__+0x179df0>
    3a14:	04000000 	streq	r0, [r0], #-0
    3a18:	01b70502 			; <UNDEFINED> instruction: 0x01b70502
    3a1c:	04040000 	streq	r0, [r4], #-0
    3a20:	0001a205 	andeq	sl, r1, r5, lsl #4
    3a24:	05080400 	streq	r0, [r8, #-1024]	; 0xfffffc00
    3a28:	0000019d 	muleq	r0, sp, r1
    3a2c:	08080104 	stmdaeq	r8, {r2, r8}
    3a30:	05000000 	streq	r0, [r0, #-0]
    3a34:	0000005b 	andeq	r0, r0, fp, asr r0
    3a38:	34070204 	strcc	r0, [r7], #-516	; 0xfffffdfc
    3a3c:	04000000 	streq	r0, [r0], #-0
    3a40:	01610704 	cmneq	r1, r4, lsl #14
    3a44:	08040000 	stmdaeq	r4, {}	; <UNPREDICTABLE>
    3a48:	00015c07 	andeq	r5, r1, r7, lsl #24
    3a4c:	00250600 	eoreq	r0, r5, r0, lsl #12
    3a50:	008b0000 	addeq	r0, fp, r0
    3a54:	25070000 	strcs	r0, [r7, #-0]
    3a58:	00000000 	andeq	r0, r0, r0
    3a5c:	0001ab08 	andeq	sl, r1, r8, lsl #22
    3a60:	0e1c0200 	cdpeq	2, 1, cr0, cr12, cr0, {0}
    3a64:	00000097 	muleq	r0, r7, r0
    3a68:	007c0409 	rsbseq	r0, ip, r9, lsl #8
    3a6c:	25060000 	strcs	r0, [r6, #-0]
    3a70:	ac000000 	stcge	0, cr0, [r0], {-0}
    3a74:	07000000 	streq	r0, [r0, -r0]
    3a78:	000000ac 	andeq	r0, r0, ip, lsr #1
    3a7c:	b9040900 	stmdblt	r4, {r8, fp}
    3a80:	04000000 	streq	r0, [r0], #-0
    3a84:	00110801 	andseq	r0, r1, r1, lsl #16
    3a88:	b2050000 	andlt	r0, r5, #0, 0
    3a8c:	08000000 	stmdaeq	r0, {}	; <UNPREDICTABLE>
    3a90:	000007a7 	andeq	r0, r0, r7, lsr #15
    3a94:	ca0e2102 	bgt	38bea4 <__bss_end__+0x381e6c>
    3a98:	09000000 	stmdbeq	r0, {}	; <UNPREDICTABLE>
    3a9c:	00009d04 	andeq	r9, r0, r4, lsl #26
    3aa0:	08a80a00 	stmiaeq	r8!, {r9, fp}
    3aa4:	04010000 	streq	r0, [r1], #-0
    3aa8:	00002505 	andeq	r2, r0, r5, lsl #10
    3aac:	0092f000 	addseq	pc, r2, r0
    3ab0:	00002c00 	andeq	r2, r0, r0, lsl #24
    3ab4:	4b9c0100 	blmi	fe703ebc <__bss_end__+0xfe6f9e84>
    3ab8:	0b000001 	bleq	3ac4 <__code_start__-0x453c>
    3abc:	0031735f 	eorseq	r7, r1, pc, asr r3
    3ac0:	ac190401 	cfldrsge	mvf0, [r9], {1}
    3ac4:	55000000 	strpl	r0, [r0, #-0]
    3ac8:	5100001c 	tstpl	r0, ip, lsl r0
    3acc:	0b00001c 	bleq	3b44 <__code_start__-0x44bc>
    3ad0:	0032735f 	eorseq	r7, r2, pc, asr r3
    3ad4:	ac2a0401 	cfstrsge	mvf0, [sl], #-4
    3ad8:	7a000000 	bvc	3ae0 <__code_start__-0x4520>
    3adc:	7600001c 			; <UNDEFINED> instruction: 0x7600001c
    3ae0:	0b00001c 	bleq	3b58 <__code_start__-0x44a8>
    3ae4:	0401006e 	streq	r0, [r1], #-110	; 0xffffff92
    3ae8:	00002c36 	andeq	r2, r0, r6, lsr ip
    3aec:	001ca100 	andseq	sl, ip, r0, lsl #2
    3af0:	001c9b00 	andseq	r9, ip, r0, lsl #22
    3af4:	31730c00 	cmncc	r3, r0, lsl #24
    3af8:	1a050100 	bne	143f00 <__bss_end__+0x139ec8>
    3afc:	0000014b 	andeq	r0, r0, fp, asr #2
    3b00:	00001cd4 	ldrdeq	r1, [r0], -r4
    3b04:	00001ccc 	andeq	r1, r0, ip, asr #25
    3b08:	0032730c 	eorseq	r7, r2, ip, lsl #6
    3b0c:	4b2c0501 	blmi	b04f18 <__bss_end__+0xafaee0>
    3b10:	10000001 	andne	r0, r0, r1
    3b14:	0a00001d 	beq	3b90 <__code_start__-0x4470>
    3b18:	0000001d 	andeq	r0, r0, sp, lsl r0
    3b1c:	00620409 	rsbeq	r0, r2, r9, lsl #8
    3b20:	ce000000 	cdpgt	0, 0, cr0, cr0, cr0, {0}
    3b24:	04000000 	streq	r0, [r0], #-0
    3b28:	00166300 	andseq	r6, r6, r0, lsl #6
    3b2c:	39010400 	stmdbcc	r1, {sl}
    3b30:	0c000006 	stceq	0, cr0, [r0], {6}
    3b34:	00000cce 	andeq	r0, r0, lr, asr #25
    3b38:	0000070a 	andeq	r0, r0, sl, lsl #14
    3b3c:	0000931c 	andeq	r9, r0, ip, lsl r3
    3b40:	00000004 	andeq	r0, r0, r4
    3b44:	0000274b 	andeq	r2, r0, fp, asr #14
    3b48:	69050402 	stmdbvs	r5, {r1, sl}
    3b4c:	0300746e 	movweq	r7, #1134	; 0x46e
    3b50:	01660704 	cmneq	r6, r4, lsl #14
    3b54:	01030000 	mrseq	r0, (UNDEF: 3)
    3b58:	00000a06 	andeq	r0, r0, r6, lsl #20
    3b5c:	05020300 	streq	r0, [r2, #-768]	; 0xfffffd00
    3b60:	000001b7 			; <UNDEFINED> instruction: 0x000001b7
    3b64:	a2050403 	andge	r0, r5, #50331648	; 0x3000000
    3b68:	03000001 	movweq	r0, #1
    3b6c:	019d0508 	orrseq	r0, sp, r8, lsl #10
    3b70:	01030000 	mrseq	r0, (UNDEF: 3)
    3b74:	00000808 	andeq	r0, r0, r8, lsl #16
    3b78:	07020300 	streq	r0, [r2, -r0, lsl #6]
    3b7c:	00000034 	andeq	r0, r0, r4, lsr r0
    3b80:	61070403 	tstvs	r7, r3, lsl #8
    3b84:	03000001 	movweq	r0, #1
    3b88:	015c0708 	cmpeq	ip, r8, lsl #14
    3b8c:	25040000 	strcs	r0, [r4, #-0]
    3b90:	7a000000 	bvc	3b98 <__code_start__-0x4468>
    3b94:	05000000 	streq	r0, [r0, #-0]
    3b98:	00000025 	andeq	r0, r0, r5, lsr #32
    3b9c:	01ab0600 			; <UNDEFINED> instruction: 0x01ab0600
    3ba0:	1c020000 	stcne	0, cr0, [r2], {-0}
    3ba4:	0000860e 	andeq	r8, r0, lr, lsl #12
    3ba8:	6b040700 	blvs	1057b0 <__bss_end__+0xfb778>
    3bac:	04000000 	streq	r0, [r0], #-0
    3bb0:	00000025 	andeq	r0, r0, r5, lsr #32
    3bb4:	0000009b 	muleq	r0, fp, r0
    3bb8:	00009b05 	andeq	r9, r0, r5, lsl #22
    3bbc:	04070000 	streq	r0, [r7], #-0
    3bc0:	000000a8 	andeq	r0, r0, r8, lsr #1
    3bc4:	11080103 	tstne	r8, r3, lsl #2
    3bc8:	08000000 	stmdaeq	r0, {}	; <UNPREDICTABLE>
    3bcc:	000000a1 	andeq	r0, r0, r1, lsr #1
    3bd0:	0007a706 	andeq	sl, r7, r6, lsl #14
    3bd4:	0e210200 	cdpeq	2, 2, cr0, cr1, cr0, {0}
    3bd8:	000000b9 	strheq	r0, [r0], -r9
    3bdc:	008c0407 	addeq	r0, ip, r7, lsl #8
    3be0:	76090000 	strvc	r0, [r9], -r0
    3be4:	01000009 	tsteq	r0, r9
    3be8:	931c0603 	tstls	ip, #3145728	; 0x300000
    3bec:	00040000 	andeq	r0, r4, r0
    3bf0:	9c010000 	stcls	0, cr0, [r1], {-0}
	...

Disassembly of section .debug_abbrev:

00000000 <.debug_abbrev>:
       0:	25011101 	strcs	r1, [r1, #-257]	; 0xfffffeff
       4:	030b130e 	movweq	r1, #45838	; 0xb30e
       8:	110e1b0e 	tstne	lr, lr, lsl #22
       c:	10061201 	andne	r1, r6, r1, lsl #4
      10:	02000017 	andeq	r0, r0, #23, 0
      14:	0b0b0024 	bleq	2c00ac <__bss_end__+0x2b6074>
      18:	08030b3e 	stmdaeq	r3, {r1, r2, r3, r4, r5, r8, r9, fp}
      1c:	24030000 	strcs	r0, [r3], #-0
      20:	3e0b0b00 	vmlacc.f64	d0, d11, d0
      24:	000e030b 	andeq	r0, lr, fp, lsl #6
      28:	00160400 	andseq	r0, r6, r0, lsl #8
      2c:	0b3a0e03 	bleq	e83840 <__bss_end__+0xe79808>
      30:	0b390b3b 	bleq	e42d24 <__bss_end__+0xe38cec>
      34:	00001349 	andeq	r1, r0, r9, asr #6
      38:	27011505 	strcs	r1, [r1, -r5, lsl #10]
      3c:	01134919 	tsteq	r3, r9, lsl r9
      40:	06000013 			; <UNDEFINED> instruction: 0x06000013
      44:	13490005 	movtne	r0, #36869	; 0x9005
      48:	34070000 	strcc	r0, [r7], #-0
      4c:	3a0e0300 	bcc	380c54 <__bss_end__+0x376c1c>
      50:	390b3b0b 	stmdbcc	fp, {r0, r1, r3, r8, r9, fp, ip, sp}
      54:	3f13490b 	svccc	0x0013490b
      58:	00193c19 	andseq	r3, r9, r9, lsl ip
      5c:	000f0800 	andeq	r0, pc, r0, lsl #16
      60:	13490b0b 	movtne	r0, #39691	; 0x9b0b
      64:	26090000 	strcs	r0, [r9], -r0
      68:	00134900 	andseq	r4, r3, r0, lsl #18
      6c:	012e0a00 			; <UNDEFINED> instruction: 0x012e0a00
      70:	0e03193f 			; <UNDEFINED> instruction: 0x0e03193f
      74:	0b3b0b3a 	bleq	ec2d64 <__bss_end__+0xeb8d2c>
      78:	19270b39 	stmdbne	r7!, {r0, r3, r4, r5, r8, r9, fp}
      7c:	06120111 			; <UNDEFINED> instruction: 0x06120111
      80:	42971840 	addsmi	r1, r7, #64, 16	; 0x400000
      84:	00130119 	andseq	r0, r3, r9, lsl r1
      88:	00340b00 	eorseq	r0, r4, r0, lsl #22
      8c:	0b3a0e03 	bleq	e838a0 <__bss_end__+0xe79868>
      90:	0b390b3b 	bleq	e42d84 <__bss_end__+0xe38d4c>
      94:	18021349 	stmdane	r2, {r0, r3, r6, r8, r9, ip}
      98:	0b0c0000 	bleq	3000a0 <__bss_end__+0x2f6068>
      9c:	01175501 	tsteq	r7, r1, lsl #10
      a0:	0d000013 	stceq	0, cr0, [r0, #-76]	; 0xffffffb4
      a4:	08030034 	stmdaeq	r3, {r2, r4, r5}
      a8:	0b3b0b3a 	bleq	ec2d98 <__bss_end__+0xeb8d60>
      ac:	13490b39 	movtne	r0, #39737	; 0x9b39
      b0:	42b71702 	adcsmi	r1, r7, #524288	; 0x80000
      b4:	0e000017 	mcreq	0, 0, r0, cr0, cr7, {0}
      b8:	01018289 	smlabbeq	r1, r9, r2, r8
      bc:	13310111 	teqne	r1, #1073741828	; 0x40000004
      c0:	8a0f0000 	bhi	3c00c8 <__bss_end__+0x3b6090>
      c4:	02000182 	andeq	r0, r0, #-2147483616	; 0x80000020
      c8:	18429118 	stmdane	r2, {r3, r4, r8, ip, pc}^
      cc:	0b100000 	bleq	4000d4 <__bss_end__+0x3f609c>
      d0:	12011101 	andne	r1, r1, #1073741824	; 0x40000000
      d4:	00130106 	andseq	r0, r3, r6, lsl #2
      d8:	82891100 	addhi	r1, r9, #0
      dc:	01110001 	tsteq	r1, r1
      e0:	00001331 	andeq	r1, r0, r1, lsr r3
      e4:	01828912 	orreq	r8, r2, r2, lsl r9
      e8:	31011101 	tstcc	r1, r1, lsl #2
      ec:	00130113 	andseq	r0, r3, r3, lsl r1
      f0:	01011300 	mrseq	r1, SP_irq
      f4:	13011349 	movwne	r1, #4937	; 0x1349
      f8:	21140000 	tstcs	r4, r0
      fc:	2f134900 	svccs	0x00134900
     100:	1500000b 	strne	r0, [r0, #-11]
     104:	193f002e 	ldmdbne	pc!, {r1, r2, r3, r5}	; <UNPREDICTABLE>
     108:	0e6e193c 			; <UNDEFINED> instruction: 0x0e6e193c
     10c:	0b3a0e03 	bleq	e83920 <__bss_end__+0xe798e8>
     110:	0b390b3b 	bleq	e42e04 <__bss_end__+0xe38dcc>
     114:	2e160000 	cdpcs	0, 1, cr0, cr6, cr0, {0}
     118:	3c193f00 	ldccc	15, cr3, [r9], {-0}
     11c:	030e6e19 	movweq	r6, #60953	; 0xee19
     120:	3b0b3a0e 	blcc	2ce960 <__bss_end__+0x2c4928>
     124:	0000000b 	andeq	r0, r0, fp
     128:	25011101 	strcs	r1, [r1, #-257]	; 0xfffffeff
     12c:	030b130e 	movweq	r1, #45838	; 0xb30e
     130:	110e1b0e 	tstne	lr, lr, lsl #22
     134:	10061201 	andne	r1, r6, r1, lsl #4
     138:	02000017 	andeq	r0, r0, #23, 0
     13c:	0b0b0024 	bleq	2c01d4 <__bss_end__+0x2b619c>
     140:	08030b3e 	stmdaeq	r3, {r1, r2, r3, r4, r5, r8, r9, fp}
     144:	24030000 	strcs	r0, [r3], #-0
     148:	3e0b0b00 	vmlacc.f64	d0, d11, d0
     14c:	000e030b 	andeq	r0, lr, fp, lsl #6
     150:	00160400 	andseq	r0, r6, r0, lsl #8
     154:	0b3a0e03 	bleq	e83968 <__bss_end__+0xe79930>
     158:	0b390b3b 	bleq	e42e4c <__bss_end__+0xe38e14>
     15c:	00001349 	andeq	r1, r0, r9, asr #6
     160:	27011505 	strcs	r1, [r1, -r5, lsl #10]
     164:	01134919 	tsteq	r3, r9, lsl r9
     168:	06000013 			; <UNDEFINED> instruction: 0x06000013
     16c:	13490005 	movtne	r0, #36869	; 0x9005
     170:	34070000 	strcc	r0, [r7], #-0
     174:	3a0e0300 	bcc	380d7c <__bss_end__+0x376d44>
     178:	390b3b0b 	stmdbcc	fp, {r0, r1, r3, r8, r9, fp, ip, sp}
     17c:	3f13490b 	svccc	0x0013490b
     180:	00193c19 	andseq	r3, r9, r9, lsl ip
     184:	000f0800 	andeq	r0, pc, r0, lsl #16
     188:	13490b0b 	movtne	r0, #39691	; 0x9b0b
     18c:	26090000 	strcs	r0, [r9], -r0
     190:	00134900 	andseq	r4, r3, r0, lsl #18
     194:	01040a00 	tsteq	r4, r0, lsl #20
     198:	0b0b0b3e 	bleq	2c2e98 <__bss_end__+0x2b8e60>
     19c:	0b3a1349 	bleq	e84ec8 <__bss_end__+0xe7ae90>
     1a0:	0b390b3b 	bleq	e42e94 <__bss_end__+0xe38e5c>
     1a4:	00001301 	andeq	r1, r0, r1, lsl #6
     1a8:	0300280b 	movweq	r2, #2059	; 0x80b
     1ac:	000b1c0e 	andeq	r1, fp, lr, lsl #24
     1b0:	01130c00 	tsteq	r3, r0, lsl #24
     1b4:	0b3a0b0b 	bleq	e82de8 <__bss_end__+0xe78db0>
     1b8:	0b390b3b 	bleq	e42eac <__bss_end__+0xe38e74>
     1bc:	00001301 	andeq	r1, r0, r1, lsl #6
     1c0:	03000d0d 	movweq	r0, #3341	; 0xd0d
     1c4:	3b0b3a08 	blcc	2ce9ec <__bss_end__+0x2c49b4>
     1c8:	490b390b 	stmdbmi	fp, {r0, r1, r3, r8, fp, ip, sp}
     1cc:	000b3813 	andeq	r3, fp, r3, lsl r8
     1d0:	000d0e00 	andeq	r0, sp, r0, lsl #28
     1d4:	0b3a0e03 	bleq	e839e8 <__bss_end__+0xe799b0>
     1d8:	0b390b3b 	bleq	e42ecc <__bss_end__+0xe38e94>
     1dc:	0b381349 	bleq	e04f08 <__bss_end__+0xdfaed0>
     1e0:	350f0000 	strcc	r0, [pc, #-0]	; 1e8 <__code_start__-0x7e18>
     1e4:	00134900 	andseq	r4, r3, r0, lsl #18
     1e8:	01011000 	mrseq	r1, (UNDEF: 1)
     1ec:	13011349 	movwne	r1, #4937	; 0x1349
     1f0:	21110000 	tstcs	r1, r0
     1f4:	2f134900 	svccs	0x00134900
     1f8:	1200000b 	andne	r0, r0, #11, 0
     1fc:	0e030034 	mcreq	0, 0, r0, cr3, cr4, {1}
     200:	0b3b0b3a 	bleq	ec2ef0 <__bss_end__+0xeb8eb8>
     204:	13490b39 	movtne	r0, #39737	; 0x9b39
     208:	1802193f 	stmdane	r2, {r0, r1, r2, r3, r4, r5, r8, fp, ip}
     20c:	28130000 	ldmdacs	r3, {}	; <UNPREDICTABLE>
     210:	1c0e0300 	stcne	3, cr0, [lr], {-0}
     214:	14000006 	strne	r0, [r0], #-6
     218:	193f012e 	ldmdbne	pc!, {r1, r2, r3, r5, r8}	; <UNPREDICTABLE>
     21c:	0b3a0e03 	bleq	e83a30 <__bss_end__+0xe799f8>
     220:	0b390b3b 	bleq	e42f14 <__bss_end__+0xe38edc>
     224:	13491927 	movtne	r1, #39207	; 0x9927
     228:	06120111 			; <UNDEFINED> instruction: 0x06120111
     22c:	42971840 	addsmi	r1, r7, #64, 16	; 0x400000
     230:	00130119 	andseq	r0, r3, r9, lsl r1
     234:	00341500 	eorseq	r1, r4, r0, lsl #10
     238:	0b3a0803 	bleq	e8224c <__bss_end__+0xe78214>
     23c:	0b390b3b 	bleq	e42f30 <__bss_end__+0xe38ef8>
     240:	17021349 	strne	r1, [r2, -r9, asr #6]
     244:	001742b7 			; <UNDEFINED> instruction: 0x001742b7
     248:	82891600 	addhi	r1, r9, #0, 12
     24c:	01110001 	tsteq	r1, r1
     250:	00001331 	andeq	r1, r0, r1, lsr r3
     254:	01828917 	orreq	r8, r2, r7, lsl r9
     258:	31011101 	tstcc	r1, r1, lsl #2
     25c:	00130113 	andseq	r0, r3, r3, lsl r1
     260:	828a1800 	addhi	r1, sl, #0, 16
     264:	18020001 	stmdane	r2, {r0}
     268:	00184291 	mulseq	r8, r1, r2
     26c:	82891900 	addhi	r1, r9, #0, 18
     270:	01110101 	tsteq	r1, r1, lsl #2
     274:	31194295 			; <UNDEFINED> instruction: 0x31194295
     278:	1a000013 	bne	2cc <__code_start__-0x7d34>
     27c:	193f012e 	ldmdbne	pc!, {r1, r2, r3, r5, r8}	; <UNPREDICTABLE>
     280:	0b3a0e03 	bleq	e83a94 <__bss_end__+0xe79a5c>
     284:	0b390b3b 	bleq	e42f78 <__bss_end__+0xe38f40>
     288:	01111927 	tsteq	r1, r7, lsr #18
     28c:	18400612 	stmdane	r0, {r1, r4, r9, sl}^
     290:	01194297 			; <UNDEFINED> instruction: 0x01194297
     294:	1b000013 	blne	2e8 <__code_start__-0x7d18>
     298:	0e030034 	mcreq	0, 0, r0, cr3, cr4, {1}
     29c:	19341349 	ldmdbne	r4!, {r0, r3, r6, r8, r9, ip}
     2a0:	00001802 	andeq	r1, r0, r2, lsl #16
     2a4:	31011d1c 	tstcc	r1, ip, lsl sp
     2a8:	b8015213 	stmdalt	r1, {r0, r1, r4, r9, ip, lr}
     2ac:	17550542 	ldrbne	r0, [r5, -r2, asr #10]
     2b0:	0b590b58 	bleq	1643018 <__bss_end__+0x1638fe0>
     2b4:	13010b57 	movwne	r0, #6999	; 0x1b57
     2b8:	051d0000 	ldreq	r0, [sp, #-0]
     2bc:	02133100 	andseq	r3, r3, #0
     2c0:	1742b717 	smlaldne	fp, r2, r7, r7
     2c4:	1d1e0000 	ldcne	0, cr0, [lr, #-0]
     2c8:	52133101 	andspl	r3, r3, #1073741824	; 0x40000000
     2cc:	0542b801 	strbeq	fp, [r2, #-2049]	; 0xfffff7ff
     2d0:	06120111 			; <UNDEFINED> instruction: 0x06120111
     2d4:	0b590b58 	bleq	164303c <__bss_end__+0x1639004>
     2d8:	13010b57 	movwne	r0, #6999	; 0x1b57
     2dc:	0b1f0000 	bleq	7c02e4 <__bss_end__+0x7b62ac>
     2e0:	00175501 	andseq	r5, r7, r1, lsl #10
     2e4:	00342000 	eorseq	r2, r4, r0
     2e8:	17021331 	smladxne	r2, r1, r3, r1
     2ec:	001742b7 			; <UNDEFINED> instruction: 0x001742b7
     2f0:	000b2100 	andeq	r2, fp, r0, lsl #2
     2f4:	00001755 	andeq	r1, r0, r5, asr r7
     2f8:	31011d22 	tstcc	r1, r2, lsr #26
     2fc:	b8015213 	stmdalt	r1, {r0, r1, r4, r9, ip, lr}
     300:	01110542 	tsteq	r1, r2, asr #10
     304:	0b580612 	bleq	1601b54 <__bss_end__+0x15f7b1c>
     308:	0b570b59 	bleq	15c3074 <__bss_end__+0x15b903c>
     30c:	89230000 	stmdbhi	r3!, {}	; <UNPREDICTABLE>
     310:	11000182 	smlabbne	r0, r2, r1, r0
     314:	19429501 	stmdbne	r2, {r0, r8, sl, ip, pc}^
     318:	00001331 	andeq	r1, r0, r1, lsr r3
     31c:	3f012e24 	svccc	0x00012e24
     320:	3a0e0319 	bcc	380f8c <__bss_end__+0x376f54>
     324:	390b3b0b 	stmdbcc	fp, {r0, r1, r3, r8, r9, fp, ip, sp}
     328:	4919270b 	ldmdbmi	r9, {r0, r1, r3, r8, r9, sl, sp}
     32c:	010b2013 	tsteq	fp, r3, lsl r0
     330:	25000013 	strcs	r0, [r0, #-19]	; 0xffffffed
     334:	08030005 	stmdaeq	r3, {r0, r2}
     338:	0b3b0b3a 	bleq	ec3028 <__bss_end__+0xeb8ff0>
     33c:	13490b39 	movtne	r0, #39737	; 0x9b39
     340:	2e260000 	cdpcs	0, 2, cr0, cr6, cr0, {0}
     344:	3a0e0301 	bcc	380f50 <__bss_end__+0x376f18>
     348:	390b3b0b 	stmdbcc	fp, {r0, r1, r3, r8, r9, fp, ip, sp}
     34c:	4919270b 	ldmdbmi	r9, {r0, r1, r3, r8, r9, sl, sp}
     350:	010b2013 	tsteq	fp, r3, lsl r0
     354:	27000013 	smladcs	r0, r3, r0, r0
     358:	08030034 	stmdaeq	r3, {r2, r4, r5}
     35c:	0b3b0b3a 	bleq	ec304c <__bss_end__+0xeb9014>
     360:	13490b39 	movtne	r0, #39737	; 0x9b39
     364:	34280000 	strtcc	r0, [r8], #-0
     368:	490e0300 	stmdbmi	lr, {r8, r9}
     36c:	00193413 	andseq	r3, r9, r3, lsl r4
     370:	00342900 	eorseq	r2, r4, r0, lsl #18
     374:	0b3a0e03 	bleq	e83b88 <__bss_end__+0xe79b50>
     378:	0b390b3b 	bleq	e4306c <__bss_end__+0xe39034>
     37c:	00001349 	andeq	r1, r0, r9, asr #6
     380:	0300052a 	movweq	r0, #1322	; 0x52a
     384:	3b0b3a0e 	blcc	2cebc4 <__bss_end__+0x2c4b8c>
     388:	490b390b 	stmdbmi	fp, {r0, r1, r3, r8, fp, ip, sp}
     38c:	2b000013 	blcs	3e0 <__code_start__-0x7c20>
     390:	0e030034 	mcreq	0, 0, r0, cr3, cr4, {1}
     394:	19341349 	ldmdbne	r4!, {r0, r3, r6, r8, r9, ip}
     398:	00000e1c 	andeq	r0, r0, ip, lsl lr
     39c:	31012e2c 	tstcc	r1, ip, lsr #28
     3a0:	12011113 	andne	r1, r1, #-1073741820	; 0xc0000004
     3a4:	97184006 	ldrls	r4, [r8, -r6]
     3a8:	13011942 	movwne	r1, #6466	; 0x1942
     3ac:	342d0000 	strtcc	r0, [sp], #-0
     3b0:	00133100 	andseq	r3, r3, r0, lsl #2
     3b4:	002e2e00 	eoreq	r2, lr, r0, lsl #28
     3b8:	193c193f 	ldmdbne	ip!, {r0, r1, r2, r3, r4, r5, r8, fp, ip}
     3bc:	0e030e6e 	cdpeq	14, 0, cr0, cr3, cr14, {3}
     3c0:	0b3b0b3a 	bleq	ec30b0 <__bss_end__+0xeb9078>
     3c4:	00000b39 	andeq	r0, r0, r9, lsr fp
     3c8:	01110100 	tsteq	r1, r0, lsl #2
     3cc:	0b130e25 	bleq	4c3c68 <__bss_end__+0x4b9c30>
     3d0:	0e1b0e03 	cdpeq	14, 1, cr0, cr11, cr3, {0}
     3d4:	06120111 			; <UNDEFINED> instruction: 0x06120111
     3d8:	00001710 	andeq	r1, r0, r0, lsl r7
     3dc:	0b002402 	bleq	93ec <__code_end__+0xcc>
     3e0:	030b3e0b 	movweq	r3, #48651	; 0xbe0b
     3e4:	03000008 	movweq	r0, #8
     3e8:	0b0b0024 	bleq	2c0480 <__bss_end__+0x2b6448>
     3ec:	0e030b3e 	vmoveq.16	d3[0], r0
     3f0:	16040000 	strne	r0, [r4], -r0
     3f4:	3a0e0300 	bcc	380ffc <__bss_end__+0x376fc4>
     3f8:	390b3b0b 	stmdbcc	fp, {r0, r1, r3, r8, r9, fp, ip, sp}
     3fc:	0013490b 	andseq	r4, r3, fp, lsl #18
     400:	01150500 	tsteq	r5, r0, lsl #10
     404:	13491927 	movtne	r1, #39207	; 0x9927
     408:	00001301 	andeq	r1, r0, r1, lsl #6
     40c:	49000506 	stmdbmi	r0, {r1, r2, r8, sl}
     410:	07000013 	smladeq	r0, r3, r0, r0
     414:	0e030034 	mcreq	0, 0, r0, cr3, cr4, {1}
     418:	0b3b0b3a 	bleq	ec3108 <__bss_end__+0xeb90d0>
     41c:	13490b39 	movtne	r0, #39737	; 0x9b39
     420:	193c193f 	ldmdbne	ip!, {r0, r1, r2, r3, r4, r5, r8, fp, ip}
     424:	0f080000 	svceq	0x00080000
     428:	490b0b00 	stmdbmi	fp, {r8, r9, fp}
     42c:	09000013 	stmdbeq	r0, {r0, r1, r4}
     430:	13490026 	movtne	r0, #36902	; 0x9026
     434:	010a0000 	mrseq	r0, (UNDEF: 10)
     438:	01134901 	tsteq	r3, r1, lsl #18
     43c:	0b000013 	bleq	490 <__code_start__-0x7b70>
     440:	13490021 	movtne	r0, #36897	; 0x9021
     444:	0000052f 	andeq	r0, r0, pc, lsr #10
     448:	0300340c 	movweq	r3, #1036	; 0x40c
     44c:	3b0b3a0e 	blcc	2cec8c <__bss_end__+0x2c4c54>
     450:	490b390b 	stmdbmi	fp, {r0, r1, r3, r8, fp, ip, sp}
     454:	02193f13 	andseq	r3, r9, #76	; 0x4c
     458:	0d000018 	stceq	0, cr0, [r0, #-96]	; 0xffffffa0
     45c:	193f012e 	ldmdbne	pc!, {r1, r2, r3, r5, r8}	; <UNPREDICTABLE>
     460:	0b3a0e03 	bleq	e83c74 <__bss_end__+0xe79c3c>
     464:	0b390b3b 	bleq	e43158 <__bss_end__+0xe39120>
     468:	13491927 	movtne	r1, #39207	; 0x9927
     46c:	06120111 			; <UNDEFINED> instruction: 0x06120111
     470:	42971840 	addsmi	r1, r7, #64, 16	; 0x400000
     474:	00130119 	andseq	r0, r3, r9, lsl r1
     478:	00050e00 	andeq	r0, r5, r0, lsl #28
     47c:	0b3a0e03 	bleq	e83c90 <__bss_end__+0xe79c58>
     480:	0b390b3b 	bleq	e43174 <__bss_end__+0xe3913c>
     484:	17021349 	strne	r1, [r2, -r9, asr #6]
     488:	001742b7 			; <UNDEFINED> instruction: 0x001742b7
     48c:	00340f00 	eorseq	r0, r4, r0, lsl #30
     490:	13490e03 	movtne	r0, #40451	; 0x9e03
     494:	18021934 	stmdane	r2, {r2, r4, r5, r8, fp, ip}
     498:	34100000 	ldrcc	r0, [r0], #-0
     49c:	3a080300 	bcc	2010a4 <__bss_end__+0x1f706c>
     4a0:	390b3b0b 	stmdbcc	fp, {r0, r1, r3, r8, r9, fp, ip, sp}
     4a4:	0013490b 	andseq	r4, r3, fp, lsl #18
     4a8:	00341100 	eorseq	r1, r4, r0, lsl #2
     4ac:	0b3a0e03 	bleq	e83cc0 <__bss_end__+0xe79c88>
     4b0:	0b390b3b 	bleq	e431a4 <__bss_end__+0xe3916c>
     4b4:	00001349 	andeq	r1, r0, r9, asr #6
     4b8:	01010b12 	tsteq	r1, r2, lsl fp
     4bc:	13000013 	movwne	r0, #19
     4c0:	01018289 	smlabbeq	r1, r9, r2, r8
     4c4:	13310111 	teqne	r1, #1073741828	; 0x40000004
     4c8:	00001301 	andeq	r1, r0, r1, lsl #6
     4cc:	01828a14 	orreq	r8, r2, r4, lsl sl
     4d0:	91180200 	tstls	r8, r0, lsl #4
     4d4:	00001842 	andeq	r1, r0, r2, asr #16
     4d8:	01828915 	orreq	r8, r2, r5, lsl r9
     4dc:	31011100 	mrscc	r1, (UNDEF: 17)
     4e0:	16000013 			; <UNDEFINED> instruction: 0x16000013
     4e4:	13490021 	movtne	r0, #36897	; 0x9021
     4e8:	00000b2f 	andeq	r0, r0, pc, lsr #22
     4ec:	03003417 	movweq	r3, #1047	; 0x417
     4f0:	3b0b3a08 	blcc	2ced18 <__bss_end__+0x2c4ce0>
     4f4:	490b390b 	stmdbmi	fp, {r0, r1, r3, r8, fp, ip, sp}
     4f8:	b7170213 			; <UNDEFINED> instruction: 0xb7170213
     4fc:	00001742 	andeq	r1, r0, r2, asr #14
     500:	03003418 	movweq	r3, #1048	; 0x418
     504:	3b0b3a0e 	blcc	2ced44 <__bss_end__+0x2c4d0c>
     508:	490b390b 	stmdbmi	fp, {r0, r1, r3, r8, fp, ip, sp}
     50c:	b7170213 			; <UNDEFINED> instruction: 0xb7170213
     510:	00001742 	andeq	r1, r0, r2, asr #14
     514:	55010b19 	strpl	r0, [r1, #-2841]	; 0xfffff4e7
     518:	00130117 	andseq	r0, r3, r7, lsl r1
     51c:	010b1a00 	tsteq	fp, r0, lsl #20
     520:	06120111 			; <UNDEFINED> instruction: 0x06120111
     524:	0b1b0000 	bleq	6c052c <__bss_end__+0x6b64f4>
     528:	1c000001 	stcne	0, cr0, [r0], {1}
     52c:	1755010b 	ldrbne	r0, [r5, -fp, lsl #2]
     530:	1d1d0000 	ldcne	0, cr0, [sp, #-0]
     534:	52133101 	andspl	r3, r3, #1073741824	; 0x40000000
     538:	0b42b801 	bleq	10ae544 <__bss_end__+0x10a450c>
     53c:	06120111 			; <UNDEFINED> instruction: 0x06120111
     540:	0b590b58 	bleq	16432a8 <__bss_end__+0x1639270>
     544:	13010b57 	movwne	r0, #6999	; 0x1b57
     548:	051e0000 	ldreq	r0, [lr, #-0]
     54c:	00133100 	andseq	r3, r3, r0, lsl #2
     550:	00051f00 	andeq	r1, r5, r0, lsl #30
     554:	17021331 	smladxne	r2, r1, r3, r1
     558:	001742b7 			; <UNDEFINED> instruction: 0x001742b7
     55c:	00342000 	eorseq	r2, r4, r0
     560:	17021331 	smladxne	r2, r1, r3, r1
     564:	001742b7 			; <UNDEFINED> instruction: 0x001742b7
     568:	011d2100 	tsteq	sp, r0, lsl #2
     56c:	01521331 	cmpeq	r2, r1, lsr r3
     570:	110b42b8 			; <UNDEFINED> instruction: 0x110b42b8
     574:	58061201 	stmdapl	r6, {r0, r9, ip}
     578:	570b590b 	strpl	r5, [fp, -fp, lsl #18]
     57c:	2200000b 	andcs	r0, r0, #11, 0
     580:	1331011d 	teqne	r1, #1073741831	; 0x40000007
     584:	42b80152 	adcsmi	r0, r8, #-2147483628	; 0x80000014
     588:	5817550b 	ldmdapl	r7, {r0, r1, r3, r8, sl, ip, lr}
     58c:	570b590b 	strpl	r5, [fp, -fp, lsl #18]
     590:	0013010b 	andseq	r0, r3, fp, lsl #2
     594:	011d2300 	tsteq	sp, r0, lsl #6
     598:	01521331 	cmpeq	r2, r1, lsr r3
     59c:	550b42b8 	strpl	r4, [fp, #-696]	; 0xfffffd48
     5a0:	590b5817 	stmdbpl	fp, {r0, r1, r2, r4, fp, ip, lr}
     5a4:	000b570b 	andeq	r5, fp, fp, lsl #14
     5a8:	012e2400 			; <UNDEFINED> instruction: 0x012e2400
     5ac:	0e03193f 			; <UNDEFINED> instruction: 0x0e03193f
     5b0:	0b3b0b3a 	bleq	ec32a0 <__bss_end__+0xeb9268>
     5b4:	19270b39 	stmdbne	r7!, {r0, r3, r4, r5, r8, r9, fp}
     5b8:	0b201349 	bleq	8052e4 <__bss_end__+0x7fb2ac>
     5bc:	00001301 	andeq	r1, r0, r1, lsl #6
     5c0:	03000525 	movweq	r0, #1317	; 0x525
     5c4:	3b0b3a08 	blcc	2cedec <__bss_end__+0x2c4db4>
     5c8:	490b390b 	stmdbmi	fp, {r0, r1, r3, r8, fp, ip, sp}
     5cc:	26000013 			; <UNDEFINED> instruction: 0x26000013
     5d0:	193f002e 	ldmdbne	pc!, {r1, r2, r3, r5}	; <UNPREDICTABLE>
     5d4:	0e6e193c 			; <UNDEFINED> instruction: 0x0e6e193c
     5d8:	0b3a0e03 	bleq	e83dec <__bss_end__+0xe79db4>
     5dc:	0b390b3b 	bleq	e432d0 <__bss_end__+0xe39298>
     5e0:	2e270000 	cdpcs	0, 2, cr0, cr7, cr0, {0}
     5e4:	3c193f00 	ldccc	15, cr3, [r9], {-0}
     5e8:	03086e19 	movweq	r6, #36377	; 0x8e19
     5ec:	3b0b3a08 	blcc	2cee14 <__bss_end__+0x2c4ddc>
     5f0:	000b390b 	andeq	r3, fp, fp, lsl #18
     5f4:	11010000 	mrsne	r0, (UNDEF: 1)
     5f8:	130e2501 	movwne	r2, #58625	; 0xe501
     5fc:	1b0e030b 	blne	381230 <__bss_end__+0x3771f8>
     600:	1201110e 	andne	r1, r1, #-2147483645	; 0x80000003
     604:	00171006 	andseq	r1, r7, r6
     608:	00240200 	eoreq	r0, r4, r0, lsl #4
     60c:	0b3e0b0b 	bleq	f83240 <__bss_end__+0xf79208>
     610:	00000803 	andeq	r0, r0, r3, lsl #16
     614:	03001603 	movweq	r1, #1539	; 0x603
     618:	3b0b3a0e 	blcc	2cee58 <__bss_end__+0x2c4e20>
     61c:	490b390b 	stmdbmi	fp, {r0, r1, r3, r8, fp, ip, sp}
     620:	04000013 	streq	r0, [r0], #-19	; 0xffffffed
     624:	0b0b0024 	bleq	2c06bc <__bss_end__+0x2b6684>
     628:	0e030b3e 	vmoveq.16	d3[0], r0
     62c:	15050000 	strne	r0, [r5, #-0]
     630:	49192701 	ldmdbmi	r9, {r0, r8, r9, sl, sp}
     634:	00130113 	andseq	r0, r3, r3, lsl r1
     638:	00050600 	andeq	r0, r5, r0, lsl #12
     63c:	00001349 	andeq	r1, r0, r9, asr #6
     640:	03003407 	movweq	r3, #1031	; 0x407
     644:	3b0b3a0e 	blcc	2cee84 <__bss_end__+0x2c4e4c>
     648:	490b390b 	stmdbmi	fp, {r0, r1, r3, r8, fp, ip, sp}
     64c:	3c193f13 	ldccc	15, cr3, [r9], {19}
     650:	08000019 	stmdaeq	r0, {r0, r3, r4}
     654:	0b0b000f 	bleq	2c0698 <__bss_end__+0x2b6660>
     658:	00001349 	andeq	r1, r0, r9, asr #6
     65c:	49002609 	stmdbmi	r0, {r0, r3, r9, sl, sp}
     660:	0a000013 	beq	6b4 <__code_start__-0x794c>
     664:	193f012e 	ldmdbne	pc!, {r1, r2, r3, r5, r8}	; <UNPREDICTABLE>
     668:	0b3a0e03 	bleq	e83e7c <__bss_end__+0xe79e44>
     66c:	0b390b3b 	bleq	e43360 <__bss_end__+0xe39328>
     670:	13491927 	movtne	r1, #39207	; 0x9927
     674:	06120111 			; <UNDEFINED> instruction: 0x06120111
     678:	42971840 	addsmi	r1, r7, #64, 16	; 0x400000
     67c:	00130119 	andseq	r0, r3, r9, lsl r1
     680:	00050b00 	andeq	r0, r5, r0, lsl #22
     684:	0b3a0803 	bleq	e82698 <__bss_end__+0xe78660>
     688:	0b390b3b 	bleq	e4337c <__bss_end__+0xe39344>
     68c:	18021349 	stmdane	r2, {r0, r3, r6, r8, r9, ip}
     690:	050c0000 	streq	r0, [ip, #-0]
     694:	3a080300 	bcc	20129c <__bss_end__+0x1f7264>
     698:	390b3b0b 	stmdbcc	fp, {r0, r1, r3, r8, r9, fp, ip, sp}
     69c:	0213490b 	andseq	r4, r3, #180224	; 0x2c000
     6a0:	1742b717 	smlaldne	fp, r2, r7, r7
     6a4:	340d0000 	strcc	r0, [sp], #-0
     6a8:	3a080300 	bcc	2012b0 <__bss_end__+0x1f7278>
     6ac:	390b3b0b 	stmdbcc	fp, {r0, r1, r3, r8, r9, fp, ip, sp}
     6b0:	0213490b 	andseq	r4, r3, #180224	; 0x2c000
     6b4:	1742b717 	smlaldne	fp, r2, r7, r7
     6b8:	0f0e0000 	svceq	0x000e0000
     6bc:	000b0b00 	andeq	r0, fp, r0, lsl #22
     6c0:	11010000 	mrsne	r0, (UNDEF: 1)
     6c4:	130e2501 	movwne	r2, #58625	; 0xe501
     6c8:	1b0e030b 	blne	3812fc <__bss_end__+0x3772c4>
     6cc:	1201110e 	andne	r1, r1, #-2147483645	; 0x80000003
     6d0:	00171006 	andseq	r1, r7, r6
     6d4:	00160200 	andseq	r0, r6, r0, lsl #4
     6d8:	0b3a0e03 	bleq	e83eec <__bss_end__+0xe79eb4>
     6dc:	0b390b3b 	bleq	e433d0 <__bss_end__+0xe39398>
     6e0:	00001349 	andeq	r1, r0, r9, asr #6
     6e4:	03011303 	movweq	r1, #4867	; 0x1303
     6e8:	3a0b0b0e 	bcc	2c3328 <__bss_end__+0x2b92f0>
     6ec:	010b3b0b 	tsteq	fp, fp, lsl #22
     6f0:	04000013 	streq	r0, [r0], #-19	; 0xffffffed
     6f4:	0e03000d 	cdpeq	0, 0, cr0, cr3, cr13, {0}
     6f8:	0b381349 	bleq	e05424 <__bss_end__+0xdfb3ec>
     6fc:	00001934 	andeq	r1, r0, r4, lsr r9
     700:	0b000f05 	bleq	431c <__code_start__-0x3ce4>
     704:	0600000b 	streq	r0, [r0], -fp
     708:	0b0b0024 	bleq	2c07a0 <__bss_end__+0x2b6768>
     70c:	08030b3e 	stmdaeq	r3, {r1, r2, r3, r4, r5, r8, r9, fp}
     710:	24070000 	strcs	r0, [r7], #-0
     714:	3e0b0b00 	vmlacc.f64	d0, d11, d0
     718:	000e030b 	andeq	r0, lr, fp, lsl #6
     71c:	01150800 	tsteq	r5, r0, lsl #16
     720:	13491927 	movtne	r1, #39207	; 0x9927
     724:	00001301 	andeq	r1, r0, r1, lsl #6
     728:	49000509 	stmdbmi	r0, {r0, r3, r8, sl}
     72c:	0a000013 	beq	780 <__code_start__-0x7880>
     730:	0e030034 	mcreq	0, 0, r0, cr3, cr4, {1}
     734:	0b3b0b3a 	bleq	ec3424 <__bss_end__+0xeb93ec>
     738:	13490b39 	movtne	r0, #39737	; 0x9b39
     73c:	193c193f 	ldmdbne	ip!, {r0, r1, r2, r3, r4, r5, r8, fp, ip}
     740:	0f0b0000 	svceq	0x000b0000
     744:	490b0b00 	stmdbmi	fp, {r8, r9, fp}
     748:	0c000013 	stceq	0, cr0, [r0], {19}
     74c:	13490026 	movtne	r0, #36902	; 0x9026
     750:	2e0d0000 	cdpcs	0, 0, cr0, cr13, cr0, {0}
     754:	03193f01 	tsteq	r9, #1, 30
     758:	3b0b3a0e 	blcc	2cef98 <__bss_end__+0x2c4f60>
     75c:	270b390b 	strcs	r3, [fp, -fp, lsl #18]
     760:	11134919 	tstne	r3, r9, lsl r9
     764:	40061201 	andmi	r1, r6, r1, lsl #4
     768:	19429718 	stmdbne	r2, {r3, r4, r8, r9, sl, ip, pc}^
     76c:	00001301 	andeq	r1, r0, r1, lsl #6
     770:	0300050e 	movweq	r0, #1294	; 0x50e
     774:	3b0b3a08 	blcc	2cef9c <__bss_end__+0x2c4f64>
     778:	490b390b 	stmdbmi	fp, {r0, r1, r3, r8, fp, ip, sp}
     77c:	00180213 	andseq	r0, r8, r3, lsl r2
     780:	00180f00 	andseq	r0, r8, r0, lsl #30
     784:	34100000 	ldrcc	r0, [r0], #-0
     788:	3a080300 	bcc	201390 <__bss_end__+0x1f7358>
     78c:	390b3b0b 	stmdbcc	fp, {r0, r1, r3, r8, r9, fp, ip, sp}
     790:	0213490b 	andseq	r4, r3, #180224	; 0x2c000
     794:	11000018 	tstne	r0, r8, lsl r0
     798:	0e030034 	mcreq	0, 0, r0, cr3, cr4, {1}
     79c:	0b3b0b3a 	bleq	ec348c <__bss_end__+0xeb9454>
     7a0:	13490b39 	movtne	r0, #39737	; 0x9b39
     7a4:	00001802 	andeq	r1, r0, r2, lsl #16
     7a8:	03003412 	movweq	r3, #1042	; 0x412
     7ac:	3b0b3a08 	blcc	2cefd4 <__bss_end__+0x2c4f9c>
     7b0:	490b390b 	stmdbmi	fp, {r0, r1, r3, r8, fp, ip, sp}
     7b4:	b7170213 			; <UNDEFINED> instruction: 0xb7170213
     7b8:	00001742 	andeq	r1, r0, r2, asr #14
     7bc:	01828913 	orreq	r8, r2, r3, lsl r9
     7c0:	31011101 	tstcc	r1, r1, lsl #2
     7c4:	00130113 	andseq	r0, r3, r3, lsl r1
     7c8:	828a1400 	addhi	r1, sl, #0, 8
     7cc:	18020001 	stmdane	r2, {r0}
     7d0:	00184291 	mulseq	r8, r1, r2
     7d4:	82891500 	addhi	r1, r9, #0, 10
     7d8:	01110101 	tsteq	r1, r1, lsl #2
     7dc:	01160000 	tsteq	r6, r0
     7e0:	01134901 	tsteq	r3, r1, lsl #18
     7e4:	17000013 	smladne	r0, r3, r0, r0
     7e8:	13490021 	movtne	r0, #36897	; 0x9021
     7ec:	0000052f 	andeq	r0, r0, pc, lsr #10
     7f0:	3f002e18 	svccc	0x00002e18
     7f4:	6e193c19 	mrcvs	12, 0, r3, cr9, cr9, {0}
     7f8:	3a0e030e 	bcc	381438 <__bss_end__+0x377400>
     7fc:	390b3b0b 	stmdbcc	fp, {r0, r1, r3, r8, r9, fp, ip, sp}
     800:	0000000b 	andeq	r0, r0, fp
     804:	25011101 	strcs	r1, [r1, #-257]	; 0xfffffeff
     808:	030b130e 	movweq	r1, #45838	; 0xb30e
     80c:	110e1b0e 	tstne	lr, lr, lsl #22
     810:	10061201 	andne	r1, r6, r1, lsl #4
     814:	02000017 	andeq	r0, r0, #23, 0
     818:	0b0b0024 	bleq	2c08b0 <__bss_end__+0x2b6878>
     81c:	08030b3e 	stmdaeq	r3, {r1, r2, r3, r4, r5, r8, r9, fp}
     820:	24030000 	strcs	r0, [r3], #-0
     824:	3e0b0b00 	vmlacc.f64	d0, d11, d0
     828:	000e030b 	andeq	r0, lr, fp, lsl #6
     82c:	01150400 	tsteq	r5, r0, lsl #8
     830:	13491927 	movtne	r1, #39207	; 0x9927
     834:	00001301 	andeq	r1, r0, r1, lsl #6
     838:	49000505 	stmdbmi	r0, {r0, r2, r8, sl}
     83c:	06000013 			; <UNDEFINED> instruction: 0x06000013
     840:	0e030034 	mcreq	0, 0, r0, cr3, cr4, {1}
     844:	0b3b0b3a 	bleq	ec3534 <__bss_end__+0xeb94fc>
     848:	13490b39 	movtne	r0, #39737	; 0x9b39
     84c:	193c193f 	ldmdbne	ip!, {r0, r1, r2, r3, r4, r5, r8, fp, ip}
     850:	0f070000 	svceq	0x00070000
     854:	490b0b00 	stmdbmi	fp, {r8, r9, fp}
     858:	08000013 	stmdaeq	r0, {r0, r1, r4}
     85c:	13490026 	movtne	r0, #36902	; 0x9026
     860:	34090000 	strcc	r0, [r9], #-0
     864:	3a134700 	bcc	4d246c <__bss_end__+0x4c8434>
     868:	390b3b0b 	stmdbcc	fp, {r0, r1, r3, r8, r9, fp, ip, sp}
     86c:	0018020b 	andseq	r0, r8, fp, lsl #4
     870:	012e0a00 			; <UNDEFINED> instruction: 0x012e0a00
     874:	0e03193f 			; <UNDEFINED> instruction: 0x0e03193f
     878:	0b3b0b3a 	bleq	ec3568 <__bss_end__+0xeb9530>
     87c:	19270b39 	stmdbne	r7!, {r0, r3, r4, r5, r8, r9, fp}
     880:	01111349 	tsteq	r1, r9, asr #6
     884:	18400612 	stmdane	r0, {r1, r4, r9, sl}^
     888:	00194296 	mulseq	r9, r6, r2
     88c:	00050b00 	andeq	r0, r5, r0, lsl #22
     890:	0b3a0803 	bleq	e828a4 <__bss_end__+0xe7886c>
     894:	0b390b3b 	bleq	e43588 <__bss_end__+0xe39550>
     898:	17021349 	strne	r1, [r2, -r9, asr #6]
     89c:	001742b7 			; <UNDEFINED> instruction: 0x001742b7
     8a0:	11010000 	mrsne	r0, (UNDEF: 1)
     8a4:	130e2501 	movwne	r2, #58625	; 0xe501
     8a8:	1b0e030b 	blne	3814dc <__bss_end__+0x3774a4>
     8ac:	1201110e 	andne	r1, r1, #-2147483645	; 0x80000003
     8b0:	00171006 	andseq	r1, r7, r6
     8b4:	00240200 	eoreq	r0, r4, r0, lsl #4
     8b8:	0b3e0b0b 	bleq	f834ec <__bss_end__+0xf794b4>
     8bc:	00000803 	andeq	r0, r0, r3, lsl #16
     8c0:	0b002403 	bleq	98d4 <FFT_SINE_LUT+0x2a4>
     8c4:	030b3e0b 	movweq	r3, #48651	; 0xbe0b
     8c8:	0400000e 	streq	r0, [r0], #-14
     8cc:	0e030016 	mcreq	0, 0, r0, cr3, cr6, {0}
     8d0:	0b3b0b3a 	bleq	ec35c0 <__bss_end__+0xeb9588>
     8d4:	13490b39 	movtne	r0, #39737	; 0x9b39
     8d8:	15050000 	strne	r0, [r5, #-0]
     8dc:	49192701 	ldmdbmi	r9, {r0, r8, r9, sl, sp}
     8e0:	00130113 	andseq	r0, r3, r3, lsl r1
     8e4:	00050600 	andeq	r0, r5, r0, lsl #12
     8e8:	00001349 	andeq	r1, r0, r9, asr #6
     8ec:	03003407 	movweq	r3, #1031	; 0x407
     8f0:	3b0b3a0e 	blcc	2cf130 <__bss_end__+0x2c50f8>
     8f4:	490b390b 	stmdbmi	fp, {r0, r1, r3, r8, fp, ip, sp}
     8f8:	3c193f13 	ldccc	15, cr3, [r9], {19}
     8fc:	08000019 	stmdaeq	r0, {r0, r3, r4}
     900:	0b0b000f 	bleq	2c0944 <__bss_end__+0x2b690c>
     904:	00001349 	andeq	r1, r0, r9, asr #6
     908:	49002609 	stmdbmi	r0, {r0, r3, r9, sl, sp}
     90c:	0a000013 	beq	960 <__code_start__-0x76a0>
     910:	0e030113 	mcreq	1, 0, r0, cr3, cr3, {0}
     914:	0b3a0b0b 	bleq	e83548 <__bss_end__+0xe79510>
     918:	13010b3b 	movwne	r0, #6971	; 0x1b3b
     91c:	0d0b0000 	stceq	0, cr0, [fp, #-0]
     920:	490e0300 	stmdbmi	lr, {r8, r9}
     924:	340b3813 	strcc	r3, [fp], #-2067	; 0xfffff7ed
     928:	0c000019 	stceq	0, cr0, [r0], {25}
     92c:	0b0b000f 	bleq	2c0970 <__bss_end__+0x2b6938>
     930:	2e0d0000 	cdpcs	0, 0, cr0, cr13, cr0, {0}
     934:	03193f01 	tsteq	r9, #1, 30
     938:	3b0b3a0e 	blcc	2cf178 <__bss_end__+0x2c5140>
     93c:	270b390b 	strcs	r3, [fp, -fp, lsl #18]
     940:	11134919 	tstne	r3, r9, lsl r9
     944:	40061201 	andmi	r1, r6, r1, lsl #4
     948:	19429718 	stmdbne	r2, {r3, r4, r8, r9, sl, ip, pc}^
     94c:	00001301 	andeq	r1, r0, r1, lsl #6
     950:	0300050e 	movweq	r0, #1294	; 0x50e
     954:	3b0b3a08 	blcc	2cf17c <__bss_end__+0x2c5144>
     958:	490b390b 	stmdbmi	fp, {r0, r1, r3, r8, fp, ip, sp}
     95c:	b7170213 			; <UNDEFINED> instruction: 0xb7170213
     960:	00001742 	andeq	r1, r0, r2, asr #14
     964:	0300050f 	movweq	r0, #1295	; 0x50f
     968:	3b0b3a0e 	blcc	2cf1a8 <__bss_end__+0x2c5170>
     96c:	490b390b 	stmdbmi	fp, {r0, r1, r3, r8, fp, ip, sp}
     970:	00180213 	andseq	r0, r8, r3, lsl r2
     974:	00341000 	eorseq	r1, r4, r0
     978:	0b3a0803 	bleq	e8298c <__bss_end__+0xe78954>
     97c:	0b390b3b 	bleq	e43670 <__bss_end__+0xe39638>
     980:	17021349 	strne	r1, [r2, -r9, asr #6]
     984:	001742b7 			; <UNDEFINED> instruction: 0x001742b7
     988:	00341100 	eorseq	r1, r4, r0, lsl #2
     98c:	0b3a0e03 	bleq	e841a0 <__bss_end__+0xe7a168>
     990:	0b390b3b 	bleq	e43684 <__bss_end__+0xe3964c>
     994:	17021349 	strne	r1, [r2, -r9, asr #6]
     998:	001742b7 			; <UNDEFINED> instruction: 0x001742b7
     99c:	00341200 	eorseq	r1, r4, r0, lsl #4
     9a0:	13490e03 	movtne	r0, #40451	; 0x9e03
     9a4:	18021934 	stmdane	r2, {r2, r4, r5, r8, fp, ip}
     9a8:	0b130000 	bleq	4c09b0 <__bss_end__+0x4b6978>
     9ac:	12011101 	andne	r1, r1, #1073741824	; 0x40000000
     9b0:	14000006 	strne	r0, [r0], #-6
     9b4:	08030034 	stmdaeq	r3, {r2, r4, r5}
     9b8:	0b3b0b3a 	bleq	ec36a8 <__bss_end__+0xeb9670>
     9bc:	13490b39 	movtne	r0, #39737	; 0x9b39
     9c0:	00001802 	andeq	r1, r0, r2, lsl #16
     9c4:	03003415 	movweq	r3, #1045	; 0x415
     9c8:	3b0b3a0e 	blcc	2cf208 <__bss_end__+0x2c51d0>
     9cc:	490b390b 	stmdbmi	fp, {r0, r1, r3, r8, fp, ip, sp}
     9d0:	00180213 	andseq	r0, r8, r3, lsl r2
     9d4:	010b1600 	tsteq	fp, r0, lsl #12
     9d8:	06120111 			; <UNDEFINED> instruction: 0x06120111
     9dc:	00001301 	andeq	r1, r0, r1, lsl #6
     9e0:	03003417 	movweq	r3, #1047	; 0x417
     9e4:	3b0b3a08 	blcc	2cf20c <__bss_end__+0x2c51d4>
     9e8:	490b390b 	stmdbmi	fp, {r0, r1, r3, r8, fp, ip, sp}
     9ec:	18000013 	stmdane	r0, {r0, r1, r4}
     9f0:	01018289 	smlabbeq	r1, r9, r2, r8
     9f4:	13310111 	teqne	r1, #1073741828	; 0x40000004
     9f8:	00001301 	andeq	r1, r0, r1, lsl #6
     9fc:	01828a19 	orreq	r8, r2, r9, lsl sl
     a00:	91180200 	tstls	r8, r0, lsl #4
     a04:	00001842 	andeq	r1, r0, r2, asr #16
     a08:	0182891a 	orreq	r8, r2, sl, lsl r9
     a0c:	31011100 	mrscc	r1, (UNDEF: 17)
     a10:	1b000013 	blne	a64 <__code_start__-0x759c>
     a14:	01018289 	smlabbeq	r1, r9, r2, r8
     a18:	13010111 	movwne	r0, #4369	; 0x1111
     a1c:	011c0000 	tsteq	ip, r0
     a20:	01134901 	tsteq	r3, r1, lsl #18
     a24:	1d000013 	stcne	0, cr0, [r0, #-76]	; 0xffffffb4
     a28:	13490021 	movtne	r0, #36897	; 0x9021
     a2c:	00000b2f 	andeq	r0, r0, pc, lsr #22
     a30:	03012e1e 	movweq	r2, #7710	; 0x1e1e
     a34:	3b0b3a0e 	blcc	2cf274 <__bss_end__+0x2c523c>
     a38:	270b390b 	strcs	r3, [fp, -fp, lsl #18]
     a3c:	11134919 	tstne	r3, r9, lsl r9
     a40:	40061201 	andmi	r1, r6, r1, lsl #4
     a44:	19429718 	stmdbne	r2, {r3, r4, r8, r9, sl, ip, pc}^
     a48:	00001301 	andeq	r1, r0, r1, lsl #6
     a4c:	0300051f 	movweq	r0, #1311	; 0x51f
     a50:	3b0b3a0e 	blcc	2cf290 <__bss_end__+0x2c5258>
     a54:	490b390b 	stmdbmi	fp, {r0, r1, r3, r8, fp, ip, sp}
     a58:	b7170213 			; <UNDEFINED> instruction: 0xb7170213
     a5c:	00001742 	andeq	r1, r0, r2, asr #14
     a60:	03012e20 	movweq	r2, #7712	; 0x1e20
     a64:	3b0b3a08 	blcc	2cf28c <__bss_end__+0x2c5254>
     a68:	270b390b 	strcs	r3, [fp, -fp, lsl #18]
     a6c:	11134919 	tstne	r3, r9, lsl r9
     a70:	40061201 	andmi	r1, r6, r1, lsl #4
     a74:	19429718 	stmdbne	r2, {r3, r4, r8, r9, sl, ip, pc}^
     a78:	00001301 	andeq	r1, r0, r1, lsl #6
     a7c:	3f012e21 	svccc	0x00012e21
     a80:	3a0e0319 	bcc	3816ec <__bss_end__+0x3776b4>
     a84:	390b3b0b 	stmdbcc	fp, {r0, r1, r3, r8, r9, fp, ip, sp}
     a88:	1119270b 	tstne	r9, fp, lsl #14
     a8c:	40061201 	andmi	r1, r6, r1, lsl #4
     a90:	19429718 	stmdbne	r2, {r3, r4, r8, r9, sl, ip, pc}^
     a94:	00001301 	andeq	r1, r0, r1, lsl #6
     a98:	3f002e22 	svccc	0x00002e22
     a9c:	6e193c19 	mrcvs	12, 0, r3, cr9, cr9, {0}
     aa0:	3a0e030e 	bcc	3816e0 <__bss_end__+0x3776a8>
     aa4:	390b3b0b 	stmdbcc	fp, {r0, r1, r3, r8, r9, fp, ip, sp}
     aa8:	0000000b 	andeq	r0, r0, fp
     aac:	25011101 	strcs	r1, [r1, #-257]	; 0xfffffeff
     ab0:	030b130e 	movweq	r1, #45838	; 0xb30e
     ab4:	550e1b0e 	strpl	r1, [lr, #-2830]	; 0xfffff4f2
     ab8:	10011117 	andne	r1, r1, r7, lsl r1
     abc:	02000017 	andeq	r0, r0, #23, 0
     ac0:	0b0b0024 	bleq	2c0b58 <__bss_end__+0x2b6b20>
     ac4:	08030b3e 	stmdaeq	r3, {r1, r2, r3, r4, r5, r8, r9, fp}
     ac8:	24030000 	strcs	r0, [r3], #-0
     acc:	3e0b0b00 	vmlacc.f64	d0, d11, d0
     ad0:	000e030b 	andeq	r0, lr, fp, lsl #6
     ad4:	01150400 	tsteq	r5, r0, lsl #8
     ad8:	13491927 	movtne	r1, #39207	; 0x9927
     adc:	00001301 	andeq	r1, r0, r1, lsl #6
     ae0:	49000505 	stmdbmi	r0, {r0, r2, r8, sl}
     ae4:	06000013 			; <UNDEFINED> instruction: 0x06000013
     ae8:	0e030034 	mcreq	0, 0, r0, cr3, cr4, {1}
     aec:	0b3b0b3a 	bleq	ec37dc <__bss_end__+0xeb97a4>
     af0:	13490b39 	movtne	r0, #39737	; 0x9b39
     af4:	193c193f 	ldmdbne	ip!, {r0, r1, r2, r3, r4, r5, r8, fp, ip}
     af8:	0f070000 	svceq	0x00070000
     afc:	490b0b00 	stmdbmi	fp, {r8, r9, fp}
     b00:	08000013 	stmdaeq	r0, {r0, r1, r4}
     b04:	13490026 	movtne	r0, #36902	; 0x9026
     b08:	2e090000 	cdpcs	0, 0, cr0, cr9, cr0, {0}
     b0c:	03193f01 	tsteq	r9, #1, 30
     b10:	3b0b3a0e 	blcc	2cf350 <__bss_end__+0x2c5318>
     b14:	270b390b 	strcs	r3, [fp, -fp, lsl #18]
     b18:	12011119 	andne	r1, r1, #1073741830	; 0x40000006
     b1c:	97184006 	ldrls	r4, [r8, -r6]
     b20:	13011942 	movwne	r1, #6466	; 0x1942
     b24:	340a0000 	strcc	r0, [sl], #-0
     b28:	3a080300 	bcc	201730 <__bss_end__+0x1f76f8>
     b2c:	390b3b0b 	stmdbcc	fp, {r0, r1, r3, r8, r9, fp, ip, sp}
     b30:	0213490b 	andseq	r4, r3, #180224	; 0x2c000
     b34:	1742b717 	smlaldne	fp, r2, r7, r7
     b38:	2e0b0000 	cdpcs	0, 0, cr0, cr11, cr0, {0}
     b3c:	03193f01 	tsteq	r9, #1, 30
     b40:	3b0b3a0e 	blcc	2cf380 <__bss_end__+0x2c5348>
     b44:	270b390b 	strcs	r3, [fp, -fp, lsl #18]
     b48:	12011119 	andne	r1, r1, #1073741830	; 0x40000006
     b4c:	97184006 	ldrls	r4, [r8, -r6]
     b50:	00001942 	andeq	r1, r0, r2, asr #18
     b54:	01110100 	tsteq	r1, r0, lsl #2
     b58:	0b130e25 	bleq	4c43f4 <__bss_end__+0x4ba3bc>
     b5c:	0e1b0e03 	cdpeq	14, 1, cr0, cr11, cr3, {0}
     b60:	06120111 			; <UNDEFINED> instruction: 0x06120111
     b64:	00001710 	andeq	r1, r0, r0, lsl r7
     b68:	0b002402 	bleq	9b78 <FFT_SINE_LUT+0x548>
     b6c:	030b3e0b 	movweq	r3, #48651	; 0xbe0b
     b70:	03000008 	movweq	r0, #8
     b74:	0b0b0024 	bleq	2c0c0c <__bss_end__+0x2b6bd4>
     b78:	0e030b3e 	vmoveq.16	d3[0], r0
     b7c:	15040000 	strne	r0, [r4, #-0]
     b80:	49192701 	ldmdbmi	r9, {r0, r8, r9, sl, sp}
     b84:	00130113 	andseq	r0, r3, r3, lsl r1
     b88:	00050500 	andeq	r0, r5, r0, lsl #10
     b8c:	00001349 	andeq	r1, r0, r9, asr #6
     b90:	03003406 	movweq	r3, #1030	; 0x406
     b94:	3b0b3a0e 	blcc	2cf3d4 <__bss_end__+0x2c539c>
     b98:	490b390b 	stmdbmi	fp, {r0, r1, r3, r8, fp, ip, sp}
     b9c:	3c193f13 	ldccc	15, cr3, [r9], {19}
     ba0:	07000019 	smladeq	r0, r9, r0, r0
     ba4:	0b0b000f 	bleq	2c0be8 <__bss_end__+0x2b6bb0>
     ba8:	00001349 	andeq	r1, r0, r9, asr #6
     bac:	49002608 	stmdbmi	r0, {r3, r9, sl, sp}
     bb0:	09000013 	stmdbeq	r0, {r0, r1, r4}
     bb4:	193f012e 	ldmdbne	pc!, {r1, r2, r3, r5, r8}	; <UNPREDICTABLE>
     bb8:	0b3a0e03 	bleq	e843cc <__bss_end__+0xe7a394>
     bbc:	0b390b3b 	bleq	e438b0 <__bss_end__+0xe39878>
     bc0:	01871927 	orreq	r1, r7, r7, lsr #18
     bc4:	12011119 	andne	r1, r1, #1073741830	; 0x40000006
     bc8:	97184006 	ldrls	r4, [r8, -r6]
     bcc:	13011942 	movwne	r1, #6466	; 0x1942
     bd0:	890a0000 	stmdbhi	sl, {}	; <UNPREDICTABLE>
     bd4:	11010182 	smlabbne	r1, r2, r1, r0
     bd8:	00130101 	andseq	r0, r3, r1, lsl #2
     bdc:	828a0b00 	addhi	r0, sl, #0, 22
     be0:	18020001 	stmdane	r2, {r0}
     be4:	00184291 	mulseq	r8, r1, r2
     be8:	82890c00 	addhi	r0, r9, #0, 24
     bec:	01110001 	tsteq	r1, r1
     bf0:	00001331 	andeq	r1, r0, r1, lsr r3
     bf4:	0182890d 	orreq	r8, r2, sp, lsl #18
     bf8:	31011101 	tstcc	r1, r1, lsl #2
     bfc:	00130113 	andseq	r0, r3, r3, lsl r1
     c00:	002e0e00 	eoreq	r0, lr, r0, lsl #28
     c04:	193c193f 	ldmdbne	ip!, {r0, r1, r2, r3, r4, r5, r8, fp, ip}
     c08:	0e030e6e 	cdpeq	14, 0, cr0, cr3, cr14, {3}
     c0c:	0b3b0b3a 	bleq	ec38fc <__bss_end__+0xeb98c4>
     c10:	00000b39 	andeq	r0, r0, r9, lsr fp
     c14:	01110100 	tsteq	r1, r0, lsl #2
     c18:	0b130e25 	bleq	4c44b4 <__bss_end__+0x4ba47c>
     c1c:	0e1b0e03 	cdpeq	14, 1, cr0, cr11, cr3, {0}
     c20:	06120111 			; <UNDEFINED> instruction: 0x06120111
     c24:	00001710 	andeq	r1, r0, r0, lsl r7
     c28:	0b002402 	bleq	9c38 <__data_end__>
     c2c:	030b3e0b 	movweq	r3, #48651	; 0xbe0b
     c30:	03000008 	movweq	r0, #8
     c34:	0b0b0024 	bleq	2c0ccc <__bss_end__+0x2b6c94>
     c38:	0e030b3e 	vmoveq.16	d3[0], r0
     c3c:	15040000 	strne	r0, [r4, #-0]
     c40:	49192701 	ldmdbmi	r9, {r0, r8, r9, sl, sp}
     c44:	00130113 	andseq	r0, r3, r3, lsl r1
     c48:	00050500 	andeq	r0, r5, r0, lsl #10
     c4c:	00001349 	andeq	r1, r0, r9, asr #6
     c50:	03003406 	movweq	r3, #1030	; 0x406
     c54:	3b0b3a0e 	blcc	2cf494 <__bss_end__+0x2c545c>
     c58:	490b390b 	stmdbmi	fp, {r0, r1, r3, r8, fp, ip, sp}
     c5c:	3c193f13 	ldccc	15, cr3, [r9], {19}
     c60:	07000019 	smladeq	r0, r9, r0, r0
     c64:	0b0b000f 	bleq	2c0ca8 <__bss_end__+0x2b6c70>
     c68:	00001349 	andeq	r1, r0, r9, asr #6
     c6c:	49002608 	stmdbmi	r0, {r3, r9, sl, sp}
     c70:	09000013 	stmdbeq	r0, {r0, r1, r4}
     c74:	193f012e 	ldmdbne	pc!, {r1, r2, r3, r5, r8}	; <UNPREDICTABLE>
     c78:	0b3a0e03 	bleq	e8448c <__bss_end__+0xe7a454>
     c7c:	0b390b3b 	bleq	e43970 <__bss_end__+0xe39938>
     c80:	06120111 			; <UNDEFINED> instruction: 0x06120111
     c84:	42971840 	addsmi	r1, r7, #64, 16	; 0x400000
     c88:	00130119 	andseq	r0, r3, r9, lsl r1
     c8c:	002e0a00 	eoreq	r0, lr, r0, lsl #20
     c90:	0e03193f 			; <UNDEFINED> instruction: 0x0e03193f
     c94:	0b3b0b3a 	bleq	ec3984 <__bss_end__+0xeb994c>
     c98:	19270b39 	stmdbne	r7!, {r0, r3, r4, r5, r8, r9, fp}
     c9c:	0000193c 	andeq	r1, r0, ip, lsr r9
     ca0:	0300340b 	movweq	r3, #1035	; 0x40b
     ca4:	3b0b3a08 	blcc	2cf4cc <__bss_end__+0x2c5494>
     ca8:	490b390b 	stmdbmi	fp, {r0, r1, r3, r8, fp, ip, sp}
     cac:	b7170213 			; <UNDEFINED> instruction: 0xb7170213
     cb0:	00001742 	andeq	r1, r0, r2, asr #14
     cb4:	0300340c 	movweq	r3, #1036	; 0x40c
     cb8:	3b0b3a0e 	blcc	2cf4f8 <__bss_end__+0x2c54c0>
     cbc:	490b390b 	stmdbmi	fp, {r0, r1, r3, r8, fp, ip, sp}
     cc0:	0d000013 	stceq	0, cr0, [r0, #-76]	; 0xffffffb4
     cc4:	0111010b 	tsteq	r1, fp, lsl #2
     cc8:	13010612 	movwne	r0, #5650	; 0x1612
     ccc:	340e0000 	strcc	r0, [lr], #-0
     cd0:	3a080300 	bcc	2018d8 <__bss_end__+0x1f78a0>
     cd4:	390b3b0b 	stmdbcc	fp, {r0, r1, r3, r8, r9, fp, ip, sp}
     cd8:	1c13490b 			; <UNDEFINED> instruction: 0x1c13490b
     cdc:	0f00000b 	svceq	0x0000000b
     ce0:	00018289 	andeq	r8, r1, r9, lsl #5
     ce4:	13310111 	teqne	r1, #1073741828	; 0x40000004
     ce8:	2e100000 	cdpcs	0, 1, cr0, cr0, cr0, {0}
     cec:	3c193f00 	ldccc	15, cr3, [r9], {-0}
     cf0:	030e6e19 	movweq	r6, #60953	; 0xee19
     cf4:	3b0b3a0e 	blcc	2cf534 <__bss_end__+0x2c54fc>
     cf8:	000b3905 	andeq	r3, fp, r5, lsl #18
     cfc:	002e1100 	eoreq	r1, lr, r0, lsl #2
     d00:	193c193f 	ldmdbne	ip!, {r0, r1, r2, r3, r4, r5, r8, fp, ip}
     d04:	0e030e6e 	cdpeq	14, 0, cr0, cr3, cr14, {3}
     d08:	0b3b0b3a 	bleq	ec39f8 <__bss_end__+0xeb99c0>
     d0c:	00000b39 	andeq	r0, r0, r9, lsr fp
     d10:	01110100 	tsteq	r1, r0, lsl #2
     d14:	0b130e25 	bleq	4c45b0 <__bss_end__+0x4ba578>
     d18:	0e1b0e03 	cdpeq	14, 1, cr0, cr11, cr3, {0}
     d1c:	06120111 			; <UNDEFINED> instruction: 0x06120111
     d20:	00001710 	andeq	r1, r0, r0, lsl r7
     d24:	0b002402 	bleq	9d34 <__data_end__+0xfc>
     d28:	030b3e0b 	movweq	r3, #48651	; 0xbe0b
     d2c:	03000008 	movweq	r0, #8
     d30:	0b0b0024 	bleq	2c0dc8 <__bss_end__+0x2b6d90>
     d34:	0e030b3e 	vmoveq.16	d3[0], r0
     d38:	15040000 	strne	r0, [r4, #-0]
     d3c:	49192701 	ldmdbmi	r9, {r0, r8, r9, sl, sp}
     d40:	00130113 	andseq	r0, r3, r3, lsl r1
     d44:	00050500 	andeq	r0, r5, r0, lsl #10
     d48:	00001349 	andeq	r1, r0, r9, asr #6
     d4c:	03003406 	movweq	r3, #1030	; 0x406
     d50:	3b0b3a0e 	blcc	2cf590 <__bss_end__+0x2c5558>
     d54:	490b390b 	stmdbmi	fp, {r0, r1, r3, r8, fp, ip, sp}
     d58:	3c193f13 	ldccc	15, cr3, [r9], {19}
     d5c:	07000019 	smladeq	r0, r9, r0, r0
     d60:	0b0b000f 	bleq	2c0da4 <__bss_end__+0x2b6d6c>
     d64:	00001349 	andeq	r1, r0, r9, asr #6
     d68:	49002608 	stmdbmi	r0, {r3, r9, sl, sp}
     d6c:	09000013 	stmdbeq	r0, {r0, r1, r4}
     d70:	193f002e 	ldmdbne	pc!, {r1, r2, r3, r5}	; <UNPREDICTABLE>
     d74:	0b3a0e03 	bleq	e84588 <__bss_end__+0xe7a550>
     d78:	0b390b3b 	bleq	e43a6c <__bss_end__+0xe39a34>
     d7c:	01111927 	tsteq	r1, r7, lsr #18
     d80:	18400612 	stmdane	r0, {r1, r4, r9, sl}^
     d84:	00194297 	mulseq	r9, r7, r2
     d88:	11010000 	mrsne	r0, (UNDEF: 1)
     d8c:	130e2501 	movwne	r2, #58625	; 0xe501
     d90:	1b0e030b 	blne	3819c4 <__bss_end__+0x37798c>
     d94:	1117550e 	tstne	r7, lr, lsl #10
     d98:	00171001 	andseq	r1, r7, r1
     d9c:	00240200 	eoreq	r0, r4, r0, lsl #4
     da0:	0b3e0b0b 	bleq	f839d4 <__bss_end__+0xf7999c>
     da4:	00000803 	andeq	r0, r0, r3, lsl #16
     da8:	49002603 	stmdbmi	r0, {r0, r1, r9, sl, sp}
     dac:	04000013 	streq	r0, [r0], #-19	; 0xffffffed
     db0:	0b0b0024 	bleq	2c0e48 <__bss_end__+0x2b6e10>
     db4:	0e030b3e 	vmoveq.16	d3[0], r0
     db8:	15050000 	strne	r0, [r5, #-0]
     dbc:	49192701 	ldmdbmi	r9, {r0, r8, r9, sl, sp}
     dc0:	00130113 	andseq	r0, r3, r3, lsl r1
     dc4:	00050600 	andeq	r0, r5, r0, lsl #12
     dc8:	00001349 	andeq	r1, r0, r9, asr #6
     dcc:	03003407 	movweq	r3, #1031	; 0x407
     dd0:	3b0b3a0e 	blcc	2cf610 <__bss_end__+0x2c55d8>
     dd4:	490b390b 	stmdbmi	fp, {r0, r1, r3, r8, fp, ip, sp}
     dd8:	3c193f13 	ldccc	15, cr3, [r9], {19}
     ddc:	08000019 	stmdaeq	r0, {r0, r3, r4}
     de0:	0b0b000f 	bleq	2c0e24 <__bss_end__+0x2b6dec>
     de4:	00001349 	andeq	r1, r0, r9, asr #6
     de8:	03003409 	movweq	r3, #1033	; 0x409
     dec:	3b0b3a0e 	blcc	2cf62c <__bss_end__+0x2c55f4>
     df0:	490b390b 	stmdbmi	fp, {r0, r1, r3, r8, fp, ip, sp}
     df4:	0a000013 	beq	e48 <__code_start__-0x71b8>
     df8:	193f012e 	ldmdbne	pc!, {r1, r2, r3, r5, r8}	; <UNPREDICTABLE>
     dfc:	0b3a0e03 	bleq	e84610 <__bss_end__+0xe7a5d8>
     e00:	0b390b3b 	bleq	e43af4 <__bss_end__+0xe39abc>
     e04:	01871927 	orreq	r1, r7, r7, lsr #18
     e08:	12011119 	andne	r1, r1, #1073741830	; 0x40000006
     e0c:	97184006 	ldrls	r4, [r8, -r6]
     e10:	13011942 	movwne	r1, #6466	; 0x1942
     e14:	340b0000 	strcc	r0, [fp], #-0
     e18:	3a0e0300 	bcc	381a20 <__bss_end__+0x3779e8>
     e1c:	390b3b0b 	stmdbcc	fp, {r0, r1, r3, r8, r9, fp, ip, sp}
     e20:	0213490b 	andseq	r4, r3, #180224	; 0x2c000
     e24:	1742b717 	smlaldne	fp, r2, r7, r7
     e28:	890c0000 	stmdbhi	ip, {}	; <UNPREDICTABLE>
     e2c:	11000182 	smlabbne	r0, r2, r1, r0
     e30:	00133101 	andseq	r3, r3, r1, lsl #2
     e34:	82890d00 	addhi	r0, r9, #0, 26
     e38:	01110101 	tsteq	r1, r1, lsl #2
     e3c:	13011331 	movwne	r1, #4913	; 0x1331
     e40:	8a0e0000 	bhi	380e48 <__bss_end__+0x376e10>
     e44:	02000182 	andeq	r0, r0, #-2147483616	; 0x80000020
     e48:	18429118 	stmdane	r2, {r3, r4, r8, ip, pc}^
     e4c:	2e0f0000 	cdpcs	0, 0, cr0, cr15, cr0, {0}
     e50:	03193f01 	tsteq	r9, #1, 30
     e54:	3b0b3a0e 	blcc	2cf694 <__bss_end__+0x2c565c>
     e58:	270b390b 	strcs	r3, [fp, -fp, lsl #18]
     e5c:	12011119 	andne	r1, r1, #1073741830	; 0x40000006
     e60:	97184006 	ldrls	r4, [r8, -r6]
     e64:	13011942 	movwne	r1, #6466	; 0x1942
     e68:	2e100000 	cdpcs	0, 1, cr0, cr0, cr0, {0}
     e6c:	03193f01 	tsteq	r9, #1, 30
     e70:	3b0b3a0e 	blcc	2cf6b0 <__bss_end__+0x2c5678>
     e74:	270b390b 	strcs	r3, [fp, -fp, lsl #18]
     e78:	11134919 	tstne	r3, r9, lsl r9
     e7c:	40061201 	andmi	r1, r6, r1, lsl #4
     e80:	19429718 	stmdbne	r2, {r3, r4, r8, r9, sl, ip, pc}^
     e84:	00001301 	andeq	r1, r0, r1, lsl #6
     e88:	3f002e11 	svccc	0x00002e11
     e8c:	6e193c19 	mrcvs	12, 0, r3, cr9, cr9, {0}
     e90:	3a0e030e 	bcc	381ad0 <__bss_end__+0x377a98>
     e94:	39053b0b 	stmdbcc	r5, {r0, r1, r3, r8, r9, fp, ip, sp}
     e98:	1200000b 	andne	r0, r0, #11, 0
     e9c:	193f002e 	ldmdbne	pc!, {r1, r2, r3, r5}	; <UNPREDICTABLE>
     ea0:	0e6e193c 			; <UNDEFINED> instruction: 0x0e6e193c
     ea4:	0b3a0e03 	bleq	e846b8 <__bss_end__+0xe7a680>
     ea8:	0b390b3b 	bleq	e43b9c <__bss_end__+0xe39b64>
     eac:	01000000 	mrseq	r0, (UNDEF: 0)
     eb0:	0e250111 	mcreq	1, 1, r0, cr5, cr1, {0}
     eb4:	0e030b13 	vmoveq.32	d3[0], r0
     eb8:	01110e1b 	tsteq	r1, fp, lsl lr
     ebc:	17100612 			; <UNDEFINED> instruction: 0x17100612
     ec0:	24020000 	strcs	r0, [r2], #-0
     ec4:	3e0b0b00 	vmlacc.f64	d0, d11, d0
     ec8:	0008030b 	andeq	r0, r8, fp, lsl #6
     ecc:	00240300 	eoreq	r0, r4, r0, lsl #6
     ed0:	0b3e0b0b 	bleq	f83b04 <__bss_end__+0xf79acc>
     ed4:	00000e03 	andeq	r0, r0, r3, lsl #28
     ed8:	27011504 	strcs	r1, [r1, -r4, lsl #10]
     edc:	01134919 	tsteq	r3, r9, lsl r9
     ee0:	05000013 	streq	r0, [r0, #-19]	; 0xffffffed
     ee4:	13490005 	movtne	r0, #36869	; 0x9005
     ee8:	34060000 	strcc	r0, [r6], #-0
     eec:	3a0e0300 	bcc	381af4 <__bss_end__+0x377abc>
     ef0:	390b3b0b 	stmdbcc	fp, {r0, r1, r3, r8, r9, fp, ip, sp}
     ef4:	3f13490b 	svccc	0x0013490b
     ef8:	00193c19 	andseq	r3, r9, r9, lsl ip
     efc:	000f0700 	andeq	r0, pc, r0, lsl #14
     f00:	13490b0b 	movtne	r0, #39691	; 0x9b0b
     f04:	26080000 	strcs	r0, [r8], -r0
     f08:	00134900 	andseq	r4, r3, r0, lsl #18
     f0c:	012e0900 			; <UNDEFINED> instruction: 0x012e0900
     f10:	0e03193f 			; <UNDEFINED> instruction: 0x0e03193f
     f14:	0b3b0b3a 	bleq	ec3c04 <__bss_end__+0xeb9bcc>
     f18:	19270b39 	stmdbne	r7!, {r0, r3, r4, r5, r8, r9, fp}
     f1c:	06120111 			; <UNDEFINED> instruction: 0x06120111
     f20:	42971840 	addsmi	r1, r7, #64, 16	; 0x400000
     f24:	00130119 	andseq	r0, r3, r9, lsl r1
     f28:	00050a00 	andeq	r0, r5, r0, lsl #20
     f2c:	0b3a0803 	bleq	e82f40 <__bss_end__+0xe78f08>
     f30:	0b390b3b 	bleq	e43c24 <__bss_end__+0xe39bec>
     f34:	17021349 	strne	r1, [r2, -r9, asr #6]
     f38:	001742b7 			; <UNDEFINED> instruction: 0x001742b7
     f3c:	82890b00 	addhi	r0, r9, #0, 22
     f40:	01110101 	tsteq	r1, r1, lsl #2
     f44:	00001331 	andeq	r1, r0, r1, lsr r3
     f48:	01828a0c 	orreq	r8, r2, ip, lsl #20
     f4c:	91180200 	tstls	r8, r0, lsl #4
     f50:	00001842 	andeq	r1, r0, r2, asr #16
     f54:	0300340d 	movweq	r3, #1037	; 0x40d
     f58:	3b0b3a08 	blcc	2cf780 <__bss_end__+0x2c5748>
     f5c:	490b390b 	stmdbmi	fp, {r0, r1, r3, r8, fp, ip, sp}
     f60:	b7170213 			; <UNDEFINED> instruction: 0xb7170213
     f64:	00001742 	andeq	r1, r0, r2, asr #14
     f68:	11010b0e 	tstne	r1, lr, lsl #22
     f6c:	01061201 	tsteq	r6, r1, lsl #4
     f70:	0f000013 	svceq	0x00000013
     f74:	00018289 	andeq	r8, r1, r9, lsl #5
     f78:	13310111 	teqne	r1, #1073741828	; 0x40000004
     f7c:	2e100000 	cdpcs	0, 1, cr0, cr0, cr0, {0}
     f80:	03193f01 	tsteq	r9, #1, 30
     f84:	3b0b3a0e 	blcc	2cf7c4 <__bss_end__+0x2c578c>
     f88:	270b390b 	strcs	r3, [fp, -fp, lsl #18]
     f8c:	11134919 	tstne	r3, r9, lsl r9
     f90:	40061201 	andmi	r1, r6, r1, lsl #4
     f94:	19429718 	stmdbne	r2, {r3, r4, r8, r9, sl, ip, pc}^
     f98:	00001301 	andeq	r1, r0, r1, lsl #6
     f9c:	3f002e11 	svccc	0x00002e11
     fa0:	6e193c19 	mrcvs	12, 0, r3, cr9, cr9, {0}
     fa4:	3a0e030e 	bcc	381be4 <__bss_end__+0x377bac>
     fa8:	390b3b0b 	stmdbcc	fp, {r0, r1, r3, r8, r9, fp, ip, sp}
     fac:	0000000b 	andeq	r0, r0, fp
     fb0:	25011101 	strcs	r1, [r1, #-257]	; 0xfffffeff
     fb4:	030b130e 	movweq	r1, #45838	; 0xb30e
     fb8:	110e1b0e 	tstne	lr, lr, lsl #22
     fbc:	10061201 	andne	r1, r6, r1, lsl #4
     fc0:	02000017 	andeq	r0, r0, #23, 0
     fc4:	0b0b0024 	bleq	2c105c <__bss_end__+0x2b7024>
     fc8:	08030b3e 	stmdaeq	r3, {r1, r2, r3, r4, r5, r8, r9, fp}
     fcc:	24030000 	strcs	r0, [r3], #-0
     fd0:	3e0b0b00 	vmlacc.f64	d0, d11, d0
     fd4:	000e030b 	andeq	r0, lr, fp, lsl #6
     fd8:	00260400 	eoreq	r0, r6, r0, lsl #8
     fdc:	00001349 	andeq	r1, r0, r9, asr #6
     fe0:	03001605 	movweq	r1, #1541	; 0x605
     fe4:	3b0b3a0e 	blcc	2cf824 <__bss_end__+0x2c57ec>
     fe8:	490b390b 	stmdbmi	fp, {r0, r1, r3, r8, fp, ip, sp}
     fec:	06000013 			; <UNDEFINED> instruction: 0x06000013
     ff0:	0b3e0104 	bleq	f81408 <__bss_end__+0xf773d0>
     ff4:	13490b0b 	movtne	r0, #39691	; 0x9b0b
     ff8:	0b3b0b3a 	bleq	ec3ce8 <__bss_end__+0xeb9cb0>
     ffc:	13010b39 	movwne	r0, #6969	; 0x1b39
    1000:	28070000 	stmdacs	r7, {}	; <UNPREDICTABLE>
    1004:	1c0e0300 	stcne	3, cr0, [lr], {-0}
    1008:	0800000b 	stmdaeq	r0, {r0, r1, r3}
    100c:	0e030034 	mcreq	0, 0, r0, cr3, cr4, {1}
    1010:	0b3b0b3a 	bleq	ec3d00 <__bss_end__+0xeb9cc8>
    1014:	13490b39 	movtne	r0, #39737	; 0x9b39
    1018:	0000061c 	andeq	r0, r0, ip, lsl r6
    101c:	3f012e09 	svccc	0x00012e09
    1020:	3a0e0319 	bcc	381c8c <__bss_end__+0x377c54>
    1024:	390b3b0b 	stmdbcc	fp, {r0, r1, r3, r8, r9, fp, ip, sp}
    1028:	4919270b 	ldmdbmi	r9, {r0, r1, r3, r8, r9, sl, sp}
    102c:	12011113 	andne	r1, r1, #-1073741820	; 0xc0000004
    1030:	97184006 	ldrls	r4, [r8, -r6]
    1034:	13011942 	movwne	r1, #6466	; 0x1942
    1038:	050a0000 	streq	r0, [sl, #-0]
    103c:	3a080300 	bcc	201c44 <__bss_end__+0x1f7c0c>
    1040:	390b3b0b 	stmdbcc	fp, {r0, r1, r3, r8, r9, fp, ip, sp}
    1044:	0213490b 	andseq	r4, r3, #180224	; 0x2c000
    1048:	1742b717 	smlaldne	fp, r2, r7, r7
    104c:	340b0000 	strcc	r0, [fp], #-0
    1050:	3a0e0300 	bcc	381c58 <__bss_end__+0x377c20>
    1054:	390b3b0b 	stmdbcc	fp, {r0, r1, r3, r8, r9, fp, ip, sp}
    1058:	0213490b 	andseq	r4, r3, #180224	; 0x2c000
    105c:	1742b717 	smlaldne	fp, r2, r7, r7
    1060:	340c0000 	strcc	r0, [ip], #-0
    1064:	3a080300 	bcc	201c6c <__bss_end__+0x1f7c34>
    1068:	390b3b0b 	stmdbcc	fp, {r0, r1, r3, r8, r9, fp, ip, sp}
    106c:	0213490b 	andseq	r4, r3, #180224	; 0x2c000
    1070:	1742b717 	smlaldne	fp, r2, r7, r7
    1074:	890d0000 	stmdbhi	sp, {}	; <UNPREDICTABLE>
    1078:	11010182 	smlabbne	r1, r2, r1, r0
    107c:	00133101 	andseq	r3, r3, r1, lsl #2
    1080:	828a0e00 	addhi	r0, sl, #0, 28
    1084:	18020001 	stmdane	r2, {r0}
    1088:	00184291 	mulseq	r8, r1, r2
    108c:	012e0f00 			; <UNDEFINED> instruction: 0x012e0f00
    1090:	0e03193f 			; <UNDEFINED> instruction: 0x0e03193f
    1094:	0b3b0b3a 	bleq	ec3d84 <__bss_end__+0xeb9d4c>
    1098:	19270b39 	stmdbne	r7!, {r0, r3, r4, r5, r8, r9, fp}
    109c:	06120111 			; <UNDEFINED> instruction: 0x06120111
    10a0:	42971840 	addsmi	r1, r7, #64, 16	; 0x400000
    10a4:	00130119 	andseq	r0, r3, r9, lsl r1
    10a8:	82891000 	addhi	r1, r9, #0, 0
    10ac:	01110101 	tsteq	r1, r1, lsl #2
    10b0:	13011331 	movwne	r1, #4913	; 0x1331
    10b4:	89110000 	ldmdbhi	r1, {}	; <UNPREDICTABLE>
    10b8:	11000182 	smlabbne	r0, r2, r1, r0
    10bc:	00133101 	andseq	r3, r3, r1, lsl #2
    10c0:	00051200 	andeq	r1, r5, r0, lsl #4
    10c4:	0b3a0e03 	bleq	e848d8 <__bss_end__+0xe7a8a0>
    10c8:	0b390b3b 	bleq	e43dbc <__bss_end__+0xe39d84>
    10cc:	17021349 	strne	r1, [r2, -r9, asr #6]
    10d0:	001742b7 			; <UNDEFINED> instruction: 0x001742b7
    10d4:	012e1300 			; <UNDEFINED> instruction: 0x012e1300
    10d8:	0b3a0e03 	bleq	e848ec <__bss_end__+0xe7a8b4>
    10dc:	0b390b3b 	bleq	e43dd0 <__bss_end__+0xe39d98>
    10e0:	13491927 	movtne	r1, #39207	; 0x9927
    10e4:	13010b20 	movwne	r0, #6944	; 0x1b20
    10e8:	05140000 	ldreq	r0, [r4, #-0]
    10ec:	3a080300 	bcc	201cf4 <__bss_end__+0x1f7cbc>
    10f0:	390b3b0b 	stmdbcc	fp, {r0, r1, r3, r8, r9, fp, ip, sp}
    10f4:	0013490b 	andseq	r4, r3, fp, lsl #18
    10f8:	002e1500 	eoreq	r1, lr, r0, lsl #10
    10fc:	193c193f 	ldmdbne	ip!, {r0, r1, r2, r3, r4, r5, r8, fp, ip}
    1100:	0e030e6e 	cdpeq	14, 0, cr0, cr3, cr14, {3}
    1104:	0b3b0b3a 	bleq	ec3df4 <__bss_end__+0xeb9dbc>
    1108:	00000b39 	andeq	r0, r0, r9, lsr fp
    110c:	01110100 	tsteq	r1, r0, lsl #2
    1110:	0b130e25 	bleq	4c49ac <__bss_end__+0x4ba974>
    1114:	0e1b0e03 	cdpeq	14, 1, cr0, cr11, cr3, {0}
    1118:	06120111 			; <UNDEFINED> instruction: 0x06120111
    111c:	00001710 	andeq	r1, r0, r0, lsl r7
    1120:	0b002402 	bleq	a130 <__bss_end__+0xf8>
    1124:	030b3e0b 	movweq	r3, #48651	; 0xbe0b
    1128:	03000008 	movweq	r0, #8
    112c:	0b0b0024 	bleq	2c11c4 <__bss_end__+0x2b718c>
    1130:	0e030b3e 	vmoveq.16	d3[0], r0
    1134:	35040000 	strcc	r0, [r4, #-0]
    1138:	00134900 	andseq	r4, r3, r0, lsl #18
    113c:	00160500 	andseq	r0, r6, r0, lsl #10
    1140:	0b3a0e03 	bleq	e84954 <__bss_end__+0xe7a91c>
    1144:	0b390b3b 	bleq	e43e38 <__bss_end__+0xe39e00>
    1148:	00001349 	andeq	r1, r0, r9, asr #6
    114c:	3e010406 	cdpcc	4, 0, cr0, cr1, cr6, {0}
    1150:	490b0b0b 	stmdbmi	fp, {r0, r1, r3, r8, r9, fp}
    1154:	3b0b3a13 	blcc	2cf9a8 <__bss_end__+0x2c5970>
    1158:	010b390b 	tsteq	fp, fp, lsl #18
    115c:	07000013 	smladeq	r0, r3, r0, r0
    1160:	0e030028 	cdpeq	0, 0, cr0, cr3, cr8, {1}
    1164:	00000b1c 	andeq	r0, r0, ip, lsl fp
    1168:	03011308 	movweq	r1, #4872	; 0x1308
    116c:	3a0b0b0e 	bcc	2c3dac <__bss_end__+0x2b9d74>
    1170:	390b3b0b 	stmdbcc	fp, {r0, r1, r3, r8, r9, fp, ip, sp}
    1174:	0013010b 	andseq	r0, r3, fp, lsl #2
    1178:	000d0900 	andeq	r0, sp, r0, lsl #18
    117c:	0b3a0803 	bleq	e83190 <__bss_end__+0xe79158>
    1180:	0b390b3b 	bleq	e43e74 <__bss_end__+0xe39e3c>
    1184:	0b381349 	bleq	e05eb0 <__bss_end__+0xdfbe78>
    1188:	0d0a0000 	stceq	0, cr0, [sl, #-0]
    118c:	3a0e0300 	bcc	381d94 <__bss_end__+0x377d5c>
    1190:	390b3b0b 	stmdbcc	fp, {r0, r1, r3, r8, r9, fp, ip, sp}
    1194:	3813490b 	ldmdacc	r3, {r0, r1, r3, r8, fp, lr}
    1198:	0b00000b 	bleq	11cc <__code_start__-0x6e34>
    119c:	0e030034 	mcreq	0, 0, r0, cr3, cr4, {1}
    11a0:	0b3b0b3a 	bleq	ec3e90 <__bss_end__+0xeb9e58>
    11a4:	13490b39 	movtne	r0, #39737	; 0x9b39
    11a8:	0000061c 	andeq	r0, r0, ip, lsl r6
    11ac:	0b000f0c 	bleq	4de4 <__code_start__-0x321c>
    11b0:	0013490b 	andseq	r4, r3, fp, lsl #18
    11b4:	00260d00 	eoreq	r0, r6, r0, lsl #26
    11b8:	00001349 	andeq	r1, r0, r9, asr #6
    11bc:	3f012e0e 	svccc	0x00012e0e
    11c0:	3a0e0319 	bcc	381e2c <__bss_end__+0x377df4>
    11c4:	390b3b0b 	stmdbcc	fp, {r0, r1, r3, r8, r9, fp, ip, sp}
    11c8:	1119270b 	tstne	r9, fp, lsl #14
    11cc:	40061201 	andmi	r1, r6, r1, lsl #4
    11d0:	19429718 	stmdbne	r2, {r3, r4, r8, r9, sl, ip, pc}^
    11d4:	00001301 	andeq	r1, r0, r1, lsl #6
    11d8:	0182890f 	orreq	r8, r2, pc, lsl #18
    11dc:	31011100 	mrscc	r1, (UNDEF: 17)
    11e0:	10000013 	andne	r0, r0, r3, lsl r0
    11e4:	193f012e 	ldmdbne	pc!, {r1, r2, r3, r5, r8}	; <UNPREDICTABLE>
    11e8:	0b3a0e03 	bleq	e849fc <__bss_end__+0xe7a9c4>
    11ec:	0b390b3b 	bleq	e43ee0 <__bss_end__+0xe39ea8>
    11f0:	13491927 	movtne	r1, #39207	; 0x9927
    11f4:	06120111 			; <UNDEFINED> instruction: 0x06120111
    11f8:	42971840 	addsmi	r1, r7, #64, 16	; 0x400000
    11fc:	00130119 	andseq	r0, r3, r9, lsl r1
    1200:	82891100 	addhi	r1, r9, #0
    1204:	01110101 	tsteq	r1, r1, lsl #2
    1208:	00001331 	andeq	r1, r0, r1, lsr r3
    120c:	01828a12 	orreq	r8, r2, r2, lsl sl
    1210:	91180200 	tstls	r8, r0, lsl #4
    1214:	00001842 	andeq	r1, r0, r2, asr #16
    1218:	03000513 	movweq	r0, #1299	; 0x513
    121c:	3b0b3a08 	blcc	2cfa44 <__bss_end__+0x2c5a0c>
    1220:	490b390b 	stmdbmi	fp, {r0, r1, r3, r8, fp, ip, sp}
    1224:	b7170213 			; <UNDEFINED> instruction: 0xb7170213
    1228:	00001742 	andeq	r1, r0, r2, asr #14
    122c:	01828914 	orreq	r8, r2, r4, lsl r9
    1230:	31011101 	tstcc	r1, r1, lsl #2
    1234:	00130113 	andseq	r0, r3, r3, lsl r1
    1238:	00341500 	eorseq	r1, r4, r0, lsl #10
    123c:	0b3a0803 	bleq	e83250 <__bss_end__+0xe79218>
    1240:	0b390b3b 	bleq	e43f34 <__bss_end__+0xe39efc>
    1244:	17021349 	strne	r1, [r2, -r9, asr #6]
    1248:	001742b7 			; <UNDEFINED> instruction: 0x001742b7
    124c:	00341600 	eorseq	r1, r4, r0, lsl #12
    1250:	0b3a0e03 	bleq	e84a64 <__bss_end__+0xe7aa2c>
    1254:	0b390b3b 	bleq	e43f48 <__bss_end__+0xe39f10>
    1258:	051c1349 	ldreq	r1, [ip, #-841]	; 0xfffffcb7
    125c:	2e170000 	cdpcs	0, 1, cr0, cr7, cr0, {0}
    1260:	3a0e0301 	bcc	381e6c <__bss_end__+0x377e34>
    1264:	390b3b0b 	stmdbcc	fp, {r0, r1, r3, r8, r9, fp, ip, sp}
    1268:	1119270b 	tstne	r9, fp, lsl #14
    126c:	40061201 	andmi	r1, r6, r1, lsl #4
    1270:	19429718 	stmdbne	r2, {r3, r4, r8, r9, sl, ip, pc}^
    1274:	00001301 	andeq	r1, r0, r1, lsl #6
    1278:	03000518 	movweq	r0, #1304	; 0x518
    127c:	3b0b3a0e 	blcc	2cfabc <__bss_end__+0x2c5a84>
    1280:	490b390b 	stmdbmi	fp, {r0, r1, r3, r8, fp, ip, sp}
    1284:	b7170213 			; <UNDEFINED> instruction: 0xb7170213
    1288:	00001742 	andeq	r1, r0, r2, asr #14
    128c:	00003519 	andeq	r3, r0, r9, lsl r5
    1290:	002e1a00 	eoreq	r1, lr, r0, lsl #20
    1294:	193c193f 	ldmdbne	ip!, {r0, r1, r2, r3, r4, r5, r8, fp, ip}
    1298:	0e030e6e 	cdpeq	14, 0, cr0, cr3, cr14, {3}
    129c:	0b3b0b3a 	bleq	ec3f8c <__bss_end__+0xeb9f54>
    12a0:	00000b39 	andeq	r0, r0, r9, lsr fp
    12a4:	01110100 	tsteq	r1, r0, lsl #2
    12a8:	0b130e25 	bleq	4c4b44 <__bss_end__+0x4bab0c>
    12ac:	0e1b0e03 	cdpeq	14, 1, cr0, cr11, cr3, {0}
    12b0:	06120111 			; <UNDEFINED> instruction: 0x06120111
    12b4:	00001710 	andeq	r1, r0, r0, lsl r7
    12b8:	0b002402 	bleq	a2c8 <__bss_end__+0x290>
    12bc:	030b3e0b 	movweq	r3, #48651	; 0xbe0b
    12c0:	03000008 	movweq	r0, #8
    12c4:	0b0b0024 	bleq	2c135c <__bss_end__+0x2b7324>
    12c8:	0e030b3e 	vmoveq.16	d3[0], r0
    12cc:	15040000 	strne	r0, [r4, #-0]
    12d0:	49192701 	ldmdbmi	r9, {r0, r8, r9, sl, sp}
    12d4:	00130113 	andseq	r0, r3, r3, lsl r1
    12d8:	00050500 	andeq	r0, r5, r0, lsl #10
    12dc:	00001349 	andeq	r1, r0, r9, asr #6
    12e0:	03003406 	movweq	r3, #1030	; 0x406
    12e4:	3b0b3a0e 	blcc	2cfb24 <__bss_end__+0x2c5aec>
    12e8:	490b390b 	stmdbmi	fp, {r0, r1, r3, r8, fp, ip, sp}
    12ec:	3c193f13 	ldccc	15, cr3, [r9], {19}
    12f0:	07000019 	smladeq	r0, r9, r0, r0
    12f4:	0b0b000f 	bleq	2c1338 <__bss_end__+0x2b7300>
    12f8:	00001349 	andeq	r1, r0, r9, asr #6
    12fc:	49002608 	stmdbmi	r0, {r3, r9, sl, sp}
    1300:	09000013 	stmdbeq	r0, {r0, r1, r4}
    1304:	13470034 	movtne	r0, #28724	; 0x7034
    1308:	0b3b0b3a 	bleq	ec3ff8 <__bss_end__+0xeb9fc0>
    130c:	18020b39 	stmdane	r2, {r0, r3, r4, r5, r8, r9, fp}
    1310:	2e0a0000 	cdpcs	0, 0, cr0, cr10, cr0, {0}
    1314:	03193f01 	tsteq	r9, #1, 30
    1318:	3b0b3a0e 	blcc	2cfb58 <__bss_end__+0x2c5b20>
    131c:	270b390b 	strcs	r3, [fp, -fp, lsl #18]
    1320:	12011119 	andne	r1, r1, #1073741830	; 0x40000006
    1324:	97184006 	ldrls	r4, [r8, -r6]
    1328:	13011942 	movwne	r1, #6466	; 0x1942
    132c:	050b0000 	streq	r0, [fp, #-0]
    1330:	3a080300 	bcc	201f38 <__bss_end__+0x1f7f00>
    1334:	390b3b0b 	stmdbcc	fp, {r0, r1, r3, r8, r9, fp, ip, sp}
    1338:	0213490b 	andseq	r4, r3, #180224	; 0x2c000
    133c:	0c000018 	stceq	0, cr0, [r0], {24}
    1340:	193f002e 	ldmdbne	pc!, {r1, r2, r3, r5}	; <UNPREDICTABLE>
    1344:	0b3a0e03 	bleq	e84b58 <__bss_end__+0xe7ab20>
    1348:	0b390b3b 	bleq	e4403c <__bss_end__+0xe3a004>
    134c:	01111927 	tsteq	r1, r7, lsr #18
    1350:	18400612 	stmdane	r0, {r1, r4, r9, sl}^
    1354:	00194297 	mulseq	r9, r7, r2
    1358:	012e0d00 			; <UNDEFINED> instruction: 0x012e0d00
    135c:	0b3a0e03 	bleq	e84b70 <__bss_end__+0xe7ab38>
    1360:	0b390b3b 	bleq	e44054 <__bss_end__+0xe3a01c>
    1364:	13491927 	movtne	r1, #39207	; 0x9927
    1368:	06120111 			; <UNDEFINED> instruction: 0x06120111
    136c:	42971840 	addsmi	r1, r7, #64, 16	; 0x400000
    1370:	00130119 	andseq	r0, r3, r9, lsl r1
    1374:	00050e00 	andeq	r0, r5, r0, lsl #28
    1378:	0b3a0803 	bleq	e8338c <__bss_end__+0xe79354>
    137c:	0b390b3b 	bleq	e44070 <__bss_end__+0xe3a038>
    1380:	17021349 	strne	r1, [r2, -r9, asr #6]
    1384:	001742b7 			; <UNDEFINED> instruction: 0x001742b7
    1388:	82890f00 	addhi	r0, r9, #0, 30
    138c:	01110101 	tsteq	r1, r1, lsl #2
    1390:	00001331 	andeq	r1, r0, r1, lsr r3
    1394:	01828a10 	orreq	r8, r2, r0, lsl sl
    1398:	91180200 	tstls	r8, r0, lsl #4
    139c:	00001842 	andeq	r1, r0, r2, asr #16
    13a0:	3f002e11 	svccc	0x00002e11
    13a4:	6e193c19 	mrcvs	12, 0, r3, cr9, cr9, {0}
    13a8:	3a0e030e 	bcc	381fe8 <__bss_end__+0x377fb0>
    13ac:	390b3b0b 	stmdbcc	fp, {r0, r1, r3, r8, r9, fp, ip, sp}
    13b0:	0000000b 	andeq	r0, r0, fp
    13b4:	25011101 	strcs	r1, [r1, #-257]	; 0xfffffeff
    13b8:	030b130e 	movweq	r1, #45838	; 0xb30e
    13bc:	110e1b0e 	tstne	lr, lr, lsl #22
    13c0:	10061201 	andne	r1, r6, r1, lsl #4
    13c4:	02000017 	andeq	r0, r0, #23, 0
    13c8:	0b0b0024 	bleq	2c1460 <__bss_end__+0x2b7428>
    13cc:	08030b3e 	stmdaeq	r3, {r1, r2, r3, r4, r5, r8, r9, fp}
    13d0:	24030000 	strcs	r0, [r3], #-0
    13d4:	3e0b0b00 	vmlacc.f64	d0, d11, d0
    13d8:	000e030b 	andeq	r0, lr, fp, lsl #6
    13dc:	01150400 	tsteq	r5, r0, lsl #8
    13e0:	13491927 	movtne	r1, #39207	; 0x9927
    13e4:	00001301 	andeq	r1, r0, r1, lsl #6
    13e8:	49000505 	stmdbmi	r0, {r0, r2, r8, sl}
    13ec:	06000013 			; <UNDEFINED> instruction: 0x06000013
    13f0:	0e030034 	mcreq	0, 0, r0, cr3, cr4, {1}
    13f4:	0b3b0b3a 	bleq	ec40e4 <__bss_end__+0xeba0ac>
    13f8:	13490b39 	movtne	r0, #39737	; 0x9b39
    13fc:	193c193f 	ldmdbne	ip!, {r0, r1, r2, r3, r4, r5, r8, fp, ip}
    1400:	0f070000 	svceq	0x00070000
    1404:	490b0b00 	stmdbmi	fp, {r8, r9, fp}
    1408:	08000013 	stmdaeq	r0, {r0, r1, r4}
    140c:	13490026 	movtne	r0, #36902	; 0x9026
    1410:	2e090000 	cdpcs	0, 0, cr0, cr9, cr0, {0}
    1414:	03193f01 	tsteq	r9, #1, 30
    1418:	3b0b3a0e 	blcc	2cfc58 <__bss_end__+0x2c5c20>
    141c:	270b390b 	strcs	r3, [fp, -fp, lsl #18]
    1420:	11134919 	tstne	r3, r9, lsl r9
    1424:	40061201 	andmi	r1, r6, r1, lsl #4
    1428:	19429718 	stmdbne	r2, {r3, r4, r8, r9, sl, ip, pc}^
    142c:	00001301 	andeq	r1, r0, r1, lsl #6
    1430:	0300050a 	movweq	r0, #1290	; 0x50a
    1434:	3b0b3a0e 	blcc	2cfc74 <__bss_end__+0x2c5c3c>
    1438:	490b390b 	stmdbmi	fp, {r0, r1, r3, r8, fp, ip, sp}
    143c:	00180213 	andseq	r0, r8, r3, lsl r2
    1440:	00050b00 	andeq	r0, r5, r0, lsl #22
    1444:	0b3a0803 	bleq	e83458 <__bss_end__+0xe79420>
    1448:	0b390b3b 	bleq	e4413c <__bss_end__+0xe3a104>
    144c:	17021349 	strne	r1, [r2, -r9, asr #6]
    1450:	001742b7 			; <UNDEFINED> instruction: 0x001742b7
    1454:	00340c00 	eorseq	r0, r4, r0, lsl #24
    1458:	0b3a0803 	bleq	e8346c <__bss_end__+0xe79434>
    145c:	0b390b3b 	bleq	e44150 <__bss_end__+0xe3a118>
    1460:	17021349 	strne	r1, [r2, -r9, asr #6]
    1464:	001742b7 			; <UNDEFINED> instruction: 0x001742b7
    1468:	11010000 	mrsne	r0, (UNDEF: 1)
    146c:	130e2501 	movwne	r2, #58625	; 0xe501
    1470:	1b0e030b 	blne	3820a4 <__bss_end__+0x37806c>
    1474:	1201110e 	andne	r1, r1, #-2147483645	; 0x80000003
    1478:	00171006 	andseq	r1, r7, r6
    147c:	00240200 	eoreq	r0, r4, r0, lsl #4
    1480:	0b3e0b0b 	bleq	f840b4 <__bss_end__+0xf7a07c>
    1484:	00000803 	andeq	r0, r0, r3, lsl #16
    1488:	0b002403 	bleq	a49c <__bss_end__+0x464>
    148c:	030b3e0b 	movweq	r3, #48651	; 0xbe0b
    1490:	0400000e 	streq	r0, [r0], #-14
    1494:	19270115 	stmdbne	r7!, {r0, r2, r4, r8}
    1498:	13011349 	movwne	r1, #4937	; 0x1349
    149c:	05050000 	streq	r0, [r5, #-0]
    14a0:	00134900 	andseq	r4, r3, r0, lsl #18
    14a4:	00340600 	eorseq	r0, r4, r0, lsl #12
    14a8:	0b3a0e03 	bleq	e84cbc <__bss_end__+0xe7ac84>
    14ac:	0b390b3b 	bleq	e441a0 <__bss_end__+0xe3a168>
    14b0:	193f1349 	ldmdbne	pc!, {r0, r3, r6, r8, r9, ip}	; <UNPREDICTABLE>
    14b4:	0000193c 	andeq	r1, r0, ip, lsr r9
    14b8:	0b000f07 	bleq	50dc <__code_start__-0x2f24>
    14bc:	0013490b 	andseq	r4, r3, fp, lsl #18
    14c0:	00260800 	eoreq	r0, r6, r0, lsl #16
    14c4:	00001349 	andeq	r1, r0, r9, asr #6
    14c8:	3f012e09 	svccc	0x00012e09
    14cc:	3a0e0319 	bcc	382138 <__bss_end__+0x378100>
    14d0:	390b3b0b 	stmdbcc	fp, {r0, r1, r3, r8, r9, fp, ip, sp}
    14d4:	4919270b 	ldmdbmi	r9, {r0, r1, r3, r8, r9, sl, sp}
    14d8:	12011113 	andne	r1, r1, #-1073741820	; 0xc0000004
    14dc:	97184006 	ldrls	r4, [r8, -r6]
    14e0:	00001942 	andeq	r1, r0, r2, asr #18
    14e4:	0300050a 	movweq	r0, #1290	; 0x50a
    14e8:	3b0b3a08 	blcc	2cfd10 <__bss_end__+0x2c5cd8>
    14ec:	490b390b 	stmdbmi	fp, {r0, r1, r3, r8, fp, ip, sp}
    14f0:	b7170213 			; <UNDEFINED> instruction: 0xb7170213
    14f4:	00001742 	andeq	r1, r0, r2, asr #14
    14f8:	01110100 	tsteq	r1, r0, lsl #2
    14fc:	0b130e25 	bleq	4c4d98 <__bss_end__+0x4bad60>
    1500:	0e1b0e03 	cdpeq	14, 1, cr0, cr11, cr3, {0}
    1504:	06120111 			; <UNDEFINED> instruction: 0x06120111
    1508:	00001710 	andeq	r1, r0, r0, lsl r7
    150c:	0b002402 	bleq	a51c <__bss_end__+0x4e4>
    1510:	030b3e0b 	movweq	r3, #48651	; 0xbe0b
    1514:	03000008 	movweq	r0, #8
    1518:	0b0b0024 	bleq	2c15b0 <__bss_end__+0x2b7578>
    151c:	0e030b3e 	vmoveq.16	d3[0], r0
    1520:	15040000 	strne	r0, [r4, #-0]
    1524:	49192701 	ldmdbmi	r9, {r0, r8, r9, sl, sp}
    1528:	00130113 	andseq	r0, r3, r3, lsl r1
    152c:	00050500 	andeq	r0, r5, r0, lsl #10
    1530:	00001349 	andeq	r1, r0, r9, asr #6
    1534:	03003406 	movweq	r3, #1030	; 0x406
    1538:	3b0b3a0e 	blcc	2cfd78 <__bss_end__+0x2c5d40>
    153c:	490b390b 	stmdbmi	fp, {r0, r1, r3, r8, fp, ip, sp}
    1540:	3c193f13 	ldccc	15, cr3, [r9], {19}
    1544:	07000019 	smladeq	r0, r9, r0, r0
    1548:	0b0b000f 	bleq	2c158c <__bss_end__+0x2b7554>
    154c:	00001349 	andeq	r1, r0, r9, asr #6
    1550:	49002608 	stmdbmi	r0, {r3, r9, sl, sp}
    1554:	09000013 	stmdbeq	r0, {r0, r1, r4}
    1558:	193f012e 	ldmdbne	pc!, {r1, r2, r3, r5, r8}	; <UNPREDICTABLE>
    155c:	0b3a0e03 	bleq	e84d70 <__bss_end__+0xe7ad38>
    1560:	0b390b3b 	bleq	e44254 <__bss_end__+0xe3a21c>
    1564:	13491927 	movtne	r1, #39207	; 0x9927
    1568:	06120111 			; <UNDEFINED> instruction: 0x06120111
    156c:	42971840 	addsmi	r1, r7, #64, 16	; 0x400000
    1570:	00130119 	andseq	r0, r3, r9, lsl r1
    1574:	00050a00 	andeq	r0, r5, r0, lsl #20
    1578:	0b3a0803 	bleq	e8358c <__bss_end__+0xe79554>
    157c:	0b390b3b 	bleq	e44270 <__bss_end__+0xe3a238>
    1580:	18021349 	stmdane	r2, {r0, r3, r6, r8, r9, ip}
    1584:	050b0000 	streq	r0, [fp, #-0]
    1588:	3a080300 	bcc	202190 <__bss_end__+0x1f8158>
    158c:	390b3b0b 	stmdbcc	fp, {r0, r1, r3, r8, r9, fp, ip, sp}
    1590:	0213490b 	andseq	r4, r3, #180224	; 0x2c000
    1594:	1742b717 	smlaldne	fp, r2, r7, r7
    1598:	340c0000 	strcc	r0, [ip], #-0
    159c:	3a080300 	bcc	2021a4 <__bss_end__+0x1f816c>
    15a0:	390b3b0b 	stmdbcc	fp, {r0, r1, r3, r8, r9, fp, ip, sp}
    15a4:	0213490b 	andseq	r4, r3, #180224	; 0x2c000
    15a8:	1742b717 	smlaldne	fp, r2, r7, r7
    15ac:	01000000 	mrseq	r0, (UNDEF: 0)
    15b0:	0e250111 	mcreq	1, 1, r0, cr5, cr1, {0}
    15b4:	0e030b13 	vmoveq.32	d3[0], r0
    15b8:	17550e1b 	smmlane	r5, fp, lr, r0
    15bc:	17100111 			; <UNDEFINED> instruction: 0x17100111
    15c0:	24020000 	strcs	r0, [r2], #-0
    15c4:	3e0b0b00 	vmlacc.f64	d0, d11, d0
    15c8:	0008030b 	andeq	r0, r8, fp, lsl #6
    15cc:	00160300 	andseq	r0, r6, r0, lsl #6
    15d0:	0b3a0e03 	bleq	e84de4 <__bss_end__+0xe7adac>
    15d4:	0b390b3b 	bleq	e442c8 <__bss_end__+0xe3a290>
    15d8:	00001349 	andeq	r1, r0, r9, asr #6
    15dc:	0b002404 	bleq	a5f4 <__bss_end__+0x5bc>
    15e0:	030b3e0b 	movweq	r3, #48651	; 0xbe0b
    15e4:	0500000e 	streq	r0, [r0, #-14]
    15e8:	13490026 	movtne	r0, #36902	; 0x9026
    15ec:	15060000 	strne	r0, [r6, #-0]
    15f0:	49192701 	ldmdbmi	r9, {r0, r8, r9, sl, sp}
    15f4:	00130113 	andseq	r0, r3, r3, lsl r1
    15f8:	00050700 	andeq	r0, r5, r0, lsl #14
    15fc:	00001349 	andeq	r1, r0, r9, asr #6
    1600:	03003408 	movweq	r3, #1032	; 0x408
    1604:	3b0b3a0e 	blcc	2cfe44 <__bss_end__+0x2c5e0c>
    1608:	490b390b 	stmdbmi	fp, {r0, r1, r3, r8, fp, ip, sp}
    160c:	3c193f13 	ldccc	15, cr3, [r9], {19}
    1610:	09000019 	stmdbeq	r0, {r0, r3, r4}
    1614:	0b0b000f 	bleq	2c1658 <__bss_end__+0x2b7620>
    1618:	00001349 	andeq	r1, r0, r9, asr #6
    161c:	3f012e0a 	svccc	0x00012e0a
    1620:	3a0e0319 	bcc	38228c <__bss_end__+0x378254>
    1624:	390b3b0b 	stmdbcc	fp, {r0, r1, r3, r8, r9, fp, ip, sp}
    1628:	4919270b 	ldmdbmi	r9, {r0, r1, r3, r8, r9, sl, sp}
    162c:	12011113 	andne	r1, r1, #-1073741820	; 0xc0000004
    1630:	97184006 	ldrls	r4, [r8, -r6]
    1634:	13011942 	movwne	r1, #6466	; 0x1942
    1638:	050b0000 	streq	r0, [fp, #-0]
    163c:	3a080300 	bcc	202244 <__bss_end__+0x1f820c>
    1640:	390b3b0b 	stmdbcc	fp, {r0, r1, r3, r8, r9, fp, ip, sp}
    1644:	0213490b 	andseq	r4, r3, #180224	; 0x2c000
    1648:	1742b717 	smlaldne	fp, r2, r7, r7
    164c:	340c0000 	strcc	r0, [ip], #-0
    1650:	3a080300 	bcc	202258 <__bss_end__+0x1f8220>
    1654:	390b3b0b 	stmdbcc	fp, {r0, r1, r3, r8, r9, fp, ip, sp}
    1658:	0213490b 	andseq	r4, r3, #180224	; 0x2c000
    165c:	1742b717 	smlaldne	fp, r2, r7, r7
    1660:	01000000 	mrseq	r0, (UNDEF: 0)
    1664:	0e250111 	mcreq	1, 1, r0, cr5, cr1, {0}
    1668:	0e030b13 	vmoveq.32	d3[0], r0
    166c:	01110e1b 	tsteq	r1, fp, lsl lr
    1670:	17100612 			; <UNDEFINED> instruction: 0x17100612
    1674:	24020000 	strcs	r0, [r2], #-0
    1678:	3e0b0b00 	vmlacc.f64	d0, d11, d0
    167c:	0008030b 	andeq	r0, r8, fp, lsl #6
    1680:	00240300 	eoreq	r0, r4, r0, lsl #6
    1684:	0b3e0b0b 	bleq	f842b8 <__bss_end__+0xf7a280>
    1688:	00000e03 	andeq	r0, r0, r3, lsl #28
    168c:	27011504 	strcs	r1, [r1, -r4, lsl #10]
    1690:	01134919 	tsteq	r3, r9, lsl r9
    1694:	05000013 	streq	r0, [r0, #-19]	; 0xffffffed
    1698:	13490005 	movtne	r0, #36869	; 0x9005
    169c:	34060000 	strcc	r0, [r6], #-0
    16a0:	3a0e0300 	bcc	3822a8 <__bss_end__+0x378270>
    16a4:	390b3b0b 	stmdbcc	fp, {r0, r1, r3, r8, r9, fp, ip, sp}
    16a8:	3f13490b 	svccc	0x0013490b
    16ac:	00193c19 	andseq	r3, r9, r9, lsl ip
    16b0:	000f0700 	andeq	r0, pc, r0, lsl #14
    16b4:	13490b0b 	movtne	r0, #39691	; 0x9b0b
    16b8:	26080000 	strcs	r0, [r8], -r0
    16bc:	00134900 	andseq	r4, r3, r0, lsl #18
    16c0:	002e0900 	eoreq	r0, lr, r0, lsl #18
    16c4:	0e03193f 			; <UNDEFINED> instruction: 0x0e03193f
    16c8:	0b3b0b3a 	bleq	ec43b8 <__bss_end__+0xeba380>
    16cc:	19270b39 	stmdbne	r7!, {r0, r3, r4, r5, r8, r9, fp}
    16d0:	06120111 			; <UNDEFINED> instruction: 0x06120111
    16d4:	42971840 	addsmi	r1, r7, #64, 16	; 0x400000
    16d8:	00000019 	andeq	r0, r0, r9, lsl r0

Disassembly of section .debug_loc:

00000000 <.debug_loc>:
       0:	00000002 	andeq	r0, r0, r2
       4:	01000000 	mrseq	r0, (UNDEF: 0)
       8:	00440001 	subeq	r0, r4, r1
       c:	00540000 	subseq	r0, r4, r0
      10:	00020000 	andeq	r0, r2, r0
      14:	00549f30 	subseq	r9, r4, r0, lsr pc
      18:	00680000 	rsbeq	r0, r8, r0
      1c:	00010000 	andeq	r0, r1, r0
      20:	00006854 	andeq	r6, r0, r4, asr r8
      24:	00006b00 	andeq	r6, r0, r0, lsl #22
      28:	51000100 	mrspl	r0, (UNDEF: 16)
      2c:	0000006b 	andeq	r0, r0, fp, rrx
      30:	0000006c 	andeq	r0, r0, ip, rrx
      34:	7f740003 	svcvc	0x00740003
      38:	00006c9f 	muleq	r0, pc, ip	; <UNPREDICTABLE>
      3c:	00009800 	andeq	r9, r0, r0, lsl #16
      40:	54000100 	strpl	r0, [r0], #-256	; 0xffffff00
	...
      4c:	00000002 	andeq	r0, r0, r2
      50:	01000000 	mrseq	r0, (UNDEF: 0)
      54:	00900001 	addseq	r0, r0, r1
      58:	00a00000 	adceq	r0, r0, r0
      5c:	00020000 	andeq	r0, r2, r0
      60:	00a09f30 	adceq	r9, r0, r0, lsr pc
      64:	00b40000 	adcseq	r0, r4, r0
      68:	00010000 	andeq	r0, r1, r0
      6c:	0000b454 	andeq	fp, r0, r4, asr r4
      70:	0000b700 	andeq	fp, r0, r0, lsl #14
      74:	51000100 	mrspl	r0, (UNDEF: 16)
      78:	000000b7 	strheq	r0, [r0], -r7
      7c:	000000b8 	strheq	r0, [r0], -r8
      80:	7f740003 	svcvc	0x00740003
      84:	0000b89f 	muleq	r0, pc, r8	; <UNPREDICTABLE>
      88:	0000e000 	andeq	lr, r0, r0
      8c:	54000100 	strpl	r0, [r0], #-256	; 0xffffff00
	...
      98:	00000002 	andeq	r0, r0, r2
      9c:	01000000 	mrseq	r0, (UNDEF: 0)
      a0:	00dc0001 	sbcseq	r0, ip, r1
      a4:	00e40000 	rsceq	r0, r4, r0
      a8:	00020000 	andeq	r0, r2, r0
      ac:	00e49f30 	rsceq	r9, r4, r0, lsr pc
      b0:	00f80000 	rscseq	r0, r8, r0
      b4:	00010000 	andeq	r0, r1, r0
      b8:	0000f854 	andeq	pc, r0, r4, asr r8	; <UNPREDICTABLE>
      bc:	0000fb00 	andeq	pc, r0, r0, lsl #22
      c0:	51000100 	mrspl	r0, (UNDEF: 16)
      c4:	000000fb 	strdeq	r0, [r0], -fp
      c8:	000000fc 	strdeq	r0, [r0], -ip
      cc:	7f740003 	svcvc	0x00740003
      d0:	0000fc9f 	muleq	r0, pc, ip	; <UNPREDICTABLE>
      d4:	00012800 	andeq	r2, r1, r0, lsl #16
      d8:	54000100 	strpl	r0, [r0], #-256	; 0xffffff00
	...
      e4:	00000001 	andeq	r0, r0, r1
      e8:	000001a8 	andeq	r0, r0, r8, lsr #3
      ec:	000001ac 	andeq	r0, r0, ip, lsr #3
      f0:	9f300002 	svcls	0x00300002
      f4:	000001b4 			; <UNDEFINED> instruction: 0x000001b4
      f8:	000001c4 	andeq	r0, r0, r4, asr #3
      fc:	00500001 	subseq	r0, r0, r1
	...
     108:	52522929 	subspl	r2, r2, #671744	; 0xa4000
     10c:	01005555 	tsteq	r0, r5, asr r5
     110:	53532a2a 	cmppl	r3, #172032	; 0x2a000
     114:	00005555 	andeq	r5, r0, r5, asr r5
     118:	09090606 	stmdbeq	r9, {r1, r2, r9, sl}
     11c:	29290000 	stmdbcs	r9!, {}	; <UNPREDICTABLE>
     120:	00005555 	andeq	r5, r0, r5, asr r5
     124:	2f2f0606 	svccs	0x002f0606
     128:	00003636 	andeq	r3, r0, r6, lsr r6
     12c:	0c0c0606 	stceq	6, cr0, [ip], {6}
     130:	18181212 	ldmdane	r8, {r1, r4, r9, ip}
     134:	a0001f1f 	andge	r1, r0, pc, lsl pc
     138:	a0000000 	andge	r0, r0, r0
     13c:	01000000 	mrseq	r0, (UNDEF: 0)
     140:	00a05000 	adceq	r5, r0, r0
     144:	00a00000 	adceq	r0, r0, r0
     148:	00080000 	andeq	r0, r8, r0
     14c:	f0090070 			; <UNDEFINED> instruction: 0xf0090070
     150:	9f21311a 	svcls	0x0021311a
     154:	000000a0 	andeq	r0, r0, r0, lsr #1
     158:	000000a0 	andeq	r0, r0, r0, lsr #1
     15c:	0070000b 	rsbseq	r0, r0, fp
     160:	1af9f00b 	bne	ffe7c194 <__bss_end__+0xffe7215c>
     164:	2106010a 	tstcs	r6, sl, lsl #2
     168:	0000a09f 	muleq	r0, pc, r0	; <UNPREDICTABLE>
     16c:	0000a800 	andeq	sl, r0, r0, lsl #16
     170:	70000d00 	andvc	r0, r0, r0, lsl #26
     174:	f9f00b00 			; <UNDEFINED> instruction: 0xf9f00b00
     178:	06010c1a 			; <UNDEFINED> instruction: 0x06010c1a
     17c:	9f215a00 	svcls	0x00215a00
     180:	000000b8 	strheq	r0, [r0], -r8
     184:	000000b8 	strheq	r0, [r0], -r8
     188:	9f300002 	svcls	0x00300002
     18c:	000000b8 	strheq	r0, [r0], -r8
     190:	000000b8 	strheq	r0, [r0], -r8
     194:	000a0004 	andeq	r0, sl, r4
     198:	00b89f60 	adcseq	r9, r8, r0, ror #30
     19c:	00b80000 	adcseq	r0, r8, r0
     1a0:	00040000 	andeq	r0, r4, r0
     1a4:	9f6cd80a 	svcls	0x006cd80a
     1a8:	000000b8 	strheq	r0, [r0], -r8
     1ac:	000000cc 	andeq	r0, r0, ip, asr #1
     1b0:	d80c0006 	stmdale	ip, {r1, r2}
     1b4:	9f5a006c 	svcls	0x005a006c
     1b8:	000000cc 	andeq	r0, r0, ip, asr #1
     1bc:	000000cc 	andeq	r0, r0, ip, asr #1
     1c0:	cc500001 	mrrcgt	0, 0, r0, r0, cr1	; <UNPREDICTABLE>
     1c4:	cc000000 	stcgt	0, cr0, [r0], {-0}
     1c8:	05000000 	streq	r0, [r0, #-0]
     1cc:	40007000 	andmi	r7, r0, r0
     1d0:	00cc9f21 	sbceq	r9, ip, r1, lsr #30
     1d4:	00d80000 	sbcseq	r0, r8, r0
     1d8:	00090000 	andeq	r0, r9, r0
     1dc:	100c0070 	andne	r0, ip, r0, ror r0
     1e0:	215a0000 	cmpcs	sl, r0
     1e4:	0000e89f 	muleq	r0, pc, r8	; <UNPREDICTABLE>
     1e8:	0000e800 	andeq	lr, r0, r0, lsl #16
     1ec:	50000100 	andpl	r0, r0, r0, lsl #2
     1f0:	000000e8 	andeq	r0, r0, r8, ror #1
     1f4:	000000e8 	andeq	r0, r0, r8, ror #1
     1f8:	0070000c 	rsbseq	r0, r0, ip
     1fc:	4087ff11 	addmi	pc, r7, r1, lsl pc	; <UNPREDICTABLE>
     200:	fc000a1a 	stc2	10, cr0, [r0], {26}	; <UNPREDICTABLE>
     204:	00e89f21 	rsceq	r9, r8, r1, lsr #30
     208:	00fc0000 	rscseq	r0, ip, r0
     20c:	000c0000 	andeq	r0, ip, r0
     210:	80110070 	andshi	r0, r1, r0, ror r0
     214:	0a1a4080 	beq	69041c <__bss_end__+0x6863e4>
     218:	9f21fc20 	svcls	0x0021fc20
     21c:	00000108 	andeq	r0, r0, r8, lsl #2
     220:	00000108 	andeq	r0, r0, r8, lsl #2
     224:	08500001 	ldmdaeq	r0, {r0}^
     228:	08000001 	stmdaeq	r0, {r0}
     22c:	07000001 	streq	r0, [r0, -r1]
     230:	40007000 	andmi	r7, r0, r0
     234:	9f21244a 	svcls	0x0021244a
     238:	00000108 	andeq	r0, r0, r8, lsl #2
     23c:	00000108 	andeq	r0, r0, r8, lsl #2
     240:	0070000e 	rsbseq	r0, r0, lr
     244:	43ffff11 	mvnsmi	pc, #68	; 0x44
     248:	00000c1a 	andeq	r0, r0, sl, lsl ip
     24c:	9f214008 	svcls	0x00214008
     250:	00000108 	andeq	r0, r0, r8, lsl #2
     254:	00000118 	andeq	r0, r0, r8, lsl r1
     258:	0070000f 	rsbseq	r0, r0, pc
     25c:	43ffff11 	mvnsmi	pc, #68	; 0x44
     260:	8080111a 	addhi	r1, r0, sl, lsl r1
     264:	217c80a0 	cmncs	ip, r0, lsr #1
     268:	0001249f 	muleq	r1, pc, r4	; <UNPREDICTABLE>
     26c:	00012400 	andeq	r2, r1, r0, lsl #8
     270:	50000100 	andpl	r0, r0, r0, lsl #2
     274:	00000124 	andeq	r0, r0, r4, lsr #2
     278:	00000124 	andeq	r0, r0, r4, lsr #2
     27c:	00700005 	rsbseq	r0, r0, r5
     280:	249f2131 	ldrcs	r2, [pc], #305	; 288 <__code_start__-0x7d78>
     284:	24000001 	strcs	r0, [r0], #-1
     288:	09000001 	stmdbeq	r0, {r0}
     28c:	0c007000 	stceq	0, cr7, [r0], {-0}
     290:	02000001 	andeq	r0, r0, #1, 0
     294:	01249f21 			; <UNDEFINED> instruction: 0x01249f21
     298:	01240000 			; <UNDEFINED> instruction: 0x01240000
     29c:	00090000 	andeq	r0, r9, r0
     2a0:	110c0070 	tstne	ip, r0, ror r0
     2a4:	21020000 	mrscs	r0, (UNDEF: 2)
     2a8:	0001249f 	muleq	r1, pc, r4	; <UNPREDICTABLE>
     2ac:	00012400 	andeq	r2, r1, r0, lsl #8
     2b0:	70000900 	andvc	r0, r0, r0, lsl #18
     2b4:	00130c00 	andseq	r0, r3, r0, lsl #24
     2b8:	9f210200 	svcls	0x00210200
     2bc:	00000124 	andeq	r0, r0, r4, lsr #2
     2c0:	00000130 	andeq	r0, r0, r0, lsr r1
     2c4:	00700009 	rsbseq	r0, r0, r9
     2c8:	0000130c 	andeq	r1, r0, ip, lsl #6
     2cc:	009f2103 	addseq	r2, pc, r3, lsl #2
     2d0:	00000000 	andeq	r0, r0, r0
     2d4:	53000000 	movwpl	r0, #0
     2d8:	0000a055 	andeq	sl, r0, r5, asr r0
     2dc:	0000a000 	andeq	sl, r0, r0
     2e0:	70000b00 	andvc	r0, r0, r0, lsl #22
     2e4:	f9f00b00 			; <UNDEFINED> instruction: 0xf9f00b00
     2e8:	06010a1a 			; <UNDEFINED> instruction: 0x06010a1a
     2ec:	00009f21 	andeq	r9, r0, r1, lsr #30
     2f0:	00000000 	andeq	r0, r0, r0
     2f4:	09070000 	stmdbeq	r7, {}	; <UNPREDICTABLE>
     2f8:	000000cc 	andeq	r0, r0, ip, asr #1
     2fc:	000000cc 	andeq	r0, r0, ip, asr #1
     300:	00700005 	rsbseq	r0, r0, r5
     304:	009f2140 	addseq	r2, pc, r0, asr #2
     308:	00000000 	andeq	r0, r0, r0
     30c:	2a000000 	bcs	314 <__code_start__-0x7cec>
     310:	0000e855 	andeq	lr, r0, r5, asr r8
     314:	0000e800 	andeq	lr, r0, r0, lsl #16
     318:	08000300 	stmdaeq	r0, {r8, r9}
     31c:	00009f20 	andeq	r9, r0, r0, lsr #30
     320:	00000000 	andeq	r0, r0, r0
     324:	552a0000 	strpl	r0, [sl, #-0]!
     328:	000000e8 	andeq	r0, r0, r8, ror #1
     32c:	000000e8 	andeq	r0, r0, r8, ror #1
     330:	9f390002 	svcls	0x00390002
	...
     33c:	00e8552a 	rsceq	r5, r8, sl, lsr #10
     340:	00e80000 	rsceq	r0, r8, r0
     344:	00020000 	andeq	r0, r2, r0
     348:	00009f30 	andeq	r9, r0, r0, lsr pc
     34c:	00000000 	andeq	r0, r0, r0
     350:	552a0000 	strpl	r0, [sl, #-0]!
     354:	000000e8 	andeq	r0, r0, r8, ror #1
     358:	000000e8 	andeq	r0, r0, r8, ror #1
     35c:	0070000c 	rsbseq	r0, r0, ip
     360:	4087ff11 	addmi	pc, r7, r1, lsl pc	; <UNPREDICTABLE>
     364:	fc000a1a 	stc2	10, cr0, [r0], {26}	; <UNPREDICTABLE>
     368:	00009f21 	andeq	r9, r0, r1, lsr #30
     36c:	00000000 	andeq	r0, r0, r0
     370:	55340000 	ldrpl	r0, [r4, #-0]!
     374:	000000e8 	andeq	r0, r0, r8, ror #1
     378:	000000e8 	andeq	r0, r0, r8, ror #1
     37c:	9f3a0002 	svcls	0x003a0002
	...
     388:	01083630 	tsteq	r8, r0, lsr r6
     38c:	01080000 	mrseq	r0, (UNDEF: 8)
     390:	00020000 	andeq	r0, r2, r0
     394:	00009f4f 	andeq	r9, r0, pc, asr #30
     398:	00000000 	andeq	r0, r0, r0
     39c:	36300000 	ldrtcc	r0, [r0], -r0
     3a0:	00000108 	andeq	r0, r0, r8, lsl #2
     3a4:	00000108 	andeq	r0, r0, r8, lsl #2
     3a8:	0070000e 	rsbseq	r0, r0, lr
     3ac:	43ffff11 	mvnsmi	pc, #68	; 0x44
     3b0:	00000c1a 	andeq	r0, r0, sl, lsl ip
     3b4:	9f214008 	svcls	0x00214008
	...
     3c0:	01241f19 			; <UNDEFINED> instruction: 0x01241f19
     3c4:	01240000 			; <UNDEFINED> instruction: 0x01240000
     3c8:	00020000 	andeq	r0, r2, r0
     3cc:	00009f48 	andeq	r9, r0, r8, asr #30
     3d0:	00000000 	andeq	r0, r0, r0
     3d4:	1f190000 	svcne	0x00190000
     3d8:	00000124 	andeq	r0, r0, r4, lsr #2
     3dc:	00000124 	andeq	r0, r0, r4, lsr #2
     3e0:	00700009 	rsbseq	r0, r0, r9
     3e4:	0000130c 	andeq	r1, r0, ip, lsl #6
     3e8:	009f2102 	addseq	r2, pc, r2, lsl #2
	...
     3f4:	00014008 	andeq	r4, r1, r8
     3f8:	00014000 	andeq	r4, r1, r0
     3fc:	48000200 	stmdami	r0, {r9}
     400:	0000009f 	muleq	r0, pc, r0	; <UNPREDICTABLE>
     404:	00000000 	andeq	r0, r0, r0
     408:	40080000 	andmi	r0, r8, r0
     40c:	40000001 	andmi	r0, r0, r1
     410:	01000001 	tsteq	r0, r1
     414:	00005000 	andeq	r5, r0, r0
     418:	00000000 	andeq	r0, r0, r0
     41c:	08020000 	stmdaeq	r2, {}	; <UNPREDICTABLE>
     420:	00000140 	andeq	r0, r0, r0, asr #2
     424:	00000140 	andeq	r0, r0, r0, asr #2
     428:	9f480002 	svcls	0x00480002
	...
     434:	01400802 	cmpeq	r0, r2, lsl #16
     438:	01400000 	mrseq	r0, (UNDEF: 64)
     43c:	00010000 	andeq	r0, r1, r0
     440:	00000050 	andeq	r0, r0, r0, asr r0
     444:	00000000 	andeq	r0, r0, r0
     448:	00000100 	andeq	r0, r0, r0, lsl #2
     44c:	38000000 	stmdacc	r0, {}	; <UNPREDICTABLE>
     450:	06000000 	streq	r0, [r0], -r0
     454:	07c9fa00 	strbeq	pc, [r9, r0, lsl #20]	; <UNPREDICTABLE>
     458:	009f0000 	addseq	r0, pc, r0
     45c:	00000000 	andeq	r0, r0, r0
     460:	01000000 	mrseq	r0, (UNDEF: 0)
     464:	00000000 	andeq	r0, r0, r0
     468:	00003800 	andeq	r3, r0, r0, lsl #16
     46c:	fa000600 	blx	1c74 <__code_start__-0x638c>
     470:	000007be 			; <UNDEFINED> instruction: 0x000007be
     474:	0000009f 	muleq	r0, pc, r0	; <UNPREDICTABLE>
     478:	00000000 	andeq	r0, r0, r0
     47c:	00000100 	andeq	r0, r0, r0, lsl #2
     480:	38000000 	stmdacc	r0, {}	; <UNPREDICTABLE>
     484:	06000000 	streq	r0, [r0], -r0
     488:	07b3fa00 	ldreq	pc, [r3, r0, lsl #20]!
     48c:	009f0000 	addseq	r0, pc, r0
     490:	00000000 	andeq	r0, r0, r0
     494:	01000000 	mrseq	r0, (UNDEF: 0)
     498:	00000000 	andeq	r0, r0, r0
     49c:	00003800 	andeq	r3, r0, r0, lsl #16
     4a0:	fa000600 	blx	1ca8 <__code_start__-0x6358>
     4a4:	000007a9 	andeq	r0, r0, r9, lsr #15
     4a8:	0000009f 	muleq	r0, pc, r0	; <UNPREDICTABLE>
	...
     4b4:	00003800 	andeq	r3, r0, r0, lsl #16
     4b8:	00003c00 	andeq	r3, r0, r0, lsl #24
     4bc:	50000100 	andpl	r0, r0, r0, lsl #2
     4c0:	0000003c 	andeq	r0, r0, ip, lsr r0
     4c4:	00000040 	andeq	r0, r0, r0, asr #32
     4c8:	01f30004 	mvnseq	r0, r4
     4cc:	00009f50 	andeq	r9, r0, r0, asr pc
	...
     4d8:	02440000 	subeq	r0, r4, #0, 0
     4dc:	02580000 	subseq	r0, r8, #0, 0
     4e0:	00010000 	andeq	r0, r1, r0
     4e4:	00025850 	andeq	r5, r2, r0, asr r8
     4e8:	00026c00 	andeq	r6, r2, r0, lsl #24
     4ec:	f3000400 	vshl.u8	d0, d0, d0
     4f0:	009f5001 	addseq	r5, pc, r1
	...
     4fc:	44000000 	strmi	r0, [r0], #-0
     500:	54000002 	strpl	r0, [r0], #-2
     504:	01000002 	tsteq	r0, r2
     508:	02545100 	subseq	r5, r4, #0
     50c:	026c0000 	rsbeq	r0, ip, #0, 0
     510:	00040000 	andeq	r0, r4, r0
     514:	9f5101f3 	svcls	0x005101f3
	...
     524:	00000244 	andeq	r0, r0, r4, asr #4
     528:	00000250 	andeq	r0, r0, r0, asr r2
     52c:	50520001 	subspl	r0, r2, r1
     530:	6c000002 	stcvs	0, cr0, [r0], {2}
     534:	04000002 	streq	r0, [r0], #-2
     538:	5201f300 	andpl	pc, r1, #0, 6
     53c:	0000009f 	muleq	r0, pc, r0	; <UNPREDICTABLE>
	...
     554:	38000000 	stmdacc	r0, {}	; <UNPREDICTABLE>
     558:	01000000 	mrseq	r0, (UNDEF: 0)
     55c:	00385000 	eorseq	r5, r8, r0
     560:	00ec0000 	rsceq	r0, ip, r0
     564:	00010000 	andeq	r0, r1, r0
     568:	0000ec57 	andeq	lr, r0, r7, asr ip
     56c:	00021000 	andeq	r1, r2, r0
     570:	5a000100 	bpl	978 <__code_start__-0x7688>
     574:	00000210 	andeq	r0, r0, r0, lsl r2
     578:	00000214 	andeq	r0, r0, r4, lsl r2
     57c:	14570001 	ldrbne	r0, [r7], #-1
     580:	20000002 	andcs	r0, r0, r2
     584:	04000002 	streq	r0, [r0], #-2
     588:	5001f300 	andpl	pc, r1, r0, lsl #6
     58c:	0002209f 	muleq	r2, pc, r0	; <UNPREDICTABLE>
     590:	00023000 	andeq	r3, r2, r0
     594:	50000100 	andpl	r0, r0, r0, lsl #2
     598:	00000230 	andeq	r0, r0, r0, lsr r2
     59c:	00000244 	andeq	r0, r0, r4, asr #4
     5a0:	01f30004 	mvnseq	r0, r4
     5a4:	00009f50 	andeq	r9, r0, r0, asr pc
	...
     5c0:	00000030 	andeq	r0, r0, r0, lsr r0
     5c4:	30510001 	subscc	r0, r1, r1
     5c8:	f0000000 			; <UNDEFINED> instruction: 0xf0000000
     5cc:	01000000 	mrseq	r0, (UNDEF: 0)
     5d0:	00f05600 	rscseq	r5, r0, r0, lsl #12
     5d4:	00f80000 	rscseq	r0, r8, r0
     5d8:	00010000 	andeq	r0, r1, r0
     5dc:	0000f859 	andeq	pc, r0, r9, asr r8	; <UNPREDICTABLE>
     5e0:	00021400 	andeq	r1, r2, r0, lsl #8
     5e4:	56000100 	strpl	r0, [r0], -r0, lsl #2
     5e8:	00000214 	andeq	r0, r0, r4, lsl r2
     5ec:	00000220 	andeq	r0, r0, r0, lsr #4
     5f0:	01f30004 	mvnseq	r0, r4
     5f4:	02209f51 	eoreq	r9, r0, #324	; 0x144
     5f8:	022c0000 	eoreq	r0, ip, #0, 0
     5fc:	00010000 	andeq	r0, r1, r0
     600:	00022c51 	andeq	r2, r2, r1, asr ip
     604:	00024400 	andeq	r4, r2, r0, lsl #8
     608:	f3000400 	vshl.u8	d0, d0, d0
     60c:	009f5101 	addseq	r5, pc, r1, lsl #2
	...
     620:	40000000 	andmi	r0, r0, r0
     624:	01000000 	mrseq	r0, (UNDEF: 0)
     628:	00405200 	subeq	r5, r0, r0, lsl #4
     62c:	02200000 	eoreq	r0, r0, #0, 0
     630:	00040000 	andeq	r0, r4, r0
     634:	9f5201f3 	svcls	0x005201f3
     638:	00000220 	andeq	r0, r0, r0, lsr #4
     63c:	00000228 	andeq	r0, r0, r8, lsr #4
     640:	28520001 	ldmdacs	r2, {r0}^
     644:	44000002 	strmi	r0, [r0], #-2
     648:	04000002 	streq	r0, [r0], #-2
     64c:	5201f300 	andpl	pc, r1, #0, 6
     650:	0000009f 	muleq	r0, pc, r0	; <UNPREDICTABLE>
	...
     664:	00004000 	andeq	r4, r0, r0
     668:	53000100 	movwpl	r0, #256	; 0x100
     66c:	00000040 	andeq	r0, r0, r0, asr #32
     670:	00000220 	andeq	r0, r0, r0, lsr #4
     674:	40910002 	addsmi	r0, r1, r2
     678:	00000220 	andeq	r0, r0, r0, lsr #4
     67c:	00000224 	andeq	r0, r0, r4, lsr #4
     680:	24530001 	ldrbcs	r0, [r3], #-1
     684:	44000002 	strmi	r0, [r0], #-2
     688:	02000002 	andeq	r0, r0, #2, 0
     68c:	00409100 	subeq	r9, r0, r0, lsl #2
	...
     698:	0c000000 	stceq	0, cr0, [r0], {-0}
     69c:	b0000000 	andlt	r0, r0, r0
     6a0:	01000000 	mrseq	r0, (UNDEF: 0)
     6a4:	02205400 	eoreq	r5, r0, #0, 8
     6a8:	02440000 	subeq	r0, r4, #0, 0
     6ac:	00010000 	andeq	r0, r1, r0
     6b0:	00000054 	andeq	r0, r0, r4, asr r0
     6b4:	00000000 	andeq	r0, r0, r0
     6b8:	b0000000 	andlt	r0, r0, r0
     6bc:	14000000 	strne	r0, [r0], #-0
     6c0:	02000002 	andeq	r0, r0, #2, 0
     6c4:	009f3000 	addseq	r3, pc, r0
	...
     6d4:	00001c00 	andeq	r1, r0, r0, lsl #24
     6d8:	00004000 	andeq	r4, r0, r0
     6dc:	30000200 	andcc	r0, r0, r0, lsl #4
     6e0:	0000409f 	muleq	r0, pc, r0	; <UNPREDICTABLE>
     6e4:	00005c00 	andeq	r5, r0, r0, lsl #24
     6e8:	51000100 	mrspl	r0, (UNDEF: 16)
     6ec:	00000060 	andeq	r0, r0, r0, rrx
     6f0:	000000b0 	strheq	r0, [r0], -r0	; <UNPREDICTABLE>
     6f4:	00510001 	subseq	r0, r1, r1
	...
     700:	b0000000 	andlt	r0, r0, r0
     704:	e0000000 	and	r0, r0, r0
     708:	03000000 	movweq	r0, #0
     70c:	7fb49100 	svcvc	0x00b49100
     710:	00000210 	andeq	r0, r0, r0, lsl r2
     714:	00000214 	andeq	r0, r0, r4, lsl r2
     718:	00530001 	subseq	r0, r3, r1
	...
     728:	00001c00 	andeq	r1, r0, r0, lsl #24
     72c:	00004000 	andeq	r4, r0, r0
     730:	31000200 	mrscc	r0, R8_usr
     734:	0000409f 	muleq	r0, pc, r0	; <UNPREDICTABLE>
     738:	0000b000 	andeq	fp, r0, r0
     73c:	55000100 	strpl	r0, [r0, #-256]	; 0xffffff00
     740:	000000b0 	strheq	r0, [r0], -r0	; <UNPREDICTABLE>
     744:	00000214 	andeq	r0, r0, r4, lsl r2
     748:	b8910003 	ldmlt	r1, {r0, r1}
     74c:	0000007f 	andeq	r0, r0, pc, ror r0
	...
     758:	00004400 	andeq	r4, r0, r0, lsl #8
     75c:	00006c00 	andeq	r6, r0, r0, lsl #24
     760:	53000100 	movwpl	r0, #256	; 0x100
     764:	0000006c 	andeq	r0, r0, ip, rrx
     768:	00000074 	andeq	r0, r0, r4, ror r0
     76c:	01720003 	cmneq	r2, r3
     770:	0000009f 	muleq	r0, pc, r0	; <UNPREDICTABLE>
	...
     77c:	00007400 	andeq	r7, r0, r0, lsl #8
     780:	00008000 	andeq	r8, r0, r0
     784:	52000100 	andpl	r0, r0, #0
     788:	00000080 	andeq	r0, r0, r0, lsl #1
     78c:	00000088 	andeq	r0, r0, r8, lsl #1
     790:	00770005 	rsbseq	r0, r7, r5
     794:	00220073 	eoreq	r0, r2, r3, ror r0
	...
     7a0:	00008000 	andeq	r8, r0, r0
     7a4:	00008c00 	andeq	r8, r0, r0, lsl #24
     7a8:	52000100 	andpl	r0, r0, #0
	...
     7b4:	00b00302 	adcseq	r0, r0, r2, lsl #6
     7b8:	00b00000 	adcseq	r0, r0, r0
     7bc:	00020000 	andeq	r0, r2, r0
     7c0:	00009f31 	andeq	r9, r0, r1, lsr pc
	...
     7cc:	00e00000 	rsceq	r0, r0, r0
     7d0:	00ec0000 	rsceq	r0, ip, r0
     7d4:	00010000 	andeq	r0, r1, r0
     7d8:	0000ec52 	andeq	lr, r0, r2, asr ip
     7dc:	00021400 	andeq	r1, r2, r0, lsl #8
     7e0:	91000300 	mrsls	r0, LR_irq
     7e4:	00007fb4 			; <UNDEFINED> instruction: 0x00007fb4
     7e8:	00000000 	andeq	r0, r0, r0
     7ec:	00020000 	andeq	r0, r2, r0
     7f0:	00e00000 	rsceq	r0, r0, r0
     7f4:	00ec0000 	rsceq	r0, ip, r0
     7f8:	00020000 	andeq	r0, r2, r0
     7fc:	00ec9f30 	rsceq	r9, ip, r0, lsr pc
     800:	01e80000 	mvneq	r0, r0
     804:	00020000 	andeq	r0, r2, r0
     808:	00004491 	muleq	r0, r1, r4
	...
     814:	00010000 	andeq	r0, r1, r0
     818:	000000ec 	andeq	r0, r0, ip, ror #1
     81c:	000000f8 	strdeq	r0, [r0], -r8
     820:	44910002 	ldrmi	r0, [r1], #2
     824:	000000f8 	strdeq	r0, [r0], -r8
     828:	0000019c 	muleq	r0, ip, r1
     82c:	d45b0001 	ldrble	r0, [fp], #-1
     830:	10000001 	andne	r0, r0, r1
     834:	01000002 	tsteq	r0, r2
     838:	00005b00 	andeq	r5, r0, r0, lsl #22
	...
     844:	00000138 	andeq	r0, r0, r8, lsr r1
     848:	000001f4 	strdeq	r0, [r0], -r4
     84c:	00590001 	subseq	r0, r9, r1
	...
     858:	00019000 	andeq	r9, r1, r0
     85c:	0001b400 	andeq	fp, r1, r0, lsl #8
     860:	53000100 	movwpl	r0, #256	; 0x100
	...
     870:	00000194 	muleq	r0, r4, r1
     874:	000001c0 	andeq	r0, r0, r0, asr #3
     878:	c0520001 	subsgt	r0, r2, r1
     87c:	c4000001 	strgt	r0, [r0], #-1
     880:	69000001 	stmdbvs	r0, {r0}
     884:	7c007a00 			; <UNDEFINED> instruction: 0x7c007a00
     888:	02942200 	addseq	r2, r4, #0, 4
     88c:	26402440 	strbcs	r2, [r0], -r0, asr #8
     890:	007a254f 	rsbseq	r2, sl, pc, asr #10
     894:	9422007c 	strtls	r0, [r2], #-124	; 0xffffff84
     898:	40244002 	eormi	r4, r4, r2
     89c:	007a2226 	rsbseq	r2, sl, r6, lsr #4
     8a0:	9422007c 	strtls	r0, [r2], #-124	; 0xffffff84
     8a4:	40244002 	eormi	r4, r4, r2
     8a8:	06409126 	strbeq	r9, [r0], -r6, lsr #2
     8ac:	01282930 			; <UNDEFINED> instruction: 0x01282930
     8b0:	31131600 	tstcc	r3, r0, lsl #12
     8b4:	7c007a26 			; <UNDEFINED> instruction: 0x7c007a26
     8b8:	02942200 	addseq	r2, r4, #0, 4
     8bc:	26402440 	strbcs	r2, [r0], -r0, asr #8
     8c0:	007a254f 	rsbseq	r2, sl, pc, asr #10
     8c4:	9422007c 	strtls	r0, [r2], #-124	; 0xffffff84
     8c8:	40244002 	eormi	r4, r4, r2
     8cc:	007a2226 	rsbseq	r2, sl, r6, lsr #4
     8d0:	9422007c 	strtls	r0, [r2], #-124	; 0xffffff84
     8d4:	40244002 	eormi	r4, r4, r2
     8d8:	06409126 	strbeq	r9, [r0], -r6, lsr #2
     8dc:	01282930 			; <UNDEFINED> instruction: 0x01282930
     8e0:	91131600 	tstls	r3, r0, lsl #12
     8e4:	29300640 	ldmdbcs	r0!, {r6, r9, sl}
     8e8:	16000128 	strne	r0, [r0], -r8, lsr #2
     8ec:	00009f13 	andeq	r9, r0, r3, lsl pc
     8f0:	00000000 	andeq	r0, r0, r0
     8f4:	00010000 	andeq	r0, r1, r0
     8f8:	01940000 	orrseq	r0, r4, r0
     8fc:	01ac0000 			; <UNDEFINED> instruction: 0x01ac0000
     900:	00010000 	andeq	r0, r1, r0
     904:	0001bc50 	andeq	fp, r1, r0, asr ip
     908:	0001c400 	andeq	ip, r1, r0, lsl #8
     90c:	76006900 	strvc	r6, [r0], -r0, lsl #18
     910:	22007c00 	andcs	r7, r0, #0, 24
     914:	24400294 	strbcs	r0, [r0], #-660	; 0xfffffd6c
     918:	254f2640 	strbcs	r2, [pc, #-1600]	; 2e0 <__code_start__-0x7d20>
     91c:	007c0076 	rsbseq	r0, ip, r6, ror r0
     920:	40029422 	andmi	r9, r2, r2, lsr #8
     924:	22264024 	eorcs	r4, r6, #36, 0	; 0x24
     928:	007c0076 	rsbseq	r0, ip, r6, ror r0
     92c:	40029422 	andmi	r9, r2, r2, lsr #8
     930:	91264024 			; <UNDEFINED> instruction: 0x91264024
     934:	29300640 	ldmdbcs	r0!, {r6, r9, sl}
     938:	16000128 	strne	r0, [r0], -r8, lsr #2
     93c:	76263113 			; <UNDEFINED> instruction: 0x76263113
     940:	22007c00 	andcs	r7, r0, #0, 24
     944:	24400294 	strbcs	r0, [r0], #-660	; 0xfffffd6c
     948:	254f2640 	strbcs	r2, [pc, #-1600]	; 310 <__code_start__-0x7cf0>
     94c:	007c0076 	rsbseq	r0, ip, r6, ror r0
     950:	40029422 	andmi	r9, r2, r2, lsr #8
     954:	22264024 	eorcs	r4, r6, #36, 0	; 0x24
     958:	007c0076 	rsbseq	r0, ip, r6, ror r0
     95c:	40029422 	andmi	r9, r2, r2, lsr #8
     960:	91264024 			; <UNDEFINED> instruction: 0x91264024
     964:	29300640 	ldmdbcs	r0!, {r6, r9, sl}
     968:	16000128 	strne	r0, [r0], -r8, lsr #2
     96c:	06409113 			; <UNDEFINED> instruction: 0x06409113
     970:	01282930 			; <UNDEFINED> instruction: 0x01282930
     974:	9f131600 	svcls	0x00131600
	...
     980:	00000004 	andeq	r0, r0, r4
     984:	00040001 	andeq	r0, r4, r1
     988:	000000f8 	strdeq	r0, [r0], -r8
     98c:	000000ff 	strdeq	r0, [r0], -pc	; <UNPREDICTABLE>
     990:	007a0005 	rsbseq	r0, sl, r5
     994:	14220077 	strtne	r0, [r2], #-119	; 0xffffff89
     998:	1b000001 	blne	9a4 <__code_start__-0x765c>
     99c:	05000001 	streq	r0, [r0, #-1]
     9a0:	77007600 	strvc	r7, [r0, -r0, lsl #12]
     9a4:	01382200 	teqeq	r8, r0, lsl #4
     9a8:	013f0000 	teqeq	pc, r0
     9ac:	00050000 	andeq	r0, r5, r0
     9b0:	00770076 	rsbseq	r0, r7, r6, ror r0
     9b4:	00014422 	andeq	r4, r1, r2, lsr #8
     9b8:	00014b00 	andeq	r4, r1, r0, lsl #22
     9bc:	7a000500 	bvc	1dc4 <__code_start__-0x623c>
     9c0:	22007700 	andcs	r7, r0, #0, 14
	...
     9cc:	01040001 	tsteq	r4, r1
     9d0:	01240000 			; <UNDEFINED> instruction: 0x01240000
     9d4:	00010000 	andeq	r0, r1, r0
     9d8:	00000054 	andeq	r0, r0, r4, asr r0
     9dc:	00000000 	andeq	r0, r0, r0
     9e0:	00000300 	andeq	r0, r0, r0, lsl #6
     9e4:	04000000 	streq	r0, [r0], #-0
     9e8:	0c000001 	stceq	0, cr0, [r0], {1}
     9ec:	07000001 	streq	r0, [r0, -r1]
     9f0:	3e007400 	cfcpyscc	mvf7, mvf0
     9f4:	9f1a3126 	svcls	0x001a3126
     9f8:	0000010c 	andeq	r0, r0, ip, lsl #2
     9fc:	00000110 	andeq	r0, r0, r0, lsl r1
     a00:	10550001 	subsne	r0, r5, r1
     a04:	14000001 	strne	r0, [r0], #-1
     a08:	07000001 	streq	r0, [r0, -r1]
     a0c:	3e007400 	cfcpyscc	mvf7, mvf0
     a10:	9f1a3126 	svcls	0x001a3126
	...
     a1c:	00000006 	andeq	r0, r0, r6
     a20:	00040001 	andeq	r0, r4, r1
     a24:	000000f8 	strdeq	r0, [r0], -r8
     a28:	000000ff 	strdeq	r0, [r0], -pc	; <UNPREDICTABLE>
     a2c:	007a0005 	rsbseq	r0, sl, r5
     a30:	14220077 	strtne	r0, [r2], #-119	; 0xffffff89
     a34:	1b000001 	blne	a40 <__code_start__-0x75c0>
     a38:	05000001 	streq	r0, [r0, #-1]
     a3c:	77007600 	strvc	r7, [r0, -r0, lsl #12]
     a40:	01382200 	teqeq	r8, r0, lsl #4
     a44:	013f0000 	teqeq	pc, r0
     a48:	00050000 	andeq	r0, r5, r0
     a4c:	00770076 	rsbseq	r0, r7, r6, ror r0
     a50:	00014422 	andeq	r4, r1, r2, lsr #8
     a54:	00014b00 	andeq	r4, r1, r0, lsl #22
     a58:	7a000500 	bvc	1e60 <__code_start__-0x61a0>
     a5c:	22007700 	andcs	r7, r0, #0, 14
	...
     a68:	01000007 	tsteq	r0, r7
     a6c:	000000f8 	strdeq	r0, [r0], -r8
     a70:	00000104 	andeq	r0, r0, r4, lsl #2
     a74:	9f300002 	svcls	0x00300002
     a78:	00000104 	andeq	r0, r0, r4, lsl #2
     a7c:	00000104 	andeq	r0, r0, r4, lsl #2
     a80:	00540001 	subseq	r0, r4, r1
     a84:	00000000 	andeq	r0, r0, r0
     a88:	02000000 	andeq	r0, r0, #0, 0
     a8c:	04000100 	streq	r0, [r0], #-256	; 0xffffff00
     a90:	00011400 	andeq	r1, r1, r0, lsl #8
     a94:	00011b00 	andeq	r1, r1, r0, lsl #22
     a98:	76000500 	strvc	r0, [r0], -r0, lsl #10
     a9c:	22007700 	andcs	r7, r0, #0, 14
     aa0:	00000138 	andeq	r0, r0, r8, lsr r1
     aa4:	0000013f 	andeq	r0, r0, pc, lsr r1
     aa8:	00760005 	rsbseq	r0, r6, r5
     aac:	44220077 	strtmi	r0, [r2], #-119	; 0xffffff89
     ab0:	4b000001 	blmi	abc <__code_start__-0x7544>
     ab4:	05000001 	streq	r0, [r0, #-1]
     ab8:	77007a00 	strvc	r7, [r0, -r0, lsl #20]
     abc:	00002200 	andeq	r2, r0, r0, lsl #4
     ac0:	00000000 	andeq	r0, r0, r0
     ac4:	00010000 	andeq	r0, r1, r0
     ac8:	00000120 	andeq	r0, r0, r0, lsr #2
     acc:	0000013f 	andeq	r0, r0, pc, lsr r1
     ad0:	00530001 	subseq	r0, r3, r1
     ad4:	00000000 	andeq	r0, r0, r0
     ad8:	03000000 	movweq	r0, #0
     adc:	00000000 	andeq	r0, r0, r0
     ae0:	00012000 	andeq	r2, r1, r0
     ae4:	00012800 	andeq	r2, r1, r0, lsl #16
     ae8:	73000700 	movwvc	r0, #1792	; 0x700
     aec:	31263e00 			; <UNDEFINED> instruction: 0x31263e00
     af0:	01289f1a 			; <UNDEFINED> instruction: 0x01289f1a
     af4:	012c0000 			; <UNDEFINED> instruction: 0x012c0000
     af8:	00010000 	andeq	r0, r1, r0
     afc:	00012c54 	andeq	r2, r1, r4, asr ip
     b00:	00013000 	andeq	r3, r1, r0
     b04:	73000700 	movwvc	r0, #1792	; 0x700
     b08:	31263e00 			; <UNDEFINED> instruction: 0x31263e00
     b0c:	00009f1a 	andeq	r9, r0, sl, lsl pc
     b10:	00000000 	andeq	r0, r0, r0
     b14:	00040000 	andeq	r0, r4, r0
     b18:	00040001 	andeq	r0, r4, r1
     b1c:	00000114 	andeq	r0, r0, r4, lsl r1
     b20:	0000011b 	andeq	r0, r0, fp, lsl r1
     b24:	00760005 	rsbseq	r0, r6, r5
     b28:	38220077 	stmdacc	r2!, {r0, r1, r2, r4, r5, r6}
     b2c:	3f000001 	svccc	0x00000001
     b30:	05000001 	streq	r0, [r0, #-1]
     b34:	77007600 	strvc	r7, [r0, -r0, lsl #12]
     b38:	01442200 	mrseq	r2, (UNDEF: 100)
     b3c:	014b0000 	mrseq	r0, (UNDEF: 75)
     b40:	00050000 	andeq	r0, r5, r0
     b44:	0077007a 	rsbseq	r0, r7, sl, ror r0
     b48:	00000022 	andeq	r0, r0, r2, lsr #32
     b4c:	00000000 	andeq	r0, r0, r0
     b50:	00000500 	andeq	r0, r0, r0, lsl #10
     b54:	00011401 	andeq	r1, r1, r1, lsl #8
     b58:	00012000 	andeq	r2, r1, r0
     b5c:	30000200 	andcc	r0, r0, r0, lsl #4
     b60:	0001209f 	muleq	r1, pc, r0	; <UNPREDICTABLE>
     b64:	00012000 	andeq	r2, r1, r0
     b68:	53000100 	movwpl	r0, #256	; 0x100
	...
     b74:	00040002 	andeq	r0, r4, r2
     b78:	00000138 	andeq	r0, r0, r8, lsr r1
     b7c:	0000013f 	andeq	r0, r0, pc, lsr r1
     b80:	00760005 	rsbseq	r0, r6, r5
     b84:	44220077 	strtmi	r0, [r2], #-119	; 0xffffff89
     b88:	4b000001 	blmi	b94 <__code_start__-0x746c>
     b8c:	05000001 	streq	r0, [r0, #-1]
     b90:	77007a00 	strvc	r7, [r0, -r0, lsl #20]
     b94:	00002200 	andeq	r2, r0, r0, lsl #4
     b98:	00000000 	andeq	r0, r0, r0
     b9c:	00010000 	andeq	r0, r1, r0
     ba0:	00000144 	andeq	r0, r0, r4, asr #2
     ba4:	00000214 	andeq	r0, r0, r4, lsl r2
     ba8:	00580001 	subseq	r0, r8, r1
     bac:	00000000 	andeq	r0, r0, r0
     bb0:	03000000 	movweq	r0, #0
     bb4:	00014404 	andeq	r4, r1, r4, lsl #8
     bb8:	00014400 	andeq	r4, r1, r0, lsl #8
     bbc:	78000700 	stmdavc	r0, {r8, r9, sl}
     bc0:	31263e00 			; <UNDEFINED> instruction: 0x31263e00
     bc4:	00009f1a 	andeq	r9, r0, sl, lsl pc
     bc8:	00000000 	andeq	r0, r0, r0
     bcc:	00040000 	andeq	r0, r4, r0
     bd0:	01380004 	teqeq	r8, r4
     bd4:	013f0000 	teqeq	pc, r0
     bd8:	00050000 	andeq	r0, r5, r0
     bdc:	00770076 	rsbseq	r0, r7, r6, ror r0
     be0:	00014422 	andeq	r4, r1, r2, lsr #8
     be4:	00014b00 	andeq	r4, r1, r0, lsl #22
     be8:	7a000500 	bvc	1ff0 <__code_start__-0x6010>
     bec:	22007700 	andcs	r7, r0, #0, 14
	...
     bf8:	01000005 	tsteq	r0, r5
     bfc:	00000138 	andeq	r0, r0, r8, lsr r1
     c00:	00000144 	andeq	r0, r0, r4, asr #2
     c04:	9f300002 	svcls	0x00300002
     c08:	00000144 	andeq	r0, r0, r4, asr #2
     c0c:	00000144 	andeq	r0, r0, r4, asr #2
     c10:	00580001 	subseq	r0, r8, r1
     c14:	00000000 	andeq	r0, r0, r0
     c18:	06000000 	streq	r0, [r0], -r0
     c1c:	00014400 	andeq	r4, r1, r0, lsl #8
     c20:	00014b00 	andeq	r4, r1, r0, lsl #22
     c24:	7a000500 	bvc	202c <__code_start__-0x5fd4>
     c28:	22007700 	andcs	r7, r0, #0, 14
	...
     c34:	01500001 	cmpeq	r0, r1
     c38:	01680000 	cmneq	r8, r0
     c3c:	00010000 	andeq	r0, r1, r0
     c40:	00000050 	andeq	r0, r0, r0, asr r0
     c44:	00000000 	andeq	r0, r0, r0
     c48:	50040300 	andpl	r0, r4, r0, lsl #6
     c4c:	50000001 	andpl	r0, r0, r1
     c50:	07000001 	streq	r0, [r0, -r1]
     c54:	3e007000 	cdpcc	0, 0, cr7, cr0, cr0, {0}
     c58:	9f1a3126 	svcls	0x001a3126
	...
     c64:	01440008 	cmpeq	r4, r8
     c68:	014b0000 	mrseq	r0, (UNDEF: 75)
     c6c:	00050000 	andeq	r0, r5, r0
     c70:	0077007a 	rsbseq	r0, r7, sl, ror r0
     c74:	00000022 	andeq	r0, r0, r2, lsr #32
     c78:	00000000 	andeq	r0, r0, r0
     c7c:	00000900 	andeq	r0, r0, r0, lsl #18
     c80:	00014401 	andeq	r4, r1, r1, lsl #8
     c84:	00015000 	andeq	r5, r1, r0
     c88:	30000200 	andcc	r0, r0, r0, lsl #4
     c8c:	0001509f 	muleq	r1, pc, r0	; <UNPREDICTABLE>
     c90:	00015000 	andeq	r5, r1, r0
     c94:	50000100 	andpl	r0, r0, r0, lsl #2
	...
     ca8:	00000004 	andeq	r0, r0, r4
     cac:	04520001 	ldrbeq	r0, [r2], #-1
     cb0:	18000000 	stmdane	r0, {}	; <UNPREDICTABLE>
     cb4:	04000000 	streq	r0, [r0], #-0
     cb8:	5201f300 	andpl	pc, r1, #0, 6
     cbc:	0000009f 	muleq	r0, pc, r0	; <UNPREDICTABLE>
     cc0:	00000000 	andeq	r0, r0, r0
     cc4:	00000200 	andeq	r0, r0, r0, lsl #4
     cc8:	00000101 	andeq	r0, r0, r1, lsl #2
     ccc:	00000000 	andeq	r0, r0, r0
     cd0:	00000800 	andeq	r0, r0, r0, lsl #16
     cd4:	50000100 	andpl	r0, r0, r0, lsl #2
     cd8:	00000008 	andeq	r0, r0, r8
     cdc:	00000010 	andeq	r0, r0, r0, lsl r0
     ce0:	10530001 	subsne	r0, r3, r1
     ce4:	14000000 	strne	r0, [r0], #-0
     ce8:	03000000 	movweq	r0, #0
     cec:	9f017300 	svcls	0x00017300
     cf0:	00000014 	andeq	r0, r0, r4, lsl r0
     cf4:	00000018 	andeq	r0, r0, r8, lsl r0
     cf8:	00530001 	subseq	r0, r3, r1
	...
     d04:	00000400 	andeq	r0, r0, r0, lsl #8
     d08:	00001800 	andeq	r1, r0, r0, lsl #16
     d0c:	52000100 	andpl	r0, r0, #0
	...
     d1c:	002c0000 	eoreq	r0, ip, r0
     d20:	00380000 	eorseq	r0, r8, r0
     d24:	00010000 	andeq	r0, r1, r0
     d28:	00003850 	andeq	r3, r0, r0, asr r8
     d2c:	00004800 	andeq	r4, r0, r0, lsl #16
     d30:	54000100 	strpl	r0, [r0], #-256	; 0xffffff00
     d34:	00000048 	andeq	r0, r0, r8, asr #32
     d38:	00000058 	andeq	r0, r0, r8, asr r0
     d3c:	00500001 	subseq	r0, r0, r1
	...
     d48:	00000101 	andeq	r0, r0, r1, lsl #2
     d4c:	08000000 	stmdaeq	r0, {}	; <UNPREDICTABLE>
     d50:	01000000 	mrseq	r0, (UNDEF: 0)
     d54:	00085000 	andeq	r5, r8, r0
     d58:	00340000 	eorseq	r0, r4, r0
     d5c:	00010000 	andeq	r0, r1, r0
     d60:	00000054 	andeq	r0, r0, r4, asr r0
	...
     d6c:	88000000 	stmdahi	r0, {}	; <UNPREDICTABLE>
     d70:	b8000002 	stmdalt	r0, {r1}
     d74:	01000002 	tsteq	r0, r2
     d78:	02b85000 	adcseq	r5, r8, #0, 0
     d7c:	07040000 	streq	r0, [r4, -r0]
     d80:	00010000 	andeq	r0, r1, r0
     d84:	00070459 	andeq	r0, r7, r9, asr r4
     d88:	00074000 	andeq	r4, r7, r0
     d8c:	f3000400 	vshl.u8	d0, d0, d0
     d90:	009f5001 	addseq	r5, pc, r1
	...
     da0:	00028800 	andeq	r8, r2, r0, lsl #16
     da4:	0002a000 	andeq	sl, r2, r0
     da8:	51000100 	mrspl	r0, (UNDEF: 16)
     dac:	000002a0 	andeq	r0, r0, r0, lsr #5
     db0:	000002b8 			; <UNDEFINED> instruction: 0x000002b8
     db4:	01710003 	cmneq	r1, r3
     db8:	0002b89f 	muleq	r2, pc, r8	; <UNPREDICTABLE>
     dbc:	00074000 	andeq	r4, r7, r0
     dc0:	f3000400 	vshl.u8	d0, d0, d0
     dc4:	009f5101 	addseq	r5, pc, r1, lsl #2
	...
     dd8:	88000000 	stmdahi	r0, {}	; <UNPREDICTABLE>
     ddc:	b8000002 	stmdalt	r0, {r1}
     de0:	01000002 	tsteq	r0, r2
     de4:	02b85200 	adcseq	r5, r8, #0, 4
     de8:	03ec0000 	mvneq	r0, #0, 0
     dec:	00010000 	andeq	r0, r1, r0
     df0:	0003ec56 	andeq	lr, r3, r6, asr ip
     df4:	0004b800 	andeq	fp, r4, r0, lsl #16
     df8:	5b000100 	blpl	1200 <__code_start__-0x6e00>
     dfc:	000004b8 			; <UNDEFINED> instruction: 0x000004b8
     e00:	000004d8 	ldrdeq	r0, [r0], -r8
     e04:	d8560001 	ldmdale	r6, {r0}^
     e08:	5c000004 	stcpl	0, cr0, [r0], {4}
     e0c:	01000005 	tsteq	r0, r5
     e10:	055c5b00 	ldrbeq	r5, [ip, #-2816]	; 0xfffff500
     e14:	07040000 	streq	r0, [r4, -r0]
     e18:	00010000 	andeq	r0, r1, r0
     e1c:	00000056 	andeq	r0, r0, r6, asr r0
     e20:	00000000 	andeq	r0, r0, r0
     e24:	00000100 	andeq	r0, r0, r0, lsl #2
     e28:	00000000 	andeq	r0, r0, r0
     e2c:	00000101 	andeq	r0, r0, r1, lsl #2
     e30:	00000000 	andeq	r0, r0, r0
     e34:	00000202 	andeq	r0, r0, r2, lsl #4
     e38:	00029c00 	andeq	r9, r2, r0, lsl #24
     e3c:	0002b800 	andeq	fp, r2, r0, lsl #16
     e40:	50000100 	andpl	r0, r0, r0, lsl #2
     e44:	000002b8 			; <UNDEFINED> instruction: 0x000002b8
     e48:	000002bc 			; <UNDEFINED> instruction: 0x000002bc
     e4c:	bc540001 	mrrclt	0, 0, r0, r4, cr1
     e50:	c0000002 	andgt	r0, r0, r2
     e54:	03000002 	movweq	r0, #2
     e58:	9f017400 	svcls	0x00017400
     e5c:	000002c0 	andeq	r0, r0, r0, asr #5
     e60:	000002e4 	andeq	r0, r0, r4, ror #5
     e64:	e4540001 	ldrb	r0, [r4], #-1
     e68:	e8000002 	stmda	r0, {r1}
     e6c:	03000002 	movweq	r0, #2
     e70:	9f017400 	svcls	0x00017400
     e74:	000002e8 	andeq	r0, r0, r8, ror #5
     e78:	000006d4 	ldrdeq	r0, [r0], -r4
     e7c:	d4540001 	ldrble	r0, [r4], #-1
     e80:	d8000006 	stmdale	r0, {r1, r2}
     e84:	03000006 	movweq	r0, #6
     e88:	9f017400 	svcls	0x00017400
     e8c:	000006d8 	ldrdeq	r0, [r0], -r8
     e90:	000006f0 	strdeq	r0, [r0], -r0	; <UNPREDICTABLE>
     e94:	f0540001 			; <UNDEFINED> instruction: 0xf0540001
     e98:	f8000006 			; <UNDEFINED> instruction: 0xf8000006
     e9c:	03000006 	movweq	r0, #6
     ea0:	9f017400 	svcls	0x00017400
     ea4:	000006f8 	strdeq	r0, [r0], -r8
     ea8:	00000704 	andeq	r0, r0, r4, lsl #14
     eac:	00540001 	subseq	r0, r4, r1
	...
     eb8:	a4000000 	strge	r0, [r0], #-0
     ebc:	04000002 	streq	r0, [r0], #-2
     ec0:	01000007 	tsteq	r0, r7
     ec4:	07045800 	streq	r5, [r4, -r0, lsl #16]
     ec8:	07400000 	strbeq	r0, [r0, -r0]
     ecc:	000a0000 	andeq	r0, sl, r0
     ed0:	f35101f3 	vbsl	q8, <illegal reg q8.5>, <illegal reg q9.5>
     ed4:	31225001 			; <UNDEFINED> instruction: 0x31225001
     ed8:	00009f1c 	andeq	r9, r0, ip, lsl pc
     edc:	00000000 	andeq	r0, r0, r0
     ee0:	00010000 	andeq	r0, r1, r0
     ee4:	00000000 	andeq	r0, r0, r0
     ee8:	00000408 	andeq	r0, r0, r8, lsl #8
     eec:	00000474 	andeq	r0, r0, r4, ror r4
     ef0:	d8570001 	ldmdale	r7, {r0}^
     ef4:	fc000004 	stc2	0, cr0, [r0], {4}
     ef8:	01000004 	tsteq	r0, r4
     efc:	05405700 	strbeq	r5, [r0, #-1792]	; 0xfffff900
     f00:	055c0000 	ldrbeq	r0, [ip, #-0]
     f04:	00010000 	andeq	r0, r1, r0
     f08:	00000057 	andeq	r0, r0, r7, asr r0
     f0c:	00000000 	andeq	r0, r0, r0
     f10:	00000200 	andeq	r0, r0, r0, lsl #4
     f14:	00040800 	andeq	r0, r4, r0, lsl #16
     f18:	0004b800 	andeq	fp, r4, r0, lsl #16
     f1c:	5a000100 	bpl	1324 <__code_start__-0x6cdc>
     f20:	000004d8 	ldrdeq	r0, [r0], -r8
     f24:	0000055c 	andeq	r0, r0, ip, asr r5
     f28:	005a0001 	subseq	r0, sl, r1
     f2c:	00000000 	andeq	r0, r0, r0
     f30:	01000000 	mrseq	r0, (UNDEF: 0)
     f34:	ac000000 	stcge	0, cr0, [r0], {-0}
     f38:	b8000002 	stmdalt	r0, {r1}
     f3c:	01000002 	tsteq	r0, r2
     f40:	02b85200 	adcseq	r5, r8, #0, 4
     f44:	07400000 	strbeq	r0, [r0, -r0]
     f48:	00030000 	andeq	r0, r3, r0
     f4c:	007dc891 			; <UNDEFINED> instruction: 0x007dc891
	...
     f60:	00000101 	andeq	r0, r0, r1, lsl #2
	...
     f6c:	00047400 	andeq	r7, r4, r0, lsl #8
     f70:	00048c00 	andeq	r8, r4, r0, lsl #24
     f74:	50000100 	andpl	r0, r0, r0, lsl #2
     f78:	0000048c 	andeq	r0, r0, ip, lsl #9
     f7c:	000004b8 			; <UNDEFINED> instruction: 0x000004b8
     f80:	fc570001 	mrrc2	0, 0, r0, r7, cr1
     f84:	14000004 	strne	r0, [r0], #-4
     f88:	01000005 	tsteq	r0, r5
     f8c:	05145000 	ldreq	r5, [r4, #-0]
     f90:	05400000 	strbeq	r0, [r0, #-0]
     f94:	00010000 	andeq	r0, r1, r0
     f98:	0005a457 	andeq	sl, r5, r7, asr r4
     f9c:	0005a400 	andeq	sl, r5, r0, lsl #8
     fa0:	50000100 	andpl	r0, r0, r0, lsl #2
     fa4:	000005a4 	andeq	r0, r0, r4, lsr #11
     fa8:	000005ac 	andeq	r0, r0, ip, lsr #11
     fac:	dc570001 	mrrcle	0, 0, r0, r7, cr1
     fb0:	e0000005 	and	r0, r0, r5
     fb4:	01000005 	tsteq	r0, r5
     fb8:	06105000 	ldreq	r5, [r0], -r0
     fbc:	06140000 	ldreq	r0, [r4], -r0
     fc0:	00010000 	andeq	r0, r1, r0
     fc4:	00064450 	andeq	r4, r6, r0, asr r4
     fc8:	00064800 	andeq	r4, r6, r0, lsl #16
     fcc:	50000100 	andpl	r0, r0, r0, lsl #2
     fd0:	0000068c 	andeq	r0, r0, ip, lsl #13
     fd4:	00000690 	muleq	r0, r0, r6
     fd8:	d0500001 	subsle	r0, r0, r1
     fdc:	f0000006 			; <UNDEFINED> instruction: 0xf0000006
     fe0:	01000006 	tsteq	r0, r6
     fe4:	00005700 	andeq	r5, r0, r0, lsl #14
     fe8:	00000000 	andeq	r0, r0, r0
     fec:	00020000 	andeq	r0, r2, r0
     ff0:	00000000 	andeq	r0, r0, r0
     ff4:	000002f4 	strdeq	r0, [r0], -r4
     ff8:	000002f8 	strdeq	r0, [r0], -r8
     ffc:	9f300002 	svcls	0x00300002
    1000:	000002f8 	strdeq	r0, [r0], -r8
    1004:	00000314 	andeq	r0, r0, r4, lsl r3
    1008:	1c550001 	mrrcne	0, 0, r0, r5, cr1
    100c:	f0000003 			; <UNDEFINED> instruction: 0xf0000003
    1010:	01000006 	tsteq	r0, r6
    1014:	00005500 	andeq	r5, r0, r0, lsl #10
    1018:	00000000 	andeq	r0, r0, r0
    101c:	00010000 	andeq	r0, r1, r0
	...
    1028:	000003b8 			; <UNDEFINED> instruction: 0x000003b8
    102c:	00000454 	andeq	r0, r0, r4, asr r4
    1030:	54560001 	ldrbpl	r0, [r6], #-1
    1034:	b8000004 	stmdalt	r0, {r2}
    1038:	03000004 	movweq	r0, #4
    103c:	9f7e7b00 	svcls	0x007e7b00
    1040:	000004b8 			; <UNDEFINED> instruction: 0x000004b8
    1044:	000004dc 	ldrdeq	r0, [r0], -ip
    1048:	dc560001 	mrrcle	0, 0, r0, r6, cr1
    104c:	40000004 	andmi	r0, r0, r4
    1050:	03000005 	movweq	r0, #5
    1054:	9f7e7b00 	svcls	0x007e7b00
    1058:	00000540 	andeq	r0, r0, r0, asr #10
    105c:	0000055c 	andeq	r0, r0, ip, asr r5
    1060:	00560001 	subseq	r0, r6, r1
	...
    1070:	00007000 	andeq	r7, r0, r0
    1074:	00009400 	andeq	r9, r0, r0, lsl #8
    1078:	50000100 	andpl	r0, r0, r0, lsl #2
    107c:	00000094 	muleq	r0, r4, r0
    1080:	000000fc 	strdeq	r0, [r0], -ip
    1084:	02700003 	rsbseq	r0, r0, #3, 0
    1088:	0000fc9f 	muleq	r0, pc, ip	; <UNPREDICTABLE>
    108c:	00022400 	andeq	r2, r2, r0, lsl #8
    1090:	f3000400 	vshl.u8	d0, d0, d0
    1094:	009f5001 	addseq	r5, pc, r1
	...
    10ac:	70000000 	andvc	r0, r0, r0
    10b0:	e0000000 	and	r0, r0, r0
    10b4:	01000000 	mrseq	r0, (UNDEF: 0)
    10b8:	00e05100 	rsceq	r5, r0, r0, lsl #2
    10bc:	01540000 	cmpeq	r4, r0
    10c0:	00010000 	andeq	r0, r1, r0
    10c4:	00015455 	andeq	r5, r1, r5, asr r4
    10c8:	00015800 	andeq	r5, r1, r0, lsl #16
    10cc:	51000100 	mrspl	r0, (UNDEF: 16)
    10d0:	00000158 	andeq	r0, r0, r8, asr r1
    10d4:	000001b0 			; <UNDEFINED> instruction: 0x000001b0
    10d8:	b0550001 	subslt	r0, r5, r1
    10dc:	c0000001 	andgt	r0, r0, r1
    10e0:	01000001 	tsteq	r0, r1
    10e4:	01c05100 	biceq	r5, r0, r0, lsl #2
    10e8:	01e40000 	mvneq	r0, r0
    10ec:	00010000 	andeq	r0, r1, r0
    10f0:	0001e455 	andeq	lr, r1, r5, asr r4
    10f4:	0001f800 	andeq	pc, r1, r0, lsl #16
    10f8:	51000100 	mrspl	r0, (UNDEF: 16)
    10fc:	000001f8 	strdeq	r0, [r0], -r8
    1100:	00000224 	andeq	r0, r0, r4, lsr #4
    1104:	00550001 	subseq	r0, r5, r1
	...
    1110:	70000000 	andvc	r0, r0, r0
    1114:	84000000 	strhi	r0, [r0], #-0
    1118:	01000000 	mrseq	r0, (UNDEF: 0)
    111c:	00845200 	addeq	r5, r4, r0, lsl #4
    1120:	02240000 	eoreq	r0, r4, #0, 0
    1124:	00010000 	andeq	r0, r1, r0
    1128:	00000054 	andeq	r0, r0, r4, asr r0
	...
    1134:	00010000 	andeq	r0, r1, r0
    1138:	00000000 	andeq	r0, r0, r0
    113c:	00007000 	andeq	r7, r0, r0
    1140:	0000f400 	andeq	pc, r0, r0, lsl #8
    1144:	53000100 	movwpl	r0, #256	; 0x100
    1148:	0000014c 	andeq	r0, r0, ip, asr #2
    114c:	00000180 	andeq	r0, r0, r0, lsl #3
    1150:	80530001 	subshi	r0, r3, r1
    1154:	8c000001 	stchi	0, cr0, [r0], {1}
    1158:	04000001 	streq	r0, [r0], #-1
    115c:	5301f300 	movwpl	pc, #4864	; 0x1300	; <UNPREDICTABLE>
    1160:	0001b09f 	muleq	r1, pc, r0	; <UNPREDICTABLE>
    1164:	0001e800 	andeq	lr, r1, r0, lsl #16
    1168:	53000100 	movwpl	r0, #256	; 0x100
    116c:	000001e8 	andeq	r0, r0, r8, ror #3
    1170:	000001ff 	strdeq	r0, [r0], -pc	; <UNPREDICTABLE>
    1174:	ff5c0001 			; <UNDEFINED> instruction: 0xff5c0001
    1178:	24000001 	strcs	r0, [r0], #-1
    117c:	04000002 	streq	r0, [r0], #-2
    1180:	5301f300 	movwpl	pc, #4864	; 0x1300	; <UNPREDICTABLE>
    1184:	0000009f 	muleq	r0, pc, r0	; <UNPREDICTABLE>
	...
    1190:	70000000 	andvc	r0, r0, r0
    1194:	8c000000 	stchi	0, cr0, [r0], {-0}
    1198:	02000000 	andeq	r0, r0, #0, 0
    119c:	8c009100 	stfhid	f1, [r0], {-0}
    11a0:	93000000 	movwls	r0, #0
    11a4:	01000001 	tsteq	r0, r1
    11a8:	01b05200 	lslseq	r5, r0, #4
    11ac:	01f40000 	mvnseq	r0, r0
    11b0:	00010000 	andeq	r0, r1, r0
    11b4:	00000052 	andeq	r0, r0, r2, asr r0
    11b8:	00000000 	andeq	r0, r0, r0
    11bc:	00000100 	andeq	r0, r0, r0, lsl #2
    11c0:	00000101 	andeq	r0, r0, r1, lsl #2
    11c4:	00000000 	andeq	r0, r0, r0
    11c8:	01010000 	mrseq	r0, (UNDEF: 1)
    11cc:	00000101 	andeq	r0, r0, r1, lsl #2
    11d0:	00000101 	andeq	r0, r0, r1, lsl #2
	...
    11dc:	00008c00 	andeq	r8, r0, r0, lsl #24
    11e0:	0000fc00 	andeq	pc, r0, r0, lsl #24
    11e4:	91000400 	tstls	r0, r0, lsl #8
    11e8:	fc9f7fa0 	ldc2	15, cr7, [pc], {160}	; 0xa0
    11ec:	3c000000 	stccc	0, cr0, [r0], {-0}
    11f0:	01000001 	tsteq	r0, r1
    11f4:	013c5000 	teqeq	ip, r0
    11f8:	01480000 	mrseq	r0, (UNDEF: 72)
    11fc:	00030000 	andeq	r0, r3, r0
    1200:	489f0271 	ldmmi	pc, {r0, r4, r5, r6, r9}	; <UNPREDICTABLE>
    1204:	4c000001 	stcmi	0, cr0, [r0], {1}
    1208:	01000001 	tsteq	r0, r1
    120c:	014c5000 	mrseq	r5, (UNDEF: 76)
    1210:	01580000 	cmpeq	r8, r0
    1214:	00040000 	andeq	r0, r4, r0
    1218:	9f7fa091 	svcls	0x007fa091
    121c:	00000158 	andeq	r0, r0, r8, asr r1
    1220:	0000016c 	andeq	r0, r0, ip, ror #2
    1224:	6c510001 	mrrcvs	0, 0, r0, r1, cr1
    1228:	78000001 	stmdavc	r0, {r0}
    122c:	03000001 	movweq	r0, #1
    1230:	9f7f7100 	svcls	0x007f7100
    1234:	00000178 	andeq	r0, r0, r8, ror r1
    1238:	00000184 	andeq	r0, r0, r4, lsl #3
    123c:	01710003 	cmneq	r1, r3
    1240:	0001849f 	muleq	r1, pc, r4	; <UNPREDICTABLE>
    1244:	00019300 	andeq	r9, r1, r0, lsl #6
    1248:	50000100 	andpl	r0, r0, r0, lsl #2
    124c:	000001b0 			; <UNDEFINED> instruction: 0x000001b0
    1250:	000001b0 			; <UNDEFINED> instruction: 0x000001b0
    1254:	a0910004 	addsge	r0, r1, r4
    1258:	01b09f7f 	rorseq	r9, pc, pc
    125c:	01b80000 			; <UNDEFINED> instruction: 0x01b80000
    1260:	00040000 	andeq	r0, r4, r0
    1264:	9f7fa191 	svcls	0x007fa191
    1268:	000001b8 			; <UNDEFINED> instruction: 0x000001b8
    126c:	000001bc 			; <UNDEFINED> instruction: 0x000001bc
    1270:	bc500001 	mrrclt	0, 0, r0, r0, cr1	; <UNPREDICTABLE>
    1274:	c0000001 	andgt	r0, r0, r1
    1278:	04000001 	streq	r0, [r0], #-1
    127c:	7fa09100 	svcvc	0x00a09100
    1280:	0001c09f 	muleq	r1, pc, r0	; <UNPREDICTABLE>
    1284:	0001d400 	andeq	sp, r1, r0, lsl #8
    1288:	50000100 	andpl	r0, r0, r0, lsl #2
    128c:	000001d4 	ldrdeq	r0, [r0], -r4
    1290:	000001e4 	andeq	r0, r0, r4, ror #3
    1294:	7f700003 	svcvc	0x00700003
    1298:	0001e49f 	muleq	r1, pc, r4	; <UNPREDICTABLE>
    129c:	00022400 	andeq	r2, r2, r0, lsl #8
    12a0:	91000400 	tstls	r0, r0, lsl #8
    12a4:	009f7fa0 	addseq	r7, pc, r0, lsr #31
	...
    12b0:	01010000 	mrseq	r0, (UNDEF: 1)
	...
    12c0:	90000000 	andls	r0, r0, r0
    12c4:	dc000000 	stcle	0, cr0, [r0], {-0}
    12c8:	01000000 	mrseq	r0, (UNDEF: 0)
    12cc:	00dc5c00 	sbcseq	r5, ip, r0, lsl #24
    12d0:	00f40000 	rscseq	r0, r4, r0
    12d4:	00010000 	andeq	r0, r1, r0
    12d8:	0000f453 	andeq	pc, r0, r3, asr r4	; <UNPREDICTABLE>
    12dc:	00014c00 	andeq	r4, r1, r0, lsl #24
    12e0:	5c000100 	stfpls	f0, [r0], {-0}
    12e4:	0000014c 	andeq	r0, r0, ip, asr #2
    12e8:	00000158 	andeq	r0, r0, r8, asr r1
    12ec:	58530001 	ldmdapl	r3, {r0}^
    12f0:	74000001 	strvc	r0, [r0], #-1
    12f4:	01000001 	tsteq	r0, r1
    12f8:	01b05c00 	lslseq	r5, r0, #24
    12fc:	01c00000 	biceq	r0, r0, r0
    1300:	00010000 	andeq	r0, r1, r0
    1304:	0001c053 	andeq	ip, r1, r3, asr r0
    1308:	0001dc00 	andeq	sp, r1, r0, lsl #24
    130c:	5c000100 	stfpls	f0, [r0], {-0}
    1310:	000001e4 	andeq	r0, r0, r4, ror #3
    1314:	000001e8 	andeq	r0, r0, r8, ror #3
    1318:	e8530001 	ldmda	r3, {r0}^
    131c:	ff000001 			; <UNDEFINED> instruction: 0xff000001
    1320:	01000001 	tsteq	r0, r1
    1324:	01ff5c00 	mvnseq	r5, r0, lsl #24
    1328:	02240000 	eoreq	r0, r4, #0, 0
    132c:	00040000 	andeq	r0, r4, r0
    1330:	9f5301f3 	svcls	0x005301f3
	...
    133c:	00010101 	andeq	r0, r1, r1, lsl #2
    1340:	00000000 	andeq	r0, r0, r0
    1344:	000000dc 	ldrdeq	r0, [r0], -ip
    1348:	000000f0 	strdeq	r0, [r0], -r0	; <UNPREDICTABLE>
    134c:	9f300002 	svcls	0x00300002
    1350:	000000f0 	strdeq	r0, [r0], -r0	; <UNPREDICTABLE>
    1354:	000000f8 	strdeq	r0, [r0], -r8
    1358:	9f310002 	svcls	0x00310002
    135c:	000000fc 	strdeq	r0, [r0], -ip
    1360:	0000014c 	andeq	r0, r0, ip, asr #2
    1364:	4c560001 	mrrcmi	0, 0, r0, r6, cr1
    1368:	54000001 	strpl	r0, [r0], #-1
    136c:	02000001 	andeq	r0, r0, #1, 0
    1370:	009f3000 	addseq	r3, pc, r0
	...
    137c:	01010000 	mrseq	r0, (UNDEF: 1)
    1380:	01010000 	mrseq	r0, (UNDEF: 1)
    1384:	00003800 	andeq	r3, r0, r0, lsl #16
    1388:	00005400 	andeq	r5, r0, r0, lsl #8
    138c:	50000100 	andpl	r0, r0, r0, lsl #2
    1390:	00000054 	andeq	r0, r0, r4, asr r0
    1394:	00000058 	andeq	r0, r0, r8, asr r0
    1398:	58520001 	ldmdapl	r2, {r0}^
    139c:	60000000 	andvs	r0, r0, r0
    13a0:	03000000 	movweq	r0, #0
    13a4:	9f017200 	svcls	0x00017200
    13a8:	00000060 	andeq	r0, r0, r0, rrx
    13ac:	00000064 	andeq	r0, r0, r4, rrx
    13b0:	64520001 	ldrbvs	r0, [r2], #-1
    13b4:	70000000 	andvc	r0, r0, r0
    13b8:	03000000 	movweq	r0, #0
    13bc:	9f017200 	svcls	0x00017200
	...
    13cc:	00000038 	andeq	r0, r0, r8, lsr r0
    13d0:	00000050 	andeq	r0, r0, r0, asr r0
    13d4:	50510001 	subspl	r0, r1, r1
    13d8:	70000000 	andvc	r0, r0, r0
    13dc:	04000000 	streq	r0, [r0], #-0
    13e0:	5101f300 	mrspl	pc, SP_irq	; <UNPREDICTABLE>
    13e4:	0000009f 	muleq	r0, pc, r0	; <UNPREDICTABLE>
	...
    13f0:	01010000 	mrseq	r0, (UNDEF: 1)
    13f4:	00003800 	andeq	r3, r0, r0, lsl #16
    13f8:	00005000 	andeq	r5, r0, r0
    13fc:	52000100 	andpl	r0, r0, #0
    1400:	00000050 	andeq	r0, r0, r0, asr r0
    1404:	0000005c 	andeq	r0, r0, ip, asr r0
    1408:	5c510001 	mrrcpl	0, 0, r0, r1, cr1
    140c:	60000000 	andvs	r0, r0, r0
    1410:	03000000 	movweq	r0, #0
    1414:	9f017100 	svcls	0x00017100
    1418:	00000060 	andeq	r0, r0, r0, rrx
    141c:	00000070 	andeq	r0, r0, r0, ror r0
    1420:	00510001 	subseq	r0, r1, r1
	...
    142c:	38000000 	stmdacc	r0, {}	; <UNPREDICTABLE>
    1430:	4c000000 	stcmi	0, cr0, [r0], {-0}
    1434:	01000000 	mrseq	r0, (UNDEF: 0)
    1438:	004c5300 	subeq	r5, ip, r0, lsl #6
    143c:	00680000 	rsbeq	r0, r8, r0
    1440:	00010000 	andeq	r0, r1, r0
    1444:	00000053 	andeq	r0, r0, r3, asr r0
	...
    1454:	00004000 	andeq	r4, r0, r0
    1458:	00004800 	andeq	r4, r0, r0, lsl #16
    145c:	5c000100 	stfpls	f0, [r0], {-0}
    1460:	00000048 	andeq	r0, r0, r8, asr #32
    1464:	0000004c 	andeq	r0, r0, ip, asr #32
    1468:	00720008 	rsbseq	r0, r2, r8
    146c:	231c0073 	tstcs	ip, #115, 0	; 0x73
    1470:	004c9f01 	subeq	r9, ip, r1, lsl #30
    1474:	00540000 	subseq	r0, r4, r0
    1478:	00090000 	andeq	r0, r9, r0
    147c:	01f30072 	mvnseq	r0, r2, ror r0
    1480:	01231c53 			; <UNDEFINED> instruction: 0x01231c53
    1484:	0000549f 	muleq	r0, pc, r4	; <UNPREDICTABLE>
    1488:	00007000 	andeq	r7, r0, r0
    148c:	f3000a00 	vpmax.u8	d0, d0, d0
    1490:	01f35201 	mvnseq	r5, r1, lsl #4
    1494:	01231c53 			; <UNDEFINED> instruction: 0x01231c53
    1498:	0000009f 	muleq	r0, pc, r0	; <UNPREDICTABLE>
    149c:	00000000 	andeq	r0, r0, r0
    14a0:	4c000100 	stfmis	f0, [r0], {-0}
    14a4:	70000000 	andvc	r0, r0, r0
    14a8:	01000000 	mrseq	r0, (UNDEF: 0)
    14ac:	00005000 	andeq	r5, r0, r0
    14b0:	00000000 	andeq	r0, r0, r0
    14b4:	01000000 	mrseq	r0, (UNDEF: 0)
    14b8:	00000001 	andeq	r0, r0, r1
    14bc:	00000014 	andeq	r0, r0, r4, lsl r0
    14c0:	0000001c 	andeq	r0, r0, ip, lsl r0
    14c4:	1c500001 	mrrcne	0, 0, r0, r0, cr1	; <UNPREDICTABLE>
    14c8:	24000000 	strcs	r0, [r0], #-0
    14cc:	03000000 	movweq	r0, #0
    14d0:	9f017000 	svcls	0x00017000
    14d4:	00000024 	andeq	r0, r0, r4, lsr #32
    14d8:	00000038 	andeq	r0, r0, r8, lsr r0
    14dc:	00500001 	subseq	r0, r0, r1
	...
    14e8:	14000000 	strne	r0, [r0], #-0
    14ec:	18000000 	stmdane	r0, {}	; <UNPREDICTABLE>
    14f0:	01000000 	mrseq	r0, (UNDEF: 0)
    14f4:	00185100 	andseq	r5, r8, r0, lsl #2
    14f8:	00380000 	eorseq	r0, r8, r0
    14fc:	00040000 	andeq	r0, r4, r0
    1500:	9f5101f3 	svcls	0x005101f3
	...
    150c:	00180000 	andseq	r0, r8, r0
    1510:	00380000 	eorseq	r0, r8, r0
    1514:	00010000 	andeq	r0, r1, r0
    1518:	00000051 	andeq	r0, r0, r1, asr r0
	...
    1528:	04000000 	streq	r0, [r0], #-0
    152c:	01000000 	mrseq	r0, (UNDEF: 0)
    1530:	00045000 	andeq	r5, r4, r0
    1534:	000c0000 	andeq	r0, ip, r0
    1538:	00030000 	andeq	r0, r3, r0
    153c:	0c9f3070 	ldceq	0, cr3, [pc], {112}	; 0x70
    1540:	14000000 	strne	r0, [r0], #-0
    1544:	04000000 	streq	r0, [r0], #-0
    1548:	5001f300 	andpl	pc, r1, r0, lsl #6
    154c:	0000009f 	muleq	r0, pc, r0	; <UNPREDICTABLE>
	...
    1558:	00022400 	andeq	r2, r2, r0, lsl #8
    155c:	00026800 	andeq	r6, r2, r0, lsl #16
    1560:	50000100 	andpl	r0, r0, r0, lsl #2
    1564:	00000268 	andeq	r0, r0, r8, ror #4
    1568:	00000288 	andeq	r0, r0, r8, lsl #5
    156c:	01f30004 	mvnseq	r0, r4
    1570:	00009f50 	andeq	r9, r0, r0, asr pc
	...
    157c:	02240000 	eoreq	r0, r4, #0, 0
    1580:	02640000 	rsbeq	r0, r4, #0, 0
    1584:	00010000 	andeq	r0, r1, r0
    1588:	00026451 	andeq	r6, r2, r1, asr r4
    158c:	00028800 	andeq	r8, r2, r0, lsl #16
    1590:	f3000400 	vshl.u8	d0, d0, d0
    1594:	009f5101 	addseq	r5, pc, r1, lsl #2
	...
    15a0:	00000101 	andeq	r0, r0, r1, lsl #2
    15a4:	008d9400 	addeq	r9, sp, r0, lsl #8
    15a8:	008d9400 	addeq	r9, sp, r0, lsl #8
    15ac:	53000100 	movwpl	r0, #256	; 0x100
    15b0:	00008d94 	muleq	r0, r4, sp
    15b4:	00008d98 	muleq	r0, r8, sp
    15b8:	00730007 	rsbseq	r0, r3, r7
    15bc:	1aefff0b 	bne	ffc011f0 <__bss_end__+0xffbf71b8>
    15c0:	008d989f 	umulleq	r9, sp, pc, r8	; <UNPREDICTABLE>
    15c4:	008da000 	addeq	sl, sp, r0
    15c8:	53000100 	movwpl	r0, #256	; 0x100
	...
    15d4:	00010100 	andeq	r0, r1, r0, lsl #2
    15d8:	8d840000 	stchi	0, cr0, [r4]
    15dc:	8d840000 	stchi	0, cr0, [r4]
    15e0:	00010000 	andeq	r0, r1, r0
    15e4:	008d8453 	addeq	r8, sp, r3, asr r4
    15e8:	008d8800 	addeq	r8, sp, r0, lsl #16
    15ec:	73000700 	movwvc	r0, #1792	; 0x700
    15f0:	10000a00 	andne	r0, r0, r0, lsl #20
    15f4:	8d889f21 	stchi	15, cr9, [r8, #132]	; 0x84
    15f8:	8d900000 	ldchi	0, cr0, [r0]
    15fc:	00010000 	andeq	r0, r1, r0
    1600:	00000053 	andeq	r0, r0, r3, asr r0
    1604:	00000000 	andeq	r0, r0, r0
    1608:	01010000 	mrseq	r0, (UNDEF: 1)
    160c:	0c000000 	stceq	0, cr0, [r0], {-0}
    1610:	14000000 	strne	r0, [r0], #-0
    1614:	01000000 	mrseq	r0, (UNDEF: 0)
    1618:	00145300 	andseq	r5, r4, r0, lsl #6
    161c:	001c0000 	andseq	r0, ip, r0
    1620:	00030000 	andeq	r0, r3, r0
    1624:	1c9f0473 	cfldrsne	mvf0, [pc], {115}	; 0x73
    1628:	23000000 	movwcs	r0, #0
    162c:	01000000 	mrseq	r0, (UNDEF: 0)
    1630:	00005300 	andeq	r5, r0, r0, lsl #6
    1634:	00000000 	andeq	r0, r0, r0
    1638:	00010000 	andeq	r0, r1, r0
    163c:	00008e70 	andeq	r8, r0, r0, ror lr
    1640:	00008e8c 	andeq	r8, r0, ip, lsl #29
    1644:	1c0c0006 	stcne	0, cr0, [ip], {6}
    1648:	9f201000 	svcls	0x00201000
	...
    1654:	8e700002 	cdphi	0, 7, cr0, cr0, cr2, {0}
    1658:	8e8c0000 	cdphi	0, 8, cr0, cr12, cr0, {0}
    165c:	00060000 	andeq	r0, r6, r0
    1660:	1000240c 	andne	r2, r0, ip, lsl #8
    1664:	00009f20 	andeq	r9, r0, r0, lsr #30
    1668:	00000000 	andeq	r0, r0, r0
    166c:	00030000 	andeq	r0, r3, r0
    1670:	00008e70 	andeq	r8, r0, r0, ror lr
    1674:	00008e8c 	andeq	r8, r0, ip, lsl #29
    1678:	b4080005 	strlt	r0, [r8], #-5
    167c:	009f2447 	addseq	r2, pc, r7, asr #8
    1680:	00000000 	andeq	r0, r0, r0
    1684:	04000000 	streq	r0, [r0], #-0
    1688:	008e7000 	addeq	r7, lr, r0
    168c:	008e8c00 	addeq	r8, lr, r0, lsl #24
    1690:	08000300 	stmdaeq	r0, {r8, r9}
    1694:	00009f20 	andeq	r9, r0, r0, lsr #30
    1698:	00000000 	andeq	r0, r0, r0
    169c:	00020000 	andeq	r0, r2, r0
    16a0:	00000000 	andeq	r0, r0, r0
    16a4:	00008e3c 	andeq	r8, r0, ip, lsr lr
    16a8:	00008e40 	andeq	r8, r0, r0, asr #28
    16ac:	9f300002 	svcls	0x00300002
    16b0:	00008e40 	andeq	r8, r0, r0, asr #28
    16b4:	00008e44 	andeq	r8, r0, r4, asr #28
    16b8:	48530001 	ldmdami	r3, {r0}^
    16bc:	5000008e 	andpl	r0, r0, lr, lsl #1
    16c0:	0100008e 	smlabbeq	r0, lr, r0, r0
    16c4:	00005300 	andeq	r5, r0, r0, lsl #6
    16c8:	00000000 	andeq	r0, r0, r0
    16cc:	00020000 	andeq	r0, r2, r0
    16d0:	8e240000 	cdphi	0, 2, cr0, cr4, cr0, {0}
    16d4:	8e280000 	cdphi	0, 2, cr0, cr8, cr0, {0}
    16d8:	00020000 	andeq	r0, r2, r0
    16dc:	8e289f30 	mcrhi	15, 1, r9, cr8, cr0, {1}
    16e0:	8e2c0000 	cdphi	0, 2, cr0, cr12, cr0, {0}
    16e4:	00010000 	andeq	r0, r1, r0
    16e8:	00000050 	andeq	r0, r0, r0, asr r0
	...
    16f4:	00006c00 	andeq	r6, r0, r0, lsl #24
    16f8:	00007800 	andeq	r7, r0, r0, lsl #16
    16fc:	50000100 	andpl	r0, r0, r0, lsl #2
    1700:	00000078 	andeq	r0, r0, r8, ror r0
    1704:	00000084 	andeq	r0, r0, r4, lsl #1
    1708:	01f30004 	mvnseq	r0, r4
    170c:	00009f50 	andeq	r9, r0, r0, asr pc
	...
    1718:	00540000 	subseq	r0, r4, r0
    171c:	00600000 	rsbeq	r0, r0, r0
    1720:	00010000 	andeq	r0, r1, r0
    1724:	00006050 	andeq	r6, r0, r0, asr r0
    1728:	00006c00 	andeq	r6, r0, r0, lsl #24
    172c:	f3000400 	vshl.u8	d0, d0, d0
    1730:	009f5001 	addseq	r5, pc, r1
	...
    173c:	30000000 	andcc	r0, r0, r0
    1740:	3b000000 	blcc	1748 <__code_start__-0x68b8>
    1744:	01000000 	mrseq	r0, (UNDEF: 0)
    1748:	003b5000 	eorseq	r5, fp, r0
    174c:	00540000 	subseq	r0, r4, r0
    1750:	00010000 	andeq	r0, r1, r0
    1754:	00000055 	andeq	r0, r0, r5, asr r0
    1758:	00000000 	andeq	r0, r0, r0
    175c:	40000000 	andmi	r0, r0, r0
    1760:	54000000 	strpl	r0, [r0], #-0
    1764:	01000000 	mrseq	r0, (UNDEF: 0)
    1768:	00005400 	andeq	r5, r0, r0, lsl #8
	...
    1774:	00000044 	andeq	r0, r0, r4, asr #32
    1778:	00000048 	andeq	r0, r0, r8, asr #32
    177c:	00500001 	subseq	r0, r0, r1
	...
    1788:	24000000 	strcs	r0, [r0], #-0
    178c:	27000000 	strcs	r0, [r0, -r0]
    1790:	01000000 	mrseq	r0, (UNDEF: 0)
    1794:	00275000 	eoreq	r5, r7, r0
    1798:	00300000 	eorseq	r0, r0, r0
    179c:	00010000 	andeq	r0, r1, r0
    17a0:	00000054 	andeq	r0, r0, r4, asr r0
	...
    17b0:	0000e800 	andeq	lr, r0, r0, lsl #16
    17b4:	00010000 	andeq	r0, r1, r0
    17b8:	50000100 	andpl	r0, r0, r0, lsl #2
    17bc:	00000100 	andeq	r0, r0, r0, lsl #2
    17c0:	00000110 	andeq	r0, r0, r0, lsl r1
    17c4:	01f30004 	mvnseq	r0, r4
    17c8:	01109f50 	tsteq	r0, r0, asr pc
    17cc:	01140000 	tsteq	r4, r0
    17d0:	00010000 	andeq	r0, r1, r0
    17d4:	00011450 	andeq	r1, r1, r0, asr r4
    17d8:	00011c00 	andeq	r1, r1, r0, lsl #24
    17dc:	f3000400 	vshl.u8	d0, d0, d0
    17e0:	009f5001 	addseq	r5, pc, r1
    17e4:	00000000 	andeq	r0, r0, r0
    17e8:	01000000 	mrseq	r0, (UNDEF: 0)
    17ec:	00000000 	andeq	r0, r0, r0
    17f0:	0000f400 	andeq	pc, r0, r0, lsl #8
    17f4:	00010000 	andeq	r0, r1, r0
    17f8:	70000b00 	andvc	r0, r0, r0, lsl #22
    17fc:	23253500 			; <UNDEFINED> instruction: 0x23253500
    1800:	818080b4 	strhhi	r8, [r0, r4]
    1804:	01009f02 	tsteq	r0, r2, lsl #30
    1808:	01030000 	mrseq	r0, (UNDEF: 3)
    180c:	00010000 	andeq	r0, r1, r0
    1810:	00010350 	andeq	r0, r1, r0, asr r3
    1814:	00011000 	andeq	r1, r1, r0
    1818:	f3000c00 			; <UNDEFINED> instruction: 0xf3000c00
    181c:	25355001 	ldrcs	r5, [r5, #-1]!
    1820:	8080b423 	addhi	fp, r0, r3, lsr #8
    1824:	009f0281 	addseq	r0, pc, r1, lsl #5
	...
    1830:	0000f800 	andeq	pc, r0, r0, lsl #16
    1834:	00011000 	andeq	r1, r1, r0
    1838:	54000100 	strpl	r0, [r0], #-256	; 0xffffff00
	...
    184c:	000000cc 	andeq	r0, r0, ip, asr #1
    1850:	000000db 	ldrdeq	r0, [r0], -fp
    1854:	db500001 	blle	1401860 <__bss_end__+0x13f7828>
    1858:	e0000000 	and	r0, r0, r0
    185c:	04000000 	streq	r0, [r0], #-0
    1860:	5001f300 	andpl	pc, r1, r0, lsl #6
    1864:	0000e09f 	muleq	r0, pc, r0	; <UNPREDICTABLE>
    1868:	0000e300 	andeq	lr, r0, r0, lsl #6
    186c:	50000100 	andpl	r0, r0, r0, lsl #2
    1870:	000000e3 	andeq	r0, r0, r3, ror #1
    1874:	000000e8 	andeq	r0, r0, r8, ror #1
    1878:	01f30004 	mvnseq	r0, r4
    187c:	00009f50 	andeq	r9, r0, r0, asr pc
	...
    188c:	00cc0000 	sbceq	r0, ip, r0
    1890:	00db0000 	sbcseq	r0, fp, r0
    1894:	00010000 	andeq	r0, r1, r0
    1898:	0000db51 	andeq	sp, r0, r1, asr fp
    189c:	0000e000 	andeq	lr, r0, r0
    18a0:	f3000400 	vshl.u8	d0, d0, d0
    18a4:	e09f5101 	adds	r5, pc, r1, lsl #2
    18a8:	e3000000 	movw	r0, #0
    18ac:	01000000 	mrseq	r0, (UNDEF: 0)
    18b0:	00e35100 	rsceq	r5, r3, r0, lsl #2
    18b4:	00e80000 	rsceq	r0, r8, r0
    18b8:	00040000 	andeq	r0, r4, r0
    18bc:	9f5101f3 	svcls	0x005101f3
	...
    18cc:	000000bc 	strheq	r0, [r0], -ip
    18d0:	000000c7 	andeq	r0, r0, r7, asr #1
    18d4:	c7500001 	ldrbgt	r0, [r0, -r1]
    18d8:	cc000000 	stcgt	0, cr0, [r0], {-0}
    18dc:	04000000 	streq	r0, [r0], #-0
    18e0:	5001f300 	andpl	pc, r1, r0, lsl #6
    18e4:	0000009f 	muleq	r0, pc, r0	; <UNPREDICTABLE>
	...
    18f0:	00009800 	andeq	r9, r0, r0, lsl #16
    18f4:	0000b000 	andeq	fp, r0, r0
    18f8:	50000100 	andpl	r0, r0, r0, lsl #2
    18fc:	000000b0 	strheq	r0, [r0], -r0	; <UNPREDICTABLE>
    1900:	000000bc 	strheq	r0, [r0], -ip
    1904:	01f30004 	mvnseq	r0, r4
    1908:	00009f50 	andeq	r9, r0, r0, asr pc
	...
    1914:	00740000 	rsbseq	r0, r4, r0
    1918:	008c0000 	addeq	r0, ip, r0
    191c:	00010000 	andeq	r0, r1, r0
    1920:	00008c50 	andeq	r8, r0, r0, asr ip
    1924:	00009800 	andeq	r9, r0, r0, lsl #16
    1928:	f3000400 	vshl.u8	d0, d0, d0
    192c:	009f5001 	addseq	r5, pc, r1
	...
    1938:	64000000 	strvs	r0, [r0], #-0
    193c:	6f000000 	svcvs	0x00000000
    1940:	01000000 	mrseq	r0, (UNDEF: 0)
    1944:	006f5000 	rsbeq	r5, pc, r0
    1948:	00740000 	rsbseq	r0, r4, r0
    194c:	00040000 	andeq	r0, r4, r0
    1950:	9f5001f3 	svcls	0x005001f3
	...
    1964:	00000038 	andeq	r0, r0, r8, lsr r0
    1968:	38500001 	ldmdacc	r0, {r0}^
    196c:	64000000 	strvs	r0, [r0], #-0
    1970:	04000000 	streq	r0, [r0], #-0
    1974:	5001f300 	andpl	pc, r1, r0, lsl #6
    1978:	0000009f 	muleq	r0, pc, r0	; <UNPREDICTABLE>
	...
    1988:	00004700 	andeq	r4, r0, r0, lsl #14
    198c:	51000100 	mrspl	r0, (UNDEF: 16)
    1990:	00000047 	andeq	r0, r0, r7, asr #32
    1994:	00000064 	andeq	r0, r0, r4, rrx
    1998:	01f30004 	mvnseq	r0, r4
    199c:	00009f51 	andeq	r9, r0, r1, asr pc
	...
    19a8:	00000034 	andeq	r0, r0, r4, lsr r0
    19ac:	00000064 	andeq	r0, r0, r4, rrx
    19b0:	00540001 	subseq	r0, r4, r1
	...
    19bc:	00004000 	andeq	r4, r0, r0
    19c0:	00006400 	andeq	r6, r0, r0, lsl #8
    19c4:	56000100 	strpl	r0, [r0], -r0, lsl #2
	...
    19d0:	01000000 	mrseq	r0, (UNDEF: 0)
    19d4:	00000001 	andeq	r0, r0, r1
    19d8:	00000048 	andeq	r0, r0, r8, asr #32
    19dc:	00000050 	andeq	r0, r0, r0, asr r0
    19e0:	50500001 	subspl	r0, r0, r1
    19e4:	50000000 	andpl	r0, r0, r0
    19e8:	01000000 	mrseq	r0, (UNDEF: 0)
    19ec:	00505100 	subseq	r5, r0, r0, lsl #2
    19f0:	00540000 	subseq	r0, r4, r0
    19f4:	00090000 	andeq	r0, r9, r0
    19f8:	00740075 	rsbseq	r0, r4, r5, ror r0
    19fc:	21007124 	tstcs	r0, r4, lsr #2
    1a00:	0000549f 	muleq	r0, pc, r4	; <UNPREDICTABLE>
    1a04:	00005b00 	andeq	r5, r0, r0, lsl #22
    1a08:	51000100 	mrspl	r0, (UNDEF: 16)
	...
    1a18:	00000158 	andeq	r0, r0, r8, asr r1
    1a1c:	00000163 	andeq	r0, r0, r3, ror #2
    1a20:	63500001 	cmpvs	r0, #1, 0
    1a24:	88000001 	stmdahi	r0, {r0}
    1a28:	01000001 	tsteq	r0, r1
    1a2c:	00005400 	andeq	r5, r0, r0, lsl #8
	...
    1a38:	00000148 	andeq	r0, r0, r8, asr #2
    1a3c:	00000158 	andeq	r0, r0, r8, asr r1
    1a40:	00540001 	subseq	r0, r4, r1
	...
    1a50:	0f000000 	svceq	0x00000000
    1a54:	01000000 	mrseq	r0, (UNDEF: 0)
    1a58:	000f5000 	andeq	r5, pc, r0
    1a5c:	00200000 	eoreq	r0, r0, r0
    1a60:	00010000 	andeq	r0, r1, r0
    1a64:	00000054 	andeq	r0, r0, r4, asr r0
	...
    1a74:	00000f00 	andeq	r0, r0, r0, lsl #30
    1a78:	51000100 	mrspl	r0, (UNDEF: 16)
    1a7c:	0000000f 	andeq	r0, r0, pc
    1a80:	00000020 	andeq	r0, r0, r0, lsr #32
    1a84:	00550001 	subseq	r0, r5, r1
	...
    1a90:	20000000 	andcs	r0, r0, r0
    1a94:	2f000000 	svccs	0x00000000
    1a98:	01000000 	mrseq	r0, (UNDEF: 0)
    1a9c:	002f5000 	eoreq	r5, pc, r0
    1aa0:	00400000 	subeq	r0, r0, r0
    1aa4:	00010000 	andeq	r0, r1, r0
    1aa8:	00000054 	andeq	r0, r0, r4, asr r0
	...
    1ab4:	00002000 	andeq	r2, r0, r0
    1ab8:	00002f00 	andeq	r2, r0, r0, lsl #30
    1abc:	51000100 	mrspl	r0, (UNDEF: 16)
    1ac0:	0000002f 	andeq	r0, r0, pc, lsr #32
    1ac4:	00000040 	andeq	r0, r0, r0, asr #32
    1ac8:	00550001 	subseq	r0, r5, r1
	...
    1ad8:	0b000000 	bleq	1ae0 <__code_start__-0x6520>
    1adc:	01000000 	mrseq	r0, (UNDEF: 0)
    1ae0:	000b5000 	andeq	r5, fp, r0
    1ae4:	00140000 	andseq	r0, r4, r0
    1ae8:	00010000 	andeq	r0, r1, r0
    1aec:	00000054 	andeq	r0, r0, r4, asr r0
	...
    1afc:	00001c00 	andeq	r1, r0, r0, lsl #24
    1b00:	51000100 	mrspl	r0, (UNDEF: 16)
    1b04:	0000001c 	andeq	r0, r0, ip, lsl r0
    1b08:	00000034 	andeq	r0, r0, r4, lsr r0
    1b0c:	01f30004 	mvnseq	r0, r4
    1b10:	00009f51 	andeq	r9, r0, r1, asr pc
    1b14:	00000000 	andeq	r0, r0, r0
    1b18:	00020000 	andeq	r0, r2, r0
    1b1c:	01000000 	mrseq	r0, (UNDEF: 0)
    1b20:	00000001 	andeq	r0, r0, r1
    1b24:	00000000 	andeq	r0, r0, r0
    1b28:	00000004 	andeq	r0, r0, r4
    1b2c:	04500001 	ldrbeq	r0, [r0], #-1
    1b30:	1c000000 	stcne	0, cr0, [r0], {-0}
    1b34:	01000000 	mrseq	r0, (UNDEF: 0)
    1b38:	001c5200 	andseq	r5, ip, r0, lsl #4
    1b3c:	00240000 	eoreq	r0, r4, r0
    1b40:	00010000 	andeq	r0, r1, r0
    1b44:	00002453 	andeq	r2, r0, r3, asr r4
    1b48:	00002800 	andeq	r2, r0, r0, lsl #16
    1b4c:	73000300 	movwvc	r0, #768	; 0x300
    1b50:	00289f01 	eoreq	r9, r8, r1, lsl #30
    1b54:	00340000 	eorseq	r0, r4, r0
    1b58:	00010000 	andeq	r0, r1, r0
    1b5c:	00000053 	andeq	r0, r0, r3, asr r0
    1b60:	00000000 	andeq	r0, r0, r0
    1b64:	00000300 	andeq	r0, r0, r0, lsl #6
    1b68:	00000000 	andeq	r0, r0, r0
    1b6c:	00002400 	andeq	r2, r0, r0, lsl #8
    1b70:	51000100 	mrspl	r0, (UNDEF: 16)
    1b74:	00000024 	andeq	r0, r0, r4, lsr #32
    1b78:	00000034 	andeq	r0, r0, r4, lsr r0
    1b7c:	7f710003 	svcvc	0x00710003
    1b80:	0000009f 	muleq	r0, pc, r0	; <UNPREDICTABLE>
	...
    1b8c:	00001000 	andeq	r1, r0, r0
    1b90:	00001c00 	andeq	r1, r0, r0, lsl #24
    1b94:	5c000100 	stfpls	f0, [r0], {-0}
    1b98:	00000024 	andeq	r0, r0, r4, lsr #32
    1b9c:	00000034 	andeq	r0, r0, r4, lsr r0
    1ba0:	00520001 	subseq	r0, r2, r1
	...
    1bb0:	18000000 	stmdane	r0, {}	; <UNPREDICTABLE>
    1bb4:	01000000 	mrseq	r0, (UNDEF: 0)
    1bb8:	00185000 	andseq	r5, r8, r0
    1bbc:	00240000 	eoreq	r0, r4, r0
    1bc0:	00010000 	andeq	r0, r1, r0
    1bc4:	00000050 	andeq	r0, r0, r0, asr r0
	...
    1bd4:	00001c00 	andeq	r1, r0, r0, lsl #24
    1bd8:	51000100 	mrspl	r0, (UNDEF: 16)
    1bdc:	0000001c 	andeq	r0, r0, ip, lsl r0
    1be0:	0000002c 	andeq	r0, r0, ip, lsr #32
    1be4:	00510001 	subseq	r0, r1, r1
	...
    1bf8:	00000400 	andeq	r0, r0, r0, lsl #8
    1bfc:	51000100 	mrspl	r0, (UNDEF: 16)
    1c00:	00000004 	andeq	r0, r0, r4
    1c04:	0000000c 	andeq	r0, r0, ip
    1c08:	0c510001 	mrrceq	0, 0, r0, r1, cr1
    1c0c:	20000000 	andcs	r0, r0, r0
    1c10:	03000000 	movweq	r0, #0
    1c14:	9f7f7100 	svcls	0x007f7100
	...
    1c20:	00000002 	andeq	r0, r0, r2
    1c24:	00000000 	andeq	r0, r0, r0
    1c28:	00040000 	andeq	r0, r4, r0
    1c2c:	00010000 	andeq	r0, r1, r0
    1c30:	00000450 	andeq	r0, r0, r0, asr r4
    1c34:	00001400 	andeq	r1, r0, r0, lsl #8
    1c38:	5c000100 	stfpls	f0, [r0], {-0}
    1c3c:	00000014 	andeq	r0, r0, r4, lsl r0
    1c40:	00000020 	andeq	r0, r0, r0, lsr #32
    1c44:	7f7c0003 	svcvc	0x007c0003
    1c48:	0000009f 	muleq	r0, pc, r0	; <UNPREDICTABLE>
    1c4c:	00000000 	andeq	r0, r0, r0
    1c50:	03030000 	movweq	r0, #12288	; 0x3000
    1c54:	0092f000 	addseq	pc, r2, r0
    1c58:	0092f000 	addseq	pc, r2, r0
    1c5c:	50000100 	andpl	r0, r0, r0, lsl #2
    1c60:	000092f0 	strdeq	r9, [r0], -r0
    1c64:	0000931c 	andeq	r9, r0, ip, lsl r3
    1c68:	01f30004 	mvnseq	r0, r4
    1c6c:	00009f50 	andeq	r9, r0, r0, asr pc
    1c70:	00000000 	andeq	r0, r0, r0
    1c74:	03000000 	movweq	r0, #0
    1c78:	92f00003 	rscsls	r0, r0, #3, 0
    1c7c:	92f00000 	rscsls	r0, r0, #0, 0
    1c80:	00010000 	andeq	r0, r1, r0
    1c84:	0092f051 	addseq	pc, r2, r1, asr r0	; <UNPREDICTABLE>
    1c88:	00931c00 	addseq	r1, r3, r0, lsl #24
    1c8c:	f3000400 	vshl.u8	d0, d0, d0
    1c90:	009f5101 	addseq	r5, pc, r1, lsl #2
	...
    1c9c:	00000303 	andeq	r0, r0, r3, lsl #6
    1ca0:	0092f000 	addseq	pc, r2, r0
    1ca4:	0092f000 	addseq	pc, r2, r0
    1ca8:	52000100 	andpl	r0, r0, #0
    1cac:	000092f0 	strdeq	r9, [r0], -r0
    1cb0:	000092f8 	strdeq	r9, [r0], -r8
    1cb4:	f8520001 			; <UNDEFINED> instruction: 0xf8520001
    1cb8:	1c000092 	stcne	0, cr0, [r0], {146}	; 0x92
    1cbc:	03000093 	movweq	r0, #147	; 0x93
    1cc0:	9f017200 	svcls	0x00017200
	...
    1ccc:	00010102 	andeq	r0, r1, r2, lsl #2
    1cd0:	00000000 	andeq	r0, r0, r0
    1cd4:	000092f0 	strdeq	r9, [r0], -r0
    1cd8:	000092fc 	strdeq	r9, [r0], -ip
    1cdc:	fc500001 	mrrc2	0, 0, r0, r0, cr1	; <UNPREDICTABLE>
    1ce0:	00000092 	muleq	r0, r2, r0
    1ce4:	03000093 	movweq	r0, #147	; 0x93
    1ce8:	9f017000 	svcls	0x00017000
    1cec:	00009300 	andeq	r9, r0, r0, lsl #6
    1cf0:	00009310 	andeq	r9, r0, r0, lsl r3
    1cf4:	14500001 	ldrbne	r0, [r0], #-1
    1cf8:	18000093 	stmdane	r0, {r0, r1, r4, r7}
    1cfc:	01000093 	swpeq	r0, r3, [r0]	; <UNPREDICTABLE>
    1d00:	00005000 	andeq	r5, r0, r0
    1d04:	00000000 	andeq	r0, r0, r0
    1d08:	00020000 	andeq	r0, r2, r0
    1d0c:	00000000 	andeq	r0, r0, r0
    1d10:	000092f0 	strdeq	r9, [r0], -r0
    1d14:	00009300 	andeq	r9, r0, r0, lsl #6
    1d18:	00510001 	subseq	r0, r1, r1
    1d1c:	04000093 	streq	r0, [r0], #-147	; 0xffffff6d
    1d20:	03000093 	movweq	r0, #147	; 0x93
    1d24:	9f017100 	svcls	0x00017100
    1d28:	00009304 	andeq	r9, r0, r4, lsl #6
    1d2c:	0000931c 	andeq	r9, r0, ip, lsl r3
    1d30:	00510001 	subseq	r0, r1, r1
    1d34:	00000000 	andeq	r0, r0, r0
    1d38:	Address 0x0000000000001d38 is out of bounds.


Disassembly of section .debug_aranges:

00000000 <.debug_aranges>:
   0:	0000001c 	andeq	r0, r0, ip, lsl r0
   4:	00000002 	andeq	r0, r0, r2
   8:	00040000 	andeq	r0, r4, r0
   c:	00000000 	andeq	r0, r0, r0
  10:	00008038 	andeq	r8, r0, r8, lsr r0
  14:	00000128 	andeq	r0, r0, r8, lsr #2
	...
  20:	0000001c 	andeq	r0, r0, ip, lsl r0
  24:	02bc0002 	adcseq	r0, ip, #2, 0
  28:	00040000 	andeq	r0, r4, r0
  2c:	00000000 	andeq	r0, r0, r0
  30:	00008160 	andeq	r8, r0, r0, ror #2
  34:	000001d0 	ldrdeq	r0, [r0], -r0	; <UNPREDICTABLE>
	...
  40:	0000001c 	andeq	r0, r0, ip, lsl r0
  44:	0cd80002 	ldcleq	0, cr0, [r8], {2}
  48:	00040000 	andeq	r0, r4, r0
  4c:	00000000 	andeq	r0, r0, r0
  50:	00008330 	andeq	r8, r0, r0, lsr r3
  54:	0000026c 	andeq	r0, r0, ip, ror #4
	...
  60:	0000001c 	andeq	r0, r0, ip, lsl r0
  64:	13e50002 	mvnne	r0, #2, 0
  68:	00040000 	andeq	r0, r4, r0
  6c:	00000000 	andeq	r0, r0, r0
  70:	0000859c 	muleq	r0, ip, r5
  74:	00000018 	andeq	r0, r0, r8, lsl r0
	...
  80:	0000001c 	andeq	r0, r0, ip, lsl r0
  84:	15230002 	strne	r0, [r3, #-2]!
  88:	00040000 	andeq	r0, r4, r0
  8c:	00000000 	andeq	r0, r0, r0
  90:	000085b4 			; <UNDEFINED> instruction: 0x000085b4
  94:	00000058 	andeq	r0, r0, r8, asr r0
	...
  a0:	0000001c 	andeq	r0, r0, ip, lsl r0
  a4:	16c40002 	strbne	r0, [r4], r2
  a8:	00040000 	andeq	r0, r4, r0
  ac:	00000000 	andeq	r0, r0, r0
  b0:	0000860c 	andeq	r8, r0, ip, lsl #12
  b4:	00000034 	andeq	r0, r0, r4, lsr r0
	...
  c0:	0000001c 	andeq	r0, r0, ip, lsl r0
  c4:	17bb0002 	ldrne	r0, [fp, r2]!
  c8:	00040000 	andeq	r0, r4, r0
  cc:	00000000 	andeq	r0, r0, r0
  d0:	00008640 	andeq	r8, r0, r0, asr #12
  d4:	00000740 	andeq	r0, r0, r0, asr #14
	...
  e0:	0000001c 	andeq	r0, r0, ip, lsl r0
  e4:	22960002 	addscs	r0, r6, #2, 0
  e8:	00040000 	andeq	r0, r4, r0
  ec:	00000000 	andeq	r0, r0, r0
  f0:	00008d80 	andeq	r8, r0, r0, lsl #27
  f4:	00000020 	andeq	r0, r0, r0, lsr #32
	...
 100:	0000001c 	andeq	r0, r0, ip, lsl r0
 104:	23a40002 			; <UNDEFINED> instruction: 0x23a40002
 108:	00040000 	andeq	r0, r4, r0
 10c:	00000000 	andeq	r0, r0, r0
 110:	00008da0 	andeq	r8, r0, r0, lsr #27
 114:	0000002c 	andeq	r0, r0, ip, lsr #32
	...
 120:	0000001c 	andeq	r0, r0, ip, lsl r0
 124:	24d70002 	ldrbcs	r0, [r7], #2
 128:	00040000 	andeq	r0, r4, r0
 12c:	00000000 	andeq	r0, r0, r0
 130:	00008dcc 	andeq	r8, r0, ip, asr #27
 134:	0000003c 	andeq	r0, r0, ip, lsr r0
	...
 140:	0000001c 	andeq	r0, r0, ip, lsl r0
 144:	26640002 	strbtcs	r0, [r4], -r2
 148:	00040000 	andeq	r0, r4, r0
 14c:	00000000 	andeq	r0, r0, r0
 150:	00008e08 	andeq	r8, r0, r8, lsl #28
 154:	00000004 	andeq	r0, r0, r4
	...
 160:	0000001c 	andeq	r0, r0, ip, lsl r0
 164:	27360002 	ldrcs	r0, [r6, -r2]!
 168:	00040000 	andeq	r0, r4, r0
 16c:	00000000 	andeq	r0, r0, r0
 170:	00008e24 	andeq	r8, r0, r4, lsr #28
 174:	00000080 	andeq	r0, r0, r0, lsl #1
	...
 180:	0000001c 	andeq	r0, r0, ip, lsl r0
 184:	29700002 	ldmdbcs	r0!, {r1}^
 188:	00040000 	andeq	r0, r4, r0
 18c:	00000000 	andeq	r0, r0, r0
 190:	00008ea4 	andeq	r8, r0, r4, lsr #29
 194:	00000084 	andeq	r0, r0, r4, lsl #1
	...
 1a0:	0000001c 	andeq	r0, r0, ip, lsl r0
 1a4:	2bc10002 	blcs	ff0401b4 <__bss_end__+0xff03617c>
 1a8:	00040000 	andeq	r0, r4, r0
 1ac:	00000000 	andeq	r0, r0, r0
 1b0:	00008f28 	andeq	r8, r0, r8, lsr #30
 1b4:	0000011c 	andeq	r0, r0, ip, lsl r1
	...
 1c0:	0000001c 	andeq	r0, r0, ip, lsl r0
 1c4:	2f6a0002 	svccs	0x006a0002
 1c8:	00040000 	andeq	r0, r4, r0
 1cc:	00000000 	andeq	r0, r0, r0
 1d0:	00009044 	andeq	r9, r0, r4, asr #32
 1d4:	000001f0 	strdeq	r0, [r0], -r0	; <UNPREDICTABLE>
	...
 1e0:	0000001c 	andeq	r0, r0, ip, lsl r0
 1e4:	353b0002 	ldrcc	r0, [fp, #-2]!
 1e8:	00040000 	andeq	r0, r4, r0
 1ec:	00000000 	andeq	r0, r0, r0
 1f0:	00009234 	andeq	r9, r0, r4, lsr r2
 1f4:	0000003c 	andeq	r0, r0, ip, lsr r0
	...
 200:	0000001c 	andeq	r0, r0, ip, lsl r0
 204:	36880002 	strcc	r0, [r8], r2
 208:	00040000 	andeq	r0, r4, r0
 20c:	00000000 	andeq	r0, r0, r0
 210:	00009270 	andeq	r9, r0, r0, ror r2
 214:	00000034 	andeq	r0, r0, r4, lsr r0
	...
 220:	0000001c 	andeq	r0, r0, ip, lsl r0
 224:	37c30002 	strbcc	r0, [r3, r2]
 228:	00040000 	andeq	r0, r4, r0
 22c:	00000000 	andeq	r0, r0, r0
 230:	000092a4 	andeq	r9, r0, r4, lsr #5
 234:	0000002c 	andeq	r0, r0, ip, lsr #32
	...
 240:	0000001c 	andeq	r0, r0, ip, lsl r0
 244:	38be0002 	ldmcc	lr!, {r1}
 248:	00040000 	andeq	r0, r4, r0
 24c:	00000000 	andeq	r0, r0, r0
 250:	000092d0 	ldrdeq	r9, [r0], -r0
 254:	00000020 	andeq	r0, r0, r0, lsr #32
	...
 260:	0000001c 	andeq	r0, r0, ip, lsl r0
 264:	39d10002 	ldmibcc	r1, {r1}^
 268:	00040000 	andeq	r0, r4, r0
 26c:	00000000 	andeq	r0, r0, r0
 270:	000092f0 	strdeq	r9, [r0], -r0
 274:	0000002c 	andeq	r0, r0, ip, lsr #32
	...
 280:	0000001c 	andeq	r0, r0, ip, lsl r0
 284:	3b230002 	blcc	8c0294 <__bss_end__+0x8b625c>
 288:	00040000 	andeq	r0, r4, r0
 28c:	00000000 	andeq	r0, r0, r0
 290:	0000931c 	andeq	r9, r0, ip, lsl r3
 294:	00000004 	andeq	r0, r0, r4
	...

Disassembly of section .debug_ranges:

00000000 <.debug_ranges>:
   0:	00000044 	andeq	r0, r0, r4, asr #32
   4:	00000048 	andeq	r0, r0, r8, asr #32
   8:	0000004c 	andeq	r0, r0, ip, asr #32
   c:	00000074 	andeq	r0, r0, r4, ror r0
	...
  18:	00000090 	muleq	r0, r0, r0
  1c:	00000090 	muleq	r0, r0, r0
  20:	00000094 	muleq	r0, r4, r0
  24:	0000009c 	muleq	r0, ip, r0
  28:	000000a0 	andeq	r0, r0, r0, lsr #1
  2c:	000000c0 	andeq	r0, r0, r0, asr #1
	...
  38:	000000a0 	andeq	r0, r0, r0, lsr #1
  3c:	000000a0 	andeq	r0, r0, r0, lsr #1
  40:	000000a4 	andeq	r0, r0, r4, lsr #1
  44:	000000ac 	andeq	r0, r0, ip, lsr #1
	...
  50:	000000e8 	andeq	r0, r0, r8, ror #1
  54:	000000e8 	andeq	r0, r0, r8, ror #1
  58:	000000e8 	andeq	r0, r0, r8, ror #1
  5c:	000000e8 	andeq	r0, r0, r8, ror #1
  60:	000000e8 	andeq	r0, r0, r8, ror #1
  64:	000000f0 	strdeq	r0, [r0], -r0	; <UNPREDICTABLE>
	...
  70:	00000108 	andeq	r0, r0, r8, lsl #2
  74:	00000108 	andeq	r0, r0, r8, lsl #2
  78:	00000108 	andeq	r0, r0, r8, lsl #2
  7c:	0000010c 	andeq	r0, r0, ip, lsl #2
	...
  88:	00000140 	andeq	r0, r0, r0, asr #2
  8c:	00000140 	andeq	r0, r0, r0, asr #2
  90:	00000140 	andeq	r0, r0, r0, asr #2
  94:	00000140 	andeq	r0, r0, r0, asr #2
	...
  a0:	0000001c 	andeq	r0, r0, ip, lsl r0
  a4:	0000002c 	andeq	r0, r0, ip, lsr #32
  a8:	00000030 	andeq	r0, r0, r0, lsr r0
  ac:	00000040 	andeq	r0, r0, r0, asr #32
  b0:	00000044 	andeq	r0, r0, r4, asr #32
  b4:	000000b0 	strheq	r0, [r0], -r0	; <UNPREDICTABLE>
  b8:	000000f0 	strdeq	r0, [r0], -r0	; <UNPREDICTABLE>
  bc:	000000f8 	strdeq	r0, [r0], -r8
	...
  c8:	000000b0 	strheq	r0, [r0], -r0	; <UNPREDICTABLE>
  cc:	000000f0 	strdeq	r0, [r0], -r0	; <UNPREDICTABLE>
  d0:	000000f8 	strdeq	r0, [r0], -r8
  d4:	00000200 	andeq	r0, r0, r0, lsl #4
	...
  e0:	000000cc 	andeq	r0, r0, ip, asr #1
  e4:	000000d8 	ldrdeq	r0, [r0], -r8
  e8:	000000e0 	andeq	r0, r0, r0, ror #1
  ec:	000000e4 	andeq	r0, r0, r4, ror #1
  f0:	000000e8 	andeq	r0, r0, r8, ror #1
  f4:	000000f0 	strdeq	r0, [r0], -r0	; <UNPREDICTABLE>
  f8:	000000f8 	strdeq	r0, [r0], -r8
  fc:	00000200 	andeq	r0, r0, r0, lsl #4
	...
 108:	000000ec 	andeq	r0, r0, ip, ror #1
 10c:	000000f0 	strdeq	r0, [r0], -r0	; <UNPREDICTABLE>
 110:	000000f8 	strdeq	r0, [r0], -r8
 114:	000001d8 	ldrdeq	r0, [r0], -r8
	...
 120:	000000f8 	strdeq	r0, [r0], -r8
 124:	00000180 	andeq	r0, r0, r0, lsl #3
 128:	00000184 	andeq	r0, r0, r4, lsl #3
 12c:	00000198 	muleq	r0, r8, r1
 130:	000001a0 	andeq	r0, r0, r0, lsr #3
 134:	000001b8 			; <UNDEFINED> instruction: 0x000001b8
 138:	000001bc 			; <UNDEFINED> instruction: 0x000001bc
 13c:	000001d4 	ldrdeq	r0, [r0], -r4
	...
 148:	00000138 	andeq	r0, r0, r8, lsr r1
 14c:	00000144 	andeq	r0, r0, r4, asr #2
 150:	00000150 	andeq	r0, r0, r0, asr r1
 154:	00000154 	andeq	r0, r0, r4, asr r1
 158:	00000158 	andeq	r0, r0, r8, asr r1
 15c:	00000160 	andeq	r0, r0, r0, ror #2
	...
 168:	00000144 	andeq	r0, r0, r4, asr #2
 16c:	00000150 	andeq	r0, r0, r0, asr r1
 170:	00000164 	andeq	r0, r0, r4, ror #2
 174:	00000168 	andeq	r0, r0, r8, ror #2
	...
 180:	00008d80 	andeq	r8, r0, r0, lsl #27
 184:	00008da0 	andeq	r8, r0, r0, lsr #27
	...
 190:	00008e24 	andeq	r8, r0, r4, lsr #28
 194:	00008ea4 	andeq	r8, r0, r4, lsr #29
	...
 1a0:	000092f0 	strdeq	r9, [r0], -r0
 1a4:	0000931c 	andeq	r9, r0, ip, lsl r3
	...

Disassembly of section .debug_line:

00000000 <.debug_line>:
       0:	000001f5 	strdeq	r0, [r0], -r5
       4:	01000003 	tsteq	r0, r3
       8:	01020000 	mrseq	r0, (UNDEF: 2)
       c:	000d0efb 	strdeq	r0, [sp], -fp
      10:	01010101 	tsteq	r1, r1, lsl #2
      14:	01000000 	mrseq	r0, (UNDEF: 0)
      18:	74010000 	strvc	r0, [r1], #-0
      1c:	73747365 	cmnvc	r4, #-1811939327	; 0x94000001
      20:	73552f00 	cmpvc	r5, #0, 30
      24:	2f737265 	svccs	0x00737265
      28:	696d616a 	stmdbvs	sp!, {r1, r3, r5, r6, r8, sp, lr}^
      2c:	6f442f65 	svcvs	0x00442f65
      30:	656d7563 	strbvs	r7, [sp, #-1379]!	; 0xfffffa9d
      34:	2f73746e 	svccs	0x0073746e
      38:	34315343 	ldrtcc	r5, [r1], #-835	; 0xfffffcbd
      3c:	632f4530 			; <UNDEFINED> instruction: 0x632f4530
      40:	30343173 	eorscc	r3, r4, r3, ror r1
      44:	69662d45 	stmdbvs	r6!, {r0, r2, r6, r8, sl, fp, sp}^
      48:	2d6c616e 	stfcse	f6, [ip, #-440]!	; 0xfffffe48
      4c:	6a6f7270 	bvs	1bdca14 <__bss_end__+0x1bd29dc>
      50:	2f746365 	svccs	0x00746365
      54:	7362696c 	cmnvc	r2, #108, 18	; 0x1b0000
      58:	3034322d 	eorscc	r3, r4, sp, lsr #4
      5c:	6c2f786c 	stcvs	8, cr7, [pc], #-432	; fffffeb4 <__bss_end__+0xffff5e7c>
      60:	69706269 	ldmdbvs	r0!, {r0, r3, r5, r6, r9, sp, lr}^
      64:	636e692f 	cmnvs	lr, #770048	; 0xbc000
      68:	6564756c 	strbvs	r7, [r4, #-1388]!	; 0xfffffa94
      6c:	2f002e00 	svccs	0x00002e00
      70:	2f727375 	svccs	0x00727375
      74:	61636f6c 	cmnvs	r3, ip, ror #30
      78:	65432f6c 	strbvs	r2, [r3, #-3948]	; 0xfffff094
      7c:	72616c6c 	rsbvc	r6, r1, #108, 24	; 0x6c00
      80:	6d72612f 	ldfvse	f6, [r2, #-188]!	; 0xffffff44
      84:	6e6f6e2d 	cdpvs	14, 6, cr6, cr15, cr13, {1}
      88:	61652d65 	cmnvs	r5, r5, ror #26
      8c:	742d6962 	strtvc	r6, [sp], #-2402	; 0xfffff69e
      90:	2f747365 	svccs	0x00747365
      94:	30322d39 	eorscc	r2, r2, r9, lsr sp
      98:	34713931 	ldrbtcc	r3, [r1], #-2353	; 0xfffff6cf
      9c:	3173632d 	cmncc	r3, sp, lsr #6
      a0:	2f653730 	svccs	0x00653730
      a4:	2f62696c 	svccs	0x0062696c
      a8:	2f636367 	svccs	0x00636367
      ac:	2d6d7261 	sfmcs	f7, 2, [sp, #-388]!	; 0xfffffe7c
      b0:	656e6f6e 	strbvs	r6, [lr, #-3950]!	; 0xfffff092
      b4:	6261652d 	rsbvs	r6, r1, #188743680	; 0xb400000
      b8:	2e392f69 	cdpcs	15, 3, cr2, cr9, cr9, {3}
      bc:	2f312e32 	svccs	0x00312e32
      c0:	6c636e69 	stclvs	14, cr6, [r3], #-420	; 0xfffffe5c
      c4:	00656475 	rsbeq	r6, r5, r5, ror r4
      c8:	662d3400 	strtvs	r3, [sp], -r0, lsl #8
      cc:	742d7466 	strtvc	r7, [sp], #-1126	; 0xfffffb9a
      d0:	2e747365 	cdpcs	3, 7, cr7, cr4, cr5, {3}
      d4:	00010063 	andeq	r0, r1, r3, rrx
      d8:	69707200 	ldmdbvs	r0!, {r9, ip, sp, lr}^
      dc:	0200682e 	andeq	r6, r0, #3014656	; 0x2e0000
      e0:	66660000 	strbtvs	r0, [r6], -r0
      e4:	00682e74 	rsbeq	r2, r8, r4, ror lr
      e8:	73000003 	movwvc	r0, #3
      ec:	6e696474 	mcrvs	4, 3, r6, cr9, cr4, {3}
      f0:	63672d74 	cmnvs	r7, #116, 26	; 0x1d00
      f4:	00682e63 	rsbeq	r2, r8, r3, ror #28
      f8:	3c000004 	stccc	0, cr0, [r0], {4}
      fc:	6c697562 	cfstr64vs	mvdx7, [r9], #-392	; 0xfffffe78
     100:	6e692d74 	mcrvs	13, 3, r2, cr9, cr4, {3}
     104:	0000003e 	andeq	r0, r0, lr, lsr r0
     108:	14050000 	strne	r0, [r5], #-0
     10c:	38020500 	stmdacc	r2, {r8, sl}
     110:	03000080 	movweq	r0, #128	; 0x80
     114:	0505010a 	streq	r0, [r5, #-266]	; 0xfffffef6
     118:	06140513 			; <UNDEFINED> instruction: 0x06140513
     11c:	4b050511 	blmi	141568 <__bss_end__+0x137530>
     120:	0d053106 	stfeqs	f3, [r5, #-24]	; 0xffffffe8
     124:	05050106 	streq	r0, [r5, #-262]	; 0xfffffefa
     128:	0d05d706 	stceq	7, cr13, [r5, #-24]	; 0xffffffe8
     12c:	05050106 	streq	r0, [r5, #-262]	; 0xfffffefa
     130:	05678306 	strbeq	r8, [r7, #-774]!	; 0xfffffcfa
     134:	1505010a 	strne	r0, [r5, #-266]	; 0xfffffef6
     138:	06050501 	streq	r0, [r5], -r1, lsl #10
     13c:	2f0e052d 	svccs	0x000e052d
     140:	002f0905 	eoreq	r0, pc, r5, lsl #18
     144:	06030402 	streq	r0, [r3], -r2, lsl #8
     148:	001d052e 	andseq	r0, sp, lr, lsr #10
     14c:	06030402 	streq	r0, [r3], -r2, lsl #8
     150:	00090581 	andeq	r0, r9, r1, lsl #11
     154:	2f030402 	svccs	0x00030402
     158:	02001c05 	andeq	r1, r0, #1280	; 0x500
     15c:	2d060304 	stccs	3, cr0, [r6, #-16]
     160:	02001505 	andeq	r1, r0, #20971520	; 0x1400000
     164:	05010304 	streq	r0, [r1, #-772]	; 0xfffffcfc
     168:	04020005 	streq	r0, [r2], #-5
     16c:	06010603 	streq	r0, [r1], -r3, lsl #12
     170:	05a04b4e 	streq	r4, [r0, #2894]!	; 0xb4e
     174:	1505010a 	strne	r0, [r5, #-266]	; 0xfffffef6
     178:	06050501 	streq	r0, [r5], -r1, lsl #10
     17c:	300e0510 	andcc	r0, lr, r0, lsl r5
     180:	052f0905 	streq	r0, [pc, #-2309]!	; fffff883 <__bss_end__+0xffff584b>
     184:	09052b05 	stmdbeq	r5, {r0, r2, r8, r9, fp, sp}
     188:	03040200 	movweq	r0, #16896	; 0x4200
     18c:	1d053106 	stfnes	f3, [r5, #-24]	; 0xffffffe8
     190:	03040200 	movweq	r0, #16896	; 0x4200
     194:	09058106 	stmdbeq	r5, {r1, r2, r8, pc}
     198:	03040200 	movweq	r0, #16896	; 0x4200
     19c:	001c052f 	andseq	r0, ip, pc, lsr #10
     1a0:	06030402 	streq	r0, [r3], -r2, lsl #8
     1a4:	0015052d 	andseq	r0, r5, sp, lsr #10
     1a8:	01030402 	tsteq	r3, r2, lsl #8
     1ac:	02000505 	andeq	r0, r0, #20971520	; 0x1400000
     1b0:	01060304 	tsteq	r6, r4, lsl #6
     1b4:	a14b4e06 	cmpge	fp, r6, lsl #28
     1b8:	05010a05 	streq	r0, [r1, #-2565]	; 0xfffff5fb
     1bc:	0e050115 	mcreq	1, 0, r0, cr5, cr5, {0}
     1c0:	09050106 	stmdbeq	r5, {r1, r2, r8}
     1c4:	0402002f 	streq	r0, [r2], #-47	; 0xffffffd1
     1c8:	052e0603 	streq	r0, [lr, #-1539]!	; 0xfffff9fd
     1cc:	0402001d 	streq	r0, [r2], #-29	; 0xffffffe3
     1d0:	05810603 	streq	r0, [r1, #1539]	; 0x603
     1d4:	04020009 	streq	r0, [r2], #-9
     1d8:	1c052f03 	stcne	15, cr2, [r5], {3}
     1dc:	03040200 	movweq	r0, #16896	; 0x4200
     1e0:	15052d06 	strne	r2, [r5, #-3334]	; 0xfffff2fa
     1e4:	03040200 	movweq	r0, #16896	; 0x4200
     1e8:	00050501 	andeq	r0, r5, r1, lsl #10
     1ec:	06030402 	streq	r0, [r3], -r2, lsl #8
     1f0:	4c4d0601 	mcrrmi	6, 0, r0, sp, cr1
     1f4:	01000e02 	tsteq	r0, r2, lsl #28
     1f8:	000b7501 	andeq	r7, fp, r1, lsl #10
     1fc:	47000300 	strmi	r0, [r0, -r0, lsl #6]
     200:	02000001 	andeq	r0, r0, #1, 0
     204:	0d0efb01 	vstreq	d15, [lr, #-4]
     208:	01010100 	mrseq	r0, (UNDEF: 17)
     20c:	00000001 	andeq	r0, r0, r1
     210:	01000001 	tsteq	r0, r1
     214:	6573552f 	ldrbvs	r5, [r3, #-1327]!	; 0xfffffad1
     218:	6a2f7372 	bvs	bdcfe8 <__bss_end__+0xbd2fb0>
     21c:	65696d61 	strbvs	r6, [r9, #-3425]!	; 0xfffff29f
     220:	636f442f 	cmnvs	pc, #788529152	; 0x2f000000
     224:	6e656d75 	mcrvs	13, 3, r6, cr5, cr5, {3}
     228:	432f7374 			; <UNDEFINED> instruction: 0x432f7374
     22c:	30343153 	eorscc	r3, r4, r3, asr r1
     230:	73632f45 	cmnvc	r3, #276	; 0x114
     234:	45303431 	ldrmi	r3, [r0, #-1073]!	; 0xfffffbcf
     238:	6e69662d 	cdpvs	6, 6, cr6, cr9, cr13, {1}
     23c:	702d6c61 	eorvc	r6, sp, r1, ror #24
     240:	656a6f72 	strbvs	r6, [sl, #-3954]!	; 0xfffff08e
     244:	6c2f7463 	cfstrsvs	mvf7, [pc], #-396	; c0 <__code_start__-0x7f40>
     248:	2d736269 	lfmcs	f6, 2, [r3, #-420]!	; 0xfffffe5c
     24c:	6c303432 	cfldrsvs	mvf3, [r0], #-200	; 0xffffff38
     250:	696c2f78 	stmdbvs	ip!, {r3, r4, r5, r6, r8, r9, sl, fp, sp}^
     254:	2f697062 	svccs	0x00697062
     258:	6362696c 	cmnvs	r2, #108, 18	; 0x1b0000
     25c:	73752f00 	cmnvc	r5, #0, 30
     260:	6f6c2f72 	svcvs	0x006c2f72
     264:	2f6c6163 	svccs	0x006c6163
     268:	6c6c6543 	cfstr64vs	mvdx6, [ip], #-268	; 0xfffffef4
     26c:	612f7261 			; <UNDEFINED> instruction: 0x612f7261
     270:	6e2d6d72 	mcrvs	13, 1, r6, cr13, cr2, {3}
     274:	2d656e6f 	stclcs	14, cr6, [r5, #-444]!	; 0xfffffe44
     278:	69626165 	stmdbvs	r2!, {r0, r2, r5, r6, r8, sp, lr}^
     27c:	7365742d 	cmnvc	r5, #754974720	; 0x2d000000
     280:	2d392f74 	ldccs	15, cr2, [r9, #-464]!	; 0xfffffe30
     284:	39313032 	ldmdbcc	r1!, {r1, r4, r5, ip, sp}
     288:	632d3471 			; <UNDEFINED> instruction: 0x632d3471
     28c:	37303173 			; <UNDEFINED> instruction: 0x37303173
     290:	696c2f65 	stmdbvs	ip!, {r0, r2, r5, r6, r8, r9, sl, fp, sp}^
     294:	63672f62 	cmnvs	r7, #392	; 0x188
     298:	72612f63 	rsbvc	r2, r1, #396	; 0x18c
     29c:	6f6e2d6d 	svcvs	0x006e2d6d
     2a0:	652d656e 	strvs	r6, [sp, #-1390]!	; 0xfffffa92
     2a4:	2f696261 	svccs	0x00696261
     2a8:	2e322e39 	mrccs	14, 1, r2, cr2, cr9, {1}
     2ac:	6e692f31 	mcrvs	15, 3, r2, cr9, cr1, {1}
     2b0:	64756c63 	ldrbtvs	r6, [r5], #-3171	; 0xfffff39d
     2b4:	552f0065 	strpl	r0, [pc, #-101]!	; 257 <__code_start__-0x7da9>
     2b8:	73726573 	cmnvc	r2, #482344960	; 0x1cc00000
     2bc:	6d616a2f 	vstmdbvs	r1!, {s13-s59}
     2c0:	442f6569 	strtmi	r6, [pc], #-1385	; 2c8 <__code_start__-0x7d38>
     2c4:	6d75636f 	ldclvs	3, cr6, [r5, #-444]!	; 0xfffffe44
     2c8:	73746e65 	cmnvc	r4, #1616	; 0x650
     2cc:	3153432f 	cmpcc	r3, pc, lsr #6
     2d0:	2f453034 	svccs	0x00453034
     2d4:	34317363 	ldrtcc	r7, [r1], #-867	; 0xfffffc9d
     2d8:	662d4530 			; <UNDEFINED> instruction: 0x662d4530
     2dc:	6c616e69 	stclvs	14, cr6, [r1], #-420	; 0xfffffe5c
     2e0:	6f72702d 	svcvs	0x0072702d
     2e4:	7463656a 	strbtvc	r6, [r3], #-1386	; 0xfffffa96
     2e8:	62696c2f 	rsbvs	r6, r9, #12032	; 0x2f00
     2ec:	34322d73 	ldrtcc	r2, [r2], #-3443	; 0xfffff28d
     2f0:	2f786c30 	svccs	0x00786c30
     2f4:	7062696c 	rsbvc	r6, r2, ip, ror #18
     2f8:	6e692f69 	cdpvs	15, 6, cr2, cr9, cr9, {3}
     2fc:	64756c63 	ldrbtvs	r6, [r5], #-3171	; 0xfffff39d
     300:	62000065 	andvs	r0, r0, #101, 0	; 0x65
     304:	732d7469 			; <UNDEFINED> instruction: 0x732d7469
     308:	6f707075 	svcvs	0x00707075
     30c:	682e7472 	stmdavs	lr!, {r1, r4, r5, r6, sl, ip, sp, lr}
     310:	00000100 	andeq	r0, r0, r0, lsl #2
     314:	2e733269 	cdpcs	2, 7, cr3, cr3, cr9, {3}
     318:	00000063 	andeq	r0, r0, r3, rrx
     31c:	64747300 	ldrbtvs	r7, [r4], #-768	; 0xfffffd00
     320:	2d746e69 	ldclcs	14, cr6, [r4, #-420]!	; 0xfffffe5c
     324:	2e636367 	cdpcs	3, 6, cr6, cr3, cr7, {3}
     328:	00020068 	andeq	r0, r2, r8, rrx
     32c:	69707200 	ldmdbvs	r0!, {r9, ip, sp, lr}^
     330:	0300682e 	movweq	r6, #2094	; 0x82e
     334:	32690000 	rsbcc	r0, r9, #0, 0
     338:	00682e73 	rsbeq	r2, r8, r3, ror lr
     33c:	67000000 	strvs	r0, [r0, -r0]
     340:	2e6f6970 			; <UNDEFINED> instruction: 0x2e6f6970
     344:	00030068 	andeq	r0, r3, r8, rrx
     348:	01050000 	mrseq	r0, (UNDEF: 5)
     34c:	60020500 	andvs	r0, r2, r0, lsl #10
     350:	03000081 	movweq	r0, #129	; 0x81
     354:	050100cc 	streq	r0, [r1, #-204]	; 0xffffff34
     358:	010b0305 	tsteq	fp, r5, lsl #6
     35c:	06010501 	streq	r0, [r1], -r1, lsl #10
     360:	05017503 	streq	r7, [r1, #-1283]	; 0xfffffafd
     364:	2e0b0305 	cdpcs	3, 0, cr0, cr11, cr5, {0}
     368:	75030105 	strvc	r0, [r3, #-261]	; 0xfffffefb
     36c:	0305052e 	movweq	r0, #21806	; 0x552e
     370:	ba062e0b 	blt	18bba4 <__bss_end__+0x181b6c>
     374:	25050204 	strcs	r0, [r5, #-516]	; 0xfffffdfc
     378:	9e7fbd03 	cdpls	13, 7, cr11, cr15, cr3, {0}
     37c:	05160505 	ldreq	r0, [r6, #-1285]	; 0xfffffafb
     380:	2e130601 	cfmsub32cs	mvax0, mvfx0, mvfx3, mvfx1
     384:	30061505 	andcc	r1, r6, r5, lsl #10
     388:	01130505 	tsteq	r3, r5, lsl #10
     38c:	11061505 	tstne	r6, r5, lsl #10
     390:	052f0505 	streq	r0, [pc, #-1285]!	; fffffe93 <__bss_end__+0xffff5e5b>
     394:	05052d15 	streq	r2, [r5, #-3349]	; 0xfffff2eb
     398:	0601042f 	streq	r0, [r1], -pc, lsr #8
     39c:	01010d35 	tsteq	r1, r5, lsr sp
     3a0:	02041301 	andeq	r1, r4, #67108864	; 0x4000000
     3a4:	02000f06 	andeq	r0, r0, #6, 30
     3a8:	4a060204 	bmi	180bc0 <__bss_end__+0x176b88>
     3ac:	02040200 	andeq	r0, r4, #0, 4
     3b0:	04020001 	streq	r0, [r2], #-1
     3b4:	02001602 	andeq	r1, r0, #2097152	; 0x200000
     3b8:	00670204 	rsbeq	r0, r7, r4, lsl #4
     3bc:	67020402 	strvs	r0, [r2, -r2, lsl #8]
     3c0:	02040200 	andeq	r0, r4, #0, 4
     3c4:	04020068 	streq	r0, [r2], #-104	; 0xffffff98
     3c8:	02004b02 	andeq	r4, r0, #2048	; 0x800
     3cc:	004b0204 	subeq	r0, fp, r4, lsl #4
     3d0:	4c020402 	cfstrsmi	mvf0, [r2], {2}
     3d4:	02040200 	andeq	r0, r4, #0, 4
     3d8:	00140531 	andseq	r0, r4, r1, lsr r5
     3dc:	06020402 	streq	r0, [r2], -r2, lsl #8
     3e0:	00050501 	andeq	r0, r5, r1, lsl #10
     3e4:	06020402 	streq	r0, [r2], -r2, lsl #8
     3e8:	0001044b 	andeq	r0, r1, fp, asr #8
     3ec:	03020402 	movweq	r0, #9218	; 0x2402
     3f0:	02000121 	andeq	r0, r0, #1073741832	; 0x40000008
     3f4:	00010204 	andeq	r0, r1, r4, lsl #4
     3f8:	01020402 	tsteq	r2, r2, lsl #8
     3fc:	02040200 	andeq	r0, r4, #0, 4
     400:	04020001 	streq	r0, [r2], #-1
     404:	02001302 	andeq	r1, r0, #134217728	; 0x8000000
     408:	00010204 	andeq	r0, r1, r4, lsl #4
     40c:	01020402 	tsteq	r2, r2, lsl #8
     410:	02040200 	andeq	r0, r4, #0, 4
     414:	04020001 	streq	r0, [r2], #-1
     418:	02001902 	andeq	r1, r0, #32768	; 0x8000
     41c:	00130204 	andseq	r0, r3, r4, lsl #4
     420:	01020402 	tsteq	r2, r2, lsl #8
     424:	02040200 	andeq	r0, r4, #0, 4
     428:	04020001 	streq	r0, [r2], #-1
     42c:	02000102 	andeq	r0, r0, #-2147483648	; 0x80000000
     430:	00130204 	andseq	r0, r3, r4, lsl #4
     434:	01020402 	tsteq	r2, r2, lsl #8
     438:	02040200 	andeq	r0, r4, #0, 4
     43c:	00015903 	andeq	r5, r1, r3, lsl #18
     440:	14020402 	strne	r0, [r2], #-1026	; 0xfffffbfe
     444:	02040200 	andeq	r0, r4, #0, 4
     448:	04020001 	streq	r0, [r2], #-1
     44c:	02000102 	andeq	r0, r0, #-2147483648	; 0x80000000
     450:	00010204 	andeq	r0, r1, r4, lsl #4
     454:	13020402 	movwne	r0, #9218	; 0x2402
     458:	02040200 	andeq	r0, r4, #0, 4
     45c:	00012403 	andeq	r2, r1, r3, lsl #8
     460:	01020402 	tsteq	r2, r2, lsl #8
     464:	02040200 	andeq	r0, r4, #0, 4
     468:	04020014 	streq	r0, [r2], #-20	; 0xffffffec
     46c:	01680302 	cmneq	r8, r2, lsl #6
     470:	02040200 	andeq	r0, r4, #0, 4
     474:	04020001 	streq	r0, [r2], #-1
     478:	02000102 	andeq	r0, r0, #-2147483648	; 0x80000000
     47c:	00010204 	andeq	r0, r1, r4, lsl #4
     480:	13020402 	movwne	r0, #9218	; 0x2402
     484:	02040200 	andeq	r0, r4, #0, 4
     488:	04020001 	streq	r0, [r2], #-1
     48c:	02000102 	andeq	r0, r0, #-2147483648	; 0x80000000
     490:	00010204 	andeq	r0, r1, r4, lsl #4
     494:	14020402 	strne	r0, [r2], #-1026	; 0xfffffbfe
     498:	02040200 	andeq	r0, r4, #0, 4
     49c:	00016c03 	andeq	r6, r1, r3, lsl #24
     4a0:	14020402 	strne	r0, [r2], #-1026	; 0xfffffbfe
     4a4:	02040200 	andeq	r0, r4, #0, 4
     4a8:	04020001 	streq	r0, [r2], #-1
     4ac:	02000102 	andeq	r0, r0, #-2147483648	; 0x80000000
     4b0:	00010204 	andeq	r0, r1, r4, lsl #4
     4b4:	13020402 	movwne	r0, #9218	; 0x2402
     4b8:	02040200 	andeq	r0, r4, #0, 4
     4bc:	04011403 	streq	r1, [r1], #-1027	; 0xfffffbfd
     4c0:	04020002 	streq	r0, [r2], #-2
     4c4:	01660302 	cmneq	r6, r2, lsl #6
     4c8:	02000104 	andeq	r0, r0, #1
     4cc:	20030204 	andcs	r0, r3, r4, lsl #4
     4d0:	04020001 	streq	r0, [r2], #-1
     4d4:	02000102 	andeq	r0, r0, #-2147483648	; 0x80000000
     4d8:	00010204 	andeq	r0, r1, r4, lsl #4
     4dc:	01020402 	tsteq	r2, r2, lsl #8
     4e0:	02040200 	andeq	r0, r4, #0, 4
     4e4:	04020013 	streq	r0, [r2], #-19	; 0xffffffed
     4e8:	02000102 	andeq	r0, r0, #-2147483648	; 0x80000000
     4ec:	00010204 	andeq	r0, r1, r4, lsl #4
     4f0:	01020402 	tsteq	r2, r2, lsl #8
     4f4:	02040200 	andeq	r0, r4, #0, 4
     4f8:	04020019 	streq	r0, [r2], #-25	; 0xffffffe7
     4fc:	02001302 	andeq	r1, r0, #134217728	; 0x8000000
     500:	00010204 	andeq	r0, r1, r4, lsl #4
     504:	01020402 	tsteq	r2, r2, lsl #8
     508:	02040200 	andeq	r0, r4, #0, 4
     50c:	04020001 	streq	r0, [r2], #-1
     510:	02001302 	andeq	r1, r0, #134217728	; 0x8000000
     514:	00010204 	andeq	r0, r1, r4, lsl #4
     518:	03020402 	movweq	r0, #9218	; 0x2402
     51c:	02000159 	andeq	r0, r0, #1073741846	; 0x40000016
     520:	00140204 	andseq	r0, r4, r4, lsl #4
     524:	01020402 	tsteq	r2, r2, lsl #8
     528:	02040200 	andeq	r0, r4, #0, 4
     52c:	04020001 	streq	r0, [r2], #-1
     530:	02000102 	andeq	r0, r0, #-2147483648	; 0x80000000
     534:	00130204 	andseq	r0, r3, r4, lsl #4
     538:	03020402 	movweq	r0, #9218	; 0x2402
     53c:	02000124 	andeq	r0, r0, #9
     540:	00010204 	andeq	r0, r1, r4, lsl #4
     544:	14020402 	strne	r0, [r2], #-1026	; 0xfffffbfe
     548:	02040200 	andeq	r0, r4, #0, 4
     54c:	00016803 	andeq	r6, r1, r3, lsl #16
     550:	01020402 	tsteq	r2, r2, lsl #8
     554:	02040200 	andeq	r0, r4, #0, 4
     558:	04020001 	streq	r0, [r2], #-1
     55c:	02000102 	andeq	r0, r0, #-2147483648	; 0x80000000
     560:	00130204 	andseq	r0, r3, r4, lsl #4
     564:	01020402 	tsteq	r2, r2, lsl #8
     568:	02040200 	andeq	r0, r4, #0, 4
     56c:	04020001 	streq	r0, [r2], #-1
     570:	02000102 	andeq	r0, r0, #-2147483648	; 0x80000000
     574:	00140204 	andseq	r0, r4, r4, lsl #4
     578:	03020402 	movweq	r0, #9218	; 0x2402
     57c:	0200016c 	andeq	r0, r0, #27
     580:	00140204 	andseq	r0, r4, r4, lsl #4
     584:	01020402 	tsteq	r2, r2, lsl #8
     588:	02040200 	andeq	r0, r4, #0, 4
     58c:	04020001 	streq	r0, [r2], #-1
     590:	02000102 	andeq	r0, r0, #-2147483648	; 0x80000000
     594:	00130204 	andseq	r0, r3, r4, lsl #4
     598:	03020402 	movweq	r0, #9218	; 0x2402
     59c:	02040114 	andeq	r0, r4, #5
     5a0:	02040200 	andeq	r0, r4, #0, 4
     5a4:	05016703 	streq	r6, [r1, #-1795]	; 0xfffff8fd
     5a8:	0402000a 	streq	r0, [r2], #-10
     5ac:	01660302 	cmneq	r6, r2, lsl #6
     5b0:	02000505 	andeq	r0, r0, #20971520	; 0x1400000
     5b4:	00160204 	andseq	r0, r6, r4, lsl #4
     5b8:	06020402 	streq	r0, [r2], -r2, lsl #8
     5bc:	04020001 	streq	r0, [r2], #-1
     5c0:	17030602 	strne	r0, [r3, -r2, lsl #12]
     5c4:	00100501 	andseq	r0, r0, r1, lsl #10
     5c8:	06020402 	streq	r0, [r2], -r2, lsl #8
     5cc:	002e6903 	eoreq	r6, lr, r3, lsl #18
     5d0:	2e020402 	cdpcs	4, 0, cr0, cr2, cr2, {0}
     5d4:	02000505 	andeq	r0, r0, #20971520	; 0x1400000
     5d8:	17030204 	strne	r0, [r3, -r4, lsl #4]
     5dc:	0402002e 	streq	r0, [r2], #-46	; 0xffffffd2
     5e0:	00690602 	rsbeq	r0, r9, r2, lsl #12
     5e4:	13020402 	movwne	r0, #9218	; 0x2402
     5e8:	02000104 	andeq	r0, r0, #1
     5ec:	1a030204 	bne	c0e04 <__bss_end__+0xb6dcc>
     5f0:	04020001 	streq	r0, [r2], #-1
     5f4:	02000102 	andeq	r0, r0, #-2147483648	; 0x80000000
     5f8:	00010204 	andeq	r0, r1, r4, lsl #4
     5fc:	01020402 	tsteq	r2, r2, lsl #8
     600:	02040200 	andeq	r0, r4, #0, 4
     604:	04020013 	streq	r0, [r2], #-19	; 0xffffffed
     608:	02000102 	andeq	r0, r0, #-2147483648	; 0x80000000
     60c:	00010204 	andeq	r0, r1, r4, lsl #4
     610:	01020402 	tsteq	r2, r2, lsl #8
     614:	02040200 	andeq	r0, r4, #0, 4
     618:	04020019 	streq	r0, [r2], #-25	; 0xffffffe7
     61c:	02001302 	andeq	r1, r0, #134217728	; 0x8000000
     620:	00010204 	andeq	r0, r1, r4, lsl #4
     624:	01020402 	tsteq	r2, r2, lsl #8
     628:	02040200 	andeq	r0, r4, #0, 4
     62c:	04020001 	streq	r0, [r2], #-1
     630:	02001302 	andeq	r1, r0, #134217728	; 0x8000000
     634:	00010204 	andeq	r0, r1, r4, lsl #4
     638:	03020402 	movweq	r0, #9218	; 0x2402
     63c:	02000159 	andeq	r0, r0, #1073741846	; 0x40000016
     640:	00140204 	andseq	r0, r4, r4, lsl #4
     644:	01020402 	tsteq	r2, r2, lsl #8
     648:	02040200 	andeq	r0, r4, #0, 4
     64c:	04020001 	streq	r0, [r2], #-1
     650:	02000102 	andeq	r0, r0, #-2147483648	; 0x80000000
     654:	00130204 	andseq	r0, r3, r4, lsl #4
     658:	03020402 	movweq	r0, #9218	; 0x2402
     65c:	02000124 	andeq	r0, r0, #9
     660:	00010204 	andeq	r0, r1, r4, lsl #4
     664:	14020402 	strne	r0, [r2], #-1026	; 0xfffffbfe
     668:	02040200 	andeq	r0, r4, #0, 4
     66c:	00016803 	andeq	r6, r1, r3, lsl #16
     670:	01020402 	tsteq	r2, r2, lsl #8
     674:	02040200 	andeq	r0, r4, #0, 4
     678:	04020001 	streq	r0, [r2], #-1
     67c:	02000102 	andeq	r0, r0, #-2147483648	; 0x80000000
     680:	00130204 	andseq	r0, r3, r4, lsl #4
     684:	01020402 	tsteq	r2, r2, lsl #8
     688:	02040200 	andeq	r0, r4, #0, 4
     68c:	04020001 	streq	r0, [r2], #-1
     690:	02000102 	andeq	r0, r0, #-2147483648	; 0x80000000
     694:	00140204 	andseq	r0, r4, r4, lsl #4
     698:	03020402 	movweq	r0, #9218	; 0x2402
     69c:	0200016c 	andeq	r0, r0, #27
     6a0:	00140204 	andseq	r0, r4, r4, lsl #4
     6a4:	01020402 	tsteq	r2, r2, lsl #8
     6a8:	02040200 	andeq	r0, r4, #0, 4
     6ac:	04020001 	streq	r0, [r2], #-1
     6b0:	02000102 	andeq	r0, r0, #-2147483648	; 0x80000000
     6b4:	00130204 	andseq	r0, r3, r4, lsl #4
     6b8:	03020402 	movweq	r0, #9218	; 0x2402
     6bc:	02040114 	andeq	r0, r4, #5
     6c0:	02040200 	andeq	r0, r4, #0, 4
     6c4:	04016d03 	streq	r6, [r1], #-3331	; 0xfffff2fd
     6c8:	04020001 	streq	r0, [r2], #-1
     6cc:	01190302 	tsteq	r9, r2, lsl #6
     6d0:	02040200 	andeq	r0, r4, #0, 4
     6d4:	04020001 	streq	r0, [r2], #-1
     6d8:	02000102 	andeq	r0, r0, #-2147483648	; 0x80000000
     6dc:	00010204 	andeq	r0, r1, r4, lsl #4
     6e0:	13020402 	movwne	r0, #9218	; 0x2402
     6e4:	02040200 	andeq	r0, r4, #0, 4
     6e8:	04020001 	streq	r0, [r2], #-1
     6ec:	02000102 	andeq	r0, r0, #-2147483648	; 0x80000000
     6f0:	00010204 	andeq	r0, r1, r4, lsl #4
     6f4:	19020402 	stmdbne	r2, {r1, sl}
     6f8:	02040200 	andeq	r0, r4, #0, 4
     6fc:	04020013 	streq	r0, [r2], #-19	; 0xffffffed
     700:	02000102 	andeq	r0, r0, #-2147483648	; 0x80000000
     704:	00010204 	andeq	r0, r1, r4, lsl #4
     708:	01020402 	tsteq	r2, r2, lsl #8
     70c:	02040200 	andeq	r0, r4, #0, 4
     710:	04020013 	streq	r0, [r2], #-19	; 0xffffffed
     714:	02000102 	andeq	r0, r0, #-2147483648	; 0x80000000
     718:	59030204 	stmdbpl	r3, {r2, r9}
     71c:	04020001 	streq	r0, [r2], #-1
     720:	02001402 	andeq	r1, r0, #33554432	; 0x2000000
     724:	00010204 	andeq	r0, r1, r4, lsl #4
     728:	01020402 	tsteq	r2, r2, lsl #8
     72c:	02040200 	andeq	r0, r4, #0, 4
     730:	04020001 	streq	r0, [r2], #-1
     734:	02001302 	andeq	r1, r0, #134217728	; 0x8000000
     738:	24030204 	strcs	r0, [r3], #-516	; 0xfffffdfc
     73c:	04020001 	streq	r0, [r2], #-1
     740:	02000102 	andeq	r0, r0, #-2147483648	; 0x80000000
     744:	00140204 	andseq	r0, r4, r4, lsl #4
     748:	03020402 	movweq	r0, #9218	; 0x2402
     74c:	02000168 	andeq	r0, r0, #26
     750:	00010204 	andeq	r0, r1, r4, lsl #4
     754:	01020402 	tsteq	r2, r2, lsl #8
     758:	02040200 	andeq	r0, r4, #0, 4
     75c:	04020001 	streq	r0, [r2], #-1
     760:	02001302 	andeq	r1, r0, #134217728	; 0x8000000
     764:	00010204 	andeq	r0, r1, r4, lsl #4
     768:	01020402 	tsteq	r2, r2, lsl #8
     76c:	02040200 	andeq	r0, r4, #0, 4
     770:	04020001 	streq	r0, [r2], #-1
     774:	02001402 	andeq	r1, r0, #33554432	; 0x2000000
     778:	6c030204 	sfmvs	f0, 4, [r3], {4}
     77c:	04020001 	streq	r0, [r2], #-1
     780:	02001402 	andeq	r1, r0, #33554432	; 0x2000000
     784:	00010204 	andeq	r0, r1, r4, lsl #4
     788:	01020402 	tsteq	r2, r2, lsl #8
     78c:	02040200 	andeq	r0, r4, #0, 4
     790:	04020001 	streq	r0, [r2], #-1
     794:	02001302 	andeq	r1, r0, #134217728	; 0x8000000
     798:	14030204 	strne	r0, [r3], #-516	; 0xfffffdfc
     79c:	00020401 	andeq	r0, r2, r1, lsl #8
     7a0:	03020402 	movweq	r0, #9218	; 0x2402
     7a4:	0200016e 	andeq	r0, r0, #-2147483621	; 0x8000001b
     7a8:	63030204 	movwvs	r0, #12804	; 0x3204
     7ac:	04020001 	streq	r0, [r2], #-1
     7b0:	011e0302 	tsteq	lr, r2, lsl #6
     7b4:	02040200 	andeq	r0, r4, #0, 4
     7b8:	000b0569 	andeq	r0, fp, r9, ror #10
     7bc:	06020402 	streq	r0, [r2], -r2, lsl #8
     7c0:	00050501 	andeq	r0, r5, r1, lsl #10
     7c4:	06020402 	streq	r0, [r2], -r2, lsl #8
     7c8:	0001044b 	andeq	r0, r1, fp, asr #8
     7cc:	03020402 	movweq	r0, #9218	; 0x2402
     7d0:	02000154 	andeq	r0, r0, #21
     7d4:	00010204 	andeq	r0, r1, r4, lsl #4
     7d8:	01020402 	tsteq	r2, r2, lsl #8
     7dc:	02040200 	andeq	r0, r4, #0, 4
     7e0:	04020001 	streq	r0, [r2], #-1
     7e4:	02041302 	andeq	r1, r4, #134217728	; 0x8000000
     7e8:	02040200 	andeq	r0, r4, #0, 4
     7ec:	05012c03 	streq	r2, [r1, #-3075]	; 0xfffff3fd
     7f0:	0402000a 	streq	r0, [r2], #-10
     7f4:	01590302 	cmpeq	r9, r2, lsl #6
     7f8:	02000505 	andeq	r0, r0, #20971520	; 0x1400000
     7fc:	00160204 	andseq	r0, r6, r4, lsl #4
     800:	06020402 	streq	r0, [r2], -r2, lsl #8
     804:	04020001 	streq	r0, [r2], #-1
     808:	24030602 	strcs	r0, [r3], #-1538	; 0xfffff9fe
     80c:	04020001 	streq	r0, [r2], #-1
     810:	00660602 	rsbeq	r0, r6, r2, lsl #12
     814:	06020402 	streq	r0, [r2], -r2, lsl #8
     818:	04020030 	streq	r0, [r2], #-48	; 0xffffffd0
     81c:	0b053202 	bleq	14d02c <__bss_end__+0x142ff4>
     820:	02040200 	andeq	r0, r4, #0, 4
     824:	05050106 	streq	r0, [r5, #-262]	; 0xfffffefa
     828:	02040200 	andeq	r0, r4, #0, 4
     82c:	01044b06 	tsteq	r4, r6, lsl #22
     830:	02040200 	andeq	r0, r4, #0, 4
     834:	00010a03 	andeq	r0, r1, r3, lsl #20
     838:	01020402 	tsteq	r2, r2, lsl #8
     83c:	02040200 	andeq	r0, r4, #0, 4
     840:	04020001 	streq	r0, [r2], #-1
     844:	02000102 	andeq	r0, r0, #-2147483648	; 0x80000000
     848:	00130204 	andseq	r0, r3, r4, lsl #4
     84c:	01020402 	tsteq	r2, r2, lsl #8
     850:	02040200 	andeq	r0, r4, #0, 4
     854:	04020001 	streq	r0, [r2], #-1
     858:	02000102 	andeq	r0, r0, #-2147483648	; 0x80000000
     85c:	00190204 	andseq	r0, r9, r4, lsl #4
     860:	13020402 	movwne	r0, #9218	; 0x2402
     864:	02040200 	andeq	r0, r4, #0, 4
     868:	04020001 	streq	r0, [r2], #-1
     86c:	02000102 	andeq	r0, r0, #-2147483648	; 0x80000000
     870:	00010204 	andeq	r0, r1, r4, lsl #4
     874:	13020402 	movwne	r0, #9218	; 0x2402
     878:	02040200 	andeq	r0, r4, #0, 4
     87c:	04020001 	streq	r0, [r2], #-1
     880:	01590302 	cmpeq	r9, r2, lsl #6
     884:	02040200 	andeq	r0, r4, #0, 4
     888:	04020014 	streq	r0, [r2], #-20	; 0xffffffec
     88c:	02000102 	andeq	r0, r0, #-2147483648	; 0x80000000
     890:	00010204 	andeq	r0, r1, r4, lsl #4
     894:	01020402 	tsteq	r2, r2, lsl #8
     898:	02040200 	andeq	r0, r4, #0, 4
     89c:	04020013 	streq	r0, [r2], #-19	; 0xffffffed
     8a0:	01240302 			; <UNDEFINED> instruction: 0x01240302
     8a4:	02040200 	andeq	r0, r4, #0, 4
     8a8:	04020001 	streq	r0, [r2], #-1
     8ac:	02001402 	andeq	r1, r0, #33554432	; 0x2000000
     8b0:	68030204 	stmdavs	r3, {r2, r9}
     8b4:	04020001 	streq	r0, [r2], #-1
     8b8:	02000102 	andeq	r0, r0, #-2147483648	; 0x80000000
     8bc:	00010204 	andeq	r0, r1, r4, lsl #4
     8c0:	01020402 	tsteq	r2, r2, lsl #8
     8c4:	02040200 	andeq	r0, r4, #0, 4
     8c8:	04020013 	streq	r0, [r2], #-19	; 0xffffffed
     8cc:	02000102 	andeq	r0, r0, #-2147483648	; 0x80000000
     8d0:	00010204 	andeq	r0, r1, r4, lsl #4
     8d4:	01020402 	tsteq	r2, r2, lsl #8
     8d8:	02040200 	andeq	r0, r4, #0, 4
     8dc:	04020014 	streq	r0, [r2], #-20	; 0xffffffec
     8e0:	016c0302 	cmneq	ip, r2, lsl #6
     8e4:	02040200 	andeq	r0, r4, #0, 4
     8e8:	04020014 	streq	r0, [r2], #-20	; 0xffffffec
     8ec:	02000102 	andeq	r0, r0, #-2147483648	; 0x80000000
     8f0:	00010204 	andeq	r0, r1, r4, lsl #4
     8f4:	01020402 	tsteq	r2, r2, lsl #8
     8f8:	02040200 	andeq	r0, r4, #0, 4
     8fc:	04020013 	streq	r0, [r2], #-19	; 0xffffffed
     900:	01140302 	tsteq	r4, r2, lsl #6
     904:	02000204 	andeq	r0, r0, #4, 4	; 0x40000000
     908:	040f0204 	streq	r0, [pc], #-516	; 910 <__code_start__-0x76f0>
     90c:	00010501 	andeq	r0, r1, r1, lsl #10
     910:	1a020402 	bne	81920 <__bss_end__+0x778e8>
     914:	02000505 	andeq	r0, r0, #20971520	; 0x1400000
     918:	00130204 	andseq	r0, r3, r4, lsl #4
     91c:	01020402 	tsteq	r2, r2, lsl #8
     920:	02040200 	andeq	r0, r4, #0, 4
     924:	04020001 	streq	r0, [r2], #-1
     928:	02000102 	andeq	r0, r0, #-2147483648	; 0x80000000
     92c:	00130204 	andseq	r0, r3, r4, lsl #4
     930:	01020402 	tsteq	r2, r2, lsl #8
     934:	02040200 	andeq	r0, r4, #0, 4
     938:	04020001 	streq	r0, [r2], #-1
     93c:	02000102 	andeq	r0, r0, #-2147483648	; 0x80000000
     940:	00190204 	andseq	r0, r9, r4, lsl #4
     944:	13020402 	movwne	r0, #9218	; 0x2402
     948:	02040200 	andeq	r0, r4, #0, 4
     94c:	04020001 	streq	r0, [r2], #-1
     950:	02000102 	andeq	r0, r0, #-2147483648	; 0x80000000
     954:	00010204 	andeq	r0, r1, r4, lsl #4
     958:	13020402 	movwne	r0, #9218	; 0x2402
     95c:	02040200 	andeq	r0, r4, #0, 4
     960:	04020001 	streq	r0, [r2], #-1
     964:	00010602 	andeq	r0, r1, r2, lsl #12
     968:	06020402 	streq	r0, [r2], -r2, lsl #8
     96c:	00015903 	andeq	r5, r1, r3, lsl #18
     970:	14020402 	strne	r0, [r2], #-1026	; 0xfffffbfe
     974:	02040200 	andeq	r0, r4, #0, 4
     978:	04020001 	streq	r0, [r2], #-1
     97c:	02000102 	andeq	r0, r0, #-2147483648	; 0x80000000
     980:	00010204 	andeq	r0, r1, r4, lsl #4
     984:	13020402 	movwne	r0, #9218	; 0x2402
     988:	02040200 	andeq	r0, r4, #0, 4
     98c:	00012403 	andeq	r2, r1, r3, lsl #8
     990:	01020402 	tsteq	r2, r2, lsl #8
     994:	02040200 	andeq	r0, r4, #0, 4
     998:	04020014 	streq	r0, [r2], #-20	; 0xffffffec
     99c:	00010602 	andeq	r0, r1, r2, lsl #12
     9a0:	06020402 	streq	r0, [r2], -r2, lsl #8
     9a4:	00016803 	andeq	r6, r1, r3, lsl #16
     9a8:	01020402 	tsteq	r2, r2, lsl #8
     9ac:	02040200 	andeq	r0, r4, #0, 4
     9b0:	04020001 	streq	r0, [r2], #-1
     9b4:	02000102 	andeq	r0, r0, #-2147483648	; 0x80000000
     9b8:	00130204 	andseq	r0, r3, r4, lsl #4
     9bc:	01020402 	tsteq	r2, r2, lsl #8
     9c0:	02040200 	andeq	r0, r4, #0, 4
     9c4:	04020001 	streq	r0, [r2], #-1
     9c8:	02000102 	andeq	r0, r0, #-2147483648	; 0x80000000
     9cc:	00140204 	andseq	r0, r4, r4, lsl #4
     9d0:	03020402 	movweq	r0, #9218	; 0x2402
     9d4:	0200016c 	andeq	r0, r0, #27
     9d8:	00140204 	andseq	r0, r4, r4, lsl #4
     9dc:	01020402 	tsteq	r2, r2, lsl #8
     9e0:	02040200 	andeq	r0, r4, #0, 4
     9e4:	04020001 	streq	r0, [r2], #-1
     9e8:	02000102 	andeq	r0, r0, #-2147483648	; 0x80000000
     9ec:	00130204 	andseq	r0, r3, r4, lsl #4
     9f0:	03020402 	movweq	r0, #9218	; 0x2402
     9f4:	02040114 	andeq	r0, r4, #5
     9f8:	02040200 	andeq	r0, r4, #0, 4
     9fc:	05010410 	streq	r0, [r1, #-1040]	; 0xfffffbf0
     a00:	04020020 	streq	r0, [r2], #-32	; 0xffffffe0
     a04:	14030602 	strne	r0, [r3], #-1538	; 0xfffff9fe
     a08:	05020401 	streq	r0, [r2, #-1025]	; 0xfffffbff
     a0c:	04020005 	streq	r0, [r2], #-5
     a10:	4a6c0302 	bmi	1b01620 <__bss_end__+0x1af75e8>
     a14:	02040200 	andeq	r0, r4, #0, 4
     a18:	04020066 	streq	r0, [r2], #-102	; 0xffffff9a
     a1c:	05300602 	ldreq	r0, [r0, #-1538]!	; 0xfffff9fe
     a20:	0402000b 	streq	r0, [r2], #-11
     a24:	05010602 	streq	r0, [r1, #-1538]	; 0xfffff9fe
     a28:	04020005 	streq	r0, [r2], #-5
     a2c:	044b0602 	strbeq	r0, [fp], #-1538	; 0xfffff9fe
     a30:	04020001 	streq	r0, [r2], #-1
     a34:	01460302 	cmpeq	r6, r2, lsl #6
     a38:	02040200 	andeq	r0, r4, #0, 4
     a3c:	04020001 	streq	r0, [r2], #-1
     a40:	02000102 	andeq	r0, r0, #-2147483648	; 0x80000000
     a44:	00010204 	andeq	r0, r1, r4, lsl #4
     a48:	13020402 	movwne	r0, #9218	; 0x2402
     a4c:	02000204 	andeq	r0, r0, #4, 4	; 0x40000000
     a50:	3a030204 	bcc	c1268 <__bss_end__+0xb7230>
     a54:	00010401 	andeq	r0, r1, r1, lsl #8
     a58:	16020402 	strne	r0, [r2], -r2, lsl #8
     a5c:	02040200 	andeq	r0, r4, #0, 4
     a60:	04020001 	streq	r0, [r2], #-1
     a64:	02000102 	andeq	r0, r0, #-2147483648	; 0x80000000
     a68:	00010204 	andeq	r0, r1, r4, lsl #4
     a6c:	13020402 	movwne	r0, #9218	; 0x2402
     a70:	02040200 	andeq	r0, r4, #0, 4
     a74:	04020001 	streq	r0, [r2], #-1
     a78:	02000102 	andeq	r0, r0, #-2147483648	; 0x80000000
     a7c:	00010204 	andeq	r0, r1, r4, lsl #4
     a80:	19020402 	stmdbne	r2, {r1, sl}
     a84:	02040200 	andeq	r0, r4, #0, 4
     a88:	04020013 	streq	r0, [r2], #-19	; 0xffffffed
     a8c:	02000102 	andeq	r0, r0, #-2147483648	; 0x80000000
     a90:	00010204 	andeq	r0, r1, r4, lsl #4
     a94:	01020402 	tsteq	r2, r2, lsl #8
     a98:	02040200 	andeq	r0, r4, #0, 4
     a9c:	04020013 	streq	r0, [r2], #-19	; 0xffffffed
     aa0:	02000102 	andeq	r0, r0, #-2147483648	; 0x80000000
     aa4:	59030204 	stmdbpl	r3, {r2, r9}
     aa8:	04020001 	streq	r0, [r2], #-1
     aac:	02001402 	andeq	r1, r0, #33554432	; 0x2000000
     ab0:	00010204 	andeq	r0, r1, r4, lsl #4
     ab4:	01020402 	tsteq	r2, r2, lsl #8
     ab8:	02040200 	andeq	r0, r4, #0, 4
     abc:	04020001 	streq	r0, [r2], #-1
     ac0:	02001302 	andeq	r1, r0, #134217728	; 0x8000000
     ac4:	24030204 	strcs	r0, [r3], #-516	; 0xfffffdfc
     ac8:	04020001 	streq	r0, [r2], #-1
     acc:	02000102 	andeq	r0, r0, #-2147483648	; 0x80000000
     ad0:	00140204 	andseq	r0, r4, r4, lsl #4
     ad4:	03020402 	movweq	r0, #9218	; 0x2402
     ad8:	02000168 	andeq	r0, r0, #26
     adc:	00010204 	andeq	r0, r1, r4, lsl #4
     ae0:	01020402 	tsteq	r2, r2, lsl #8
     ae4:	02040200 	andeq	r0, r4, #0, 4
     ae8:	04020001 	streq	r0, [r2], #-1
     aec:	02001302 	andeq	r1, r0, #134217728	; 0x8000000
     af0:	00010204 	andeq	r0, r1, r4, lsl #4
     af4:	01020402 	tsteq	r2, r2, lsl #8
     af8:	02040200 	andeq	r0, r4, #0, 4
     afc:	04020001 	streq	r0, [r2], #-1
     b00:	02001402 	andeq	r1, r0, #33554432	; 0x2000000
     b04:	6c030204 	sfmvs	f0, 4, [r3], {4}
     b08:	04020001 	streq	r0, [r2], #-1
     b0c:	02001402 	andeq	r1, r0, #33554432	; 0x2000000
     b10:	00010204 	andeq	r0, r1, r4, lsl #4
     b14:	01020402 	tsteq	r2, r2, lsl #8
     b18:	02040200 	andeq	r0, r4, #0, 4
     b1c:	04020001 	streq	r0, [r2], #-1
     b20:	02001302 	andeq	r1, r0, #134217728	; 0x8000000
     b24:	14030204 	strne	r0, [r3], #-516	; 0xfffffdfc
     b28:	00020401 	andeq	r0, r2, r1, lsl #8
     b2c:	15020402 	strne	r0, [r2, #-1026]	; 0xfffffbfe
     b30:	01050104 	tsteq	r5, r4, lsl #2
     b34:	02040200 	andeq	r0, r4, #0, 4
     b38:	05014303 	streq	r4, [r1, #-771]	; 0xfffffcfd
     b3c:	04020005 	streq	r0, [r2], #-5
     b40:	02001302 	andeq	r1, r0, #134217728	; 0x8000000
     b44:	00010204 	andeq	r0, r1, r4, lsl #4
     b48:	01020402 	tsteq	r2, r2, lsl #8
     b4c:	02040200 	andeq	r0, r4, #0, 4
     b50:	04020001 	streq	r0, [r2], #-1
     b54:	02001302 	andeq	r1, r0, #134217728	; 0x8000000
     b58:	01060204 	tsteq	r6, r4, lsl #4
     b5c:	02000204 	andeq	r0, r0, #4, 4	; 0x40000000
     b60:	03060204 	movweq	r0, #25092	; 0x6204
     b64:	040100c0 	streq	r0, [r1], #-192	; 0xffffff40
     b68:	000e0501 	andeq	r0, lr, r1, lsl #10
     b6c:	06020402 	streq	r0, [r2], -r2, lsl #8
     b70:	04014003 	streq	r4, [r1], #-3
     b74:	00050502 	andeq	r0, r5, r2, lsl #10
     b78:	03020402 	movweq	r0, #9218	; 0x2402
     b7c:	002e00c0 	eoreq	r0, lr, r0, asr #1
     b80:	66020402 	strvs	r0, [r2], -r2, lsl #8
     b84:	02040200 	andeq	r0, r4, #0, 4
     b88:	0b053006 	bleq	14cba8 <__bss_end__+0x142b70>
     b8c:	02040200 	andeq	r0, r4, #0, 4
     b90:	05050106 	streq	r0, [r5, #-262]	; 0xfffffefa
     b94:	02040200 	andeq	r0, r4, #0, 4
     b98:	01044b06 	tsteq	r4, r6, lsl #22
     b9c:	02040200 	andeq	r0, r4, #0, 4
     ba0:	017fbc03 	cmneq	pc, r3, lsl #24
     ba4:	02040200 	andeq	r0, r4, #0, 4
     ba8:	04020001 	streq	r0, [r2], #-1
     bac:	02000102 	andeq	r0, r0, #-2147483648	; 0x80000000
     bb0:	00010204 	andeq	r0, r1, r4, lsl #4
     bb4:	13020402 	movwne	r0, #9218	; 0x2402
     bb8:	02000204 	andeq	r0, r0, #4, 4	; 0x40000000
     bbc:	c4030204 	strgt	r0, [r3], #-516	; 0xfffffdfc
     bc0:	01040100 	mrseq	r0, (UNDEF: 20)
     bc4:	02040200 	andeq	r0, r4, #0, 4
     bc8:	017fbb03 	cmneq	pc, r3, lsl #22
     bcc:	02040200 	andeq	r0, r4, #0, 4
     bd0:	04020001 	streq	r0, [r2], #-1
     bd4:	02000102 	andeq	r0, r0, #-2147483648	; 0x80000000
     bd8:	00010204 	andeq	r0, r1, r4, lsl #4
     bdc:	13020402 	movwne	r0, #9218	; 0x2402
     be0:	02000204 	andeq	r0, r0, #4, 4	; 0x40000000
     be4:	c5030204 	strgt	r0, [r3, #-516]	; 0xfffffdfc
     be8:	01040100 	mrseq	r0, (UNDEF: 20)
     bec:	02040200 	andeq	r0, r4, #0, 4
     bf0:	017fba03 	cmneq	pc, r3, lsl #20
     bf4:	02040200 	andeq	r0, r4, #0, 4
     bf8:	04020001 	streq	r0, [r2], #-1
     bfc:	02000102 	andeq	r0, r0, #-2147483648	; 0x80000000
     c00:	00010204 	andeq	r0, r1, r4, lsl #4
     c04:	13020402 	movwne	r0, #9218	; 0x2402
     c08:	02000204 	andeq	r0, r0, #4, 4	; 0x40000000
     c0c:	c6030204 	strgt	r0, [r3], -r4, lsl #4
     c10:	01040100 	mrseq	r0, (UNDEF: 20)
     c14:	02040200 	andeq	r0, r4, #0, 4
     c18:	017fb903 	cmneq	pc, r3, lsl #18
     c1c:	02040200 	andeq	r0, r4, #0, 4
     c20:	04020001 	streq	r0, [r2], #-1
     c24:	02000102 	andeq	r0, r0, #-2147483648	; 0x80000000
     c28:	00010204 	andeq	r0, r1, r4, lsl #4
     c2c:	13020402 	movwne	r0, #9218	; 0x2402
     c30:	02000204 	andeq	r0, r0, #4, 4	; 0x40000000
     c34:	c7030204 	strgt	r0, [r3, -r4, lsl #4]
     c38:	01040100 	mrseq	r0, (UNDEF: 20)
     c3c:	02000105 	andeq	r0, r0, #1073741825	; 0x40000001
     c40:	b7030204 	strlt	r0, [r3, -r4, lsl #4]
     c44:	0505017f 	streq	r0, [r5, #-383]	; 0xfffffe81
     c48:	02040200 	andeq	r0, r4, #0, 4
     c4c:	04020013 	streq	r0, [r2], #-19	; 0xffffffed
     c50:	02000102 	andeq	r0, r0, #-2147483648	; 0x80000000
     c54:	00010204 	andeq	r0, r1, r4, lsl #4
     c58:	01020402 	tsteq	r2, r2, lsl #8
     c5c:	02040200 	andeq	r0, r4, #0, 4
     c60:	04020013 	streq	r0, [r2], #-19	; 0xffffffed
     c64:	04010602 	streq	r0, [r1], #-1538	; 0xfffff9fe
     c68:	04020002 	streq	r0, [r2], #-2
     c6c:	c8030602 	stmdagt	r3, {r1, r9, sl}
     c70:	02000100 	andeq	r0, r0, #0
     c74:	66060204 	strvs	r0, [r6], -r4, lsl #4
     c78:	02040200 	andeq	r0, r4, #0, 4
     c7c:	16053006 	strne	r3, [r5], -r6
     c80:	02040200 	andeq	r0, r4, #0, 4
     c84:	30050106 	andcc	r0, r5, r6, lsl #2
     c88:	01040200 	mrseq	r0, R12_usr
     c8c:	0a052e06 	beq	14c4ac <__bss_end__+0x142474>
     c90:	01040200 	mrseq	r0, R12_usr
     c94:	00160501 	andseq	r0, r6, r1, lsl #10
     c98:	06010402 	streq	r0, [r1], -r2, lsl #8
     c9c:	05010401 	streq	r0, [r1, #-1025]	; 0xfffffbff
     ca0:	04020001 	streq	r0, [r2], #-1
     ca4:	49030601 	stmdbmi	r3, {r0, r9, sl}
     ca8:	0005054a 	andeq	r0, r5, sl, asr #10
     cac:	13010402 	movwne	r0, #5122	; 0x1402
     cb0:	02000105 	andeq	r0, r0, #1073741825	; 0x40000001
     cb4:	7a030104 	bvc	c10cc <__bss_end__+0xb7094>
     cb8:	00050501 	andeq	r0, r5, r1, lsl #10
     cbc:	13010402 	movwne	r0, #5122	; 0x1402
     cc0:	01040200 	mrseq	r0, R12_usr
     cc4:	04020001 	streq	r0, [r2], #-1
     cc8:	02000101 	andeq	r0, r0, #1073741824	; 0x40000000
     ccc:	00010104 	andeq	r0, r1, r4, lsl #2
     cd0:	13010402 	movwne	r0, #5122	; 0x1402
     cd4:	01040200 	mrseq	r0, R12_usr
     cd8:	02040106 	andeq	r0, r4, #-2147483647	; 0x80000001
     cdc:	02000a05 	andeq	r0, r0, #20480	; 0x5000
     ce0:	3a030104 	bcc	c10f8 <__bss_end__+0xb70c0>
     ce4:	06050501 	streq	r0, [r5], -r1, lsl #10
     ce8:	0601054c 	streq	r0, [r1], -ip, asr #10
     cec:	03050519 	movweq	r0, #21785	; 0x5519
     cf0:	02004a79 	andeq	r4, r0, #495616	; 0x79000
     cf4:	03060104 	movweq	r0, #24836	; 0x6104
     cf8:	02002e41 	andeq	r2, r0, #1040	; 0x410
     cfc:	00010104 	andeq	r0, r1, r4, lsl #2
     d00:	d6010402 	strle	r0, [r1], -r2, lsl #8
     d04:	c8031f05 	stmdagt	r3, {r0, r2, r8, r9, sl, fp, ip}
     d08:	05740800 	ldrbeq	r0, [r4, #-2048]!	; 0xfffff800
     d0c:	1f051305 	svcne	0x00051305
     d10:	05051106 	streq	r1, [r5, #-262]	; 0xfffffefa
     d14:	142f062f 	strtne	r0, [pc], #-1583	; d1c <__code_start__-0x72e4>
     d18:	01061a05 	tsteq	r6, r5, lsl #20
     d1c:	02007305 	andeq	r7, r0, #335544320	; 0x14000000
     d20:	2e060104 	adfcss	f0, f6, f4
     d24:	02000a05 	andeq	r0, r0, #20480	; 0x5000
     d28:	05010104 	streq	r0, [r1, #-260]	; 0xfffffefc
     d2c:	0402001a 	streq	r0, [r2], #-26	; 0xffffffe6
     d30:	04010601 	streq	r0, [r1], #-1537	; 0xfffff9ff
     d34:	00050501 	andeq	r0, r5, r1, lsl #10
     d38:	06010402 	streq	r0, [r1], -r2, lsl #8
     d3c:	4a7fb603 	bmi	1fee550 <__bss_end__+0x1fe4518>
     d40:	01040200 	mrseq	r0, R12_usr
     d44:	04020001 	streq	r0, [r2], #-1
     d48:	02000101 	andeq	r0, r0, #1073741824	; 0x40000000
     d4c:	00010104 	andeq	r0, r1, r4, lsl #2
     d50:	13010402 	movwne	r0, #5122	; 0x1402
     d54:	0a050204 	beq	14156c <__bss_end__+0x137534>
     d58:	01040200 	mrseq	r0, R12_usr
     d5c:	00c90306 	sbceq	r0, r9, r6, lsl #6
     d60:	06050501 	streq	r0, [r5], -r1, lsl #10
     d64:	06010550 			; <UNDEFINED> instruction: 0x06010550
     d68:	2d0c0513 	cfstr32cs	mvfx0, [ip, #-76]	; 0xffffffb4
     d6c:	0006022e 	andeq	r0, r6, lr, lsr #4
     d70:	038c0101 	orreq	r0, ip, #1073741824	; 0x40000000
     d74:	00030000 	andeq	r0, r3, r0
     d78:	000000f5 	strdeq	r0, [r0], -r5
     d7c:	0efb0102 	cdpeq	1, 15, cr0, cr11, cr2, {0}
     d80:	0101000d 	tsteq	r1, sp
     d84:	00000101 	andeq	r0, r0, r1, lsl #2
     d88:	00000100 	andeq	r0, r0, r0, lsl #2
     d8c:	73752f01 	cmnvc	r5, #1, 30
     d90:	6f6c2f72 	svcvs	0x006c2f72
     d94:	2f6c6163 	svccs	0x006c6163
     d98:	6c6c6543 	cfstr64vs	mvdx6, [ip], #-268	; 0xfffffef4
     d9c:	612f7261 			; <UNDEFINED> instruction: 0x612f7261
     da0:	6e2d6d72 	mcrvs	13, 1, r6, cr13, cr2, {3}
     da4:	2d656e6f 	stclcs	14, cr6, [r5, #-444]!	; 0xfffffe44
     da8:	69626165 	stmdbvs	r2!, {r0, r2, r5, r6, r8, sp, lr}^
     dac:	7365742d 	cmnvc	r5, #754974720	; 0x2d000000
     db0:	2d392f74 	ldccs	15, cr2, [r9, #-464]!	; 0xfffffe30
     db4:	39313032 	ldmdbcc	r1!, {r1, r4, r5, ip, sp}
     db8:	632d3471 			; <UNDEFINED> instruction: 0x632d3471
     dbc:	37303173 			; <UNDEFINED> instruction: 0x37303173
     dc0:	696c2f65 	stmdbvs	ip!, {r0, r2, r5, r6, r8, r9, sl, fp, sp}^
     dc4:	63672f62 	cmnvs	r7, #392	; 0x188
     dc8:	72612f63 	rsbvc	r2, r1, #396	; 0x18c
     dcc:	6f6e2d6d 	svcvs	0x006e2d6d
     dd0:	652d656e 	strvs	r6, [sp, #-1390]!	; 0xfffffa92
     dd4:	2f696261 	svccs	0x00696261
     dd8:	2e322e39 	mrccs	14, 1, r2, cr2, cr9, {1}
     ddc:	6e692f31 	mcrvs	15, 3, r2, cr9, cr1, {1}
     de0:	64756c63 	ldrbtvs	r6, [r5], #-3171	; 0xfffff39d
     de4:	552f0065 	strpl	r0, [pc, #-101]!	; d87 <__code_start__-0x7279>
     de8:	73726573 	cmnvc	r2, #482344960	; 0x1cc00000
     dec:	6d616a2f 	vstmdbvs	r1!, {s13-s59}
     df0:	442f6569 	strtmi	r6, [pc], #-1385	; df8 <__code_start__-0x7208>
     df4:	6d75636f 	ldclvs	3, cr6, [r5, #-444]!	; 0xfffffe44
     df8:	73746e65 	cmnvc	r4, #1616	; 0x650
     dfc:	3153432f 	cmpcc	r3, pc, lsr #6
     e00:	2f453034 	svccs	0x00453034
     e04:	34317363 	ldrtcc	r7, [r1], #-867	; 0xfffffc9d
     e08:	662d4530 			; <UNDEFINED> instruction: 0x662d4530
     e0c:	6c616e69 	stclvs	14, cr6, [r1], #-420	; 0xfffffe5c
     e10:	6f72702d 	svcvs	0x0072702d
     e14:	7463656a 	strbtvc	r6, [r3], #-1386	; 0xfffffa96
     e18:	62696c2f 	rsbvs	r6, r9, #12032	; 0x2f00
     e1c:	34322d73 	ldrtcc	r2, [r2], #-3443	; 0xfffff28d
     e20:	2f786c30 	svccs	0x00786c30
     e24:	7062696c 	rsbvc	r6, r2, ip, ror #18
     e28:	6e692f69 	cdpvs	15, 6, cr2, cr9, cr9, {3}
     e2c:	64756c63 	ldrbtvs	r6, [r5], #-3171	; 0xfffff39d
     e30:	66000065 	strvs	r0, [r0], -r5, rrx
     e34:	632e7466 			; <UNDEFINED> instruction: 0x632e7466
     e38:	00000000 	andeq	r0, r0, r0
     e3c:	2e746666 	cdpcs	6, 7, cr6, cr4, cr6, {3}
     e40:	00000068 	andeq	r0, r0, r8, rrx
     e44:	64747300 	ldrbtvs	r7, [r4], #-768	; 0xfffffd00
     e48:	2d746e69 	ldclcs	14, cr6, [r4, #-420]!	; 0xfffffe5c
     e4c:	2e636367 	cdpcs	3, 6, cr6, cr3, cr7, {3}
     e50:	00010068 	andeq	r0, r1, r8, rrx
     e54:	69707200 	ldmdbvs	r0!, {r9, ip, sp, lr}^
     e58:	0200682e 	andeq	r6, r0, #3014656	; 0x2e0000
     e5c:	66660000 	strbtvs	r0, [r6], -r0
     e60:	69735f74 	ldmdbvs	r3!, {r2, r4, r5, r6, r8, r9, sl, fp, ip, lr}^
     e64:	6c5f656e 	cfldr64vs	mvdx6, [pc], {110}	; 0x6e
     e68:	682e7475 	stmdavs	lr!, {r0, r2, r4, r5, r6, sl, ip, sp, lr}
     e6c:	00000000 	andeq	r0, r0, r0
     e70:	005a0500 	subseq	r0, sl, r0, lsl #10
     e74:	83300205 	teqhi	r0, #1342177280	; 0x50000000
     e78:	09030000 	stmdbeq	r3, {}	; <UNPREDICTABLE>
     e7c:	14050501 	strne	r0, [r5], #-1281	; 0xfffffaff
     e80:	01061405 	tsteq	r6, r5, lsl #8
     e84:	052c5a05 	streq	r5, [ip, #-2565]!	; 0xfffff5fb
     e88:	05053014 	streq	r3, [r5, #-20]	; 0xffffffec
     e8c:	5a053006 	bpl	14ceac <__bss_end__+0x142e74>
     e90:	08050e06 	stmdaeq	r5, {r1, r2, r9, sl, fp}
     e94:	2a5a0532 	bcs	1682364 <__bss_end__+0x167832c>
     e98:	05320805 	ldreq	r0, [r2, #-2053]!	; 0xfffff7fb
     e9c:	05360621 	ldreq	r0, [r6, #-1569]!	; 0xfffff9df
     ea0:	05010605 	streq	r0, [r1, #-1541]	; 0xfffff9fb
     ea4:	13057f0d 	movwne	r7, #24333	; 0x5f0d
     ea8:	054a4a31 	strbeq	r4, [sl, #-2609]	; 0xfffff5cf
     eac:	09050f0d 	stmdbeq	r5, {r0, r2, r3, r8, r9, sl, fp}
     eb0:	01040200 	mrseq	r0, R12_usr
     eb4:	0d053306 	stceq	3, cr3, [r5, #-24]	; 0xffffffe8
     eb8:	01040200 	mrseq	r0, R12_usr
     ebc:	00110513 	andseq	r0, r1, r3, lsl r5
     ec0:	06010402 	streq	r0, [r1], -r2, lsl #8
     ec4:	04020001 	streq	r0, [r2], #-1
     ec8:	052f0601 	streq	r0, [pc, #-1537]!	; 8cf <__code_start__-0x7731>
     ecc:	0402001b 	streq	r0, [r2], #-27	; 0xffffffe5
     ed0:	05010601 	streq	r0, [r1, #-1537]	; 0xfffff9ff
     ed4:	04020009 	streq	r0, [r2], #-9
     ed8:	4c062e01 	stcmi	14, cr2, [r6], {1}
     edc:	01062505 	tsteq	r6, r5, lsl #10
     ee0:	052e1e05 	streq	r1, [lr, #-3589]!	; 0xfffff1fb
     ee4:	09052e2b 	stmdbeq	r5, {r0, r1, r3, r5, r9, sl, fp, sp}
     ee8:	0c052f06 	stceq	15, cr2, [r5], {6}
     eec:	09050106 	stmdbeq	r5, {r1, r2, r8}
     ef0:	1e054e06 	cdpne	14, 0, cr4, cr5, cr6, {0}
     ef4:	052e1306 	streq	r1, [lr, #-774]!	; 0xfffffcfa
     ef8:	09052d11 	stmdbeq	r5, {r0, r4, r8, sl, fp, sp}
     efc:	18052f06 	stmdane	r5, {r1, r2, r8, r9, sl, fp, sp}
     f00:	09050106 	stmdbeq	r5, {r1, r2, r8}
     f04:	18052f06 	stmdane	r5, {r1, r2, r8, r9, sl, fp, sp}
     f08:	09050106 	stmdbeq	r5, {r1, r2, r8}
     f0c:	11052f06 	tstne	r5, r6, lsl #30
     f10:	09050106 	stmdbeq	r5, {r1, r2, r8}
     f14:	1e052f06 	cdpne	15, 0, cr2, cr5, cr6, {0}
     f18:	18050106 	stmdane	r5, {r1, r2, r8}
     f1c:	0609052e 	streq	r0, [r9], -lr, lsr #10
     f20:	0618052f 	ldreq	r0, [r8], -pc, lsr #10
     f24:	2f052e01 	svccs	0x00052e01
     f28:	02040200 	andeq	r0, r4, #0, 4
     f2c:	01700306 	cmneq	r0, r6, lsl #6
     f30:	02003705 	andeq	r3, r0, #1310720	; 0x140000
     f34:	01060204 	tsteq	r6, r4, lsl #4
     f38:	02002105 	andeq	r2, r0, #1073741825	; 0x40000001
     f3c:	2e060204 	cdpcs	2, 0, cr0, cr6, cr4, {0}
     f40:	02000505 	andeq	r0, r0, #20971520	; 0x1400000
     f44:	01060204 	tsteq	r6, r4, lsl #4
     f48:	02040200 	andeq	r0, r4, #0, 4
     f4c:	060905f2 			; <UNDEFINED> instruction: 0x060905f2
     f50:	13011603 	movwne	r1, #5635	; 0x1603
     f54:	05011503 	streq	r1, [r1, #-1283]	; 0xfffffafd
     f58:	05d70617 	ldrbeq	r0, [r7, #1559]	; 0x617
     f5c:	09056512 	stmdbeq	r5, {r1, r4, r8, sl, sp, lr}
     f60:	0e054b06 	vmlaeq.f64	d4, d5, d6
     f64:	01210501 			; <UNDEFINED> instruction: 0x01210501
     f68:	12050106 	andne	r0, r5, #-2147483647	; 0x80000001
     f6c:	2f17052d 	svccs	0x0017052d
     f70:	03062505 	movweq	r2, #25861	; 0x6505
     f74:	2e062e0f 	cdpcs	14, 0, cr2, cr6, cr15, {0}
     f78:	0611054a 	ldreq	r0, [r1], -sl, asr #10
     f7c:	02041313 	andeq	r1, r4, #1275068416	; 0x4c000000
     f80:	52031005 	andpl	r1, r3, #5, 0
     f84:	13050501 	movwne	r0, #21761	; 0x5501
     f88:	62031005 	andvs	r1, r3, #5, 0
     f8c:	16050501 	strne	r0, [r5], -r1, lsl #10
     f90:	302f3014 	eorcc	r3, pc, r4, lsl r0	; <UNPREDICTABLE>
     f94:	03060106 	movweq	r0, #24838	; 0x6106
     f98:	05130115 	ldreq	r0, [r3, #-277]	; 0xfffffeeb
     f9c:	05110618 	ldreq	r0, [r1, #-1560]	; 0xfffff9e8
     fa0:	16052e0d 	strne	r2, [r5], -sp, lsl #28
     fa4:	052e2e2f 	streq	r2, [lr, #-3631]!	; 0xfffff1d1
     fa8:	050e0610 	streq	r0, [lr, #-1552]	; 0xfffff9f0
     fac:	10051305 	andne	r1, r5, r5, lsl #6
     fb0:	05016203 	streq	r6, [r1, #-515]	; 0xfffffdfd
     fb4:	30141605 	andscc	r1, r4, r5, lsl #12
     fb8:	0106302f 	tsteq	r6, pc, lsr #32
     fbc:	01150306 	tsteq	r5, r6, lsl #6
     fc0:	06180513 			; <UNDEFINED> instruction: 0x06180513
     fc4:	2e0d0511 	mcrcs	5, 0, r0, cr13, cr1, {0}
     fc8:	2e2f1605 	cfmadda32cs	mvax0, mvax1, mvfx15, mvfx5
     fcc:	0501042e 	streq	r0, [r1, #-1070]	; 0xfffffbd2
     fd0:	012a034b 			; <UNDEFINED> instruction: 0x012a034b
     fd4:	4b061105 	blmi	1853f0 <__bss_end__+0x17b3b8>
     fd8:	10050204 	andne	r0, r5, r4, lsl #4
     fdc:	05015103 	streq	r5, [r1, #-259]	; 0xfffffefd
     fe0:	10051305 	andne	r1, r5, r5, lsl #6
     fe4:	05016203 	streq	r6, [r1, #-515]	; 0xfffffdfd
     fe8:	30141605 	andscc	r1, r4, r5, lsl #12
     fec:	0106302f 	tsteq	r6, pc, lsr #32
     ff0:	01150306 	tsteq	r5, r6, lsl #6
     ff4:	05010613 	streq	r0, [r1, #-1555]	; 0xfffff9ed
     ff8:	050e0610 	streq	r0, [lr, #-1552]	; 0xfffff9f0
     ffc:	10051305 	andne	r1, r5, r5, lsl #6
    1000:	05016203 	streq	r6, [r1, #-515]	; 0xfffffdfd
    1004:	30141605 	andscc	r1, r4, r5, lsl #12
    1008:	0106302f 	tsteq	r6, pc, lsr #32
    100c:	01150306 	tsteq	r5, r6, lsl #6
    1010:	05010613 	streq	r0, [r1, #-1555]	; 0xfffff9ed
    1014:	0104010f 	tsteq	r4, pc, lsl #2
    1018:	2b034b05 	blcs	d3c34 <__bss_end__+0xc9bfc>
    101c:	0502042e 	streq	r0, [r2, #-1070]	; 0xfffffbd2
    1020:	2e54030d 	cdpcs	3, 5, cr0, cr4, cr13, {0}
    1024:	4b050104 	blmi	14143c <__bss_end__+0x137404>
    1028:	044a2c03 	strbeq	r2, [sl], #-3075	; 0xfffff3fd
    102c:	030d0502 	movweq	r0, #54530	; 0xd502
    1030:	042e2e54 	strteq	r2, [lr], #-3668	; 0xfffff1ac
    1034:	03140501 	tsteq	r4, #4194304	; 0x400000
    1038:	4b05012f 	blmi	1414fc <__bss_end__+0x1374c4>
    103c:	3019052b 	andscc	r0, r9, fp, lsr #10
    1040:	052f1405 	streq	r1, [pc, #-1029]!	; c43 <__code_start__-0x73bd>
    1044:	1f052c19 	svcne	0x00052c19
    1048:	032e0532 			; <UNDEFINED> instruction: 0x032e0532
    104c:	1f052e78 	svcne	0x00052e78
    1050:	4b052f35 	blmi	14cd2c <__bss_end__+0x142cf4>
    1054:	06110529 	ldreq	r0, [r1], -r9, lsr #10
    1058:	0513132f 	ldreq	r1, [r3, #-815]	; 0xfffffcd1
    105c:	1f051315 	svcne	0x00051315
    1060:	15050106 	strne	r0, [r5, #-262]	; 0xfffffefa
    1064:	11052f06 	tstne	r5, r6, lsl #30
    1068:	06250514 			; <UNDEFINED> instruction: 0x06250514
    106c:	2e052e13 	mcrcs	14, 0, r2, cr5, cr3, {0}
    1070:	05017503 	streq	r7, [r1, #-1283]	; 0xfffffafd
    1074:	25052e0d 	strcs	r2, [r5, #-3597]	; 0xfffff1f3
    1078:	2d2e0b03 	fstmdbxcs	lr!, {d0}	;@ Deprecated
    107c:	054a2b31 	strbeq	r2, [sl, #-2865]	; 0xfffff4cf
    1080:	2e76030d 	cdpcs	3, 7, cr0, cr6, cr13, {0}
    1084:	0c032505 	cfstr32eq	mvfx2, [r3], {5}
    1088:	2c19052e 	cfldr32cs	mvfx0, [r9], {46}	; 0x2e
    108c:	2f061105 	svccs	0x00061105
    1090:	01061905 	tsteq	r6, r5, lsl #18
    1094:	2f061105 	svccs	0x00061105
    1098:	01061905 	tsteq	r6, r5, lsl #18
    109c:	2f061105 	svccs	0x00061105
    10a0:	2e061905 	vmlacs.f16	s2, s12, s10	; <UNPREDICTABLE>
    10a4:	03062c05 	movweq	r2, #27653	; 0x6c05
    10a8:	25052e73 	strcs	r2, [r5, #-3699]	; 0xfffff18d
    10ac:	060d0501 	streq	r0, [sp], -r1, lsl #10
    10b0:	03310501 	teqeq	r1, #4194304	; 0x400000
    10b4:	09052e71 	stmdbeq	r5, {r0, r4, r5, r6, r9, sl, fp, sp}
    10b8:	2e31052e 	cdpcs	5, 3, cr0, cr1, cr14, {1}
    10bc:	054a0905 	strbeq	r0, [sl, #-2309]	; 0xfffff6fb
    10c0:	0566062d 	strbeq	r0, [r6, #-1581]!	; 0xfffff9d3
    10c4:	09050121 	stmdbeq	r5, {r0, r5, r8}
    10c8:	052e4a06 	streq	r4, [lr, #-2566]!	; 0xfffff5fa
    10cc:	0168030b 	cmneq	r8, fp, lsl #6
    10d0:	01058206 	tsteq	r5, r6, lsl #4
    10d4:	2e3b0306 	cdpcs	3, 3, cr0, cr11, cr6, {0}
    10d8:	03060905 	movweq	r0, #26885	; 0x6905
    10dc:	01667fa9 	cmneq	r6, r9, lsr #31
    10e0:	2e2e2e06 	cdpcs	14, 2, cr2, cr14, cr6, {0}
    10e4:	052e062e 	streq	r0, [lr, #-1582]!	; 0xfffff9d2
    10e8:	00da034b 	sbcseq	r0, sl, fp, asr #6
    10ec:	13050582 	movwne	r0, #21890	; 0x5582
    10f0:	064b0501 	strbeq	r0, [fp], -r1, lsl #10
    10f4:	2f05052d 	svccs	0x0005052d
    10f8:	062e2e2e 	strteq	r2, [lr], -lr, lsr #28
    10fc:	0008022e 	andeq	r0, r8, lr, lsr #4
    1100:	01130101 	tsteq	r3, r1, lsl #2
    1104:	00030000 	andeq	r0, r3, r0
    1108:	000000e3 	andeq	r0, r0, r3, ror #1
    110c:	0efb0102 	cdpeq	1, 15, cr0, cr11, cr2, {0}
    1110:	0101000d 	tsteq	r1, sp
    1114:	00000101 	andeq	r0, r0, r1, lsl #2
    1118:	00000100 	andeq	r0, r0, r0, lsl #2
    111c:	6c2f2e01 	stcvs	14, cr2, [pc], #-4	; 1120 <__code_start__-0x6ee0>
    1120:	00636269 	rsbeq	r6, r3, r9, ror #4
    1124:	6573552f 	ldrbvs	r5, [r3, #-1327]!	; 0xfffffad1
    1128:	652f7372 	strvs	r7, [pc, #-882]!	; dbe <__code_start__-0x7242>
    112c:	62636972 	rsbvs	r6, r3, #1867776	; 0x1c8000
    1130:	2f726165 	svccs	0x00726165
    1134:	75636f44 	strbvc	r6, [r3, #-3908]!	; 0xfffff0bc
    1138:	746e656d 	strbtvc	r6, [lr], #-1389	; 0xfffffa93
    113c:	53432f73 	movtpl	r2, #16243	; 0x3f73
    1140:	45303431 	ldrmi	r3, [r0, #-1073]!	; 0xfffffbcf
    1144:	3173632f 	cmncc	r3, pc, lsr #6
    1148:	2d453034 	stclcs	0, cr3, [r5, #-208]	; 0xffffff30
    114c:	616e6966 	cmnvs	lr, r6, ror #18
    1150:	72702d6c 	rsbsvc	r2, r0, #108, 26	; 0x1b00
    1154:	63656a6f 	cmnvs	r5, #454656	; 0x6f000
    1158:	696c2f74 	stmdbvs	ip!, {r2, r4, r5, r6, r8, r9, sl, fp, sp}^
    115c:	322d7362 	eorcc	r7, sp, #-2013265919	; 0x88000001
    1160:	786c3034 	stmdavc	ip!, {r2, r4, r5, ip, sp}^
    1164:	62696c2f 	rsbvs	r6, r9, #12032	; 0x2f00
    1168:	692f6970 	stmdbvs	pc!, {r4, r5, r6, r8, fp, sp, lr}	; <UNPREDICTABLE>
    116c:	756c636e 	strbvc	r6, [ip, #-878]!	; 0xfffffc92
    1170:	2f006564 	svccs	0x00006564
    1174:	2f727375 	svccs	0x00727375
    1178:	61636f6c 	cmnvs	r3, ip, ror #30
    117c:	65432f6c 	strbvs	r2, [r3, #-3948]	; 0xfffff094
    1180:	72616c6c 	rsbvc	r6, r1, #108, 24	; 0x6c00
    1184:	6d72612f 	ldfvse	f6, [r2, #-188]!	; 0xffffff44
    1188:	6e6f6e2d 	cdpvs	14, 6, cr6, cr15, cr13, {1}
    118c:	61652d65 	cmnvs	r5, r5, ror #26
    1190:	742d6962 	strtvc	r6, [sp], #-2402	; 0xfffff69e
    1194:	2f747365 	svccs	0x00747365
    1198:	30322d39 	eorscc	r2, r2, r9, lsr sp
    119c:	34713931 	ldrbtcc	r3, [r1], #-2353	; 0xfffff6cf
    11a0:	3173632d 	cmncc	r3, sp, lsr #6
    11a4:	2f653730 	svccs	0x00653730
    11a8:	2f62696c 	svccs	0x0062696c
    11ac:	2f636367 	svccs	0x00636367
    11b0:	2d6d7261 	sfmcs	f7, 2, [sp, #-388]!	; 0xfffffe7c
    11b4:	656e6f6e 	strbvs	r6, [lr, #-3950]!	; 0xfffff092
    11b8:	6261652d 	rsbvs	r6, r1, #188743680	; 0xb400000
    11bc:	2e392f69 	cdpcs	15, 3, cr2, cr9, cr9, {3}
    11c0:	2f312e32 	svccs	0x00312e32
    11c4:	6c636e69 	stclvs	14, cr6, [r3], #-420	; 0xfffffe5c
    11c8:	00656475 	rsbeq	r6, r5, r5, ror r4
    11cc:	6d656d00 	stclvs	13, cr6, [r5, #-0]
    11d0:	2e746573 	mrccs	5, 3, r6, cr4, cr3, {3}
    11d4:	00010063 	andeq	r0, r1, r3, rrx
    11d8:	69707200 	ldmdbvs	r0!, {r9, ip, sp, lr}^
    11dc:	0200682e 	andeq	r6, r0, #3014656	; 0x2e0000
    11e0:	74730000 	ldrbtvc	r0, [r3], #-0
    11e4:	66656464 	strbtvs	r6, [r5], -r4, ror #8
    11e8:	0300682e 	movweq	r6, #2094	; 0x82e
    11ec:	05000000 	streq	r0, [r0, #-0]
    11f0:	02050029 	andeq	r0, r5, #41, 0	; 0x29
    11f4:	0000859c 	muleq	r0, ip, r5
    11f8:	13050515 	movwne	r0, #21781	; 0x5515
    11fc:	01061405 	tsteq	r6, r5, lsl #8
    1200:	30060505 	andcc	r0, r6, r5, lsl #10
    1204:	10060b05 	andne	r0, r6, r5, lsl #22
    1208:	30060a05 	andcc	r0, r6, r5, lsl #20
    120c:	054b0905 	strbeq	r0, [fp, #-2309]	; 0xfffff6fb
    1210:	2e01060e 	cfmadd32cs	mvax0, mvfx0, mvfx1, mvfx14
    1214:	01000202 	tsteq	r0, r2, lsl #4
    1218:	00013201 	andeq	r3, r1, r1, lsl #4
    121c:	00000300 	andeq	r0, r0, r0, lsl #6
    1220:	02000001 	andeq	r0, r0, #1, 0
    1224:	0d0efb01 	vstreq	d15, [lr, #-4]
    1228:	01010100 	mrseq	r0, (UNDEF: 17)
    122c:	00000001 	andeq	r0, r0, r1
    1230:	01000001 	tsteq	r0, r1
    1234:	696c2f2e 	stmdbvs	ip!, {r1, r2, r3, r5, r8, r9, sl, fp, sp}^
    1238:	2f006362 	svccs	0x00006362
    123c:	2f727375 	svccs	0x00727375
    1240:	61636f6c 	cmnvs	r3, ip, ror #30
    1244:	65432f6c 	strbvs	r2, [r3, #-3948]	; 0xfffff094
    1248:	72616c6c 	rsbvc	r6, r1, #108, 24	; 0x6c00
    124c:	6d72612f 	ldfvse	f6, [r2, #-188]!	; 0xffffff44
    1250:	6e6f6e2d 	cdpvs	14, 6, cr6, cr15, cr13, {1}
    1254:	61652d65 	cmnvs	r5, r5, ror #26
    1258:	742d6962 	strtvc	r6, [sp], #-2402	; 0xfffff69e
    125c:	2f747365 	svccs	0x00747365
    1260:	30322d39 	eorscc	r2, r2, r9, lsr sp
    1264:	34713931 	ldrbtcc	r3, [r1], #-2353	; 0xfffff6cf
    1268:	3173632d 	cmncc	r3, sp, lsr #6
    126c:	2f653730 	svccs	0x00653730
    1270:	2f62696c 	svccs	0x0062696c
    1274:	2f636367 	svccs	0x00636367
    1278:	2d6d7261 	sfmcs	f7, 2, [sp, #-388]!	; 0xfffffe7c
    127c:	656e6f6e 	strbvs	r6, [lr, #-3950]!	; 0xfffff092
    1280:	6261652d 	rsbvs	r6, r1, #188743680	; 0xb400000
    1284:	2e392f69 	cdpcs	15, 3, cr2, cr9, cr9, {3}
    1288:	2f312e32 	svccs	0x00312e32
    128c:	6c636e69 	stclvs	14, cr6, [r3], #-420	; 0xfffffe5c
    1290:	00656475 	rsbeq	r6, r5, r5, ror r4
    1294:	6573552f 	ldrbvs	r5, [r3, #-1327]!	; 0xfffffad1
    1298:	652f7372 	strvs	r7, [pc, #-882]!	; f2e <__code_start__-0x70d2>
    129c:	62636972 	rsbvs	r6, r3, #1867776	; 0x1c8000
    12a0:	2f726165 	svccs	0x00726165
    12a4:	75636f44 	strbvc	r6, [r3, #-3908]!	; 0xfffff0bc
    12a8:	746e656d 	strbtvc	r6, [lr], #-1389	; 0xfffffa93
    12ac:	53432f73 	movtpl	r2, #16243	; 0x3f73
    12b0:	45303431 	ldrmi	r3, [r0, #-1073]!	; 0xfffffbcf
    12b4:	3173632f 	cmncc	r3, pc, lsr #6
    12b8:	2d453034 	stclcs	0, cr3, [r5, #-208]	; 0xffffff30
    12bc:	616e6966 	cmnvs	lr, r6, ror #18
    12c0:	72702d6c 	rsbsvc	r2, r0, #108, 26	; 0x1b00
    12c4:	63656a6f 	cmnvs	r5, #454656	; 0x6f000
    12c8:	696c2f74 	stmdbvs	ip!, {r2, r4, r5, r6, r8, r9, sl, fp, sp}^
    12cc:	322d7362 	eorcc	r7, sp, #-2013265919	; 0x88000001
    12d0:	786c3034 	stmdavc	ip!, {r2, r4, r5, ip, sp}^
    12d4:	62696c2f 	rsbvs	r6, r9, #12032	; 0x2f00
    12d8:	692f6970 	stmdbvs	pc!, {r4, r5, r6, r8, fp, sp, lr}	; <UNPREDICTABLE>
    12dc:	756c636e 	strbvc	r6, [ip, #-878]!	; 0xfffffc92
    12e0:	00006564 	andeq	r6, r0, r4, ror #10
    12e4:	6e697270 	mcrvs	2, 3, r7, cr9, cr0, {3}
    12e8:	632e6b74 			; <UNDEFINED> instruction: 0x632e6b74
    12ec:	00000100 	andeq	r0, r0, r0, lsl #2
    12f0:	61647473 	smcvs	18243	; 0x4743
    12f4:	682e6772 	stmdavs	lr!, {r1, r4, r5, r6, r8, r9, sl, sp, lr}
    12f8:	00000200 	andeq	r0, r0, r0, lsl #4
    12fc:	2e697072 	mcrcs	0, 3, r7, cr9, cr2, {3}
    1300:	00030068 	andeq	r0, r3, r8, rrx
    1304:	75623c00 	strbvc	r3, [r2, #-3072]!	; 0xfffff400
    1308:	2d746c69 	ldclcs	12, cr6, [r4, #-420]!	; 0xfffffe5c
    130c:	003e6e69 	eorseq	r6, lr, r9, ror #28
    1310:	76000000 	strvc	r0, [r0], -r0
    1314:	72702d61 	rsbsvc	r2, r0, #6208	; 0x1840
    1318:	6b746e69 	blvs	1d1ccc4 <__bss_end__+0x1d12c8c>
    131c:	0100682e 	tsteq	r0, lr, lsr #16
    1320:	05000000 	streq	r0, [r0, #-0]
    1324:	02050022 	andeq	r0, r5, #34, 0	; 0x22
    1328:	000085b4 			; <UNDEFINED> instruction: 0x000085b4
    132c:	05010617 	streq	r0, [r1, #-1559]	; 0xfffff9e9
    1330:	13680605 	cmnne	r8, #5242880	; 0x500000
    1334:	4b090514 	blmi	24278c <__bss_end__+0x238754>
    1338:	01061205 	tsteq	r6, r5, lsl #4
    133c:	bb060505 	bllt	182758 <__bss_end__+0x178720>
    1340:	06660616 			; <UNDEFINED> instruction: 0x06660616
    1344:	06010534 			; <UNDEFINED> instruction: 0x06010534
    1348:	08026613 	stmdaeq	r2, {r0, r1, r4, r9, sl, sp, lr}
    134c:	ca010100 	bgt	41754 <__bss_end__+0x3771c>
    1350:	03000000 	movweq	r0, #0
    1354:	00007c00 	andeq	r7, r0, r0, lsl #24
    1358:	fb010200 	blx	41b62 <__bss_end__+0x37b2a>
    135c:	01000d0e 	tsteq	r0, lr, lsl #26
    1360:	00010101 	andeq	r0, r1, r1, lsl #2
    1364:	00010000 	andeq	r0, r1, r0
    1368:	2f2e0100 	svccs	0x002e0100
    136c:	6362696c 	cmnvs	r2, #108, 18	; 0x1b0000
    1370:	73552f00 	cmpvc	r5, #0, 30
    1374:	2f737265 	svccs	0x00737265
    1378:	63697265 	cmnvs	r9, #1342177286	; 0x50000006
    137c:	72616562 	rsbvc	r6, r1, #411041792	; 0x18800000
    1380:	636f442f 	cmnvs	pc, #788529152	; 0x2f000000
    1384:	6e656d75 	mcrvs	13, 3, r6, cr5, cr5, {3}
    1388:	432f7374 			; <UNDEFINED> instruction: 0x432f7374
    138c:	30343153 	eorscc	r3, r4, r3, asr r1
    1390:	73632f45 	cmnvc	r3, #276	; 0x114
    1394:	45303431 	ldrmi	r3, [r0, #-1073]!	; 0xfffffbcf
    1398:	6e69662d 	cdpvs	6, 6, cr6, cr9, cr13, {1}
    139c:	702d6c61 	eorvc	r6, sp, r1, ror #24
    13a0:	656a6f72 	strbvs	r6, [sl, #-3954]!	; 0xfffff08e
    13a4:	6c2f7463 	cfstrsvs	mvf7, [pc], #-396	; 1220 <__code_start__-0x6de0>
    13a8:	2d736269 	lfmcs	f6, 2, [r3, #-420]!	; 0xfffffe5c
    13ac:	6c303432 	cfldrsvs	mvf3, [r0], #-200	; 0xffffff38
    13b0:	696c2f78 	stmdbvs	ip!, {r3, r4, r5, r6, r8, r9, sl, fp, sp}^
    13b4:	2f697062 	svccs	0x00697062
    13b8:	6c636e69 	stclvs	14, cr6, [r3], #-420	; 0xfffffe5c
    13bc:	00656475 	rsbeq	r6, r5, r5, ror r4
    13c0:	74757000 	ldrbtvc	r7, [r5], #-0
    13c4:	00632e6b 	rsbeq	r2, r3, fp, ror #28
    13c8:	72000001 	andvc	r0, r0, #1, 0
    13cc:	682e6970 	stmdavs	lr!, {r4, r5, r6, r8, fp, sp, lr}
    13d0:	00000200 	andeq	r0, r0, r0, lsl #4
    13d4:	00220500 	eoreq	r0, r2, r0, lsl #10
    13d8:	860c0205 	strhi	r0, [ip], -r5, lsl #4
    13dc:	06150000 	ldreq	r0, [r5], -r0
    13e0:	06050501 	streq	r0, [r5], -r1, lsl #10
    13e4:	000b054b 	andeq	r0, fp, fp, asr #10
    13e8:	01010402 	tsteq	r1, r2, lsl #8
    13ec:	02000505 	andeq	r0, r0, #20971520	; 0x1400000
    13f0:	2e060104 	adfcss	f0, f6, f4
    13f4:	02000905 	andeq	r0, r0, #81920	; 0x14000
    13f8:	4b060204 	blmi	181c10 <__bss_end__+0x177bd8>
    13fc:	02000f05 	andeq	r0, r0, #5, 30
    1400:	05650204 	strbeq	r0, [r5, #-516]!	; 0xfffffdfc
    1404:	04020010 	streq	r0, [r2], #-16
    1408:	00010602 	andeq	r0, r1, r2, lsl #12
    140c:	2e020402 	cdpcs	4, 0, cr0, cr2, cr2, {0}
    1410:	32060505 	andcc	r0, r6, #20971520	; 0x1400000
    1414:	13060105 	movwne	r0, #24837	; 0x6105
    1418:	01000602 	tsteq	r0, r2, lsl #12
    141c:	00061c01 	andeq	r1, r6, r1, lsl #24
    1420:	16000300 	strne	r0, [r0], -r0, lsl #6
    1424:	02000001 	andeq	r0, r0, #1, 0
    1428:	0d0efb01 	vstreq	d15, [lr, #-4]
    142c:	01010100 	mrseq	r0, (UNDEF: 17)
    1430:	00000001 	andeq	r0, r0, r1
    1434:	01000001 	tsteq	r0, r1
    1438:	696c2f2e 	stmdbvs	ip!, {r1, r2, r3, r5, r8, r9, sl, fp, sp}^
    143c:	2f006362 	svccs	0x00006362
    1440:	2f727375 	svccs	0x00727375
    1444:	61636f6c 	cmnvs	r3, ip, ror #30
    1448:	65432f6c 	strbvs	r2, [r3, #-3948]	; 0xfffff094
    144c:	72616c6c 	rsbvc	r6, r1, #108, 24	; 0x6c00
    1450:	6d72612f 	ldfvse	f6, [r2, #-188]!	; 0xffffff44
    1454:	6e6f6e2d 	cdpvs	14, 6, cr6, cr15, cr13, {1}
    1458:	61652d65 	cmnvs	r5, r5, ror #26
    145c:	742d6962 	strtvc	r6, [sp], #-2402	; 0xfffff69e
    1460:	2f747365 	svccs	0x00747365
    1464:	30322d39 	eorscc	r2, r2, r9, lsr sp
    1468:	34713931 	ldrbtcc	r3, [r1], #-2353	; 0xfffff6cf
    146c:	3173632d 	cmncc	r3, sp, lsr #6
    1470:	2f653730 	svccs	0x00653730
    1474:	2f62696c 	svccs	0x0062696c
    1478:	2f636367 	svccs	0x00636367
    147c:	2d6d7261 	sfmcs	f7, 2, [sp, #-388]!	; 0xfffffe7c
    1480:	656e6f6e 	strbvs	r6, [lr, #-3950]!	; 0xfffff092
    1484:	6261652d 	rsbvs	r6, r1, #188743680	; 0xb400000
    1488:	2e392f69 	cdpcs	15, 3, cr2, cr9, cr9, {3}
    148c:	2f312e32 	svccs	0x00312e32
    1490:	6c636e69 	stclvs	14, cr6, [r3], #-420	; 0xfffffe5c
    1494:	00656475 	rsbeq	r6, r5, r5, ror r4
    1498:	6573552f 	ldrbvs	r5, [r3, #-1327]!	; 0xfffffad1
    149c:	652f7372 	strvs	r7, [pc, #-882]!	; 1132 <__code_start__-0x6ece>
    14a0:	62636972 	rsbvs	r6, r3, #1867776	; 0x1c8000
    14a4:	2f726165 	svccs	0x00726165
    14a8:	75636f44 	strbvc	r6, [r3, #-3908]!	; 0xfffff0bc
    14ac:	746e656d 	strbtvc	r6, [lr], #-1389	; 0xfffffa93
    14b0:	53432f73 	movtpl	r2, #16243	; 0x3f73
    14b4:	45303431 	ldrmi	r3, [r0, #-1073]!	; 0xfffffbcf
    14b8:	3173632f 	cmncc	r3, pc, lsr #6
    14bc:	2d453034 	stclcs	0, cr3, [r5, #-208]	; 0xffffff30
    14c0:	616e6966 	cmnvs	lr, r6, ror #18
    14c4:	72702d6c 	rsbsvc	r2, r0, #108, 26	; 0x1b00
    14c8:	63656a6f 	cmnvs	r5, #454656	; 0x6f000
    14cc:	696c2f74 	stmdbvs	ip!, {r2, r4, r5, r6, r8, r9, sl, fp, sp}^
    14d0:	322d7362 	eorcc	r7, sp, #-2013265919	; 0x88000001
    14d4:	786c3034 	stmdavc	ip!, {r2, r4, r5, ip, sp}^
    14d8:	62696c2f 	rsbvs	r6, r9, #12032	; 0x2f00
    14dc:	692f6970 	stmdbvs	pc!, {r4, r5, r6, r8, fp, sp, lr}	; <UNPREDICTABLE>
    14e0:	756c636e 	strbvc	r6, [ip, #-878]!	; 0xfffffc92
    14e4:	00006564 	andeq	r6, r0, r4, ror #10
    14e8:	702d6176 	eorvc	r6, sp, r6, ror r1
    14ec:	746e6972 	strbtvc	r6, [lr], #-2418	; 0xfffff68e
    14f0:	00632e6b 	rsbeq	r2, r3, fp, ror #28
    14f4:	73000001 	movwvc	r0, #1
    14f8:	6e696474 	mcrvs	4, 3, r6, cr9, cr4, {3}
    14fc:	63672d74 	cmnvs	r7, #116, 26	; 0x1d00
    1500:	00682e63 	rsbeq	r2, r8, r3, ror #28
    1504:	72000002 	andvc	r0, r0, #2, 0
    1508:	682e6970 	stmdavs	lr!, {r4, r5, r6, r8, fp, sp, lr}
    150c:	00000300 	andeq	r0, r0, r0, lsl #6
    1510:	2d697072 	stclcs	0, cr7, [r9, #-456]!	; 0xfffffe38
    1514:	65746e69 	ldrbvs	r6, [r4, #-3689]!	; 0xfffff197
    1518:	6c616e72 	stclvs	14, cr6, [r1], #-456	; 0xfffffe38
    151c:	0300682e 	movweq	r6, #2094	; 0x82e
    1520:	74730000 	ldrbtvc	r0, [r3], #-0
    1524:	67726164 	ldrbvs	r6, [r2, -r4, ror #2]!
    1528:	0200682e 	andeq	r6, r0, #3014656	; 0x2e0000
    152c:	623c0000 	eorsvs	r0, ip, #0, 0
    1530:	746c6975 	strbtvc	r6, [ip], #-2421	; 0xfffff68b
    1534:	3e6e692d 	vmulcc.f16	s13, s28, s27	; <UNPREDICTABLE>
    1538:	00000000 	andeq	r0, r0, r0
    153c:	001b0500 	andseq	r0, fp, r0, lsl #10
    1540:	86400205 	strbhi	r0, [r0], -r5, lsl #4
    1544:	26030000 	strcs	r0, [r3], -r0
    1548:	011d0501 	tsteq	sp, r1, lsl #10
    154c:	01062d05 	tsteq	r6, r5, lsl #26
    1550:	4a2e0105 	bmi	b8196c <__bss_end__+0xb77934>
    1554:	51063305 	tstpl	r6, r5, lsl #6
    1558:	05130205 	ldreq	r0, [r3, #-517]	; 0xfffffdfb
    155c:	05010606 	streq	r0, [r1, #-1542]	; 0xfffff9fa
    1560:	05300602 	ldreq	r0, [r0, #-1538]!	; 0xfffff9fe
    1564:	04020008 	streq	r0, [r2], #-8
    1568:	02050101 	andeq	r0, r5, #1073741824	; 0x40000000
    156c:	01040200 	mrseq	r0, R12_usr
    1570:	03050106 	movweq	r0, #20742	; 0x5106
    1574:	02040200 	andeq	r0, r4, #0, 4
    1578:	08052f06 	stmdaeq	r5, {r1, r2, r8, r9, sl, fp, sp}
    157c:	02040200 	andeq	r0, r4, #0, 4
    1580:	15050106 	strne	r0, [r5, #-262]	; 0xfffffefa
    1584:	02040200 	andeq	r0, r4, #0, 4
    1588:	18054906 	stmdane	r5, {r1, r2, r8, fp, lr}
    158c:	02040200 	andeq	r0, r4, #0, 4
    1590:	02000106 	andeq	r0, r0, #-2147483647	; 0x80000001
    1594:	052e0204 	streq	r0, [lr, #-516]!	; 0xfffffdfc
    1598:	05300602 	ldreq	r0, [r0, #-1538]!	; 0xfffff9fe
    159c:	05010605 	streq	r0, [r1, #-1541]	; 0xfffff9fb
    15a0:	054b0602 	strbeq	r0, [fp, #-1538]	; 0xfffff9fe
    15a4:	05130601 	ldreq	r0, [r3, #-1537]	; 0xfffff9ff
    15a8:	0531063e 	ldreq	r0, [r1, #-1598]!	; 0xfffff9c2
    15ac:	0e051402 	cdpeq	4, 0, cr1, cr5, cr2, {0}
    15b0:	06050106 	streq	r0, [r5], -r6, lsl #2
    15b4:	0602052e 	streq	r0, [r2], -lr, lsr #10
    15b8:	0604052f 	streq	r0, [r4], -pc, lsr #10
    15bc:	06030501 	streq	r0, [r3], -r1, lsl #10
    15c0:	0611052f 	ldreq	r0, [r1], -pc, lsr #10
    15c4:	2e090501 	cfsh32cs	mvfx0, mvfx9, #1
    15c8:	30060205 	andcc	r0, r6, r5, lsl #4
    15cc:	06070515 			; <UNDEFINED> instruction: 0x06070515
    15d0:	2e020501 	cfsh32cs	mvfx0, mvfx2, #1
    15d4:	02000b05 	andeq	r0, r0, #5120	; 0x1400
    15d8:	2e060104 	adfcss	f0, f6, f4
    15dc:	02000205 	andeq	r0, r0, #1342177280	; 0x50000000
    15e0:	01060104 	tsteq	r6, r4, lsl #2
    15e4:	02000305 	andeq	r0, r0, #335544320	; 0x14000000
    15e8:	2f060304 	svccs	0x00060304
    15ec:	02000c05 	andeq	r0, r0, #1280	; 0x500
    15f0:	01060304 	tsteq	r6, r4, lsl #6
    15f4:	02000a05 	andeq	r0, r0, #20480	; 0x5000
    15f8:	052e0304 	streq	r0, [lr, #-772]!	; 0xfffffcfc
    15fc:	04020017 	streq	r0, [r2], #-23	; 0xffffffe9
    1600:	002d0603 	eoreq	r0, sp, r3, lsl #12
    1604:	06030402 	streq	r0, [r3], -r2, lsl #8
    1608:	06020501 	streq	r0, [r2], -r1, lsl #10
    160c:	06090530 			; <UNDEFINED> instruction: 0x06090530
    1610:	02052e01 	andeq	r2, r5, #1, 28
    1614:	01053006 	tsteq	r5, r6
    1618:	49051306 	stmdbmi	r5, {r1, r2, r8, r9, ip}
    161c:	01063106 	tsteq	r6, r6, lsl #2
    1620:	a0060205 	andge	r0, r6, r5, lsl #4
    1624:	01060405 	tsteq	r6, r5, lsl #8
    1628:	2f060305 	svccs	0x00060305
    162c:	01060905 	tsteq	r6, r5, lsl #18
    1630:	30060205 	andcc	r0, r6, r5, lsl #4
    1634:	060b0513 			; <UNDEFINED> instruction: 0x060b0513
    1638:	06020501 	streq	r0, [r2], -r1, lsl #10
    163c:	052e0630 	streq	r0, [lr, #-1584]!	; 0xfffff9d0
    1640:	24020604 	strcs	r0, [r2], #-1540	; 0xfffff9fc
    1644:	0f051315 	svceq	0x00051315
    1648:	052e0106 	streq	r0, [lr, #-262]!	; 0xfffffefa
    164c:	05054a06 	streq	r4, [r5, #-2566]	; 0xfffff5fa
    1650:	05134b06 	ldreq	r4, [r3, #-2822]	; 0xfffff4fa
    1654:	05010609 	streq	r0, [r1, #-1545]	; 0xfffff9f7
    1658:	052f0605 	streq	r0, [pc, #-1541]!	; 105b <__code_start__-0x6fa5>
    165c:	0510060b 	ldreq	r0, [r0, #-1547]	; 0xfffff9f5
    1660:	0402000d 	streq	r0, [r2], #-13
    1664:	04052c01 	streq	r2, [r5], #-3073	; 0xfffff3ff
    1668:	01040200 	mrseq	r0, R12_usr
    166c:	05053406 	streq	r3, [r5, #-1030]	; 0xfffffbfa
    1670:	01040200 	mrseq	r0, R12_usr
    1674:	001b0513 	andseq	r0, fp, r3, lsl r5
    1678:	06010402 	streq	r0, [r1], -r2, lsl #8
    167c:	00070501 	andeq	r0, r7, r1, lsl #10
    1680:	d6010402 	strle	r0, [r1], -r2, lsl #8
    1684:	02001805 	andeq	r1, r0, #327680	; 0x50000
    1688:	052e0104 	streq	r0, [lr, #-260]!	; 0xfffffefc
    168c:	0402000a 	streq	r0, [r2], #-10
    1690:	0b054a01 	bleq	153e9c <__bss_end__+0x149e64>
    1694:	01040200 	mrseq	r0, R12_usr
    1698:	0e052f06 	cdpeq	15, 0, cr2, cr5, cr6, {0}
    169c:	01040200 	mrseq	r0, R12_usr
    16a0:	04052e06 	streq	r2, [r5], #-3590	; 0xfffff1fa
    16a4:	01040200 	mrseq	r0, R12_usr
    16a8:	054b062e 	strbeq	r0, [fp, #-1582]	; 0xfffff9d2
    16ac:	05010606 	streq	r0, [r1, #-1542]	; 0xfffff9fa
    16b0:	052f0605 	streq	r0, [pc, #-1541]!	; 10b3 <__code_start__-0x6f4d>
    16b4:	0501060a 	streq	r0, [r1, #-1546]	; 0xfffff9f6
    16b8:	052e4a07 	streq	r4, [lr, #-2567]!	; 0xfffff5f9
    16bc:	2e76030d 	cdpcs	3, 7, cr0, cr6, cr13, {0}
    16c0:	0d0b054a 	cfstr32eq	mvfx0, [fp, #-296]	; 0xfffffed8
    16c4:	02000d05 	andeq	r0, r0, #320	; 0x140
    16c8:	03060104 	movweq	r0, #24836	; 0x6104
    16cc:	11052e14 	tstne	r5, r4, lsl lr
    16d0:	01040200 	mrseq	r0, R12_usr
    16d4:	002d0513 	eoreq	r0, sp, r3, lsl r5
    16d8:	06010402 	streq	r0, [r1], -r2, lsl #8
    16dc:	002a0501 	eoreq	r0, sl, r1, lsl #10
    16e0:	2e010402 	cdpcs	4, 0, cr0, cr1, cr2, {0}
    16e4:	02001605 	andeq	r1, r0, #5242880	; 0x500000
    16e8:	054a0104 	strbeq	r0, [sl, #-260]	; 0xfffffefc
    16ec:	04020014 	streq	r0, [r2], #-20	; 0xffffffec
    16f0:	054b0601 	strbeq	r0, [fp, #-1537]	; 0xfffff9ff
    16f4:	0402000d 	streq	r0, [r2], #-13
    16f8:	00010601 	andeq	r0, r1, r1, lsl #12
    16fc:	4a010402 	bmi	4270c <__bss_end__+0x386d4>
    1700:	12052f06 	andne	r2, r5, #6, 30
    1704:	054a0106 	strbeq	r0, [sl, #-262]	; 0xfffffefa
    1708:	052f060d 	streq	r0, [pc, #-1549]!	; 1103 <__code_start__-0x6efd>
    170c:	05010612 	streq	r0, [r1, #-1554]	; 0xfffff9ee
    1710:	054b0619 	strbeq	r0, [fp, #-1561]	; 0xfffff9e7
    1714:	04020004 	streq	r0, [r2], #-4
    1718:	01110302 	tsteq	r1, r2, lsl #6
    171c:	02040200 	andeq	r0, r4, #0, 4
    1720:	00020501 	andeq	r0, r2, r1, lsl #10
    1724:	15020402 	strne	r0, [r2, #-1026]	; 0xfffffbfe
    1728:	02000905 	andeq	r0, r0, #81920	; 0x14000
    172c:	01060204 	tsteq	r6, r4, lsl #4
    1730:	02040200 	andeq	r0, r4, #0, 4
    1734:	0001054a 	andeq	r0, r1, sl, asr #10
    1738:	9f020402 	svcls	0x00020402
    173c:	03060405 	movweq	r0, #25605	; 0x6405
    1740:	09054a6e 	stmdbeq	r5, {r1, r2, r3, r5, r6, r9, fp, lr}
    1744:	04050106 	streq	r0, [r5], #-262	; 0xfffffefa
    1748:	06052f06 	streq	r2, [r5], -r6, lsl #30
    174c:	04051106 	streq	r1, [r5], #-262	; 0xfffffefa
    1750:	030b052f 	movweq	r0, #46383	; 0xb52f
    1754:	19052e63 	stmdbne	r5, {r0, r1, r5, r6, r9, sl, fp, sp}
    1758:	01040200 	mrseq	r0, R12_usr
    175c:	2e240306 	cdpcs	3, 2, cr0, cr4, cr6, {0}
    1760:	02001a05 	andeq	r1, r0, #20480	; 0x5000
    1764:	05130104 	ldreq	r0, [r3, #-260]	; 0xfffffefc
    1768:	04020028 	streq	r0, [r2], #-40	; 0xffffffd8
    176c:	05010601 	streq	r0, [r1, #-1537]	; 0xfffff9ff
    1770:	04020025 	streq	r0, [r2], #-37	; 0xffffffdb
    1774:	1f052e01 	svcne	0x00052e01
    1778:	01040200 	mrseq	r0, R12_usr
    177c:	000b054a 	andeq	r0, fp, sl, asr #10
    1780:	06010402 	streq	r0, [r1], -r2, lsl #8
    1784:	0004054b 	andeq	r0, r4, fp, asr #10
    1788:	06010402 	streq	r0, [r1], -r2, lsl #8
    178c:	04020001 	streq	r0, [r2], #-1
    1790:	02004a01 	andeq	r4, r0, #4096	; 0x1000
    1794:	4e060104 	adfmis	f0, f6, f4
    1798:	01040200 	mrseq	r0, R12_usr
    179c:	04020001 	streq	r0, [r2], #-1
    17a0:	02000101 	andeq	r0, r0, #1073741824	; 0x40000000
    17a4:	00010104 	andeq	r0, r1, r4, lsl #2
    17a8:	06010402 	streq	r0, [r1], -r2, lsl #8
    17ac:	0402002e 	streq	r0, [r2], #-46	; 0xffffffd2
    17b0:	02006601 	andeq	r6, r0, #1048576	; 0x100000
    17b4:	002e0104 	eoreq	r0, lr, r4, lsl #2
    17b8:	06010402 	streq	r0, [r1], -r2, lsl #8
    17bc:	0348054a 	movteq	r0, #34122	; 0x854a
    17c0:	20087fa6 	andcs	r7, r8, r6, lsr #31
    17c4:	01130505 	tsteq	r3, r5, lsl #10
    17c8:	02002e06 	andeq	r2, r0, #96	; 0x60
    17cc:	2e060204 	cdpcs	2, 0, cr0, cr6, cr4, {0}
    17d0:	02040200 	andeq	r0, r4, #0, 4
    17d4:	04020001 	streq	r0, [r2], #-1
    17d8:	11051302 	tstne	r5, r2, lsl #6
    17dc:	02040200 	andeq	r0, r4, #0, 4
    17e0:	05050106 	streq	r0, [r5, #-262]	; 0xfffffefa
    17e4:	02040200 	andeq	r0, r4, #0, 4
    17e8:	07054b06 	streq	r4, [r5, -r6, lsl #22]
    17ec:	02040200 	andeq	r0, r4, #0, 4
    17f0:	09050106 	stmdbeq	r5, {r1, r2, r8}
    17f4:	0e054b06 	vmlaeq.f64	d4, d5, d6
    17f8:	48050106 	stmdami	r5, {r1, r2, r8}
    17fc:	01040200 	mrseq	r0, R12_usr
    1800:	00050562 	andeq	r0, r5, r2, ror #10
    1804:	06010402 	streq	r0, [r1], -r2, lsl #8
    1808:	0402004b 	streq	r0, [r2], #-75	; 0xffffffb5
    180c:	02000101 	andeq	r0, r0, #1073741824	; 0x40000000
    1810:	9e060104 	adflss	f0, f6, f4
    1814:	01040200 	mrseq	r0, R12_usr
    1818:	0402002e 	streq	r0, [r2], #-46	; 0xffffffd2
    181c:	052e0601 	streq	r0, [lr, #-1537]!	; 0xfffff9ff
    1820:	00e10340 	rsceq	r0, r1, r0, asr #6
    1824:	050106d6 	streq	r0, [r1, #-1750]	; 0xfffff92a
    1828:	059f0602 	ldreq	r0, [pc, #1538]	; 1e32 <__code_start__-0x61ce>
    182c:	0501061e 	streq	r0, [r1, #-1566]	; 0xfffff9e2
    1830:	05052e12 	streq	r2, [r5, #-3602]	; 0xfffff1ee
    1834:	02052f06 	andeq	r2, r5, #6, 30
    1838:	06090514 			; <UNDEFINED> instruction: 0x06090514
    183c:	06050501 	streq	r0, [r5], -r1, lsl #10
    1840:	1302054b 	movwne	r0, #9547	; 0x254b
    1844:	0d060805 	stceq	8, cr0, [r6, #-20]	; 0xffffffec
    1848:	05330205 	ldreq	r0, [r3, #-517]!	; 0xfffffdfb
    184c:	054c0604 	strbeq	r0, [ip, #-1540]	; 0xfffff9fc
    1850:	0501060f 	streq	r0, [r1, #-1551]	; 0xfffff9f1
    1854:	08052e09 	stmdaeq	r5, {r0, r3, r9, sl, fp, sp}
    1858:	02052c06 	andeq	r2, r5, #1536	; 0x600
    185c:	0d052e06 	stceq	14, cr2, [r5, #-24]	; 0xffffffe8
    1860:	01040200 	mrseq	r0, R12_usr
    1864:	0603054a 	streq	r0, [r3], -sl, asr #10
    1868:	0605054b 	streq	r0, [r5], -fp, asr #10
    186c:	06080501 	streq	r0, [r8], -r1, lsl #10
    1870:	060e054d 	streq	r0, [lr], -sp, asr #10
    1874:	2e0a0501 	cfsh32cs	mvfx0, mvfx10, #1
    1878:	2f060405 	svccs	0x00060405
    187c:	01060905 	tsteq	r6, r5, lsl #18
    1880:	2f060405 	svccs	0x00060405
    1884:	01060705 	tsteq	r6, r5, lsl #14
    1888:	0604052e 	streq	r0, [r4], -lr, lsr #10
    188c:	06070530 			; <UNDEFINED> instruction: 0x06070530
    1890:	06040501 	streq	r0, [r4], -r1, lsl #10
    1894:	05141330 	ldreq	r1, [r4, #-816]	; 0xfffffcd0
    1898:	0510060d 	ldreq	r0, [r0, #-1549]	; 0xfffff9f3
    189c:	05300609 	ldreq	r0, [r0, #-1545]!	; 0xfffff9f7
    18a0:	05010612 	streq	r0, [r1, #-1554]	; 0xfffff9ee
    18a4:	09052e0a 	stmdbeq	r5, {r1, r3, r9, sl, fp, sp}
    18a8:	06050566 	streq	r0, [r5], -r6, ror #10
    18ac:	0612054b 	ldreq	r0, [r2], -fp, asr #10
    18b0:	2e160501 	cfmul32cs	mvfx0, mvfx6, mvfx1
    18b4:	052e0b05 	streq	r0, [lr, #-2821]!	; 0xfffff4fb
    18b8:	052f0605 	streq	r0, [pc, #-1541]!	; 12bb <__code_start__-0x6d45>
    18bc:	2e010608 	cfmadd32cs	mvax0, mvfx0, mvfx1, mvfx8
    18c0:	30060405 	andcc	r0, r6, r5, lsl #8
    18c4:	15014a01 	strne	r4, [r1, #-2561]	; 0xfffff5ff
    18c8:	01040200 	mrseq	r0, R12_usr
    18cc:	000f3602 	andeq	r3, pc, r2, lsl #12
    18d0:	01010402 	tsteq	r1, r2, lsl #8
    18d4:	01040200 	mrseq	r0, R12_usr
    18d8:	341105d6 	ldrcc	r0, [r1], #-1494	; 0xfffffa2a
    18dc:	02000113 	andeq	r0, r0, #-1073741820	; 0xc0000004
    18e0:	ba060204 	blt	1820f8 <__bss_end__+0x1780c0>
    18e4:	03040200 	movweq	r0, #16896	; 0x4200
    18e8:	0200ba06 	andeq	fp, r0, #24576	; 0x6000
    18ec:	00010304 	andeq	r0, r1, r4, lsl #6
    18f0:	14030402 	strne	r0, [r3], #-1026	; 0xfffffbfe
    18f4:	02001505 	andeq	r1, r0, #20971520	; 0x1400000
    18f8:	01060304 	tsteq	r6, r4, lsl #6
    18fc:	02001105 	andeq	r1, r0, #1073741825	; 0x40000001
    1900:	2f060304 	svccs	0x00060304
    1904:	02001a05 	andeq	r1, r0, #20480	; 0x5000
    1908:	01060304 	tsteq	r6, r4, lsl #6
    190c:	02001105 	andeq	r1, r0, #1073741825	; 0x40000001
    1910:	d7060304 	strle	r0, [r6, -r4, lsl #6]
    1914:	03040200 	movweq	r0, #16896	; 0x4200
    1918:	04020013 	streq	r0, [r2], #-19	; 0xffffffed
    191c:	02001403 	andeq	r1, r0, #50331648	; 0x3000000
    1920:	00670304 	rsbeq	r0, r7, r4, lsl #6
    1924:	68030402 	stmdavs	r3, {r1, sl}
    1928:	02001405 	andeq	r1, r0, #83886080	; 0x5000000
    192c:	01060304 	tsteq	r6, r4, lsl #6
    1930:	02001305 	andeq	r1, r0, #335544320	; 0x14000000
    1934:	05820304 	streq	r0, [r2, #772]	; 0x304
    1938:	054e0618 	strbeq	r0, [lr, #-1560]	; 0xfffff9e8
    193c:	0501061b 	streq	r0, [r1, #-1563]	; 0xfffff9e5
    1940:	0905821a 	stmdbeq	r5, {r1, r3, r4, r9, pc}
    1944:	0d054b06 	vstreq	d4, [r5, #-24]	; 0xffffffe8
    1948:	052e0106 	streq	r0, [lr, #-262]!	; 0xfffffefa
    194c:	06f30609 	ldrbteq	r0, [r3], r9, lsl #12
    1950:	061505ba 			; <UNDEFINED> instruction: 0x061505ba
    1954:	06180530 			; <UNDEFINED> instruction: 0x06180530
    1958:	66170501 	ldrvs	r0, [r7], -r1, lsl #10
    195c:	4b061905 	blmi	187d78 <__bss_end__+0x17dd40>
    1960:	03061505 	movweq	r1, #25861	; 0x6505
    1964:	1105666f 	tstne	r5, pc, ror #12
    1968:	d6014806 	strle	r4, [r1], -r6, lsl #16
    196c:	0b030905 	bleq	c3d88 <__bss_end__+0xb9d50>
    1970:	060d052e 	streq	r0, [sp], -lr, lsr #10
    1974:	09052e01 	stmdbeq	r5, {r0, r9, sl, fp, sp}
    1978:	ba06f306 	blt	1be598 <__bss_end__+0x1b4560>
    197c:	2f061505 	svccs	0x00061505
    1980:	66750306 	ldrbtvs	r0, [r5], -r6, lsl #6
    1984:	03061905 	movweq	r1, #26885	; 0x6905
    1988:	15054a13 	strne	r4, [r5, #-2579]	; 0xfffff5ed
    198c:	666d0306 	strbtvs	r0, [sp], -r6, lsl #6
    1990:	4a150306 	bmi	5425b0 <__bss_end__+0x538578>
    1994:	2e06ba01 	vmlacs.f32	s22, s12, s2
    1998:	1a060505 	bne	182db4 <__bss_end__+0x178d7c>
    199c:	032e9e01 			; <UNDEFINED> instruction: 0x032e9e01
    19a0:	0905010e 	stmdbeq	r5, {r1, r2, r3, r8}
    19a4:	05050106 	streq	r0, [r5, #-262]	; 0xfffffefa
    19a8:	05750806 	ldrbeq	r0, [r5, #-2054]!	; 0xfffff7fa
    19ac:	01180304 	tsteq	r8, r4, lsl #6
    19b0:	01060705 	tsteq	r6, r5, lsl #14
    19b4:	31060405 	tstcc	r6, r5, lsl #8
    19b8:	67030505 	strvs	r0, [r3, -r5, lsl #10]
    19bc:	061c052e 	ldreq	r0, [ip], -lr, lsr #10
    19c0:	82090501 	andhi	r0, r9, #4194304	; 0x400000
    19c4:	f3060505 	vrshl.u8	d0, d5, d6
    19c8:	061c0531 			; <UNDEFINED> instruction: 0x061c0531
    19cc:	82090501 	andhi	r0, r9, #4194304	; 0x400000
    19d0:	f3060505 	vrshl.u8	d0, d5, d6
    19d4:	061b0530 			; <UNDEFINED> instruction: 0x061b0530
    19d8:	82090501 	andhi	r0, r9, #4194304	; 0x400000
    19dc:	f3060505 	vrshl.u8	d0, d5, d6
    19e0:	06070530 			; <UNDEFINED> instruction: 0x06070530
    19e4:	06050501 	streq	r0, [r5], -r1, lsl #10
    19e8:	09053083 	stmdbeq	r5, {r0, r1, r7, ip, sp}
    19ec:	05050106 	streq	r0, [r5, #-262]	; 0xfffffefa
    19f0:	05750806 	ldrbeq	r0, [r5, #-2054]!	; 0xfffff7fa
    19f4:	22053011 	andcs	r3, r5, #17, 0
    19f8:	05050106 	streq	r0, [r5, #-262]	; 0xfffffefa
    19fc:	11054b06 	tstne	r5, r6, lsl #22
    1a00:	83050583 	movwhi	r0, #21891	; 0x5583
    1a04:	05359e01 	ldreq	r9, [r5, #-3585]!	; 0xfffff1ff
    1a08:	0501060e 	streq	r0, [r1, #-1550]	; 0xfffff9f2
    1a0c:	2d062e0a 	stccs	14, cr2, [r6, #-40]	; 0xffffffd8
    1a10:	01060405 	tsteq	r6, r5, lsl #8
    1a14:	02001305 	andeq	r1, r0, #335544320	; 0x14000000
    1a18:	054a0104 	strbeq	r0, [sl, #-260]	; 0xfffffefc
    1a1c:	04020010 	streq	r0, [r2], #-16
    1a20:	02002e01 	andeq	r2, r0, #1, 28
    1a24:	05660104 	strbeq	r0, [r6, #-260]!	; 0xfffffefc
    1a28:	05160602 	ldreq	r0, [r6, #-1538]	; 0xfffff9fe
    1a2c:	05010607 	streq	r0, [r1, #-1543]	; 0xfffff9f9
    1a30:	054b0602 	strbeq	r0, [fp, #-1538]	; 0xfffff9fe
    1a34:	66130601 	ldrvs	r0, [r3], -r1, lsl #12
    1a38:	01001e02 	tsteq	r0, r2, lsl #28
    1a3c:	0000c301 	andeq	ip, r0, r1, lsl #6
    1a40:	82000300 	andhi	r0, r0, #0, 6
    1a44:	02000000 	andeq	r0, r0, #0, 0
    1a48:	0d0efb01 	vstreq	d15, [lr, #-4]
    1a4c:	01010100 	mrseq	r0, (UNDEF: 17)
    1a50:	00000001 	andeq	r0, r0, r1
    1a54:	01000001 	tsteq	r0, r1
    1a58:	74732f2e 	ldrbtvc	r2, [r3], #-3886	; 0xfffff0d2
    1a5c:	2d666661 	stclcs	6, cr6, [r6, #-388]!	; 0xfffffe7c
    1a60:	00637273 	rsbeq	r7, r3, r3, ror r2
    1a64:	6573552f 	ldrbvs	r5, [r3, #-1327]!	; 0xfffffad1
    1a68:	652f7372 	strvs	r7, [pc, #-882]!	; 16fe <__code_start__-0x6902>
    1a6c:	62636972 	rsbvs	r6, r3, #1867776	; 0x1c8000
    1a70:	2f726165 	svccs	0x00726165
    1a74:	75636f44 	strbvc	r6, [r3, #-3908]!	; 0xfffff0bc
    1a78:	746e656d 	strbtvc	r6, [lr], #-1389	; 0xfffffa93
    1a7c:	53432f73 	movtpl	r2, #16243	; 0x3f73
    1a80:	45303431 	ldrmi	r3, [r0, #-1073]!	; 0xfffffbcf
    1a84:	3173632f 	cmncc	r3, pc, lsr #6
    1a88:	2d453034 	stclcs	0, cr3, [r5, #-208]	; 0xffffff30
    1a8c:	616e6966 	cmnvs	lr, r6, ror #18
    1a90:	72702d6c 	rsbsvc	r2, r0, #108, 26	; 0x1b00
    1a94:	63656a6f 	cmnvs	r5, #454656	; 0x6f000
    1a98:	696c2f74 	stmdbvs	ip!, {r2, r4, r5, r6, r8, r9, sl, fp, sp}^
    1a9c:	322d7362 	eorcc	r7, sp, #-2013265919	; 0x88000001
    1aa0:	786c3034 	stmdavc	ip!, {r2, r4, r5, ip, sp}^
    1aa4:	62696c2f 	rsbvs	r6, r9, #12032	; 0x2f00
    1aa8:	692f6970 	stmdbvs	pc!, {r4, r5, r6, r8, fp, sp, lr}	; <UNPREDICTABLE>
    1aac:	756c636e 	strbvc	r6, [ip, #-878]!	; 0xfffffc92
    1ab0:	00006564 	andeq	r6, r0, r4, ror #10
    1ab4:	68636163 	stmdavs	r3!, {r0, r1, r5, r6, r8, sp, lr}^
    1ab8:	00632e65 	rsbeq	r2, r3, r5, ror #28
    1abc:	72000001 	andvc	r0, r0, #1, 0
    1ac0:	682e6970 	stmdavs	lr!, {r4, r5, r6, r8, fp, sp, lr}
    1ac4:	00000200 	andeq	r0, r0, r0, lsl #4
    1ac8:	00190500 	andseq	r0, r9, r0, lsl #10
    1acc:	8d800205 	sfmhi	f0, 4, [r0, #20]
    1ad0:	05140000 	ldreq	r0, [r4, #-0]
    1ad4:	05131305 	ldreq	r1, [r3, #-773]	; 0xfffffcfb
    1ad8:	05132f02 	ldreq	r2, [r3, #-3842]	; 0xfffff0fe
    1adc:	05010604 	streq	r0, [r1, #-1540]	; 0xfffff9fc
    1ae0:	052f0605 	streq	r0, [pc, #-1541]!	; 14e3 <__code_start__-0x6b1d>
    1ae4:	052f0601 	streq	r0, [pc, #-1537]!	; 14eb <__code_start__-0x6b15>
    1ae8:	0531061a 	ldreq	r0, [r1, #-1562]!	; 0xfffff9e6
    1aec:	05131305 	ldreq	r1, [r3, #-773]	; 0xfffffcfb
    1af0:	05133002 	ldreq	r3, [r3, #-2]
    1af4:	05010604 	streq	r0, [r1, #-1540]	; 0xfffff9fc
    1af8:	052f0605 	streq	r0, [pc, #-1541]!	; 14fb <__code_start__-0x6b05>
    1afc:	022f0601 	eoreq	r0, pc, #1048576	; 0x100000
    1b00:	01010002 	tsteq	r1, r2
    1b04:	000000a4 	andeq	r0, r0, r4, lsr #1
    1b08:	00890003 	addeq	r0, r9, r3
    1b0c:	01020000 	mrseq	r0, (UNDEF: 2)
    1b10:	000d0efb 	strdeq	r0, [sp], -fp
    1b14:	01010101 	tsteq	r1, r1, lsl #2
    1b18:	01000000 	mrseq	r0, (UNDEF: 0)
    1b1c:	2e010000 	cdpcs	0, 0, cr0, cr1, cr0, {0}
    1b20:	6174732f 	cmnvs	r4, pc, lsr #6
    1b24:	732d6666 			; <UNDEFINED> instruction: 0x732d6666
    1b28:	2f006372 	svccs	0x00006372
    1b2c:	72657355 	rsbvc	r7, r5, #1409286145	; 0x54000001
    1b30:	72652f73 	rsbvc	r2, r5, #460	; 0x1cc
    1b34:	65626369 	strbvs	r6, [r2, #-873]!	; 0xfffffc97
    1b38:	442f7261 	strtmi	r7, [pc], #-609	; 1b40 <__code_start__-0x64c0>
    1b3c:	6d75636f 	ldclvs	3, cr6, [r5, #-444]!	; 0xfffffe44
    1b40:	73746e65 	cmnvc	r4, #1616	; 0x650
    1b44:	3153432f 	cmpcc	r3, pc, lsr #6
    1b48:	2f453034 	svccs	0x00453034
    1b4c:	34317363 	ldrtcc	r7, [r1], #-867	; 0xfffffc9d
    1b50:	662d4530 			; <UNDEFINED> instruction: 0x662d4530
    1b54:	6c616e69 	stclvs	14, cr6, [r1], #-420	; 0xfffffe5c
    1b58:	6f72702d 	svcvs	0x0072702d
    1b5c:	7463656a 	strbtvc	r6, [r3], #-1386	; 0xfffffa96
    1b60:	62696c2f 	rsbvs	r6, r9, #12032	; 0x2f00
    1b64:	34322d73 	ldrtcc	r2, [r2], #-3443	; 0xfffff28d
    1b68:	2f786c30 	svccs	0x00786c30
    1b6c:	7062696c 	rsbvc	r6, r2, ip, ror #18
    1b70:	6e692f69 	cdpvs	15, 6, cr2, cr9, cr9, {3}
    1b74:	64756c63 	ldrbtvs	r6, [r5], #-3171	; 0xfffff39d
    1b78:	63000065 	movwvs	r0, #101	; 0x65
    1b7c:	6e61656c 	cdpvs	5, 6, cr6, cr1, cr12, {3}
    1b80:	6265722d 	rsbvs	r7, r5, #-805306366	; 0xd0000002
    1b84:	2e746f6f 	cdpcs	15, 7, cr6, cr4, cr15, {3}
    1b88:	00010063 	andeq	r0, r1, r3, rrx
    1b8c:	69707200 	ldmdbvs	r0!, {r9, ip, sp, lr}^
    1b90:	0200682e 	andeq	r6, r0, #3014656	; 0x2e0000
    1b94:	05000000 	streq	r0, [r0, #-0]
    1b98:	02050019 	andeq	r0, r5, #25, 0
    1b9c:	00008da0 	andeq	r8, r0, r0, lsr #27
    1ba0:	2f050515 	svccs	0x00050515
    1ba4:	024b2f83 	subeq	r2, fp, #524	; 0x20c
    1ba8:	01010006 	tsteq	r1, r6
    1bac:	000000be 	strheq	r0, [r0], -lr
    1bb0:	00830003 	addeq	r0, r3, r3
    1bb4:	01020000 	mrseq	r0, (UNDEF: 2)
    1bb8:	000d0efb 	strdeq	r0, [sp], -fp
    1bbc:	01010101 	tsteq	r1, r1, lsl #2
    1bc0:	01000000 	mrseq	r0, (UNDEF: 0)
    1bc4:	2e010000 	cdpcs	0, 0, cr0, cr1, cr0, {0}
    1bc8:	6174732f 	cmnvs	r4, pc, lsr #6
    1bcc:	732d6666 			; <UNDEFINED> instruction: 0x732d6666
    1bd0:	2f006372 	svccs	0x00006372
    1bd4:	72657355 	rsbvc	r7, r5, #1409286145	; 0x54000001
    1bd8:	72652f73 	rsbvc	r2, r5, #460	; 0x1cc
    1bdc:	65626369 	strbvs	r6, [r2, #-873]!	; 0xfffffc97
    1be0:	442f7261 	strtmi	r7, [pc], #-609	; 1be8 <__code_start__-0x6418>
    1be4:	6d75636f 	ldclvs	3, cr6, [r5, #-444]!	; 0xfffffe44
    1be8:	73746e65 	cmnvc	r4, #1616	; 0x650
    1bec:	3153432f 	cmpcc	r3, pc, lsr #6
    1bf0:	2f453034 	svccs	0x00453034
    1bf4:	34317363 	ldrtcc	r7, [r1], #-867	; 0xfffffc9d
    1bf8:	662d4530 			; <UNDEFINED> instruction: 0x662d4530
    1bfc:	6c616e69 	stclvs	14, cr6, [r1], #-420	; 0xfffffe5c
    1c00:	6f72702d 	svcvs	0x0072702d
    1c04:	7463656a 	strbtvc	r6, [r3], #-1386	; 0xfffffa96
    1c08:	62696c2f 	rsbvs	r6, r9, #12032	; 0x2f00
    1c0c:	34322d73 	ldrtcc	r2, [r2], #-3443	; 0xfffff28d
    1c10:	2f786c30 	svccs	0x00786c30
    1c14:	7062696c 	rsbvc	r6, r2, ip, ror #18
    1c18:	6e692f69 	cdpvs	15, 6, cr2, cr9, cr9, {3}
    1c1c:	64756c63 	ldrbtvs	r6, [r5], #-3171	; 0xfffff39d
    1c20:	63000065 	movwvs	r0, #101	; 0x65
    1c24:	72617473 	rsbvc	r7, r1, #1929379840	; 0x73000000
    1c28:	00632e74 	rsbeq	r2, r3, r4, ror lr
    1c2c:	72000001 	andvc	r0, r0, #1, 0
    1c30:	682e6970 	stmdavs	lr!, {r4, r5, r6, r8, fp, sp, lr}
    1c34:	00000200 	andeq	r0, r0, r0, lsl #4
    1c38:	00100500 	andseq	r0, r0, r0, lsl #10
    1c3c:	8dcc0205 	sfmhi	f0, 2, [ip, #20]
    1c40:	05150000 	ldreq	r0, [r5, #-0]
    1c44:	02052f05 	andeq	r2, r5, #5, 30
    1c48:	14050513 	strne	r0, [r5], #-1299	; 0xfffffaed
    1c4c:	05141330 	ldreq	r1, [r4, #-816]	; 0xfffffcd0
    1c50:	060f060a 	streq	r0, [pc], -sl, lsl #12
    1c54:	4b090531 	blmi	243120 <__bss_end__+0x2390e8>
    1c58:	01061005 	tsteq	r6, r5
    1c5c:	0605054a 	streq	r0, [r5], -sl, asr #10
    1c60:	01013230 	tsteq	r1, r0, lsr r2
    1c64:	0205144a 	andeq	r1, r5, #1241513984	; 0x4a000000
    1c68:	0006022f 	andeq	r0, r6, pc, lsr #4
    1c6c:	00a20101 	adceq	r0, r2, r1, lsl #2
    1c70:	00030000 	andeq	r0, r3, r0
    1c74:	0000008a 	andeq	r0, r0, sl, lsl #1
    1c78:	0efb0102 	cdpeq	1, 15, cr0, cr11, cr2, {0}
    1c7c:	0101000d 	tsteq	r1, sp
    1c80:	00000101 	andeq	r0, r0, r1, lsl #2
    1c84:	00000100 	andeq	r0, r0, r0, lsl #2
    1c88:	732f2e01 			; <UNDEFINED> instruction: 0x732f2e01
    1c8c:	66666174 			; <UNDEFINED> instruction: 0x66666174
    1c90:	6372732d 	cmnvs	r2, #-1275068416	; 0xb4000000
    1c94:	73552f00 	cmpvc	r5, #0, 30
    1c98:	2f737265 	svccs	0x00737265
    1c9c:	63697265 	cmnvs	r9, #1342177286	; 0x50000006
    1ca0:	72616562 	rsbvc	r6, r1, #411041792	; 0x18800000
    1ca4:	636f442f 	cmnvs	pc, #788529152	; 0x2f000000
    1ca8:	6e656d75 	mcrvs	13, 3, r6, cr5, cr5, {3}
    1cac:	432f7374 			; <UNDEFINED> instruction: 0x432f7374
    1cb0:	30343153 	eorscc	r3, r4, r3, asr r1
    1cb4:	73632f45 	cmnvc	r3, #276	; 0x114
    1cb8:	45303431 	ldrmi	r3, [r0, #-1073]!	; 0xfffffbcf
    1cbc:	6e69662d 	cdpvs	6, 6, cr6, cr9, cr13, {1}
    1cc0:	702d6c61 	eorvc	r6, sp, r1, ror #24
    1cc4:	656a6f72 	strbvs	r6, [sl, #-3954]!	; 0xfffff08e
    1cc8:	6c2f7463 	cfstrsvs	mvf7, [pc], #-396	; 1b44 <__code_start__-0x64bc>
    1ccc:	2d736269 	lfmcs	f6, 2, [r3, #-420]!	; 0xfffffe5c
    1cd0:	6c303432 	cfldrsvs	mvf3, [r0], #-200	; 0xffffff38
    1cd4:	696c2f78 	stmdbvs	ip!, {r3, r4, r5, r6, r8, r9, sl, fp, sp}^
    1cd8:	2f697062 	svccs	0x00697062
    1cdc:	6c636e69 	stclvs	14, cr6, [r3], #-420	; 0xfffffe5c
    1ce0:	00656475 	rsbeq	r6, r5, r5, ror r4
    1ce4:	73756300 	cmnvc	r5, #0, 6
    1ce8:	2d6d6f74 	stclcs	15, cr6, [sp, #-464]!	; 0xfffffe30
    1cec:	64616f6c 	strbtvs	r6, [r1], #-3948	; 0xfffff094
    1cf0:	632e7265 			; <UNDEFINED> instruction: 0x632e7265
    1cf4:	00000100 	andeq	r0, r0, r0, lsl #2
    1cf8:	2e697072 	mcrcs	0, 3, r7, cr9, cr2, {3}
    1cfc:	00020068 	andeq	r0, r2, r8, rrx
    1d00:	1a050000 	bne	141d08 <__bss_end__+0x137cd0>
    1d04:	08020500 	stmdaeq	r2, {r8, sl}
    1d08:	1500008e 	strne	r0, [r0, #-142]	; 0xffffff72
    1d0c:	02140105 	andseq	r0, r4, #1073741825	; 0x40000001
    1d10:	01010002 	tsteq	r1, r2
    1d14:	000000f2 	strdeq	r0, [r0], -r2
    1d18:	00830003 	addeq	r0, r3, r3
    1d1c:	01020000 	mrseq	r0, (UNDEF: 2)
    1d20:	000d0efb 	strdeq	r0, [sp], -fp
    1d24:	01010101 	tsteq	r1, r1, lsl #2
    1d28:	01000000 	mrseq	r0, (UNDEF: 0)
    1d2c:	2e010000 	cdpcs	0, 0, cr0, cr1, cr0, {0}
    1d30:	6174732f 	cmnvs	r4, pc, lsr #6
    1d34:	732d6666 			; <UNDEFINED> instruction: 0x732d6666
    1d38:	2f006372 	svccs	0x00006372
    1d3c:	72657355 	rsbvc	r7, r5, #1409286145	; 0x54000001
    1d40:	72652f73 	rsbvc	r2, r5, #460	; 0x1cc
    1d44:	65626369 	strbvs	r6, [r2, #-873]!	; 0xfffffc97
    1d48:	442f7261 	strtmi	r7, [pc], #-609	; 1d50 <__code_start__-0x62b0>
    1d4c:	6d75636f 	ldclvs	3, cr6, [r5, #-444]!	; 0xfffffe44
    1d50:	73746e65 	cmnvc	r4, #1616	; 0x650
    1d54:	3153432f 	cmpcc	r3, pc, lsr #6
    1d58:	2f453034 	svccs	0x00453034
    1d5c:	34317363 	ldrtcc	r7, [r1], #-867	; 0xfffffc9d
    1d60:	662d4530 			; <UNDEFINED> instruction: 0x662d4530
    1d64:	6c616e69 	stclvs	14, cr6, [r1], #-420	; 0xfffffe5c
    1d68:	6f72702d 	svcvs	0x0072702d
    1d6c:	7463656a 	strbtvc	r6, [r3], #-1386	; 0xfffffa96
    1d70:	62696c2f 	rsbvs	r6, r9, #12032	; 0x2f00
    1d74:	34322d73 	ldrtcc	r2, [r2], #-3443	; 0xfffff28d
    1d78:	2f786c30 	svccs	0x00786c30
    1d7c:	7062696c 	rsbvc	r6, r2, ip, ror #18
    1d80:	6e692f69 	cdpvs	15, 6, cr2, cr9, cr9, {3}
    1d84:	64756c63 	ldrbtvs	r6, [r5], #-3171	; 0xfffff39d
    1d88:	72000065 	andvc	r0, r0, #101, 0	; 0x65
    1d8c:	6f6f6265 	svcvs	0x006f6265
    1d90:	00632e74 	rsbeq	r2, r3, r4, ror lr
    1d94:	72000001 	andvc	r0, r0, #1, 0
    1d98:	682e6970 	stmdavs	lr!, {r4, r5, r6, r8, fp, sp, lr}
    1d9c:	00000200 	andeq	r0, r0, r0, lsl #4
    1da0:	00190500 	andseq	r0, r9, r0, lsl #10
    1da4:	8e240205 	cdphi	2, 2, cr0, cr4, cr5, {0}
    1da8:	0d030000 	stceq	0, cr0, [r3, #-0]
    1dac:	13050501 	movwne	r0, #21761	; 0x5501
    1db0:	13053113 	movwne	r3, #20755	; 0x5113
    1db4:	01050106 	tsteq	r5, r6, lsl #2
    1db8:	061b052f 	ldreq	r0, [fp], -pc, lsr #10
    1dbc:	13050585 	movwne	r0, #21893	; 0x5585
    1dc0:	2f090514 	svccs	0x00090514
    1dc4:	01061605 	tsteq	r6, r5, lsl #12
    1dc8:	052e0e05 	streq	r0, [lr, #-3589]!	; 0xfffff1fb
    1dcc:	052f0605 	streq	r0, [pc, #-1541]!	; 17cf <__code_start__-0x6831>
    1dd0:	052f0601 	streq	r0, [pc, #-1537]!	; 17d7 <__code_start__-0x6829>
    1dd4:	05300617 	ldreq	r0, [r0, #-1559]!	; 0xfffff9e9
    1dd8:	08052f05 	stmdaeq	r5, {r0, r2, r8, r9, sl, fp, sp}
    1ddc:	07050106 	streq	r0, [r5, -r6, lsl #2]
    1de0:	0605052e 	streq	r0, [r5], -lr, lsr #10
    1de4:	4d2f3050 	stcmi	0, cr3, [pc, #-320]!	; 1cac <__code_start__-0x6354>
    1de8:	15131313 	ldrne	r1, [r3, #-787]	; 0xfffffced
    1dec:	04020067 	streq	r0, [r2], #-103	; 0xffffff99
    1df0:	0d056701 	stceq	7, cr6, [r5, #-4]
    1df4:	01040200 	mrseq	r0, R12_usr
    1df8:	000a0501 	andeq	r0, sl, r1, lsl #10
    1dfc:	01010402 	tsteq	r1, r2, lsl #8
    1e00:	6d030905 	vstrvs.16	s0, [r3, #-10]	; <UNPREDICTABLE>
    1e04:	000c022e 	andeq	r0, ip, lr, lsr #4
    1e08:	00f90101 	rscseq	r0, r9, r1, lsl #2
    1e0c:	00030000 	andeq	r0, r3, r0
    1e10:	00000082 	andeq	r0, r0, r2, lsl #1
    1e14:	0efb0102 	cdpeq	1, 15, cr0, cr11, cr2, {0}
    1e18:	0101000d 	tsteq	r1, sp
    1e1c:	00000101 	andeq	r0, r0, r1, lsl #2
    1e20:	00000100 	andeq	r0, r0, r0, lsl #2
    1e24:	732f2e01 			; <UNDEFINED> instruction: 0x732f2e01
    1e28:	66666174 			; <UNDEFINED> instruction: 0x66666174
    1e2c:	6372732d 	cmnvs	r2, #-1275068416	; 0xb4000000
    1e30:	73552f00 	cmpvc	r5, #0, 30
    1e34:	2f737265 	svccs	0x00737265
    1e38:	63697265 	cmnvs	r9, #1342177286	; 0x50000006
    1e3c:	72616562 	rsbvc	r6, r1, #411041792	; 0x18800000
    1e40:	636f442f 	cmnvs	pc, #788529152	; 0x2f000000
    1e44:	6e656d75 	mcrvs	13, 3, r6, cr5, cr5, {3}
    1e48:	432f7374 			; <UNDEFINED> instruction: 0x432f7374
    1e4c:	30343153 	eorscc	r3, r4, r3, asr r1
    1e50:	73632f45 	cmnvc	r3, #276	; 0x114
    1e54:	45303431 	ldrmi	r3, [r0, #-1073]!	; 0xfffffbcf
    1e58:	6e69662d 	cdpvs	6, 6, cr6, cr9, cr13, {1}
    1e5c:	702d6c61 	eorvc	r6, sp, r1, ror #24
    1e60:	656a6f72 	strbvs	r6, [sl, #-3954]!	; 0xfffff08e
    1e64:	6c2f7463 	cfstrsvs	mvf7, [pc], #-396	; 1ce0 <__code_start__-0x6320>
    1e68:	2d736269 	lfmcs	f6, 2, [r3, #-420]!	; 0xfffffe5c
    1e6c:	6c303432 	cfldrsvs	mvf3, [r0], #-200	; 0xffffff38
    1e70:	696c2f78 	stmdbvs	ip!, {r3, r4, r5, r6, r8, r9, sl, fp, sp}^
    1e74:	2f697062 	svccs	0x00697062
    1e78:	6c636e69 	stclvs	14, cr6, [r3], #-420	; 0xfffffe5c
    1e7c:	00656475 	rsbeq	r6, r5, r5, ror r4
    1e80:	6d697400 	cfstrdvs	mvd7, [r9, #-0]
    1e84:	632e7265 			; <UNDEFINED> instruction: 0x632e7265
    1e88:	00000100 	andeq	r0, r0, r0, lsl #2
    1e8c:	2e697072 	mcrcs	0, 3, r7, cr9, cr2, {3}
    1e90:	00020068 	andeq	r0, r2, r8, rrx
    1e94:	23050000 	movwcs	r0, #20480	; 0x5000
    1e98:	a4020500 	strge	r0, [r2], #-1280	; 0xfffffb00
    1e9c:	1500008e 	strne	r0, [r0, #-142]	; 0xffffff72
    1ea0:	052f0505 	streq	r0, [pc, #-1285]!	; 19a3 <__code_start__-0x665d>
    1ea4:	0501060c 	streq	r0, [r1, #-1548]	; 0xfffff9f4
    1ea8:	1f054b01 	svcne	0x00054b01
    1eac:	05054d06 	streq	r4, [r5, #-3334]	; 0xfffff2fa
    1eb0:	12052f31 	andne	r2, r5, #196	; 0xc4
    1eb4:	05050106 	streq	r0, [r5, #-262]	; 0xfffffefa
    1eb8:	052f4b06 	streq	r4, [pc, #-2822]!	; 13ba <__code_start__-0x6c46>
    1ebc:	05130601 	ldreq	r0, [r3, #-1537]	; 0xfffff9ff
    1ec0:	064c061c 			; <UNDEFINED> instruction: 0x064c061c
    1ec4:	06050501 	streq	r0, [r5], -r1, lsl #10
    1ec8:	0613054b 	ldreq	r0, [r3], -fp, asr #10
    1ecc:	05052e01 	streq	r2, [r5, #-3585]	; 0xfffff1ff
    1ed0:	09052f06 	stmdbeq	r5, {r1, r2, r8, r9, sl, fp, sp}
    1ed4:	06170513 			; <UNDEFINED> instruction: 0x06170513
    1ed8:	06090501 	streq	r0, [r9], -r1, lsl #10
    1edc:	0611052f 	ldreq	r0, [r1], -pc, lsr #10
    1ee0:	2e0c0501 	cfsh32cs	mvfx0, mvfx12, #1
    1ee4:	6b061c05 	blvs	188f00 <__bss_end__+0x17eec8>
    1ee8:	05050106 	streq	r0, [r5, #-262]	; 0xfffffefa
    1eec:	4a062f06 	bmi	18db0c <__bss_end__+0x183ad4>
    1ef0:	054b0105 	strbeq	r0, [fp, #-261]	; 0xfffffefb
    1ef4:	062f061e 			; <UNDEFINED> instruction: 0x062f061e
    1ef8:	06050501 	streq	r0, [r5], -r1, lsl #10
    1efc:	054a062f 	strbeq	r0, [sl, #-1583]	; 0xfffff9d1
    1f00:	02024b01 	andeq	r4, r2, #1024	; 0x400
    1f04:	bb010100 	bllt	4230c <__bss_end__+0x382d4>
    1f08:	03000001 	movweq	r0, #1
    1f0c:	0000bf00 	andeq	fp, r0, r0, lsl #30
    1f10:	fb010200 	blx	4271a <__bss_end__+0x386e2>
    1f14:	01000d0e 	tsteq	r0, lr, lsl #26
    1f18:	00010101 	andeq	r0, r1, r1, lsl #2
    1f1c:	00010000 	andeq	r0, r1, r0
    1f20:	682f0100 	stmdavs	pc!, {r8}	; <UNPREDICTABLE>
    1f24:	2f656d6f 	svccs	0x00656d6f
    1f28:	6c676e65 	stclvs	14, cr6, [r7], #-404	; 0xfffffe6c
    1f2c:	632f7265 			; <UNDEFINED> instruction: 0x632f7265
    1f30:	7373616c 	cmnvc	r3, #27
    1f34:	3273632f 	rsbscc	r6, r3, #-1140850688	; 0xbc000000
    1f38:	786c3034 	stmdavc	ip!, {r2, r4, r5, ip, sp}^
    1f3c:	7332322d 	teqvc	r2, #-805306366	; 0xd0000002
    1f40:	2f2f7270 	svccs	0x002f7270
    1f44:	7062696c 	rsbvc	r6, r2, ip, ror #18
    1f48:	6e692f69 	cdpvs	15, 6, cr2, cr9, cr9, {3}
    1f4c:	64756c63 	ldrbtvs	r6, [r5], #-3171	; 0xfffff39d
    1f50:	752f0065 	strvc	r0, [pc, #-101]!	; 1ef3 <__code_start__-0x610d>
    1f54:	732f7273 			; <UNDEFINED> instruction: 0x732f7273
    1f58:	65726168 	ldrbvs	r6, [r2, #-360]!	; 0xfffffe98
    1f5c:	6363672f 	cmnvs	r3, #12320768	; 0xbc0000
    1f60:	6d72612d 	ldfvse	f6, [r2, #-180]!	; 0xffffff4c
    1f64:	6e6f6e2d 	cdpvs	14, 6, cr6, cr15, cr13, {1}
    1f68:	61652d65 	cmnvs	r5, r5, ror #26
    1f6c:	312d6962 			; <UNDEFINED> instruction: 0x312d6962
    1f70:	2d332e30 	ldccs	14, cr2, [r3, #-192]!	; 0xffffff40
    1f74:	31323032 	teqcc	r2, r2, lsr r0
    1f78:	2f30312e 	svccs	0x0030312e
    1f7c:	2f62696c 	svccs	0x0062696c
    1f80:	2f636367 	svccs	0x00636367
    1f84:	2d6d7261 	sfmcs	f7, 2, [sp, #-388]!	; 0xfffffe7c
    1f88:	656e6f6e 	strbvs	r6, [lr, #-3950]!	; 0xfffff092
    1f8c:	6261652d 	rsbvs	r6, r1, #188743680	; 0xb400000
    1f90:	30312f69 	eorscc	r2, r1, r9, ror #30
    1f94:	312e332e 			; <UNDEFINED> instruction: 0x312e332e
    1f98:	636e692f 	cmnvs	lr, #770048	; 0xbc000
    1f9c:	6564756c 	strbvs	r7, [r4, #-1388]!	; 0xfffffa94
    1fa0:	70670000 	rsbvc	r0, r7, r0
    1fa4:	632e6f69 			; <UNDEFINED> instruction: 0x632e6f69
    1fa8:	00000000 	andeq	r0, r0, r0
    1fac:	2e697072 	mcrcs	0, 3, r7, cr9, cr2, {3}
    1fb0:	00010068 	andeq	r0, r1, r8, rrx
    1fb4:	64747300 	ldrbtvs	r7, [r4], #-768	; 0xfffffd00
    1fb8:	2d746e69 	ldclcs	14, cr6, [r4, #-420]!	; 0xfffffe5c
    1fbc:	2e636367 	cdpcs	3, 6, cr6, cr3, cr7, {3}
    1fc0:	00020068 	andeq	r0, r2, r8, rrx
    1fc4:	69706700 	ldmdbvs	r0!, {r8, r9, sl, sp, lr}^
    1fc8:	00682e6f 	rsbeq	r2, r8, pc, ror #28
    1fcc:	00000001 	andeq	r0, r0, r1
    1fd0:	05003805 	streq	r3, [r0, #-2053]	; 0xfffff7fb
    1fd4:	008f2802 	addeq	r2, pc, r2, lsl #16
    1fd8:	01270300 			; <UNDEFINED> instruction: 0x01270300
    1fdc:	05130505 	ldreq	r0, [r3, #-1285]	; 0xfffffafb
    1fe0:	05010607 	streq	r0, [r1, #-1543]	; 0xfffff9f9
    1fe4:	05054938 	streq	r4, [r5, #-2360]	; 0xfffff6c8
    1fe8:	07054d06 	streq	r4, [r5, -r6, lsl #26]
    1fec:	05050106 	streq	r0, [r5, #-262]	; 0xfffffefa
    1ff0:	18054c06 	stmdane	r5, {r1, r2, sl, fp, lr}
    1ff4:	0e050106 	adfeqs	f0, f5, f6
    1ff8:	060505ba 			; <UNDEFINED> instruction: 0x060505ba
    1ffc:	061c052f 	ldreq	r0, [ip], -pc, lsr #10
    2000:	0e052e01 	cdpeq	14, 0, cr2, cr5, cr1, {0}
    2004:	0605052e 	streq	r0, [r5], -lr, lsr #10
    2008:	06120530 			; <UNDEFINED> instruction: 0x06120530
    200c:	06050501 	streq	r0, [r5], -r1, lsl #10
    2010:	0607054b 	streq	r0, [r7], -fp, asr #10
    2014:	06050501 	streq	r0, [r5], -r1, lsl #10
    2018:	2e06134b 	cdpcs	3, 0, cr1, cr6, cr11, {2}
    201c:	054b0105 	strbeq	r0, [fp, #-261]	; 0xfffffefb
    2020:	064c0624 	strbeq	r0, [ip], -r4, lsr #12
    2024:	06050501 	streq	r0, [r5], -r1, lsl #10
    2028:	0601052f 	streq	r0, [r1], -pc, lsr #10
    202c:	0620054b 	strteq	r0, [r0], -fp, asr #10
    2030:	13050531 	movwne	r0, #21809	; 0x5531
    2034:	01060705 	tsteq	r6, r5, lsl #14
    2038:	05492005 	strbeq	r2, [r9, #-5]
    203c:	06310605 	ldrteq	r0, [r1], -r5, lsl #12
    2040:	2f010566 	svccs	0x00010566
    2044:	4d062105 	stfmis	f2, [r6, #-20]	; 0xffffffec
    2048:	05130505 	ldreq	r0, [r3, #-1285]	; 0xfffffafb
    204c:	05010607 	streq	r0, [r1, #-1543]	; 0xfffff9f9
    2050:	05054921 	streq	r4, [r5, #-2337]	; 0xfffff6df
    2054:	66063106 	strvs	r3, [r6], -r6, lsl #2
    2058:	052f0105 	streq	r0, [pc, #-261]!	; 1f5b <__code_start__-0x60a5>
    205c:	064d0623 	strbeq	r0, [sp], -r3, lsr #12
    2060:	06050501 	streq	r0, [r5], -r1, lsl #10
    2064:	0601052f 	streq	r0, [r1], -pc, lsr #10
    2068:	062b054b 	strteq	r0, [fp], -fp, asr #10
    206c:	05010631 	streq	r0, [r1, #-1585]	; 0xfffff9cf
    2070:	052f0605 	streq	r0, [pc, #-1541]!	; 1a73 <__code_start__-0x658d>
    2074:	05010607 	streq	r0, [r1, #-1543]	; 0xfffff9f9
    2078:	064b0609 	strbeq	r0, [fp], -r9, lsl #12
    207c:	0530062e 	ldreq	r0, [r0, #-1582]!	; 0xfffff9d2
    2080:	052f0601 	streq	r0, [pc, #-1537]!	; 1a87 <__code_start__-0x6579>
    2084:	0530061d 	ldreq	r0, [r0, #-1565]!	; 0xfffff9e3
    2088:	07051305 	streq	r1, [r5, -r5, lsl #6]
    208c:	1d050106 	stfnes	f0, [r5, #-24]	; 0xffffffe8
    2090:	06050549 	streq	r0, [r5], -r9, asr #10
    2094:	0e051331 	mcreq	3, 0, r1, cr5, cr1, {1}
    2098:	05050106 	streq	r0, [r5, #-262]	; 0xfffffefa
    209c:	17052f06 	strne	r2, [r5, -r6, lsl #30]
    20a0:	054a0106 	strbeq	r0, [sl, #-262]	; 0xfffffefa
    20a4:	02042e23 	andeq	r2, r4, #560	; 0x230
    20a8:	03063005 	movweq	r3, #24581	; 0x6005
    20ac:	042e00dc 	strteq	r0, [lr], #-220	; 0xffffff24
    20b0:	060c0501 	streq	r0, [ip], -r1, lsl #10
    20b4:	017fa403 	cmneq	pc, r3, lsl #8
    20b8:	052f0105 	streq	r0, [pc, #-261]!	; 1fbb <__code_start__-0x6045>
    20bc:	01052a10 	tsteq	r5, r0, lsl sl
    20c0:	00040232 	andeq	r0, r4, r2, lsr r2
    20c4:	02050101 	andeq	r0, r5, #1073741824	; 0x40000000
    20c8:	00030000 	andeq	r0, r3, r0
    20cc:	000000c9 	andeq	r0, r0, r9, asr #1
    20d0:	0efb0102 	cdpeq	1, 15, cr0, cr11, cr2, {0}
    20d4:	0101000d 	tsteq	r1, sp
    20d8:	00000101 	andeq	r0, r0, r1, lsl #2
    20dc:	00000100 	andeq	r0, r0, r0, lsl #2
    20e0:	6f682f01 	svcvs	0x00682f01
    20e4:	652f656d 	strvs	r6, [pc, #-1389]!	; 1b7f <__code_start__-0x6481>
    20e8:	656c676e 	strbvs	r6, [ip, #-1902]!	; 0xfffff892
    20ec:	6c632f72 	stclvs	15, cr2, [r3], #-456	; 0xfffffe38
    20f0:	2f737361 	svccs	0x00737361
    20f4:	34327363 	ldrtcc	r7, [r2], #-867	; 0xfffffc9d
    20f8:	2d786c30 	ldclcs	12, cr6, [r8, #-192]!	; 0xffffff40
    20fc:	70733232 	rsbsvc	r3, r3, r2, lsr r2
    2100:	6c2f2f72 	stcvs	15, cr2, [pc], #-456	; 1f40 <__code_start__-0x60c0>
    2104:	69706269 	ldmdbvs	r0!, {r0, r3, r5, r6, r9, sp, lr}^
    2108:	636e692f 	cmnvs	lr, #770048	; 0xbc000
    210c:	6564756c 	strbvs	r7, [r4, #-1388]!	; 0xfffffa94
    2110:	73752f00 	cmnvc	r5, #0, 30
    2114:	68732f72 	ldmdavs	r3!, {r1, r4, r5, r6, r8, r9, sl, fp, sp}^
    2118:	2f657261 	svccs	0x00657261
    211c:	2d636367 	stclcs	3, cr6, [r3, #-412]!	; 0xfffffe64
    2120:	2d6d7261 	sfmcs	f7, 2, [sp, #-388]!	; 0xfffffe7c
    2124:	656e6f6e 	strbvs	r6, [lr, #-3950]!	; 0xfffff092
    2128:	6261652d 	rsbvs	r6, r1, #188743680	; 0xb400000
    212c:	30312d69 	eorscc	r2, r1, r9, ror #26
    2130:	322d332e 	eorcc	r3, sp, #-1207959552	; 0xb8000000
    2134:	2e313230 	mrccs	2, 1, r3, cr1, cr0, {1}
    2138:	6c2f3031 	stcvs	0, cr3, [pc], #-196	; 207c <__code_start__-0x5f84>
    213c:	672f6269 	strvs	r6, [pc, -r9, ror #4]!
    2140:	612f6363 			; <UNDEFINED> instruction: 0x612f6363
    2144:	6e2d6d72 	mcrvs	13, 1, r6, cr13, cr2, {3}
    2148:	2d656e6f 	stclcs	14, cr6, [r5, #-444]!	; 0xfffffe44
    214c:	69626165 	stmdbvs	r2!, {r0, r2, r5, r6, r8, sp, lr}^
    2150:	2e30312f 	rsfcssp	f3, f0, #10.0
    2154:	2f312e33 	svccs	0x00312e33
    2158:	6c636e69 	stclvs	14, cr6, [r3], #-420	; 0xfffffe5c
    215c:	00656475 	rsbeq	r6, r5, r5, ror r4
    2160:	72617500 	rsbvc	r7, r1, #0, 10
    2164:	00632e74 	rsbeq	r2, r3, r4, ror lr
    2168:	75000000 	strvc	r0, [r0, #-0]
    216c:	2e747261 	cdpcs	2, 7, cr7, cr4, cr1, {3}
    2170:	00010068 	andeq	r0, r1, r8, rrx
    2174:	69707200 	ldmdbvs	r0!, {r9, ip, sp, lr}^
    2178:	0100682e 	tsteq	r0, lr, lsr #16
    217c:	70670000 	rsbvc	r0, r7, r0
    2180:	682e6f69 	stmdavs	lr!, {r0, r3, r5, r6, r8, r9, sl, fp, sp, lr}
    2184:	00000100 	andeq	r0, r0, r0, lsl #2
    2188:	69647473 	stmdbvs	r4!, {r0, r1, r4, r5, r6, sl, ip, sp, lr}^
    218c:	672d746e 	strvs	r7, [sp, -lr, ror #8]!
    2190:	682e6363 	stmdavs	lr!, {r0, r1, r5, r6, r8, r9, sp, lr}
    2194:	00000200 	andeq	r0, r0, r0, lsl #4
    2198:	00390500 	eorseq	r0, r9, r0, lsl #10
    219c:	90440205 	subls	r0, r4, r5, lsl #4
    21a0:	30030000 	andcc	r0, r3, r0
    21a4:	05010601 	streq	r0, [r1, #-1537]	; 0xfffff9ff
    21a8:	05670605 	strbeq	r0, [r7, #-1541]!	; 0xfffff9fb
    21ac:	05010611 	streq	r0, [r1, #-1553]	; 0xfffff9ef
    21b0:	01052e05 	tsteq	r5, r5, lsl #28
    21b4:	06380567 	ldrteq	r0, [r8], -r7, ror #10
    21b8:	05010629 	streq	r0, [r1, #-1577]	; 0xfffff9d7
    21bc:	05670605 	strbeq	r0, [r7, #-1541]!	; 0xfffff9fb
    21c0:	05010611 	streq	r0, [r1, #-1553]	; 0xfffff9ef
    21c4:	01052e05 	tsteq	r5, r5, lsl #28
    21c8:	06160567 	ldreq	r0, [r6], -r7, ror #10
    21cc:	052e1503 	streq	r1, [lr, #-1283]!	; 0xfffffafd
    21d0:	68673505 	stmdavs	r7!, {r0, r2, r8, sl, ip, sp}^
    21d4:	0c036835 	stceq	8, cr6, [r3], {53}	; 0x35
    21d8:	696b852e 	stmdbvs	fp!, {r1, r2, r3, r5, r8, sl, pc}^
    21dc:	660c0369 	strvs	r0, [ip], -r9, ror #6
    21e0:	05676b13 	strbeq	r6, [r7, #-2835]!	; 0xfffff4ed
    21e4:	052f0601 	streq	r0, [pc, #-1537]!	; 1beb <__code_start__-0x6415>
    21e8:	25080619 	strcs	r0, [r8, #-1561]	; 0xfffff9e7
    21ec:	05340505 	ldreq	r0, [r4, #-1285]!	; 0xfffffafb
    21f0:	0501060d 	streq	r0, [r1, #-1549]	; 0xfffff9f3
    21f4:	19054c01 	stmdbne	r5, {r0, sl, fp, lr}
    21f8:	05056706 	streq	r6, [r5, #-1798]	; 0xfffff8fa
    21fc:	060d0536 			; <UNDEFINED> instruction: 0x060d0536
    2200:	4a280501 	bmi	a0360c <__bss_end__+0x9f95d4>
    2204:	05300105 	ldreq	r0, [r0, #-261]!	; 0xfffffefb
    2208:	05870615 	streq	r0, [r7, #1557]	; 0x615
    220c:	052f2f05 	streq	r2, [pc, #-3845]!	; 130f <__code_start__-0x6cf1>
    2210:	04020009 	streq	r0, [r2], #-9
    2214:	0a051301 	beq	146e20 <__bss_end__+0x13cde8>
    2218:	01040200 	mrseq	r0, R12_usr
    221c:	000c0511 	andeq	r0, ip, r1, lsl r5
    2220:	06010402 	streq	r0, [r1], -r2, lsl #8
    2224:	000a0501 	andeq	r0, sl, r1, lsl #10
    2228:	2e010402 	cdpcs	4, 0, cr0, cr1, cr2, {0}
    222c:	4c060505 	cfstr32mi	mvfx0, [r6], {5}
    2230:	01060e05 	tsteq	r6, r5, lsl #28
    2234:	054a0905 	strbeq	r0, [sl, #-2309]	; 0xfffff6fb
    2238:	2f2f0605 	svccs	0x002f0605
    223c:	13060105 	movwne	r0, #24837	; 0x6105
    2240:	67061c05 	strvs	r1, [r6, -r5, lsl #24]
    2244:	05050106 	streq	r0, [r5, #-262]	; 0xfffffefa
    2248:	052f4b06 	streq	r4, [pc, #-2822]!	; 174a <__code_start__-0x68b6>
    224c:	04020009 	streq	r0, [r2], #-9
    2250:	0a051301 	beq	146e5c <__bss_end__+0x13ce24>
    2254:	01040200 	mrseq	r0, R12_usr
    2258:	000c0511 	andeq	r0, ip, r1, lsl r5
    225c:	06010402 	streq	r0, [r1], -r2, lsl #8
    2260:	000a0501 	andeq	r0, sl, r1, lsl #10
    2264:	2e010402 	cdpcs	4, 0, cr0, cr1, cr2, {0}
    2268:	4c060505 	cfstr32mi	mvfx0, [r6], {5}
    226c:	06010567 	streq	r0, [r1], -r7, ror #10
    2270:	0619052f 	ldreq	r0, [r9], -pc, lsr #10
    2274:	2e1b054c 	cfmac32cs	mvfx0, mvfx11, mvfx12
    2278:	052e2a05 	streq	r2, [lr, #-2565]!	; 0xfffff5fb
    227c:	05010631 	streq	r0, [r1, #-1585]	; 0xfffff9cf
    2280:	1c052e42 	stcne	14, cr2, [r5], {66}	; 0x42
    2284:	05053106 	streq	r3, [r5, #-262]	; 0xfffffefa
    2288:	2e09032f 	cdpcs	3, 0, cr0, cr9, cr15, {1}
    228c:	01060e05 	tsteq	r6, r5, lsl #28
    2290:	054a2105 	strbeq	r2, [sl, #-261]	; 0xfffffefb
    2294:	2e0a0301 	cdpcs	3, 0, cr0, cr10, cr1, {0}
    2298:	68061a05 	stmdavs	r6, {r0, r2, r9, fp, ip}
    229c:	02000905 	andeq	r0, r0, #81920	; 0x14000
    22a0:	05300104 	ldreq	r0, [r0, #-260]!	; 0xfffffefc
    22a4:	0402000a 	streq	r0, [r2], #-10
    22a8:	0c051101 	stfeqs	f1, [r5], {1}
    22ac:	01040200 	mrseq	r0, R12_usr
    22b0:	0a050106 	beq	1426d0 <__bss_end__+0x138698>
    22b4:	01040200 	mrseq	r0, R12_usr
    22b8:	0619052e 	ldreq	r0, [r9], -lr, lsr #10
    22bc:	667ee803 	ldrbtvs	lr, [lr], -r3, lsl #16
    22c0:	2f2f0505 	svccs	0x002f0505
    22c4:	0105672f 	tsteq	r5, pc, lsr #14
    22c8:	04022f06 	streq	r2, [r2], #-3846	; 0xfffff0fa
    22cc:	bd010100 	stflts	f0, [r1, #-0]
    22d0:	03000000 	movweq	r0, #0
    22d4:	00007f00 	andeq	r7, r0, r0, lsl #30
    22d8:	fb010200 	blx	42ae2 <__bss_end__+0x38aaa>
    22dc:	01000d0e 	tsteq	r0, lr, lsl #26
    22e0:	00010101 	andeq	r0, r1, r1, lsl #2
    22e4:	00010000 	andeq	r0, r1, r0
    22e8:	2f2e0100 	svccs	0x002e0100
    22ec:	6362696c 	cmnvs	r2, #108, 18	; 0x1b0000
    22f0:	73552f00 	cmpvc	r5, #0, 30
    22f4:	2f737265 	svccs	0x00737265
    22f8:	63697265 	cmnvs	r9, #1342177286	; 0x50000006
    22fc:	72616562 	rsbvc	r6, r1, #411041792	; 0x18800000
    2300:	636f442f 	cmnvs	pc, #788529152	; 0x2f000000
    2304:	6e656d75 	mcrvs	13, 3, r6, cr5, cr5, {3}
    2308:	432f7374 			; <UNDEFINED> instruction: 0x432f7374
    230c:	30343153 	eorscc	r3, r4, r3, asr r1
    2310:	73632f45 	cmnvc	r3, #276	; 0x114
    2314:	45303431 	ldrmi	r3, [r0, #-1073]!	; 0xfffffbcf
    2318:	6e69662d 	cdpvs	6, 6, cr6, cr9, cr13, {1}
    231c:	702d6c61 	eorvc	r6, sp, r1, ror #24
    2320:	656a6f72 	strbvs	r6, [sl, #-3954]!	; 0xfffff08e
    2324:	6c2f7463 	cfstrsvs	mvf7, [pc], #-396	; 21a0 <__code_start__-0x5e60>
    2328:	2d736269 	lfmcs	f6, 2, [r3, #-420]!	; 0xfffffe5c
    232c:	6c303432 	cfldrsvs	mvf3, [r0], #-200	; 0xffffff38
    2330:	696c2f78 	stmdbvs	ip!, {r3, r4, r5, r6, r8, r9, sl, fp, sp}^
    2334:	2f697062 	svccs	0x00697062
    2338:	6c636e69 	stclvs	14, cr6, [r3], #-420	; 0xfffffe5c
    233c:	00656475 	rsbeq	r6, r5, r5, ror r4
    2340:	74757000 	ldrbtvc	r7, [r5], #-0
    2344:	72616863 	rsbvc	r6, r1, #6488064	; 0x630000
    2348:	0100632e 	tsteq	r0, lr, lsr #6
    234c:	70720000 	rsbsvc	r0, r2, r0
    2350:	00682e69 	rsbeq	r2, r8, r9, ror #28
    2354:	00000002 	andeq	r0, r0, r2
    2358:	05002405 	streq	r2, [r0, #-1029]	; 0xfffffbfb
    235c:	00923402 	addseq	r3, r2, r2, lsl #8
    2360:	01061400 	tsteq	r6, r0, lsl #8
    2364:	4a062605 	bmi	18bb80 <__bss_end__+0x181b48>
    2368:	052e3405 	streq	r3, [lr, #-1029]!	; 0xfffffbfb
    236c:	05010601 	streq	r0, [r1, #-1537]	; 0xfffff9ff
    2370:	054f061b 	strbeq	r0, [pc, #-1563]	; 1d5d <__code_start__-0x62a3>
    2374:	11051305 	tstne	r5, r5, lsl #6
    2378:	01050106 	tsteq	r5, r6, lsl #2
    237c:	06230567 	strteq	r0, [r3], -r7, ror #10
    2380:	13050567 	movwne	r0, #21863	; 0x5567
    2384:	01061105 	tsteq	r6, r5, lsl #2
    2388:	024b0105 	subeq	r0, fp, #1073741825	; 0x40000001
    238c:	01010004 	tsteq	r1, r4
    2390:	00000109 	andeq	r0, r0, r9, lsl #2
    2394:	007e0003 	rsbseq	r0, lr, r3
    2398:	01020000 	mrseq	r0, (UNDEF: 2)
    239c:	000d0efb 	strdeq	r0, [sp], -fp
    23a0:	01010101 	tsteq	r1, r1, lsl #2
    23a4:	01000000 	mrseq	r0, (UNDEF: 0)
    23a8:	2e010000 	cdpcs	0, 0, cr0, cr1, cr0, {0}
    23ac:	62696c2f 	rsbvs	r6, r9, #12032	; 0x2f00
    23b0:	552f0063 	strpl	r0, [pc, #-99]!	; 2355 <__code_start__-0x5cab>
    23b4:	73726573 	cmnvc	r2, #482344960	; 0x1cc00000
    23b8:	6972652f 	ldmdbvs	r2!, {r0, r1, r2, r3, r5, r8, sl, sp, lr}^
    23bc:	61656263 	cmnvs	r5, r3, ror #4
    23c0:	6f442f72 	svcvs	0x00442f72
    23c4:	656d7563 	strbvs	r7, [sp, #-1379]!	; 0xfffffa9d
    23c8:	2f73746e 	svccs	0x0073746e
    23cc:	34315343 	ldrtcc	r5, [r1], #-835	; 0xfffffcbd
    23d0:	632f4530 			; <UNDEFINED> instruction: 0x632f4530
    23d4:	30343173 	eorscc	r3, r4, r3, ror r1
    23d8:	69662d45 	stmdbvs	r6!, {r0, r2, r6, r8, sl, fp, sp}^
    23dc:	2d6c616e 	stfcse	f6, [ip, #-440]!	; 0xfffffe48
    23e0:	6a6f7270 	bvs	1bdeda8 <__bss_end__+0x1bd4d70>
    23e4:	2f746365 	svccs	0x00746365
    23e8:	7362696c 	cmnvc	r2, #108, 18	; 0x1b0000
    23ec:	3034322d 	eorscc	r3, r4, sp, lsr #4
    23f0:	6c2f786c 	stcvs	8, cr7, [pc], #-432	; 2248 <__code_start__-0x5db8>
    23f4:	69706269 	ldmdbvs	r0!, {r0, r3, r5, r6, r9, sp, lr}^
    23f8:	636e692f 	cmnvs	lr, #770048	; 0xbc000
    23fc:	6564756c 	strbvs	r7, [r4, #-1388]!	; 0xfffffa94
    2400:	74730000 	ldrbtvc	r0, [r3], #-0
    2404:	74616372 	strbtvc	r6, [r1], #-882	; 0xfffffc8e
    2408:	0100632e 	tsteq	r0, lr, lsr #6
    240c:	70720000 	rsbsvc	r0, r2, r0
    2410:	00682e69 	rsbeq	r2, r8, r9, ror #28
    2414:	00000002 	andeq	r0, r0, r2
    2418:	05002c05 	streq	r2, [r0, #-3077]	; 0xfffff3fb
    241c:	00927002 	addseq	r7, r2, r2
    2420:	05051500 	streq	r1, [r5, #-1280]	; 0xfffffb00
    2424:	0b051313 	bleq	147078 <__bss_end__+0x13d040>
    2428:	05051106 	streq	r1, [r5, #-262]	; 0xfffffefa
    242c:	01040200 	mrseq	r0, R12_usr
    2430:	02003006 	andeq	r3, r0, #6, 0
    2434:	05150104 	ldreq	r0, [r5, #-260]	; 0xfffffefc
    2438:	04020009 	streq	r0, [r2], #-9
    243c:	10051301 	andne	r1, r5, r1, lsl #6
    2440:	01040200 	mrseq	r0, R12_usr
    2444:	0b052e06 	bleq	14dc64 <__bss_end__+0x143c2c>
    2448:	01040200 	mrseq	r0, R12_usr
    244c:	0402002e 	streq	r0, [r2], #-46	; 0xffffffd2
    2450:	052f0601 	streq	r0, [pc, #-1537]!	; 1e57 <__code_start__-0x61a9>
    2454:	04020005 	streq	r0, [r2], #-5
    2458:	06010601 	streq	r0, [r1], -r1, lsl #12
    245c:	0608054e 	streq	r0, [r8], -lr, asr #10
    2460:	00050501 	andeq	r0, r5, r1, lsl #10
    2464:	06010402 	streq	r0, [r1], -r2, lsl #8
    2468:	0009052f 	andeq	r0, r9, pc, lsr #10
    246c:	13010402 	movwne	r0, #5122	; 0x1402
    2470:	02000b05 	andeq	r0, r0, #5120	; 0x1400
    2474:	01060104 	tsteq	r6, r4, lsl #2
    2478:	02000905 	andeq	r0, r0, #81920	; 0x14000
    247c:	4b060104 	blmi	182894 <__bss_end__+0x17885c>
    2480:	02000f05 	andeq	r0, r0, #5, 30
    2484:	01060104 	tsteq	r6, r4, lsl #2
    2488:	02000d05 	andeq	r0, r0, #320	; 0x140
    248c:	2f060104 	svccs	0x00060104
    2490:	02000505 	andeq	r0, r0, #20971520	; 0x1400000
    2494:	01060104 	tsteq	r6, r4, lsl #2
    2498:	01000602 	tsteq	r0, r2, lsl #12
    249c:	0000c201 	andeq	ip, r0, r1, lsl #4
    24a0:	7e000300 	cdpvc	3, 0, cr0, cr0, cr0, {0}
    24a4:	02000000 	andeq	r0, r0, #0, 0
    24a8:	0d0efb01 	vstreq	d15, [lr, #-4]
    24ac:	01010100 	mrseq	r0, (UNDEF: 17)
    24b0:	00000001 	andeq	r0, r0, r1
    24b4:	01000001 	tsteq	r0, r1
    24b8:	696c2f2e 	stmdbvs	ip!, {r1, r2, r3, r5, r8, r9, sl, fp, sp}^
    24bc:	2f006362 	svccs	0x00006362
    24c0:	72657355 	rsbvc	r7, r5, #1409286145	; 0x54000001
    24c4:	72652f73 	rsbvc	r2, r5, #460	; 0x1cc
    24c8:	65626369 	strbvs	r6, [r2, #-873]!	; 0xfffffc97
    24cc:	442f7261 	strtmi	r7, [pc], #-609	; 24d4 <__code_start__-0x5b2c>
    24d0:	6d75636f 	ldclvs	3, cr6, [r5, #-444]!	; 0xfffffe44
    24d4:	73746e65 	cmnvc	r4, #1616	; 0x650
    24d8:	3153432f 	cmpcc	r3, pc, lsr #6
    24dc:	2f453034 	svccs	0x00453034
    24e0:	34317363 	ldrtcc	r7, [r1], #-867	; 0xfffffc9d
    24e4:	662d4530 			; <UNDEFINED> instruction: 0x662d4530
    24e8:	6c616e69 	stclvs	14, cr6, [r1], #-420	; 0xfffffe5c
    24ec:	6f72702d 	svcvs	0x0072702d
    24f0:	7463656a 	strbtvc	r6, [r3], #-1386	; 0xfffffa96
    24f4:	62696c2f 	rsbvs	r6, r9, #12032	; 0x2f00
    24f8:	34322d73 	ldrtcc	r2, [r2], #-3443	; 0xfffff28d
    24fc:	2f786c30 	svccs	0x00786c30
    2500:	7062696c 	rsbvc	r6, r2, ip, ror #18
    2504:	6e692f69 	cdpvs	15, 6, cr2, cr9, cr9, {3}
    2508:	64756c63 	ldrbtvs	r6, [r5], #-3171	; 0xfffff39d
    250c:	73000065 	movwvc	r0, #101	; 0x65
    2510:	6d637274 	sfmvs	f7, 2, [r3, #-464]!	; 0xfffffe30
    2514:	00632e70 	rsbeq	r2, r3, r0, ror lr
    2518:	72000001 	andvc	r0, r0, #1, 0
    251c:	682e6970 	stmdavs	lr!, {r4, r5, r6, r8, fp, sp, lr}
    2520:	00000200 	andeq	r0, r0, r0, lsl #4
    2524:	002a0500 	eoreq	r0, sl, r0, lsl #10
    2528:	92a40205 	adcls	r0, r4, #1342177280	; 0x50000000
    252c:	05140000 	ldreq	r0, [r4, #-0]
    2530:	0f051309 	svceq	0x00051309
    2534:	06100501 	ldreq	r0, [r0], -r1, lsl #10
    2538:	2e0f0501 	cfsh32cs	mvfx0, mvfx15, #1
    253c:	02001c05 	andeq	r1, r0, #1280	; 0x500
    2540:	054a0104 	strbeq	r0, [sl, #-260]	; 0xfffffefc
    2544:	04020013 	streq	r0, [r2], #-19	; 0xffffffed
    2548:	11052e01 	tstne	r5, r1, lsl #28
    254c:	16052f06 	strne	r2, [r5], -r6, lsl #30
    2550:	052e2e06 	streq	r2, [lr, #-3590]!	; 0xfffff1fa
    2554:	052f0609 	streq	r0, [pc, #-1545]!	; 1f53 <__code_start__-0x60ad>
    2558:	05010615 	streq	r0, [r1, #-1557]	; 0xfffff9eb
    255c:	04022f01 	streq	r2, [r2], #-3841	; 0xfffff0ff
    2560:	c0010100 	andgt	r0, r1, r0, lsl #2
    2564:	03000000 	movweq	r0, #0
    2568:	00007e00 	andeq	r7, r0, r0, lsl #28
    256c:	fb010200 	blx	42d76 <__bss_end__+0x38d3e>
    2570:	01000d0e 	tsteq	r0, lr, lsl #26
    2574:	00010101 	andeq	r0, r1, r1, lsl #2
    2578:	00010000 	andeq	r0, r1, r0
    257c:	2f2e0100 	svccs	0x002e0100
    2580:	6362696c 	cmnvs	r2, #108, 18	; 0x1b0000
    2584:	73552f00 	cmpvc	r5, #0, 30
    2588:	2f737265 	svccs	0x00737265
    258c:	63697265 	cmnvs	r9, #1342177286	; 0x50000006
    2590:	72616562 	rsbvc	r6, r1, #411041792	; 0x18800000
    2594:	636f442f 	cmnvs	pc, #788529152	; 0x2f000000
    2598:	6e656d75 	mcrvs	13, 3, r6, cr5, cr5, {3}
    259c:	432f7374 			; <UNDEFINED> instruction: 0x432f7374
    25a0:	30343153 	eorscc	r3, r4, r3, asr r1
    25a4:	73632f45 	cmnvc	r3, #276	; 0x114
    25a8:	45303431 	ldrmi	r3, [r0, #-1073]!	; 0xfffffbcf
    25ac:	6e69662d 	cdpvs	6, 6, cr6, cr9, cr13, {1}
    25b0:	702d6c61 	eorvc	r6, sp, r1, ror #24
    25b4:	656a6f72 	strbvs	r6, [sl, #-3954]!	; 0xfffff08e
    25b8:	6c2f7463 	cfstrsvs	mvf7, [pc], #-396	; 2434 <__code_start__-0x5bcc>
    25bc:	2d736269 	lfmcs	f6, 2, [r3, #-420]!	; 0xfffffe5c
    25c0:	6c303432 	cfldrsvs	mvf3, [r0], #-200	; 0xffffff38
    25c4:	696c2f78 	stmdbvs	ip!, {r3, r4, r5, r6, r8, r9, sl, fp, sp}^
    25c8:	2f697062 	svccs	0x00697062
    25cc:	6c636e69 	stclvs	14, cr6, [r3], #-420	; 0xfffffe5c
    25d0:	00656475 	rsbeq	r6, r5, r5, ror r4
    25d4:	72747300 	rsbsvc	r7, r4, #0, 6
    25d8:	2e797063 	cdpcs	0, 7, cr7, cr9, cr3, {3}
    25dc:	00010063 	andeq	r0, r1, r3, rrx
    25e0:	69707200 	ldmdbvs	r0!, {r9, ip, sp, lr}^
    25e4:	0200682e 	andeq	r6, r0, #3014656	; 0x2e0000
    25e8:	05000000 	streq	r0, [r0, #-0]
    25ec:	0205002a 	andeq	r0, r5, #42, 0	; 0x2a
    25f0:	000092d0 	ldrdeq	r9, [r0], -r0
    25f4:	13050514 	movwne	r0, #21780	; 0x5514
    25f8:	06140513 			; <UNDEFINED> instruction: 0x06140513
    25fc:	00220511 	eoreq	r0, r2, r1, lsl r5
    2600:	06010402 	streq	r0, [r1], -r2, lsl #8
    2604:	000b052f 	andeq	r0, fp, pc, lsr #10
    2608:	01010402 	tsteq	r1, r2, lsl #8
    260c:	02001505 	andeq	r1, r0, #20971520	; 0x1400000
    2610:	01060104 	tsteq	r6, r4, lsl #2
    2614:	02001305 	andeq	r1, r0, #335544320	; 0x14000000
    2618:	054a0104 	strbeq	r0, [sl, #-260]	; 0xfffffefc
    261c:	0402000b 	streq	r0, [r2], #-11
    2620:	06024a01 	streq	r4, [r2], -r1, lsl #20
    2624:	20010100 	andcs	r0, r1, r0, lsl #2
    2628:	03000001 	movweq	r0, #1
    262c:	0000e400 	andeq	lr, r0, r0, lsl #8
    2630:	fb010200 	blx	42e3a <__bss_end__+0x38e02>
    2634:	01000d0e 	tsteq	r0, lr, lsl #26
    2638:	00010101 	andeq	r0, r1, r1, lsl #2
    263c:	00010000 	andeq	r0, r1, r0
    2640:	2f2e0100 	svccs	0x002e0100
    2644:	6362696c 	cmnvs	r2, #108, 18	; 0x1b0000
    2648:	73552f00 	cmpvc	r5, #0, 30
    264c:	2f737265 	svccs	0x00737265
    2650:	63697265 	cmnvs	r9, #1342177286	; 0x50000006
    2654:	72616562 	rsbvc	r6, r1, #411041792	; 0x18800000
    2658:	636f442f 	cmnvs	pc, #788529152	; 0x2f000000
    265c:	6e656d75 	mcrvs	13, 3, r6, cr5, cr5, {3}
    2660:	432f7374 			; <UNDEFINED> instruction: 0x432f7374
    2664:	30343153 	eorscc	r3, r4, r3, asr r1
    2668:	73632f45 	cmnvc	r3, #276	; 0x114
    266c:	45303431 	ldrmi	r3, [r0, #-1073]!	; 0xfffffbcf
    2670:	6e69662d 	cdpvs	6, 6, cr6, cr9, cr13, {1}
    2674:	702d6c61 	eorvc	r6, sp, r1, ror #24
    2678:	656a6f72 	strbvs	r6, [sl, #-3954]!	; 0xfffff08e
    267c:	6c2f7463 	cfstrsvs	mvf7, [pc], #-396	; 24f8 <__code_start__-0x5b08>
    2680:	2d736269 	lfmcs	f6, 2, [r3, #-420]!	; 0xfffffe5c
    2684:	6c303432 	cfldrsvs	mvf3, [r0], #-200	; 0xffffff38
    2688:	696c2f78 	stmdbvs	ip!, {r3, r4, r5, r6, r8, r9, sl, fp, sp}^
    268c:	2f697062 	svccs	0x00697062
    2690:	6c636e69 	stclvs	14, cr6, [r3], #-420	; 0xfffffe5c
    2694:	00656475 	rsbeq	r6, r5, r5, ror r4
    2698:	7273752f 	rsbsvc	r7, r3, #197132288	; 0xbc00000
    269c:	636f6c2f 	cmnvs	pc, #12032	; 0x2f00
    26a0:	432f6c61 			; <UNDEFINED> instruction: 0x432f6c61
    26a4:	616c6c65 	cmnvs	ip, r5, ror #24
    26a8:	72612f72 	rsbvc	r2, r1, #456	; 0x1c8
    26ac:	6f6e2d6d 	svcvs	0x006e2d6d
    26b0:	652d656e 	strvs	r6, [sp, #-1390]!	; 0xfffffa92
    26b4:	2d696261 	sfmcs	f6, 2, [r9, #-388]!	; 0xfffffe7c
    26b8:	74736574 	ldrbtvc	r6, [r3], #-1396	; 0xfffffa8c
    26bc:	322d392f 	eorcc	r3, sp, #770048	; 0xbc000
    26c0:	71393130 	teqvc	r9, r0, lsr r1
    26c4:	73632d34 	cmnvc	r3, #52, 26	; 0xd00
    26c8:	65373031 	ldrvs	r3, [r7, #-49]!	; 0xffffffcf
    26cc:	62696c2f 	rsbvs	r6, r9, #12032	; 0x2f00
    26d0:	6363672f 	cmnvs	r3, #12320768	; 0xbc0000
    26d4:	6d72612f 	ldfvse	f6, [r2, #-188]!	; 0xffffff44
    26d8:	6e6f6e2d 	cdpvs	14, 6, cr6, cr15, cr13, {1}
    26dc:	61652d65 	cmnvs	r5, r5, ror #26
    26e0:	392f6962 	stmdbcc	pc!, {r1, r5, r6, r8, fp, sp, lr}	; <UNPREDICTABLE>
    26e4:	312e322e 			; <UNDEFINED> instruction: 0x312e322e
    26e8:	636e692f 	cmnvs	lr, #770048	; 0xbc000
    26ec:	6564756c 	strbvs	r7, [r4, #-1388]!	; 0xfffffa94
    26f0:	74730000 	ldrbtvc	r0, [r3], #-0
    26f4:	6d636e72 	stclvs	14, cr6, [r3, #-456]!	; 0xfffffe38
    26f8:	00632e70 	rsbeq	r2, r3, r0, ror lr
    26fc:	72000001 	andvc	r0, r0, #1, 0
    2700:	682e6970 	stmdavs	lr!, {r4, r5, r6, r8, fp, sp, lr}
    2704:	00000200 	andeq	r0, r0, r0, lsl #4
    2708:	64647473 	strbtvs	r7, [r4], #-1139	; 0xfffffb8d
    270c:	682e6665 	stmdavs	lr!, {r0, r2, r5, r6, r9, sl, sp, lr}
    2710:	00000300 	andeq	r0, r0, r0, lsl #6
    2714:	00390500 	eorseq	r0, r9, r0, lsl #10
    2718:	92f00205 	rscsls	r0, r0, #1342177280	; 0x50000000
    271c:	05150000 	ldreq	r0, [r5, #-0]
    2720:	05131305 	ldreq	r1, [r3, #-773]	; 0xfffffcfb
    2724:	0106010a 	tsteq	r6, sl, lsl #2
    2728:	0609054a 	streq	r0, [r9], -sl, asr #10
    272c:	060c052f 	streq	r0, [ip], -pc, lsr #10
    2730:	2e130501 	cfmul32cs	mvfx0, mvfx3, mvfx1
    2734:	052e0b05 	streq	r0, [lr, #-2821]!	; 0xfffff4fb
    2738:	054b060d 	strbeq	r0, [fp, #-1549]	; 0xfffff9f3
    273c:	2e01061b 	mcrcs	6, 0, r0, cr1, cr11, {0}
    2740:	05300c05 	ldreq	r0, [r0, #-3077]!	; 0xfffff3fb
    2744:	02022f01 	andeq	r2, r2, #1, 30
    2748:	af010100 	svcge	0x00010100
    274c:	03000000 	movweq	r0, #0
    2750:	00009300 	andeq	r9, r0, r0, lsl #6
    2754:	fb010200 	blx	42f5e <__bss_end__+0x38f26>
    2758:	01000d0e 	tsteq	r0, lr, lsl #26
    275c:	00010101 	andeq	r0, r1, r1, lsl #2
    2760:	00010000 	andeq	r0, r1, r0
    2764:	2f2e0100 	svccs	0x002e0100
    2768:	66617473 			; <UNDEFINED> instruction: 0x66617473
    276c:	72732d66 	rsbsvc	r2, r3, #6528	; 0x1980
    2770:	552f0063 	strpl	r0, [pc, #-99]!	; 2715 <__code_start__-0x58eb>
    2774:	73726573 	cmnvc	r2, #482344960	; 0x1cc00000
    2778:	6972652f 	ldmdbvs	r2!, {r0, r1, r2, r3, r5, r8, sl, sp, lr}^
    277c:	61656263 	cmnvs	r5, r3, ror #4
    2780:	6f442f72 	svcvs	0x00442f72
    2784:	656d7563 	strbvs	r7, [sp, #-1379]!	; 0xfffffa9d
    2788:	2f73746e 	svccs	0x0073746e
    278c:	34315343 	ldrtcc	r5, [r1], #-835	; 0xfffffcbd
    2790:	632f4530 			; <UNDEFINED> instruction: 0x632f4530
    2794:	30343173 	eorscc	r3, r4, r3, ror r1
    2798:	69662d45 	stmdbvs	r6!, {r0, r2, r6, r8, sl, fp, sp}^
    279c:	2d6c616e 	stfcse	f6, [ip, #-440]!	; 0xfffffe48
    27a0:	6a6f7270 	bvs	1bdf168 <__bss_end__+0x1bd5130>
    27a4:	2f746365 	svccs	0x00746365
    27a8:	7362696c 	cmnvc	r2, #108, 18	; 0x1b0000
    27ac:	3034322d 	eorscc	r3, r4, sp, lsr #4
    27b0:	6c2f786c 	stcvs	8, cr7, [pc], #-432	; 2608 <__code_start__-0x59f8>
    27b4:	69706269 	ldmdbvs	r0!, {r0, r3, r5, r6, r9, sp, lr}^
    27b8:	636e692f 	cmnvs	lr, #770048	; 0xbc000
    27bc:	6564756c 	strbvs	r7, [r4, #-1388]!	; 0xfffffa94
    27c0:	65640000 	strbvs	r0, [r4, #-0]!
    27c4:	6c756166 	ldfvse	f6, [r5], #-408	; 0xfffffe68
    27c8:	65722d74 	ldrbvs	r2, [r2, #-3444]!	; 0xfffff28c
    27cc:	746f6f62 	strbtvc	r6, [pc], #-3938	; 27d4 <__code_start__-0x582c>
    27d0:	6c61632d 	stclvs	3, cr6, [r1], #-180	; 0xffffff4c
    27d4:	74756f6c 	ldrbtvc	r6, [r5], #-3948	; 0xfffff094
    27d8:	0100632e 	tsteq	r0, lr, lsr #6
    27dc:	70720000 	rsbsvc	r0, r2, r0
    27e0:	00682e69 	rsbeq	r2, r8, r9, ror #28
    27e4:	00000002 	andeq	r0, r0, r2
    27e8:	05001b05 	streq	r1, [r0, #-2821]	; 0xfffff4fb
    27ec:	00931c02 	addseq	r1, r3, r2, lsl #24
    27f0:	1c051400 	cfstrsne	mvf1, [r5], {-0}
    27f4:	06010501 	streq	r0, [r1], -r1, lsl #10
    27f8:	00020201 	andeq	r0, r2, r1, lsl #4
    27fc:	Address 0x00000000000027fc is out of bounds.


Disassembly of section .debug_str:

00000000 <.debug_str>:
   0:	6d746f6e 	ldclvs	15, cr6, [r4, #-440]!	; 0xfffffe48
   4:	006e6961 	rsbeq	r6, lr, r1, ror #18
   8:	69736e75 	ldmdbvs	r3!, {r0, r2, r4, r5, r6, r9, sl, fp, sp, lr}^
   c:	64656e67 	strbtvs	r6, [r5], #-3687	; 0xfffff199
  10:	61686320 	cmnvs	r8, r0, lsr #6
  14:	6c630072 	stclvs	0, cr0, [r3], #-456	; 0xfffffe38
  18:	5f6e6165 	svcpl	0x006e6165
  1c:	6f626572 	svcvs	0x00626572
  20:	5f00746f 	svcpl	0x0000746f
  24:	6975625f 	ldmdbvs	r5!, {r0, r1, r2, r3, r4, r6, r9, sp, lr}^
  28:	6e69746c 	cdpvs	4, 6, cr7, cr9, cr12, {3}
  2c:	6d656d5f 	stclvs	13, cr6, [r5, #-380]!	; 0xfffffe84
  30:	00746573 	rsbseq	r6, r4, r3, ror r5
  34:	726f6873 	rsbvc	r6, pc, #7536640	; 0x730000
  38:	6e752074 	mrcvs	0, 3, r2, cr5, cr4, {3}
  3c:	6e676973 			; <UNDEFINED> instruction: 0x6e676973
  40:	69206465 	stmdbvs	r0!, {r0, r2, r5, r6, sl, sp, lr}
  44:	2f00746e 	svccs	0x0000746e
  48:	72657355 	rsbvc	r7, r5, #1409286145	; 0x54000001
  4c:	616a2f73 	smcvs	41715	; 0xa2f3
  50:	2f65696d 	svccs	0x0065696d
  54:	75636f44 	strbvc	r6, [r3, #-3908]!	; 0xfffff0bc
  58:	746e656d 	strbtvc	r6, [lr], #-1389	; 0xfffffa93
  5c:	53432f73 	movtpl	r2, #16243	; 0x3f73
  60:	45303431 	ldrmi	r3, [r0, #-1073]!	; 0xfffffbcf
  64:	3173632f 	cmncc	r3, pc, lsr #6
  68:	2d453034 	stclcs	0, cr3, [r5, #-208]	; 0xffffff30
  6c:	616e6966 	cmnvs	lr, r6, ror #18
  70:	72702d6c 	rsbsvc	r2, r0, #108, 26	; 0x1b00
  74:	63656a6f 	cmnvs	r5, #454656	; 0x6f000
  78:	65722f74 	ldrbvs	r2, [r2, #-3956]!	; 0xfffff08c
  7c:	6176656c 	cmnvs	r6, ip, ror #10
  80:	6c2d746e 	cfstrsvs	mvf7, [sp], #-440	; 0xfffffe48
  84:	2f736261 	svccs	0x00736261
  88:	7263696d 	rsbvc	r6, r3, #1785856	; 0x1b4000
  8c:	6f68706f 	svcvs	0x0068706f
  90:	632d656e 			; <UNDEFINED> instruction: 0x632d656e
  94:	30343273 	eorscc	r3, r4, r3, ror r2
  98:	312d786c 			; <UNDEFINED> instruction: 0x312d786c
  9c:	32692d37 	rsbcc	r2, r9, #3520	; 0xdc0
  a0:	6f632f73 	svcvs	0x00632f73
  a4:	47006564 	strmi	r6, [r0, -r4, ror #10]
  a8:	4320554e 			; <UNDEFINED> instruction: 0x4320554e
  ac:	39203939 	stmdbcc	r0!, {r0, r3, r4, r5, r8, fp, ip, sp}
  b0:	312e322e 			; <UNDEFINED> instruction: 0x312e322e
  b4:	31303220 	teqcc	r0, r0, lsr #4
  b8:	32303139 	eorscc	r3, r0, #1073741838	; 0x4000000e
  bc:	72282035 	eorvc	r2, r8, #53, 0	; 0x35
  c0:	61656c65 	cmnvs	r5, r5, ror #24
  c4:	20296573 	eorcs	r6, r9, r3, ror r5
  c8:	4d52415b 	ldfmie	f4, [r2, #-364]	; 0xfffffe94
  cc:	6d72612f 	ldfvse	f6, [r2, #-188]!	; 0xffffff44
  d0:	622d392d 	eorvs	r3, sp, #737280	; 0xb4000
  d4:	636e6172 	cmnvs	lr, #-2147483620	; 0x8000001c
  d8:	65722068 	ldrbvs	r2, [r2, #-104]!	; 0xffffff98
  dc:	69736976 	ldmdbvs	r3!, {r1, r2, r4, r5, r6, r8, fp, sp, lr}^
  e0:	32206e6f 	eorcc	r6, r0, #1776	; 0x6f0
  e4:	39353737 	ldmdbcc	r5!, {r0, r1, r2, r4, r5, r8, r9, sl, ip, sp}
  e8:	2d205d39 	stccs	13, cr5, [r0, #-228]!	; 0xffffff1c
  ec:	7570636d 	ldrbvc	r6, [r0, #-877]!	; 0xfffffc93
  f0:	6d72613d 	ldfvse	f6, [r2, #-244]!	; 0xffffff0c
  f4:	36373131 			; <UNDEFINED> instruction: 0x36373131
  f8:	2d667a6a 	vstmdbcs	r6!, {s15-s120}
  fc:	6d2d2073 	stcvs	0, cr2, [sp, #-460]!	; 0xfffffe34
 100:	656e7574 	strbvs	r7, [lr, #-1396]!	; 0xfffffa8c
 104:	6d72613d 	ldfvse	f6, [r2, #-244]!	; 0xffffff0c
 108:	36373131 			; <UNDEFINED> instruction: 0x36373131
 10c:	2d667a6a 	vstmdbcs	r6!, {s15-s120}
 110:	6d2d2073 	stcvs	0, cr2, [sp, #-460]!	; 0xfffffe34
 114:	616f6c66 	cmnvs	pc, r6, ror #24
 118:	62612d74 	rsbvs	r2, r1, #116, 26	; 0x1d00
 11c:	6f733d69 	svcvs	0x00733d69
 120:	2d207466 	cfstrscs	mvf7, [r0, #-408]!	; 0xfffffe68
 124:	6d72616d 	ldfvse	f6, [r2, #-436]!	; 0xfffffe4c
 128:	616d2d20 	cmnvs	sp, r0, lsr #26
 12c:	3d686372 	stclcc	3, cr6, [r8, #-456]!	; 0xfffffe38
 130:	766d7261 	strbtvc	r7, [sp], -r1, ror #4
 134:	207a6b36 	rsbscs	r6, sl, r6, lsr fp
 138:	6467672d 	strbtvs	r6, [r7], #-1837	; 0xfffff8d3
 13c:	4f2d2062 	svcmi	0x002d2062
 140:	732d2033 			; <UNDEFINED> instruction: 0x732d2033
 144:	673d6474 			; <UNDEFINED> instruction: 0x673d6474
 148:	3939756e 	ldmdbcc	r9!, {r1, r2, r3, r5, r6, r8, sl, ip, sp, lr}
 14c:	66662d20 	strbtvs	r2, [r6], -r0, lsr #26
 150:	73656572 	cmnvc	r5, #478150656	; 0x1c800000
 154:	646e6174 	strbtvs	r6, [lr], #-372	; 0xfffffe8c
 158:	00676e69 	rsbeq	r6, r7, r9, ror #28
 15c:	676e6f6c 	strbvs	r6, [lr, -ip, ror #30]!
 160:	6e6f6c20 	cdpvs	12, 6, cr6, cr15, cr0, {1}
 164:	6e752067 	cdpvs	0, 7, cr2, cr5, cr7, {3}
 168:	6e676973 			; <UNDEFINED> instruction: 0x6e676973
 16c:	69206465 	stmdbvs	r0!, {r0, r2, r5, r6, sl, sp, lr}
 170:	7400746e 	strvc	r7, [r0], #-1134	; 0xfffffb92
 174:	73747365 	cmnvc	r4, #-1811939327	; 0x94000001
 178:	662d342f 	strtvs	r3, [sp], -pc, lsr #8
 17c:	742d7466 	strtvc	r7, [sp], #-1126	; 0xfffffb9a
 180:	2e747365 	cdpcs	3, 7, cr7, cr4, cr5, {3}
 184:	66660063 	strbtvs	r0, [r6], -r3, rrx
 188:	69665f74 	stmdbvs	r6!, {r2, r4, r5, r6, r8, r9, sl, fp, ip, lr}^
 18c:	5f646578 	svcpl	0x00646578
 190:	74666663 	strbtvc	r6, [r6], #-1635	; 0xfffff99d
 194:	746e6900 	strbtvc	r6, [lr], #-2304	; 0xfffff700
 198:	745f3631 	ldrbvc	r3, [pc], #-1585	; 1a0 <__code_start__-0x7e60>
 19c:	6e6f6c00 	cdpvs	12, 6, cr6, cr15, cr0, {0}
 1a0:	6f6c2067 	svcvs	0x006c2067
 1a4:	6920676e 	stmdbvs	r0!, {r1, r2, r3, r5, r6, r8, r9, sl, sp, lr}
 1a8:	7200746e 	andvc	r7, r0, #1845493760	; 0x6e000000
 1ac:	705f6970 	subsvc	r6, pc, r0, ror r9	; <UNPREDICTABLE>
 1b0:	68637475 	stmdavs	r3!, {r0, r2, r4, r5, r6, sl, ip, sp, lr}^
 1b4:	73007261 	movwvc	r7, #609	; 0x261
 1b8:	74726f68 	ldrbtvc	r6, [r2], #-3944	; 0xfffff098
 1bc:	746e6920 	strbtvc	r6, [lr], #-2336	; 0xfffff6e0
 1c0:	616e6500 	cmnvs	lr, r0, lsl #10
 1c4:	5f656c62 	svcpl	0x00656c62
 1c8:	68636163 	stmdavs	r3!, {r0, r1, r5, r6, r8, sp, lr}^
 1cc:	6d630065 	stclvs	0, cr0, [r3, #-404]!	; 0xfffffe6c
 1d0:	6765725f 			; <UNDEFINED> instruction: 0x6765725f
 1d4:	00745f73 	rsbseq	r5, r4, r3, ror pc
 1d8:	5f533249 	svcpl	0x00533249
 1dc:	525f5343 	subspl	r5, pc, #201326593	; 0xc000001
 1e0:	524c4358 	subpl	r4, ip, #88, 6	; 0x60000001
 1e4:	53324900 	teqpl	r2, #0, 18
 1e8:	5f53435f 	svcpl	0x0053435f
 1ec:	43004e45 	movwmi	r4, #3653	; 0xe45
 1f0:	00415f53 	subeq	r5, r1, r3, asr pc
 1f4:	5f533249 	svcpl	0x00533249
 1f8:	5f435852 	svcpl	0x00435852
 1fc:	57314843 	ldrpl	r4, [r1, -r3, asr #16]!
 200:	555f4449 	ldrbpl	r4, [pc, #-1097]	; fffffdbf <__bss_end__+0xffff5d87>
 204:	6e690042 	cdpvs	0, 6, cr0, cr9, cr2, {2}
 208:	74735f74 	ldrbtvc	r5, [r3], #-3956	; 0xfffff08c
 20c:	4f4d0063 	svcmi	0x004d0063
 210:	415f4544 	cmpmi	pc, r4, asr #10
 214:	53324900 	teqpl	r2, #0, 18
 218:	4358525f 	cmpmi	r8, #-268435451	; 0xf0000005
 21c:	3148435f 	cmpcc	r8, pc, asr r3
 220:	5f534f50 	svcpl	0x00534f50
 224:	4900424c 	stmdbmi	r0, {r2, r3, r6, r9, lr}
 228:	525f5332 	subspl	r5, pc, #-939524096	; 0xc8000000
 22c:	435f4358 	cmpmi	pc, #88, 6	; 0x60000001
 230:	45573248 	ldrbmi	r3, [r7, #-584]	; 0xfffffdb8
 234:	72670058 	rsbvc	r0, r7, #88, 0	; 0x58
 238:	69007961 	stmdbvs	r0, {r0, r5, r6, r8, fp, ip, sp, lr}
 23c:	725f7332 	subsvc	r7, pc, #-939524096	; 0xc8000000
 240:	5f736765 	svcpl	0x00736765
 244:	50470074 	subpl	r0, r7, r4, ror r0
 248:	465f4f49 	ldrbmi	r4, [pc], -r9, asr #30
 24c:	5f434e55 	svcpl	0x00434e55
 250:	5054554f 	subspl	r5, r4, pc, asr #10
 254:	69005455 	stmdbvs	r0, {r0, r2, r4, r6, sl, ip, lr}
 258:	655f746e 	ldrbvs	r7, [pc, #-1134]	; fffffdf2 <__bss_end__+0xffff5dba>
 25c:	4350006e 	cmpmi	r0, #110, 0	; 0x6e
 260:	54435f4d 	strbpl	r5, [r3], #-3917	; 0xfffff0b3
 264:	70004c52 	andvc	r4, r0, r2, asr ip
 268:	635f6d63 	cmpvs	pc, #6336	; 0x18c0
 26c:	006c7274 	rsbeq	r7, ip, r4, ror r2
 270:	65646f6d 	strbvs	r6, [r4, #-3949]!	; 0xfffff093
 274:	53324900 	teqpl	r2, #0, 18
 278:	5f53435f 	svcpl	0x0053435f
 27c:	59425453 	stmdbpl	r2, {r0, r1, r4, r6, sl, ip, lr}^
 280:	4d435000 	stclmi	0, cr5, [r3, #-0]
 284:	5649445f 			; <UNDEFINED> instruction: 0x5649445f
 288:	73326900 	teqvc	r2, #0, 18
 28c:	4700632e 	strmi	r6, [r0, -lr, lsr #6]
 290:	5f4f4950 	svcpl	0x004f4950
 294:	434e5546 	movtmi	r5, #58694	; 0xe546
 298:	544c415f 	strbpl	r4, [ip], #-351	; 0xfffffea1
 29c:	50470031 	subpl	r0, r7, r1, lsr r0
 2a0:	465f4f49 	ldrbmi	r4, [pc], -r9, asr #30
 2a4:	5f434e55 	svcpl	0x00434e55
 2a8:	32544c41 	subscc	r4, r4, #16640	; 0x4100
 2ac:	49504700 	ldmdbmi	r0, {r8, r9, sl, lr}^
 2b0:	55465f4f 	strbpl	r5, [r6, #-3919]	; 0xfffff0b1
 2b4:	415f434e 	cmpmi	pc, lr, asr #6
 2b8:	0033544c 	eorseq	r5, r3, ip, asr #8
 2bc:	4f495047 	svcmi	0x00495047
 2c0:	4e55465f 	mrcmi	6, 2, r4, cr5, cr15, {2}
 2c4:	4c415f43 	mcrrmi	15, 4, r5, r1, cr3
 2c8:	47003454 	smlsdmi	r0, r4, r4, r3
 2cc:	5f4f4950 	svcpl	0x004f4950
 2d0:	434e5546 	movtmi	r5, #58694	; 0xe546
 2d4:	544c415f 	strbpl	r4, [ip], #-351	; 0xfffffea1
 2d8:	32690035 	rsbcc	r0, r9, #53, 0	; 0x35
 2dc:	65725f73 	ldrbvs	r5, [r2, #-3955]!	; 0xfffff08d
 2e0:	62007367 	andvs	r7, r0, #-1677721599	; 0x9c000001
 2e4:	735f7469 	cmpvc	pc, #1761607680	; 0x69000000
 2e8:	49007465 	stmdbmi	r0, {r0, r2, r5, r6, sl, ip, sp, lr}
 2ec:	525f5332 	subspl	r5, pc, #-939524096	; 0xc8000000
 2f0:	435f4358 	cmpmi	pc, #88, 6	; 0x60000001
 2f4:	49573248 	ldmdbmi	r7, {r3, r6, r9, ip, sp}^
 2f8:	42555f44 	subsmi	r5, r5, #68, 30	; 0x110
 2fc:	69626e00 	stmdbvs	r2!, {r9, sl, fp, sp, lr}^
 300:	62007374 	andvs	r7, r0, #116, 6	; 0xd0000001
 304:	5f737469 	svcpl	0x00737469
 308:	00726c63 	rsbseq	r6, r2, r3, ror #24
 30c:	5f746962 	svcpl	0x00746962
 310:	6f5f7369 	svcvs	0x005f7369
 314:	49006666 	stmdbmi	r0, {r1, r2, r5, r6, r9, sl, sp, lr}
 318:	435f5332 	cmpmi	pc, #-939524096	; 0xc8000000
 31c:	58525f53 	ldmdapl	r2, {r0, r1, r4, r6, r8, r9, sl, fp, ip, lr}^
 320:	00584553 	subseq	r4, r8, r3, asr r5
 324:	5f533249 	svcpl	0x00533249
 328:	5f435852 	svcpl	0x00435852
 32c:	50324843 	eorspl	r4, r2, r3, asr #16
 330:	555f534f 	ldrbpl	r5, [pc, #-847]	; ffffffe9 <__bss_end__+0xffff5fb1>
 334:	63700042 	cmnvs	r0, #66, 0	; 0x42
 338:	69645f6d 	stmdbvs	r4!, {r0, r2, r3, r5, r6, r8, r9, sl, fp, ip, lr}^
 33c:	32690076 	rsbcc	r0, r9, #118, 0	; 0x76
 340:	6e695f73 	mcrvs	15, 3, r5, cr9, cr3, {3}
 344:	5f007469 	svcpl	0x00007469
 348:	4e55465f 	mrcmi	6, 2, r4, cr5, cr15, {2}
 34c:	4f495443 	svcmi	0x00495443
 350:	005f5f4e 	subseq	r5, pc, lr, asr #30
 354:	5f533249 	svcpl	0x00533249
 358:	525f5343 	subspl	r5, pc, #201326593	; 0xc000001
 35c:	52524558 	subspl	r4, r2, #88, 10	; 0x16000000
 360:	54454700 	strbpl	r4, [r5], #-1792	; 0xfffff900
 364:	62003233 	andvs	r3, r0, #805306371	; 0x30000003
 368:	695f7469 	ldmdbvs	pc, {r0, r3, r5, r6, sl, ip, sp, lr}^	; <UNPREDICTABLE>
 36c:	6e6f5f73 	mcrvs	15, 3, r5, cr15, cr3, {3}
 370:	49504700 	ldmdbmi	r0, {r8, r9, sl, lr}^
 374:	55465f4f 	strbpl	r5, [r6, #-3919]	; 0xfffff0b1
 378:	415f434e 	cmpmi	pc, lr, asr #6
 37c:	0030544c 	eorseq	r5, r0, ip, asr #8
 380:	5f435852 	svcpl	0x00435852
 384:	32490041 	subcc	r0, r9, #65, 0	; 0x41
 388:	53435f53 	movtpl	r5, #16211	; 0x3f53
 38c:	4658525f 			; <UNDEFINED> instruction: 0x4658525f
 390:	5f4d4300 	svcpl	0x004d4300
 394:	5f676572 	svcpl	0x00676572
 398:	756c6176 	strbvc	r6, [ip, #-374]!	; 0xfffffe8a
 39c:	50470065 	subpl	r0, r7, r5, rrx
 3a0:	465f4f49 	ldrbmi	r4, [pc], -r9, asr #30
 3a4:	5f434e55 	svcpl	0x00434e55
 3a8:	55504e49 	ldrbpl	r4, [r0, #-3657]	; 0xfffff1b7
 3ac:	32490054 	subcc	r0, r9, #84, 0	; 0x54
 3b0:	53435f53 	movtpl	r5, #16211	; 0x3f53
 3b4:	5258525f 	subspl	r5, r8, #-268435451	; 0xf0000005
 3b8:	6e697500 	cdpvs	5, 6, cr7, cr9, cr0, {0}
 3bc:	5f323374 	svcpl	0x00323374
 3c0:	32490074 	subcc	r0, r9, #116, 0	; 0x74
 3c4:	4f4d5f53 	svcmi	0x004d5f53
 3c8:	465f4544 	ldrbmi	r4, [pc], -r4, asr #10
 3cc:	5f4e454c 	svcpl	0x004e454c
 3d0:	4900424c 	stmdbmi	r0, {r2, r3, r6, r9, lr}
 3d4:	435f5332 	cmpmi	pc, #-939524096	; 0xc8000000
 3d8:	58525f53 	ldmdapl	r2, {r0, r1, r4, r6, r8, r9, sl, fp, ip, lr}^
 3dc:	434e5953 	movtmi	r5, #59731	; 0xe953
 3e0:	74696200 	strbtvc	r6, [r9], #-512	; 0xfffffe00
 3e4:	65735f73 	ldrbvs	r5, [r3, #-3955]!	; 0xfffff08d
 3e8:	6d630074 	stclvs	0, cr0, [r3, #-464]!	; 0xfffffe30
 3ec:	6765725f 			; <UNDEFINED> instruction: 0x6765725f
 3f0:	32490073 	subcc	r0, r9, #115, 0	; 0x73
 3f4:	58525f53 	ldmdapl	r2, {r0, r1, r4, r6, r8, r9, sl, fp, ip, lr}^
 3f8:	48435f43 	stmdami	r3, {r0, r1, r6, r8, r9, sl, fp, ip, lr}^
 3fc:	004e4531 	subeq	r4, lr, r1, lsr r5
 400:	6f666966 	svcvs	0x00666966
 404:	53324900 	teqpl	r2, #0, 18
 408:	444f4d5f 	strbmi	r4, [pc], #-3423	; 410 <__code_start__-0x7bf0>
 40c:	53465f45 	movtpl	r5, #28485	; 0x6f45
 410:	5f4e454c 	svcpl	0x004e454c
 414:	4900424c 	stmdbmi	r0, {r2, r3, r6, r9, lr}
 418:	525f5332 	subspl	r5, pc, #-939524096	; 0xc8000000
 41c:	435f4358 	cmpmi	pc, #88, 6	; 0x60000001
 420:	49573148 	ldmdbmi	r7, {r3, r6, r8, ip, sp}^
 424:	424c5f44 	submi	r5, ip, #68, 30	; 0x110
 428:	53324900 	teqpl	r2, #0, 18
 42c:	5f53435f 	svcpl	0x0053435f
 430:	48545852 	ldmdami	r4, {r1, r4, r6, fp, ip, lr}^
 434:	424c5f52 	submi	r5, ip, #328	; 0x148
 438:	53324900 	teqpl	r2, #0, 18
 43c:	4358525f 	cmpmi	r8, #-268435451	; 0xf0000005
 440:	3248435f 	subcc	r4, r8, #2080374785	; 0x7c000001
 444:	49004e45 	stmdbmi	r0, {r0, r2, r6, r9, sl, fp, lr}
 448:	435f5332 	cmpmi	pc, #-939524096	; 0xc8000000
 44c:	59535f53 	ldmdbpl	r3, {r0, r1, r4, r6, r8, r9, sl, fp, ip, lr}^
 450:	4900434e 	stmdbmi	r0, {r1, r2, r3, r6, r8, r9, lr}
 454:	525f5332 	subspl	r5, pc, #-939524096	; 0xc8000000
 458:	435f4358 	cmpmi	pc, #88, 6	; 0x60000001
 45c:	49573248 	ldmdbmi	r7, {r3, r6, r9, ip, sp}^
 460:	424c5f44 	submi	r5, ip, #68, 30	; 0x110
 464:	76656400 	strbtvc	r6, [r5], -r0, lsl #8
 468:	7261625f 	rsbvc	r6, r1, #-268435451	; 0xf0000005
 46c:	72656972 	rsbvc	r6, r5, #1867776	; 0x1c8000
 470:	53324900 	teqpl	r2, #0, 18
 474:	4358525f 	cmpmi	r8, #-268435451	; 0xf0000005
 478:	3248435f 	subcc	r4, r8, #2080374785	; 0x7c000001
 47c:	5f534f50 	svcpl	0x00534f50
 480:	4900424c 	stmdbmi	r0, {r2, r3, r6, r9, lr}
 484:	435f5332 	cmpmi	pc, #-939524096	; 0xc8000000
 488:	58525f53 	ldmdapl	r2, {r0, r1, r4, r6, r8, r9, sl, fp, ip, lr}^
 48c:	72640044 	rsbvc	r0, r4, #68, 0	; 0x44
 490:	62007165 	andvs	r7, r0, #1073741849	; 0x40000019
 494:	5f737469 	svcpl	0x00737469
 498:	6b73616d 	blvs	1cd8a54 <__bss_end__+0x1ccea1c>
 49c:	53324900 	teqpl	r2, #0, 18
 4a0:	4358525f 	cmpmi	r8, #-268435451	; 0xf0000005
 4a4:	3148435f 	cmpcc	r8, pc, asr r3
 4a8:	00584557 	subseq	r4, r8, r7, asr r5
 4ac:	6f697067 	svcvs	0x00697067
 4b0:	7465735f 	strbtvc	r7, [r5], #-863	; 0xfffffca1
 4b4:	6e75665f 	mrcvs	6, 3, r6, cr5, cr15, {2}
 4b8:	6f697463 	svcvs	0x00697463
 4bc:	746f006e 	strbtvc	r0, [pc], #-110	; 4c4 <__code_start__-0x7b3c>
 4c0:	5f726568 	svcpl	0x00726568
 4c4:	73676572 	cmnvc	r7, #478150656	; 0x1c800000
 4c8:	54555000 	ldrbpl	r5, [r5], #-0
 4cc:	49003233 	stmdbmi	r0, {r0, r1, r4, r5, r9, ip, sp}
 4d0:	435f5332 	cmpmi	pc, #-939524096	; 0xc8000000
 4d4:	58525f53 	ldmdapl	r2, {r0, r1, r4, r6, r8, r9, sl, fp, ip, lr}^
 4d8:	69004e4f 	stmdbvs	r0, {r0, r1, r2, r3, r6, r9, sl, fp, lr}
 4dc:	725f7332 	subsvc	r7, pc, #-939524096	; 0xc8000000
 4e0:	5f646165 	svcpl	0x00646165
 4e4:	706d6173 	rsbvc	r6, sp, r3, ror r1
 4e8:	7400656c 	strvc	r6, [r0], #-1388	; 0xfffffa94
 4ec:	66635f78 	uqsub16vs	r5, r3, r8
 4f0:	70670067 	rsbvc	r0, r7, r7, rrx
 4f4:	735f6f69 	cmpvc	pc, #420	; 0x1a4
 4f8:	6f5f7465 	svcvs	0x005f7465
 4fc:	3249006e 	subcc	r0, r9, #110, 0	; 0x6e
 500:	53435f53 	movtpl	r5, #16211	; 0x3f53
 504:	5458525f 	ldrbpl	r5, [r8], #-607	; 0xfffffda1
 508:	555f5248 	ldrbpl	r5, [pc, #-584]	; 2c8 <__code_start__-0x7d38>
 50c:	32490042 	subcc	r0, r9, #66, 0	; 0x42
 510:	4f4d5f53 	svcmi	0x004d5f53
 514:	465f4544 	ldrbmi	r4, [pc], -r4, asr #10
 518:	4e454c53 	mcrmi	12, 2, r4, cr5, cr3, {2}
 51c:	0042555f 	subeq	r5, r2, pc, asr r5
 520:	635f7872 	cmpvs	pc, #7471104	; 0x720000
 524:	49006766 	stmdbmi	r0, {r1, r2, r5, r6, r8, r9, sl, sp, lr}
 528:	525f5332 	subspl	r5, pc, #-939524096	; 0xc8000000
 52c:	435f4358 	cmpmi	pc, #88, 6	; 0x60000001
 530:	4f503148 	svcmi	0x00503148
 534:	42555f53 	subsmi	r5, r5, #332	; 0x14c
 538:	46494600 	strbmi	r4, [r9], -r0, lsl #12
 53c:	00415f4f 	subeq	r5, r1, pc, asr #30
 540:	5f533249 	svcpl	0x00533249
 544:	45444f4d 	strbmi	r4, [r4, #-3917]	; 0xfffff0b3
 548:	454c465f 	strbmi	r4, [ip, #-1631]	; 0xfffff9a1
 54c:	42555f4e 	subsmi	r5, r5, #312	; 0x138
 550:	72756300 	rsbsvc	r6, r5, #0, 6
 554:	64695f72 	strbtvs	r5, [r9], #-3954	; 0xfffff08e
 558:	77730078 			; <UNDEFINED> instruction: 0x77730078
 55c:	695f7061 	ldmdbvs	pc, {r0, r5, r6, ip, sp, lr}^	; <UNPREDICTABLE>
 560:	74007864 	strvc	r7, [r0], #-2148	; 0xfffff79c
 564:	00706d65 	rsbseq	r6, r0, r5, ror #26
 568:	32676f6c 	rsbcc	r6, r7, #108, 30	; 0x1b0
 56c:	6e656c5f 	mcrvs	12, 3, r6, cr5, cr15, {2}
 570:	73616200 	cmnvc	r1, #0, 4
 574:	65725f65 	ldrbvs	r5, [r2, #-3941]!	; 0xfffff09b
 578:	69006c61 	stmdbvs	r0, {r0, r5, r6, sl, fp, sp, lr}
 57c:	7274735f 	rsbsvc	r7, r4, #2080374785	; 0x7c000001
 580:	00656469 	rsbeq	r6, r5, r9, ror #8
 584:	64697774 	strbtvs	r7, [r9], #-1908	; 0xfffff88c
 588:	616d695f 	cmnvs	sp, pc, asr r9
 58c:	6e690067 	cdpvs	0, 6, cr0, cr9, cr7, {3}
 590:	73726576 	cmnvc	r2, #494927872	; 0x1d800000
 594:	66660065 	strbtvs	r0, [r6], -r5, rrx
 598:	69665f74 	stmdbvs	r6!, {r2, r4, r5, r6, r8, r9, sl, fp, ip, lr}^
 59c:	5f646578 	svcpl	0x00646578
 5a0:	006c756d 	rsbeq	r7, ip, sp, ror #10
 5a4:	66696873 			; <UNDEFINED> instruction: 0x66696873
 5a8:	66660074 			; <UNDEFINED> instruction: 0x66660074
 5ac:	00632e74 	rsbeq	r2, r3, r4, ror lr
 5b0:	64697774 	strbtvs	r7, [r9], #-1908	; 0xfffff88c
 5b4:	6165725f 	cmnvs	r5, pc, asr r2
 5b8:	6f72006c 	svcvs	0x0072006c
 5bc:	00646e75 	rsbeq	r6, r4, r5, ror lr
 5c0:	6c616373 	stclvs	3, cr6, [r1], #-460	; 0xfffffe34
 5c4:	66660065 	strbtvs	r0, [r6], -r5, rrx
 5c8:	69665f74 	stmdbvs	r6!, {r2, r4, r5, r6, r8, r9, sl, fp, ip, lr}^
 5cc:	5f646578 	svcpl	0x00646578
 5d0:	74666672 	strbtvc	r6, [r6], #-1650	; 0xfffff98e
 5d4:	6d657400 	cfstrdvs	mvd7, [r5, #-0]
 5d8:	6d695f70 	stclvs	15, cr5, [r9, #-448]!	; 0xfffffe40
 5dc:	66006761 	strvs	r6, [r0], -r1, ror #14
 5e0:	665f7466 	ldrbvs	r7, [pc], -r6, ror #8
 5e4:	64657869 	strbtvs	r7, [r5], #-2153	; 0xfffff797
 5e8:	6c756d5f 	ldclvs	13, cr6, [r5], #-380	; 0xfffffe84
 5ec:	3531715f 	ldrcc	r7, [r1, #-351]!	; 0xfffffea1
 5f0:	676f6c00 	strbvs	r6, [pc, -r0, lsl #24]!
 5f4:	5f6a5f32 	svcpl	0x006a5f32
 5f8:	69727473 	ldmdbvs	r2!, {r0, r1, r4, r5, r6, sl, ip, sp, lr}^
 5fc:	63006564 	movwvs	r6, #1380	; 0x564
 600:	5f727275 	svcpl	0x00727275
 604:	67616d69 	strbvs	r6, [r1, -r9, ror #26]!
 608:	72756300 	rsbsvc	r6, r5, #0, 6
 60c:	46460072 			; <UNDEFINED> instruction: 0x46460072
 610:	49535f54 	ldmdbmi	r3, {r2, r4, r6, r8, r9, sl, fp, ip, lr}^
 614:	4c5f454e 	cfldr64mi	mvdx4, [pc], {78}	; 0x4e
 618:	74005455 	strvc	r5, [r0], #-1109	; 0xfffffbab
 61c:	5f706d65 	svcpl	0x00706d65
 620:	6c616572 	cfstr64vs	mvdx6, [r1], #-456	; 0xfffffe38
 624:	73616200 	cmnvc	r1, #0, 4
 628:	6d695f65 	stclvs	15, cr5, [r9, #-404]!	; 0xfffffe6c
 62c:	63006761 	movwvs	r6, #1889	; 0x761
 630:	5f727275 	svcpl	0x00727275
 634:	6c616572 	cfstr64vs	mvdx6, [r1], #-456	; 0xfffffe38
 638:	554e4700 	strbpl	r4, [lr, #-1792]	; 0xfffff900
 63c:	39394320 	ldmdbcc	r9!, {r5, r8, r9, lr}
 640:	322e3920 	eorcc	r3, lr, #32, 18	; 0x80000
 644:	3220312e 	eorcc	r3, r0, #-2147483637	; 0x8000000b
 648:	31393130 	teqcc	r9, r0, lsr r1
 64c:	20353230 	eorscs	r3, r5, r0, lsr r2
 650:	6c657228 	sfmvs	f7, 2, [r5], #-160	; 0xffffff60
 654:	65736165 	ldrbvs	r6, [r3, #-357]!	; 0xfffffe9b
 658:	415b2029 	cmpmi	fp, r9, lsr #32
 65c:	612f4d52 			; <UNDEFINED> instruction: 0x612f4d52
 660:	392d6d72 	pushcc	{r1, r4, r5, r6, r8, sl, fp, sp, lr}
 664:	6172622d 	cmnvs	r2, sp, lsr #4
 668:	2068636e 	rsbcs	r6, r8, lr, ror #6
 66c:	69766572 	ldmdbvs	r6!, {r1, r4, r5, r6, r8, sl, sp, lr}^
 670:	6e6f6973 			; <UNDEFINED> instruction: 0x6e6f6973
 674:	37373220 	ldrcc	r3, [r7, -r0, lsr #4]!
 678:	5d393935 			; <UNDEFINED> instruction: 0x5d393935
 67c:	636d2d20 	cmnvs	sp, #32, 26	; 0x800
 680:	613d7570 	teqvs	sp, r0, ror r5
 684:	31316d72 	teqcc	r1, r2, ror sp
 688:	7a6a3637 	bvc	1a8df6c <__bss_end__+0x1a83f34>
 68c:	20732d66 	rsbscs	r2, r3, r6, ror #26
 690:	75746d2d 	ldrbvc	r6, [r4, #-3373]!	; 0xfffff2d3
 694:	613d656e 	teqvs	sp, lr, ror #10
 698:	31316d72 	teqcc	r1, r2, ror sp
 69c:	7a6a3637 	bvc	1a8df80 <__bss_end__+0x1a83f48>
 6a0:	20732d66 	rsbscs	r2, r3, r6, ror #26
 6a4:	6c666d2d 	stclvs	13, cr6, [r6], #-180	; 0xffffff4c
 6a8:	2d74616f 	ldfcse	f6, [r4, #-444]!	; 0xfffffe44
 6ac:	3d696261 	sfmcc	f6, 2, [r9, #-388]!	; 0xfffffe7c
 6b0:	74666f73 	strbtvc	r6, [r6], #-3955	; 0xfffff08d
 6b4:	616d2d20 	cmnvs	sp, r0, lsr #26
 6b8:	2d206d72 	stccs	13, cr6, [r0, #-456]!	; 0xfffffe38
 6bc:	6372616d 	cmnvs	r2, #1073741851	; 0x4000001b
 6c0:	72613d68 	rsbvc	r3, r1, #104, 26	; 0x1a00
 6c4:	6b36766d 	blvs	d9e080 <__bss_end__+0xd94048>
 6c8:	672d207a 			; <UNDEFINED> instruction: 0x672d207a
 6cc:	20626467 	rsbcs	r6, r2, r7, ror #8
 6d0:	6467672d 	strbtvs	r6, [r7], #-1837	; 0xfffff8d3
 6d4:	4f2d2062 	svcmi	0x002d2062
 6d8:	4f2d2067 	svcmi	0x002d2067
 6dc:	732d2067 			; <UNDEFINED> instruction: 0x732d2067
 6e0:	673d6474 			; <UNDEFINED> instruction: 0x673d6474
 6e4:	3939756e 	ldmdbcc	r9!, {r1, r2, r3, r5, r6, r8, sl, ip, sp, lr}
 6e8:	74732d20 	ldrbtvc	r2, [r3], #-3360	; 0xfffff2e0
 6ec:	6e673d64 	cdpvs	13, 6, cr3, cr7, cr4, {3}
 6f0:	20393975 	eorscs	r3, r9, r5, ror r9
 6f4:	7266662d 	rsbvc	r6, r6, #47185920	; 0x2d00000
 6f8:	74736565 	ldrbtvc	r6, [r3], #-1381	; 0xfffffa9b
 6fc:	69646e61 	stmdbvs	r4!, {r0, r5, r6, r9, sl, fp, sp, lr}^
 700:	7300676e 	movwvc	r6, #1902	; 0x76e
 704:	5f657a69 	svcpl	0x00657a69
 708:	552f0074 	strpl	r0, [pc, #-116]!	; 69c <__code_start__-0x7964>
 70c:	73726573 	cmnvc	r2, #482344960	; 0x1cc00000
 710:	6972652f 	ldmdbvs	r2!, {r0, r1, r2, r3, r5, r8, sl, sp, lr}^
 714:	61656263 	cmnvs	r5, r3, ror #4
 718:	6f442f72 	svcvs	0x00442f72
 71c:	656d7563 	strbvs	r7, [sp, #-1379]!	; 0xfffffa9d
 720:	2f73746e 	svccs	0x0073746e
 724:	34315343 	ldrtcc	r5, [r1], #-835	; 0xfffffcbd
 728:	632f4530 			; <UNDEFINED> instruction: 0x632f4530
 72c:	30343173 	eorscc	r3, r4, r3, ror r1
 730:	69662d45 	stmdbvs	r6!, {r0, r2, r6, r8, sl, fp, sp}^
 734:	2d6c616e 	stfcse	f6, [ip, #-440]!	; 0xfffffe48
 738:	6a6f7270 	bvs	1bdd100 <__bss_end__+0x1bd30c8>
 73c:	2f746365 	svccs	0x00746365
 740:	7362696c 	cmnvc	r2, #108, 18	; 0x1b0000
 744:	3034322d 	eorscc	r3, r4, sp, lsr #4
 748:	6c2f786c 	stcvs	8, cr7, [pc], #-432	; 5a0 <__code_start__-0x7a60>
 74c:	69706269 	ldmdbvs	r0!, {r0, r3, r5, r6, r9, sp, lr}^
 750:	6c2f2e00 	stcvs	14, cr2, [pc], #-0	; 758 <__code_start__-0x78a8>
 754:	2f636269 	svccs	0x00636269
 758:	736d656d 	cmnvc	sp, #457179136	; 0x1b400000
 75c:	632e7465 			; <UNDEFINED> instruction: 0x632e7465
 760:	67726100 	ldrbvs	r6, [r2, -r0, lsl #2]!
 764:	61760073 	cmnvs	r6, r3, ror r0
 768:	6972705f 	ldmdbvs	r2!, {r0, r1, r2, r3, r4, r6, ip, sp, lr}^
 76c:	006b746e 	rsbeq	r7, fp, lr, ror #8
 770:	6e675f5f 	mcrvs	15, 3, r5, cr7, cr15, {2}
 774:	765f6375 			; <UNDEFINED> instruction: 0x765f6375
 778:	696c5f61 	stmdbvs	ip!, {r0, r5, r6, r8, r9, sl, fp, ip, lr}^
 77c:	5f007473 	svcpl	0x00007473
 780:	0070615f 	rsbseq	r6, r0, pc, asr r1
 784:	696c2f2e 	stmdbvs	ip!, {r1, r2, r3, r5, r8, r9, sl, fp, sp}^
 788:	702f6362 	eorvc	r6, pc, r2, ror #6
 78c:	746e6972 	strbtvc	r6, [lr], #-2418	; 0xfffff68e
 790:	00632e6b 	rsbeq	r2, r3, fp, ror #28
 794:	61765f5f 	cmnvs	r6, pc, asr pc
 798:	73696c5f 	cmnvc	r9, #24320	; 0x5f00
 79c:	6e690074 	mcrvs	0, 3, r0, cr9, cr4, {3}
 7a0:	6e726574 	mrcvs	5, 3, r6, cr2, cr4, {3}
 7a4:	705f6c61 	subsvc	r6, pc, r1, ror #24
 7a8:	006b7475 	rsbeq	r7, fp, r5, ror r4
 7ac:	696c2f2e 	stmdbvs	ip!, {r1, r2, r3, r5, r8, r9, sl, fp, sp}^
 7b0:	702f6362 	eorvc	r6, pc, r2, ror #6
 7b4:	2e6b7475 	mcrcs	4, 3, r7, cr11, cr5, {3}
 7b8:	73690063 	cmnvc	r9, #99, 0	; 0x63
 7bc:	69676964 	stmdbvs	r7!, {r2, r5, r6, r8, fp, sp, lr}^
 7c0:	69750074 	ldmdbvs	r5!, {r2, r4, r5, r6}^
 7c4:	3436746e 	ldrtcc	r7, [r6], #-1134	; 0xfffffb92
 7c8:	2e00745f 	cfmvsrcs	mvf0, r7
 7cc:	62696c2f 	rsbvs	r6, r9, #12032	; 0x2f00
 7d0:	61762f63 	cmnvs	r6, r3, ror #30
 7d4:	6972702d 	ldmdbvs	r2!, {r0, r2, r3, r5, ip, sp, lr}^
 7d8:	2e6b746e 	cdpcs	4, 6, cr7, cr11, cr14, {3}
 7dc:	5f5f0063 	svcpl	0x005f0063
 7e0:	65646f63 	strbvs	r6, [r4, #-3939]!	; 0xfffff09d
 7e4:	6174735f 	cmnvs	r4, pc, asr r3
 7e8:	5f5f7472 	svcpl	0x005f7472
 7ec:	625f5f00 	subsvs	r5, pc, #0, 30
 7f0:	735f7373 	cmpvc	pc, #-872415231	; 0xcc000001
 7f4:	74726174 	ldrbtvc	r6, [r2], #-372	; 0xfffffe8c
 7f8:	77005f5f 	smlsdvc	r0, pc, pc, r5	; <UNPREDICTABLE>
 7fc:	68746469 	ldmdavs	r4!, {r0, r3, r5, r6, sl, sp, lr}^
 800:	645f5f00 	ldrbvs	r5, [pc], #-3840	; 808 <__code_start__-0x77f8>
 804:	5f617461 	svcpl	0x00617461
 808:	5f646e65 	svcpl	0x00646e65
 80c:	7570005f 	ldrbvc	r0, [r0, #-95]!	; 0xffffffa1
 810:	665f6374 			; <UNDEFINED> instruction: 0x665f6374
 814:	5f5f0070 	svcpl	0x005f0070
 818:	5f737362 	svcpl	0x00737362
 81c:	5f646e65 	svcpl	0x00646e65
 820:	5f5f005f 	svcpl	0x005f005f
 824:	70616568 	rsbvc	r6, r1, r8, ror #10
 828:	6174735f 	cmnvs	r4, pc, asr r3
 82c:	5f5f7472 	svcpl	0x005f7472
 830:	69707200 	ldmdbvs	r0!, {r9, ip, sp, lr}^
 834:	7465735f 	strbtvc	r7, [r5], #-863	; 0xfffffca1
 838:	74756f5f 	ldrbtvc	r6, [r5], #-3935	; 0xfffff0a1
 83c:	00747570 	rsbseq	r7, r4, r0, ror r5
 840:	5f746d66 	svcpl	0x00746d66
 844:	72617473 	rsbvc	r7, r1, #1929379840	; 0x73000000
 848:	74730074 	ldrbtvc	r0, [r3], #-116	; 0xffffff8c
 84c:	79706372 	ldmdbvc	r0!, {r1, r4, r5, r6, r8, r9, sp, lr}^
 850:	67656e00 	strbvs	r6, [r5, -r0, lsl #28]!
 854:	6e00705f 	mcrvs	0, 0, r7, cr0, cr15, {2}
 858:	00316d75 	eorseq	r6, r1, r5, ror sp
 85c:	6f635f5f 	svcvs	0x00635f5f
 860:	655f6564 	ldrbvs	r6, [pc, #-1380]	; 304 <__code_start__-0x7cfc>
 864:	5f5f646e 	svcpl	0x005f646e
 868:	696d6500 	stmdbvs	sp!, {r8, sl, sp, lr}^
 86c:	75700074 	ldrbvc	r0, [r0, #-116]!	; 0xffffff8c
 870:	665f7374 			; <UNDEFINED> instruction: 0x665f7374
 874:	65720070 	ldrbvs	r0, [r2, #-112]!	; 0xffffff90
 878:	73726576 	cmnvc	r2, #494927872	; 0x1d800000
 87c:	74730065 	ldrbtvc	r0, [r3], #-101	; 0xffffff9b
 880:	74616372 	strbtvc	r6, [r1], #-882	; 0xfffffc8e
 884:	72747300 	rsbsvc	r7, r4, #0, 6
 888:	00706d63 	rsbseq	r6, r0, r3, ror #26
 88c:	61645f5f 	cmnvs	r4, pc, asr pc
 890:	735f6174 	cmpvc	pc, #29
 894:	74726174 	ldrbtvc	r6, [r2], #-372	; 0xfffffe8c
 898:	5f005f5f 	svcpl	0x00005f5f
 89c:	6f72705f 	svcvs	0x0072705f
 8a0:	6e655f67 	cdpvs	15, 6, cr5, cr5, cr7, {3}
 8a4:	005f5f64 	subseq	r5, pc, r4, ror #30
 8a8:	6e727473 	mrcvs	4, 3, r7, cr2, cr3, {3}
 8ac:	00706d63 	rsbseq	r6, r0, r3, ror #26
 8b0:	65736162 	ldrbvs	r6, [r3, #-354]!	; 0xfffffe9e
 8b4:	67697300 	strbvs	r7, [r9, -r0, lsl #6]!
 8b8:	5f64656e 	svcpl	0x0064656e
 8bc:	69640070 	stmdbvs	r4!, {r4, r5, r6}^
 8c0:	6c626173 	stfvse	f6, [r2], #-460	; 0xfffffe34
 8c4:	61635f65 	cmnvs	r3, r5, ror #30
 8c8:	00656863 	rsbeq	r6, r5, r3, ror #16
 8cc:	74732f2e 	ldrbtvc	r2, [r3], #-3886	; 0xfffff0d2
 8d0:	2d666661 	stclcs	6, cr6, [r6, #-388]!	; 0xfffffe7c
 8d4:	2f637273 	svccs	0x00637273
 8d8:	68636163 	stmdavs	r3!, {r0, r1, r5, r6, r8, sp, lr}^
 8dc:	00632e65 	rsbeq	r2, r3, r5, ror #28
 8e0:	5f697072 	svcpl	0x00697072
 8e4:	6f626572 	svcvs	0x00626572
 8e8:	6400746f 	strvs	r7, [r0], #-1135	; 0xfffffb91
 8ec:	79616c65 	stmdbvc	r1!, {r0, r2, r5, r6, sl, fp, sp, lr}^
 8f0:	00736d5f 	rsbseq	r6, r3, pc, asr sp
 8f4:	74732f2e 	ldrbtvc	r2, [r3], #-3886	; 0xfffff0d2
 8f8:	2d666661 	stclcs	6, cr6, [r6, #-388]!	; 0xfffffe7c
 8fc:	2f637273 	svccs	0x00637273
 900:	61656c63 	cmnvs	r5, r3, ror #24
 904:	65722d6e 	ldrbvs	r2, [r2, #-3438]!	; 0xfffff292
 908:	746f6f62 	strbtvc	r6, [pc], #-3938	; 910 <__code_start__-0x76f0>
 90c:	7500632e 	strvc	r6, [r0, #-814]	; 0xfffffcd2
 910:	5f747261 	svcpl	0x00747261
 914:	73756c66 	cmnvc	r5, #26112	; 0x6600
 918:	78745f68 	ldmdavc	r4!, {r3, r5, r6, r8, r9, sl, fp, ip, lr}^
 91c:	73635f00 	cmnvc	r3, #0, 30
 920:	74726174 	ldrbtvc	r6, [r2], #-372	; 0xfffffe8c
 924:	73736200 	cmnvc	r3, #0, 4
 928:	646e655f 	strbtvs	r6, [lr], #-1375	; 0xfffffaa1
 92c:	72617500 	rsbvc	r7, r1, #0, 10
 930:	6e695f74 	mcrvs	15, 3, r5, cr9, cr4, {3}
 934:	63007469 	movwvs	r7, #1129	; 0x469
 938:	6f747375 	svcvs	0x00747375
 93c:	6f6c5f6d 	svcvs	0x006c5f6d
 940:	72656461 	rsbvc	r6, r5, #1627389952	; 0x61000000
 944:	732f2e00 			; <UNDEFINED> instruction: 0x732f2e00
 948:	66666174 			; <UNDEFINED> instruction: 0x66666174
 94c:	6372732d 	cmnvs	r2, #-1275068416	; 0xb4000000
 950:	7473632f 	ldrbtvc	r6, [r3], #-815	; 0xfffffcd1
 954:	2e747261 	cdpcs	2, 7, cr7, cr4, cr1, {3}
 958:	2f2e0063 	svccs	0x002e0063
 95c:	66617473 			; <UNDEFINED> instruction: 0x66617473
 960:	72732d66 	rsbsvc	r2, r3, #6528	; 0x1980
 964:	75632f63 	strbvc	r2, [r3, #-3939]!	; 0xfffff09d
 968:	6d6f7473 	cfstrdvs	mvd7, [pc, #-460]!	; 7a4 <__code_start__-0x785c>
 96c:	616f6c2d 	cmnvs	pc, sp, lsr #24
 970:	2e726564 	cdpcs	5, 7, cr6, cr2, cr4, {3}
 974:	65720063 	ldrbvs	r0, [r2, #-99]!	; 0xffffff9d
 978:	746f6f62 	strbtvc	r6, [pc], #-3938	; 980 <__code_start__-0x7680>
 97c:	6c61635f 	stclvs	3, cr6, [r1], #-380	; 0xfffffe84
 980:	74756f6c 	ldrbtvc	r6, [r5], #-3948	; 0xfffff094
 984:	5f4d5000 	svcpl	0x004d5000
 988:	474f4457 	smlsldmi	r4, pc, r7, r4	; <UNPREDICTABLE>
 98c:	74657300 	strbtvc	r7, [r5], #-768	; 0xfffffd00
 990:	6573755f 	ldrbvs	r7, [r3, #-1375]!	; 0xfffffaa1
 994:	656c5f72 	strbvs	r5, [ip, #-3954]!	; 0xfffff08e
 998:	006c6576 	rsbeq	r6, ip, r6, ror r5
 99c:	74732f2e 	ldrbtvc	r2, [r3], #-3886	; 0xfffff0d2
 9a0:	2d666661 	stclcs	6, cr6, [r6, #-388]!	; 0xfffffe7c
 9a4:	2f637273 	svccs	0x00637273
 9a8:	6f626572 	svcvs	0x00626572
 9ac:	632e746f 			; <UNDEFINED> instruction: 0x632e746f
 9b0:	5f4d5000 	svcpl	0x004d5000
 9b4:	53534150 	cmppl	r3, #20
 9b8:	44524f57 	ldrbmi	r4, [r2], #-3927	; 0xfffff0a9
 9bc:	5f746100 	svcpl	0x00746100
 9c0:	72657375 	rsbvc	r7, r5, #-738197503	; 0xd4000001
 9c4:	76656c5f 			; <UNDEFINED> instruction: 0x76656c5f
 9c8:	50006c65 	andpl	r6, r0, r5, ror #24
 9cc:	53525f4d 	cmppl	r2, #308	; 0x134
 9d0:	575f4354 			; <UNDEFINED> instruction: 0x575f4354
 9d4:	47464352 	smlsldmi	r4, r6, r2, r3
 9d8:	4c55465f 	mrrcmi	6, 5, r4, r5, cr15
 9dc:	45525f4c 	ldrbmi	r5, [r2, #-3916]	; 0xfffff0b4
 9e0:	00544553 	subseq	r4, r4, r3, asr r5
 9e4:	525f4d50 	subspl	r4, pc, #80, 26	; 0x1400
 9e8:	00435453 	subeq	r5, r3, r3, asr r4
 9ec:	72737063 	rsbsvc	r7, r3, #99, 0	; 0x63
 9f0:	6c656400 	cfstrdvs	mvd6, [r5], #-0
 9f4:	735f7961 	cmpvc	pc, #1589248	; 0x184000
 9f8:	2e006365 	cdpcs	3, 0, cr6, cr0, cr5, {3}
 9fc:	6174732f 	cmnvs	r4, pc, lsr #6
 a00:	732d6666 			; <UNDEFINED> instruction: 0x732d6666
 a04:	742f6372 	strtvc	r6, [pc], #-882	; a0c <__code_start__-0x75f4>
 a08:	72656d69 	rsbvc	r6, r5, #6720	; 0x1a40
 a0c:	7400632e 	strvc	r6, [r0], #-814	; 0xfffffcd2
 a10:	72656d69 	rsbvc	r6, r5, #6720	; 0x1a40
 a14:	7465675f 	strbtvc	r6, [r5], #-1887	; 0xfffff8a1
 a18:	6573755f 	ldrbvs	r7, [r3, #-1375]!	; 0xfffffaa1
 a1c:	65640063 	strbvs	r0, [r4, #-99]!	; 0xffffff9d
 a20:	5f79616c 	svcpl	0x0079616c
 a24:	74007375 	strvc	r7, [r0], #-885	; 0xfffffc8b
 a28:	72656d69 	rsbvc	r6, r5, #6720	; 0x1a40
 a2c:	7465675f 	strbtvc	r6, [r5], #-1887	; 0xfffff8a1
 a30:	6573755f 	ldrbvs	r7, [r3, #-1375]!	; 0xfffffaa1
 a34:	61725f63 	cmnvs	r2, r3, ror #30
 a38:	70670077 	rsbvc	r0, r7, r7, ror r0
 a3c:	635f6f69 	cmpvs	pc, #420	; 0x1a4
 a40:	0030726c 	eorseq	r7, r0, ip, ror #4
 a44:	6f697067 	svcvs	0x00697067
 a48:	7465735f 	strbtvc	r7, [r5], #-863	; 0xfffffca1
 a4c:	70670030 	rsbvc	r0, r7, r0, lsr r0
 a50:	775f6f69 	ldrbvc	r6, [pc, -r9, ror #30]
 a54:	65746972 	ldrbvs	r6, [r4, #-2418]!	; 0xfffff68e
 a58:	56454400 	strbpl	r4, [r5], -r0, lsl #8
 a5c:	4c41565f 	mcrrmi	6, 5, r5, r1, cr15
 a60:	67003233 	smladxvs	r0, r3, r2, r3
 a64:	5f6f6970 	svcpl	0x006f6970
 a68:	64616572 	strbtvs	r6, [r1], #-1394	; 0xfffffa8e
 a6c:	69706700 	ldmdbvs	r0!, {r8, r9, sl, sp, lr}^
 a70:	65735f6f 	ldrbvs	r5, [r3, #-3951]!	; 0xfffff091
 a74:	6e695f74 	mcrvs	15, 3, r5, cr9, cr4, {3}
 a78:	00747570 	rsbseq	r7, r4, r0, ror r5
 a7c:	6d6f682f 	stclvs	8, cr6, [pc, #-188]!	; 9c8 <__code_start__-0x7638>
 a80:	6e652f65 	cdpvs	15, 6, cr2, cr5, cr5, {3}
 a84:	72656c67 	rsbvc	r6, r5, #26368	; 0x6700
 a88:	616c632f 	cmnvs	ip, pc, lsr #6
 a8c:	632f7373 			; <UNDEFINED> instruction: 0x632f7373
 a90:	30343273 	eorscc	r3, r4, r3, ror r2
 a94:	322d786c 	eorcc	r7, sp, #108, 16	; 0x6c0000
 a98:	72707332 	rsbsvc	r7, r0, #-939524096	; 0xc8000000
 a9c:	62696c2f 	rsbvs	r6, r9, #12032	; 0x2f00
 aa0:	732f6970 			; <UNDEFINED> instruction: 0x732f6970
 aa4:	66666174 			; <UNDEFINED> instruction: 0x66666174
 aa8:	6972702d 	ldmdbvs	r2!, {r0, r2, r3, r5, ip, sp, lr}^
 aac:	65746176 	ldrbvs	r6, [r4, #-374]!	; 0xfffffe8a
 ab0:	69706700 	ldmdbvs	r0!, {r8, r9, sl, sp, lr}^
 ab4:	65735f6f 	ldrbvs	r5, [r3, #-3951]!	; 0xfffff091
 ab8:	666f5f74 	uqsub16vs	r5, pc, r4	; <UNPREDICTABLE>
 abc:	70670066 	rsbvc	r0, r7, r6, rrx
 ac0:	735f6f69 	cmpvc	pc, #420	; 0x1a4
 ac4:	6f5f7465 	svcvs	0x005f7465
 ac8:	75707475 	ldrbvc	r7, [r0, #-1141]!	; 0xfffffb8b
 acc:	75660074 	strbvc	r0, [r6, #-116]!	; 0xffffff8c
 ad0:	6700636e 	strvs	r6, [r0, -lr, ror #6]
 ad4:	5f6f6970 	svcpl	0x006f6970
 ad8:	636e7566 	cmnvs	lr, #427819008	; 0x19800000
 adc:	4700745f 	smlsdmi	r0, pc, r4, r7	; <UNPREDICTABLE>
 ae0:	4320554e 			; <UNDEFINED> instruction: 0x4320554e
 ae4:	31203939 			; <UNDEFINED> instruction: 0x31203939
 ae8:	2e332e30 	mrccs	14, 1, r2, cr3, cr0, {1}
 aec:	30322031 	eorscc	r2, r2, r1, lsr r0
 af0:	38303132 	ldmdacc	r0!, {r1, r4, r5, r8, ip, sp}
 af4:	28203432 	stmdacs	r0!, {r1, r4, r5, sl, ip, sp}
 af8:	656c6572 	strbvs	r6, [ip, #-1394]!	; 0xfffffa8e
 afc:	29657361 	stmdbcs	r5!, {r0, r5, r6, r8, r9, ip, sp, lr}^
 b00:	636d2d20 	cmnvs	sp, #32, 26	; 0x800
 b04:	613d7570 	teqvs	sp, r0, ror r5
 b08:	31316d72 	teqcc	r1, r2, ror sp
 b0c:	7a6a3637 	bvc	1a8e3f0 <__bss_end__+0x1a843b8>
 b10:	20732d66 	rsbscs	r2, r3, r6, ror #26
 b14:	75746d2d 	ldrbvc	r6, [r4, #-3373]!	; 0xfffff2d3
 b18:	613d656e 	teqvs	sp, lr, ror #10
 b1c:	31316d72 	teqcc	r1, r2, ror sp
 b20:	7a6a3637 	bvc	1a8e404 <__bss_end__+0x1a843cc>
 b24:	20732d66 	rsbscs	r2, r3, r6, ror #26
 b28:	6c666d2d 	stclvs	13, cr6, [r6], #-180	; 0xffffff4c
 b2c:	2d74616f 	ldfcse	f6, [r4, #-444]!	; 0xfffffe44
 b30:	3d696261 	sfmcc	f6, 2, [r9, #-388]!	; 0xfffffe7c
 b34:	74666f73 	strbtvc	r6, [r6], #-3955	; 0xfffff08d
 b38:	616d2d20 	cmnvs	sp, r0, lsr #26
 b3c:	2d206d72 	stccs	13, cr6, [r0, #-456]!	; 0xfffffe38
 b40:	6372616d 	cmnvs	r2, #1073741851	; 0x4000001b
 b44:	72613d68 	rsbvc	r3, r1, #104, 26	; 0x1a00
 b48:	6b36766d 	blvs	d9e504 <__bss_end__+0xd944cc>
 b4c:	672d207a 			; <UNDEFINED> instruction: 0x672d207a
 b50:	20626467 	rsbcs	r6, r2, r7, ror #8
 b54:	20674f2d 	rsbcs	r4, r7, sp, lsr #30
 b58:	6474732d 	ldrbtvs	r7, [r4], #-813	; 0xfffffcd3
 b5c:	756e673d 	strbvc	r6, [lr, #-1853]!	; 0xfffff8c3
 b60:	2d203939 			; <UNDEFINED> instruction: 0x2d203939
 b64:	65726666 	ldrbvs	r6, [r2, #-1638]!	; 0xfffff99a
 b68:	61747365 	cmnvs	r4, r5, ror #6
 b6c:	6e69646e 	cdpvs	4, 6, cr6, cr9, cr14, {3}
 b70:	70670067 	rsbvc	r0, r7, r7, rrx
 b74:	6c5f6f69 	mrrcvs	15, 6, r6, pc, cr9	; <UNPREDICTABLE>
 b78:	00307665 	eorseq	r7, r0, r5, ror #12
 b7c:	6b6e6162 	blvs	1b9910c <__bss_end__+0x1b8f0d4>
 b80:	69706700 	ldmdbvs	r0!, {r8, r9, sl, sp, lr}^
 b84:	00632e6f 	rsbeq	r2, r3, pc, ror #28
 b88:	33747570 	cmncc	r4, #112, 10	; 0x1c000000
 b8c:	61620032 	cmnvs	r2, r2, lsr r0
 b90:	765f6475 			; <UNDEFINED> instruction: 0x765f6475
 b94:	73006c61 	movwvc	r6, #3169	; 0xc61
 b98:	00746174 	rsbseq	r6, r4, r4, ror r1
 b9c:	74726175 	ldrbtvc	r6, [r2], #-373	; 0xfffffe8b
 ba0:	6e61635f 	mcrvs	3, 3, r6, cr1, cr15, {2}
 ba4:	7465675f 	strbtvc	r6, [r5], #-1887	; 0xfffff8a1
 ba8:	75610063 	strbvc	r0, [r1, #-99]!	; 0xffffff9d
 bac:	65705f78 	ldrbvs	r5, [r0, #-3960]!	; 0xfffff088
 bb0:	68706972 	ldmdavs	r0!, {r1, r4, r5, r6, r8, fp, sp, lr}^
 bb4:	61750073 	cmnvs	r5, r3, ror r0
 bb8:	632e7472 			; <UNDEFINED> instruction: 0x632e7472
 bbc:	72617500 	rsbvc	r7, r1, #0, 10
 bc0:	61635f74 	smcvs	13812	; 0x35f4
 bc4:	75705f6e 	ldrbvc	r5, [r0, #-3950]!	; 0xfffff092
 bc8:	61006374 	tstvs	r0, r4, ror r3
 bcc:	00726464 	rsbseq	r6, r2, r4, ror #8
 bd0:	74726175 	ldrbtvc	r6, [r2], #-373	; 0xfffffe8b
 bd4:	5f78745f 	svcpl	0x0078745f
 bd8:	655f7369 	ldrbvs	r7, [pc, #-873]	; 877 <__code_start__-0x7789>
 bdc:	7974706d 	ldmdbvc	r4!, {r0, r2, r3, r5, r6, ip, sp, lr}^
 be0:	75616200 	strbvc	r6, [r1, #-512]!	; 0xfffffe00
 be4:	75610064 	strbvc	r0, [r1, #-100]!	; 0xffffff9c
 be8:	6e655f78 	mcrvs	15, 3, r5, cr5, cr8, {3}
 bec:	656c6261 	strbvs	r6, [ip, #-609]!	; 0xfffffd9f
 bf0:	61750073 	cmnvs	r5, r3, ror r0
 bf4:	675f7472 			; <UNDEFINED> instruction: 0x675f7472
 bf8:	00637465 	rsbeq	r7, r3, r5, ror #8
 bfc:	6c746e63 	ldclvs	14, cr6, [r4], #-396	; 0xfffffe74
 c00:	72617500 	rsbvc	r7, r1, #0, 10
 c04:	69645f74 	stmdbvs	r4!, {r2, r4, r5, r6, r8, r9, sl, fp, ip, lr}^
 c08:	6c626173 	stfvse	f6, [r2], #-460	; 0xfffffe34
 c0c:	61750065 	cmnvs	r5, r5, rrx
 c10:	685f7472 	ldmdavs	pc, {r1, r4, r5, r6, sl, ip, sp, lr}^	; <UNPREDICTABLE>
 c14:	645f7361 	ldrbvs	r7, [pc], #-865	; c1c <__code_start__-0x73e4>
 c18:	00617461 	rsbeq	r7, r1, r1, ror #8
 c1c:	695f726f 	ldmdbvs	pc, {r0, r1, r2, r3, r5, r6, r9, ip, sp, lr}^	; <UNPREDICTABLE>
 c20:	0032336e 	eorseq	r3, r2, lr, ror #6
 c24:	61726373 	cmnvs	r2, r3, ror r3
 c28:	00686374 	rsbeq	r6, r8, r4, ror r3
 c2c:	74726175 	ldrbtvc	r6, [r2], #-373	; 0xfffffe8b
 c30:	646e6100 	strbtvs	r6, [lr], #-256	; 0xffffff00
 c34:	336e695f 	cmncc	lr, #1556480	; 0x17c000
 c38:	61750032 	cmnvs	r5, r2, lsr r0
 c3c:	705f7472 	subsvc	r7, pc, r2, ror r4	; <UNPREDICTABLE>
 c40:	00637475 	rsbeq	r7, r3, r5, ror r4
 c44:	33746567 	cmncc	r4, #432013312	; 0x19c00000
 c48:	6e690032 	mcrvs	0, 3, r0, cr9, cr2, {1}
 c4c:	6e726574 	mrcvs	5, 3, r6, cr2, cr4, {3}
 c50:	705f6c61 	subsvc	r6, pc, r1, ror #24
 c54:	68637475 	stmdavs	r3!, {r0, r2, r4, r5, r6, sl, ip, sp, lr}^
 c58:	72007261 	andvc	r7, r0, #268435462	; 0x10000006
 c5c:	735f6970 	cmpvc	pc, #112, 18	; 0x1c0000
 c60:	705f7465 	subsvc	r7, pc, r5, ror #8
 c64:	00637475 	rsbeq	r7, r3, r5, ror r4
 c68:	696c2f2e 	stmdbvs	ip!, {r1, r2, r3, r5, r8, r9, sl, fp, sp}^
 c6c:	702f6362 	eorvc	r6, pc, r2, ror #6
 c70:	68637475 	stmdavs	r3!, {r0, r2, r4, r5, r6, sl, ip, sp, lr}^
 c74:	632e7261 			; <UNDEFINED> instruction: 0x632e7261
 c78:	69707200 	ldmdbvs	r0!, {r9, ip, sp, lr}^
 c7c:	7365725f 	cmnvc	r5, #-268435451	; 0xf0000005
 c80:	705f7465 	subsvc	r7, pc, r5, ror #8
 c84:	00637475 	rsbeq	r7, r3, r5, ror r4
 c88:	74736564 	ldrbtvc	r6, [r3], #-1380	; 0xfffffa9c
 c8c:	6c2f2e00 	stcvs	14, cr2, [pc], #-0	; c94 <__code_start__-0x736c>
 c90:	2f636269 	svccs	0x00636269
 c94:	63727473 	cmnvs	r2, #1929379840	; 0x73000000
 c98:	632e7461 			; <UNDEFINED> instruction: 0x632e7461
 c9c:	6c2f2e00 	stcvs	14, cr2, [pc], #-0	; ca4 <__code_start__-0x735c>
 ca0:	2f636269 	svccs	0x00636269
 ca4:	63727473 	cmnvs	r2, #1929379840	; 0x73000000
 ca8:	632e706d 			; <UNDEFINED> instruction: 0x632e706d
 cac:	6c2f2e00 	stcvs	14, cr2, [pc], #-0	; cb4 <__code_start__-0x734c>
 cb0:	2f636269 	svccs	0x00636269
 cb4:	63727473 	cmnvs	r2, #1929379840	; 0x73000000
 cb8:	632e7970 			; <UNDEFINED> instruction: 0x632e7970
 cbc:	6c2f2e00 	stcvs	14, cr2, [pc], #-0	; cc4 <__code_start__-0x733c>
 cc0:	2f636269 	svccs	0x00636269
 cc4:	6e727473 	mrcvs	4, 3, r7, cr2, cr3, {3}
 cc8:	2e706d63 	cdpcs	13, 7, cr6, cr0, cr3, {3}
 ccc:	2f2e0063 	svccs	0x002e0063
 cd0:	66617473 			; <UNDEFINED> instruction: 0x66617473
 cd4:	72732d66 	rsbsvc	r2, r3, #6528	; 0x1980
 cd8:	65642f63 	strbvs	r2, [r4, #-3939]!	; 0xfffff09d
 cdc:	6c756166 	ldfvse	f6, [r5], #-408	; 0xfffffe68
 ce0:	65722d74 	ldrbvs	r2, [r2, #-3444]!	; 0xfffff28c
 ce4:	746f6f62 	strbtvc	r6, [pc], #-3938	; cec <__code_start__-0x7314>
 ce8:	6c61632d 	stclvs	3, cr6, [r1], #-180	; 0xffffff4c
 cec:	74756f6c 	ldrbtvc	r6, [r5], #-3948	; 0xfffff094
 cf0:	Address 0x0000000000000cf0 is out of bounds.


Disassembly of section .debug_frame:

00000000 <.debug_frame>:
   0:	0000000c 	andeq	r0, r0, ip
   4:	ffffffff 			; <UNDEFINED> instruction: 0xffffffff
   8:	7c020001 	stcvc	0, cr0, [r2], {1}
   c:	000d0c0e 	andeq	r0, sp, lr, lsl #24
  10:	00000020 	andeq	r0, r0, r0, lsr #32
  14:	00000000 	andeq	r0, r0, r0
  18:	00008038 	andeq	r8, r0, r8, lsr r0
  1c:	00000128 	andeq	r0, r0, r8, lsr #2
  20:	841c0e42 	ldrhi	r0, [ip], #-3650	; 0xfffff1be
  24:	86068507 	strhi	r8, [r6], -r7, lsl #10
  28:	88048705 	stmdahi	r4, {r0, r2, r8, r9, sl, pc}
  2c:	8e028903 	vmlahi.f16	s16, s4, s6	; <UNPREDICTABLE>
  30:	600e4201 	andvs	r4, lr, r1, lsl #4
  34:	0000000c 	andeq	r0, r0, ip
  38:	ffffffff 			; <UNDEFINED> instruction: 0xffffffff
  3c:	7c020001 	stcvc	0, cr0, [r2], {1}
  40:	000d0c0e 	andeq	r0, sp, lr, lsl #24
  44:	00000014 	andeq	r0, r0, r4, lsl r0
  48:	00000034 	andeq	r0, r0, r4, lsr r0
  4c:	00008160 	andeq	r8, r0, r0, ror #2
  50:	00000038 	andeq	r0, r0, r8, lsr r0
  54:	8e040e42 	cdphi	14, 0, cr0, cr4, cr2, {2}
  58:	100e4401 	andne	r4, lr, r1, lsl #8
  5c:	0000000c 	andeq	r0, r0, ip
  60:	00000034 	andeq	r0, r0, r4, lsr r0
  64:	00008198 	muleq	r0, r8, r1
  68:	00000008 	andeq	r0, r0, r8
  6c:	00000024 	andeq	r0, r0, r4, lsr #32
  70:	00000034 	andeq	r0, r0, r4, lsr r0
  74:	000081a0 	andeq	r8, r0, r0, lsr #3
  78:	00000160 	andeq	r0, r0, r0, ror #2
  7c:	84080e42 	strhi	r0, [r8], #-3650	; 0xfffff1be
  80:	44018e02 	strmi	r8, [r1], #-3586	; 0xfffff1fe
  84:	8002100e 	andhi	r1, r2, lr
  88:	42080e0a 	andmi	r0, r8, #160	; 0xa0
  8c:	000ec4ce 	andeq	ip, lr, lr, asr #9
  90:	00000b42 	andeq	r0, r0, r2, asr #22
  94:	00000018 	andeq	r0, r0, r8, lsl r0
  98:	00000034 	andeq	r0, r0, r4, lsr r0
  9c:	00008300 	andeq	r8, r0, r0, lsl #6
  a0:	00000030 	andeq	r0, r0, r0, lsr r0
  a4:	84080e42 	strhi	r0, [r8], #-3650	; 0xfffff1be
  a8:	4e018e02 	cdpmi	14, 0, cr8, cr1, cr2, {0}
  ac:	000ec4ce 	andeq	ip, lr, lr, asr #9
  b0:	0000000c 	andeq	r0, r0, ip
  b4:	ffffffff 			; <UNDEFINED> instruction: 0xffffffff
  b8:	7c020001 	stcvc	0, cr0, [r2], {1}
  bc:	000d0c0e 	andeq	r0, sp, lr, lsl #24
  c0:	0000002c 	andeq	r0, r0, ip, lsr #32
  c4:	000000b0 	strheq	r0, [r0], -r0	; <UNPREDICTABLE>
  c8:	00008330 	andeq	r8, r0, r0, lsr r3
  cc:	00000244 	andeq	r0, r0, r4, asr #4
  d0:	84240e44 	strthi	r0, [r4], #-3652	; 0xfffff1bc
  d4:	86088509 	strhi	r8, [r8], -r9, lsl #10
  d8:	88068707 	stmdahi	r6, {r0, r1, r2, r8, r9, sl, pc}
  dc:	8a048905 	bhi	1224f8 <__bss_end__+0x1184c0>
  e0:	8e028b03 	vmlahi.f64	d8, d2, d3
  e4:	480e4401 	stmdami	lr, {r0, sl, lr}
  e8:	0a010603 	beq	418fc <__bss_end__+0x378c4>
  ec:	0b42240e 	bleq	108912c <__bss_end__+0x107f0f4>
  f0:	00000014 	andeq	r0, r0, r4, lsl r0
  f4:	000000b0 	strheq	r0, [r0], -r0	; <UNPREDICTABLE>
  f8:	00008574 	andeq	r8, r0, r4, ror r5
  fc:	00000028 	andeq	r0, r0, r8, lsr #32
 100:	84080e44 	strhi	r0, [r8], #-3652	; 0xfffff1bc
 104:	00018e02 	andeq	r8, r1, r2, lsl #28
 108:	0000000c 	andeq	r0, r0, ip
 10c:	ffffffff 			; <UNDEFINED> instruction: 0xffffffff
 110:	7c020001 	stcvc	0, cr0, [r2], {1}
 114:	000d0c0e 	andeq	r0, sp, lr, lsl #24
 118:	0000000c 	andeq	r0, r0, ip
 11c:	00000108 	andeq	r0, r0, r8, lsl #2
 120:	0000859c 	muleq	r0, ip, r5
 124:	00000018 	andeq	r0, r0, r8, lsl r0
 128:	0000000c 	andeq	r0, r0, ip
 12c:	ffffffff 			; <UNDEFINED> instruction: 0xffffffff
 130:	7c020001 	stcvc	0, cr0, [r2], {1}
 134:	000d0c0e 	andeq	r0, sp, lr, lsl #24
 138:	00000034 	andeq	r0, r0, r4, lsr r0
 13c:	00000128 	andeq	r0, r0, r8, lsr #2
 140:	000085b4 			; <UNDEFINED> instruction: 0x000085b4
 144:	00000058 	andeq	r0, r0, r8, asr r0
 148:	80100e42 	andshi	r0, r0, r2, asr #28
 14c:	82038104 	andhi	r8, r3, #1
 150:	42018302 	andmi	r8, r1, #134217728	; 0x8000000
 154:	07841c0e 	streq	r1, [r4, lr, lsl #24]
 158:	058e0685 	streq	r0, [lr, #1669]	; 0x685
 15c:	5c280e42 	stcpl	14, cr0, [r8], #-264	; 0xfffffef8
 160:	ce421c0e 	cdpgt	12, 4, cr1, cr2, cr14, {0}
 164:	100ec4c5 	andne	ip, lr, r5, asr #9
 168:	c1c2c342 	bicgt	ip, r2, r2, asr #6
 16c:	00000ec0 	andeq	r0, r0, r0, asr #29
 170:	0000000c 	andeq	r0, r0, ip
 174:	ffffffff 			; <UNDEFINED> instruction: 0xffffffff
 178:	7c020001 	stcvc	0, cr0, [r2], {1}
 17c:	000d0c0e 	andeq	r0, sp, lr, lsl #24
 180:	00000014 	andeq	r0, r0, r4, lsl r0
 184:	00000170 	andeq	r0, r0, r0, ror r1
 188:	0000860c 	andeq	r8, r0, ip, lsl #12
 18c:	00000034 	andeq	r0, r0, r4, lsr r0
 190:	84080e42 	strhi	r0, [r8], #-3650	; 0xfffff1be
 194:	00018e02 	andeq	r8, r1, r2, lsl #28
 198:	0000000c 	andeq	r0, r0, ip
 19c:	ffffffff 			; <UNDEFINED> instruction: 0xffffffff
 1a0:	7c020001 	stcvc	0, cr0, [r2], {1}
 1a4:	000d0c0e 	andeq	r0, sp, lr, lsl #24
 1a8:	0000000c 	andeq	r0, r0, ip
 1ac:	00000198 	muleq	r0, r8, r1
 1b0:	00008640 	andeq	r8, r0, r0, asr #12
 1b4:	00000014 	andeq	r0, r0, r4, lsl r0
 1b8:	0000000c 	andeq	r0, r0, ip
 1bc:	00000198 	muleq	r0, r8, r1
 1c0:	00008654 	andeq	r8, r0, r4, asr r6
 1c4:	00000024 	andeq	r0, r0, r4, lsr #32
 1c8:	0000000c 	andeq	r0, r0, ip
 1cc:	00000198 	muleq	r0, r8, r1
 1d0:	00008678 	andeq	r8, r0, r8, ror r6
 1d4:	00000038 	andeq	r0, r0, r8, lsr r0
 1d8:	00000024 	andeq	r0, r0, r4, lsr #32
 1dc:	00000198 	muleq	r0, r8, r1
 1e0:	000086b0 			; <UNDEFINED> instruction: 0x000086b0
 1e4:	000001b4 			; <UNDEFINED> instruction: 0x000001b4
 1e8:	84140e42 	ldrhi	r0, [r4], #-3650	; 0xfffff1be
 1ec:	86048505 	strhi	r8, [r4], -r5, lsl #10
 1f0:	8e028703 	cdphi	7, 0, cr8, cr2, cr3, {0}
 1f4:	600e4201 	andvs	r4, lr, r1, lsl #4
 1f8:	0e0a9a02 	vmlaeq.f32	s18, s20, s4
 1fc:	000b4214 	andeq	r4, fp, r4, lsl r2
 200:	00000014 	andeq	r0, r0, r4, lsl r0
 204:	00000198 	muleq	r0, r8, r1
 208:	00008864 	andeq	r8, r0, r4, ror #16
 20c:	00000064 	andeq	r0, r0, r4, rrx
 210:	8e040e54 	mcrhi	14, 0, r0, cr4, cr4, {2}
 214:	100e4201 	andne	r4, lr, r1, lsl #4
 218:	0000002c 	andeq	r0, r0, ip, lsr #32
 21c:	00000198 	muleq	r0, r8, r1
 220:	000088c8 	andeq	r8, r0, r8, asr #17
 224:	000004b8 			; <UNDEFINED> instruction: 0x000004b8
 228:	84240e42 	strthi	r0, [r4], #-3650	; 0xfffff1be
 22c:	86088509 	strhi	r8, [r8], -r9, lsl #10
 230:	88068707 	stmdahi	r6, {r0, r1, r2, r8, r9, sl, pc}
 234:	8a048905 	bhi	122650 <__bss_end__+0x118618>
 238:	8e028b03 	vmlahi.f64	d8, d2, d3
 23c:	b80e4201 	stmdalt	lr, {r0, r9, lr}
 240:	02380302 	eorseq	r0, r8, #134217728	; 0x8000000
 244:	0000240e 	andeq	r2, r0, lr, lsl #8
 248:	0000000c 	andeq	r0, r0, ip
 24c:	ffffffff 			; <UNDEFINED> instruction: 0xffffffff
 250:	7c020001 	stcvc	0, cr0, [r2], {1}
 254:	000d0c0e 	andeq	r0, sp, lr, lsl #24
 258:	0000000c 	andeq	r0, r0, ip
 25c:	00000248 	andeq	r0, r0, r8, asr #4
 260:	00008d80 	andeq	r8, r0, r0, lsl #27
 264:	00000010 	andeq	r0, r0, r0, lsl r0
 268:	0000000c 	andeq	r0, r0, ip
 26c:	00000248 	andeq	r0, r0, r8, asr #4
 270:	00008d90 	muleq	r0, r0, sp
 274:	00000010 	andeq	r0, r0, r0, lsl r0
 278:	0000000c 	andeq	r0, r0, ip
 27c:	ffffffff 			; <UNDEFINED> instruction: 0xffffffff
 280:	7c020001 	stcvc	0, cr0, [r2], {1}
 284:	000d0c0e 	andeq	r0, sp, lr, lsl #24
 288:	00000014 	andeq	r0, r0, r4, lsl r0
 28c:	00000278 	andeq	r0, r0, r8, ror r2
 290:	00008da0 	andeq	r8, r0, r0, lsr #27
 294:	0000002c 	andeq	r0, r0, ip, lsr #32
 298:	84080e42 	strhi	r0, [r8], #-3650	; 0xfffff1be
 29c:	00018e02 	andeq	r8, r1, r2, lsl #28
 2a0:	0000000c 	andeq	r0, r0, ip
 2a4:	ffffffff 			; <UNDEFINED> instruction: 0xffffffff
 2a8:	7c020001 	stcvc	0, cr0, [r2], {1}
 2ac:	000d0c0e 	andeq	r0, sp, lr, lsl #24
 2b0:	00000014 	andeq	r0, r0, r4, lsl r0
 2b4:	000002a0 	andeq	r0, r0, r0, lsr #5
 2b8:	00008dcc 	andeq	r8, r0, ip, asr #27
 2bc:	0000003c 	andeq	r0, r0, ip, lsr r0
 2c0:	84080e42 	strhi	r0, [r8], #-3650	; 0xfffff1be
 2c4:	00018e02 	andeq	r8, r1, r2, lsl #28
 2c8:	0000000c 	andeq	r0, r0, ip
 2cc:	ffffffff 			; <UNDEFINED> instruction: 0xffffffff
 2d0:	7c020001 	stcvc	0, cr0, [r2], {1}
 2d4:	000d0c0e 	andeq	r0, sp, lr, lsl #24
 2d8:	0000000c 	andeq	r0, r0, ip
 2dc:	000002c8 	andeq	r0, r0, r8, asr #5
 2e0:	00008e08 	andeq	r8, r0, r8, lsl #28
 2e4:	00000004 	andeq	r0, r0, r4
 2e8:	0000000c 	andeq	r0, r0, ip
 2ec:	ffffffff 			; <UNDEFINED> instruction: 0xffffffff
 2f0:	7c020001 	stcvc	0, cr0, [r2], {1}
 2f4:	000d0c0e 	andeq	r0, sp, lr, lsl #24
 2f8:	0000000c 	andeq	r0, r0, ip
 2fc:	000002e8 	andeq	r0, r0, r8, ror #5
 300:	00008e24 	andeq	r8, r0, r4, lsr #28
 304:	00000018 	andeq	r0, r0, r8, lsl r0
 308:	0000000c 	andeq	r0, r0, ip
 30c:	000002e8 	andeq	r0, r0, r8, ror #5
 310:	00008e3c 	andeq	r8, r0, ip, lsr lr
 314:	00000014 	andeq	r0, r0, r4, lsl r0
 318:	00000014 	andeq	r0, r0, r4, lsl r0
 31c:	000002e8 	andeq	r0, r0, r8, ror #5
 320:	00008e50 	andeq	r8, r0, r0, asr lr
 324:	00000054 	andeq	r0, r0, r4, asr r0
 328:	84080e42 	strhi	r0, [r8], #-3650	; 0xfffff1be
 32c:	00018e02 	andeq	r8, r1, r2, lsl #28
 330:	0000000c 	andeq	r0, r0, ip
 334:	ffffffff 			; <UNDEFINED> instruction: 0xffffffff
 338:	7c020001 	stcvc	0, cr0, [r2], {1}
 33c:	000d0c0e 	andeq	r0, sp, lr, lsl #24
 340:	00000014 	andeq	r0, r0, r4, lsl r0
 344:	00000330 	andeq	r0, r0, r0, lsr r3
 348:	00008ea4 	andeq	r8, r0, r4, lsr #29
 34c:	00000014 	andeq	r0, r0, r4, lsl r0
 350:	84080e42 	strhi	r0, [r8], #-3650	; 0xfffff1be
 354:	00018e02 	andeq	r8, r1, r2, lsl #28
 358:	00000014 	andeq	r0, r0, r4, lsl r0
 35c:	00000330 	andeq	r0, r0, r0, lsr r3
 360:	00008eb8 			; <UNDEFINED> instruction: 0x00008eb8
 364:	0000001c 	andeq	r0, r0, ip, lsl r0
 368:	84080e42 	strhi	r0, [r8], #-3650	; 0xfffff1be
 36c:	00018e02 	andeq	r8, r1, r2, lsl #28
 370:	00000018 	andeq	r0, r0, r8, lsl r0
 374:	00000330 	andeq	r0, r0, r0, lsr r3
 378:	00008ed4 	ldrdeq	r8, [r0], -r4
 37c:	00000024 	andeq	r0, r0, r4, lsr #32
 380:	84100e42 	ldrhi	r0, [r0], #-3650	; 0xfffff1be
 384:	86038504 	strhi	r8, [r3], -r4, lsl #10
 388:	00018e02 	andeq	r8, r1, r2, lsl #28
 38c:	00000014 	andeq	r0, r0, r4, lsl r0
 390:	00000330 	andeq	r0, r0, r0, lsr r3
 394:	00008ef8 	strdeq	r8, [r0], -r8	; <UNPREDICTABLE>
 398:	00000018 	andeq	r0, r0, r8, lsl r0
 39c:	84080e42 	strhi	r0, [r8], #-3650	; 0xfffff1be
 3a0:	00018e02 	andeq	r8, r1, r2, lsl #28
 3a4:	00000014 	andeq	r0, r0, r4, lsl r0
 3a8:	00000330 	andeq	r0, r0, r0, lsr r3
 3ac:	00008f10 	andeq	r8, r0, r0, lsl pc
 3b0:	00000018 	andeq	r0, r0, r8, lsl r0
 3b4:	84080e42 	strhi	r0, [r8], #-3650	; 0xfffff1be
 3b8:	00018e02 	andeq	r8, r1, r2, lsl #28
 3bc:	0000000c 	andeq	r0, r0, ip
 3c0:	ffffffff 			; <UNDEFINED> instruction: 0xffffffff
 3c4:	7c020001 	stcvc	0, cr0, [r2], {1}
 3c8:	000d0c0e 	andeq	r0, sp, lr, lsl #24
 3cc:	00000018 	andeq	r0, r0, r8, lsl r0
 3d0:	000003bc 			; <UNDEFINED> instruction: 0x000003bc
 3d4:	00008f28 	andeq	r8, r0, r8, lsr #30
 3d8:	00000064 	andeq	r0, r0, r4, rrx
 3dc:	84100e46 	ldrhi	r0, [r0], #-3654	; 0xfffff1ba
 3e0:	86038504 	strhi	r8, [r3], -r4, lsl #10
 3e4:	00018e02 	andeq	r8, r1, r2, lsl #28
 3e8:	00000014 	andeq	r0, r0, r4, lsl r0
 3ec:	000003bc 			; <UNDEFINED> instruction: 0x000003bc
 3f0:	00008f8c 	andeq	r8, r0, ip, lsl #31
 3f4:	00000010 	andeq	r0, r0, r0, lsl r0
 3f8:	84080e42 	strhi	r0, [r8], #-3650	; 0xfffff1be
 3fc:	00018e02 	andeq	r8, r1, r2, lsl #28
 400:	00000014 	andeq	r0, r0, r4, lsl r0
 404:	000003bc 			; <UNDEFINED> instruction: 0x000003bc
 408:	00008f9c 	muleq	r0, ip, pc	; <UNPREDICTABLE>
 40c:	00000024 	andeq	r0, r0, r4, lsr #32
 410:	84080e46 	strhi	r0, [r8], #-3654	; 0xfffff1ba
 414:	00018e02 	andeq	r8, r1, r2, lsl #28
 418:	00000014 	andeq	r0, r0, r4, lsl r0
 41c:	000003bc 			; <UNDEFINED> instruction: 0x000003bc
 420:	00008fc0 	andeq	r8, r0, r0, asr #31
 424:	00000024 	andeq	r0, r0, r4, lsr #32
 428:	84080e46 	strhi	r0, [r8], #-3654	; 0xfffff1ba
 42c:	00018e02 	andeq	r8, r1, r2, lsl #28
 430:	00000014 	andeq	r0, r0, r4, lsl r0
 434:	000003bc 			; <UNDEFINED> instruction: 0x000003bc
 438:	00008fe4 	andeq	r8, r0, r4, ror #31
 43c:	00000010 	andeq	r0, r0, r0, lsl r0
 440:	84080e42 	strhi	r0, [r8], #-3650	; 0xfffff1be
 444:	00018e02 	andeq	r8, r1, r2, lsl #28
 448:	00000014 	andeq	r0, r0, r4, lsl r0
 44c:	000003bc 			; <UNDEFINED> instruction: 0x000003bc
 450:	00008ff4 	strdeq	r8, [r0], -r4
 454:	0000001c 	andeq	r0, r0, ip, lsl r0
 458:	84080e42 	strhi	r0, [r8], #-3650	; 0xfffff1be
 45c:	00018e02 	andeq	r8, r1, r2, lsl #28
 460:	00000018 	andeq	r0, r0, r8, lsl r0
 464:	000003bc 			; <UNDEFINED> instruction: 0x000003bc
 468:	00009010 	andeq	r9, r0, r0, lsl r0
 46c:	00000034 	andeq	r0, r0, r4, lsr r0
 470:	84080e46 	strhi	r0, [r8], #-3654	; 0xfffff1ba
 474:	4e018e02 	cdpmi	14, 0, cr8, cr1, cr2, {0}
 478:	cec4000e 	cdpgt	0, 12, cr0, cr4, cr14, {0}
 47c:	0000000c 	andeq	r0, r0, ip
 480:	ffffffff 			; <UNDEFINED> instruction: 0xffffffff
 484:	7c020001 	stcvc	0, cr0, [r2], {1}
 488:	000d0c0e 	andeq	r0, sp, lr, lsl #24
 48c:	00000018 	andeq	r0, r0, r8, lsl r0
 490:	0000047c 	andeq	r0, r0, ip, ror r4
 494:	00009044 	andeq	r9, r0, r4, asr #32
 498:	00000020 	andeq	r0, r0, r0, lsr #32
 49c:	84100e42 	ldrhi	r0, [r0], #-3650	; 0xfffff1be
 4a0:	86038504 	strhi	r8, [r3], -r4, lsl #10
 4a4:	00018e02 	andeq	r8, r1, r2, lsl #28
 4a8:	00000018 	andeq	r0, r0, r8, lsl r0
 4ac:	0000047c 	andeq	r0, r0, ip, ror r4
 4b0:	00009064 	andeq	r9, r0, r4, rrx
 4b4:	00000020 	andeq	r0, r0, r0, lsr #32
 4b8:	84100e42 	ldrhi	r0, [r0], #-3650	; 0xfffff1be
 4bc:	86038504 	strhi	r8, [r3], -r4, lsl #10
 4c0:	00018e02 	andeq	r8, r1, r2, lsl #28
 4c4:	00000014 	andeq	r0, r0, r4, lsl r0
 4c8:	0000047c 	andeq	r0, r0, ip, ror r4
 4cc:	00009084 	andeq	r9, r0, r4, lsl #1
 4d0:	000000b0 	strheq	r0, [r0], -r0	; <UNPREDICTABLE>
 4d4:	84080e42 	strhi	r0, [r8], #-3650	; 0xfffff1be
 4d8:	00018e02 	andeq	r8, r1, r2, lsl #28
 4dc:	00000014 	andeq	r0, r0, r4, lsl r0
 4e0:	0000047c 	andeq	r0, r0, ip, ror r4
 4e4:	00009134 	andeq	r9, r0, r4, lsr r1
 4e8:	00000018 	andeq	r0, r0, r8, lsl r0
 4ec:	84080e42 	strhi	r0, [r8], #-3650	; 0xfffff1be
 4f0:	00018e02 	andeq	r8, r1, r2, lsl #28
 4f4:	00000014 	andeq	r0, r0, r4, lsl r0
 4f8:	0000047c 	andeq	r0, r0, ip, ror r4
 4fc:	0000914c 	andeq	r9, r0, ip, asr #2
 500:	00000020 	andeq	r0, r0, r0, lsr #32
 504:	84080e42 	strhi	r0, [r8], #-3650	; 0xfffff1be
 508:	00018e02 	andeq	r8, r1, r2, lsl #28
 50c:	00000014 	andeq	r0, r0, r4, lsl r0
 510:	0000047c 	andeq	r0, r0, ip, ror r4
 514:	0000916c 	andeq	r9, r0, ip, ror #2
 518:	00000030 	andeq	r0, r0, r0, lsr r0
 51c:	84080e42 	strhi	r0, [r8], #-3650	; 0xfffff1be
 520:	00018e02 	andeq	r8, r1, r2, lsl #28
 524:	00000014 	andeq	r0, r0, r4, lsl r0
 528:	0000047c 	andeq	r0, r0, ip, ror r4
 52c:	0000919c 	muleq	r0, ip, r1
 530:	00000030 	andeq	r0, r0, r0, lsr r0
 534:	84080e42 	strhi	r0, [r8], #-3650	; 0xfffff1be
 538:	00018e02 	andeq	r8, r1, r2, lsl #28
 53c:	00000014 	andeq	r0, r0, r4, lsl r0
 540:	0000047c 	andeq	r0, r0, ip, ror r4
 544:	000091cc 	andeq	r9, r0, ip, asr #3
 548:	00000010 	andeq	r0, r0, r0, lsl r0
 54c:	84080e42 	strhi	r0, [r8], #-3650	; 0xfffff1be
 550:	00018e02 	andeq	r8, r1, r2, lsl #28
 554:	00000014 	andeq	r0, r0, r4, lsl r0
 558:	0000047c 	andeq	r0, r0, ip, ror r4
 55c:	000091dc 	ldrdeq	r9, [r0], -ip
 560:	00000020 	andeq	r0, r0, r0, lsr #32
 564:	84080e42 	strhi	r0, [r8], #-3650	; 0xfffff1be
 568:	00018e02 	andeq	r8, r1, r2, lsl #28
 56c:	00000014 	andeq	r0, r0, r4, lsl r0
 570:	0000047c 	andeq	r0, r0, ip, ror r4
 574:	000091fc 	strdeq	r9, [r0], -ip
 578:	00000014 	andeq	r0, r0, r4, lsl r0
 57c:	84080e42 	strhi	r0, [r8], #-3650	; 0xfffff1be
 580:	00018e02 	andeq	r8, r1, r2, lsl #28
 584:	00000014 	andeq	r0, r0, r4, lsl r0
 588:	0000047c 	andeq	r0, r0, ip, ror r4
 58c:	00009210 	andeq	r9, r0, r0, lsl r2
 590:	00000024 	andeq	r0, r0, r4, lsr #32
 594:	84080e42 	strhi	r0, [r8], #-3650	; 0xfffff1be
 598:	00018e02 	andeq	r8, r1, r2, lsl #28
 59c:	0000000c 	andeq	r0, r0, ip
 5a0:	ffffffff 			; <UNDEFINED> instruction: 0xffffffff
 5a4:	7c020001 	stcvc	0, cr0, [r2], {1}
 5a8:	000d0c0e 	andeq	r0, sp, lr, lsl #24
 5ac:	00000014 	andeq	r0, r0, r4, lsl r0
 5b0:	0000059c 	muleq	r0, ip, r5
 5b4:	00009234 	andeq	r9, r0, r4, lsr r2
 5b8:	00000014 	andeq	r0, r0, r4, lsl r0
 5bc:	84080e42 	strhi	r0, [r8], #-3650	; 0xfffff1be
 5c0:	00018e02 	andeq	r8, r1, r2, lsl #28
 5c4:	0000000c 	andeq	r0, r0, ip
 5c8:	0000059c 	muleq	r0, ip, r5
 5cc:	00009248 	andeq	r9, r0, r8, asr #4
 5d0:	00000018 	andeq	r0, r0, r8, lsl r0
 5d4:	0000000c 	andeq	r0, r0, ip
 5d8:	0000059c 	muleq	r0, ip, r5
 5dc:	00009260 	andeq	r9, r0, r0, ror #4
 5e0:	00000010 	andeq	r0, r0, r0, lsl r0
 5e4:	0000000c 	andeq	r0, r0, ip
 5e8:	ffffffff 			; <UNDEFINED> instruction: 0xffffffff
 5ec:	7c020001 	stcvc	0, cr0, [r2], {1}
 5f0:	000d0c0e 	andeq	r0, sp, lr, lsl #24
 5f4:	0000000c 	andeq	r0, r0, ip
 5f8:	000005e4 	andeq	r0, r0, r4, ror #11
 5fc:	00009270 	andeq	r9, r0, r0, ror r2
 600:	00000034 	andeq	r0, r0, r4, lsr r0
 604:	0000000c 	andeq	r0, r0, ip
 608:	ffffffff 			; <UNDEFINED> instruction: 0xffffffff
 60c:	7c020001 	stcvc	0, cr0, [r2], {1}
 610:	000d0c0e 	andeq	r0, sp, lr, lsl #24
 614:	0000000c 	andeq	r0, r0, ip
 618:	00000604 	andeq	r0, r0, r4, lsl #12
 61c:	000092a4 	andeq	r9, r0, r4, lsr #5
 620:	0000002c 	andeq	r0, r0, ip, lsr #32
 624:	0000000c 	andeq	r0, r0, ip
 628:	ffffffff 			; <UNDEFINED> instruction: 0xffffffff
 62c:	7c020001 	stcvc	0, cr0, [r2], {1}
 630:	000d0c0e 	andeq	r0, sp, lr, lsl #24
 634:	0000000c 	andeq	r0, r0, ip
 638:	00000624 	andeq	r0, r0, r4, lsr #12
 63c:	000092d0 	ldrdeq	r9, [r0], -r0
 640:	00000020 	andeq	r0, r0, r0, lsr #32
 644:	0000000c 	andeq	r0, r0, ip
 648:	ffffffff 			; <UNDEFINED> instruction: 0xffffffff
 64c:	7c020001 	stcvc	0, cr0, [r2], {1}
 650:	000d0c0e 	andeq	r0, sp, lr, lsl #24
 654:	0000000c 	andeq	r0, r0, ip
 658:	00000644 	andeq	r0, r0, r4, asr #12
 65c:	000092f0 	strdeq	r9, [r0], -r0
 660:	0000002c 	andeq	r0, r0, ip, lsr #32
 664:	0000000c 	andeq	r0, r0, ip
 668:	ffffffff 			; <UNDEFINED> instruction: 0xffffffff
 66c:	7c020001 	stcvc	0, cr0, [r2], {1}
 670:	000d0c0e 	andeq	r0, sp, lr, lsl #24
 674:	0000000c 	andeq	r0, r0, ip
 678:	00000664 	andeq	r0, r0, r4, ror #12
 67c:	0000931c 	andeq	r9, r0, ip, lsl r3
 680:	00000004 	andeq	r0, r0, r4
