
tests/5-fft-time.elf:     file format elf32-littlearm


Disassembly of section .text:

00008000 <__code_start__>:
    8000:	e3a00013 	mov	r0, #19, 0
    8004:	e3800080 	orr	r0, r0, #128, 0	; 0x80
    8008:	e129f000 	msr	CPSR_fc, r0
    800c:	e3a01000 	mov	r1, #0, 0
    8010:	ee071f95 	mcr	15, 0, r1, cr7, cr5, {4}
    8014:	e3a0d302 	mov	sp, #134217728	; 0x8000000
    8018:	e3a0b000 	mov	fp, #0, 0
    801c:	eb000365 	bl	8db8 <_cstart>
    8020:	eb000385 	bl	8e3c <rpi_reboot>

00008024 <PUT32>:
    8024:	e5801000 	str	r1, [r0]
    8028:	e12fff1e 	bx	lr

0000802c <GET32>:
    802c:	e5900000 	ldr	r0, [r0]
    8030:	e12fff1e 	bx	lr

00008034 <BRANCHTO>:
    8034:	e12fff10 	bx	r0

00008038 <notmain>:
    8038:	e3a00000 	mov	r0, #0, 0
    803c:	e92d4030 	push	{r4, r5, lr}
    8040:	e24ddb01 	sub	sp, sp, #1024	; 0x400
    8044:	e24dd004 	sub	sp, sp, #4, 0
    8048:	e59f105c 	ldr	r1, [pc, #92]	; 80ac <notmain+0x74>
    804c:	e28d3c02 	add	r3, sp, #512	; 0x200
    8050:	e24d2004 	sub	r2, sp, #4, 0
    8054:	e5a21004 	str	r1, [r2, #4]!
    8058:	e28dcb01 	add	ip, sp, #1024	; 0x400
    805c:	e4830004 	str	r0, [r3], #4
    8060:	e153000c 	cmp	r3, ip
    8064:	1afffffa 	bne	8054 <notmain+0x1c>
    8068:	eb00038d 	bl	8ea4 <timer_get_usec>
    806c:	e3a04b01 	mov	r4, #1024	; 0x400
    8070:	e1a05000 	mov	r5, r0
    8074:	e3a03000 	mov	r3, #0, 0
    8078:	e3a02008 	mov	r2, #8, 0
    807c:	e1a0000d 	mov	r0, sp
    8080:	e28d1c02 	add	r1, sp, #512	; 0x200
    8084:	eb00007e 	bl	8284 <fft_fixed_cfft>
    8088:	e2544001 	subs	r4, r4, #1, 0
    808c:	1afffff8 	bne	8074 <notmain+0x3c>
    8090:	eb000383 	bl	8ea4 <timer_get_usec>
    8094:	e0401005 	sub	r1, r0, r5
    8098:	e3a02c01 	mov	r2, #256	; 0x100
    809c:	e1a01521 	lsr	r1, r1, #10
    80a0:	e59f0008 	ldr	r0, [pc, #8]	; 80b0 <notmain+0x78>
    80a4:	eb000145 	bl	85c0 <printk>
    80a8:	eb000337 	bl	8d8c <clean_reboot>
    80ac:	04000400 	streq	r0, [r0], #-1024	; 0xfffffc00
    80b0:	00009310 	andeq	r9, r0, r0, lsl r3

000080b4 <bits_set.part.0>:
    80b4:	e52de004 	push	{lr}		; (str lr, [sp, #-4]!)
    80b8:	e59f201c 	ldr	r2, [pc, #28]	; 80dc <bits_set.part.0+0x28>
    80bc:	e24dd00c 	sub	sp, sp, #12, 0
    80c0:	e3a03058 	mov	r3, #88, 0	; 0x58
    80c4:	e59f1014 	ldr	r1, [pc, #20]	; 80e0 <bits_set.part.0+0x2c>
    80c8:	e58d2000 	str	r2, [sp]
    80cc:	e59f0010 	ldr	r0, [pc, #16]	; 80e4 <bits_set.part.0+0x30>
    80d0:	e59f2010 	ldr	r2, [pc, #16]	; 80e8 <bits_set.part.0+0x34>
    80d4:	eb000139 	bl	85c0 <printk>
    80d8:	eb00032b 	bl	8d8c <clean_reboot>
    80dc:	0000939c 	muleq	r0, ip, r3
    80e0:	00009328 	andeq	r9, r0, r8, lsr #6
    80e4:	00009388 	andeq	r9, r0, r8, lsl #7
    80e8:	000093e0 	andeq	r9, r0, r0, ror #7

000080ec <CM_reg_value>:
    80ec:	e380045a 	orr	r0, r0, #1509949440	; 0x5a000000
    80f0:	e12fff1e 	bx	lr

000080f4 <i2s_init>:
    80f4:	e92d4010 	push	{r4, lr}
    80f8:	e59f0128 	ldr	r0, [pc, #296]	; 8228 <i2s_init+0x134>
    80fc:	e24dd008 	sub	sp, sp, #8, 0
    8100:	ebffffc9 	bl	802c <GET32>
    8104:	e3100001 	tst	r0, #1, 0
    8108:	1a00003e 	bne	8208 <i2s_init+0x114>
    810c:	e3a01004 	mov	r1, #4, 0
    8110:	e3a00012 	mov	r0, #18, 0
    8114:	eb00037e 	bl	8f14 <gpio_set_function>
    8118:	e3a01004 	mov	r1, #4, 0
    811c:	e3a00013 	mov	r0, #19, 0
    8120:	eb00037b 	bl	8f14 <gpio_set_function>
    8124:	e3a01004 	mov	r1, #4, 0
    8128:	e3a00014 	mov	r0, #20, 0
    812c:	eb000378 	bl	8f14 <gpio_set_function>
    8130:	e3a00012 	mov	r0, #18, 0
    8134:	eb000393 	bl	8f88 <gpio_set_on>
    8138:	e3a00013 	mov	r0, #19, 0
    813c:	eb000391 	bl	8f88 <gpio_set_on>
    8140:	e3a00014 	mov	r0, #20, 0
    8144:	eb00038f 	bl	8f88 <gpio_set_on>
    8148:	eb00032a 	bl	8df8 <dev_barrier>
    814c:	e59f00d8 	ldr	r0, [pc, #216]	; 822c <i2s_init+0x138>
    8150:	ebffffb5 	bl	802c <GET32>
    8154:	e59f10d4 	ldr	r1, [pc, #212]	; 8230 <i2s_init+0x13c>
    8158:	e3c00c06 	bic	r0, r0, #1536	; 0x600
    815c:	e3c0000f 	bic	r0, r0, #15, 0
    8160:	e1801001 	orr	r1, r0, r1
    8164:	e59f00c0 	ldr	r0, [pc, #192]	; 822c <i2s_init+0x138>
    8168:	ebffffad 	bl	8024 <PUT32>
    816c:	e59f10c0 	ldr	r1, [pc, #192]	; 8234 <i2s_init+0x140>
    8170:	e59f00c0 	ldr	r0, [pc, #192]	; 8238 <i2s_init+0x144>
    8174:	ebffffaa 	bl	8024 <PUT32>
    8178:	e59f00ac 	ldr	r0, [pc, #172]	; 822c <i2s_init+0x138>
    817c:	ebffffaa 	bl	802c <GET32>
    8180:	e380145a 	orr	r1, r0, #1509949440	; 0x5a000000
    8184:	e3811010 	orr	r1, r1, #16, 0
    8188:	e59f009c 	ldr	r0, [pc, #156]	; 822c <i2s_init+0x138>
    818c:	ebffffa4 	bl	8024 <PUT32>
    8190:	eb000318 	bl	8df8 <dev_barrier>
    8194:	e59f00a0 	ldr	r0, [pc, #160]	; 823c <i2s_init+0x148>
    8198:	ebffffa3 	bl	802c <GET32>
    819c:	e1a01a20 	lsr	r1, r0, #20
    81a0:	e1a01a01 	lsl	r1, r1, #20
    81a4:	e3811b3f 	orr	r1, r1, #64512	; 0xfc00
    81a8:	e3811020 	orr	r1, r1, #32, 0
    81ac:	e59f0088 	ldr	r0, [pc, #136]	; 823c <i2s_init+0x148>
    81b0:	ebffff9b 	bl	8024 <PUT32>
    81b4:	e59f0084 	ldr	r0, [pc, #132]	; 8240 <i2s_init+0x14c>
    81b8:	ebffff9b 	bl	802c <GET32>
    81bc:	e3c0180f 	bic	r1, r0, #983040	; 0xf0000
    81c0:	e3811103 	orr	r1, r1, #-1073741824	; 0xc0000000
    81c4:	e3811702 	orr	r1, r1, #524288	; 0x80000
    81c8:	e59f0070 	ldr	r0, [pc, #112]	; 8240 <i2s_init+0x14c>
    81cc:	ebffff94 	bl	8024 <PUT32>
    81d0:	e59f0050 	ldr	r0, [pc, #80]	; 8228 <i2s_init+0x134>
    81d4:	ebffff94 	bl	802c <GET32>
    81d8:	e3801403 	orr	r1, r0, #50331648	; 0x3000000
    81dc:	e3811013 	orr	r1, r1, #19, 0
    81e0:	e59f0040 	ldr	r0, [pc, #64]	; 8228 <i2s_init+0x134>
    81e4:	ebffff8e 	bl	8024 <PUT32>
    81e8:	e59f4038 	ldr	r4, [pc, #56]	; 8228 <i2s_init+0x134>
    81ec:	e1a00004 	mov	r0, r4
    81f0:	ebffff8d 	bl	802c <GET32>
    81f4:	e3100401 	tst	r0, #16777216	; 0x1000000
    81f8:	0afffffb 	beq	81ec <i2s_init+0xf8>
    81fc:	e28dd008 	add	sp, sp, #8, 0
    8200:	e8bd4010 	pop	{r4, lr}
    8204:	ea0002fb 	b	8df8 <dev_barrier>
    8208:	e59f2034 	ldr	r2, [pc, #52]	; 8244 <i2s_init+0x150>
    820c:	e3a0301d 	mov	r3, #29, 0
    8210:	e59f1030 	ldr	r1, [pc, #48]	; 8248 <i2s_init+0x154>
    8214:	e58d2000 	str	r2, [sp]
    8218:	e59f002c 	ldr	r0, [pc, #44]	; 824c <i2s_init+0x158>
    821c:	e59f202c 	ldr	r2, [pc, #44]	; 8250 <i2s_init+0x15c>
    8220:	eb0000e6 	bl	85c0 <printk>
    8224:	eb0002d8 	bl	8d8c <clean_reboot>
    8228:	20203000 	eorcs	r3, r0, r0
    822c:	20101098 	mulscs	r0, r8, r0
    8230:	5a000601 	bpl	9a3c <FFT_SINE_LUT+0x440>
    8234:	5a006cd8 	bpl	2359c <__bss_end__+0x19594>
    8238:	2010109c 	mulscs	r0, ip, r0
    823c:	20203008 	eorcs	r3, r0, r8
    8240:	2020300c 	eorcs	r3, r0, ip
    8244:	000093bc 			; <UNDEFINED> instruction: 0x000093bc
    8248:	000093b4 			; <UNDEFINED> instruction: 0x000093b4
    824c:	00009388 	andeq	r9, r0, r8, lsl #7
    8250:	000093ec 	andeq	r9, r0, ip, ror #7

00008254 <i2s_read_sample>:
    8254:	e92d4010 	push	{r4, lr}
    8258:	eb0002e6 	bl	8df8 <dev_barrier>
    825c:	e59f4018 	ldr	r4, [pc, #24]	; 827c <i2s_read_sample+0x28>
    8260:	e1a00004 	mov	r0, r4
    8264:	ebffff70 	bl	802c <GET32>
    8268:	e3100601 	tst	r0, #1048576	; 0x100000
    826c:	0afffffb 	beq	8260 <i2s_read_sample+0xc>
    8270:	e8bd4010 	pop	{r4, lr}
    8274:	e59f0004 	ldr	r0, [pc, #4]	; 8280 <i2s_read_sample+0x2c>
    8278:	eaffff6b 	b	802c <GET32>
    827c:	20203000 	eorcs	r3, r0, r0
    8280:	20203004 	eorcs	r3, r0, r4

00008284 <fft_fixed_cfft>:
    8284:	e3a0c001 	mov	ip, #1, 0
    8288:	e92d4ff0 	push	{r4, r5, r6, r7, r8, r9, sl, fp, lr}
    828c:	e1a0421c 	lsl	r4, ip, r2
    8290:	e24dd024 	sub	sp, sp, #36, 0	; 0x24
    8294:	e3540b01 	cmp	r4, #1024	; 0x400
    8298:	e58d301c 	str	r3, [sp, #28]
    829c:	8a0000b3 	bhi	8570 <fft_fixed_cfft+0x2ec>
    82a0:	e154000c 	cmp	r4, ip
    82a4:	9a000080 	bls	84ac <fft_fixed_cfft+0x228>
    82a8:	e1a0a000 	mov	sl, r0
    82ac:	e1a08001 	mov	r8, r1
    82b0:	e3a01000 	mov	r1, #0, 0
    82b4:	e1a0500c 	mov	r5, ip
    82b8:	e2440001 	sub	r0, r4, #1, 0
    82bc:	e28ae002 	add	lr, sl, #2, 0
    82c0:	e288c002 	add	ip, r8, #2, 0
    82c4:	e1a03004 	mov	r3, r4
    82c8:	e1a030a3 	lsr	r3, r3, #1
    82cc:	e0832001 	add	r2, r3, r1
    82d0:	e1520000 	cmp	r2, r0
    82d4:	8afffffb 	bhi	82c8 <fft_fixed_cfft+0x44>
    82d8:	e2432001 	sub	r2, r3, #1, 0
    82dc:	e0011002 	and	r1, r1, r2
    82e0:	e0811003 	add	r1, r1, r3
    82e4:	e1510005 	cmp	r1, r5
    82e8:	9a000008 	bls	8310 <fft_fixed_cfft+0x8c>
    82ec:	e1a03081 	lsl	r3, r1, #1
    82f0:	e19a60f3 	ldrsh	r6, [sl, r3]
    82f4:	e1de20f0 	ldrsh	r2, [lr]
    82f8:	e1ce60b0 	strh	r6, [lr]
    82fc:	e18a20b3 	strh	r2, [sl, r3]
    8300:	e1dc20f0 	ldrsh	r2, [ip]
    8304:	e19860f3 	ldrsh	r6, [r8, r3]
    8308:	e1cc60b0 	strh	r6, [ip]
    830c:	e18820b3 	strh	r2, [r8, r3]
    8310:	e2855001 	add	r5, r5, #1, 0
    8314:	e1540005 	cmp	r4, r5
    8318:	e28ee002 	add	lr, lr, #2, 0
    831c:	e28cc002 	add	ip, ip, #2, 0
    8320:	1affffe7 	bne	82c4 <fft_fixed_cfft+0x40>
    8324:	e3a03009 	mov	r3, #9, 0
    8328:	e58d3014 	str	r3, [sp, #20]
    832c:	e3a03001 	mov	r3, #1, 0
    8330:	e58d5008 	str	r5, [sp, #8]
    8334:	e58d3004 	str	r3, [sp, #4]
    8338:	e59d1004 	ldr	r1, [sp, #4]
    833c:	e59d2008 	ldr	r2, [sp, #8]
    8340:	e1a03101 	lsl	r3, r1, #2
    8344:	e1520001 	cmp	r2, r1
    8348:	21a02001 	movcs	r2, r1
    834c:	e58d2018 	str	r2, [sp, #24]
    8350:	e3a02000 	mov	r2, #0, 0
    8354:	e58d2010 	str	r2, [sp, #16]
    8358:	e1a02081 	lsl	r2, r1, #1
    835c:	e58d2004 	str	r2, [sp, #4]
    8360:	e58d300c 	str	r3, [sp, #12]
    8364:	e59db010 	ldr	fp, [sp, #16]
    8368:	e59d3014 	ldr	r3, [sp, #20]
    836c:	e59d001c 	ldr	r0, [sp, #28]
    8370:	e1a0331b 	lsl	r3, fp, r3
    8374:	e2832c01 	add	r2, r3, #256	; 0x100
    8378:	e3500000 	cmp	r0, #0, 0
    837c:	e59f0204 	ldr	r0, [pc, #516]	; 8588 <fft_fixed_cfft+0x304>
    8380:	e1a02082 	lsl	r2, r2, #1
    8384:	e1a03083 	lsl	r3, r3, #1
    8388:	e19070f2 	ldrsh	r7, [r0, r2]
    838c:	e19090f3 	ldrsh	r9, [r0, r3]
    8390:	1a000048 	bne	84b8 <fft_fixed_cfft+0x234>
    8394:	e2696000 	rsb	r6, r9, #0, 0
    8398:	e59d3004 	ldr	r3, [sp, #4]
    839c:	e6bf6076 	sxth	r6, r6
    83a0:	e0866fa6 	add	r6, r6, r6, lsr #31
    83a4:	e0877fa7 	add	r7, r7, r7, lsr #31
    83a8:	e1a060c6 	asr	r6, r6, #1
    83ac:	e1a070c7 	asr	r7, r7, #1
    83b0:	e1a0508b 	lsl	r5, fp, #1
    83b4:	e083408b 	add	r4, r3, fp, lsl #1
    83b8:	e19a30f4 	ldrsh	r3, [sl, r4]
    83bc:	e1620387 	smulbb	r2, r7, r3
    83c0:	e1a0e742 	asr	lr, r2, #14
    83c4:	e20ee001 	and	lr, lr, #1, 0
    83c8:	e08ee7c2 	add	lr, lr, r2, asr #15
    83cc:	e19800f4 	ldrsh	r0, [r8, r4]
    83d0:	e6ffe07e 	uxth	lr, lr
    83d4:	e1620086 	smulbb	r2, r6, r0
    83d8:	e1a0c742 	asr	ip, r2, #14
    83dc:	e20cc001 	and	ip, ip, #1, 0
    83e0:	e08cc7c2 	add	ip, ip, r2, asr #15
    83e4:	e6ffc07c 	uxth	ip, ip
    83e8:	e1600087 	smulbb	r0, r7, r0
    83ec:	e1630386 	smulbb	r3, r6, r3
    83f0:	e1a097c0 	asr	r9, r0, #15
    83f4:	e08997c3 	add	r9, r9, r3, asr #15
    83f8:	e1a00880 	lsl	r0, r0, #17
    83fc:	e19a20f5 	ldrsh	r2, [sl, r5]
    8400:	e0890fa0 	add	r0, r9, r0, lsr #31
    8404:	e1a03883 	lsl	r3, r3, #17
    8408:	e19810f5 	ldrsh	r1, [r8, r5]
    840c:	e0800fa3 	add	r0, r0, r3, lsr #31
    8410:	e59d3004 	ldr	r3, [sp, #4]
    8414:	e0822fa2 	add	r2, r2, r2, lsr #31
    8418:	e08bb003 	add	fp, fp, r3
    841c:	e1a020c2 	asr	r2, r2, #1
    8420:	e59d3008 	ldr	r3, [sp, #8]
    8424:	e0811fa1 	add	r1, r1, r1, lsr #31
    8428:	e6ff2072 	uxth	r2, r2
    842c:	e1a010c1 	asr	r1, r1, #1
    8430:	e082900c 	add	r9, r2, ip
    8434:	e6ff1071 	uxth	r1, r1
    8438:	e082200e 	add	r2, r2, lr
    843c:	e6ff0070 	uxth	r0, r0
    8440:	e15b0003 	cmp	fp, r3
    8444:	e59d300c 	ldr	r3, [sp, #12]
    8448:	e042200c 	sub	r2, r2, ip
    844c:	e049e00e 	sub	lr, r9, lr
    8450:	e041c000 	sub	ip, r1, r0
    8454:	e0801001 	add	r1, r0, r1
    8458:	e18ae0b4 	strh	lr, [sl, r4]
    845c:	e188c0b4 	strh	ip, [r8, r4]
    8460:	e18a20b5 	strh	r2, [sl, r5]
    8464:	e0844003 	add	r4, r4, r3
    8468:	e18810b5 	strh	r1, [r8, r5]
    846c:	e0855003 	add	r5, r5, r3
    8470:	3affffd0 	bcc	83b8 <fft_fixed_cfft+0x134>
    8474:	e59d3010 	ldr	r3, [sp, #16]
    8478:	e59d2018 	ldr	r2, [sp, #24]
    847c:	e2833001 	add	r3, r3, #1, 0
    8480:	e1530002 	cmp	r3, r2
    8484:	e58d3010 	str	r3, [sp, #16]
    8488:	3affffb5 	bcc	8364 <fft_fixed_cfft+0xe0>
    848c:	e59d3014 	ldr	r3, [sp, #20]
    8490:	e59d2004 	ldr	r2, [sp, #4]
    8494:	e59d1008 	ldr	r1, [sp, #8]
    8498:	e2433001 	sub	r3, r3, #1, 0
    849c:	e6bf3073 	sxth	r3, r3
    84a0:	e1520001 	cmp	r2, r1
    84a4:	e58d3014 	str	r3, [sp, #20]
    84a8:	3affffa2 	bcc	8338 <fft_fixed_cfft+0xb4>
    84ac:	e3a00000 	mov	r0, #0, 0
    84b0:	e28dd024 	add	sp, sp, #36, 0	; 0x24
    84b4:	e8bd8ff0 	pop	{r4, r5, r6, r7, r8, r9, sl, fp, pc}
    84b8:	e59d3004 	ldr	r3, [sp, #4]
    84bc:	e1a0508b 	lsl	r5, fp, #1
    84c0:	e083408b 	add	r4, r3, fp, lsl #1
    84c4:	e19a00f4 	ldrsh	r0, [sl, r4]
    84c8:	e1630087 	smulbb	r3, r7, r0
    84cc:	e1a01743 	asr	r1, r3, #14
    84d0:	e2011001 	and	r1, r1, #1, 0
    84d4:	e08117c3 	add	r1, r1, r3, asr #15
    84d8:	e6ff1071 	uxth	r1, r1
    84dc:	e19830f4 	ldrsh	r3, [r8, r4]
    84e0:	e16c0389 	smulbb	ip, r9, r3
    84e4:	e1a0274c 	asr	r2, ip, #14
    84e8:	e2022001 	and	r2, r2, #1, 0
    84ec:	e08227cc 	add	r2, r2, ip, asr #15
    84f0:	e6ff2072 	uxth	r2, r2
    84f4:	e1630387 	smulbb	r3, r7, r3
    84f8:	e1600089 	smulbb	r0, r9, r0
    84fc:	e1a067c3 	asr	r6, r3, #15
    8500:	e08667c0 	add	r6, r6, r0, asr #15
    8504:	e1a03883 	lsl	r3, r3, #17
    8508:	e0863fa3 	add	r3, r6, r3, lsr #31
    850c:	e1a00880 	lsl	r0, r0, #17
    8510:	e19ae0b5 	ldrh	lr, [sl, r5]
    8514:	e198c0f5 	ldrsh	ip, [r8, r5]
    8518:	e0833fa0 	add	r3, r3, r0, lsr #31
    851c:	e59d0004 	ldr	r0, [sp, #4]
    8520:	e6ff3073 	uxth	r3, r3
    8524:	e08bb000 	add	fp, fp, r0
    8528:	e6ffc07c 	uxth	ip, ip
    852c:	e08e0002 	add	r0, lr, r2
    8530:	e59d6008 	ldr	r6, [sp, #8]
    8534:	e08ee001 	add	lr, lr, r1
    8538:	e04ee002 	sub	lr, lr, r2
    853c:	e04c2003 	sub	r2, ip, r3
    8540:	e08cc003 	add	ip, ip, r3
    8544:	e59d300c 	ldr	r3, [sp, #12]
    8548:	e0401001 	sub	r1, r0, r1
    854c:	e156000b 	cmp	r6, fp
    8550:	e18a10b4 	strh	r1, [sl, r4]
    8554:	e18820b4 	strh	r2, [r8, r4]
    8558:	e18ae0b5 	strh	lr, [sl, r5]
    855c:	e0844003 	add	r4, r4, r3
    8560:	e188c0b5 	strh	ip, [r8, r5]
    8564:	e0855003 	add	r5, r5, r3
    8568:	8affffd5 	bhi	84c4 <fft_fixed_cfft+0x240>
    856c:	eaffffc0 	b	8474 <fft_fixed_cfft+0x1f0>
    8570:	e3a0300f 	mov	r3, #15, 0
    8574:	e59f2010 	ldr	r2, [pc, #16]	; 858c <fft_fixed_cfft+0x308>
    8578:	e59f1010 	ldr	r1, [pc, #16]	; 8590 <fft_fixed_cfft+0x30c>
    857c:	e59f0010 	ldr	r0, [pc, #16]	; 8594 <fft_fixed_cfft+0x310>
    8580:	eb00000e 	bl	85c0 <printk>
    8584:	eb000200 	bl	8d8c <clean_reboot>
    8588:	000095fc 	strdeq	r9, [r0], -ip
    858c:	00009460 	andeq	r9, r0, r0, ror #8
    8590:	000093f8 	strdeq	r9, [r0], -r8
    8594:	00009400 	andeq	r9, r0, r0, lsl #8

00008598 <fft_fixed_rfft>:
    8598:	e3a0306a 	mov	r3, #106, 0	; 0x6a
    859c:	e92d4010 	push	{r4, lr}
    85a0:	e59f200c 	ldr	r2, [pc, #12]	; 85b4 <fft_fixed_rfft+0x1c>
    85a4:	e59f100c 	ldr	r1, [pc, #12]	; 85b8 <fft_fixed_rfft+0x20>
    85a8:	e59f000c 	ldr	r0, [pc, #12]	; 85bc <fft_fixed_rfft+0x24>
    85ac:	eb000003 	bl	85c0 <printk>
    85b0:	eb0001f5 	bl	8d8c <clean_reboot>
    85b4:	00009470 	andeq	r9, r0, r0, ror r4
    85b8:	000093f8 	strdeq	r9, [r0], -r8
    85bc:	00009430 	andeq	r9, r0, r0, lsr r4

000085c0 <printk>:
    85c0:	e92d000f 	push	{r0, r1, r2, r3}
    85c4:	e92d4030 	push	{r4, r5, lr}
    85c8:	e24dd00c 	sub	sp, sp, #12, 0
    85cc:	e28d301c 	add	r3, sp, #28, 0
    85d0:	e58d3004 	str	r3, [sp, #4]
    85d4:	e59f5034 	ldr	r5, [pc, #52]	; 8610 <printk+0x50>
    85d8:	e59d2018 	ldr	r2, [sp, #24]
    85dc:	e3a01b01 	mov	r1, #1024	; 0x400
    85e0:	e1a00005 	mov	r0, r5
    85e4:	eb0000ba 	bl	88d4 <va_printk>
    85e8:	e1a04000 	mov	r4, r0
    85ec:	e59f3020 	ldr	r3, [pc, #32]	; 8614 <printk+0x54>
    85f0:	e5933000 	ldr	r3, [r3]
    85f4:	e1a00005 	mov	r0, r5
    85f8:	e12fff33 	blx	r3
    85fc:	e1a00004 	mov	r0, r4
    8600:	e28dd00c 	add	sp, sp, #12, 0
    8604:	e8bd4030 	pop	{r4, r5, lr}
    8608:	e28dd010 	add	sp, sp, #16, 0
    860c:	e12fff1e 	bx	lr
    8610:	00009c04 	andeq	r9, r0, r4, lsl #24
    8614:	00009bfc 	strdeq	r9, [r0], -ip

00008618 <internal_putk>:
    8618:	e92d4010 	push	{r4, lr}
    861c:	e1a04000 	mov	r4, r0
    8620:	e5d40000 	ldrb	r0, [r4]
    8624:	e3500000 	cmp	r0, #0, 0
    8628:	0a000004 	beq	8640 <internal_putk+0x28>
    862c:	e59f3014 	ldr	r3, [pc, #20]	; 8648 <internal_putk+0x30>
    8630:	e5933000 	ldr	r3, [r3]
    8634:	e12fff33 	blx	r3
    8638:	e2844001 	add	r4, r4, #1, 0
    863c:	eafffff7 	b	8620 <internal_putk+0x8>
    8640:	e3a00001 	mov	r0, #1, 0
    8644:	e8bd8010 	pop	{r4, pc}
    8648:	00009c00 	andeq	r9, r0, r0, lsl #24

0000864c <isdigit>:
    864c:	e2400030 	sub	r0, r0, #48, 0	; 0x30
    8650:	e3500009 	cmp	r0, #9, 0
    8654:	83a00000 	movhi	r0, #0, 0
    8658:	93a00001 	movls	r0, #1, 0
    865c:	e12fff1e 	bx	lr

00008660 <pad>:
    8660:	e0401001 	sub	r1, r0, r1
    8664:	e1510002 	cmp	r1, r2
    8668:	b3a03020 	movlt	r3, #32, 0
    866c:	b4c03001 	strblt	r3, [r0], #1
    8670:	b2811001 	addlt	r1, r1, #1, 0
    8674:	bafffffa 	blt	8664 <pad+0x4>
    8678:	e3a03000 	mov	r3, #0, 0
    867c:	e5c03000 	strb	r3, [r0]
    8680:	e12fff1e 	bx	lr

00008684 <reverse>:
    8684:	e042c003 	sub	ip, r2, r3
    8688:	e28cc001 	add	ip, ip, #1, 0
    868c:	e15c0001 	cmp	ip, r1
    8690:	c04cc001 	subgt	ip, ip, r1
    8694:	c083300c 	addgt	r3, r3, ip
    8698:	e2421001 	sub	r1, r2, #1, 0
    869c:	e1a02000 	mov	r2, r0
    86a0:	e1510003 	cmp	r1, r3
    86a4:	2451c001 	ldrbcs	ip, [r1], #-1
    86a8:	24c2c001 	strbcs	ip, [r2], #1
    86ac:	2afffffb 	bcs	86a0 <reverse+0x1c>
    86b0:	e3a03000 	mov	r3, #0, 0
    86b4:	e5c23000 	strb	r3, [r2]
    86b8:	e12fff1e 	bx	lr

000086bc <emit>:
    86bc:	e92d40f0 	push	{r4, r5, r6, r7, lr}
    86c0:	e24dd04c 	sub	sp, sp, #76, 0	; 0x4c
    86c4:	e1a05001 	mov	r5, r1
    86c8:	e1a04002 	mov	r4, r2
    86cc:	e59d2060 	ldr	r2, [sp, #96]	; 0x60
    86d0:	e1520004 	cmp	r2, r4
    86d4:	c2442001 	subgt	r2, r4, #1, 0
    86d8:	e1a0c003 	mov	ip, r3
    86dc:	e2400002 	sub	r0, r0, #2, 0
    86e0:	e350000e 	cmp	r0, #14, 0
    86e4:	979ff100 	ldrls	pc, [pc, r0, lsl #2]
    86e8:	ea000050 	b	8830 <emit+0x174>
    86ec:	00008808 	andeq	r8, r0, r8, lsl #16
    86f0:	00008830 	andeq	r8, r0, r0, lsr r8
    86f4:	00008830 	andeq	r8, r0, r0, lsr r8
    86f8:	00008830 	andeq	r8, r0, r0, lsr r8
    86fc:	00008830 	andeq	r8, r0, r0, lsr r8
    8700:	00008830 	andeq	r8, r0, r0, lsr r8
    8704:	000087fc 	strdeq	r8, [r0], -ip
    8708:	00008830 	andeq	r8, r0, r0, lsr r8
    870c:	00008728 	andeq	r8, r0, r8, lsr #14
    8710:	00008830 	andeq	r8, r0, r0, lsr r8
    8714:	00008830 	andeq	r8, r0, r0, lsr r8
    8718:	00008830 	andeq	r8, r0, r0, lsr r8
    871c:	00008830 	andeq	r8, r0, r0, lsr r8
    8720:	00008830 	andeq	r8, r0, r0, lsr r8
    8724:	000087a0 	andeq	r8, r0, r0, lsr #15
    8728:	e59d1064 	ldr	r1, [sp, #100]	; 0x64
    872c:	e2511000 	subs	r1, r1, #0, 0
    8730:	13a01001 	movne	r1, #1, 0
    8734:	e0111fa3 	ands	r1, r1, r3, lsr #31
    8738:	0a000016 	beq	8798 <emit+0xdc>
    873c:	e263c000 	rsb	ip, r3, #0, 0
    8740:	e3a06001 	mov	r6, #1, 0
    8744:	e28d0008 	add	r0, sp, #8, 0
    8748:	e59f3100 	ldr	r3, [pc, #256]	; 8850 <emit+0x194>
    874c:	e0831c93 	umull	r1, r3, r3, ip
    8750:	e1a031a3 	lsr	r3, r3, #3
    8754:	e1a0e003 	mov	lr, r3
    8758:	e0833103 	add	r3, r3, r3, lsl #2
    875c:	e04c3083 	sub	r3, ip, r3, lsl #1
    8760:	e1a01000 	mov	r1, r0
    8764:	e2800001 	add	r0, r0, #1, 0
    8768:	e59f70e4 	ldr	r7, [pc, #228]	; 8854 <emit+0x198>
    876c:	e7d73003 	ldrb	r3, [r7, r3]
    8770:	e5c13000 	strb	r3, [r1]
    8774:	e1a0300c 	mov	r3, ip
    8778:	e1a0c00e 	mov	ip, lr
    877c:	e3530009 	cmp	r3, #9, 0
    8780:	8afffff0 	bhi	8748 <emit+0x8c>
    8784:	e3560000 	cmp	r6, #0, 0
    8788:	13a0302d 	movne	r3, #45, 0	; 0x2d
    878c:	15c03000 	strbne	r3, [r0]
    8790:	12810002 	addne	r0, r1, #2, 0
    8794:	ea00000f 	b	87d8 <emit+0x11c>
    8798:	e3a06000 	mov	r6, #0, 0
    879c:	eaffffe8 	b	8744 <emit+0x88>
    87a0:	e28d1008 	add	r1, sp, #8, 0
    87a4:	e20c000f 	and	r0, ip, #15, 0
    87a8:	e59fe0a8 	ldr	lr, [pc, #168]	; 8858 <emit+0x19c>
    87ac:	e7de0000 	ldrb	r0, [lr, r0]
    87b0:	e5c10000 	strb	r0, [r1]
    87b4:	e2811001 	add	r1, r1, #1, 0
    87b8:	e35c000f 	cmp	ip, #15, 0
    87bc:	e1a0c22c 	lsr	ip, ip, #4
    87c0:	8afffff7 	bhi	87a4 <emit+0xe8>
    87c4:	e1a00001 	mov	r0, r1
    87c8:	e3a03078 	mov	r3, #120, 0	; 0x78
    87cc:	e4c03002 	strb	r3, [r0], #2
    87d0:	e3a03030 	mov	r3, #48, 0	; 0x30
    87d4:	e5c13001 	strb	r3, [r1, #1]
    87d8:	e28d1008 	add	r1, sp, #8, 0
    87dc:	ebffff9f 	bl	8660 <pad>
    87e0:	e1a02000 	mov	r2, r0
    87e4:	e28d3008 	add	r3, sp, #8, 0
    87e8:	e1a01004 	mov	r1, r4
    87ec:	e1a00005 	mov	r0, r5
    87f0:	ebffffa3 	bl	8684 <reverse>
    87f4:	e28dd04c 	add	sp, sp, #76, 0	; 0x4c
    87f8:	e8bd80f0 	pop	{r4, r5, r6, r7, pc}
    87fc:	e5cd3008 	strb	r3, [sp, #8]
    8800:	e28d0009 	add	r0, sp, #9, 0
    8804:	eafffff3 	b	87d8 <emit+0x11c>
    8808:	e28d0008 	add	r0, sp, #8, 0
    880c:	e20c1001 	and	r1, ip, #1, 0
    8810:	e59fe044 	ldr	lr, [pc, #68]	; 885c <emit+0x1a0>
    8814:	e7de1001 	ldrb	r1, [lr, r1]
    8818:	e5c01000 	strb	r1, [r0]
    881c:	e2800001 	add	r0, r0, #1, 0
    8820:	e35c0001 	cmp	ip, #1, 0
    8824:	e1a0c0ac 	lsr	ip, ip, #1
    8828:	8afffff7 	bhi	880c <emit+0x150>
    882c:	eaffffe9 	b	87d8 <emit+0x11c>
    8830:	e59f3028 	ldr	r3, [pc, #40]	; 8860 <emit+0x1a4>
    8834:	e58d3000 	str	r3, [sp]
    8838:	e3a03079 	mov	r3, #121, 0	; 0x79
    883c:	e59f2020 	ldr	r2, [pc, #32]	; 8864 <emit+0x1a8>
    8840:	e59f1020 	ldr	r1, [pc, #32]	; 8868 <emit+0x1ac>
    8844:	e59f0020 	ldr	r0, [pc, #32]	; 886c <emit+0x1b0>
    8848:	ebffff5c 	bl	85c0 <printk>
    884c:	eb00014e 	bl	8d8c <clean_reboot>
    8850:	cccccccd 	stclgt	12, cr12, [ip], {205}	; 0xcd
    8854:	00009498 	muleq	r0, r8, r4
    8858:	000094a4 	andeq	r9, r0, r4, lsr #9
    885c:	000094b8 			; <UNDEFINED> instruction: 0x000094b8
    8860:	00009494 	muleq	r0, r4, r4
    8864:	000095c4 	andeq	r9, r0, r4, asr #11
    8868:	00009480 	andeq	r9, r0, r0, lsl #9
    886c:	00009388 	andeq	r9, r0, r8, lsl #7

00008870 <rpi_set_output>:
    8870:	e3500000 	cmp	r0, #0, 0
    8874:	0a000006 	beq	8894 <rpi_set_output+0x24>
    8878:	e59f303c 	ldr	r3, [pc, #60]	; 88bc <rpi_set_output+0x4c>
    887c:	e5830000 	str	r0, [r3]
    8880:	e3510000 	cmp	r1, #0, 0
    8884:	012fff1e 	bxeq	lr
    8888:	e59f3030 	ldr	r3, [pc, #48]	; 88c0 <rpi_set_output+0x50>
    888c:	e5831000 	str	r1, [r3]
    8890:	e12fff1e 	bx	lr
    8894:	e52de004 	push	{lr}		; (str lr, [sp, #-4]!)
    8898:	e24dd00c 	sub	sp, sp, #12, 0
    889c:	e59f3020 	ldr	r3, [pc, #32]	; 88c4 <rpi_set_output+0x54>
    88a0:	e58d3000 	str	r3, [sp]
    88a4:	e3a03020 	mov	r3, #32, 0
    88a8:	e59f2018 	ldr	r2, [pc, #24]	; 88c8 <rpi_set_output+0x58>
    88ac:	e59f1018 	ldr	r1, [pc, #24]	; 88cc <rpi_set_output+0x5c>
    88b0:	e59f0018 	ldr	r0, [pc, #24]	; 88d0 <rpi_set_output+0x60>
    88b4:	ebffff41 	bl	85c0 <printk>
    88b8:	eb000133 	bl	8d8c <clean_reboot>
    88bc:	00009c00 	andeq	r9, r0, r0, lsl #24
    88c0:	00009bfc 	strdeq	r9, [r0], -ip
    88c4:	000094bc 			; <UNDEFINED> instruction: 0x000094bc
    88c8:	000095cc 	andeq	r9, r0, ip, asr #11
    88cc:	00009480 	andeq	r9, r0, r0, lsl #9
    88d0:	00009388 	andeq	r9, r0, r8, lsl #7

000088d4 <va_printk>:
    88d4:	e92d4ff0 	push	{r4, r5, r6, r7, r8, r9, sl, fp, lr}
    88d8:	e24ddf45 	sub	sp, sp, #276	; 0x114
    88dc:	e1a09000 	mov	r9, r0
    88e0:	e58d2008 	str	r2, [sp, #8]
    88e4:	e58d300c 	str	r3, [sp, #12]
    88e8:	e2411001 	sub	r1, r1, #1, 0
    88ec:	e0808001 	add	r8, r0, r1
    88f0:	e3a03000 	mov	r3, #0, 0
    88f4:	e5c03000 	strb	r3, [r0]
    88f8:	e1a04000 	mov	r4, r0
    88fc:	e1a06002 	mov	r6, r2
    8900:	ea000001 	b	890c <va_printk+0x38>
    8904:	e2866001 	add	r6, r6, #1, 0
    8908:	e4c43001 	strb	r3, [r4], #1
    890c:	e5d63000 	ldrb	r3, [r6]
    8910:	e3530000 	cmp	r3, #0, 0
    8914:	0a000108 	beq	8d3c <va_printk+0x468>
    8918:	e1540008 	cmp	r4, r8
    891c:	2a000106 	bcs	8d3c <va_printk+0x468>
    8920:	e3530025 	cmp	r3, #37, 0	; 0x25
    8924:	1afffff6 	bne	8904 <va_printk+0x30>
    8928:	e5d62001 	ldrb	r2, [r6, #1]
    892c:	e3520025 	cmp	r2, #37, 0	; 0x25
    8930:	04c43001 	strbeq	r3, [r4], #1
    8934:	02866002 	addeq	r6, r6, #2, 0
    8938:	0afffff3 	beq	890c <va_printk+0x38>
    893c:	e2866001 	add	r6, r6, #1, 0
    8940:	e3a05000 	mov	r5, #0, 0
    8944:	e5d67000 	ldrb	r7, [r6]
    8948:	e1a0a007 	mov	sl, r7
    894c:	e1a00007 	mov	r0, r7
    8950:	ebffff3d 	bl	864c <isdigit>
    8954:	e3500000 	cmp	r0, #0, 0
    8958:	0a000004 	beq	8970 <va_printk+0x9c>
    895c:	e0855105 	add	r5, r5, r5, lsl #2
    8960:	e0875085 	add	r5, r7, r5, lsl #1
    8964:	e2455030 	sub	r5, r5, #48, 0	; 0x30
    8968:	e2866001 	add	r6, r6, #1, 0
    896c:	eafffff4 	b	8944 <va_printk+0x70>
    8970:	e355001f 	cmp	r5, #31, 0
    8974:	8a00001a 	bhi	89e4 <va_printk+0x110>
    8978:	e2477062 	sub	r7, r7, #98, 0	; 0x62
    897c:	e3570016 	cmp	r7, #22, 0
    8980:	979ff107 	ldrls	pc, [pc, r7, lsl #2]
    8984:	ea0000d4 	b	8cdc <va_printk+0x408>
    8988:	00008c60 	andeq	r8, r0, r0, ror #24
    898c:	00008ca8 	andeq	r8, r0, r8, lsr #25
    8990:	00008bc0 	andeq	r8, r0, r0, asr #23
    8994:	00008cdc 	ldrdeq	r8, [r0], -ip
    8998:	00008ba8 	andeq	r8, r0, r8, lsr #23
    899c:	00008cdc 	ldrdeq	r8, [r0], -ip
    89a0:	00008cdc 	ldrdeq	r8, [r0], -ip
    89a4:	00008cdc 	ldrdeq	r8, [r0], -ip
    89a8:	00008cdc 	ldrdeq	r8, [r0], -ip
    89ac:	00008cdc 	ldrdeq	r8, [r0], -ip
    89b0:	00008a04 	andeq	r8, r0, r4, lsl #20
    89b4:	00008cdc 	ldrdeq	r8, [r0], -ip
    89b8:	00008cdc 	ldrdeq	r8, [r0], -ip
    89bc:	00008cdc 	ldrdeq	r8, [r0], -ip
    89c0:	00008c2c 	andeq	r8, r0, ip, lsr #24
    89c4:	00008cdc 	ldrdeq	r8, [r0], -ip
    89c8:	00008cdc 	ldrdeq	r8, [r0], -ip
    89cc:	00008c94 	muleq	r0, r4, ip
    89d0:	00008cdc 	ldrdeq	r8, [r0], -ip
    89d4:	00008bf8 	strdeq	r8, [r0], -r8	; <UNPREDICTABLE>
    89d8:	00008cdc 	ldrdeq	r8, [r0], -ip
    89dc:	00008cdc 	ldrdeq	r8, [r0], -ip
    89e0:	00008c2c 	andeq	r8, r0, ip, lsr #24
    89e4:	e59f3364 	ldr	r3, [pc, #868]	; 8d50 <va_printk+0x47c>
    89e8:	e58d3000 	str	r3, [sp]
    89ec:	e3a03098 	mov	r3, #152, 0	; 0x98
    89f0:	e59f235c 	ldr	r2, [pc, #860]	; 8d54 <va_printk+0x480>
    89f4:	e59f135c 	ldr	r1, [pc, #860]	; 8d58 <va_printk+0x484>
    89f8:	e59f035c 	ldr	r0, [pc, #860]	; 8d5c <va_printk+0x488>
    89fc:	ebfffeef 	bl	85c0 <printk>
    8a00:	eb0000e1 	bl	8d8c <clean_reboot>
    8a04:	e3a02003 	mov	r2, #3, 0
    8a08:	e59f1350 	ldr	r1, [pc, #848]	; 8d60 <va_printk+0x48c>
    8a0c:	e1a00006 	mov	r0, r6
    8a10:	eb000231 	bl	92dc <strncmp>
    8a14:	e3500000 	cmp	r0, #0, 0
    8a18:	0a000005 	beq	8a34 <va_printk+0x160>
    8a1c:	e3a02003 	mov	r2, #3, 0
    8a20:	e59f133c 	ldr	r1, [pc, #828]	; 8d64 <va_printk+0x490>
    8a24:	e1a00006 	mov	r0, r6
    8a28:	eb00022b 	bl	92dc <strncmp>
    8a2c:	e3500000 	cmp	r0, #0, 0
    8a30:	1a000033 	bne	8b04 <va_printk+0x230>
    8a34:	e286b002 	add	fp, r6, #2, 0
    8a38:	e59d300c 	ldr	r3, [sp, #12]
    8a3c:	e2833007 	add	r3, r3, #7, 0
    8a40:	e3c33007 	bic	r3, r3, #7, 0
    8a44:	e2832008 	add	r2, r3, #8, 0
    8a48:	e58d200c 	str	r2, [sp, #12]
    8a4c:	e593a000 	ldr	sl, [r3]
    8a50:	e5937004 	ldr	r7, [r3, #4]
    8a54:	e1a01007 	mov	r1, r7
    8a58:	e59f0308 	ldr	r0, [pc, #776]	; 8d68 <va_printk+0x494>
    8a5c:	ebfffed7 	bl	85c0 <printk>
    8a60:	e1a0100a 	mov	r1, sl
    8a64:	e59f0300 	ldr	r0, [pc, #768]	; 8d6c <va_printk+0x498>
    8a68:	ebfffed4 	bl	85c0 <printk>
    8a6c:	e3a02003 	mov	r2, #3, 0
    8a70:	e59f12e8 	ldr	r1, [pc, #744]	; 8d60 <va_printk+0x48c>
    8a74:	e1a00006 	mov	r0, r6
    8a78:	eb000217 	bl	92dc <strncmp>
    8a7c:	e3500000 	cmp	r0, #0, 0
    8a80:	0a000027 	beq	8b24 <va_printk+0x250>
    8a84:	e3a02003 	mov	r2, #3, 0
    8a88:	e59f12d4 	ldr	r1, [pc, #724]	; 8d64 <va_printk+0x490>
    8a8c:	e1a00006 	mov	r0, r6
    8a90:	eb000211 	bl	92dc <strncmp>
    8a94:	e3500000 	cmp	r0, #0, 0
    8a98:	1a00003b 	bne	8b8c <va_printk+0x2b8>
    8a9c:	e3a06000 	mov	r6, #0, 0
    8aa0:	e58d6004 	str	r6, [sp, #4]
    8aa4:	e58d5000 	str	r5, [sp]
    8aa8:	e1a03007 	mov	r3, r7
    8aac:	e3a02080 	mov	r2, #128, 0	; 0x80
    8ab0:	e28d1010 	add	r1, sp, #16, 0
    8ab4:	e3a0000a 	mov	r0, #10, 0
    8ab8:	ebfffeff 	bl	86bc <emit>
    8abc:	e1a07000 	mov	r7, r0
    8ac0:	e58d6004 	str	r6, [sp, #4]
    8ac4:	e58d5000 	str	r5, [sp]
    8ac8:	e1a0300a 	mov	r3, sl
    8acc:	e3a02080 	mov	r2, #128, 0	; 0x80
    8ad0:	e28d1090 	add	r1, sp, #144, 0	; 0x90
    8ad4:	e3a0000a 	mov	r0, #10, 0
    8ad8:	ebfffef7 	bl	86bc <emit>
    8adc:	e59f128c 	ldr	r1, [pc, #652]	; 8d70 <va_printk+0x49c>
    8ae0:	e28d0010 	add	r0, sp, #16, 0
    8ae4:	eb0001e9 	bl	9290 <strcmp>
    8ae8:	e1500006 	cmp	r0, r6
    8aec:	1a000021 	bne	8b78 <va_printk+0x2a4>
    8af0:	e28d1090 	add	r1, sp, #144, 0	; 0x90
    8af4:	e28d0010 	add	r0, sp, #16, 0
    8af8:	eb0001ef 	bl	92bc <strcpy>
    8afc:	e1a0600b 	mov	r6, fp
    8b00:	ea00003a 	b	8bf0 <va_printk+0x31c>
    8b04:	e59f3268 	ldr	r3, [pc, #616]	; 8d74 <va_printk+0x4a0>
    8b08:	e58d3000 	str	r3, [sp]
    8b0c:	e3a0309f 	mov	r3, #159, 0	; 0x9f
    8b10:	e59f223c 	ldr	r2, [pc, #572]	; 8d54 <va_printk+0x480>
    8b14:	e59f123c 	ldr	r1, [pc, #572]	; 8d58 <va_printk+0x484>
    8b18:	e59f023c 	ldr	r0, [pc, #572]	; 8d5c <va_printk+0x488>
    8b1c:	ebfffea7 	bl	85c0 <printk>
    8b20:	eb000099 	bl	8d8c <clean_reboot>
    8b24:	e3a06000 	mov	r6, #0, 0
    8b28:	e58d6004 	str	r6, [sp, #4]
    8b2c:	e58d5000 	str	r5, [sp]
    8b30:	e1a03007 	mov	r3, r7
    8b34:	e3a02080 	mov	r2, #128, 0	; 0x80
    8b38:	e28d1010 	add	r1, sp, #16, 0
    8b3c:	e3a00010 	mov	r0, #16, 0
    8b40:	ebfffedd 	bl	86bc <emit>
    8b44:	e1a07000 	mov	r7, r0
    8b48:	e58d6004 	str	r6, [sp, #4]
    8b4c:	e58d5000 	str	r5, [sp]
    8b50:	e1a0300a 	mov	r3, sl
    8b54:	e3a02080 	mov	r2, #128, 0	; 0x80
    8b58:	e28d1090 	add	r1, sp, #144, 0	; 0x90
    8b5c:	e3a00010 	mov	r0, #16, 0
    8b60:	ebfffed5 	bl	86bc <emit>
    8b64:	e28d1092 	add	r1, sp, #146, 0	; 0x92
    8b68:	e28d0010 	add	r0, sp, #16, 0
    8b6c:	eb0001ba 	bl	925c <strcat>
    8b70:	e1a0600b 	mov	r6, fp
    8b74:	ea00001d 	b	8bf0 <va_printk+0x31c>
    8b78:	e28d1090 	add	r1, sp, #144, 0	; 0x90
    8b7c:	e28d0010 	add	r0, sp, #16, 0
    8b80:	eb0001b5 	bl	925c <strcat>
    8b84:	e1a0600b 	mov	r6, fp
    8b88:	ea000018 	b	8bf0 <va_printk+0x31c>
    8b8c:	e58d6000 	str	r6, [sp]
    8b90:	e3a030b6 	mov	r3, #182, 0	; 0xb6
    8b94:	e59f21b8 	ldr	r2, [pc, #440]	; 8d54 <va_printk+0x480>
    8b98:	e59f11b8 	ldr	r1, [pc, #440]	; 8d58 <va_printk+0x484>
    8b9c:	e59f01d4 	ldr	r0, [pc, #468]	; 8d78 <va_printk+0x4a4>
    8ba0:	ebfffe86 	bl	85c0 <printk>
    8ba4:	eb000078 	bl	8d8c <clean_reboot>
    8ba8:	e3a030be 	mov	r3, #190, 0	; 0xbe
    8bac:	e59f21a0 	ldr	r2, [pc, #416]	; 8d54 <va_printk+0x480>
    8bb0:	e59f11a0 	ldr	r1, [pc, #416]	; 8d58 <va_printk+0x484>
    8bb4:	e59f01c0 	ldr	r0, [pc, #448]	; 8d7c <va_printk+0x4a8>
    8bb8:	ebfffe80 	bl	85c0 <printk>
    8bbc:	eb000072 	bl	8d8c <clean_reboot>
    8bc0:	e59d300c 	ldr	r3, [sp, #12]
    8bc4:	e2832004 	add	r2, r3, #4, 0
    8bc8:	e58d200c 	str	r2, [sp, #12]
    8bcc:	e5933000 	ldr	r3, [r3]
    8bd0:	e3a02001 	mov	r2, #1, 0
    8bd4:	e58d2004 	str	r2, [sp, #4]
    8bd8:	e58d5000 	str	r5, [sp]
    8bdc:	e3a02080 	mov	r2, #128, 0	; 0x80
    8be0:	e28d1010 	add	r1, sp, #16, 0
    8be4:	e3a0000a 	mov	r0, #10, 0
    8be8:	ebfffeb3 	bl	86bc <emit>
    8bec:	e1a07000 	mov	r7, r0
    8bf0:	e2866001 	add	r6, r6, #1, 0
    8bf4:	ea00004a 	b	8d24 <va_printk+0x450>
    8bf8:	e59d300c 	ldr	r3, [sp, #12]
    8bfc:	e2832004 	add	r2, r3, #4, 0
    8c00:	e58d200c 	str	r2, [sp, #12]
    8c04:	e5933000 	ldr	r3, [r3]
    8c08:	e3a02000 	mov	r2, #0, 0
    8c0c:	e58d2004 	str	r2, [sp, #4]
    8c10:	e58d5000 	str	r5, [sp]
    8c14:	e3a02080 	mov	r2, #128, 0	; 0x80
    8c18:	e28d1010 	add	r1, sp, #16, 0
    8c1c:	e3a0000a 	mov	r0, #10, 0
    8c20:	ebfffea5 	bl	86bc <emit>
    8c24:	e1a07000 	mov	r7, r0
    8c28:	eafffff0 	b	8bf0 <va_printk+0x31c>
    8c2c:	e59d300c 	ldr	r3, [sp, #12]
    8c30:	e2832004 	add	r2, r3, #4, 0
    8c34:	e58d200c 	str	r2, [sp, #12]
    8c38:	e5933000 	ldr	r3, [r3]
    8c3c:	e3a02000 	mov	r2, #0, 0
    8c40:	e58d2004 	str	r2, [sp, #4]
    8c44:	e58d5000 	str	r5, [sp]
    8c48:	e3a02080 	mov	r2, #128, 0	; 0x80
    8c4c:	e28d1010 	add	r1, sp, #16, 0
    8c50:	e3a00010 	mov	r0, #16, 0
    8c54:	ebfffe98 	bl	86bc <emit>
    8c58:	e1a07000 	mov	r7, r0
    8c5c:	eaffffe3 	b	8bf0 <va_printk+0x31c>
    8c60:	e59d300c 	ldr	r3, [sp, #12]
    8c64:	e2832004 	add	r2, r3, #4, 0
    8c68:	e58d200c 	str	r2, [sp, #12]
    8c6c:	e5933000 	ldr	r3, [r3]
    8c70:	e3a02000 	mov	r2, #0, 0
    8c74:	e58d2004 	str	r2, [sp, #4]
    8c78:	e58d5000 	str	r5, [sp]
    8c7c:	e3a02080 	mov	r2, #128, 0	; 0x80
    8c80:	e28d1010 	add	r1, sp, #16, 0
    8c84:	e3a00002 	mov	r0, #2, 0
    8c88:	ebfffe8b 	bl	86bc <emit>
    8c8c:	e1a07000 	mov	r7, r0
    8c90:	eaffffd6 	b	8bf0 <va_printk+0x31c>
    8c94:	e59d300c 	ldr	r3, [sp, #12]
    8c98:	e2832004 	add	r2, r3, #4, 0
    8c9c:	e58d200c 	str	r2, [sp, #12]
    8ca0:	e5937000 	ldr	r7, [r3]
    8ca4:	eaffffd1 	b	8bf0 <va_printk+0x31c>
    8ca8:	e59d300c 	ldr	r3, [sp, #12]
    8cac:	e2832004 	add	r2, r3, #4, 0
    8cb0:	e58d200c 	str	r2, [sp, #12]
    8cb4:	e5933000 	ldr	r3, [r3]
    8cb8:	e3a02000 	mov	r2, #0, 0
    8cbc:	e58d2004 	str	r2, [sp, #4]
    8cc0:	e58d5000 	str	r5, [sp]
    8cc4:	e3a02080 	mov	r2, #128, 0	; 0x80
    8cc8:	e28d1010 	add	r1, sp, #16, 0
    8ccc:	e3a00008 	mov	r0, #8, 0
    8cd0:	ebfffe79 	bl	86bc <emit>
    8cd4:	e1a07000 	mov	r7, r0
    8cd8:	eaffffc4 	b	8bf0 <va_printk+0x31c>
    8cdc:	e3a03000 	mov	r3, #0, 0
    8ce0:	e5c63001 	strb	r3, [r6, #1]
    8ce4:	e1a0200a 	mov	r2, sl
    8ce8:	e1a0100a 	mov	r1, sl
    8cec:	e59f008c 	ldr	r0, [pc, #140]	; 8d80 <va_printk+0x4ac>
    8cf0:	ebfffe32 	bl	85c0 <printk>
    8cf4:	e59f3088 	ldr	r3, [pc, #136]	; 8d84 <va_printk+0x4b0>
    8cf8:	e5933000 	ldr	r3, [r3]
    8cfc:	e59d0008 	ldr	r0, [sp, #8]
    8d00:	e12fff33 	blx	r3
    8d04:	e3a030e2 	mov	r3, #226, 0	; 0xe2
    8d08:	e59f2044 	ldr	r2, [pc, #68]	; 8d54 <va_printk+0x480>
    8d0c:	e59f1044 	ldr	r1, [pc, #68]	; 8d58 <va_printk+0x484>
    8d10:	e59f0070 	ldr	r0, [pc, #112]	; 8d88 <va_printk+0x4b4>
    8d14:	ebfffe29 	bl	85c0 <printk>
    8d18:	eb00001b 	bl	8d8c <clean_reboot>
    8d1c:	e2877001 	add	r7, r7, #1, 0
    8d20:	e4c43001 	strb	r3, [r4], #1
    8d24:	e1540008 	cmp	r4, r8
    8d28:	2afffef7 	bcs	890c <va_printk+0x38>
    8d2c:	e5d73000 	ldrb	r3, [r7]
    8d30:	e3530000 	cmp	r3, #0, 0
    8d34:	1afffff8 	bne	8d1c <va_printk+0x448>
    8d38:	eafffef3 	b	890c <va_printk+0x38>
    8d3c:	e3a03000 	mov	r3, #0, 0
    8d40:	e4c43001 	strb	r3, [r4], #1
    8d44:	e0440009 	sub	r0, r4, r9
    8d48:	e28ddf45 	add	sp, sp, #276	; 0x114
    8d4c:	e8bd8ff0 	pop	{r4, r5, r6, r7, r8, r9, sl, fp, pc}
    8d50:	000094c4 	andeq	r9, r0, r4, asr #9
    8d54:	000095dc 	ldrdeq	r9, [r0], -ip
    8d58:	00009480 	andeq	r9, r0, r0, lsl #9
    8d5c:	00009388 	andeq	r9, r0, r8, lsl #7
    8d60:	000094d0 	ldrdeq	r9, [r0], -r0
    8d64:	000094d4 	ldrdeq	r9, [r0], -r4
    8d68:	000094d8 	ldrdeq	r9, [r0], -r8
    8d6c:	000094e0 	andeq	r9, r0, r0, ror #9
    8d70:	00009494 	muleq	r0, r4, r4
    8d74:	000094e8 	andeq	r9, r0, r8, ror #9
    8d78:	00009524 	andeq	r9, r0, r4, lsr #10
    8d7c:	0000954c 	andeq	r9, r0, ip, asr #10
    8d80:	00009574 	andeq	r9, r0, r4, ror r5
    8d84:	00009bfc 	strdeq	r9, [r0], -ip
    8d88:	000095a4 	andeq	r9, r0, r4, lsr #11

00008d8c <clean_reboot>:
    8d8c:	e92d4010 	push	{r4, lr}
    8d90:	e59f3018 	ldr	r3, [pc, #24]	; 8db0 <clean_reboot+0x24>
    8d94:	e5933000 	ldr	r3, [r3]
    8d98:	e59f0014 	ldr	r0, [pc, #20]	; 8db4 <clean_reboot+0x28>
    8d9c:	e12fff33 	blx	r3
    8da0:	eb000110 	bl	91e8 <uart_flush_tx>
    8da4:	e3a0000a 	mov	r0, #10, 0
    8da8:	eb00004d 	bl	8ee4 <delay_ms>
    8dac:	eb000022 	bl	8e3c <rpi_reboot>
    8db0:	00009bfc 	strdeq	r9, [r0], -ip
    8db4:	000095e8 	andeq	r9, r0, r8, ror #11

00008db8 <_cstart>:
    8db8:	e92d4010 	push	{r4, lr}
    8dbc:	eb00000c 	bl	8df4 <custom_loader>
    8dc0:	e59f3024 	ldr	r3, [pc, #36]	; 8dec <_cstart+0x34>
    8dc4:	e59f2024 	ldr	r2, [pc, #36]	; 8df0 <_cstart+0x38>
    8dc8:	e1530002 	cmp	r3, r2
    8dcc:	33a02000 	movcc	r2, #0, 0
    8dd0:	34832004 	strcc	r2, [r3], #4
    8dd4:	3afffffa 	bcc	8dc4 <_cstart+0xc>
    8dd8:	eb0000a4 	bl	9070 <uart_init>
    8ddc:	e3a03001 	mov	r3, #1, 0
    8de0:	ee0f3f1c 	mcr	15, 0, r3, cr15, cr12, {0}
    8de4:	ebfffc93 	bl	8038 <notmain>
    8de8:	ebffffe7 	bl	8d8c <clean_reboot>
    8dec:	00009c04 	andeq	r9, r0, r4, lsl #24
    8df0:	0000a008 	andeq	sl, r0, r8

00008df4 <custom_loader>:
    8df4:	e12fff1e 	bx	lr

00008df8 <dev_barrier>:
    8df8:	ea000002 	b	8e08 <dsb>

00008dfc <dmb>:
    8dfc:	e3a00000 	mov	r0, #0, 0
    8e00:	ee070fba 	mcr	15, 0, r0, cr7, cr10, {5}
    8e04:	e12fff1e 	bx	lr

00008e08 <dsb>:
    8e08:	ee070f9a 	mcr	15, 0, r0, cr7, cr10, {4}
    8e0c:	e12fff1e 	bx	lr

00008e10 <at_user_level>:
    8e10:	e10f0000 	mrs	r0, CPSR
    8e14:	e200001f 	and	r0, r0, #31, 0
    8e18:	e3500010 	cmp	r0, #16, 0
    8e1c:	13a00000 	movne	r0, #0, 0
    8e20:	03a00001 	moveq	r0, #1, 0
    8e24:	e12fff1e 	bx	lr

00008e28 <set_user_level>:
    8e28:	e10f3000 	mrs	r3, CPSR
    8e2c:	e3c3301f 	bic	r3, r3, #31, 0
    8e30:	e3833010 	orr	r3, r3, #16, 0
    8e34:	e129f003 	msr	CPSR_fc, r3
    8e38:	e12fff1e 	bx	lr

00008e3c <rpi_reboot>:
    8e3c:	e92d4010 	push	{r4, lr}
    8e40:	ebfffff2 	bl	8e10 <at_user_level>
    8e44:	e3500000 	cmp	r0, #0, 0
    8e48:	1a00000a 	bne	8e78 <rpi_reboot+0x3c>
    8e4c:	eb00012d 	bl	9308 <reboot_callout>
    8e50:	eb0000e4 	bl	91e8 <uart_flush_tx>
    8e54:	e3a0000a 	mov	r0, #10, 0
    8e58:	eb000021 	bl	8ee4 <delay_ms>
    8e5c:	e59f101c 	ldr	r1, [pc, #28]	; 8e80 <rpi_reboot+0x44>
    8e60:	e59f001c 	ldr	r0, [pc, #28]	; 8e84 <rpi_reboot+0x48>
    8e64:	ebfffc6e 	bl	8024 <PUT32>
    8e68:	e59f1018 	ldr	r1, [pc, #24]	; 8e88 <rpi_reboot+0x4c>
    8e6c:	e59f0018 	ldr	r0, [pc, #24]	; 8e8c <rpi_reboot+0x50>
    8e70:	ebfffc6b 	bl	8024 <PUT32>
    8e74:	eafffffe 	b	8e74 <rpi_reboot+0x38>
    8e78:	ebffffea 	bl	8e28 <set_user_level>
    8e7c:	eafffff2 	b	8e4c <rpi_reboot+0x10>
    8e80:	5a000001 	bpl	8e8c <rpi_reboot+0x50>
    8e84:	20100024 	andscs	r0, r0, r4, lsr #32
    8e88:	5a000020 	bpl	8f10 <delay_sec+0x14>
    8e8c:	2010001c 	andscs	r0, r0, ip, lsl r0

00008e90 <timer_get_usec_raw>:
    8e90:	e92d4010 	push	{r4, lr}
    8e94:	e59f0004 	ldr	r0, [pc, #4]	; 8ea0 <timer_get_usec_raw+0x10>
    8e98:	ebfffc63 	bl	802c <GET32>
    8e9c:	e8bd8010 	pop	{r4, pc}
    8ea0:	20003004 	andcs	r3, r0, r4

00008ea4 <timer_get_usec>:
    8ea4:	e92d4010 	push	{r4, lr}
    8ea8:	ebffffd2 	bl	8df8 <dev_barrier>
    8eac:	ebfffff7 	bl	8e90 <timer_get_usec_raw>
    8eb0:	e1a04000 	mov	r4, r0
    8eb4:	ebffffcf 	bl	8df8 <dev_barrier>
    8eb8:	e1a00004 	mov	r0, r4
    8ebc:	e8bd8010 	pop	{r4, pc}

00008ec0 <delay_us>:
    8ec0:	e92d4070 	push	{r4, r5, r6, lr}
    8ec4:	e1a05000 	mov	r5, r0
    8ec8:	ebfffff5 	bl	8ea4 <timer_get_usec>
    8ecc:	e1a04000 	mov	r4, r0
    8ed0:	ebfffff3 	bl	8ea4 <timer_get_usec>
    8ed4:	e0400004 	sub	r0, r0, r4
    8ed8:	e1500005 	cmp	r0, r5
    8edc:	3afffffb 	bcc	8ed0 <delay_us+0x10>
    8ee0:	e8bd8070 	pop	{r4, r5, r6, pc}

00008ee4 <delay_ms>:
    8ee4:	e92d4010 	push	{r4, lr}
    8ee8:	e0603280 	rsb	r3, r0, r0, lsl #5
    8eec:	e0800103 	add	r0, r0, r3, lsl #2
    8ef0:	e1a00180 	lsl	r0, r0, #3
    8ef4:	ebfffff1 	bl	8ec0 <delay_us>
    8ef8:	e8bd8010 	pop	{r4, pc}

00008efc <delay_sec>:
    8efc:	e92d4010 	push	{r4, lr}
    8f00:	e0603280 	rsb	r3, r0, r0, lsl #5
    8f04:	e0800103 	add	r0, r0, r3, lsl #2
    8f08:	e1a00180 	lsl	r0, r0, #3
    8f0c:	ebfffff4 	bl	8ee4 <delay_ms>
    8f10:	e8bd8010 	pop	{r4, pc}

00008f14 <gpio_set_function>:
    8f14:	e350001f 	cmp	r0, #31, 0
    8f18:	812fff1e 	bxhi	lr
    8f1c:	e92d4070 	push	{r4, r5, r6, lr}
    8f20:	e1a05001 	mov	r5, r1
    8f24:	e3d13007 	bics	r3, r1, #7, 0
    8f28:	18bd8070 	popne	{r4, r5, r6, pc}
    8f2c:	e59f3040 	ldr	r3, [pc, #64]	; 8f74 <gpio_set_function+0x60>
    8f30:	e0832093 	umull	r2, r3, r3, r0
    8f34:	e1a031a3 	lsr	r3, r3, #3
    8f38:	e1a02003 	mov	r2, r3
    8f3c:	e0833103 	add	r3, r3, r3, lsl #2
    8f40:	e0403083 	sub	r3, r0, r3, lsl #1
    8f44:	e0834083 	add	r4, r3, r3, lsl #1
    8f48:	e2820302 	add	r0, r2, #134217728	; 0x8000000
    8f4c:	e2800702 	add	r0, r0, #524288	; 0x80000
    8f50:	e1a06100 	lsl	r6, r0, #2
    8f54:	e1a00006 	mov	r0, r6
    8f58:	ebfffc33 	bl	802c <GET32>
    8f5c:	e3a01007 	mov	r1, #7, 0
    8f60:	e1c01411 	bic	r1, r0, r1, lsl r4
    8f64:	e1811415 	orr	r1, r1, r5, lsl r4
    8f68:	e1a00006 	mov	r0, r6
    8f6c:	ebfffc2c 	bl	8024 <PUT32>
    8f70:	e8bd8070 	pop	{r4, r5, r6, pc}
    8f74:	cccccccd 	stclgt	12, cr12, [ip], {205}	; 0xcd

00008f78 <gpio_set_output>:
    8f78:	e92d4010 	push	{r4, lr}
    8f7c:	e3a01001 	mov	r1, #1, 0
    8f80:	ebffffe3 	bl	8f14 <gpio_set_function>
    8f84:	e8bd8010 	pop	{r4, pc}

00008f88 <gpio_set_on>:
    8f88:	e350001f 	cmp	r0, #31, 0
    8f8c:	812fff1e 	bxhi	lr
    8f90:	e92d4010 	push	{r4, lr}
    8f94:	e3a01001 	mov	r1, #1, 0
    8f98:	e1a01011 	lsl	r1, r1, r0
    8f9c:	e59f0004 	ldr	r0, [pc, #4]	; 8fa8 <gpio_set_on+0x20>
    8fa0:	ebfffc1f 	bl	8024 <PUT32>
    8fa4:	e8bd8010 	pop	{r4, pc}
    8fa8:	2020001c 	eorcs	r0, r0, ip, lsl r0

00008fac <gpio_set_off>:
    8fac:	e350001f 	cmp	r0, #31, 0
    8fb0:	812fff1e 	bxhi	lr
    8fb4:	e92d4010 	push	{r4, lr}
    8fb8:	e3a01001 	mov	r1, #1, 0
    8fbc:	e1a01011 	lsl	r1, r1, r0
    8fc0:	e59f0004 	ldr	r0, [pc, #4]	; 8fcc <gpio_set_off+0x20>
    8fc4:	ebfffc16 	bl	8024 <PUT32>
    8fc8:	e8bd8010 	pop	{r4, pc}
    8fcc:	20200028 	eorcs	r0, r0, r8, lsr #32

00008fd0 <gpio_set_input>:
    8fd0:	e92d4010 	push	{r4, lr}
    8fd4:	e3a01000 	mov	r1, #0, 0
    8fd8:	ebffffcd 	bl	8f14 <gpio_set_function>
    8fdc:	e8bd8010 	pop	{r4, pc}

00008fe0 <gpio_write>:
    8fe0:	e92d4010 	push	{r4, lr}
    8fe4:	e3510000 	cmp	r1, #0, 0
    8fe8:	0a000001 	beq	8ff4 <gpio_write+0x14>
    8fec:	ebffffe5 	bl	8f88 <gpio_set_on>
    8ff0:	e8bd8010 	pop	{r4, pc}
    8ff4:	ebffffec 	bl	8fac <gpio_set_off>
    8ff8:	e8bd8010 	pop	{r4, pc}

00008ffc <gpio_read>:
    8ffc:	e350001f 	cmp	r0, #31, 0
    9000:	8a000007 	bhi	9024 <gpio_read+0x28>
    9004:	e92d4010 	push	{r4, lr}
    9008:	e200401f 	and	r4, r0, #31, 0
    900c:	e59f3018 	ldr	r3, [pc, #24]	; 902c <gpio_read+0x30>
    9010:	e08302a0 	add	r0, r3, r0, lsr #5
    9014:	ebfffc04 	bl	802c <GET32>
    9018:	e1a00430 	lsr	r0, r0, r4
    901c:	e2000001 	and	r0, r0, #1, 0
    9020:	e8bd8010 	pop	{r4, pc}
    9024:	e3e00000 	mvn	r0, #0, 0
    9028:	e12fff1e 	bx	lr
    902c:	20200034 	eorcs	r0, r0, r4, lsr r0

00009030 <and_in32>:
    9030:	e92d4070 	push	{r4, r5, r6, lr}
    9034:	e1a04000 	mov	r4, r0
    9038:	e1a05001 	mov	r5, r1
    903c:	ebfffbfa 	bl	802c <GET32>
    9040:	e0001005 	and	r1, r0, r5
    9044:	e1a00004 	mov	r0, r4
    9048:	ebfffbf5 	bl	8024 <PUT32>
    904c:	e8bd8070 	pop	{r4, r5, r6, pc}

00009050 <or_in32>:
    9050:	e92d4070 	push	{r4, r5, r6, lr}
    9054:	e1a04000 	mov	r4, r0
    9058:	e1a05001 	mov	r5, r1
    905c:	ebfffbf2 	bl	802c <GET32>
    9060:	e1801005 	orr	r1, r0, r5
    9064:	e1a00004 	mov	r0, r4
    9068:	ebfffbed 	bl	8024 <PUT32>
    906c:	e8bd8070 	pop	{r4, r5, r6, pc}

00009070 <uart_init>:
    9070:	e92d4010 	push	{r4, lr}
    9074:	e3a01002 	mov	r1, #2, 0
    9078:	e3a0000e 	mov	r0, #14, 0
    907c:	ebffffa4 	bl	8f14 <gpio_set_function>
    9080:	e3a01002 	mov	r1, #2, 0
    9084:	e3a0000f 	mov	r0, #15, 0
    9088:	ebffffa1 	bl	8f14 <gpio_set_function>
    908c:	ebffff59 	bl	8df8 <dev_barrier>
    9090:	e3a01001 	mov	r1, #1, 0
    9094:	e59f0064 	ldr	r0, [pc, #100]	; 9100 <uart_init+0x90>
    9098:	ebffffec 	bl	9050 <or_in32>
    909c:	ebffff55 	bl	8df8 <dev_barrier>
    90a0:	e59f405c 	ldr	r4, [pc, #92]	; 9104 <uart_init+0x94>
    90a4:	e3a01000 	mov	r1, #0, 0
    90a8:	e1a00004 	mov	r0, r4
    90ac:	ebfffbdc 	bl	8024 <PUT32>
    90b0:	e3a01000 	mov	r1, #0, 0
    90b4:	e59f004c 	ldr	r0, [pc, #76]	; 9108 <uart_init+0x98>
    90b8:	ebfffbd9 	bl	8024 <PUT32>
    90bc:	e3a01003 	mov	r1, #3, 0
    90c0:	e59f0044 	ldr	r0, [pc, #68]	; 910c <uart_init+0x9c>
    90c4:	ebfffbd6 	bl	8024 <PUT32>
    90c8:	e3a01000 	mov	r1, #0, 0
    90cc:	e59f003c 	ldr	r0, [pc, #60]	; 9110 <uart_init+0xa0>
    90d0:	ebfffbd3 	bl	8024 <PUT32>
    90d4:	e3a010c7 	mov	r1, #199, 0	; 0xc7
    90d8:	e59f0034 	ldr	r0, [pc, #52]	; 9114 <uart_init+0xa4>
    90dc:	ebfffbd0 	bl	8024 <PUT32>
    90e0:	e59f1030 	ldr	r1, [pc, #48]	; 9118 <uart_init+0xa8>
    90e4:	e59f0030 	ldr	r0, [pc, #48]	; 911c <uart_init+0xac>
    90e8:	ebfffbcd 	bl	8024 <PUT32>
    90ec:	e3a01003 	mov	r1, #3, 0
    90f0:	e1a00004 	mov	r0, r4
    90f4:	ebfffbca 	bl	8024 <PUT32>
    90f8:	ebffff3e 	bl	8df8 <dev_barrier>
    90fc:	e8bd8010 	pop	{r4, pc}
    9100:	20215004 	eorcs	r5, r1, r4
    9104:	20215060 	eorcs	r5, r1, r0, rrx
    9108:	20215044 	eorcs	r5, r1, r4, asr #32
    910c:	2021504c 	eorcs	r5, r1, ip, asr #32
    9110:	20215050 	eorcs	r5, r1, r0, asr r0
    9114:	20215048 	eorcs	r5, r1, r8, asr #32
    9118:	0000010e 	andeq	r0, r0, lr, lsl #2
    911c:	20215068 	eorcs	r5, r1, r8, rrx

00009120 <uart_can_getc>:
    9120:	e92d4010 	push	{r4, lr}
    9124:	e59f0008 	ldr	r0, [pc, #8]	; 9134 <uart_can_getc+0x14>
    9128:	ebfffbbf 	bl	802c <GET32>
    912c:	e2000001 	and	r0, r0, #1, 0
    9130:	e8bd8010 	pop	{r4, pc}
    9134:	20215064 	eorcs	r5, r1, r4, rrx

00009138 <uart_can_putc>:
    9138:	e92d4010 	push	{r4, lr}
    913c:	e59f0010 	ldr	r0, [pc, #16]	; 9154 <uart_can_putc+0x1c>
    9140:	ebfffbb9 	bl	802c <GET32>
    9144:	e3100002 	tst	r0, #2, 0
    9148:	13a00001 	movne	r0, #1, 0
    914c:	03a00000 	moveq	r0, #0, 0
    9150:	e8bd8010 	pop	{r4, pc}
    9154:	20215064 	eorcs	r5, r1, r4, rrx

00009158 <uart_getc>:
    9158:	e92d4010 	push	{r4, lr}
    915c:	ebffff25 	bl	8df8 <dev_barrier>
    9160:	ebffffee 	bl	9120 <uart_can_getc>
    9164:	e3500000 	cmp	r0, #0, 0
    9168:	0afffffc 	beq	9160 <uart_getc+0x8>
    916c:	e59f0010 	ldr	r0, [pc, #16]	; 9184 <uart_getc+0x2c>
    9170:	ebfffbad 	bl	802c <GET32>
    9174:	e6ef4070 	uxtb	r4, r0
    9178:	ebffff1e 	bl	8df8 <dev_barrier>
    917c:	e1a00004 	mov	r0, r4
    9180:	e8bd8010 	pop	{r4, pc}
    9184:	20215040 	eorcs	r5, r1, r0, asr #32

00009188 <uart_putc>:
    9188:	e92d4010 	push	{r4, lr}
    918c:	e1a04000 	mov	r4, r0
    9190:	ebffff18 	bl	8df8 <dev_barrier>
    9194:	ebffffe7 	bl	9138 <uart_can_putc>
    9198:	e3500000 	cmp	r0, #0, 0
    919c:	0afffffc 	beq	9194 <uart_putc+0xc>
    91a0:	e6ef1074 	uxtb	r1, r4
    91a4:	e59f0008 	ldr	r0, [pc, #8]	; 91b4 <uart_putc+0x2c>
    91a8:	ebfffb9d 	bl	8024 <PUT32>
    91ac:	ebffff11 	bl	8df8 <dev_barrier>
    91b0:	e8bd8010 	pop	{r4, pc}
    91b4:	20215040 	eorcs	r5, r1, r0, asr #32

000091b8 <uart_has_data>:
    91b8:	e92d4010 	push	{r4, lr}
    91bc:	ebffff0d 	bl	8df8 <dev_barrier>
    91c0:	ebffffd6 	bl	9120 <uart_can_getc>
    91c4:	e8bd8010 	pop	{r4, pc}

000091c8 <uart_tx_is_empty>:
    91c8:	e92d4010 	push	{r4, lr}
    91cc:	ebffff09 	bl	8df8 <dev_barrier>
    91d0:	e59f000c 	ldr	r0, [pc, #12]	; 91e4 <uart_tx_is_empty+0x1c>
    91d4:	ebfffb94 	bl	802c <GET32>
    91d8:	e1a004a0 	lsr	r0, r0, #9
    91dc:	e2000001 	and	r0, r0, #1, 0
    91e0:	e8bd8010 	pop	{r4, pc}
    91e4:	20215064 	eorcs	r5, r1, r4, rrx

000091e8 <uart_flush_tx>:
    91e8:	e92d4010 	push	{r4, lr}
    91ec:	ebfffff5 	bl	91c8 <uart_tx_is_empty>
    91f0:	e3500000 	cmp	r0, #0, 0
    91f4:	0afffffc 	beq	91ec <uart_flush_tx+0x4>
    91f8:	e8bd8010 	pop	{r4, pc}

000091fc <uart_disable>:
    91fc:	e92d4010 	push	{r4, lr}
    9200:	ebfffff8 	bl	91e8 <uart_flush_tx>
    9204:	ebfffefb 	bl	8df8 <dev_barrier>
    9208:	e3e01001 	mvn	r1, #1, 0
    920c:	e59f0008 	ldr	r0, [pc, #8]	; 921c <uart_disable+0x20>
    9210:	ebffff86 	bl	9030 <and_in32>
    9214:	ebfffef7 	bl	8df8 <dev_barrier>
    9218:	e8bd8010 	pop	{r4, pc}
    921c:	20215004 	eorcs	r5, r1, r4

00009220 <internal_putchar>:
    9220:	e92d4010 	push	{r4, lr}
    9224:	e1a04000 	mov	r4, r0
    9228:	ebffffd6 	bl	9188 <uart_putc>
    922c:	e1a00004 	mov	r0, r4
    9230:	e8bd8010 	pop	{r4, pc}

00009234 <rpi_reset_putc>:
    9234:	e59f3008 	ldr	r3, [pc, #8]	; 9244 <rpi_reset_putc+0x10>
    9238:	e59f2008 	ldr	r2, [pc, #8]	; 9248 <rpi_reset_putc+0x14>
    923c:	e5832000 	str	r2, [r3]
    9240:	e12fff1e 	bx	lr
    9244:	00009c00 	andeq	r9, r0, r0, lsl #24
    9248:	00009220 	andeq	r9, r0, r0, lsr #4

0000924c <rpi_set_putc>:
    924c:	e59f3004 	ldr	r3, [pc, #4]	; 9258 <rpi_set_putc+0xc>
    9250:	e5830000 	str	r0, [r3]
    9254:	e12fff1e 	bx	lr
    9258:	00009c00 	andeq	r9, r0, r0, lsl #24

0000925c <strcat>:
    925c:	e1a02000 	mov	r2, r0
    9260:	e1a03002 	mov	r3, r2
    9264:	e2822001 	add	r2, r2, #1, 0
    9268:	e5d3c000 	ldrb	ip, [r3]
    926c:	e35c0000 	cmp	ip, #0, 0
    9270:	1afffffa 	bne	9260 <strcat+0x4>
    9274:	e2433001 	sub	r3, r3, #1, 0
    9278:	e5d12000 	ldrb	r2, [r1]
    927c:	e2811001 	add	r1, r1, #1, 0
    9280:	e5e32001 	strb	r2, [r3, #1]!
    9284:	e3520000 	cmp	r2, #0, 0
    9288:	1afffffa 	bne	9278 <strcat+0x1c>
    928c:	e12fff1e 	bx	lr

00009290 <strcmp>:
    9290:	e5d03000 	ldrb	r3, [r0]
    9294:	e3530000 	cmp	r3, #0, 0
    9298:	0a000004 	beq	92b0 <strcmp+0x20>
    929c:	e5d12000 	ldrb	r2, [r1]
    92a0:	e1530002 	cmp	r3, r2
    92a4:	02800001 	addeq	r0, r0, #1, 0
    92a8:	02811001 	addeq	r1, r1, #1, 0
    92ac:	0afffff7 	beq	9290 <strcmp>
    92b0:	e5d10000 	ldrb	r0, [r1]
    92b4:	e0430000 	sub	r0, r3, r0
    92b8:	e12fff1e 	bx	lr

000092bc <strcpy>:
    92bc:	e1a0c000 	mov	ip, r0
    92c0:	e5d12000 	ldrb	r2, [r1]
    92c4:	e2811001 	add	r1, r1, #1, 0
    92c8:	e5cc2000 	strb	r2, [ip]
    92cc:	e28cc001 	add	ip, ip, #1, 0
    92d0:	e3520000 	cmp	r2, #0, 0
    92d4:	1afffff9 	bne	92c0 <strcpy+0x4>
    92d8:	e12fff1e 	bx	lr

000092dc <strncmp>:
    92dc:	e3520000 	cmp	r2, #0, 0
    92e0:	e2422001 	sub	r2, r2, #1, 0
    92e4:	0a000005 	beq	9300 <strncmp+0x24>
    92e8:	e4d03001 	ldrb	r3, [r0], #1
    92ec:	e4d1c001 	ldrb	ip, [r1], #1
    92f0:	e153000c 	cmp	r3, ip
    92f4:	0afffff8 	beq	92dc <strncmp>
    92f8:	e043000c 	sub	r0, r3, ip
    92fc:	e12fff1e 	bx	lr
    9300:	e3a00000 	mov	r0, #0, 0
    9304:	e12fff1e 	bx	lr

00009308 <reboot_callout>:
    9308:	e12fff1e 	bx	lr

0000930c <__code_end__>:
    930c:	00000000 	andeq	r0, r0, r0

Disassembly of section .rodata:

00009310 <__FUNCTION__.3985-0xd0>:
    9310:	73756425 	cmnvc	r5, #620756992	; 0x25000000
    9314:	72657020 	rsbvc	r7, r5, #32, 0
    9318:	2d642520 	cfstr64cs	mvdx2, [r4, #-128]!	; 0xffffff80
    931c:	6e696f70 	mcrvs	15, 3, r6, cr9, cr0, {3}
    9320:	46462074 			; <UNDEFINED> instruction: 0x46462074
    9324:	00000a54 	andeq	r0, r0, r4, asr sl
    9328:	6573552f 	ldrbvs	r5, [r3, #-1327]!	; 0xfffffad1
    932c:	6b2f7372 	blvs	be60fc <__bss_end__+0xbdc0f4>
    9330:	65657461 	strbvs	r7, [r5, #-1121]!	; 0xfffffb9f
    9334:	696c6573 	stmdbvs	ip!, {r0, r1, r4, r5, r6, r8, sl, sp, lr}^
    9338:	442f7375 	strtmi	r7, [pc], #-885	; 9340 <__code_end__+0x34>
    933c:	6d75636f 	ldclvs	3, cr6, [r5, #-444]!	; 0xfffffe44
    9340:	73746e65 	cmnvc	r4, #1616	; 0x650
    9344:	3153432f 	cmpcc	r3, pc, lsr #6
    9348:	2f453034 	svccs	0x00453034
    934c:	34317363 	ldrtcc	r7, [r1], #-867	; 0xfffffc9d
    9350:	662d4530 			; <UNDEFINED> instruction: 0x662d4530
    9354:	6c616e69 	stclvs	14, cr6, [r1], #-420	; 0xfffffe5c
    9358:	6f72702d 	svcvs	0x0072702d
    935c:	7463656a 	strbtvc	r6, [r3], #-1386	; 0xfffffa96
    9360:	62696c2f 	rsbvs	r6, r9, #12032	; 0x2f00
    9364:	34322d73 	ldrtcc	r2, [r2], #-3443	; 0xfffff28d
    9368:	2f786c30 	svccs	0x00786c30
    936c:	7062696c 	rsbvc	r6, r2, ip, ror #18
    9370:	696c2f69 	stmdbvs	ip!, {r0, r3, r5, r6, r8, r9, sl, fp, sp}^
    9374:	622f6362 	eorvs	r6, pc, #-2013265919	; 0x88000001
    9378:	732d7469 			; <UNDEFINED> instruction: 0x732d7469
    937c:	6f707075 	svcvs	0x00707075
    9380:	682e7472 	stmdavs	lr!, {r1, r4, r5, r6, sl, ip, sp, lr}
    9384:	00000000 	andeq	r0, r0, r0
    9388:	494e4150 	stmdbmi	lr, {r4, r6, r8, lr}^
    938c:	73253a43 			; <UNDEFINED> instruction: 0x73253a43
    9390:	3a73253a 	bcc	1cd2880 <__bss_end__+0x1cc8878>
    9394:	253a6425 	ldrcs	r6, [sl, #-1061]!	; 0xfffffbdb
    9398:	00000a73 	andeq	r0, r0, r3, ror sl
    939c:	74696228 	strbtvc	r6, [r9], #-552	; 0xfffffdd8
    93a0:	616d5f73 	smcvs	54771	; 0xd5f3
    93a4:	6e286b73 	vmovvs.16	d8[3], r6
    93a8:	20262029 	eorcs	r2, r6, r9, lsr #32
    93ac:	3d202976 			; <UNDEFINED> instruction: 0x3d202976
    93b0:	0076203d 	rsbseq	r2, r6, sp, lsr r0
    93b4:	2e733269 	cdpcs	2, 7, cr3, cr3, cr9, {3}
    93b8:	00000063 	andeq	r0, r0, r3, rrx
    93bc:	5f746962 	svcpl	0x00746962
    93c0:	6f5f7369 	svcvs	0x005f7369
    93c4:	47286666 	strmi	r6, [r8, -r6, ror #12]!
    93c8:	32335445 	eorscc	r5, r3, #1157627904	; 0x45000000
    93cc:	5f534328 	svcpl	0x00534328
    93d0:	202c2941 	eorcs	r2, ip, r1, asr #18
    93d4:	5f533249 	svcpl	0x00533249
    93d8:	455f5343 	ldrbmi	r5, [pc, #-835]	; 909d <uart_init+0x2d>
    93dc:	0000294e 	andeq	r2, r0, lr, asr #18

000093e0 <__FUNCTION__.3985>:
    93e0:	73746962 	cmnvc	r4, #1605632	; 0x188000
    93e4:	7465735f 	strbtvc	r7, [r5], #-863	; 0xfffffca1
    93e8:	00000000 	andeq	r0, r0, r0

000093ec <__FUNCTION__.4099>:
    93ec:	5f733269 	svcpl	0x00733269
    93f0:	74696e69 	strbtvc	r6, [r9], #-3689	; 0xfffff197
    93f4:	00000000 	andeq	r0, r0, r0
    93f8:	2e746666 	cdpcs	6, 7, cr6, cr4, cr6, {3}
    93fc:	00000063 	andeq	r0, r0, r3, rrx
    9400:	494e4150 	stmdbmi	lr, {r4, r6, r8, lr}^
    9404:	73253a43 			; <UNDEFINED> instruction: 0x73253a43
    9408:	3a73253a 	bcc	1cd28f8 <__bss_end__+0x1cc88f0>
    940c:	663a6425 	ldrtvs	r6, [sl], -r5, lsr #8
    9410:	665f7466 	ldrbvs	r7, [pc], -r6, ror #8
    9414:	64657869 	strbtvs	r7, [r5], #-2153	; 0xfffff797
    9418:	6666635f 			; <UNDEFINED> instruction: 0x6666635f
    941c:	46203a74 			; <UNDEFINED> instruction: 0x46203a74
    9420:	74205446 	strtvc	r5, [r0], #-1094	; 0xfffffbba
    9424:	6c206f6f 	stcvs	15, cr6, [r0], #-444	; 0xfffffe44
    9428:	0a676e6f 	beq	19e4dec <__bss_end__+0x19dade4>
    942c:	00000000 	andeq	r0, r0, r0
    9430:	494e4150 	stmdbmi	lr, {r4, r6, r8, lr}^
    9434:	73253a43 			; <UNDEFINED> instruction: 0x73253a43
    9438:	3a73253a 	bcc	1cd2928 <__bss_end__+0x1cc8920>
    943c:	663a6425 	ldrtvs	r6, [sl], -r5, lsr #8
    9440:	665f7466 	ldrbvs	r7, [pc], -r6, ror #8
    9444:	64657869 	strbtvs	r7, [r5], #-2153	; 0xfffff797
    9448:	6666725f 			; <UNDEFINED> instruction: 0x6666725f
    944c:	73203a74 			; <UNDEFINED> instruction: 0x73203a74
    9450:	736d6565 	cmnvc	sp, #423624704	; 0x19400000
    9454:	6f726220 	svcvs	0x00726220
    9458:	0a6e656b 	beq	1ba2a0c <__bss_end__+0x1b98a04>
    945c:	00000000 	andeq	r0, r0, r0

00009460 <__FUNCTION__.3971>:
    9460:	5f746666 	svcpl	0x00746666
    9464:	65786966 	ldrbvs	r6, [r8, #-2406]!	; 0xfffff69a
    9468:	66635f64 	strbtvs	r5, [r3], -r4, ror #30
    946c:	00007466 	andeq	r7, r0, r6, ror #8

00009470 <__FUNCTION__.4016>:
    9470:	5f746666 	svcpl	0x00746666
    9474:	65786966 	ldrbvs	r6, [r8, #-2406]!	; 0xfffff69a
    9478:	66725f64 	ldrbtvs	r5, [r2], -r4, ror #30
    947c:	00007466 	andeq	r7, r0, r6, ror #8
    9480:	696c2f2e 	stmdbvs	ip!, {r1, r2, r3, r5, r8, r9, sl, fp, sp}^
    9484:	762f6362 	strtvc	r6, [pc], -r2, ror #6
    9488:	72702d61 	rsbsvc	r2, r0, #6208	; 0x1840
    948c:	6b746e69 	blvs	1d24e38 <__bss_end__+0x1d1ae30>
    9490:	0000632e 	andeq	r6, r0, lr, lsr #6
    9494:	00000030 	andeq	r0, r0, r0, lsr r0
    9498:	33323130 	teqcc	r2, #12
    949c:	37363534 			; <UNDEFINED> instruction: 0x37363534
    94a0:	00003938 	andeq	r3, r0, r8, lsr r9
    94a4:	33323130 	teqcc	r2, #12
    94a8:	37363534 			; <UNDEFINED> instruction: 0x37363534
    94ac:	62613938 	rsbvs	r3, r1, #56, 18	; 0xe0000
    94b0:	66656463 	strbtvs	r6, [r5], -r3, ror #8
    94b4:	00000000 	andeq	r0, r0, r0
    94b8:	00003130 	andeq	r3, r0, r0, lsr r1
    94bc:	63747570 	cmnvs	r4, #112, 10	; 0x1c000000
    94c0:	0070665f 	rsbseq	r6, r0, pc, asr r6
    94c4:	74646977 	strbtvc	r6, [r4], #-2423	; 0xfffff689
    94c8:	203c2068 	eorscs	r2, ip, r8, rrx
    94cc:	00003233 	andeq	r3, r0, r3, lsr r2
    94d0:	00786c6c 	rsbseq	r6, r8, ip, ror #24
    94d4:	00646c6c 	rsbeq	r6, r4, ip, ror #24
    94d8:	253d3078 	ldrcs	r3, [sp, #-120]!	; 0xffffff88
    94dc:	00000a78 	andeq	r0, r0, r8, ror sl
    94e0:	253d3178 	ldrcs	r3, [sp, #-376]!	; 0xfffffe88
    94e4:	00000a78 	andeq	r0, r0, r8, ror sl
    94e8:	6e727473 	mrcvs	4, 3, r7, cr2, cr3, {3}
    94ec:	28706d63 	ldmdacs	r0!, {r0, r1, r5, r6, r8, sl, fp, sp, lr}^
    94f0:	202c7974 	eorcs	r7, ip, r4, ror r9
    94f4:	786c6c22 	stmdavc	ip!, {r1, r5, sl, fp, sp, lr}^
    94f8:	33202c22 			; <UNDEFINED> instruction: 0x33202c22
    94fc:	3d3d2029 	ldccc	0, cr2, [sp, #-164]!	; 0xffffff5c
    9500:	7c203020 	stcvc	0, cr3, [r0], #-128	; 0xffffff80
    9504:	7473207c 	ldrbtvc	r2, [r3], #-124	; 0xffffff84
    9508:	6d636e72 	stclvs	14, cr6, [r3, #-456]!	; 0xfffffe38
    950c:	79742870 	ldmdbvc	r4!, {r4, r5, r6, fp, sp}^
    9510:	6c22202c 	stcvs	0, cr2, [r2], #-176	; 0xffffff50
    9514:	2c22646c 	cfstrscs	mvf6, [r2], #-432	; 0xfffffe50
    9518:	20293320 	eorcs	r3, r9, r0, lsr #6
    951c:	30203d3d 	eorcc	r3, r0, sp, lsr sp
    9520:	00000000 	andeq	r0, r0, r0
    9524:	494e4150 	stmdbmi	lr, {r4, r6, r8, lr}^
    9528:	73253a43 			; <UNDEFINED> instruction: 0x73253a43
    952c:	3a73253a 	bcc	1cd2a1c <__bss_end__+0x1cc8a14>
    9530:	693a6425 	ldmdbvs	sl!, {r0, r2, r5, sl, sp, lr}
    9534:	736f706d 	cmnvc	pc, #109, 0	; 0x6d
    9538:	6c626973 			; <UNDEFINED> instruction: 0x6c626973
    953c:	66203a65 	strtvs	r3, [r0], -r5, ror #20
    9540:	3c3d746d 	cfldrscc	mvf7, [sp], #-436	; 0xfffffe4c
    9544:	0a3e7325 	beq	fa61e0 <__bss_end__+0xf9c1d8>
    9548:	0000000a 	andeq	r0, r0, sl
    954c:	494e4150 	stmdbmi	lr, {r4, r6, r8, lr}^
    9550:	73253a43 			; <UNDEFINED> instruction: 0x73253a43
    9554:	3a73253a 	bcc	1cd2a44 <__bss_end__+0x1cc8a3c>
    9558:	663a6425 	ldrtvs	r6, [sl], -r5, lsr #8
    955c:	74616f6c 	strbtvc	r6, [r1], #-3948	; 0xfffff094
    9560:	746f6e20 	strbtvc	r6, [pc], #-3616	; 9568 <__FUNCTION__.4016+0xf8>
    9564:	616e6520 	cmnvs	lr, r0, lsr #10
    9568:	64656c62 	strbtvs	r6, [r5], #-3170	; 0xfffff39e
    956c:	0a212121 	beq	8519f8 <__bss_end__+0x8479f0>
    9570:	00000000 	andeq	r0, r0, r0
    9574:	6e697270 	mcrvs	2, 3, r7, cr9, cr0, {3}
    9578:	203a6b74 	eorscs	r6, sl, r4, ror fp
    957c:	20746f6e 	rsbscs	r6, r4, lr, ror #30
    9580:	646e6168 	strbtvs	r6, [lr], #-360	; 0xfffffe98
    9584:	676e696c 	strbvs	r6, [lr, -ip, ror #18]!
    9588:	65707320 	ldrbvs	r7, [r0, #-800]!	; 0xfffffce0
    958c:	69666963 	stmdbvs	r6!, {r0, r1, r5, r6, r8, fp, sp, lr}^
    9590:	27207265 	strcs	r7, [r0, -r5, ror #4]!
    9594:	20276325 	eorcs	r6, r7, r5, lsr #6
    9598:	63736128 	cmnvs	r3, #10
    959c:	253d6969 	ldrcs	r6, [sp, #-2409]!	; 0xfffff697
    95a0:	000a2964 	andeq	r2, sl, r4, ror #18
    95a4:	494e4150 	stmdbmi	lr, {r4, r6, r8, lr}^
    95a8:	73253a43 			; <UNDEFINED> instruction: 0x73253a43
    95ac:	3a73253a 	bcc	1cd2a9c <__bss_end__+0x1cc8a94>
    95b0:	703a6425 	eorsvc	r6, sl, r5, lsr #8
    95b4:	746e6972 	strbtvc	r6, [lr], #-2418	; 0xfffff68e
    95b8:	7265206b 	rsbvc	r2, r5, #107, 0	; 0x6b
    95bc:	0a726f72 	beq	1ca538c <__bss_end__+0x1c9b384>
    95c0:	0000000a 	andeq	r0, r0, sl

000095c4 <__FUNCTION__.4008>:
    95c4:	74696d65 	strbtvc	r6, [r9], #-3429	; 0xfffff29b
    95c8:	00000000 	andeq	r0, r0, r0

000095cc <__FUNCTION__.3956>:
    95cc:	5f697072 	svcpl	0x00697072
    95d0:	5f746573 	svcpl	0x00746573
    95d4:	7074756f 	rsbsvc	r7, r4, pc, ror #10
    95d8:	00007475 	andeq	r7, r0, r5, ror r4

000095dc <__FUNCTION__.4034>:
    95dc:	705f6176 	subsvc	r6, pc, r6, ror r1	; <UNPREDICTABLE>
    95e0:	746e6972 	strbtvc	r6, [lr], #-2418	; 0xfffff68e
    95e4:	0000006b 	andeq	r0, r0, fp, rrx
    95e8:	454e4f44 	strbmi	r4, [lr, #-3908]	; 0xfffff0bc
    95ec:	0a212121 	beq	851a78 <__bss_end__+0x847a70>
	...

Disassembly of section .data:

000095f4 <cm_regs>:
    95f4:	20101000 	andscs	r1, r0, r0

000095f8 <i2s_regs>:
    95f8:	20203000 	eorcs	r3, r0, r0

000095fc <FFT_SINE_LUT>:
    95fc:	00c90000 	sbceq	r0, r9, r0
    9600:	025b0192 	subseq	r0, fp, #-2147483612	; 0x80000024
    9604:	03ed0324 	mvneq	r0, #36, 6	; 0x90000000
    9608:	057e04b6 	ldrbeq	r0, [lr, #-1206]!	; 0xfffffb4a
    960c:	07100647 	ldreq	r0, [r0, -r7, asr #12]
    9610:	08a107d9 	stmiaeq	r1!, {r0, r3, r4, r6, r7, r8, r9, sl}
    9614:	0a32096a 	beq	c8bbc4 <__bss_end__+0xc81bbc>
    9618:	0bc30afb 	bleq	ff0cc20c <__bss_end__+0xff0c2204>
    961c:	0d530c8b 	ldcleq	12, cr0, [r3, #-556]	; 0xfffffdd4
    9620:	0ee30e1b 	mcreq	14, 7, r0, cr3, cr11, {0}
    9624:	10720fab 	rsbsne	r0, r2, fp, lsr #31
    9628:	12001139 	andne	r1, r0, #1073741838	; 0x4000000e
    962c:	138e12c7 	orrne	r1, lr, #1879048204	; 0x7000000c
    9630:	151b1455 	ldrne	r1, [fp, #-1109]	; 0xfffffbab
    9634:	16a715e1 	strtne	r1, [r7], r1, ror #11
    9638:	1833176d 	ldmdane	r3!, {r0, r2, r3, r5, r6, r8, r9, sl, ip}
    963c:	19bd18f8 	ldmibne	sp!, {r3, r4, r5, r6, r7, fp, ip}
    9640:	1b461a82 	blne	1190050 <__bss_end__+0x1186048>
    9644:	1ccf1c0b 	stclne	12, cr1, [pc], {11}
    9648:	1e561d93 	mrcne	13, 2, r1, cr6, cr3, {4}
    964c:	1fdc1f19 	svcne	0x00dc1f19
    9650:	2161209f 			; <UNDEFINED> instruction: 0x2161209f
    9654:	22e42223 	rsccs	r2, r4, #805306370	; 0x30000002
    9658:	246723a6 	strbtcs	r2, [r7], #-934	; 0xfffffc5a
    965c:	25e72527 	strbcs	r2, [r7, #1319]!	; 0x527
    9660:	276726a7 	strbcs	r2, [r7, -r7, lsr #13]!
    9664:	28e52826 	stmiacs	r5!, {r1, r2, r5, fp, sp}^
    9668:	2a6129a3 	bcs	1853cfc <__bss_end__+0x1849cf4>
    966c:	2bdb2b1e 	blcs	ff6d42ec <__bss_end__+0xff6ca2e4>
    9670:	2d542c98 	ldclcs	12, cr2, [r4, #-608]	; 0xfffffda0
    9674:	2ecc2e10 	mcrcs	14, 6, r2, cr12, cr0, {0}
    9678:	30412f86 	subcc	r2, r1, r6, lsl #31
    967c:	31b430fb 	ldrshcc	r3, [r4, fp]!
    9680:	3326326d 			; <UNDEFINED> instruction: 0x3326326d
    9684:	349633de 	ldrcc	r3, [r6], #990	; 0x3de
    9688:	3603354d 	strcc	r3, [r3], -sp, asr #10
    968c:	376f36b9 			; <UNDEFINED> instruction: 0x376f36b9
    9690:	38d83824 	ldmcc	r8, {r2, r5, fp, ip, sp}^
    9694:	3a3f398c 	bcc	fd7ccc <__bss_end__+0xfcdcc4>
    9698:	3ba43af2 	blcc	fe918268 <__bss_end__+0xfe90e260>
    969c:	3d073c56 	stccc	12, cr3, [r7, #-344]	; 0xfffffea8
    96a0:	3e673db7 	mcrcc	13, 3, r3, cr7, cr7, {5}
    96a4:	3fc53f16 	svccc	0x00c53f16
    96a8:	41204073 			; <UNDEFINED> instruction: 0x41204073
    96ac:	427941cd 	rsbsmi	r4, r9, #1073741875	; 0x40000033
    96b0:	43d04325 	bicsmi	r4, r0, #-1811939328	; 0x94000000
    96b4:	4523447a 	strmi	r4, [r3, #-1146]!	; 0xfffffb86
    96b8:	467445cc 	ldrbtmi	r4, [r4], -ip, asr #11
    96bc:	47c3471c 	bfimi	r4, ip, (invalid: 14:3)
    96c0:	490e4869 	stmdbmi	lr, {r0, r3, r5, r6, fp, lr}
    96c4:	4a5749b3 	bmi	15dbd98 <__bss_end__+0x15d1d90>
    96c8:	4b9d4afa 	blmi	fe75c2b8 <__bss_end__+0xfe7522b0>
    96cc:	4ce04c3f 	stclmi	12, cr4, [r0], #252	; 0xfc
    96d0:	4e204d80 	cdpmi	13, 2, cr4, cr0, cr0, {4}
    96d4:	4f5d4ebf 	svcmi	0x005d4ebf
    96d8:	50974ffa 			; <UNDEFINED> instruction: 0x50974ffa
    96dc:	51ce5133 	bicpl	r5, lr, r3, lsr r1
    96e0:	53015268 	movwpl	r5, #4712	; 0x1268
    96e4:	5432539a 	ldrtpl	r5, [r2], #-922	; 0xfffffc66
    96e8:	555f54c9 	ldrbpl	r5, [pc, #-1225]	; 9227 <internal_putchar+0x7>
    96ec:	568955f4 			; <UNDEFINED> instruction: 0x568955f4
    96f0:	57b0571d 			; <UNDEFINED> instruction: 0x57b0571d
    96f4:	58d35842 	ldmpl	r3, {r1, r6, fp, ip, lr}^
    96f8:	59f35963 	ldmibpl	r3!, {r0, r1, r5, r6, r8, fp, ip, lr}^
    96fc:	5b0f5a81 	blpl	3e0108 <__bss_end__+0x3d6100>
    9700:	5c285b9c 			; <UNDEFINED> instruction: 0x5c285b9c
    9704:	5d3d5cb3 	ldcpl	12, cr5, [sp, #-716]!	; 0xfffffd34
    9708:	5e4f5dc6 	cdppl	13, 4, cr5, cr15, cr6, {6}
    970c:	5f5d5ed6 	svcpl	0x005d5ed6
    9710:	60675fe2 	rsbvs	r5, r7, r2, ror #31
    9714:	616e60eb 	cmnvs	lr, fp, ror #1
    9718:	627161f0 	rsbsvs	r6, r1, #60	; 0x3c
    971c:	637062f1 	cmnvs	r0, #268435471	; 0x1000000f
    9720:	646b63ee 	strbtvs	r6, [fp], #-1006	; 0xfffffc12
    9724:	656264e7 	strbvs	r6, [r2, #-1255]!	; 0xfffffb19
    9728:	665665dd 			; <UNDEFINED> instruction: 0x665665dd
    972c:	674566ce 	strbvs	r6, [r5, -lr, asr #13]
    9730:	683167bc 	ldmdavs	r1!, {r2, r3, r4, r5, r7, r8, r9, sl, sp, lr}
    9734:	691968a5 	ldmdbvs	r9, {r0, r2, r5, r7, fp, sp, lr}
    9738:	69fc698b 	ldmibvs	ip!, {r0, r1, r3, r7, r8, fp, sp, lr}^
    973c:	6adb6a6c 	bvs	ff6e40f4 <__bss_end__+0xff6da0ec>
    9740:	6bb76b4a 	blvs	fede4470 <__bss_end__+0xfedda468>
    9744:	6c8e6c23 	stcvs	12, cr6, [lr], {35}	; 0x23
    9748:	6d616cf8 	stclvs	12, cr6, [r1, #-992]!	; 0xfffffc20
    974c:	6e306dc9 	cdpvs	13, 3, cr6, cr0, cr9, {6}
    9750:	6efa6e95 	mrcvs	14, 7, r6, cr10, cr5, {4}
    9754:	6fc06f5e 	svcvs	0x00c06f5e
    9758:	70827022 	addvc	r7, r2, r2, lsr #32
    975c:	714070e1 	smlalttvc	r7, r0, r1, r0
    9760:	71f9719d 			; <UNDEFINED> instruction: 0x71f9719d
    9764:	72ae7254 	adcvc	r7, lr, #84, 4	; 0x40000005
    9768:	735e7306 	cmpvc	lr, #402653184	; 0x18000000
    976c:	740a73b5 	strvc	r7, [sl], #-949	; 0xfffffc4b
    9770:	74b1745e 	ldrtvc	r7, [r1], #1118	; 0x45e
    9774:	75547503 	ldrbvc	r7, [r4, #-1283]	; 0xfffffafd
    9778:	75f375a4 	ldrbvc	r7, [r3, #1444]!	; 0x5a4
    977c:	768d7640 	strvc	r7, [sp], r0, asr #12
    9780:	772276d8 			; <UNDEFINED> instruction: 0x772276d8
    9784:	77b3776b 	ldrvc	r7, [r3, fp, ror #14]!
    9788:	783f77f9 	ldmdavc	pc!, {r0, r3, r4, r5, r6, r7, r8, r9, sl, ip, sp, lr}	; <UNPREDICTABLE>
    978c:	78c67883 	stmiavc	r6, {r0, r1, r7, fp, ip, sp, lr}^
    9790:	79497908 	stmdbvc	r9, {r3, r8, fp, ip, sp, lr}^
    9794:	79c77989 	stmibvc	r7, {r0, r3, r7, r8, fp, ip, sp, lr}^
    9798:	7a417a04 	bvc	1067fb0 <__bss_end__+0x105dfa8>
    979c:	7ab57a7c 	bvc	fed68194 <__bss_end__+0xfed5e18c>
    97a0:	7b257aee 	blvc	968360 <__bss_end__+0x95e358>
    97a4:	7b917b5c 	blvc	fe46851c <__bss_end__+0xfe45e514>
    97a8:	7bf77bc4 	blvc	ffde86c0 <__bss_end__+0xffdde6b8>
    97ac:	7c597c29 	mrrcvc	12, 2, r7, r9, cr9
    97b0:	7cb67c88 	ldcvc	12, cr7, [r6], #544	; 0x220
    97b4:	7d0e7ce2 	stcvc	12, cr7, [lr, #-904]	; 0xfffffc78
    97b8:	7d617d38 	stclvc	13, cr7, [r1, #-224]!	; 0xffffff20
    97bc:	7db07d89 	ldcvc	13, cr7, [r0, #548]!	; 0x224
    97c0:	7df97dd5 	ldclvc	13, cr7, [r9, #852]!	; 0x354
    97c4:	7e3e7e1c 	mrcvc	14, 1, r7, cr14, cr12, {0}
    97c8:	7e7e7e5e 	mrcvc	14, 3, r7, cr14, cr14, {2}
    97cc:	7eb97e9c 	mrcvc	14, 5, r7, cr9, cr12, {4}
    97d0:	7eef7ed4 	mcrvc	14, 7, r7, cr15, cr4, {6}
    97d4:	7f207f08 	svcvc	0x00207f08
    97d8:	7f4c7f37 	svcvc	0x004c7f37
    97dc:	7f747f61 	svcvc	0x00747f61
    97e0:	7f967f86 	svcvc	0x00967f86
    97e4:	7fb47fa6 	svcvc	0x00b47fa6
    97e8:	7fcd7fc1 	svcvc	0x00cd7fc1
    97ec:	7fe07fd7 	svcvc	0x00e07fd7
    97f0:	7fef7fe8 	svcvc	0x00ef7fe8
    97f4:	7ff97ff5 	svcvc	0x00f97ff5
    97f8:	7ffe7ffc 	svcvc	0x00fe7ffc
    97fc:	7ffe7fff 	svcvc	0x00fe7fff
    9800:	7ff97ffc 	svcvc	0x00f97ffc
    9804:	7fef7ff5 	svcvc	0x00ef7ff5
    9808:	7fe07fe8 	svcvc	0x00e07fe8
    980c:	7fcd7fd7 	svcvc	0x00cd7fd7
    9810:	7fb47fc1 	svcvc	0x00b47fc1
    9814:	7f967fa6 	svcvc	0x00967fa6
    9818:	7f747f86 	svcvc	0x00747f86
    981c:	7f4c7f61 	svcvc	0x004c7f61
    9820:	7f207f37 	svcvc	0x00207f37
    9824:	7eef7f08 	cdpvc	15, 14, cr7, cr15, cr8, {0}
    9828:	7eb97ed4 	mrcvc	14, 5, r7, cr9, cr4, {6}
    982c:	7e7e7e9c 	mrcvc	14, 3, r7, cr14, cr12, {4}
    9830:	7e3e7e5e 	mrcvc	14, 1, r7, cr14, cr14, {2}
    9834:	7df97e1c 	ldclvc	14, cr7, [r9, #112]!	; 0x70
    9838:	7db07dd5 	ldcvc	13, cr7, [r0, #852]!	; 0x354
    983c:	7d617d89 	stclvc	13, cr7, [r1, #-548]!	; 0xfffffddc
    9840:	7d0e7d38 	stcvc	13, cr7, [lr, #-224]	; 0xffffff20
    9844:	7cb67ce2 	ldcvc	12, cr7, [r6], #904	; 0x388
    9848:	7c597c88 	mrrcvc	12, 8, r7, r9, cr8
    984c:	7bf77c29 	blvc	ffde88f8 <__bss_end__+0xffdde8f0>
    9850:	7b917bc4 	blvc	fe468768 <__bss_end__+0xfe45e760>
    9854:	7b257b5c 	blvc	9685cc <__bss_end__+0x95e5c4>
    9858:	7ab57aee 	bvc	fed68418 <__bss_end__+0xfed5e410>
    985c:	7a417a7c 	bvc	1068254 <__bss_end__+0x105e24c>
    9860:	79c77a04 	stmibvc	r7, {r2, r9, fp, ip, sp, lr}^
    9864:	79497989 	stmdbvc	r9, {r0, r3, r7, r8, fp, ip, sp, lr}^
    9868:	78c67908 	stmiavc	r6, {r3, r8, fp, ip, sp, lr}^
    986c:	783f7883 	ldmdavc	pc!, {r0, r1, r7, fp, ip, sp, lr}	; <UNPREDICTABLE>
    9870:	77b377f9 			; <UNDEFINED> instruction: 0x77b377f9
    9874:	7722776b 	strvc	r7, [r2, -fp, ror #14]!
    9878:	768d76d8 	pkhtbvc	r7, sp, r8, asr #13
    987c:	75f37640 	ldrbvc	r7, [r3, #1600]!	; 0x640
    9880:	755475a4 	ldrbvc	r7, [r4, #-1444]	; 0xfffffa5c
    9884:	74b17503 	ldrtvc	r7, [r1], #1283	; 0x503
    9888:	740a745e 	strvc	r7, [sl], #-1118	; 0xfffffba2
    988c:	735e73b5 	cmpvc	lr, #-738197502	; 0xd4000002
    9890:	72ae7306 	adcvc	r7, lr, #402653184	; 0x18000000
    9894:	71f97254 	mvnsvc	r7, r4, asr r2
    9898:	7140719d 			; <UNDEFINED> instruction: 0x7140719d
    989c:	708270e1 	addvc	r7, r2, r1, ror #1
    98a0:	6fc07022 	svcvs	0x00c07022
    98a4:	6efa6f5e 	mrcvs	15, 7, r6, cr10, cr14, {2}
    98a8:	6e306e95 	mrcvs	14, 1, r6, cr0, cr5, {4}
    98ac:	6d616dc9 	stclvs	13, cr6, [r1, #-804]!	; 0xfffffcdc
    98b0:	6c8e6cf8 	stcvs	12, cr6, [lr], {248}	; 0xf8
    98b4:	6bb76c23 	blvs	fede4948 <__bss_end__+0xfedda940>
    98b8:	6adb6b4a 	bvs	ff6e45e8 <__bss_end__+0xff6da5e0>
    98bc:	69fc6a6c 	ldmibvs	ip!, {r2, r3, r5, r6, r9, fp, sp, lr}^
    98c0:	6919698b 	ldmdbvs	r9, {r0, r1, r3, r7, r8, fp, sp, lr}
    98c4:	683168a5 	ldmdavs	r1!, {r0, r2, r5, r7, fp, sp, lr}
    98c8:	674567bc 			; <UNDEFINED> instruction: 0x674567bc
    98cc:	665666ce 	ldrbvs	r6, [r6], -lr, asr #13
    98d0:	656265dd 	strbvs	r6, [r2, #-1501]!	; 0xfffffa23
    98d4:	646b64e7 	strbtvs	r6, [fp], #-1255	; 0xfffffb19
    98d8:	637063ee 	cmnvs	r0, #-1207959549	; 0xb8000003
    98dc:	627162f1 	rsbsvs	r6, r1, #268435471	; 0x1000000f
    98e0:	616e61f0 	strdvs	r6, [lr, #-16]!
    98e4:	606760eb 	rsbvs	r6, r7, fp, ror #1
    98e8:	5f5d5fe2 	svcpl	0x005d5fe2
    98ec:	5e4f5ed6 	mcrpl	14, 2, r5, cr15, cr6, {6}
    98f0:	5d3d5dc6 	ldcpl	13, cr5, [sp, #-792]!	; 0xfffffce8
    98f4:	5c285cb3 	stcpl	12, cr5, [r8], #-716	; 0xfffffd34
    98f8:	5b0f5b9c 	blpl	3e0770 <__bss_end__+0x3d6768>
    98fc:	59f35a81 	ldmibpl	r3!, {r0, r7, r9, fp, ip, lr}^
    9900:	58d35963 	ldmpl	r3, {r0, r1, r5, r6, r8, fp, ip, lr}^
    9904:	57b05842 	ldrpl	r5, [r0, r2, asr #16]!
    9908:	5689571d 	pkhbtpl	r5, r9, sp, lsl #14
    990c:	555f55f4 	ldrbpl	r5, [pc, #-1524]	; 9320 <__code_end__+0x14>
    9910:	543254c9 	ldrtpl	r5, [r2], #-1225	; 0xfffffb37
    9914:	5301539a 	movwpl	r5, #5018	; 0x139a
    9918:	51ce5268 	bicpl	r5, lr, r8, ror #4
    991c:	50975133 	addspl	r5, r7, r3, lsr r1
    9920:	4f5d4ffa 	svcmi	0x005d4ffa
    9924:	4e204ebf 	mcrmi	14, 1, r4, cr0, cr15, {5}
    9928:	4ce04d80 	stclmi	13, cr4, [r0], #512	; 0x200
    992c:	4b9d4c3f 	blmi	fe75ca30 <__bss_end__+0xfe752a28>
    9930:	4a574afa 	bmi	15dc520 <__bss_end__+0x15d2518>
    9934:	490e49b3 	stmdbmi	lr, {r0, r1, r4, r5, r7, r8, fp, lr}
    9938:	47c34869 	strbmi	r4, [r3, r9, ror #16]
    993c:	4674471c 			; <UNDEFINED> instruction: 0x4674471c
    9940:	452345cc 	strmi	r4, [r3, #-1484]!	; 0xfffffa34
    9944:	43d0447a 	bicsmi	r4, r0, #2046820352	; 0x7a000000
    9948:	42794325 	rsbsmi	r4, r9, #-1811939328	; 0x94000000
    994c:	412041cd 	smlawtmi	r0, sp, r1, r4
    9950:	3fc54073 	svccc	0x00c54073
    9954:	3e673f16 	mcrcc	15, 3, r3, cr7, cr6, {0}
    9958:	3d073db7 	stccc	13, cr3, [r7, #-732]	; 0xfffffd24
    995c:	3ba43c56 	blcc	fe918abc <__bss_end__+0xfe90eab4>
    9960:	3a3f3af2 	bcc	fd8530 <__bss_end__+0xfce528>
    9964:	38d8398c 	ldmcc	r8, {r2, r3, r7, r8, fp, ip, sp}^
    9968:	376f3824 	strbcc	r3, [pc, -r4, lsr #16]!
    996c:	360336b9 			; <UNDEFINED> instruction: 0x360336b9
    9970:	3496354d 	ldrcc	r3, [r6], #1357	; 0x54d
    9974:	332633de 			; <UNDEFINED> instruction: 0x332633de
    9978:	31b4326d 			; <UNDEFINED> instruction: 0x31b4326d
    997c:	304130fb 	strdcc	r3, [r1], #-11
    9980:	2ecc2f86 	cdpcs	15, 12, cr2, cr12, cr6, {4}
    9984:	2d542e10 	ldclcs	14, cr2, [r4, #-64]	; 0xffffffc0
    9988:	2bdb2c98 	blcs	ff6d4bf0 <__bss_end__+0xff6cabe8>
    998c:	2a612b1e 	bcs	185460c <__bss_end__+0x184a604>
    9990:	28e529a3 	stmiacs	r5!, {r0, r1, r5, r7, r8, fp, sp}^
    9994:	27672826 	strbcs	r2, [r7, -r6, lsr #16]!
    9998:	25e726a7 	strbcs	r2, [r7, #1703]!	; 0x6a7
    999c:	24672527 	strbtcs	r2, [r7], #-1319	; 0xfffffad9
    99a0:	22e423a6 	rsccs	r2, r4, #-1744830462	; 0x98000002
    99a4:	21612223 	cmncs	r1, r3, lsr #4
    99a8:	1fdc209f 	svcne	0x00dc209f
    99ac:	1e561f19 	mrcne	15, 2, r1, cr6, cr9, {0}
    99b0:	1ccf1d93 	stclne	13, cr1, [pc], {147}	; 0x93
    99b4:	1b461c0b 	blne	11909e8 <__bss_end__+0x11869e0>
    99b8:	19bd1a82 	ldmibne	sp!, {r1, r7, r9, fp, ip}
    99bc:	183318f8 	ldmdane	r3!, {r3, r4, r5, r6, r7, fp, ip}
    99c0:	16a7176d 	strtne	r1, [r7], sp, ror #14
    99c4:	151b15e1 	ldrne	r1, [fp, #-1505]	; 0xfffffa1f
    99c8:	138e1455 	orrne	r1, lr, #1426063360	; 0x55000000
    99cc:	120012c7 	andne	r1, r0, #1879048204	; 0x7000000c
    99d0:	10721139 	rsbsne	r1, r2, r9, lsr r1
    99d4:	0ee30fab 	cdpeq	15, 14, cr0, cr3, cr11, {5}
    99d8:	0d530e1b 	ldcleq	14, cr0, [r3, #-108]	; 0xffffff94
    99dc:	0bc30c8b 	bleq	ff0ccc10 <__bss_end__+0xff0c2c08>
    99e0:	0a320afb 	beq	c8c5d4 <__bss_end__+0xc825cc>
    99e4:	08a1096a 	stmiaeq	r1!, {r1, r3, r5, r6, r8, fp}
    99e8:	071007d9 			; <UNDEFINED> instruction: 0x071007d9
    99ec:	057e0647 	ldrbeq	r0, [lr, #-1607]!	; 0xfffff9b9
    99f0:	03ed04b6 	mvneq	r0, #-1241513984	; 0xb6000000
    99f4:	025b0324 	subseq	r0, fp, #36, 6	; 0x90000000
    99f8:	00c90192 	smulleq	r0, r9, r2, r1
    99fc:	ff370000 			; <UNDEFINED> instruction: 0xff370000
    9a00:	fda5fe6e 	stc2	14, cr15, [r5, #440]!	; 0x1b8
    9a04:	fc13fcdc 	ldc2	12, cr15, [r3], {220}	; 0xdc
    9a08:	fa82fb4a 	blx	fe0c8738 <__bss_end__+0xfe0be730>
    9a0c:	f8f0f9b9 			; <UNDEFINED> instruction: 0xf8f0f9b9
    9a10:	f75ff827 	pld	[pc, -r7, lsr #16]
    9a14:	f5cef696 			; <UNDEFINED> instruction: 0xf5cef696
    9a18:	f43df505 			; <UNDEFINED> instruction: 0xf43df505
    9a1c:	f2adf375 	vrsra.s32	<illegal reg q7.5>, <illegal reg q10.5>, #19
    9a20:	f11df1e5 			; <UNDEFINED> instruction: 0xf11df1e5
    9a24:	ef8ef055 	svc	0x008ef055
    9a28:	ee00eec7 	cdp	14, 0, cr14, cr0, cr7, {6}
    9a2c:	ec72ed39 	ldcl	13, cr14, [r2], #-228	; 0xffffff1c
    9a30:	eae5ebab 	b	ff9848e4 <__bss_end__+0xff97a8dc>
    9a34:	e959ea1f 	ldmdb	r9, {r0, r1, r2, r3, r4, r9, fp, sp, lr, pc}^
    9a38:	e7cde893 	bfi	lr, r3, (invalid: 17:13)
    9a3c:	e643e708 	strb	lr, [r3], -r8, lsl #14
    9a40:	e4bae57e 	ldrt	lr, [sl], #1406	; 0x57e
    9a44:	e331e3f5 	teq	r1, #-738197501	; 0xd4000003
    9a48:	e1aae26d 			; <UNDEFINED> instruction: 0xe1aae26d
    9a4c:	e024e0e7 	eor	lr, r4, r7, ror #1
    9a50:	de9fdf61 	cdple	15, 9, cr13, cr15, cr1, {3}
    9a54:	dd1cdddd 	ldcle	13, cr13, [ip, #-884]	; 0xfffffc8c
    9a58:	db99dc5a 	blle	fe680bc8 <__bss_end__+0xfe676bc0>
    9a5c:	da19dad9 	ble	6805c8 <__bss_end__+0x6765c0>
    9a60:	d899d959 	ldmle	r9, {r0, r3, r4, r6, r8, fp, ip, lr, pc}
    9a64:	d71bd7da 			; <UNDEFINED> instruction: 0xd71bd7da
    9a68:	d59fd65d 	ldrle	sp, [pc, #1629]	; a0cd <__bss_end__+0xc5>
    9a6c:	d425d4e2 	strtle	sp, [r5], #-1250	; 0xfffffb1e
    9a70:	d2acd368 	adcle	sp, ip, #104, 6	; 0xa0000001
    9a74:	d134d1f0 	teqle	r4, r0	; <illegal shifter operand>
    9a78:	cfbfd07a 	svcgt	0x00bfd07a
    9a7c:	ce4ccf05 	cdpgt	15, 4, cr12, cr12, cr5, {0}
    9a80:	ccdacd93 	ldclgt	13, cr12, [sl], {147}	; 0x93
    9a84:	cb6acc22 	blgt	1abcb14 <__bss_end__+0x1ab2b0c>
    9a88:	c9fdcab3 	ldmibgt	sp!, {r0, r1, r4, r5, r7, r9, fp, lr, pc}^
    9a8c:	c891c947 	ldmgt	r1, {r0, r1, r2, r6, r8, fp, lr, pc}
    9a90:	c728c7dc 			; <UNDEFINED> instruction: 0xc728c7dc
    9a94:	c5c1c674 	strbgt	ip, [r1, #1652]	; 0x674
    9a98:	c45cc50e 	ldrbgt	ip, [ip], #-1294	; 0xfffffaf2
    9a9c:	c2f9c3aa 	rscsgt	ip, r9, #-1476395006	; 0xa8000002
    9aa0:	c199c249 	orrsgt	ip, r9, r9, asr #4
    9aa4:	c03bc0ea 	eorsgt	ip, fp, sl, ror #1
    9aa8:	bee0bf8d 	cdplt	15, 14, cr11, cr0, cr13, {4}
    9aac:	bd87be33 	stclt	14, cr11, [r7, #204]	; 0xcc
    9ab0:	bc30bcdb 	ldclt	12, cr11, [r0], #-876	; 0xfffffc94
    9ab4:	baddbb86 	blt	ff7788d4 <__bss_end__+0xff76e8cc>
    9ab8:	b98cba34 	stmiblt	ip, {r2, r4, r5, r9, fp, ip, sp, pc}
    9abc:	b83db8e4 	ldmdalt	sp!, {r2, r5, r6, r7, fp, ip, sp, pc}
    9ac0:	b6f2b797 	usatlt	fp, #18, r7, lsl #15
    9ac4:	b5a9b64d 	strlt	fp, [r9, #1613]!	; 0x64d
    9ac8:	b463b506 	strbtlt	fp, [r3], #-1286	; 0xfffffafa
    9acc:	b320b3c1 			; <UNDEFINED> instruction: 0xb320b3c1
    9ad0:	b1e0b280 	mvnlt	fp, r0, lsl #5
    9ad4:	b0a3b141 	adclt	fp, r3, r1, asr #2
    9ad8:	af69b006 	svcge	0x0069b006
    9adc:	ae32aecd 	cdpge	14, 3, cr10, cr2, cr13, {6}
    9ae0:	acffad98 	ldclge	13, cr10, [pc], #608	; 9d48 <__data_end__+0x144>
    9ae4:	abceac66 	blge	ff3b4c84 <__bss_end__+0xff3aac7c>
    9ae8:	aaa1ab37 	bge	fe8747cc <__bss_end__+0xfe86a7c4>
    9aec:	a977aa0c 	ldmdbge	r7!, {r2, r3, r9, fp, sp, pc}^
    9af0:	a850a8e3 	ldmdage	r0, {r0, r1, r5, r6, r7, fp, sp, pc}^
    9af4:	a72da7be 			; <UNDEFINED> instruction: 0xa72da7be
    9af8:	a60da69d 			; <UNDEFINED> instruction: 0xa60da69d
    9afc:	a4f1a57f 	ldrbtge	sl, [r1], #1407	; 0x57f
    9b00:	a3d8a464 	bicsge	sl, r8, #100, 8	; 0x64000000
    9b04:	a2c3a34d 	sbcge	sl, r3, #872415233	; 0x34000001
    9b08:	a1b1a23a 			; <UNDEFINED> instruction: 0xa1b1a23a
    9b0c:	a0a3a12a 	adcge	sl, r3, sl, lsr #2
    9b10:	9f99a01e 	svcls	0x0099a01e
    9b14:	9e929f15 	mrcls	15, 4, r9, cr2, cr5, {0}
    9b18:	9d8f9e10 	stcls	14, cr9, [pc, #64]	; 9b60 <FFT_SINE_LUT+0x564>
    9b1c:	9c909d0f 	ldcls	13, cr9, [r0], {15}
    9b20:	9b959c12 	blls	fe570b70 <__bss_end__+0xfe566b68>
    9b24:	9a9e9b19 	bls	fe7b0790 <__bss_end__+0xfe7a6788>
    9b28:	99aa9a23 	stmibls	sl!, {r0, r1, r5, r9, fp, ip, pc}
    9b2c:	98bb9932 	ldmls	fp!, {r1, r4, r5, r8, fp, ip, pc}
    9b30:	97cf9844 	strbls	r9, [pc, r4, asr #16]
    9b34:	96e7975b 	usatls	r9, #7, fp, asr #14
    9b38:	96049675 			; <UNDEFINED> instruction: 0x96049675
    9b3c:	95259594 	strls	r9, [r5, #-1428]!	; 0xfffffa6c
    9b40:	944994b6 	strbls	r9, [r9], #-1206	; 0xfffffb4a
    9b44:	937293dd 	cmnls	r2, #1946157059	; 0x74000003
    9b48:	929f9308 	addsls	r9, pc, #8, 6	; 0x20000000
    9b4c:	91d09237 	bicsls	r9, r0, r7, lsr r2
    9b50:	9106916b 	tstls	r6, fp, ror #2
    9b54:	904090a2 	subls	r9, r0, r2, lsr #1
    9b58:	8f7e8fde 	svchi	0x007e8fde
    9b5c:	8ec08f1f 	mcrhi	15, 6, r8, cr0, cr15, {0}
    9b60:	8e078e63 	cdphi	14, 0, cr8, cr7, cr3, {3}
    9b64:	8d528dac 	ldclhi	13, cr8, [r2, #-688]	; 0xfffffd50
    9b68:	8ca28cfa 	stchi	12, cr8, [r2], #1000	; 0x3e8
    9b6c:	8bf68c4b 	blhi	ffdacca0 <__bss_end__+0xffda2c98>
    9b70:	8b4f8ba2 	blhi	13eca00 <__bss_end__+0x13e29f8>
    9b74:	8aac8afd 	bhi	feb2c770 <__bss_end__+0xfeb22768>
    9b78:	8a0d8a5c 	bhi	36c4f0 <__bss_end__+0x3624e8>
    9b7c:	897389c0 	ldmdbhi	r3!, {r6, r7, r8, fp, pc}^
    9b80:	88de8928 	ldmhi	lr, {r3, r5, r8, fp, pc}^
    9b84:	884d8895 	stmdahi	sp, {r0, r2, r4, r7, fp, pc}^
    9b88:	87c18807 	strbhi	r8, [r1, r7, lsl #16]
    9b8c:	873a877d 			; <UNDEFINED> instruction: 0x873a877d
    9b90:	86b786f8 			; <UNDEFINED> instruction: 0x86b786f8
    9b94:	86398677 			; <UNDEFINED> instruction: 0x86398677
    9b98:	85bf85fc 	ldrhi	r8, [pc, #1532]!	; a19c <__bss_end__+0x194>
    9b9c:	854b8584 	strbhi	r8, [fp, #-1412]	; 0xfffffa7c
    9ba0:	84db8512 	ldrbhi	r8, [fp], #1298	; 0x512
    9ba4:	846f84a4 	strbthi	r8, [pc], #-1188	; 9bac <FFT_SINE_LUT+0x5b0>
    9ba8:	8409843c 	strhi	r8, [r9], #-1084	; 0xfffffbc4
    9bac:	83a783d7 			; <UNDEFINED> instruction: 0x83a783d7
    9bb0:	834a8378 	movthi	r8, #41848	; 0xa378
    9bb4:	82f2831e 	rscshi	r8, r2, #2013265920	; 0x78000000
    9bb8:	829f82c8 	addshi	r8, pc, #200, 4	; 0x8000000c
    9bbc:	82508277 	subshi	r8, r0, #1879048199	; 0x70000007
    9bc0:	8207822b 	andhi	r8, r7, #-1342177278	; 0xb0000002
    9bc4:	81c281e4 	bichi	r8, r2, r4, ror #3
    9bc8:	818281a2 	orrhi	r8, r2, r2, lsr #3
    9bcc:	81478164 	cmphi	r7, r4, ror #2
    9bd0:	8111812c 	tsthi	r1, ip, lsr #2
    9bd4:	80e080f8 	strdhi	r8, [r0], #8	; <UNPREDICTABLE>
    9bd8:	80b480c9 	adcshi	r8, r4, r9, asr #1
    9bdc:	808c809f 	umullhi	r8, ip, pc, r0	; <UNPREDICTABLE>
    9be0:	806a807a 	rsbhi	r8, sl, sl, ror r0
    9be4:	804c805a 	subhi	r8, ip, sl, asr r0
    9be8:	8033803f 	eorshi	r8, r3, pc, lsr r0
    9bec:	80208029 	eorhi	r8, r0, r9, lsr #32
    9bf0:	80118018 	andshi	r8, r1, r8, lsl r0
    9bf4:	8007800b 	andhi	r8, r7, fp
    9bf8:	80028004 	andhi	r8, r2, r4

00009bfc <putk>:
    9bfc:	00008618 	andeq	r8, r0, r8, lsl r6

00009c00 <rpi_putchar>:
    9c00:	00009220 	andeq	r9, r0, r0, lsr #4

Disassembly of section .bss:

00009c04 <__bss_start__>:
	...

Disassembly of section .ARM.attributes:

00000000 <.ARM.attributes>:
   0:	00002a41 	andeq	r2, r0, r1, asr #20
   4:	61656100 	cmnvs	r5, r0, lsl #2
   8:	01006962 	tsteq	r0, r2, ror #18
   c:	00000020 	andeq	r0, r0, r0, lsr #32
  10:	4b5a3605 	blmi	168d82c <__bss_end__+0x1683824>
  14:	08070600 	stmdaeq	r7, {r9, sl}
  18:	12010901 	andne	r0, r1, #16384	; 0x4000
  1c:	15011404 	strne	r1, [r1, #-1028]	; 0xfffffbfc
  20:	18031701 	stmdane	r3, {r0, r8, r9, sl, ip}
  24:	22011a01 	andcs	r1, r1, #4096	; 0x1000
  28:	Address 0x0000000000000028 is out of bounds.


Disassembly of section .comment:

00000000 <.comment>:
   0:	3a434347 	bcc	10d0d24 <__bss_end__+0x10c6d1c>
   4:	4e472820 	cdpmi	8, 4, cr2, cr7, cr0, {1}
   8:	6f542055 	svcvs	0x00542055
   c:	20736c6f 	rsbscs	r6, r3, pc, ror #24
  10:	20726f66 	rsbscs	r6, r2, r6, ror #30
  14:	206d7241 	rsbcs	r7, sp, r1, asr #4
  18:	65626d45 	strbvs	r6, [r2, #-3397]!	; 0xfffff2bb
  1c:	64656464 	strbtvs	r6, [r5], #-1124	; 0xfffffb9c
  20:	6f725020 	svcvs	0x00725020
  24:	73736563 	cmnvc	r3, #415236096	; 0x18c00000
  28:	2073726f 	rsbscs	r7, r3, pc, ror #4
  2c:	30322d39 	eorscc	r2, r2, r9, lsr sp
  30:	712d3931 			; <UNDEFINED> instruction: 0x712d3931
  34:	616d2d34 	cmnvs	sp, r4, lsr sp
  38:	29726f6a 	ldmdbcs	r2!, {r1, r3, r5, r6, r8, r9, sl, fp, sp, lr}^
  3c:	322e3920 	eorcc	r3, lr, #32, 18	; 0x80000
  40:	3220312e 	eorcc	r3, r0, #-2147483637	; 0x8000000b
  44:	31393130 	teqcc	r9, r0, lsr r1
  48:	20353230 	eorscs	r3, r5, r0, lsr r2
  4c:	6c657228 	sfmvs	f7, 2, [r5], #-160	; 0xffffff60
  50:	65736165 	ldrbvs	r6, [r3, #-357]!	; 0xfffffe9b
  54:	415b2029 	cmpmi	fp, r9, lsr #32
  58:	612f4d52 			; <UNDEFINED> instruction: 0x612f4d52
  5c:	392d6d72 	pushcc	{r1, r4, r5, r6, r8, sl, fp, sp, lr}
  60:	6172622d 	cmnvs	r2, sp, lsr #4
  64:	2068636e 	rsbcs	r6, r8, lr, ror #6
  68:	69766572 	ldmdbvs	r6!, {r1, r4, r5, r6, r8, sl, sp, lr}^
  6c:	6e6f6973 			; <UNDEFINED> instruction: 0x6e6f6973
  70:	37373220 	ldrcc	r3, [r7, -r0, lsr #4]!
  74:	5d393935 			; <UNDEFINED> instruction: 0x5d393935
  78:	43434700 	movtmi	r4, #14080	; 0x3700
  7c:	4728203a 			; <UNDEFINED> instruction: 0x4728203a
  80:	4120554e 			; <UNDEFINED> instruction: 0x4120554e
  84:	45206d72 	strmi	r6, [r0, #-3442]!	; 0xfffff28e
  88:	6465626d 	strbtvs	r6, [r5], #-621	; 0xfffffd93
  8c:	20646564 	rsbcs	r6, r4, r4, ror #10
  90:	6c6f6f54 	stclvs	15, cr6, [pc], #-336	; ffffff48 <__bss_end__+0xffff5f40>
  94:	69616863 	stmdbvs	r1!, {r0, r1, r5, r6, fp, sp, lr}^
  98:	3031206e 	eorscc	r2, r1, lr, rrx
  9c:	322d332e 	eorcc	r3, sp, #-1207959552	; 0xb8000000
  a0:	2e313230 	mrccs	2, 1, r3, cr1, cr0, {1}
  a4:	20293031 	eorcs	r3, r9, r1, lsr r0
  a8:	332e3031 			; <UNDEFINED> instruction: 0x332e3031
  ac:	3220312e 	eorcc	r3, r0, #-2147483637	; 0x8000000b
  b0:	30313230 	eorscc	r3, r1, r0, lsr r2
  b4:	20343238 	eorscs	r3, r4, r8, lsr r2
  b8:	6c657228 	sfmvs	f7, 2, [r5], #-160	; 0xffffff60
  bc:	65736165 	ldrbvs	r6, [r3, #-357]!	; 0xfffffe9b
  c0:	Address 0x00000000000000c0 is out of bounds.


Disassembly of section .debug_info:

00000000 <.debug_info>:
       0:	00000209 	andeq	r0, r0, r9, lsl #4
       4:	00000004 	andeq	r0, r0, r4
       8:	01040000 	mrseq	r0, (UNDEF: 4)
       c:	000000ab 	andeq	r0, r0, fp, lsr #1
      10:	0001600c 	andeq	r6, r1, ip
      14:	00000000 	andeq	r0, r0, r0
      18:	00803800 	addeq	r3, r0, r0, lsl #16
      1c:	00007c00 	andeq	r7, r0, r0, lsl #24
      20:	00000000 	andeq	r0, r0, r0
      24:	05040200 	streq	r0, [r4, #-512]	; 0xfffffe00
      28:	00746e69 	rsbseq	r6, r4, r9, ror #28
      2c:	7d070403 	cfstrsvc	mvf0, [r7, #-12]
      30:	03000001 	movweq	r0, #1
      34:	00700601 	rsbseq	r0, r0, r1, lsl #12
      38:	99040000 	stmdbls	r4, {}	; <UNPREDICTABLE>
      3c:	02000001 	andeq	r0, r0, #1, 0
      40:	00461825 	subeq	r1, r6, r5, lsr #16
      44:	02030000 	andeq	r0, r3, #0, 0
      48:	0001bb05 	andeq	fp, r1, r5, lsl #22
      4c:	05040300 	streq	r0, [r4, #-768]	; 0xfffffd00
      50:	000001a6 	andeq	r0, r0, r6, lsr #3
      54:	a1050803 	tstge	r5, r3, lsl #16
      58:	03000001 	movweq	r0, #1
      5c:	006e0801 	rsbeq	r0, lr, r1, lsl #16
      60:	02030000 	andeq	r0, r3, #0, 0
      64:	00008907 	andeq	r8, r0, r7, lsl #18
      68:	01c50400 	biceq	r0, r5, r0, lsl #8
      6c:	34020000 	strcc	r0, [r2], #-0
      70:	00007519 	andeq	r7, r0, r9, lsl r5
      74:	07040300 	streq	r0, [r4, -r0, lsl #6]
      78:	00000178 	andeq	r0, r0, r8, ror r1
      7c:	73070803 	movwvc	r0, #30723	; 0x7803
      80:	05000001 	streq	r0, [r0, #-1]
      84:	00000025 	andeq	r0, r0, r5, lsr #32
      88:	00000092 	muleq	r0, r2, r0
      8c:	00002506 	andeq	r2, r0, r6, lsl #10
      90:	af070000 	svcge	0x00070000
      94:	03000001 	movweq	r0, #1
      98:	009e0e1c 	addseq	r0, lr, ip, lsl lr
      9c:	04080000 	streq	r0, [r8], #-0
      a0:	00000083 	andeq	r0, r0, r3, lsl #1
      a4:	00002505 	andeq	r2, r0, r5, lsl #10
      a8:	0000b300 	andeq	fp, r0, r0, lsl #6
      ac:	00b30600 	adcseq	r0, r3, r0, lsl #12
      b0:	08000000 	stmdaeq	r0, {}	; <UNPREDICTABLE>
      b4:	0000c004 	andeq	ip, r0, r4
      b8:	08010300 	stmdaeq	r1, {r8, r9}
      bc:	00000077 	andeq	r0, r0, r7, ror r0
      c0:	0000b909 	andeq	fp, r0, r9, lsl #18
      c4:	078a0700 	streq	r0, [sl, r0, lsl #14]
      c8:	21030000 	mrscs	r0, (UNDEF: 3)
      cc:	0000d10e 	andeq	sp, r0, lr, lsl #2
      d0:	a4040800 	strge	r0, [r4], #-2048	; 0xfffff800
      d4:	0a000000 	beq	dc <__code_start__-0x7f24>
      d8:	00000066 	andeq	r0, r0, r6, rrx
      dc:	38060d01 	stmdacc	r6, {r0, r8, sl, fp}
      e0:	7c000080 	stcvc	0, cr0, [r0], {128}	; 0x80
      e4:	01000000 	mrseq	r0, (UNDEF: 0)
      e8:	0001cc9c 	muleq	r1, ip, ip
      ec:	05ac0b00 	streq	r0, [ip, #2816]!	; 0xb00
      f0:	0f010000 	svceq	0x00010000
      f4:	0001cc0d 	andeq	ip, r1, sp, lsl #24
      f8:	f0910300 			; <UNDEFINED> instruction: 0xf0910300
      fc:	05800b77 	streq	r0, [r0, #2935]	; 0xb77
     100:	10010000 	andne	r0, r1, r0
     104:	0001cc0d 	andeq	ip, r1, sp, lsl #24
     108:	f0910300 			; <UNDEFINED> instruction: 0xf0910300
     10c:	08270c7b 	stmdaeq	r7!, {r0, r1, r3, r4, r5, r6, sl, fp}
     110:	19010000 	stmdbne	r1, {}	; <UNPREDICTABLE>
     114:	0000690e 	andeq	r6, r0, lr, lsl #18
     118:	00000400 	andeq	r0, r0, r0, lsl #8
     11c:	00000000 	andeq	r0, r0, r0
     120:	6e650d00 	cdpvs	13, 6, cr0, cr5, cr0, {0}
     124:	1d010064 	stcne	0, cr0, [r1, #-400]	; 0xfffffe70
     128:	0000690e 	andeq	r6, r0, lr, lsl #18
     12c:	00002400 	andeq	r2, r0, r0, lsl #8
     130:	00002200 	andeq	r2, r0, r0, lsl #4
     134:	00000e00 	andeq	r0, r0, r0, lsl #28
     138:	01510000 	cmpeq	r1, r0
     13c:	690d0000 	stmdbvs	sp, {}	; <UNPREDICTABLE>
     140:	0e130100 	mufeqs	f0, f3, f0
     144:	00000025 	andeq	r0, r0, r5, lsr #32
     148:	00000039 	andeq	r0, r0, r9, lsr r0
     14c:	00000037 	andeq	r0, r0, r7, lsr r0
     150:	80740f00 	rsbshi	r0, r4, r0, lsl #30
     154:	001c0000 	andseq	r0, ip, r0
     158:	01920000 	orrseq	r0, r2, r0
     15c:	690d0000 	stmdbvs	sp, {}	; <UNPREDICTABLE>
     160:	0e1a0100 	mufeqe	f0, f2, f0
     164:	00000025 	andeq	r0, r0, r5, lsr #32
     168:	0000004f 	andeq	r0, r0, pc, asr #32
     16c:	0000004d 	andeq	r0, r0, sp, asr #32
     170:	00808810 	addeq	r8, r0, r0, lsl r8
     174:	0001dc00 	andeq	sp, r1, r0, lsl #24
     178:	50011100 	andpl	r1, r1, r0, lsl #2
     17c:	11007d02 	tstne	r0, r2, lsl #26
     180:	91035101 	tstls	r3, r1, lsl #2
     184:	01117be8 	tsteq	r1, r8, ror #23
     188:	11380152 	teqne	r8, r2, asr r1
     18c:	30015301 	andcc	r5, r1, r1, lsl #6
     190:	6c120000 	ldcvs	0, cr0, [r2], {-0}
     194:	e8000080 	stmda	r0, {r7}
     198:	12000001 	andne	r0, r0, #1, 0
     19c:	00008094 	muleq	r0, r4, r0
     1a0:	000001e8 	andeq	r0, r0, r8, ror #3
     1a4:	0080a813 	addeq	sl, r0, r3, lsl r8
     1a8:	0001f400 	andeq	pc, r1, r0, lsl #8
     1ac:	0001c200 	andeq	ip, r1, r0, lsl #4
     1b0:	50011100 	andpl	r1, r1, r0, lsl #2
     1b4:	93100305 	tstls	r0, #335544320	; 0x14000000
     1b8:	01110000 	tsteq	r1, r0
     1bc:	000a0352 	andeq	r0, sl, r2, asr r3
     1c0:	ac120001 	ldcge	0, cr0, [r2], {1}
     1c4:	00000080 	andeq	r0, r0, r0, lsl #1
     1c8:	00000002 	andeq	r0, r0, r2
     1cc:	00003a14 	andeq	r3, r0, r4, lsl sl
     1d0:	0001dc00 	andeq	sp, r1, r0, lsl #24
     1d4:	002c1500 	eoreq	r1, ip, r0, lsl #10
     1d8:	00ff0000 	rscseq	r0, pc, r0
     1dc:	00018a16 	andeq	r8, r1, r6, lsl sl
     1e0:	00018a00 	andeq	r8, r1, r0, lsl #20
     1e4:	09310400 	ldmdbeq	r1!, {sl}
     1e8:	00009c16 	andeq	r9, r0, r6, lsl ip
     1ec:	00009c00 	andeq	r9, r0, r0, lsl #24
     1f0:	0a5d0300 	beq	1740df8 <__bss_end__+0x1736df0>
     1f4:	00074c16 	andeq	r4, r7, r6, lsl ip
     1f8:	00074c00 	andeq	r4, r7, r0, lsl #24
     1fc:	06280300 	strteq	r0, [r8], -r0, lsl #6
     200:	00007c16 	andeq	r7, r0, r6, lsl ip
     204:	00007c00 	andeq	r7, r0, r0, lsl #24
     208:	066e0300 	strbteq	r0, [lr], -r0, lsl #6
     20c:	000a1800 	andeq	r1, sl, r0, lsl #16
     210:	2b000400 	blcs	1218 <__code_start__-0x6de8>
     214:	04000001 	streq	r0, [r0], #-1
     218:	0000ab01 	andeq	sl, r0, r1, lsl #22
     21c:	02890c00 	addeq	r0, r9, #0, 24
     220:	00000000 	andeq	r0, r0, r0
     224:	80b40000 	adcshi	r0, r4, r0
     228:	01d00000 	bicseq	r0, r0, r0
     22c:	01a30000 			; <UNDEFINED> instruction: 0x01a30000
     230:	04020000 	streq	r0, [r2], #-0
     234:	746e6905 	strbtvc	r6, [lr], #-2309	; 0xfffff6fb
     238:	07040300 	streq	r0, [r4, -r0, lsl #6]
     23c:	0000017d 	andeq	r0, r0, sp, ror r1
     240:	70060103 	andvc	r0, r6, r3, lsl #2
     244:	03000000 	movweq	r0, #0
     248:	01bb0502 			; <UNDEFINED> instruction: 0x01bb0502
     24c:	c6040000 	strgt	r0, [r4], -r0
     250:	03000001 	movweq	r0, #1
     254:	004d1828 	subeq	r1, sp, r8, lsr #16
     258:	04030000 	streq	r0, [r3], #-0
     25c:	0001a605 	andeq	sl, r1, r5, lsl #12
     260:	05080300 	streq	r0, [r8, #-768]	; 0xfffffd00
     264:	000001a1 	andeq	r0, r0, r1, lsr #3
     268:	6e080103 	adfvse	f0, f0, f3
     26c:	03000000 	movweq	r0, #0
     270:	00890702 	addeq	r0, r9, r2, lsl #14
     274:	c5040000 	strgt	r0, [r4, #-0]
     278:	03000001 	movweq	r0, #1
     27c:	00751934 	rsbseq	r1, r5, r4, lsr r9
     280:	04030000 	streq	r0, [r3], #-0
     284:	00017807 	andeq	r7, r1, r7, lsl #16
     288:	07080300 	streq	r0, [r8, -r0, lsl #6]
     28c:	00000173 	andeq	r0, r0, r3, ror r1
     290:	00002505 	andeq	r2, r0, r5, lsl #10
     294:	00009200 	andeq	r9, r0, r0, lsl #4
     298:	00250600 	eoreq	r0, r5, r0, lsl #12
     29c:	07000000 	streq	r0, [r0, -r0]
     2a0:	000001af 	andeq	r0, r0, pc, lsr #3
     2a4:	9e0e1c04 	cdpls	12, 0, cr1, cr14, cr4, {0}
     2a8:	08000000 	stmdaeq	r0, {}	; <UNPREDICTABLE>
     2ac:	00008304 	andeq	r8, r0, r4, lsl #6
     2b0:	00250500 	eoreq	r0, r5, r0, lsl #10
     2b4:	00b30000 	adcseq	r0, r3, r0
     2b8:	b3060000 	movwlt	r0, #24576	; 0x6000
     2bc:	00000000 	andeq	r0, r0, r0
     2c0:	00c00408 	sbceq	r0, r0, r8, lsl #8
     2c4:	01030000 	mrseq	r0, (UNDEF: 3)
     2c8:	00007708 	andeq	r7, r0, r8, lsl #14
     2cc:	00b90900 	adcseq	r0, r9, r0, lsl #18
     2d0:	8a070000 	bhi	1c02d8 <__bss_end__+0x1b62d0>
     2d4:	04000007 	streq	r0, [r0], #-7
     2d8:	00d10e21 	sbcseq	r0, r1, r1, lsr #28
     2dc:	04080000 	streq	r0, [r8], #-0
     2e0:	000000a4 	andeq	r0, r0, r4, lsr #1
     2e4:	5b01070a 	blpl	41f14 <__bss_end__+0x37f0c>
     2e8:	06000000 	streq	r0, [r0], -r0
     2ec:	01160e0c 	tsteq	r6, ip, lsl #28
     2f0:	9e0b0000 	cdpls	0, 0, cr0, cr11, cr0, {0}
     2f4:	00000003 	andeq	r0, r0, r3
     2f8:	0002460b 	andeq	r4, r2, fp, lsl #12
     2fc:	710b0100 	mrsvc	r0, (UNDEF: 27)
     300:	04000003 	streq	r0, [r0], #-3
     304:	00028f0b 	andeq	r8, r2, fp, lsl #30
     308:	9e0b0500 	cfsh32ls	mvfx0, mvfx11, #0
     30c:	06000002 	streq	r0, [r0], -r2
     310:	0002ad0b 	andeq	sl, r2, fp, lsl #26
     314:	bc0b0700 	stclt	7, cr0, [fp], {-0}
     318:	03000002 	movweq	r0, #2
     31c:	0002cb0b 	andeq	ip, r2, fp, lsl #22
     320:	0c000200 	sfmeq	f0, 4, [r0], {-0}
     324:	09100524 	ldmdbeq	r0, {r2, r5, r8, sl}
     328:	00000194 	muleq	r0, r4, r1
     32c:	0073630d 	rsbseq	r6, r3, sp, lsl #6
     330:	690e1105 	stmdbvs	lr, {r0, r2, r8, ip}
     334:	00000000 	andeq	r0, r0, r0
     338:	0003f70e 	andeq	pc, r3, lr, lsl #14
     33c:	0e120500 	cfmul32eq	mvfx0, mvfx2, mvfx0
     340:	00000069 	andeq	r0, r0, r9, rrx
     344:	02700e04 	rsbseq	r0, r0, #4, 28	; 0x40
     348:	13050000 	movwne	r0, #20480	; 0x5000
     34c:	0000690e 	andeq	r6, r0, lr, lsl #18
     350:	170e0800 	strne	r0, [lr, -r0, lsl #16]
     354:	05000005 	streq	r0, [r0, #-5]
     358:	00690e14 	rsbeq	r0, r9, r4, lsl lr
     35c:	0e0c0000 	cdpeq	0, 0, cr0, cr12, cr0, {0}
     360:	000004e2 	andeq	r0, r0, r2, ror #9
     364:	690e1505 	stmdbvs	lr, {r0, r2, r8, sl, ip}
     368:	10000000 	andne	r0, r0, r0
     36c:	0004850e 	andeq	r8, r4, lr, lsl #10
     370:	0e160500 	cfmul32eq	mvfx0, mvfx6, mvfx0
     374:	00000069 	andeq	r0, r0, r9, rrx
     378:	02570e14 	subseq	r0, r7, #20, 28	; 0x140
     37c:	17050000 	strne	r0, [r5, -r0]
     380:	0000690e 	andeq	r6, r0, lr, lsl #18
     384:	060e1800 	streq	r1, [lr], -r0, lsl #16
     388:	05000002 	streq	r0, [r0, #-2]
     38c:	00690e18 	rsbeq	r0, r9, r8, lsl lr
     390:	0e1c0000 	cdpeq	0, 1, cr0, cr12, cr0, {0}
     394:	00000236 	andeq	r0, r0, r6, lsr r2
     398:	690e1905 	stmdbvs	lr, {r0, r2, r8, fp, ip}
     39c:	20000000 	andcs	r0, r0, r0
     3a0:	023b0400 	eorseq	r0, fp, #0, 8
     3a4:	1a050000 	bne	1403ac <__bss_end__+0x1363a4>
     3a8:	00011603 	andeq	r1, r1, r3, lsl #12
     3ac:	01940f00 	orrseq	r0, r4, r0, lsl #30
     3b0:	070a0000 	streq	r0, [sl, -r0]
     3b4:	00005b01 	andeq	r5, r0, r1, lsl #22
     3b8:	0e310500 	cfabs32eq	mvfx0, mvfx1
     3bc:	00000202 	andeq	r0, r0, r2, lsl #4
     3c0:	0001e50b 	andeq	lr, r1, fp, lsl #10
     3c4:	c60b0000 	strgt	r0, [fp], -r0
     3c8:	01000004 	tsteq	r0, r4
     3cc:	0001d80b 	andeq	sp, r1, fp, lsl #16
     3d0:	200b0400 	andcs	r0, fp, r0, lsl #8
     3d4:	07000004 	streq	r0, [r0, -r4]
     3d8:	0004f50b 	andeq	pc, r4, fp, lsl #10
     3dc:	ca0b0800 	bgt	2c23e4 <__bss_end__+0x2b83dc>
     3e0:	0e000003 	cdpeq	0, 0, cr0, cr0, cr3, {0}
     3e4:	0003540b 	andeq	r5, r3, fp, lsl #8
     3e8:	ae0b1000 	cdpge	0, 0, cr1, cr11, cr0, {0}
     3ec:	12000003 	andne	r0, r0, #3, 0
     3f0:	00047a0b 	andeq	r7, r4, fp, lsl #20
     3f4:	860b1400 	strhi	r1, [fp], -r0, lsl #8
     3f8:	16000003 	strne	r0, [r0], -r3
     3fc:	0003170b 	andeq	r1, r3, fp, lsl #14
     400:	3e0b1700 	cdpcc	7, 0, cr1, cr11, cr0, {0}
     404:	18000004 	stmdane	r0, {r2}
     408:	0002750b 	andeq	r7, r2, fp, lsl #10
     40c:	0a001900 	beq	6814 <__code_start__-0x17ec>
     410:	005b0107 	subseq	r0, fp, r7, lsl #2
     414:	42050000 	andmi	r0, r5, #0, 0
     418:	0002290e 	andeq	r2, r2, lr, lsl #18
     41c:	03fc0b00 	mvnseq	r0, #0, 22
     420:	0b000000 	bleq	428 <__code_start__-0x7bd8>
     424:	00000505 	andeq	r0, r0, r5, lsl #10
     428:	03b90b09 			; <UNDEFINED> instruction: 0x03b90b09
     42c:	0b0a0000 	bleq	280434 <__bss_end__+0x27642c>
     430:	00000537 	andeq	r0, r0, r7, lsr r5
     434:	070a0013 	smladeq	sl, r3, r0, r0
     438:	00005b01 	andeq	r5, r0, r1, lsl #22
     43c:	0e4a0500 	cdpeq	5, 4, cr0, cr10, cr0, {0}
     440:	00000280 	andeq	r0, r0, r0, lsl #5
     444:	00044a0b 	andeq	r4, r4, fp, lsl #20
     448:	eb0b0000 	bl	2c0450 <__bss_end__+0x2b6448>
     44c:	03000002 	movweq	r0, #2
     450:	0004680b 	andeq	r6, r4, fp, lsl #16
     454:	240b0400 	strcs	r0, [fp], #-1024	; 0xfffffc00
     458:	0d000003 	stceq	0, cr0, [r0, #-12]
     45c:	0004300b 	andeq	r3, r4, fp
     460:	270b0e00 	strcs	r0, [fp, -r0, lsl #28]
     464:	0f000002 	svceq	0x00000002
     468:	00040e0b 	andeq	r0, r4, fp, lsl #28
     46c:	f40b1000 	vst4.8	{d1-d4}, [fp], r0
     470:	13000001 	movwne	r0, #1
     474:	0002150b 	andeq	r1, r2, fp, lsl #10
     478:	1e0b1400 	cfcpysne	mvf1, mvf11
     47c:	1d000005 	stcne	0, cr0, [r0, #-20]	; 0xffffffec
     480:	0003e90b 	andeq	lr, r3, fp, lsl #18
     484:	940b1e00 	strls	r1, [fp], #-3584	; 0xfffff200
     488:	1f000004 	svcne	0x00000004
     48c:	05a00c00 	streq	r0, [r0, #3072]!	; 0xc00
     490:	02b1096d 	adcseq	r0, r1, #1785856	; 0x1b4000
     494:	b50e0000 	strlt	r0, [lr, #-0]
     498:	05000004 	streq	r0, [r0, #-4]
     49c:	02b10e6e 	adcseq	r0, r1, #1760	; 0x6e0
     4a0:	0e000000 	cdpeq	0, 0, cr0, cr0, cr0, {0}
     4a4:	00000267 	andeq	r0, r0, r7, ror #4
     4a8:	690e6f05 	stmdbvs	lr, {r0, r2, r8, r9, sl, fp, sp, lr}
     4ac:	98000000 	stmdals	r0, {}	; <UNPREDICTABLE>
     4b0:	0003360e 	andeq	r3, r3, lr, lsl #12
     4b4:	0e700500 	cdpeq	5, 7, cr0, cr0, cr0, {0}
     4b8:	00000069 	andeq	r0, r0, r9, rrx
     4bc:	6910009c 	ldmdbvs	r0, {r2, r3, r4, r7}
     4c0:	c1000000 	mrsgt	r0, (UNDEF: 0)
     4c4:	11000002 	tstne	r0, r2
     4c8:	0000002c 	andeq	r0, r0, ip, lsr #32
     4cc:	ce040025 	cdpgt	0, 0, cr0, cr4, cr5, {1}
     4d0:	05000001 	streq	r0, [r0, #-1]
     4d4:	02800371 	addeq	r0, r0, #-1006632959	; 0xc4000001
     4d8:	c10f0000 	mrsgt	r0, CPSR
     4dc:	12000002 	andne	r0, r0, #2, 0
     4e0:	000002da 	ldrdeq	r0, [r0], -sl
     4e4:	e4160402 	ldr	r0, [r6], #-1026	; 0xfffffbfe
     4e8:	05000002 	streq	r0, [r0, #-2]
     4ec:	0095f803 	addseq	pc, r5, r3, lsl #16
     4f0:	a0040800 	andge	r0, r4, r0, lsl #16
     4f4:	12000001 	andne	r0, r0, #1, 0
     4f8:	000003e1 	andeq	r0, r0, r1, ror #7
     4fc:	fc150502 	ldc2	5, cr0, [r5], {2}
     500:	05000002 	streq	r0, [r0, #-2]
     504:	0095f403 	addseq	pc, r5, r3, lsl #8
     508:	cd040800 	stcgt	8, cr0, [r4, #-0]
     50c:	0a000002 	beq	51c <__code_start__-0x7ae4>
     510:	002c0407 	eoreq	r0, ip, r7, lsl #8
     514:	09020000 	stmdbeq	r2, {}	; <UNPREDICTABLE>
     518:	00034706 	andeq	r4, r3, r6, lsl #14
     51c:	025e1300 	subseq	r1, lr, #0, 6
     520:	10980000 	addsne	r0, r8, r0
     524:	81132010 	tsthi	r3, r0, lsl r0
     528:	9c000002 	stcls	0, cr0, [r0], {2}
     52c:	13201010 			; <UNDEFINED> instruction: 0x13201010
     530:	0000020e 	andeq	r0, r0, lr, lsl #4
     534:	20203008 	eorcs	r3, r0, r8
     538:	00038013 	andeq	r8, r3, r3, lsl r0
     53c:	20300c00 	eorscs	r0, r0, r0, lsl #24
     540:	01ef1320 	mvneq	r1, r0, lsr #6
     544:	30000000 	andcc	r0, r0, r0
     548:	30132020 	andscc	r2, r3, r0, lsr #32
     54c:	04000005 	streq	r0, [r0], #-5
     550:	00202030 	eoreq	r2, r0, r0, lsr r0
     554:	0004d214 	andeq	sp, r4, r4, lsl r2
     558:	09650200 	stmdbeq	r5!, {r9}^
     55c:	00000041 	andeq	r0, r0, r1, asr #32
     560:	00008254 	andeq	r8, r0, r4, asr r2
     564:	00000030 	andeq	r0, r0, r0, lsr r0
     568:	03a69c01 			; <UNDEFINED> instruction: 0x03a69c01
     56c:	76150000 	ldrvc	r0, [r5], -r0
     570:	02006c61 	andeq	r6, r0, #24832	; 0x6100
     574:	002c0e67 	eoreq	r0, ip, r7, ror #28
     578:	00670000 	rsbeq	r0, r7, r0
     57c:	00630000 	rsbeq	r0, r3, r0
     580:	5c160000 	ldcpl	0, cr0, [r6], {-0}
     584:	c7000082 	strgt	r0, [r0, -r2, lsl #1]
     588:	17000009 	strne	r0, [r0, -r9]
     58c:	00008268 	andeq	r8, r0, r8, ror #4
     590:	000009d3 	ldrdeq	r0, [r0], -r3
     594:	00000392 	muleq	r0, r2, r3
     598:	02500118 	subseq	r0, r0, #6
     59c:	19000074 	stmdbne	r0, {r2, r4, r5, r6}
     5a0:	0000827c 	andeq	r8, r0, ip, ror r2
     5a4:	000009d3 	ldrdeq	r0, [r0], -r3
     5a8:	05500118 	ldrbeq	r0, [r0, #-280]	; 0xfffffee8
     5ac:	2030040c 	eorscs	r0, r0, ip, lsl #8
     5b0:	1a000020 	bne	638 <__code_start__-0x79c8>
     5b4:	0000033e 	andeq	r0, r0, lr, lsr r3
     5b8:	f4061c02 			; <UNDEFINED> instruction: 0xf4061c02
     5bc:	60000080 	andvs	r0, r0, r0, lsl #1
     5c0:	01000001 	tsteq	r0, r1
     5c4:	0007659c 	muleq	r7, ip, r5
     5c8:	03471b00 	movteq	r1, #31488	; 0x7b00
     5cc:	07750000 	ldrbeq	r0, [r5, -r0]!
     5d0:	03050000 	movweq	r0, #20480	; 0x5000
     5d4:	000093ec 	andeq	r9, r0, ip, ror #7
     5d8:	6c617615 	stclvs	6, cr7, [r1], #-84	; 0xffffffac
     5dc:	0e2c0200 	cdpeq	2, 2, cr0, cr12, cr0, {0}
     5e0:	0000002c 	andeq	r0, r0, ip, lsr #32
     5e4:	000000b6 	strheq	r0, [r0], -r6
     5e8:	00000086 	andeq	r0, r0, r6, lsl #1
     5ec:	00077a1c 	andeq	r7, r7, ip, lsl sl
     5f0:	00815400 	addeq	r5, r1, r0, lsl #8
     5f4:	20005300 	andcs	r5, r0, r0, lsl #6
     5f8:	02000000 	andeq	r0, r0, #0, 0
     5fc:	04030b2f 	streq	r0, [r3], #-2863	; 0xfffff4d1
     600:	8b1d0000 	blhi	740608 <__bss_end__+0x736600>
     604:	58000007 	stmdapl	r0, {r0, r1, r2}
     608:	56000002 	strpl	r0, [r0], -r2
     60c:	00000002 	andeq	r0, r0, r2
     610:	00077a1e 	andeq	r7, r7, lr, lsl sl
     614:	00818000 	addeq	r8, r1, r0
     618:	80000700 	andhi	r0, r0, r0, lsl #14
     61c:	00000081 	andeq	r0, r0, r1, lsl #1
     620:	02000000 	andeq	r0, r0, #0, 0
     624:	042b0b3c 	strteq	r0, [fp], #-2876	; 0xfffff4c4
     628:	8b1d0000 	blhi	740630 <__bss_end__+0x736628>
     62c:	77000007 	strvc	r0, [r0, -r7]
     630:	75000002 	strvc	r0, [r0, #-2]
     634:	00000002 	andeq	r0, r0, r2
     638:	0007981c 	andeq	r9, r7, ip, lsl r8
     63c:	00819c00 	addeq	r9, r1, r0, lsl #24
     640:	38002a00 	stmdacc	r0, {r9, fp, sp}
     644:	02000000 	andeq	r0, r0, #0, 0
     648:	04890b45 	streq	r0, [r9], #2885	; 0xb45
     64c:	c91d0000 	ldmdbgt	sp, {}	; <UNPREDICTABLE>
     650:	90000007 	andls	r0, r0, r7
     654:	8e000002 	cdphi	0, 0, cr0, cr0, cr2, {0}
     658:	1d000002 	stcne	0, cr0, [r0, #-8]
     65c:	000007be 			; <UNDEFINED> instruction: 0x000007be
     660:	000002a7 	andeq	r0, r0, r7, lsr #5
     664:	000002a5 	andeq	r0, r0, r5, lsr #5
     668:	0007b31d 	andeq	fp, r7, sp, lsl r3
     66c:	0002bd00 	andeq	fp, r2, r0, lsl #26
     670:	0002bb00 	andeq	fp, r2, r0, lsl #22
     674:	07a91d00 	streq	r1, [r9, r0, lsl #26]!
     678:	02d30000 	sbcseq	r0, r3, #0, 0
     67c:	02d10000 	sbcseq	r0, r1, #0, 0
     680:	381f0000 	ldmdacc	pc, {}	; <UNPREDICTABLE>
     684:	20000000 	andcs	r0, r0, r0
     688:	000007e2 	andeq	r0, r0, r2, ror #15
     68c:	000002f3 	strdeq	r0, [r0], -r3
     690:	000002f1 	strdeq	r0, [r0], -r1
     694:	cd1c0000 	ldcgt	0, cr0, [ip, #-0]
     698:	bc000008 	stclt	0, cr0, [r0], {8}
     69c:	30000081 	andcc	r0, r0, r1, lsl #1
     6a0:	00005800 	andeq	r5, r0, r0, lsl #16
     6a4:	0b4b0200 	bleq	12c0eac <__bss_end__+0x12b6ea4>
     6a8:	000004bf 			; <UNDEFINED> instruction: 0x000004bf
     6ac:	0008e81d 	andeq	lr, r8, sp, lsl r8
     6b0:	00030900 	andeq	r0, r3, r0, lsl #18
     6b4:	00030700 	andeq	r0, r3, r0, lsl #14
     6b8:	08de1d00 	ldmeq	lr, {r8, sl, fp, ip}^
     6bc:	031f0000 	tsteq	pc, #0, 0
     6c0:	031d0000 	tsteq	sp, #0, 0
     6c4:	58210000 	stmdapl	r1!, {}	; <UNPREDICTABLE>
     6c8:	00000000 	andeq	r0, r0, r0
     6cc:	0008cd1e 	andeq	ip, r8, lr, lsl sp
     6d0:	0081d800 	addeq	sp, r1, r0, lsl #16
     6d4:	d8001900 	stmdale	r0, {r8, fp, ip}
     6d8:	00000081 	andeq	r0, r0, r1, lsl #1
     6dc:	02000000 	andeq	r0, r0, #0, 0
     6e0:	04f40b57 	ldrbteq	r0, [r4], #2903	; 0xb57
     6e4:	e81d0000 	ldmda	sp, {}	; <UNPREDICTABLE>
     6e8:	41000008 	tstmi	r0, r8
     6ec:	3f000003 	svccc	0x00000003
     6f0:	1d000003 	stcne	0, cr0, [r0, #-12]
     6f4:	000008de 	ldrdeq	r0, [r0], -lr
     6f8:	00000357 	andeq	r0, r0, r7, asr r3
     6fc:	00000355 	andeq	r0, r0, r5, asr r3
     700:	08701c00 	ldmdaeq	r0!, {sl, fp, ip}^
     704:	81f40000 	mvnshi	r0, r0
     708:	00000000 	andeq	r0, r0, r0
     70c:	00000070 	andeq	r0, r0, r0, ror r0
     710:	560b5a02 	strpl	r5, [fp], -r2, lsl #20
     714:	1d000005 	stcne	0, cr0, [r0, #-20]	; 0xffffffec
     718:	0000088b 	andeq	r0, r0, fp, lsl #17
     71c:	00000374 	andeq	r0, r0, r4, ror r3
     720:	00000372 	andeq	r0, r0, r2, ror r3
     724:	0008811d 	andeq	r8, r8, sp, lsl r1
     728:	00038a00 	andeq	r8, r3, r0, lsl #20
     72c:	00038800 	andeq	r8, r3, r0, lsl #16
     730:	08982200 	ldmeq	r8, {r9, sp}
     734:	81f40000 	mvnshi	r0, r0
     738:	00020000 	andeq	r0, r2, r0
     73c:	000081f4 	strdeq	r8, [r0], -r4
     740:	00000000 	andeq	r0, r0, r0
     744:	1d0c2401 	cfstrsne	mvf2, [ip, #-4]
     748:	000008b3 			; <UNDEFINED> instruction: 0x000008b3
     74c:	0000039f 	muleq	r0, pc, r3	; <UNPREDICTABLE>
     750:	0000039d 	muleq	r0, sp, r3
     754:	0008a91d 	andeq	sl, r8, sp, lsl r9
     758:	0003b500 	andeq	fp, r3, r0, lsl #10
     75c:	0003b300 	andeq	fp, r3, r0, lsl #6
     760:	17000000 	strne	r0, [r0, -r0]
     764:	00008104 	andeq	r8, r0, r4, lsl #2
     768:	000009d3 	ldrdeq	r0, [r0], -r3
     76c:	0000056d 	andeq	r0, r0, sp, ror #10
     770:	05500118 	ldrbeq	r0, [r0, #-280]	; 0xfffffee8
     774:	2030000c 	eorscs	r0, r0, ip
     778:	18170020 	ldmdane	r7, {r5}
     77c:	df000081 	svcle	0x00000081
     780:	85000009 	strhi	r0, [r0, #-9]
     784:	18000005 	stmdane	r0, {r0, r2}
     788:	42015001 	andmi	r5, r1, #1, 0
     78c:	01510118 	cmpeq	r1, r8, lsl r1
     790:	24170034 	ldrcs	r0, [r7], #-52	; 0xffffffcc
     794:	df000081 	svcle	0x00000081
     798:	9d000009 	stcls	0, cr0, [r0, #-36]	; 0xffffffdc
     79c:	18000005 	stmdane	r0, {r0, r2}
     7a0:	43015001 	movwmi	r5, #4097	; 0x1001
     7a4:	01510118 	cmpeq	r1, r8, lsl r1
     7a8:	30170034 	andscc	r0, r7, r4, lsr r0
     7ac:	df000081 	svcle	0x00000081
     7b0:	b5000009 	strlt	r0, [r0, #-9]
     7b4:	18000005 	stmdane	r0, {r0, r2}
     7b8:	44015001 	strmi	r5, [r1], #-1
     7bc:	01510118 	cmpeq	r1, r8, lsl r1
     7c0:	38170034 	ldmdacc	r7, {r2, r4, r5}
     7c4:	eb000081 	bl	9d0 <__code_start__-0x7630>
     7c8:	c8000009 	stmdagt	r0, {r0, r3}
     7cc:	18000005 	stmdane	r0, {r0, r2}
     7d0:	42015001 	andmi	r5, r1, #1, 0
     7d4:	81401700 	cmphi	r0, r0, lsl #14
     7d8:	09eb0000 	stmibeq	fp!, {}^	; <UNPREDICTABLE>
     7dc:	05db0000 	ldrbeq	r0, [fp]
     7e0:	01180000 	tsteq	r8, r0
     7e4:	00430150 	subeq	r0, r3, r0, asr r1
     7e8:	00814817 	addeq	r4, r1, r7, lsl r8
     7ec:	0009eb00 	andeq	lr, r9, r0, lsl #22
     7f0:	0005ee00 	andeq	lr, r5, r0, lsl #28
     7f4:	50011800 	andpl	r1, r1, r0, lsl #16
     7f8:	16004401 	strne	r4, [r0], -r1, lsl #8
     7fc:	0000814c 	andeq	r8, r0, ip, asr #2
     800:	000009c7 	andeq	r0, r0, r7, asr #19
     804:	00815417 	addeq	r5, r1, r7, lsl r4
     808:	0009d300 	andeq	sp, r9, r0, lsl #6
     80c:	00060e00 	andeq	r0, r6, r0, lsl #28
     810:	50011800 	andpl	r1, r1, r0, lsl #16
     814:	10980c05 	addsne	r0, r8, r5, lsl #24
     818:	17002010 	smladne	r0, r0, r0, r2
     81c:	0000816c 	andeq	r8, r0, ip, ror #2
     820:	000009f7 	strdeq	r0, [r0], -r7
     824:	00000625 	andeq	r0, r0, r5, lsr #12
     828:	05500118 	ldrbeq	r0, [r0, #-280]	; 0xfffffee8
     82c:	1010980c 	andsne	r9, r0, ip, lsl #16
     830:	78170020 	ldmdavc	r7, {r5}
     834:	f7000081 			; <UNDEFINED> instruction: 0xf7000081
     838:	45000009 	strmi	r0, [r0, #-9]
     83c:	18000006 	stmdane	r0, {r1, r2}
     840:	0c055001 	stceq	0, cr5, [r5], {1}
     844:	2010109c 	mulscs	r0, ip, r0
     848:	05510118 	ldrbeq	r0, [r1, #-280]	; 0xfffffee8
     84c:	006cd80c 	rsbeq	sp, ip, ip, lsl #16
     850:	8017005a 	andshi	r0, r7, sl, asr r0
     854:	d3000081 	movwle	r0, #129	; 0x81
     858:	5c000009 	stcpl	0, cr0, [r0], {9}
     85c:	18000006 	stmdane	r0, {r1, r2}
     860:	0c055001 	stceq	0, cr5, [r5], {1}
     864:	20101098 	mulscs	r0, r8, r0
     868:	81901700 	orrshi	r1, r0, r0, lsl #14
     86c:	09f70000 	ldmibeq	r7!, {}^	; <UNPREDICTABLE>
     870:	06730000 	ldrbteq	r0, [r3], -r0
     874:	01180000 	tsteq	r8, r0
     878:	980c0550 	stmdals	ip, {r4, r6, r8, sl}
     87c:	00201010 	eoreq	r1, r0, r0, lsl r0
     880:	00819416 	addeq	r9, r1, r6, lsl r4
     884:	0009c700 	andeq	ip, r9, r0, lsl #14
     888:	819c1700 	orrshi	r1, ip, r0, lsl #14
     88c:	09d30000 	ldmibeq	r3, {}^	; <UNPREDICTABLE>
     890:	06930000 	ldreq	r0, [r3], r0
     894:	01180000 	tsteq	r8, r0
     898:	080c0550 	stmdaeq	ip, {r4, r6, r8, sl}
     89c:	00202030 	eoreq	r2, r0, r0, lsr r0
     8a0:	0081b417 	addeq	fp, r1, r7, lsl r4
     8a4:	0009f700 	andeq	pc, r9, r0, lsl #14
     8a8:	0006aa00 	andeq	sl, r6, r0, lsl #20
     8ac:	50011800 	andpl	r1, r1, r0, lsl #16
     8b0:	30080c05 	andcc	r0, r8, r5, lsl #24
     8b4:	17002020 	strne	r2, [r0, -r0, lsr #32]
     8b8:	000081bc 			; <UNDEFINED> instruction: 0x000081bc
     8bc:	000009d3 	ldrdeq	r0, [r0], -r3
     8c0:	000006c1 	andeq	r0, r0, r1, asr #13
     8c4:	05500118 	ldrbeq	r0, [r0, #-280]	; 0xfffffee8
     8c8:	20300c0c 	eorscs	r0, r0, ip, lsl #24
     8cc:	d0170020 	andsle	r0, r7, r0, lsr #32
     8d0:	f7000081 			; <UNDEFINED> instruction: 0xf7000081
     8d4:	d8000009 	stmdale	r0, {r0, r3}
     8d8:	18000006 	stmdane	r0, {r1, r2}
     8dc:	0c055001 	stceq	0, cr5, [r5], {1}
     8e0:	2020300c 	eorcs	r3, r0, ip
     8e4:	81d81700 	bicshi	r1, r8, r0, lsl #14
     8e8:	09d30000 	ldmibeq	r3, {}^	; <UNPREDICTABLE>
     8ec:	06ef0000 	strbteq	r0, [pc], r0
     8f0:	01180000 	tsteq	r8, r0
     8f4:	000c0550 	andeq	r0, ip, r0, asr r5
     8f8:	00202030 	eoreq	r2, r0, r0, lsr r0
     8fc:	0081e817 	addeq	lr, r1, r7, lsl r8
     900:	0009f700 	andeq	pc, r9, r0, lsl #14
     904:	00070600 	andeq	r0, r7, r0, lsl #12
     908:	50011800 	andpl	r1, r1, r0, lsl #16
     90c:	30000c05 	andcc	r0, r0, r5, lsl #24
     910:	17002020 	strne	r2, [r0, -r0, lsr #32]
     914:	000081f4 	strdeq	r8, [r0], -r4
     918:	000009d3 	ldrdeq	r0, [r0], -r3
     91c:	0000071a 	andeq	r0, r0, sl, lsl r7
     920:	02500118 	subseq	r0, r0, #6
     924:	23000074 	movwcs	r0, #116	; 0x74
     928:	00008208 	andeq	r8, r0, r8, lsl #4
     92c:	000009c7 	andeq	r0, r0, r7, asr #19
     930:	00822417 	addeq	r2, r2, r7, lsl r4
     934:	000a0300 	andeq	r0, sl, r0, lsl #6
     938:	00075b00 	andeq	r5, r7, r0, lsl #22
     93c:	50011800 	andpl	r1, r1, r0, lsl #16
     940:	93880305 	orrls	r0, r8, #335544320	; 0x14000000
     944:	01180000 	tsteq	r8, r0
     948:	b4030551 	strlt	r0, [r3], #-1361	; 0xfffffaaf
     94c:	18000093 	stmdane	r0, {r0, r1, r4, r7}
     950:	03055201 	movweq	r5, #20993	; 0x5201
     954:	000093ec 	andeq	r9, r0, ip, ror #7
     958:	01530118 	cmpeq	r3, r8, lsl r1
     95c:	7d02184d 	stcvc	8, cr1, [r2, #-308]	; 0xfffffecc
     960:	bc030500 	cfstr32lt	mvfx0, [r3], {-0}
     964:	00000093 	muleq	r0, r3, r0
     968:	00822816 	addeq	r2, r2, r6, lsl r8
     96c:	000a0f00 	andeq	r0, sl, r0, lsl #30
     970:	c0100000 	andsgt	r0, r0, r0
     974:	75000000 	strvc	r0, [r0, #-0]
     978:	11000007 	tstne	r0, r7
     97c:	0000002c 	andeq	r0, r0, ip, lsr #32
     980:	65090008 	strvs	r0, [r9, #-8]
     984:	24000007 	strcs	r0, [r0], #-7
     988:	00000391 	muleq	r0, r1, r3
     98c:	690a1502 	stmdbvs	sl, {r1, r8, sl, ip}
     990:	01000000 	mrseq	r0, (UNDEF: 0)
     994:	00000798 	muleq	r0, r8, r7
     998:	6c617625 	stclvs	6, cr7, [r1], #-148	; 0xffffff6c
     99c:	20150200 	andscs	r0, r5, r0, lsl #4
     9a0:	00000069 	andeq	r0, r0, r9, rrx
     9a4:	03d82600 	bicseq	r2, r8, #0, 12
     9a8:	4d010000 	stcmi	0, cr0, [r1, #-0]
     9ac:	00006901 	andeq	r6, r0, r1, lsl #18
     9b0:	07ed0300 	strbeq	r0, [sp, r0, lsl #6]!
     9b4:	78250000 	stmdavc	r5!, {}	; <UNPREDICTABLE>
     9b8:	134d0100 	movtne	r0, #53504	; 0xd100
     9bc:	00000069 	andeq	r0, r0, r9, rrx
     9c0:	00626c25 	rsbeq	r6, r2, r5, lsr #24
     9c4:	2c1f4d01 	ldccs	13, cr4, [pc], {1}
     9c8:	25000000 	strcs	r0, [r0, #-0]
     9cc:	01006275 	tsteq	r0, r5, ror r2
     9d0:	002c2c4d 	eoreq	r2, ip, sp, asr #24
     9d4:	76250000 	strtvc	r0, [r5], -r0
     9d8:	394d0100 	stmdbcc	sp, {r8}^
     9dc:	00000069 	andeq	r0, r0, r9, rrx
     9e0:	0003471b 	andeq	r4, r3, fp, lsl r7
     9e4:	00077500 	andeq	r7, r7, r0, lsl #10
     9e8:	e0030500 	and	r0, r3, r0, lsl #10
     9ec:	27000093 			; <UNDEFINED> instruction: 0x27000093
     9f0:	5601006e 	strpl	r0, [r1], -lr, rrx
     9f4:	00002c0e 	andeq	r2, r0, lr, lsl #24
     9f8:	03260000 			; <UNDEFINED> instruction: 0x03260000
     9fc:	01000003 	tsteq	r0, r3
     a00:	00690141 	rsbeq	r0, r9, r1, asr #2
     a04:	34030000 	strcc	r0, [r3], #-0
     a08:	25000008 	strcs	r0, [r0, #-8]
     a0c:	41010078 	tstmi	r1, r8, ror r0
     a10:	00006913 	andeq	r6, r0, r3, lsl r9
     a14:	626c2500 	rsbvs	r2, ip, #0, 10
     a18:	1f410100 	svcne	0x00410100
     a1c:	0000002c 	andeq	r0, r0, ip, lsr #32
     a20:	00627525 	rsbeq	r7, r2, r5, lsr #10
     a24:	2c2c4101 	stfcss	f4, [ip], #-4
     a28:	28000000 	stmdacs	r0, {}	; <UNPREDICTABLE>
     a2c:	00000347 	andeq	r0, r0, r7, asr #6
     a30:	00000775 	andeq	r0, r0, r5, ror r7
     a34:	00048f29 	andeq	r8, r4, r9, lsr #30
     a38:	0e450100 	dvfeqs	f0, f5, f0
     a3c:	00000069 	andeq	r0, r0, r9, rrx
     a40:	048a2600 	streq	r2, [sl], #1536	; 0x600
     a44:	2f010000 	svccs	0x00010000
     a48:	00006918 	andeq	r6, r0, r8, lsl r9
     a4c:	085b0300 	ldmdaeq	fp, {r8, r9}^
     a50:	fd2a0000 	stc2	0, cr0, [sl, #-0]
     a54:	01000002 	tsteq	r0, r2
     a58:	002c2b2f 	eoreq	r2, ip, pc, lsr #22
     a5c:	47280000 	strmi	r0, [r8, -r0]!
     a60:	6b000003 	blvs	a74 <__code_start__-0x758c>
     a64:	00000008 	andeq	r0, r0, r8
     a68:	0000c010 	andeq	ip, r0, r0, lsl r0
     a6c:	00086b00 	andeq	r6, r8, r0, lsl #22
     a70:	002c1100 	eoreq	r1, ip, r0, lsl #2
     a74:	00090000 	andeq	r0, r9, r0
     a78:	00085b09 	andeq	r5, r8, r9, lsl #22
     a7c:	030c2600 	movweq	r2, #50688	; 0xc600
     a80:	23010000 	movwcs	r0, #4096	; 0x1000
     a84:	00002c01 	andeq	r2, r0, r1, lsl #24
     a88:	08980300 	ldmeq	r8, {r8, r9}
     a8c:	78250000 	stmdavc	r5!, {}	; <UNPREDICTABLE>
     a90:	15230100 	strne	r0, [r3, #-256]!	; 0xffffff00
     a94:	00000069 	andeq	r0, r0, r9, rrx
     a98:	74696225 	strbtvc	r6, [r9], #-549	; 0xfffffddb
     a9c:	21230100 			; <UNDEFINED> instruction: 0x21230100
     aa0:	0000002c 	andeq	r0, r0, ip, lsr #32
     aa4:	03672600 	cmneq	r7, #0, 12
     aa8:	1e010000 	cdpne	0, 0, cr0, cr1, cr0, {0}
     aac:	00002c01 	andeq	r2, r0, r1, lsl #24
     ab0:	08cd0300 	stmiaeq	sp, {r8, r9}^
     ab4:	78250000 	stmdavc	r5!, {}	; <UNPREDICTABLE>
     ab8:	141e0100 	ldrne	r0, [lr], #-256	; 0xffffff00
     abc:	00000069 	andeq	r0, r0, r9, rrx
     ac0:	74696225 	strbtvc	r6, [r9], #-549	; 0xfffffddb
     ac4:	201e0100 	andscs	r0, lr, r0, lsl #2
     ac8:	0000002c 	andeq	r0, r0, ip, lsr #32
     acc:	0003472b 	andeq	r4, r3, fp, lsr #14
     ad0:	00086b00 	andeq	r6, r8, r0, lsl #22
     ad4:	00036700 	andeq	r6, r3, r0, lsl #14
     ad8:	e3260000 			; <UNDEFINED> instruction: 0xe3260000
     adc:	01000002 	tsteq	r0, r2
     ae0:	0069010e 	rsbeq	r0, r9, lr, lsl #2
     ae4:	02030000 	andeq	r0, r3, #0, 0
     ae8:	25000009 	strcs	r0, [r0, #-9]
     aec:	0e010078 	mcreq	0, 0, r0, cr1, cr8, {3}
     af0:	00006912 	andeq	r6, r0, r2, lsl r9
     af4:	69622500 	stmdbvs	r2!, {r8, sl, sp}^
     af8:	0e010074 	mcreq	0, 0, r0, cr1, cr4, {3}
     afc:	00002c1e 	andeq	r2, r0, lr, lsl ip
     b00:	03472b00 	movteq	r2, #31488	; 0x7b00
     b04:	09120000 	ldmdbeq	r2, {}	; <UNPREDICTABLE>
     b08:	02e30000 	rsceq	r0, r3, #0, 0
     b0c:	10000000 	andne	r0, r0, r0
     b10:	000000c0 	andeq	r0, r0, r0, asr #1
     b14:	00000912 	andeq	r0, r0, r2, lsl r9
     b18:	00002c11 	andeq	r2, r0, r1, lsl ip
     b1c:	09000700 	stmdbeq	r0, {r8, r9, sl}
     b20:	00000902 	andeq	r0, r0, r2, lsl #18
     b24:	0007982c 	andeq	r9, r7, ip, lsr #16
     b28:	0080b400 	addeq	fp, r0, r0, lsl #8
     b2c:	00003800 	andeq	r3, r0, r0, lsl #16
     b30:	a69c0100 	ldrge	r0, [ip], r0, lsl #2
     b34:	2d000009 	stccs	0, cr0, [r0, #-36]	; 0xffffffdc
     b38:	000007e2 	andeq	r0, r0, r2, ror #15
     b3c:	0007c91d 	andeq	ip, r7, sp, lsl r9
     b40:	0003ca00 	andeq	ip, r3, r0, lsl #20
     b44:	0003c800 	andeq	ip, r3, r0, lsl #16
     b48:	07be1d00 	ldreq	r1, [lr, r0, lsl #26]!
     b4c:	03e40000 	mvneq	r0, #0, 0
     b50:	03e20000 	mvneq	r0, #0, 0
     b54:	b31d0000 	tstlt	sp, #0, 0
     b58:	fe000007 	cdp2	0, 0, cr0, cr0, cr7, {0}
     b5c:	fc000003 	stc2	0, cr0, [r0], {3}
     b60:	1d000003 	stcne	0, cr0, [r0, #-12]
     b64:	000007a9 	andeq	r0, r0, r9, lsr #15
     b68:	00000418 	andeq	r0, r0, r8, lsl r4
     b6c:	00000416 	andeq	r0, r0, r6, lsl r4
     b70:	0080d817 	addeq	sp, r0, r7, lsl r8
     b74:	000a0300 	andeq	r0, sl, r0, lsl #6
     b78:	00099c00 	andeq	r9, r9, r0, lsl #24
     b7c:	50011800 	andpl	r1, r1, r0, lsl #16
     b80:	93880305 	orrls	r0, r8, #335544320	; 0x14000000
     b84:	01180000 	tsteq	r8, r0
     b88:	28030551 	stmdacs	r3, {r0, r4, r6, r8, sl}
     b8c:	18000093 	stmdane	r0, {r0, r1, r4, r7}
     b90:	03055201 	movweq	r5, #20993	; 0x5201
     b94:	000093e0 	andeq	r9, r0, r0, ror #7
     b98:	02530118 	subseq	r0, r3, #6
     b9c:	02185808 	andseq	r5, r8, #8, 16	; 0x80000
     ba0:	0305007d 	movweq	r0, #20605	; 0x507d
     ba4:	0000939c 	muleq	r0, ip, r3
     ba8:	80dc1600 	sbcshi	r1, ip, r0, lsl #12
     bac:	0a0f0000 	beq	3c0bb4 <__bss_end__+0x3b6bac>
     bb0:	2c000000 	stccs	0, cr0, [r0], {-0}
     bb4:	0000077a 	andeq	r0, r0, sl, ror r7
     bb8:	000080ec 	andeq	r8, r0, ip, ror #1
     bbc:	00000008 	andeq	r0, r0, r8
     bc0:	09c79c01 	stmibeq	r7, {r0, sl, fp, ip, pc}^
     bc4:	8b1d0000 	blhi	740bcc <__bss_end__+0x736bc4>
     bc8:	34000007 	strcc	r0, [r0], #-7
     bcc:	30000004 	andcc	r0, r0, r4
     bd0:	00000004 	andeq	r0, r0, r4
     bd4:	00045c2e 	andeq	r5, r4, lr, lsr #24
     bd8:	00045c00 	andeq	r5, r4, r0, lsl #24
     bdc:	06a10400 	strteq	r0, [r1], r0, lsl #8
     be0:	0003612e 	andeq	r6, r3, lr, lsr #2
     be4:	00036100 	andeq	r6, r3, r0, lsl #2
     be8:	0ac70400 	beq	ff1c1bf0 <__bss_end__+0xff1b7be8>
     bec:	0004a32e 	andeq	sl, r4, lr, lsr #6
     bf0:	0004a300 	andeq	sl, r4, r0, lsl #6
     bf4:	06190600 	ldreq	r0, [r9], -r0, lsl #12
     bf8:	0004e92e 	andeq	lr, r4, lr, lsr #18
     bfc:	0004e900 	andeq	lr, r4, r0, lsl #18
     c00:	06270600 	strteq	r0, [r7], -r0, lsl #12
     c04:	0004c02e 	andeq	ip, r4, lr, lsr #32
     c08:	0004c000 	andeq	ip, r4, r0
     c0c:	06b20400 	ldrteq	r0, [r2], r0, lsl #8
     c10:	00074c2e 	andeq	r4, r7, lr, lsr #24
     c14:	00074c00 	andeq	r4, r7, r0, lsl #24
     c18:	06280400 	strteq	r0, [r8], -r0, lsl #8
     c1c:	00007c2e 	andeq	r7, r0, lr, lsr #24
     c20:	00007c00 	andeq	r7, r0, r0, lsl #24
     c24:	066e0400 	strbteq	r0, [lr], -r0, lsl #8
     c28:	00074d00 	andeq	r4, r7, r0, lsl #26
     c2c:	cc000400 	cfstrsgt	mvf0, [r0], {-0}
     c30:	04000003 	streq	r0, [r0], #-3
     c34:	0000ab01 	andeq	sl, r0, r1, lsl #22
     c38:	05a10c00 	streq	r0, [r1, #3072]!	; 0xc00
     c3c:	00000000 	andeq	r0, r0, r0
     c40:	82840000 	addhi	r0, r4, #0, 0
     c44:	033c0000 	teqeq	ip, #0, 0
     c48:	0d2b0000 	stceq	0, cr0, [fp, #-0]
     c4c:	04020000 	streq	r0, [r2], #-0
     c50:	746e6905 	strbtvc	r6, [lr], #-2309	; 0xfffff6fb
     c54:	07040300 	streq	r0, [r4, -r0, lsl #6]
     c58:	0000017d 	andeq	r0, r0, sp, ror r1
     c5c:	70060103 	andvc	r0, r6, r3, lsl #2
     c60:	04000000 	streq	r0, [r0], #-0
     c64:	00000199 	muleq	r0, r9, r1
     c68:	46182503 	ldrmi	r2, [r8], -r3, lsl #10
     c6c:	03000000 	movweq	r0, #0
     c70:	01bb0502 			; <UNDEFINED> instruction: 0x01bb0502
     c74:	c6040000 	strgt	r0, [r4], -r0
     c78:	03000001 	movweq	r0, #1
     c7c:	00591828 	subseq	r1, r9, r8, lsr #16
     c80:	04030000 	streq	r0, [r3], #-0
     c84:	0001a605 	andeq	sl, r1, r5, lsl #12
     c88:	05080300 	streq	r0, [r8, #-768]	; 0xfffffd00
     c8c:	000001a1 	andeq	r0, r0, r1, lsr #3
     c90:	6e080103 	adfvse	f0, f0, f3
     c94:	03000000 	movweq	r0, #0
     c98:	00890702 	addeq	r0, r9, r2, lsl #14
     c9c:	04030000 	streq	r0, [r3], #-0
     ca0:	00017807 	andeq	r7, r1, r7, lsl #16
     ca4:	07080300 	streq	r0, [r8, -r0, lsl #6]
     ca8:	00000173 	andeq	r0, r0, r3, ror r1
     cac:	00002505 	andeq	r2, r0, r5, lsl #10
     cb0:	00009200 	andeq	r9, r0, r0, lsl #4
     cb4:	00250600 	eoreq	r0, r5, r0, lsl #12
     cb8:	07000000 	streq	r0, [r0, -r0]
     cbc:	000001af 	andeq	r0, r0, pc, lsr #3
     cc0:	9e0e1c04 	cdpls	12, 0, cr1, cr14, cr4, {0}
     cc4:	08000000 	stmdaeq	r0, {}	; <UNPREDICTABLE>
     cc8:	00008304 	andeq	r8, r0, r4, lsl #6
     ccc:	00250500 	eoreq	r0, r5, r0, lsl #10
     cd0:	00b30000 	adcseq	r0, r3, r0
     cd4:	b3060000 	movwlt	r0, #24576	; 0x6000
     cd8:	00000000 	andeq	r0, r0, r0
     cdc:	00c00408 	sbceq	r0, r0, r8, lsl #8
     ce0:	01030000 	mrseq	r0, (UNDEF: 3)
     ce4:	00007708 	andeq	r7, r0, r8, lsl #14
     ce8:	00b90900 	adcseq	r0, r9, r0, lsl #18
     cec:	8a070000 	bhi	1c0cf4 <__bss_end__+0x1b6cec>
     cf0:	04000007 	streq	r0, [r0], #-7
     cf4:	00d10e21 	sbcseq	r0, r1, r1, lsr #28
     cf8:	04080000 	streq	r0, [r8], #-0
     cfc:	000000a4 	andeq	r0, r0, r4, lsr #1
     d00:	00003a0a 	andeq	r3, r0, sl, lsl #20
     d04:	0000e800 	andeq	lr, r0, r0, lsl #16
     d08:	002c0b00 	eoreq	r0, ip, r0, lsl #22
     d0c:	02ff0000 	rscseq	r0, pc, #0, 0
     d10:	06050c00 	streq	r0, [r5], -r0, lsl #24
     d14:	0a050000 	beq	140d1c <__bss_end__+0x136d14>
     d18:	0000d709 	andeq	sp, r0, r9, lsl #14
     d1c:	fc030500 	stc2	5, cr0, [r3], {-0}
     d20:	0d000095 	stceq	0, cr0, [r0, #-596]	; 0xfffffdac
     d24:	000005bd 			; <UNDEFINED> instruction: 0x000005bd
     d28:	4d096901 	vstrmi.16	s12, [r9, #-2]	; <UNPREDICTABLE>
     d2c:	98000000 	stmdals	r0, {}	; <UNPREDICTABLE>
     d30:	28000085 	stmdacs	r0, {r0, r2, r7}
     d34:	01000000 	mrseq	r0, (UNDEF: 0)
     d38:	0001e29c 	muleq	r1, ip, r2
     d3c:	0bc90e00 	bleq	ff244544 <__bss_end__+0xff23a53c>
     d40:	69010000 	stmdbvs	r1, {}	; <UNPREDICTABLE>
     d44:	0001e221 	andeq	lr, r1, r1, lsr #4
     d48:	00045900 	andeq	r5, r4, r0, lsl #18
     d4c:	00045500 	andeq	r5, r4, r0, lsl #10
     d50:	055f0e00 	ldrbeq	r0, [pc, #-3584]	; ffffff58 <__bss_end__+0xffff5f50>
     d54:	69010000 	stmdbvs	r1, {}	; <UNPREDICTABLE>
     d58:	00004d2f 	andeq	r4, r0, pc, lsr #26
     d5c:	00047e00 	andeq	r7, r4, r0, lsl #28
     d60:	00047a00 	andeq	r7, r4, r0, lsl #20
     d64:	05850e00 	streq	r0, [r5, #3584]	; 0xe00
     d68:	69010000 	stmdbvs	r1, {}	; <UNPREDICTABLE>
     d6c:	00002c42 	andeq	r2, r0, r2, asr #24
     d70:	0004a300 	andeq	sl, r4, r0, lsl #6
     d74:	00049f00 	andeq	r9, r4, r0, lsl #30
     d78:	03470f00 	movteq	r0, #32512	; 0x7f00
     d7c:	01f80000 	mvnseq	r0, r0
     d80:	03050000 	movweq	r0, #20480	; 0x5000
     d84:	00009470 	andeq	r9, r0, r0, ror r4
     d88:	01006910 	tsteq	r0, r0, lsl r9
     d8c:	004d0d6c 	subeq	r0, sp, ip, ror #26
     d90:	4e100000 	cdpmi	0, 1, cr0, cr0, cr0, {0}
     d94:	0e6d0100 	poweqe	f0, f5, f0
     d98:	0000002c 	andeq	r0, r0, ip, lsr #32
     d9c:	0005b711 	andeq	fp, r5, r1, lsl r7
     da0:	0d6e0100 	stfeqe	f0, [lr, #-0]
     da4:	0000004d 	andeq	r0, r0, sp, asr #32
     da8:	0005ac11 	andeq	sl, r5, r1, lsl ip
     dac:	0e6f0100 	poweqe	f0, f7, f0
     db0:	000001e2 	andeq	r0, r0, r2, ror #3
     db4:	00058011 	andeq	r8, r5, r1, lsl r0
     db8:	0e700100 	rpweqs	f0, f0, f0
     dbc:	000001e2 	andeq	r0, r0, r2, ror #3
     dc0:	0001a912 	andeq	sl, r1, r2, lsl r9
     dc4:	055a1100 	ldrbeq	r1, [sl, #-256]	; 0xffffff00
     dc8:	76010000 	strvc	r0, [r1], -r0
     dcc:	00003a11 	andeq	r3, r0, r1, lsl sl
     dd0:	b0130000 	andslt	r0, r3, r0
     dd4:	38000085 	stmdacc	r0, {r0, r2, r7}
     dd8:	d8000007 	stmdale	r0, {r0, r1, r2}
     ddc:	14000001 	strne	r0, [r0], #-1
     de0:	03055001 	movweq	r5, #20481	; 0x5001
     de4:	00009430 	andeq	r9, r0, r0, lsr r4
     de8:	05510114 	ldrbeq	r0, [r1, #-276]	; 0xfffffeec
     dec:	0093f803 	addseq	pc, r3, r3, lsl #16
     df0:	52011400 	andpl	r1, r1, #0, 8
     df4:	94700305 	ldrbtls	r0, [r0], #-773	; 0xfffffcfb
     df8:	01140000 	tsteq	r4, r0
     dfc:	6a080253 	bvs	201750 <__bss_end__+0x1f7748>
     e00:	85b41500 	ldrhi	r1, [r4, #1280]!	; 0x500
     e04:	07440000 	strbeq	r0, [r4, -r0]
     e08:	08000000 	stmdaeq	r0, {}	; <UNPREDICTABLE>
     e0c:	00003a04 	andeq	r3, r0, r4, lsl #20
     e10:	00c00a00 	sbceq	r0, r0, r0, lsl #20
     e14:	01f80000 	mvnseq	r0, r0
     e18:	2c160000 	ldccs	0, cr0, [r6], {-0}
     e1c:	0e000000 	cdpeq	0, 0, cr0, cr0, cr0, {0}
     e20:	01e80900 	mvneq	r0, r0, lsl #18
     e24:	8a0d0000 	bhi	340e2c <__bss_end__+0x336e24>
     e28:	01000001 	tsteq	r0, r1
     e2c:	004d090a 	subeq	r0, sp, sl, lsl #18
     e30:	82840000 	addhi	r0, r4, #0, 0
     e34:	03140000 	tsteq	r4, #0, 0
     e38:	9c010000 	stcls	0, cr0, [r1], {-0}
     e3c:	000006ca 	andeq	r0, r0, sl, asr #13
     e40:	0005ac0e 	andeq	sl, r5, lr, lsl #24
     e44:	210a0100 	mrscs	r0, (UNDEF: 26)
     e48:	000001e2 	andeq	r0, r0, r2, ror #3
     e4c:	000004d0 	ldrdeq	r0, [r0], -r0	; <UNPREDICTABLE>
     e50:	000004c4 	andeq	r0, r0, r4, asr #9
     e54:	0005800e 	andeq	r8, r5, lr
     e58:	300a0100 	andcc	r0, sl, r0, lsl #2
     e5c:	000001e2 	andeq	r0, r0, r2, ror #3
     e60:	0000052c 	andeq	r0, r0, ip, lsr #10
     e64:	00000520 	andeq	r0, r0, r0, lsr #10
     e68:	00055f0e 	andeq	r5, r5, lr, lsl #30
     e6c:	3e0a0100 	adfcce	f0, f2, f0
     e70:	0000003a 	andeq	r0, r0, sl, lsr r0
     e74:	00000584 	andeq	r0, r0, r4, lsl #11
     e78:	0000057c 	andeq	r0, r0, ip, ror r5
     e7c:	0005850e 	andeq	r8, r5, lr, lsl #10
     e80:	510a0100 	mrspl	r0, (UNDEF: 26)
     e84:	0000002c 	andeq	r0, r0, ip, lsr #32
     e88:	000005c6 	andeq	r0, r0, r6, asr #11
     e8c:	000005be 			; <UNDEFINED> instruction: 0x000005be
     e90:	01006e17 	tsteq	r0, r7, lsl lr
     e94:	002c0e0c 	eoreq	r0, ip, ip, lsl #28
     e98:	06000000 	streq	r0, [r0], -r0
     e9c:	05fc0000 	ldrbeq	r0, [ip, #0]!
     ea0:	470f0000 	strmi	r0, [pc, -r0]
     ea4:	f8000003 			; <UNDEFINED> instruction: 0xf8000003
     ea8:	05000001 	streq	r0, [r0, #-1]
     eac:	00946003 	addseq	r6, r4, r3
     eb0:	05b71800 	ldreq	r1, [r7, #2048]!	; 0x800
     eb4:	12010000 	andne	r0, r1, #0, 0
     eb8:	00004d0d 	andeq	r4, r0, sp, lsl #26
     ebc:	00062200 	andeq	r2, r6, r0, lsl #4
     ec0:	00061e00 	andeq	r1, r6, r0, lsl #28
     ec4:	05511800 	ldrbeq	r1, [r1, #-2048]	; 0xfffff800
     ec8:	13010000 	movwne	r0, #4096	; 0x1000
     ecc:	00004d0d 	andeq	r4, r0, sp, lsl #26
     ed0:	00064800 	andeq	r4, r6, r0, lsl #16
     ed4:	00064200 	andeq	r4, r6, r0, lsl #4
     ed8:	656c1700 	strbvs	r1, [ip, #-1792]!	; 0xfffff900
     edc:	2901006e 	stmdbcs	r1, {r1, r2, r3, r5, r6}
     ee0:	00002c0e 	andeq	r2, r0, lr, lsl #24
     ee4:	00067800 	andeq	r7, r6, r0, lsl #16
     ee8:	00067200 	andeq	r7, r6, r0, lsl #4
     eec:	05e81800 	strbeq	r1, [r8, #2048]!	; 0x800
     ef0:	2a010000 	bcs	40ef8 <__bss_end__+0x36ef0>
     ef4:	00003a0d 	andeq	r3, r0, sp, lsl #20
     ef8:	0006a700 	andeq	sl, r6, r0, lsl #14
     efc:	0006a300 	andeq	sl, r6, r0, lsl #6
     f00:	00881900 	addeq	r1, r8, r0, lsl #18
     f04:	033c0000 	teqeq	ip, #0, 0
     f08:	48180000 	ldmdami	r8, {}	; <UNPREDICTABLE>
     f0c:	01000005 	tsteq	r0, r5
     f10:	002c1316 	eoreq	r1, ip, r6, lsl r3
     f14:	06cf0000 	strbeq	r0, [pc], r0
     f18:	06c70000 	strbeq	r0, [r7], r0
     f1c:	c81a0000 	ldmdagt	sl, {}	; <UNPREDICTABLE>
     f20:	48000082 	stmdami	r0, {r1, r7}
     f24:	17000000 	strne	r0, [r0, -r0]
     f28:	006e656c 	rsbeq	r6, lr, ip, ror #10
     f2c:	2c121701 	ldccs	7, cr1, [r2], {1}
     f30:	0c000000 	stceq	0, cr0, [r0], {-0}
     f34:	08000007 	stmdaeq	r0, {r0, r1, r2}
     f38:	18000007 	stmdane	r0, {r0, r1, r2}
     f3c:	00000612 	andeq	r0, r0, r2, lsl r6
     f40:	3a112101 	bcc	44934c <__bss_end__+0x43f344>
     f44:	30000000 	andcc	r0, r0, r0
     f48:	2c000007 	stccs	0, cr0, [r0], {7}
     f4c:	18000007 	stmdane	r0, {r0, r1, r2}
     f50:	000005cc 	andeq	r0, r0, ip, asr #11
     f54:	3a112401 	bcc	449f60 <__bss_end__+0x43ff58>
     f58:	54000000 	strpl	r0, [r0], #-0
     f5c:	52000007 	andpl	r0, r0, #7, 0
     f60:	00000007 	andeq	r0, r0, r7
     f64:	00a81900 	adceq	r1, r8, r0, lsl #18
     f68:	06920000 	ldreq	r0, [r2], r0
     f6c:	9b180000 	blls	600f74 <__bss_end__+0x5f6f6c>
     f70:	01000005 	tsteq	r0, r5
     f74:	004d112c 	subeq	r1, sp, ip, lsr #2
     f78:	07690000 	strbeq	r0, [r9, -r0]!
     f7c:	07670000 	strbeq	r0, [r7, -r0]!
     f80:	72180000 	andsvc	r0, r8, #0, 0
     f84:	01000005 	tsteq	r0, r5
     f88:	002c1242 	eoreq	r1, ip, r2, asr #4
     f8c:	07830000 	streq	r0, [r3, r0]
     f90:	077d0000 	ldrbeq	r0, [sp, -r0]!
     f94:	89120000 	ldmdbhi	r2, {}	; <UNPREDICTABLE>
     f98:	10000003 	andne	r0, r0, r3
     f9c:	30010069 	andcc	r0, r1, r9, rrx
     fa0:	00002c1b 	andeq	r2, r0, fp, lsl ip
     fa4:	6a101b00 	bvs	407bac <__bss_end__+0x3fdba4>
     fa8:	19310100 	ldmdbne	r1!, {r8}
     fac:	0000003a 	andeq	r0, r0, sl, lsr r0
     fb0:	c81c0000 	ldmdagt	ip, {}	; <UNPREDICTABLE>
     fb4:	18000000 	stmdane	r0, {}	; <UNPREDICTABLE>
     fb8:	00000600 	andeq	r0, r0, r0, lsl #12
     fbc:	2c174301 	ldccs	3, cr4, [r7], {1}
     fc0:	ba000000 	blt	fc8 <__code_start__-0x7038>
     fc4:	b0000007 	andlt	r0, r0, r7
     fc8:	1c000007 	stcne	0, cr0, [r0], {7}
     fcc:	000000e8 	andeq	r0, r0, r8, ror #1
     fd0:	01006a17 	tsteq	r0, r7, lsl sl
     fd4:	004d1544 	subeq	r1, sp, r4, asr #10
     fd8:	08020000 	stmdaeq	r2, {}	; <UNPREDICTABLE>
     fdc:	07fc0000 	ldrbeq	r0, [ip, r0]!
     fe0:	a7180000 	ldrge	r0, [r8, -r0]
     fe4:	01000005 	tsteq	r0, r5
     fe8:	003a1546 	eorseq	r1, sl, r6, asr #10
     fec:	08400000 	stmdaeq	r0, {}^	; <UNPREDICTABLE>
     ff0:	08380000 	ldmdaeq	r8!, {}	; <UNPREDICTABLE>
     ff4:	7b180000 	blvc	600ffc <__bss_end__+0x5f6ff4>
     ff8:	01000005 	tsteq	r0, r5
     ffc:	003a1547 	eorseq	r1, sl, r7, asr #10
    1000:	08820000 	stmeq	r2, {}	; <UNPREDICTABLE>
    1004:	08780000 	ldmdaeq	r8!, {}^	; <UNPREDICTABLE>
    1008:	001c0000 	andseq	r0, ip, r0
    100c:	17000001 	strne	r0, [r0, -r1]
    1010:	52010069 	andpl	r0, r1, #105, 0	; 0x69
    1014:	00002c1b 	andeq	r2, r0, fp, lsl ip
    1018:	0008d300 	andeq	sp, r8, r0, lsl #6
    101c:	0008c700 	andeq	ip, r8, r0, lsl #14
    1020:	01181c00 	tsteq	r8, r0, lsl #24
    1024:	68180000 	ldmdavs	r8, {}	; <UNPREDICTABLE>
    1028:	01000005 	tsteq	r0, r5
    102c:	003a1954 	eorseq	r1, sl, r4, asr r9
    1030:	09230000 	stmdbeq	r3!, {}	; <UNPREDICTABLE>
    1034:	091f0000 	ldmdbeq	pc, {}	; <UNPREDICTABLE>
    1038:	1c180000 	ldcne	0, cr0, [r8], {-0}
    103c:	01000006 	tsteq	r0, r6
    1040:	003a1955 	eorseq	r1, sl, r5, asr r9
    1044:	094f0000 	stmdbeq	pc, {}^	; <UNPREDICTABLE>
    1048:	094b0000 	stmdbeq	fp, {}^	; <UNPREDICTABLE>
    104c:	26180000 	ldrcs	r0, [r8], -r0
    1050:	01000006 	tsteq	r0, r6
    1054:	003a1956 	eorseq	r1, sl, r6, asr r9
    1058:	09730000 	ldmdbeq	r3!, {}^	; <UNPREDICTABLE>
    105c:	096d0000 	stmdbeq	sp!, {}^	; <UNPREDICTABLE>
    1060:	f6180000 			; <UNDEFINED> instruction: 0xf6180000
    1064:	01000005 	tsteq	r0, r5
    1068:	003a1957 	eorseq	r1, sl, r7, asr r9
    106c:	09b50000 	ldmibeq	r5!, {}	; <UNPREDICTABLE>
    1070:	09ad0000 	stmibeq	sp!, {}	; <UNPREDICTABLE>
    1074:	ca1d0000 	bgt	74107c <__bss_end__+0x737074>
    1078:	bc000006 	stclt	0, cr0, [r0], {6}
    107c:	00000083 	andeq	r0, r0, r3, lsl #1
    1080:	00017000 	andeq	r7, r1, r0
    1084:	25540100 	ldrbcs	r0, [r4, #-256]	; 0xffffff00
    1088:	000004de 	ldrdeq	r0, [r0], -lr
    108c:	0006e51e 	andeq	lr, r6, lr, lsl r5
    1090:	0009fe00 	andeq	pc, r9, r0, lsl #28
    1094:	0009fa00 	andeq	pc, r9, r0, lsl #20
    1098:	06db1e00 	ldrbeq	r1, [fp], r0, lsl #28
    109c:	0a200000 	beq	8010a4 <__bss_end__+0x7f709c>
    10a0:	0a1c0000 	beq	7010a8 <__bss_end__+0x6f70a0>
    10a4:	701c0000 	andsvc	r0, ip, r0
    10a8:	1f000001 	svcne	0x00000001
    10ac:	000006ef 	andeq	r0, r0, pc, ror #13
    10b0:	00000a42 	andeq	r0, r0, r2, asr #20
    10b4:	00000a3e 	andeq	r0, r0, lr, lsr sl
    10b8:	0006f91f 	andeq	pc, r6, pc, lsl r9	; <UNPREDICTABLE>
    10bc:	000a6c00 	andeq	r6, sl, r0, lsl #24
    10c0:	000a6000 	andeq	r6, sl, r0
    10c4:	07062000 	streq	r2, [r6, -r0]
    10c8:	83bc0000 			; <UNDEFINED> instruction: 0x83bc0000
    10cc:	00020000 	andeq	r0, r2, r0
    10d0:	00000190 	muleq	r0, r0, r1
    10d4:	1e112b02 	vnmlsne.f64	d2, d1, d2
    10d8:	00000721 	andeq	r0, r0, r1, lsr #14
    10dc:	00000ad2 	ldrdeq	r0, [r0], -r2
    10e0:	00000ace 	andeq	r0, r0, lr, asr #21
    10e4:	0007171e 	andeq	r1, r7, lr, lsl r7
    10e8:	000af400 	andeq	pc, sl, r0, lsl #8
    10ec:	000af000 	andeq	pc, sl, r0
    10f0:	01901c00 	orrseq	r1, r0, r0, lsl #24
    10f4:	2b1f0000 	blcs	7c10fc <__bss_end__+0x7b70f4>
    10f8:	1a000007 	bne	111c <__code_start__-0x6ee4>
    10fc:	1200000b 	andne	r0, r0, #11, 0
    1100:	0000000b 	andeq	r0, r0, fp
    1104:	1d000000 	stcne	0, cr0, [r0, #-0]
    1108:	000006ca 	andeq	r0, r0, sl, asr #13
    110c:	000083d4 	ldrdeq	r8, [r0], -r4
    1110:	01a80001 			; <UNDEFINED> instruction: 0x01a80001
    1114:	54010000 	strpl	r0, [r1], #-0
    1118:	00056f4d 	andeq	r6, r5, sp, asr #30
    111c:	06e51e00 	strbteq	r1, [r5], r0, lsl #28
    1120:	0b540000 	bleq	1501128 <__bss_end__+0x14f7120>
    1124:	0b500000 	bleq	140112c <__bss_end__+0x13f7124>
    1128:	db1e0000 	blle	781130 <__bss_end__+0x777128>
    112c:	76000006 	strvc	r0, [r0], -r6
    1130:	7200000b 	andvc	r0, r0, #11, 0
    1134:	1c00000b 	stcne	0, cr0, [r0], {11}
    1138:	000001a8 	andeq	r0, r0, r8, lsr #3
    113c:	0006ef1f 	andeq	lr, r6, pc, lsl pc
    1140:	000b9800 	andeq	r9, fp, r0, lsl #16
    1144:	000b9400 	andeq	r9, fp, r0, lsl #8
    1148:	06f91f00 	ldrbteq	r1, [r9], r0, lsl #30
    114c:	0bc20000 	bleq	ff081154 <__bss_end__+0xff07714c>
    1150:	0bb60000 	bleq	fed81158 <__bss_end__+0xfed77150>
    1154:	06200000 	strteq	r0, [r0], -r0
    1158:	d4000007 	strle	r0, [r0], #-7
    115c:	03000083 	movweq	r0, #131	; 0x83
    1160:	0001c000 	andeq	ip, r1, r0
    1164:	112b0200 			; <UNDEFINED> instruction: 0x112b0200
    1168:	0007211e 	andeq	r2, r7, lr, lsl r1
    116c:	000c2800 	andeq	r2, ip, r0, lsl #16
    1170:	000c2400 	andeq	r2, ip, r0, lsl #8
    1174:	07171e00 	ldreq	r1, [r7, -r0, lsl #28]
    1178:	0c4a0000 	mareq	acc0, r0, sl
    117c:	0c460000 	mareq	acc0, r0, r6
    1180:	c01c0000 	andsgt	r0, ip, r0
    1184:	1f000001 	svcne	0x00000001
    1188:	0000072b 	andeq	r0, r0, fp, lsr #14
    118c:	00000c70 	andeq	r0, r0, r0, ror ip
    1190:	00000c68 	andeq	r0, r0, r8, ror #24
    1194:	00000000 	andeq	r0, r0, r0
    1198:	0006ca1d 	andeq	ip, r6, sp, lsl sl
    119c:	0083e800 	addeq	lr, r3, r0, lsl #16
    11a0:	d8000200 	stmdale	r0, {r9}
    11a4:	01000001 	tsteq	r0, r1
    11a8:	06002555 			; <UNDEFINED> instruction: 0x06002555
    11ac:	e51e0000 	ldr	r0, [lr, #-0]
    11b0:	ae000006 	cdpge	0, 0, cr0, cr0, cr6, {0}
    11b4:	a600000c 	strge	r0, [r0], -ip
    11b8:	1e00000c 	cdpne	0, 0, cr0, cr0, cr12, {0}
    11bc:	000006db 	ldrdeq	r0, [r0], -fp
    11c0:	00000cee 	andeq	r0, r0, lr, ror #25
    11c4:	00000cea 	andeq	r0, r0, sl, ror #25
    11c8:	0001d81c 	andeq	sp, r1, ip, lsl r8
    11cc:	06ef1f00 	strbteq	r1, [pc], r0, lsl #30
    11d0:	0d100000 	ldceq	0, cr0, [r0, #-0]
    11d4:	0d0c0000 	stceq	0, cr0, [ip, #-0]
    11d8:	f91f0000 			; <UNDEFINED> instruction: 0xf91f0000
    11dc:	32000006 	andcc	r0, r0, #6, 0
    11e0:	2e00000d 	cdpcs	0, 0, cr0, cr0, cr13, {0}
    11e4:	2000000d 	andcs	r0, r0, sp
    11e8:	00000706 	andeq	r0, r0, r6, lsl #14
    11ec:	000083e8 	andeq	r8, r0, r8, ror #7
    11f0:	02100004 	andseq	r0, r0, #4, 0
    11f4:	2b020000 	blcs	811fc <__bss_end__+0x771f4>
    11f8:	07211e11 			; <UNDEFINED> instruction: 0x07211e11
    11fc:	0d640000 	stcleq	0, cr0, [r4, #-0]
    1200:	0d5c0000 	ldcleq	0, cr0, [ip, #-0]
    1204:	171e0000 	ldrne	r0, [lr, -r0]
    1208:	a4000007 	strge	r0, [r0], #-7
    120c:	a000000d 	andge	r0, r0, sp
    1210:	1c00000d 	stcne	0, cr0, [r0], {13}
    1214:	00000210 	andeq	r0, r0, r0, lsl r2
    1218:	00072b1f 	andeq	r2, r7, pc, lsl fp
    121c:	000dca00 	andeq	ip, sp, r0, lsl #20
    1220:	000dc200 	andeq	ip, sp, r0, lsl #4
    1224:	00000000 	andeq	r0, r0, r0
    1228:	06ca2000 	strbeq	r2, [sl], r0
    122c:	83ec0000 	mvnhi	r0, #0, 0
    1230:	00050000 	andeq	r0, r5, r0
    1234:	00000228 	andeq	r0, r0, r8, lsr #4
    1238:	1e4d5501 	cdpne	5, 4, cr5, cr13, cr1, {0}
    123c:	000006e5 	andeq	r0, r0, r5, ror #13
    1240:	00000e08 	andeq	r0, r0, r8, lsl #28
    1244:	00000e00 	andeq	r0, r0, r0, lsl #28
    1248:	0006db1e 	andeq	sp, r6, lr, lsl fp
    124c:	000e4800 	andeq	r4, lr, r0, lsl #16
    1250:	000e4400 	andeq	r4, lr, r0, lsl #8
    1254:	02281c00 	eoreq	r1, r8, #0, 24
    1258:	ef1f0000 	svc	0x001f0000
    125c:	6a000006 	bvs	127c <__code_start__-0x6d84>
    1260:	6600000e 	strvs	r0, [r0], -lr
    1264:	1f00000e 	svcne	0x0000000e
    1268:	000006f9 	strdeq	r0, [r0], -r9
    126c:	00000e8c 	andeq	r0, r0, ip, lsl #29
    1270:	00000e88 	andeq	r0, r0, r8, lsl #29
    1274:	00070620 	andeq	r0, r7, r0, lsr #12
    1278:	0083ec00 	addeq	lr, r3, r0, lsl #24
    127c:	50000700 	andpl	r0, r0, r0, lsl #14
    1280:	02000002 	andeq	r0, r0, #2, 0
    1284:	211e112b 	tstcs	lr, fp, lsr #2
    1288:	be000007 	cdplt	0, 0, cr0, cr0, cr7, {0}
    128c:	b600000e 	strlt	r0, [r0], -lr
    1290:	1e00000e 	cdpne	0, 0, cr0, cr0, cr14, {0}
    1294:	00000717 	andeq	r0, r0, r7, lsl r7
    1298:	00000efe 	strdeq	r0, [r0], -lr
    129c:	00000efa 	strdeq	r0, [r0], -sl
    12a0:	0002501c 	andeq	r5, r2, ip, lsl r0
    12a4:	072b1f00 	streq	r1, [fp, -r0, lsl #30]!
    12a8:	0f240000 	svceq	0x00240000
    12ac:	0f1c0000 	svceq	0x001c0000
	...
    12b8:	13000000 	movwne	r0, #0
    12bc:	00008584 	andeq	r8, r0, r4, lsl #11
    12c0:	00000738 	andeq	r0, r0, r8, lsr r7
    12c4:	000006c0 	andeq	r0, r0, r0, asr #13
    12c8:	05500114 	ldrbeq	r0, [r0, #-276]	; 0xfffffeec
    12cc:	00940003 	addseq	r0, r4, r3
    12d0:	51011400 	tstpl	r1, r0, lsl #8
    12d4:	93f80305 	mvnsls	r0, #335544320	; 0x14000000
    12d8:	01140000 	tsteq	r4, r0
    12dc:	60030552 	andvs	r0, r3, r2, asr r5
    12e0:	14000094 	strne	r0, [r0], #-148	; 0xffffff6c
    12e4:	3f015301 	svccc	0x00015301
    12e8:	85881500 	strhi	r1, [r8, #1280]	; 0x500
    12ec:	07440000 	strbeq	r0, [r4, -r0]
    12f0:	21000000 	mrscs	r0, (UNDEF: 0)
    12f4:	000005d6 	ldrdeq	r0, [r0], -r6
    12f8:	3a102a02 	bcc	40bb08 <__bss_end__+0x401b00>
    12fc:	03000000 	movweq	r0, #0
    1300:	00000706 	andeq	r0, r0, r6, lsl #14
    1304:	02006122 	andeq	r6, r0, #-2147483640	; 0x80000008
    1308:	003a2a2a 	eorseq	r2, sl, sl, lsr #20
    130c:	62220000 	eorvs	r0, r2, #0, 0
    1310:	352a0200 	strcc	r0, [sl, #-512]!	; 0xfffffe00
    1314:	0000003a 	andeq	r0, r0, sl, lsr r0
    1318:	02006310 	andeq	r6, r0, #16, 6	; 0x40000000
    131c:	004d0d2b 	subeq	r0, sp, fp, lsr #26
    1320:	b1110000 	tstlt	r1, r0
    1324:	02000005 	andeq	r0, r0, #5, 0
    1328:	004d0d2d 	subeq	r0, sp, sp, lsr #26
    132c:	21000000 	mrscs	r0, (UNDEF: 0)
    1330:	0000058d 	andeq	r0, r0, sp, lsl #11
    1334:	4d100902 	vldrmi.16	s0, [r0, #-4]	; <UNPREDICTABLE>
    1338:	03000000 	movweq	r0, #0
    133c:	00000738 	andeq	r0, r0, r8, lsr r7
    1340:	02006122 	andeq	r6, r0, #-2147483640	; 0x80000008
    1344:	003a2609 	eorseq	r2, sl, r9, lsl #12
    1348:	62220000 	eorvs	r0, r2, #0, 0
    134c:	31090200 	mrscc	r0, R9_fiq
    1350:	0000003a 	andeq	r0, r0, sl, lsr r0
    1354:	74657210 	strbtvc	r7, [r5], #-528	; 0xfffffdf0
    1358:	0d130200 	lfmeq	f0, 4, [r3, #-0]
    135c:	0000004d 	andeq	r0, r0, sp, asr #32
    1360:	074c2300 	strbeq	r2, [ip, -r0, lsl #6]
    1364:	074c0000 	strbeq	r0, [ip, -r0]
    1368:	28040000 	stmdacs	r4, {}	; <UNPREDICTABLE>
    136c:	007c2306 	rsbseq	r2, ip, r6, lsl #6
    1370:	007c0000 	rsbseq	r0, ip, r0
    1374:	6e040000 	cdpvs	0, 0, cr0, cr4, cr0, {0}
    1378:	019d0006 	orrseq	r0, sp, r6
    137c:	00040000 	andeq	r0, r4, r0
    1380:	000005b1 			; <UNDEFINED> instruction: 0x000005b1
    1384:	06300104 	ldrteq	r0, [r0], -r4, lsl #2
    1388:	670c0000 	strvs	r0, [ip, -r0]
    138c:	fa000007 	blx	13b0 <__code_start__-0x6c50>
    1390:	c0000006 	andgt	r0, r0, r6
    1394:	58000085 	stmdapl	r0, {r0, r2, r7}
    1398:	60000000 	andvs	r0, r0, r0
    139c:	02000012 	andeq	r0, r0, #18, 0
    13a0:	00000753 	andeq	r0, r0, r3, asr r7
    13a4:	311b2802 	tstcc	fp, r2, lsl #16
    13a8:	03000000 	movweq	r0, #0
    13ac:	00000777 	andeq	r0, r0, r7, ror r7
    13b0:	48000404 	stmdami	r0, {r2, sl}
    13b4:	04000000 	streq	r0, [r0], #-0
    13b8:	00000762 	andeq	r0, r0, r2, ror #14
    13bc:	00000048 	andeq	r0, r0, r8, asr #32
    13c0:	04050000 	streq	r0, [r5], #-0
    13c4:	00077902 	andeq	r7, r7, r2, lsl #18
    13c8:	18630200 	stmdane	r3!, {r9}^
    13cc:	00000025 	andeq	r0, r0, r5, lsr #32
    13d0:	69050406 	stmdbvs	r5, {r1, r2, sl}
    13d4:	0700746e 	streq	r7, [r0, -lr, ror #8]
    13d8:	017d0704 	cmneq	sp, r4, lsl #14
    13dc:	01070000 	mrseq	r0, (UNDEF: 7)
    13e0:	00007006 	andeq	r7, r0, r6
    13e4:	05020700 	streq	r0, [r2, #-1792]	; 0xfffff900
    13e8:	000001bb 			; <UNDEFINED> instruction: 0x000001bb
    13ec:	a6050407 	strge	r0, [r5], -r7, lsl #8
    13f0:	07000001 	streq	r0, [r0, -r1]
    13f4:	01a10508 			; <UNDEFINED> instruction: 0x01a10508
    13f8:	01070000 	mrseq	r0, (UNDEF: 7)
    13fc:	00006e08 	andeq	r6, r0, r8, lsl #28
    1400:	07020700 	streq	r0, [r2, -r0, lsl #14]
    1404:	00000089 	andeq	r0, r0, r9, lsl #1
    1408:	78070407 	stmdavc	r7, {r0, r1, r2, sl}
    140c:	07000001 	streq	r0, [r0, -r1]
    1410:	01730708 	cmneq	r3, r8, lsl #14
    1414:	56080000 	strpl	r0, [r8], -r0
    1418:	ab000000 	blge	1420 <__code_start__-0x6be0>
    141c:	09000000 	stmdbeq	r0, {}	; <UNPREDICTABLE>
    1420:	00000056 	andeq	r0, r0, r6, asr r0
    1424:	01af0a00 			; <UNDEFINED> instruction: 0x01af0a00
    1428:	1c030000 	stcne	0, cr0, [r3], {-0}
    142c:	0000b70e 	andeq	fp, r0, lr, lsl #14
    1430:	9c040b00 			; <UNDEFINED> instruction: 0x9c040b00
    1434:	08000000 	stmdaeq	r0, {}	; <UNPREDICTABLE>
    1438:	00000056 	andeq	r0, r0, r6, asr r0
    143c:	000000cc 	andeq	r0, r0, ip, asr #1
    1440:	0000cc09 	andeq	ip, r0, r9, lsl #24
    1444:	040b0000 	streq	r0, [fp], #-0
    1448:	000000d9 	ldrdeq	r0, [r0], -r9
    144c:	77080107 	strvc	r0, [r8, -r7, lsl #2]
    1450:	0c000000 	stceq	0, cr0, [r0], {-0}
    1454:	000000d2 	ldrdeq	r0, [r0], -r2
    1458:	00078a0a 	andeq	r8, r7, sl, lsl #20
    145c:	0e210300 	cdpeq	3, 2, cr0, cr1, cr0, {0}
    1460:	000000ea 	andeq	r0, r0, sl, ror #1
    1464:	00bd040b 	adcseq	r0, sp, fp, lsl #8
    1468:	4c0d0000 	stcmi	0, cr0, [sp], {-0}
    146c:	01000007 	tsteq	r0, r7
    1470:	00560506 	subseq	r0, r6, r6, lsl #10
    1474:	85c00000 	strbhi	r0, [r0]
    1478:	00580000 	subseq	r0, r8, r0
    147c:	9c010000 	stcls	0, cr0, [r1], {-0}
    1480:	00000183 	andeq	r0, r0, r3, lsl #3
    1484:	746d660e 	strbtvc	r6, [sp], #-1550	; 0xfffff9f2
    1488:	18060100 	stmdane	r6, {r8}
    148c:	000000cc 	andeq	r0, r0, ip, asr #1
    1490:	0f709102 	svceq	0x00709102
    1494:	66756210 			; <UNDEFINED> instruction: 0x66756210
    1498:	11080100 	mrsne	r0, (UNDEF: 24)
    149c:	00000183 	andeq	r0, r0, r3, lsl #3
    14a0:	9c040305 	stcls	3, cr0, [r4], {5}
    14a4:	44110000 	ldrmi	r0, [r1], #-0
    14a8:	01000007 	tsteq	r0, r7
    14ac:	004a0d09 	subeq	r0, sl, r9, lsl #26
    14b0:	91020000 	mrsls	r0, (UNDEF: 2)
    14b4:	7a73125c 	bvc	1cc5e2c <__bss_end__+0x1cbbe24>
    14b8:	0d0c0100 	stfeqs	f0, [ip, #-0]
    14bc:	00000056 	andeq	r0, r0, r6, asr r0
    14c0:	00000f60 	andeq	r0, r0, r0, ror #30
    14c4:	00000f5a 	andeq	r0, r0, sl, asr pc
    14c8:	0085e813 	addeq	lr, r5, r3, lsl r8
    14cc:	00019400 	andeq	r9, r1, r0, lsl #8
    14d0:	00017600 	andeq	r7, r1, r0, lsl #12
    14d4:	50011400 	andpl	r1, r1, r0, lsl #8
    14d8:	14007502 	strne	r7, [r0], #-1282	; 0xfffffafe
    14dc:	0a035101 	beq	d58e8 <__bss_end__+0xcb8e0>
    14e0:	01140400 	tsteq	r4, r0, lsl #8
    14e4:	48910352 	ldmmi	r1, {r1, r4, r6, r8, r9}
    14e8:	53011406 	movwpl	r1, #5126	; 0x1406
    14ec:	004c9102 	subeq	r9, ip, r2, lsl #2
    14f0:	0085fc15 	addeq	pc, r5, r5, lsl ip	; <UNPREDICTABLE>
    14f4:	50011400 	andpl	r1, r1, r0, lsl #8
    14f8:	00007502 	andeq	r7, r0, r2, lsl #10
    14fc:	00d21600 	sbcseq	r1, r2, r0, lsl #12
    1500:	01940000 	orrseq	r0, r4, r0
    1504:	5d170000 	ldcpl	0, cr0, [r7, #-0]
    1508:	ff000000 			; <UNDEFINED> instruction: 0xff000000
    150c:	49180003 	ldmdbmi	r8, {r0, r1}
    1510:	49000007 	stmdbmi	r0, {r0, r1, r2}
    1514:	05000007 	streq	r0, [r0, #-7]
    1518:	f3000502 	vrshl.u8	d0, d2, d0
    151c:	04000000 	streq	r0, [r0], #-0
    1520:	0006f300 	andeq	pc, r6, r0, lsl #6
    1524:	30010400 	andcc	r0, r1, r0, lsl #8
    1528:	0c000006 	stceq	0, cr0, [r0], {6}
    152c:	0000078f 	andeq	r0, r0, pc, lsl #15
    1530:	000006fa 	strdeq	r0, [r0], -sl
    1534:	00008618 	andeq	r8, r0, r8, lsl r6
    1538:	00000034 	andeq	r0, r0, r4, lsr r0
    153c:	0000139c 	muleq	r0, ip, r3
    1540:	69050402 	stmdbvs	r5, {r1, sl}
    1544:	0300746e 	movweq	r7, #1134	; 0x46e
    1548:	017d0704 	cmneq	sp, r4, lsl #14
    154c:	01030000 	mrseq	r0, (UNDEF: 3)
    1550:	00007006 	andeq	r7, r0, r6
    1554:	05020300 	streq	r0, [r2, #-768]	; 0xfffffd00
    1558:	000001bb 			; <UNDEFINED> instruction: 0x000001bb
    155c:	a6050403 	strge	r0, [r5], -r3, lsl #8
    1560:	03000001 	movweq	r0, #1
    1564:	01a10508 			; <UNDEFINED> instruction: 0x01a10508
    1568:	01030000 	mrseq	r0, (UNDEF: 3)
    156c:	00006e08 	andeq	r6, r0, r8, lsl #28
    1570:	07020300 	streq	r0, [r2, -r0, lsl #6]
    1574:	00000089 	andeq	r0, r0, r9, lsl #1
    1578:	78070403 	stmdavc	r7, {r0, r1, sl}
    157c:	03000001 	movweq	r0, #1
    1580:	01730708 	cmneq	r3, r8, lsl #14
    1584:	25040000 	strcs	r0, [r4, #-0]
    1588:	7a000000 	bvc	1590 <__code_start__-0x6a70>
    158c:	05000000 	streq	r0, [r0, #-0]
    1590:	00000025 	andeq	r0, r0, r5, lsr #32
    1594:	01af0600 			; <UNDEFINED> instruction: 0x01af0600
    1598:	1c020000 	stcne	0, cr0, [r2], {-0}
    159c:	0000860e 	andeq	r8, r0, lr, lsl #12
    15a0:	6b040700 	blvs	1031a8 <__bss_end__+0xf91a0>
    15a4:	04000000 	streq	r0, [r0], #-0
    15a8:	00000025 	andeq	r0, r0, r5, lsr #32
    15ac:	0000009b 	muleq	r0, fp, r0
    15b0:	00009b05 	andeq	r9, r0, r5, lsl #22
    15b4:	04070000 	streq	r0, [r7], #-0
    15b8:	000000a8 	andeq	r0, r0, r8, lsr #1
    15bc:	77080103 	strvc	r0, [r8, -r3, lsl #2]
    15c0:	08000000 	stmdaeq	r0, {}	; <UNPREDICTABLE>
    15c4:	000000a1 	andeq	r0, r0, r1, lsr #1
    15c8:	00078a06 	andeq	r8, r7, r6, lsl #20
    15cc:	0e210200 	cdpeq	2, 2, cr0, cr1, cr0, {0}
    15d0:	000000b9 	strheq	r0, [r0], -r9
    15d4:	008c0407 	addeq	r0, ip, r7, lsl #8
    15d8:	ad090000 	stcge	0, cr0, [r9, #-0]
    15dc:	01000000 	mrseq	r0, (UNDEF: 0)
    15e0:	0305070c 	movweq	r0, #22284	; 0x570c
    15e4:	00009bfc 	strdeq	r9, [r0], -ip
    15e8:	0007810a 	andeq	r8, r7, sl, lsl #2
    15ec:	05040100 	streq	r0, [r4, #-256]	; 0xffffff00
    15f0:	00000025 	andeq	r0, r0, r5, lsr #32
    15f4:	00008618 	andeq	r8, r0, r8, lsl r6
    15f8:	00000034 	andeq	r0, r0, r4, lsr r0
    15fc:	700b9c01 	andvc	r9, fp, r1, lsl #24
    1600:	1f040100 	svcne	0x00040100
    1604:	0000009b 	muleq	r0, fp, r0
    1608:	00000f8d 	andeq	r0, r0, sp, lsl #31
    160c:	00000f89 	andeq	r0, r0, r9, lsl #31
    1610:	0ad70000 	beq	ff5c1618 <__bss_end__+0xff5b7610>
    1614:	00040000 	andeq	r0, r4, r0
    1618:	00000791 	muleq	r0, r1, r7
    161c:	06300104 	ldrteq	r0, [r0], -r4, lsl #2
    1620:	ae0c0000 	cdpge	0, 0, cr0, cr12, cr0, {0}
    1624:	fa000007 	blx	1648 <__code_start__-0x69b8>
    1628:	4c000006 	stcmi	0, cr0, [r0], {6}
    162c:	40000086 	andmi	r0, r0, r6, lsl #1
    1630:	6d000007 	stcvs	0, cr0, [r0, #-28]	; 0xffffffe4
    1634:	02000014 	andeq	r0, r0, #20, 0
    1638:	6e690504 	cdpvs	5, 6, cr0, cr9, cr4, {0}
    163c:	04030074 	streq	r0, [r3], #-116	; 0xffffff8c
    1640:	00017d07 	andeq	r7, r1, r7, lsl #26
    1644:	06010300 	streq	r0, [r1], -r0, lsl #6
    1648:	00000070 	andeq	r0, r0, r0, ror r0
    164c:	bb050203 	bllt	141e60 <__bss_end__+0x137e58>
    1650:	03000001 	movweq	r0, #1
    1654:	01a60504 			; <UNDEFINED> instruction: 0x01a60504
    1658:	08030000 	stmdaeq	r3, {}	; <UNPREDICTABLE>
    165c:	0001a105 	andeq	sl, r1, r5, lsl #2
    1660:	08010300 	stmdaeq	r1, {r8, r9}
    1664:	0000006e 	andeq	r0, r0, lr, rrx
    1668:	89070203 	stmdbhi	r7, {r0, r1, r9}
    166c:	04000000 	streq	r0, [r0], #-0
    1670:	000001c5 	andeq	r0, r0, r5, asr #3
    1674:	69193402 	ldmdbvs	r9, {r1, sl, ip, sp}
    1678:	03000000 	movweq	r0, #0
    167c:	01780704 	cmneq	r8, r4, lsl #14
    1680:	a5040000 	strge	r0, [r4, #-0]
    1684:	02000007 	andeq	r0, r0, #7, 0
    1688:	007c1937 	rsbseq	r1, ip, r7, lsr r9
    168c:	08030000 	stmdaeq	r3, {}	; <UNPREDICTABLE>
    1690:	00017307 	andeq	r7, r1, r7, lsl #6
    1694:	00250500 	eoreq	r0, r5, r0, lsl #10
    1698:	00920000 	addseq	r0, r2, r0
    169c:	25060000 	strcs	r0, [r6, #-0]
    16a0:	00000000 	andeq	r0, r0, r0
    16a4:	0001af07 	andeq	sl, r1, r7, lsl #30
    16a8:	0e1c0300 	cdpeq	3, 1, cr0, cr12, cr0, {0}
    16ac:	0000009e 	muleq	r0, lr, r0
    16b0:	00830408 	addeq	r0, r3, r8, lsl #8
    16b4:	25050000 	strcs	r0, [r5, #-0]
    16b8:	b3000000 	movwlt	r0, #0
    16bc:	06000000 	streq	r0, [r0], -r0
    16c0:	000000b3 	strheq	r0, [r0], -r3
    16c4:	c0040800 	andgt	r0, r4, r0, lsl #16
    16c8:	03000000 	movweq	r0, #0
    16cc:	00770801 	rsbseq	r0, r7, r1, lsl #16
    16d0:	b9090000 	stmdblt	r9, {}	; <UNPREDICTABLE>
    16d4:	07000000 	streq	r0, [r0, -r0]
    16d8:	0000078a 	andeq	r0, r0, sl, lsl #15
    16dc:	d10e2103 	tstle	lr, r3, lsl #2
    16e0:	08000000 	stmdaeq	r0, {}	; <UNPREDICTABLE>
    16e4:	0000a404 	andeq	sl, r0, r4, lsl #8
    16e8:	07c10700 	strbeq	r0, [r1, r0, lsl #14]
    16ec:	0b040000 	bleq	1016f4 <__bss_end__+0xf76ec>
    16f0:	0000b90d 	andeq	fp, r0, sp, lsl #18
    16f4:	083a0700 	ldmdaeq	sl!, {r8, r9, sl}
    16f8:	0c040000 	stceq	0, cr0, [r4], {-0}
    16fc:	0000b90d 	andeq	fp, r0, sp, lsl #18
    1700:	07d00700 	ldrbeq	r0, [r0, r0, lsl #14]
    1704:	0d040000 	stceq	0, cr0, [r4, #-0]
    1708:	0000b90d 	andeq	fp, r0, sp, lsl #18
    170c:	07f90700 	ldrbeq	r0, [r9, r0, lsl #14]!
    1710:	0e040000 	cdpeq	0, 0, cr0, cr4, cr0, {0}
    1714:	0000b90d 	andeq	fp, r0, sp, lsl #18
    1718:	086a0700 	stmdaeq	sl!, {r8, r9, sl}^
    171c:	0f040000 	svceq	0x00040000
    1720:	0000b90d 	andeq	fp, r0, sp, lsl #18
    1724:	07e40700 	strbeq	r0, [r4, r0, lsl #14]!
    1728:	10040000 	andne	r0, r4, r0
    172c:	0000b90d 	andeq	fp, r0, sp, lsl #18
    1730:	08790700 	ldmdaeq	r9!, {r8, r9, sl}^
    1734:	11040000 	mrsne	r0, (UNDEF: 4)
    1738:	0000b90d 	andeq	fp, r0, sp, lsl #18
    173c:	08050700 	stmdaeq	r5, {r8, r9, sl}
    1740:	12040000 	andne	r0, r4, #0, 0
    1744:	0000b90d 	andeq	fp, r0, sp, lsl #18
    1748:	07530400 	ldrbeq	r0, [r3, -r0, lsl #8]
    174c:	28050000 	stmdacs	r5, {}	; <UNPREDICTABLE>
    1750:	0001431b 	andeq	r4, r1, fp, lsl r3
    1754:	07770a00 	ldrbeq	r0, [r7, -r0, lsl #20]!
    1758:	06040000 	streq	r0, [r4], -r0
    175c:	00015a00 	andeq	r5, r1, r0, lsl #20
    1760:	07620b00 	strbeq	r0, [r2, -r0, lsl #22]!
    1764:	015a0000 	cmpeq	sl, r0
    1768:	00000000 	andeq	r0, r0, r0
    176c:	7904040c 	stmdbvc	r4, {r2, r3, sl}
    1770:	05000007 	streq	r0, [r0, #-7]
    1774:	01371863 	teqeq	r7, r3, ror #16
    1778:	490d0000 	stmdbmi	sp, {}	; <UNPREDICTABLE>
    177c:	01000007 	tsteq	r0, r7
    1780:	00250581 	eoreq	r0, r5, r1, lsl #11
    1784:	88d40000 	ldmhi	r4, {}^	; <UNPREDICTABLE>
    1788:	04b80000 	ldrteq	r0, [r8], #0
    178c:	9c010000 	stcls	0, cr0, [r1], {-0}
    1790:	00000717 	andeq	r0, r0, r7, lsl r7
    1794:	6675620e 	ldrbtvs	r6, [r5], -lr, lsl #4
    1798:	15810100 	strne	r0, [r1, #256]	; 0x100
    179c:	00000717 	andeq	r0, r0, r7, lsl r7
    17a0:	00000fb1 			; <UNDEFINED> instruction: 0x00000fb1
    17a4:	00000fab 	andeq	r0, r0, fp, lsr #31
    17a8:	01006e0e 	tsteq	r0, lr, lsl #28
    17ac:	00251e81 	eoreq	r1, r5, r1, lsl #29
    17b0:	0fe30000 	svceq	0x00e30000
    17b4:	0fdd0000 	svceq	0x00dd0000
    17b8:	660e0000 	strvs	r0, [lr], -r0
    17bc:	0100746d 	tsteq	r0, sp, ror #8
    17c0:	00b32d81 	adcseq	r2, r3, r1, lsl #27
    17c4:	101d0000 	andsne	r0, sp, r0
    17c8:	10110000 	andsne	r0, r1, r0
    17cc:	440f0000 	strmi	r0, [pc], #-0	; 17d4 <__code_start__-0x682c>
    17d0:	01000007 	tsteq	r0, r7
    17d4:	015c3a81 	cmpeq	ip, r1, lsl #21
    17d8:	91030000 	mrsls	r0, (UNDEF: 3)
    17dc:	70107dd4 			; <UNDEFINED> instruction: 0x70107dd4
    17e0:	08820100 	stmeq	r2, {r8}
    17e4:	00000717 	andeq	r0, r0, r7, lsl r7
    17e8:	0000107b 	andeq	r1, r0, fp, ror r0
    17ec:	00001067 	andeq	r1, r0, r7, rrx
    17f0:	01006510 	tsteq	r0, r0, lsl r5
    17f4:	07171282 	ldreq	r1, [r7, -r2, lsl #5]
    17f8:	10fd0000 	rscsne	r0, sp, r0
    17fc:	10f90000 	rscsne	r0, r9, r0
    1800:	78100000 	ldmdavc	r0, {}	; <UNPREDICTABLE>
    1804:	83010030 	movwhi	r0, #4144	; 0x1030
    1808:	00005d0e 	andeq	r5, r0, lr, lsl #26
    180c:	00112a00 	andseq	r2, r1, r0, lsl #20
    1810:	00112400 	andseq	r2, r1, r0, lsl #8
    1814:	31781000 	cmncc	r8, r0
    1818:	11830100 	orrne	r0, r3, r0, lsl #2
    181c:	0000005d 	andeq	r0, r0, sp, asr r0
    1820:	00001157 	andeq	r1, r0, r7, asr r1
    1824:	00001153 	andeq	r1, r0, r3, asr r1
    1828:	00082311 	andeq	r2, r8, r1, lsl r3
    182c:	11860100 	orrne	r0, r6, r0, lsl #2
    1830:	000000b3 	strheq	r0, [r0], -r3
    1834:	00001179 	andeq	r1, r0, r9, ror r1
    1838:	00001175 	andeq	r1, r0, r5, ror r1
    183c:	00034712 	andeq	r4, r3, r2, lsl r7
    1840:	00072d00 	andeq	r2, r7, r0, lsl #26
    1844:	dc030500 	cfstr32le	mvfx0, [r3], {-0}
    1848:	13000095 	movwne	r0, #149	; 0x95
    184c:	0000893c 	andeq	r8, r0, ip, lsr r9
    1850:	00000400 	andeq	r0, r0, r0, lsl #8
    1854:	01007310 	tsteq	r0, r0, lsl r3
    1858:	07170a91 			; <UNDEFINED> instruction: 0x07170a91
    185c:	11af0000 			; <UNDEFINED> instruction: 0x11af0000
    1860:	11990000 	orrsne	r0, r9, r0
    1864:	6e140000 	cdpvs	0, 1, cr0, cr4, cr0, {0}
    1868:	01006d75 	tsteq	r0, r5, ror sp
    186c:	07320d91 			; <UNDEFINED> instruction: 0x07320d91
    1870:	91030000 	mrsls	r0, (UNDEF: 3)
    1874:	86157dd8 			; <UNDEFINED> instruction: 0x86157dd8
    1878:	01000008 	tsteq	r0, r8
    187c:	07321791 			; <UNDEFINED> instruction: 0x07321791
    1880:	91030000 	mrsls	r0, (UNDEF: 3)
    1884:	de117ed8 	mrcle	14, 0, r7, cr1, cr8, {6}
    1888:	01000007 	tsteq	r0, r7
    188c:	002c0d92 	mlaeq	ip, r2, sp, r0
    1890:	12360000 	eorsne	r0, r6, #0, 0
    1894:	12300000 	eorsne	r0, r0, #0, 0
    1898:	04160000 	ldreq	r0, [r6], #-0
    189c:	a400008a 	strge	r0, [r0], #-138	; 0xffffff76
    18a0:	39000001 	stmdbcc	r0, {r0}
    18a4:	10000005 	andne	r0, r0, r5
    18a8:	01007974 	tsteq	r0, r4, ror r9
    18ac:	00b31d9e 	umlalseq	r1, r3, lr, sp
    18b0:	126a0000 	rsbne	r0, sl, #0, 0
    18b4:	12600000 	rsbne	r0, r0, #0, 0
    18b8:	78170000 	ldmdavc	r7, {}	; <UNPREDICTABLE>
    18bc:	a2010078 	andge	r0, r1, #120, 0	; 0x78
    18c0:	0000701a 	andeq	r7, r0, sl, lsl r0
    18c4:	8a141800 	bhi	5078cc <__bss_end__+0x4fd8c4>
    18c8:	0a920000 	beq	fe4818d0 <__bss_end__+0xfe4778c8>
    18cc:	02d50000 	sbcseq	r0, r5, #0, 0
    18d0:	01190000 	tsteq	r9, r0
    18d4:	00760250 	rsbseq	r0, r6, r0, asr r2
    18d8:	05510119 	ldrbeq	r0, [r1, #-281]	; 0xfffffee7
    18dc:	0094d003 	addseq	sp, r4, r3
    18e0:	52011900 	andpl	r1, r1, #0, 18
    18e4:	18003301 	stmdane	r0, {r0, r8, r9, ip, sp}
    18e8:	00008a2c 	andeq	r8, r0, ip, lsr #20
    18ec:	00000a92 	muleq	r0, r2, sl
    18f0:	000002f7 	strdeq	r0, [r0], -r7
    18f4:	02500119 	subseq	r0, r0, #1073741830	; 0x40000006
    18f8:	01190076 	tsteq	r9, r6, ror r0
    18fc:	d4030551 	strle	r0, [r3], #-1361	; 0xfffffaaf
    1900:	19000094 	stmdbne	r0, {r2, r4, r7}
    1904:	33015201 	movwcc	r5, #4609	; 0x1201
    1908:	8a601800 	bhi	1807910 <__bss_end__+0x17fd908>
    190c:	0a9e0000 	beq	fe781914 <__bss_end__+0xfe77790c>
    1910:	03140000 	tsteq	r4, #0, 0
    1914:	01190000 	tsteq	r9, r0
    1918:	d8030550 	stmdale	r3, {r4, r6, r8, sl}
    191c:	19000094 	stmdbne	r0, {r2, r4, r7}
    1920:	77025101 	strvc	r5, [r2, -r1, lsl #2]
    1924:	6c180000 	ldcvs	0, cr0, [r8], {-0}
    1928:	9e00008a 	cdpls	0, 0, cr0, cr0, cr10, {4}
    192c:	3100000a 	tstcc	r0, sl
    1930:	19000003 	stmdbne	r0, {r0, r1}
    1934:	03055001 	movweq	r5, #20481	; 0x5001
    1938:	000094e0 	andeq	r9, r0, r0, ror #9
    193c:	02510119 	subseq	r0, r1, #1073741830	; 0x40000006
    1940:	1800007a 	stmdane	r0, {r1, r3, r4, r5, r6}
    1944:	00008a7c 	andeq	r8, r0, ip, ror sl
    1948:	00000a92 	muleq	r0, r2, sl
    194c:	00000353 	andeq	r0, r0, r3, asr r3
    1950:	02500119 	subseq	r0, r0, #1073741830	; 0x40000006
    1954:	01190076 	tsteq	r9, r6, ror r0
    1958:	d0030551 	andle	r0, r3, r1, asr r5
    195c:	19000094 	stmdbne	r0, {r2, r4, r7}
    1960:	33015201 	movwcc	r5, #4609	; 0x1201
    1964:	8a941800 	bhi	fe50796c <__bss_end__+0xfe4fd964>
    1968:	0a920000 	beq	fe481970 <__bss_end__+0xfe477968>
    196c:	03750000 	cmneq	r5, #0, 0
    1970:	01190000 	tsteq	r9, r0
    1974:	00760250 	rsbseq	r0, r6, r0, asr r2
    1978:	05510119 	ldrbeq	r0, [r1, #-281]	; 0xfffffee7
    197c:	0094d403 	addseq	sp, r4, r3, lsl #8
    1980:	52011900 	andpl	r1, r1, #0, 18
    1984:	18003301 	stmdane	r0, {r0, r8, r9, ip, sp}
    1988:	00008abc 			; <UNDEFINED> instruction: 0x00008abc
    198c:	00000742 	andeq	r0, r0, r2, asr #14
    1990:	000003a9 	andeq	r0, r0, r9, lsr #7
    1994:	01500119 	cmpeq	r0, r9, lsl r1
    1998:	5101193a 	tstpl	r1, sl, lsr r9
    199c:	7dd09103 	ldfvcp	f1, [r0, #12]
    19a0:	02520119 	subseq	r0, r2, #1073741830	; 0x40000006
    19a4:	01198008 	tsteq	r9, r8
    19a8:	00770253 	rsbseq	r0, r7, r3, asr r2
    19ac:	007d0219 	rsbseq	r0, sp, r9, lsl r2
    19b0:	19007502 	stmdbne	r0, {r1, r8, sl, ip, sp, lr}
    19b4:	02047d02 	andeq	r7, r4, #128	; 0x80
    19b8:	18000076 	stmdane	r0, {r1, r2, r4, r5, r6}
    19bc:	00008adc 	ldrdeq	r8, [r0], -ip
    19c0:	00000742 	andeq	r0, r0, r2, asr #14
    19c4:	000003dd 	ldrdeq	r0, [r0], -sp
    19c8:	01500119 	cmpeq	r0, r9, lsl r1
    19cc:	5101193a 	tstpl	r1, sl, lsr r9
    19d0:	7ed09103 	atnvcs	f1, f3
    19d4:	02520119 	subseq	r0, r2, #1073741830	; 0x40000006
    19d8:	01198008 	tsteq	r9, r8
    19dc:	007a0253 	rsbseq	r0, sl, r3, asr r2
    19e0:	007d0219 	rsbseq	r0, sp, r9, lsl r2
    19e4:	19007502 	stmdbne	r0, {r1, r8, sl, ip, sp, lr}
    19e8:	02047d02 	andeq	r7, r4, #128	; 0x80
    19ec:	18000076 	stmdane	r0, {r1, r2, r4, r5, r6}
    19f0:	00008ae8 	andeq	r8, r0, r8, ror #21
    19f4:	00000aaa 	andeq	r0, r0, sl, lsr #21
    19f8:	000003fb 	strdeq	r0, [r0], -fp
    19fc:	03500119 	cmpeq	r0, #1073741830	; 0x40000006
    1a00:	197dd091 	ldmdbne	sp!, {r0, r4, r7, ip, lr, pc}^
    1a04:	03055101 	movweq	r5, #20737	; 0x5101
    1a08:	00009494 	muleq	r0, r4, r4
    1a0c:	8afc1800 	bhi	fff07a14 <__bss_end__+0xffefda0c>
    1a10:	0ab60000 	beq	fed81a18 <__bss_end__+0xfed77a10>
    1a14:	04170000 	ldreq	r0, [r7], #-0
    1a18:	01190000 	tsteq	r9, r0
    1a1c:	d0910350 	addsle	r0, r1, r0, asr r3
    1a20:	5101197d 	tstpl	r1, sp, ror r9
    1a24:	7ed09103 	atnvcs	f1, f3
    1a28:	8b201800 	blhi	807a30 <__bss_end__+0x7fda28>
    1a2c:	0a9e0000 	beq	fe781a34 <__bss_end__+0xfe777a2c>
    1a30:	04500000 	ldrbeq	r0, [r0], #-0
    1a34:	01190000 	tsteq	r9, r0
    1a38:	88030550 	stmdahi	r3, {r4, r6, r8, sl}
    1a3c:	19000093 	stmdbne	r0, {r0, r1, r4, r7}
    1a40:	03055101 	movweq	r5, #20737	; 0x5101
    1a44:	00009480 	andeq	r9, r0, r0, lsl #9
    1a48:	05520119 	ldrbeq	r0, [r2, #-281]	; 0xfffffee7
    1a4c:	0095dc03 	addseq	sp, r5, r3, lsl #24
    1a50:	53011900 	movwpl	r1, #6400	; 0x1900
    1a54:	199f0802 	ldmibne	pc, {r1, fp}	; <UNPREDICTABLE>
    1a58:	05007d02 	streq	r7, [r0, #-3330]	; 0xfffff2fe
    1a5c:	0094e803 	addseq	lr, r4, r3, lsl #16
    1a60:	241a0000 	ldrcs	r0, [sl], #-0
    1a64:	c200008b 	andgt	r0, r0, #139, 0	; 0x8b
    1a68:	1800000a 	stmdane	r0, {r1, r3}
    1a6c:	00008b44 	andeq	r8, r0, r4, asr #22
    1a70:	00000742 	andeq	r0, r0, r2, asr #14
    1a74:	0000048d 	andeq	r0, r0, sp, lsl #9
    1a78:	01500119 	cmpeq	r0, r9, lsl r1
    1a7c:	51011940 	tstpl	r1, r0, asr #18
    1a80:	7dd09103 	ldfvcp	f1, [r0, #12]
    1a84:	02520119 	subseq	r0, r2, #1073741830	; 0x40000006
    1a88:	01198008 	tsteq	r9, r8
    1a8c:	00770253 	rsbseq	r0, r7, r3, asr r2
    1a90:	007d0219 	rsbseq	r0, sp, r9, lsl r2
    1a94:	19007502 	stmdbne	r0, {r1, r8, sl, ip, sp, lr}
    1a98:	02047d02 	andeq	r7, r4, #128	; 0x80
    1a9c:	18000076 	stmdane	r0, {r1, r2, r4, r5, r6}
    1aa0:	00008b64 	andeq	r8, r0, r4, ror #22
    1aa4:	00000742 	andeq	r0, r0, r2, asr #14
    1aa8:	000004c1 	andeq	r0, r0, r1, asr #9
    1aac:	01500119 	cmpeq	r0, r9, lsl r1
    1ab0:	51011940 	tstpl	r1, r0, asr #18
    1ab4:	7ed09103 	atnvcs	f1, f3
    1ab8:	02520119 	subseq	r0, r2, #1073741830	; 0x40000006
    1abc:	01198008 	tsteq	r9, r8
    1ac0:	007a0253 	rsbseq	r0, sl, r3, asr r2
    1ac4:	007d0219 	rsbseq	r0, sp, r9, lsl r2
    1ac8:	19007502 	stmdbne	r0, {r1, r8, sl, ip, sp, lr}
    1acc:	02047d02 	andeq	r7, r4, #128	; 0x80
    1ad0:	18000076 	stmdane	r0, {r1, r2, r4, r5, r6}
    1ad4:	00008b70 	andeq	r8, r0, r0, ror fp
    1ad8:	00000ace 	andeq	r0, r0, lr, asr #21
    1adc:	000004dd 	ldrdeq	r0, [r0], -sp
    1ae0:	03500119 	cmpeq	r0, #1073741830	; 0x40000006
    1ae4:	197dd091 	ldmdbne	sp!, {r0, r4, r7, ip, lr, pc}^
    1ae8:	91035101 	tstls	r3, r1, lsl #2
    1aec:	18007ed2 	stmdane	r0, {r1, r4, r6, r7, r9, sl, fp, ip, sp, lr}
    1af0:	00008b84 	andeq	r8, r0, r4, lsl #23
    1af4:	00000ace 	andeq	r0, r0, lr, asr #21
    1af8:	000004f9 	strdeq	r0, [r0], -r9
    1afc:	03500119 	cmpeq	r0, #1073741830	; 0x40000006
    1b00:	197dd091 	ldmdbne	sp!, {r0, r4, r7, ip, lr, pc}^
    1b04:	91035101 	tstls	r3, r1, lsl #2
    1b08:	18007ed0 	stmdane	r0, {r4, r6, r7, r9, sl, fp, ip, sp, lr}
    1b0c:	00008ba4 	andeq	r8, r0, r4, lsr #23
    1b10:	00000a9e 	muleq	r0, lr, sl
    1b14:	0000052f 	andeq	r0, r0, pc, lsr #10
    1b18:	05500119 	ldrbeq	r0, [r0, #-281]	; 0xfffffee7
    1b1c:	00952403 	addseq	r2, r5, r3, lsl #8
    1b20:	51011900 	tstpl	r1, r0, lsl #18
    1b24:	94800305 	strls	r0, [r0], #773	; 0x305
    1b28:	01190000 	tsteq	r9, r0
    1b2c:	dc030552 	cfstr32le	mvfx0, [r3], {82}	; 0x52
    1b30:	19000095 	stmdbne	r0, {r0, r2, r4, r7}
    1b34:	08025301 	stmdaeq	r2, {r0, r8, r9, ip, lr}
    1b38:	7d0219b6 	vstrvc.16	s2, [r2, #-364]	; 0xfffffe94	; <UNPREDICTABLE>
    1b3c:	00760200 	rsbseq	r0, r6, r0, lsl #4
    1b40:	8ba81a00 	blhi	fea08348 <__bss_end__+0xfe9fe340>
    1b44:	0ac20000 	beq	ff081b4c <__bss_end__+0xff077b44>
    1b48:	18000000 	stmdane	r0, {}	; <UNPREDICTABLE>
    1b4c:	00008954 	andeq	r8, r0, r4, asr r9
    1b50:	000009c0 	andeq	r0, r0, r0, asr #19
    1b54:	0000054d 	andeq	r0, r0, sp, asr #10
    1b58:	02500119 	subseq	r0, r0, #1073741830	; 0x40000006
    1b5c:	18000077 	stmdane	r0, {r0, r1, r2, r4, r5, r6}
    1b60:	00008a00 	andeq	r8, r0, r0, lsl #20
    1b64:	00000a9e 	muleq	r0, lr, sl
    1b68:	00000586 	andeq	r0, r0, r6, lsl #11
    1b6c:	05500119 	ldrbeq	r0, [r0, #-281]	; 0xfffffee7
    1b70:	00938803 	addseq	r8, r3, r3, lsl #16
    1b74:	51011900 	tstpl	r1, r0, lsl #18
    1b78:	94800305 	strls	r0, [r0], #773	; 0x305
    1b7c:	01190000 	tsteq	r9, r0
    1b80:	dc030552 	cfstr32le	mvfx0, [r3], {82}	; 0x52
    1b84:	19000095 	stmdbne	r0, {r0, r2, r4, r7}
    1b88:	08025301 	stmdaeq	r2, {r0, r8, r9, ip, lr}
    1b8c:	7d021998 	vstrvc.16	s2, [r2, #-304]	; 0xfffffed0	; <UNPREDICTABLE>
    1b90:	c4030500 	strgt	r0, [r3], #-1280	; 0xfffffb00
    1b94:	00000094 	muleq	r0, r4, r0
    1b98:	008a041a 	addeq	r0, sl, sl, lsl r4
    1b9c:	000ac200 	andeq	ip, sl, r0, lsl #4
    1ba0:	8bbc1800 	blhi	fef07ba8 <__bss_end__+0xfeefdba0>
    1ba4:	0a9e0000 	beq	fe781bac <__bss_end__+0xfe777ba4>
    1ba8:	05be0000 	ldreq	r0, [lr, #0]!
    1bac:	01190000 	tsteq	r9, r0
    1bb0:	4c030550 	cfstr32mi	mvfx0, [r3], {80}	; 0x50
    1bb4:	19000095 	stmdbne	r0, {r0, r2, r4, r7}
    1bb8:	03055101 	movweq	r5, #20737	; 0x5101
    1bbc:	00009480 	andeq	r9, r0, r0, lsl #9
    1bc0:	05520119 	ldrbeq	r0, [r2, #-281]	; 0xfffffee7
    1bc4:	0095dc03 	addseq	sp, r5, r3, lsl #24
    1bc8:	53011900 	movwpl	r1, #6400	; 0x1900
    1bcc:	00be0802 	adcseq	r0, lr, r2, lsl #16
    1bd0:	008bc01a 	addeq	ip, fp, sl, lsl r0
    1bd4:	000ac200 	andeq	ip, sl, r0, lsl #4
    1bd8:	8bec1800 	blhi	ffb07be0 <__bss_end__+0xffafdbd8>
    1bdc:	07420000 	strbeq	r0, [r2, -r0]
    1be0:	05f40000 	ldrbeq	r0, [r4, #0]!
    1be4:	01190000 	tsteq	r9, r0
    1be8:	193a0150 	ldmdbne	sl!, {r4, r6, r8}
    1bec:	91035101 	tstls	r3, r1, lsl #2
    1bf0:	01197dd0 			; <UNDEFINED> instruction: 0x01197dd0
    1bf4:	80080252 	andhi	r0, r8, r2, asr r2
    1bf8:	007d0219 	rsbseq	r0, sp, r9, lsl r2
    1bfc:	19007502 	stmdbne	r0, {r1, r8, sl, ip, sp, lr}
    1c00:	01047d02 	tsteq	r4, r2, lsl #26
    1c04:	24180031 	ldrcs	r0, [r8], #-49	; 0xffffffcf
    1c08:	4200008c 	andmi	r0, r0, #140, 0	; 0x8c
    1c0c:	21000007 	tstcs	r0, r7
    1c10:	19000006 	stmdbne	r0, {r1, r2}
    1c14:	3a015001 	bcc	55c20 <__bss_end__+0x4bc18>
    1c18:	03510119 	cmpeq	r1, #1073741830	; 0x40000006
    1c1c:	197dd091 	ldmdbne	sp!, {r0, r4, r7, ip, lr, pc}^
    1c20:	08025201 	stmdaeq	r2, {r0, r9, ip, lr}
    1c24:	7d021980 	vstrvc.16	s2, [r2, #-256]	; 0xffffff00	; <UNPREDICTABLE>
    1c28:	00750200 	rsbseq	r0, r5, r0, lsl #4
    1c2c:	047d0219 	ldrbteq	r0, [sp], #-537	; 0xfffffde7
    1c30:	18003001 	stmdane	r0, {r0, ip, sp}
    1c34:	00008c58 	andeq	r8, r0, r8, asr ip
    1c38:	00000742 	andeq	r0, r0, r2, asr #14
    1c3c:	0000064e 	andeq	r0, r0, lr, asr #12
    1c40:	01500119 	cmpeq	r0, r9, lsl r1
    1c44:	51011940 	tstpl	r1, r0, asr #18
    1c48:	7dd09103 	ldfvcp	f1, [r0, #12]
    1c4c:	02520119 	subseq	r0, r2, #1073741830	; 0x40000006
    1c50:	02198008 	andseq	r8, r9, #8, 0
    1c54:	7502007d 	strvc	r0, [r2, #-125]	; 0xffffff83
    1c58:	7d021900 	vstrvc.16	s2, [r2, #-0]	; <UNPREDICTABLE>
    1c5c:	00300104 	eorseq	r0, r0, r4, lsl #2
    1c60:	008c8c18 	addeq	r8, ip, r8, lsl ip
    1c64:	00074200 	andeq	r4, r7, r0, lsl #4
    1c68:	00067b00 	andeq	r7, r6, r0, lsl #22
    1c6c:	50011900 	andpl	r1, r1, r0, lsl #18
    1c70:	01193201 	tsteq	r9, r1, lsl #4
    1c74:	d0910351 	addsle	r0, r1, r1, asr r3
    1c78:	5201197d 	andpl	r1, r1, #2048000	; 0x1f4000
    1c7c:	19800802 	stmibne	r0, {r1, fp}
    1c80:	02007d02 	andeq	r7, r0, #128	; 0x80
    1c84:	02190075 	andseq	r0, r9, #117, 0	; 0x75
    1c88:	3001047d 	andcc	r0, r1, sp, ror r4
    1c8c:	8cd41800 	ldclhi	8, cr1, [r4], {0}
    1c90:	07420000 	strbeq	r0, [r2, -r0]
    1c94:	06a80000 	strteq	r0, [r8], r0
    1c98:	01190000 	tsteq	r9, r0
    1c9c:	19380150 	ldmdbne	r8!, {r4, r6, r8}
    1ca0:	91035101 	tstls	r3, r1, lsl #2
    1ca4:	01197dd0 			; <UNDEFINED> instruction: 0x01197dd0
    1ca8:	80080252 	andhi	r0, r8, r2, asr r2
    1cac:	007d0219 	rsbseq	r0, sp, r9, lsl r2
    1cb0:	19007502 	stmdbne	r0, {r1, r8, sl, ip, sp, lr}
    1cb4:	01047d02 	tsteq	r4, r2, lsl #26
    1cb8:	f4180030 			; <UNDEFINED> instruction: 0xf4180030
    1cbc:	9e00008c 	cdpls	0, 0, cr0, cr0, cr12, {4}
    1cc0:	cb00000a 	blgt	1cf0 <__code_start__-0x6310>
    1cc4:	19000006 	stmdbne	r0, {r1, r2}
    1cc8:	03055001 	movweq	r5, #20481	; 0x5001
    1ccc:	00009574 	andeq	r9, r0, r4, ror r5
    1cd0:	02510119 	subseq	r0, r1, #1073741830	; 0x40000006
    1cd4:	0119007a 	tsteq	r9, sl, ror r0
    1cd8:	007a0252 	rsbseq	r0, sl, r2, asr r2
    1cdc:	8d041b00 	vstrhi	d1, [r4, #-0]
    1ce0:	06dd0000 	ldrbeq	r0, [sp], r0
    1ce4:	01190000 	tsteq	r9, r0
    1ce8:	c8910450 	ldmgt	r1, {r4, r6, sl}
    1cec:	1800067d 	stmdane	r0, {r0, r2, r3, r4, r5, r6, r9, sl}
    1cf0:	00008d18 	andeq	r8, r0, r8, lsl sp
    1cf4:	00000a9e 	muleq	r0, lr, sl
    1cf8:	0000070c 	andeq	r0, r0, ip, lsl #14
    1cfc:	05500119 	ldrbeq	r0, [r0, #-281]	; 0xfffffee7
    1d00:	0095a403 	addseq	sl, r5, r3, lsl #8
    1d04:	51011900 	tstpl	r1, r0, lsl #18
    1d08:	94800305 	strls	r0, [r0], #773	; 0x305
    1d0c:	01190000 	tsteq	r9, r0
    1d10:	dc030552 	cfstr32le	mvfx0, [r3], {82}	; 0x52
    1d14:	19000095 	stmdbne	r0, {r0, r2, r4, r7}
    1d18:	08025301 	stmdaeq	r2, {r0, r8, r9, ip, lr}
    1d1c:	1c1a00e2 	ldcne	0, cr0, [sl], {226}	; 0xe2
    1d20:	c200008d 	andgt	r0, r0, #141, 0	; 0x8d
    1d24:	0000000a 	andeq	r0, r0, sl
    1d28:	b9040800 	stmdblt	r4, {fp}
    1d2c:	1c000000 	stcne	0, cr0, [r0], {-0}
    1d30:	000000c0 	andeq	r0, r0, r0, asr #1
    1d34:	0000072d 	andeq	r0, r0, sp, lsr #14
    1d38:	00002c1d 	andeq	r2, r0, sp, lsl ip
    1d3c:	09000900 	stmdbeq	r0, {r8, fp}
    1d40:	0000071d 	andeq	r0, r0, sp, lsl r7
    1d44:	0000b91c 	andeq	fp, r0, ip, lsl r9
    1d48:	00074200 	andeq	r4, r7, r0, lsl #4
    1d4c:	002c1d00 	eoreq	r1, ip, r0, lsl #26
    1d50:	007f0000 	rsbseq	r0, pc, r0
    1d54:	0008471e 	andeq	r4, r8, lr, lsl r7
    1d58:	01490100 	mrseq	r0, (UNDEF: 89)
    1d5c:	00000717 	andeq	r0, r0, r7, lsl r7
    1d60:	000086bc 			; <UNDEFINED> instruction: 0x000086bc
    1d64:	000001b4 			; <UNDEFINED> instruction: 0x000001b4
    1d68:	08ab9c01 	stmiaeq	fp!, {r0, sl, fp, ip, pc}
    1d6c:	931f0000 	tstls	pc, #0, 0
    1d70:	01000008 	tsteq	r0, r8
    1d74:	002c0f49 	eoreq	r0, ip, r9, asr #30
    1d78:	12b30000 	adcsne	r0, r3, #0, 0
    1d7c:	12ad0000 	adcne	r0, sp, #0, 0
    1d80:	640e0000 	strvs	r0, [lr], #-0
    1d84:	01007473 	tsteq	r0, r3, ror r4
    1d88:	07171b49 	ldreq	r1, [r7, -r9, asr #22]
    1d8c:	12f10000 	rscsne	r0, r1, #0, 0
    1d90:	12e10000 	rscne	r0, r1, #0, 0
    1d94:	6e0e0000 	cdpvs	0, 0, cr0, cr14, cr0, {0}
    1d98:	24490100 	strbcs	r0, [r9], #-256	; 0xffffff00
    1d9c:	00000025 	andeq	r0, r0, r5, lsr #32
    1da0:	00001355 	andeq	r1, r0, r5, asr r3
    1da4:	00001351 	andeq	r1, r0, r1, asr r3
    1da8:	6c61760e 	stclvs	6, cr7, [r1], #-56	; 0xffffffc8
    1dac:	2b490100 	blcs	12421b4 <__bss_end__+0x12381ac>
    1db0:	00000025 	andeq	r0, r0, r5, lsr #32
    1db4:	0000137f 	andeq	r1, r0, pc, ror r3
    1db8:	00001373 	andeq	r1, r0, r3, ror r3
    1dbc:	0007de1f 	andeq	sp, r7, pc, lsl lr
    1dc0:	34490100 	strbcc	r0, [r9], #-256	; 0xffffff00
    1dc4:	00000025 	andeq	r0, r0, r5, lsr #32
    1dc8:	000013d5 	ldrdeq	r1, [r0], -r5
    1dcc:	000013cf 	andeq	r1, r0, pc, asr #7
    1dd0:	0008980f 	andeq	r9, r8, pc, lsl #16
    1dd4:	3f490100 	svccc	0x00490100
    1dd8:	00000025 	andeq	r0, r0, r5, lsr #32
    1ddc:	14049102 	strne	r9, [r4], #-258	; 0xfffffefe
    1de0:	00667562 	rsbeq	r7, r6, r2, ror #10
    1de4:	ab074e01 	blge	1d55f0 <__bss_end__+0x1cb5e8>
    1de8:	03000008 	movweq	r0, #8
    1dec:	107fa891 			; <UNDEFINED> instruction: 0x107fa891
    1df0:	4e010070 	mcrmi	0, 0, r0, cr1, cr0, {3}
    1df4:	00071711 	andeq	r1, r7, r1, lsl r7
    1df8:	00141f00 	andseq	r1, r4, r0, lsl #30
    1dfc:	0013ff00 	andseq	pc, r3, r0, lsl #30
    1e00:	00751000 	rsbseq	r1, r5, r0
    1e04:	2c0b4f01 	stccs	15, cr4, [fp], {1}
    1e08:	05000000 	streq	r0, [r0, #-0]
    1e0c:	f1000015 	cps	#21
    1e10:	12000014 	andne	r0, r0, #20, 0
    1e14:	00000347 	andeq	r0, r0, r7, asr #6
    1e18:	000008cb 	andeq	r0, r0, fp, asr #17
    1e1c:	95c40305 	strbls	r0, [r4, #773]	; 0x305
    1e20:	28160000 	ldmdacs	r6, {}	; <UNPREDICTABLE>
    1e24:	78000087 	stmdavc	r0, {r0, r1, r2, r7}
    1e28:	32000000 	andcc	r0, r0, #0, 0
    1e2c:	11000008 	tstne	r0, r8
    1e30:	00000834 	andeq	r0, r0, r4, lsr r8
    1e34:	2c0d5401 	cfstrscs	mvf5, [sp], {1}
    1e38:	86000000 	strhi	r0, [r0], -r0
    1e3c:	7e000015 	mcrvc	0, 0, r0, cr0, cr5, {0}
    1e40:	00000015 	andeq	r0, r0, r5, lsl r0
    1e44:	0087e018 	addeq	lr, r7, r8, lsl r0
    1e48:	00095d00 	andeq	r5, r9, r0, lsl #26
    1e4c:	00084700 	andeq	r4, r8, r0, lsl #14
    1e50:	51011900 	tstpl	r1, r0, lsl #18
    1e54:	7fa09103 	svcvc	0x00a09103
    1e58:	87f41800 	ldrbhi	r1, [r4, r0, lsl #16]!
    1e5c:	08d00000 	ldmeq	r0, {}^	; <UNPREDICTABLE>
    1e60:	08680000 	stmdaeq	r8!, {}^	; <UNPREDICTABLE>
    1e64:	01190000 	tsteq	r9, r0
    1e68:	00750250 	rsbseq	r0, r5, r0, asr r2
    1e6c:	02510119 	subseq	r0, r1, #1073741830	; 0x40000006
    1e70:	01190074 	tsteq	r9, r4, ror r0
    1e74:	a0910353 	addsge	r0, r1, r3, asr r3
    1e78:	4c18007f 	ldcmi	0, cr0, [r8], {127}	; 0x7f
    1e7c:	9e000088 	cdpls	0, 0, cr0, cr0, cr8, {4}
    1e80:	a100000a 	tstge	r0, sl
    1e84:	19000008 	stmdbne	r0, {r3}
    1e88:	03055001 	movweq	r5, #20481	; 0x5001
    1e8c:	00009388 	andeq	r9, r0, r8, lsl #7
    1e90:	05510119 	ldrbeq	r0, [r1, #-281]	; 0xfffffee7
    1e94:	00948003 	addseq	r8, r4, r3
    1e98:	52011900 	andpl	r1, r1, #0, 18
    1e9c:	95c40305 	strbls	r0, [r4, #773]	; 0x305
    1ea0:	01190000 	tsteq	r9, r0
    1ea4:	79080253 	stmdbvc	r8, {r0, r1, r4, r6, r9}
    1ea8:	007d0219 	rsbseq	r0, sp, r9, lsl r2
    1eac:	94940305 	ldrls	r0, [r4], #773	; 0x305
    1eb0:	1a000000 	bne	1eb8 <__code_start__-0x6148>
    1eb4:	00008850 	andeq	r8, r0, r0, asr r8
    1eb8:	00000ac2 	andeq	r0, r0, r2, asr #21
    1ebc:	00b91c00 	adcseq	r1, r9, r0, lsl #24
    1ec0:	08bb0000 	ldmeq	fp!, {}	; <UNPREDICTABLE>
    1ec4:	2c1d0000 	ldccs	0, cr0, [sp], {-0}
    1ec8:	3f000000 	svccc	0x00000000
    1ecc:	00c01c00 	sbceq	r1, r0, r0, lsl #24
    1ed0:	08cb0000 	stmiaeq	fp, {}^	; <UNPREDICTABLE>
    1ed4:	2c1d0000 	ldccs	0, cr0, [sp], {-0}
    1ed8:	04000000 	streq	r0, [r0], #-0
    1edc:	08bb0900 	ldmeq	fp!, {r8, fp}
    1ee0:	541e0000 	ldrpl	r0, [lr], #-0
    1ee4:	01000008 	tsteq	r0, r8
    1ee8:	07170e38 			; <UNDEFINED> instruction: 0x07170e38
    1eec:	86840000 	strhi	r0, [r4], r0
    1ef0:	00380000 	eorseq	r0, r8, r0
    1ef4:	9c010000 	stcls	0, cr0, [r1], {-0}
    1ef8:	0000095d 	andeq	r0, r0, sp, asr r9
    1efc:	7473640e 	ldrbtvc	r6, [r3], #-1038	; 0xfffffbf2
    1f00:	1c380100 	ldfnes	f0, [r8], #-0
    1f04:	00000717 	andeq	r0, r0, r7, lsl r7
    1f08:	000015c7 	andeq	r1, r0, r7, asr #11
    1f0c:	000015bd 			; <UNDEFINED> instruction: 0x000015bd
    1f10:	01006e0e 	tsteq	r0, lr, lsl #28
    1f14:	00252538 	eoreq	r2, r5, r8, lsr r5
    1f18:	160e0000 	strne	r0, [lr], -r0
    1f1c:	160a0000 	strne	r0, [sl], -r0
    1f20:	700e0000 	andvc	r0, lr, r0
    1f24:	2e380100 	rsfcse	f0, f0, f0
    1f28:	00000717 	andeq	r0, r0, r7, lsl r7
    1f2c:	00001637 	andeq	r1, r0, r7, lsr r6
    1f30:	0000162f 	andeq	r1, r0, pc, lsr #12
    1f34:	0008271f 	andeq	r2, r8, pc, lsl r7
    1f38:	37380100 	ldrcc	r0, [r8, -r0, lsl #2]!
    1f3c:	00000717 	andeq	r0, r0, r7, lsl r7
    1f40:	00001671 	andeq	r1, r0, r1, ror r6
    1f44:	0000166d 	andeq	r1, r0, sp, ror #12
    1f48:	6e656c10 	mcrvs	12, 3, r6, cr5, cr0, {0}
    1f4c:	063a0100 	ldrteq	r0, [sl], -r0, lsl #2
    1f50:	00000025 	andeq	r0, r0, r5, lsr #32
    1f54:	00001697 	muleq	r0, r7, r6
    1f58:	0000168f 	andeq	r1, r0, pc, lsl #13
    1f5c:	01007310 	tsteq	r0, r0, lsl r3
    1f60:	0717083e 			; <UNDEFINED> instruction: 0x0717083e
    1f64:	16e50000 	strbtne	r0, [r5], r0
    1f68:	16e30000 	strbtne	r0, [r3], r0
    1f6c:	20000000 	andcs	r0, r0, r0
    1f70:	00646170 	rsbeq	r6, r4, r0, ror r1
    1f74:	170e2e01 	strne	r2, [lr, -r1, lsl #28]
    1f78:	60000007 	andvs	r0, r0, r7
    1f7c:	24000086 	strcs	r0, [r0], #-134	; 0xffffff7a
    1f80:	01000000 	mrseq	r0, (UNDEF: 0)
    1f84:	0009c09c 	muleq	r9, ip, r0
    1f88:	00700e00 	rsbseq	r0, r0, r0, lsl #28
    1f8c:	17182e01 	ldrne	r2, [r8, -r1, lsl #28]
    1f90:	fe000007 	cdp2	0, 0, cr0, cr0, cr7, {0}
    1f94:	f8000016 			; <UNDEFINED> instruction: 0xf8000016
    1f98:	1f000016 	svcne	0x00000016
    1f9c:	00000893 	muleq	r0, r3, r8
    1fa0:	17222e01 	strne	r2, [r2, -r1, lsl #28]!
    1fa4:	2d000007 	stccs	0, cr0, [r0, #-28]	; 0xffffffe4
    1fa8:	29000017 	stmdbcs	r0, {r0, r1, r2, r4}
    1fac:	0f000017 	svceq	0x00000017
    1fb0:	000007de 	ldrdeq	r0, [r0], -lr
    1fb4:	252c2e01 	strcs	r2, [ip, #-3585]!	; 0xfffff1ff
    1fb8:	01000000 	mrseq	r0, (UNDEF: 0)
    1fbc:	656c1052 	strbvs	r1, [ip, #-82]!	; 0xffffffae
    1fc0:	2f01006e 	svccs	0x0001006e
    1fc4:	00002506 	andeq	r2, r0, r6, lsl #10
    1fc8:	00175000 	andseq	r5, r7, r0
    1fcc:	00174e00 	andseq	r4, r7, r0, lsl #28
    1fd0:	9d1e0000 	ldcls	0, cr0, [lr, #-0]
    1fd4:	01000007 	tsteq	r0, r7
    1fd8:	00250c27 	eoreq	r0, r5, r7, lsr #24
    1fdc:	864c0000 	strbhi	r0, [ip], -r0
    1fe0:	00140000 	andseq	r0, r4, r0
    1fe4:	9c010000 	stcls	0, cr0, [r1], {-0}
    1fe8:	000009ed 	andeq	r0, r0, sp, ror #19
    1fec:	0100630e 	tsteq	r0, lr, lsl #6
    1ff0:	00251827 	eoreq	r1, r5, r7, lsr #16
    1ff4:	17690000 	strbne	r0, [r9, -r0]!
    1ff8:	17630000 	strbne	r0, [r3, -r0]!
    1ffc:	21000000 	mrscs	r0, (UNDEF: 0)
    2000:	00000814 	andeq	r0, r0, r4, lsl r8
    2004:	70061f01 	andvc	r1, r6, r1, lsl #30
    2008:	64000088 	strvs	r0, [r0], #-136	; 0xffffff78
    200c:	01000000 	mrseq	r0, (UNDEF: 0)
    2010:	000a7d9c 	muleq	sl, ip, sp
    2014:	07f11f00 	ldrbeq	r1, [r1, r0, lsl #30]!
    2018:	1f010000 	svcne	0x00010000
    201c:	00009e1b 	andeq	r9, r0, fp, lsl lr
    2020:	00179b00 	andseq	r9, r7, r0, lsl #22
    2024:	00179700 	andseq	r9, r7, r0, lsl #14
    2028:	084c1f00 	stmdaeq	ip, {r8, r9, sl, fp, ip}^
    202c:	1f010000 	svcne	0x00010000
    2030:	0000d130 	andeq	sp, r0, r0, lsr r1
    2034:	0017c000 	andseq	ip, r7, r0
    2038:	0017bc00 	andseq	fp, r7, r0, lsl #24
    203c:	03471200 	movteq	r1, #29184	; 0x7200
    2040:	0a8d0000 	beq	fe342048 <__bss_end__+0xfe338040>
    2044:	03050000 	movweq	r0, #20480	; 0x5000
    2048:	000095cc 	andeq	r9, r0, ip, asr #11
    204c:	0088b818 	addeq	fp, r8, r8, lsl r8
    2050:	000a9e00 	andeq	r9, sl, r0, lsl #28
    2054:	000a7300 	andeq	r7, sl, r0, lsl #6
    2058:	50011900 	andpl	r1, r1, r0, lsl #18
    205c:	93880305 	orrls	r0, r8, #335544320	; 0x14000000
    2060:	01190000 	tsteq	r9, r0
    2064:	80030551 	andhi	r0, r3, r1, asr r5
    2068:	19000094 	stmdbne	r0, {r2, r4, r7}
    206c:	03055201 	movweq	r5, #20993	; 0x5201
    2070:	000095cc 	andeq	r9, r0, ip, asr #11
    2074:	02530119 	subseq	r0, r3, #1073741830	; 0x40000006
    2078:	02192008 	andseq	r2, r9, #8, 0
    207c:	0305007d 	movweq	r0, #20605	; 0x507d
    2080:	000094bc 			; <UNDEFINED> instruction: 0x000094bc
    2084:	88bc1a00 	ldmhi	ip!, {r9, fp, ip}
    2088:	0ac20000 	beq	ff082090 <__bss_end__+0xff078088>
    208c:	1c000000 	stcne	0, cr0, [r0], {-0}
    2090:	000000c0 	andeq	r0, r0, r0, asr #1
    2094:	00000a8d 	andeq	r0, r0, sp, lsl #21
    2098:	00002c1d 	andeq	r2, r0, sp, lsl ip
    209c:	09000e00 	stmdbeq	r0, {r9, sl, fp}
    20a0:	00000a7d 	andeq	r0, r0, sp, ror sl
    20a4:	00088b22 	andeq	r8, r8, r2, lsr #22
    20a8:	00088b00 	andeq	r8, r8, r0, lsl #22
    20ac:	05f00300 	ldrbeq	r0, [r0, #768]!	; 0x300
    20b0:	00074c22 	andeq	r4, r7, r2, lsr #24
    20b4:	00074c00 	andeq	r4, r7, r0, lsl #24
    20b8:	06280300 	strteq	r0, [r8], -r0, lsl #6
    20bc:	00086322 	andeq	r6, r8, r2, lsr #6
    20c0:	00086300 	andeq	r6, r8, r0, lsl #6
    20c4:	05ef0300 	strbeq	r0, [pc, #768]!	; 23cc <__code_start__-0x5c34>
    20c8:	00082d22 	andeq	r2, r8, r2, lsr #26
    20cc:	00082d00 	andeq	r2, r8, r0, lsl #26
    20d0:	07f20300 	ldrbeq	r0, [r2, r0, lsl #6]!
    20d4:	00007c22 	andeq	r7, r0, r2, lsr #24
    20d8:	00007c00 	andeq	r7, r0, r0, lsl #24
    20dc:	066e0300 	strbteq	r0, [lr], -r0, lsl #6
    20e0:	00085c22 	andeq	r5, r8, r2, lsr #24
    20e4:	00085c00 	andeq	r5, r8, r0, lsl #24
    20e8:	07f30300 	ldrbeq	r0, [r3, r0, lsl #6]!
    20ec:	00012f00 	andeq	r2, r1, r0, lsl #30
    20f0:	9b000400 	blls	30f8 <__code_start__-0x4f08>
    20f4:	04000009 	streq	r0, [r0], #-9
    20f8:	00063001 	andeq	r3, r6, r1
    20fc:	08b50c00 	ldmeq	r5!, {sl, fp}
    2100:	06fa0000 	ldrbteq	r0, [sl], r0
    2104:	8d8c0000 	stchi	0, cr0, [ip]
    2108:	002c0000 	eoreq	r0, ip, r0
    210c:	1a930000 	bne	fe4c2114 <__bss_end__+0xfe4b810c>
    2110:	04020000 	streq	r0, [r2], #-0
    2114:	746e6905 	strbtvc	r6, [lr], #-2309	; 0xfffff6fb
    2118:	07040300 	streq	r0, [r4, -r0, lsl #6]
    211c:	0000017d 	andeq	r0, r0, sp, ror r1
    2120:	70060103 	andvc	r0, r6, r3, lsl #2
    2124:	03000000 	movweq	r0, #0
    2128:	01bb0502 			; <UNDEFINED> instruction: 0x01bb0502
    212c:	04030000 	streq	r0, [r3], #-0
    2130:	0001a605 	andeq	sl, r1, r5, lsl #12
    2134:	05080300 	streq	r0, [r8, #-768]	; 0xfffffd00
    2138:	000001a1 	andeq	r0, r0, r1, lsr #3
    213c:	6e080103 	adfvse	f0, f0, f3
    2140:	03000000 	movweq	r0, #0
    2144:	00890702 	addeq	r0, r9, r2, lsl #14
    2148:	04030000 	streq	r0, [r3], #-0
    214c:	00017807 	andeq	r7, r1, r7, lsl #16
    2150:	07080300 	streq	r0, [r8, -r0, lsl #6]
    2154:	00000173 	andeq	r0, r0, r3, ror r1
    2158:	00002504 	andeq	r2, r0, r4, lsl #10
    215c:	00007a00 	andeq	r7, r0, r0, lsl #20
    2160:	00250500 	eoreq	r0, r5, r0, lsl #10
    2164:	06000000 	streq	r0, [r0], -r0
    2168:	000001af 	andeq	r0, r0, pc, lsr #3
    216c:	860e1c02 	strhi	r1, [lr], -r2, lsl #24
    2170:	07000000 	streq	r0, [r0, -r0]
    2174:	00006b04 	andeq	r6, r0, r4, lsl #22
    2178:	00250400 	eoreq	r0, r5, r0, lsl #8
    217c:	009b0000 	addseq	r0, fp, r0
    2180:	9b050000 	blls	142188 <__bss_end__+0x138180>
    2184:	00000000 	andeq	r0, r0, r0
    2188:	00a80407 	adceq	r0, r8, r7, lsl #8
    218c:	01030000 	mrseq	r0, (UNDEF: 3)
    2190:	00007708 	andeq	r7, r0, r8, lsl #14
    2194:	00a10800 	adceq	r0, r1, r0, lsl #16
    2198:	8a060000 	bhi	1821a0 <__bss_end__+0x178198>
    219c:	02000007 	andeq	r0, r0, #7, 0
    21a0:	00b90e21 	adcseq	r0, r9, r1, lsr #28
    21a4:	04070000 	streq	r0, [r7], #-0
    21a8:	0000008c 	andeq	r0, r0, ip, lsl #1
    21ac:	00007c09 	andeq	r7, r0, r9, lsl #24
    21b0:	06040100 	streq	r0, [r4], -r0, lsl #2
    21b4:	00008d8c 	andeq	r8, r0, ip, lsl #27
    21b8:	0000002c 	andeq	r0, r0, ip, lsr #32
    21bc:	010e9c01 	tsteq	lr, r1, lsl #24
    21c0:	a00a0000 	andge	r0, sl, r0
    21c4:	e800008d 	stmda	r0, {r0, r2, r3, r7}
    21c8:	0b000000 	bleq	21d0 <__code_start__-0x5e30>
    21cc:	03055001 	movweq	r5, #20481	; 0x5001
    21d0:	000095e8 	andeq	r9, r0, r8, ror #11
    21d4:	8da40c00 	stchi	12, cr0, [r4]
    21d8:	010e0000 	mrseq	r0, (UNDEF: 14)
    21dc:	ac0d0000 	stcge	0, cr0, [sp], {-0}
    21e0:	1a00008d 	bne	241c <__code_start__-0x5be4>
    21e4:	04000001 	streq	r0, [r0], #-1
    21e8:	0b000001 	bleq	21f4 <__code_start__-0x5e0c>
    21ec:	3a015001 	bcc	561f8 <__bss_end__+0x4c1f0>
    21f0:	8db00c00 	ldchi	12, cr0, [r0]
    21f4:	01260000 			; <UNDEFINED> instruction: 0x01260000
    21f8:	0e000000 	cdpeq	0, 0, cr0, cr0, cr0, {0}
    21fc:	000008d0 	ldrdeq	r0, [r0], -r0	; <UNPREDICTABLE>
    2200:	000008d0 	ldrdeq	r0, [r0], -r0	; <UNPREDICTABLE>
    2204:	0e064d02 	cdpeq	13, 0, cr4, cr6, cr2, {0}
    2208:	000008ac 	andeq	r0, r0, ip, lsr #17
    220c:	000008ac 	andeq	r0, r0, ip, lsr #17
    2210:	0e065802 	cdpeq	8, 0, cr5, cr6, cr2, {0}
    2214:	000008a1 	andeq	r0, r0, r1, lsr #17
    2218:	000008a1 	andeq	r0, r0, r1, lsr #17
    221c:	00066b02 	andeq	r6, r6, r2, lsl #22
    2220:	00000189 	andeq	r0, r0, r9, lsl #3
    2224:	0a5b0004 	beq	16c223c <__bss_end__+0x16b8234>
    2228:	01040000 	mrseq	r0, (UNDEF: 4)
    222c:	00000630 	andeq	r0, r0, r0, lsr r6
    2230:	0009060c 	andeq	r0, r9, ip, lsl #12
    2234:	0006fa00 	andeq	pc, r6, r0, lsl #20
    2238:	008db800 	addeq	fp, sp, r0, lsl #16
    223c:	00003c00 	andeq	r3, r0, r0, lsl #24
    2240:	001b3e00 	andseq	r3, fp, r0, lsl #28
    2244:	05040200 	streq	r0, [r4, #-512]	; 0xfffffe00
    2248:	00746e69 	rsbseq	r6, r4, r9, ror #28
    224c:	7d070403 	cfstrsvc	mvf0, [r7, #-12]
    2250:	03000001 	movweq	r0, #1
    2254:	00700601 	rsbseq	r0, r0, r1, lsl #12
    2258:	02030000 	andeq	r0, r3, #0, 0
    225c:	0001bb05 	andeq	fp, r1, r5, lsl #22
    2260:	05040300 	streq	r0, [r4, #-768]	; 0xfffffd00
    2264:	000001a6 	andeq	r0, r0, r6, lsr #3
    2268:	a1050803 	tstge	r5, r3, lsl #16
    226c:	03000001 	movweq	r0, #1
    2270:	006e0801 	rsbeq	r0, lr, r1, lsl #16
    2274:	02030000 	andeq	r0, r3, #0, 0
    2278:	00008907 	andeq	r8, r0, r7, lsl #18
    227c:	07040300 	streq	r0, [r4, -r0, lsl #6]
    2280:	00000178 	andeq	r0, r0, r8, ror r1
    2284:	73070803 	movwvc	r0, #30723	; 0x7803
    2288:	04000001 	streq	r0, [r0], #-1
    228c:	00000025 	andeq	r0, r0, r5, lsr #32
    2290:	0000007a 	andeq	r0, r0, sl, ror r0
    2294:	00002505 	andeq	r2, r0, r5, lsl #10
    2298:	af060000 	svcge	0x00060000
    229c:	02000001 	andeq	r0, r0, #1, 0
    22a0:	00860e1c 	addeq	r0, r6, ip, lsl lr
    22a4:	04070000 	streq	r0, [r7], #-0
    22a8:	0000006b 	andeq	r0, r0, fp, rrx
    22ac:	00002504 	andeq	r2, r0, r4, lsl #10
    22b0:	00009b00 	andeq	r9, r0, r0, lsl #22
    22b4:	009b0500 	addseq	r0, fp, r0, lsl #10
    22b8:	07000000 	streq	r0, [r0, -r0]
    22bc:	0000a804 	andeq	sl, r0, r4, lsl #16
    22c0:	08010300 	stmdaeq	r1, {r8, r9}
    22c4:	00000077 	andeq	r0, r0, r7, ror r0
    22c8:	0000a108 	andeq	sl, r0, r8, lsl #2
    22cc:	078a0600 	streq	r0, [sl, r0, lsl #12]
    22d0:	21020000 	mrscs	r0, (UNDEF: 2)
    22d4:	0000b90e 	andeq	fp, r0, lr, lsl #18
    22d8:	8c040700 	stchi	7, cr0, [r4], {-0}
    22dc:	09000000 	stmdbeq	r0, {}	; <UNPREDICTABLE>
    22e0:	000008de 	ldrdeq	r0, [r0], -lr
    22e4:	b8060401 	stmdalt	r6, {r0, sl}
    22e8:	3c00008d 	stccc	0, cr0, [r0], {141}	; 0x8d
    22ec:	01000000 	mrseq	r0, (UNDEF: 0)
    22f0:	0001549c 	muleq	r1, ip, r4
    22f4:	07d00600 	ldrbeq	r0, [r0, r0, lsl #12]
    22f8:	05010000 	streq	r0, [r1, #-0]
    22fc:	00002510 	andeq	r2, r0, r0, lsl r5
    2300:	07f90600 	ldrbeq	r0, [r9, r0, lsl #12]!
    2304:	05010000 	streq	r0, [r1, #-0]
    2308:	0000251f 	andeq	r2, r0, pc, lsl r5
    230c:	00660a00 	rsbeq	r0, r6, r0, lsl #20
    2310:	06010000 	streq	r0, [r1], -r0
    2314:	73620b07 	cmnvc	r2, #7168	; 0x1c00
    2318:	0a010073 	beq	424ec <__bss_end__+0x384e4>
    231c:	0001540a 	andeq	r5, r1, sl, lsl #8
    2320:	0017e700 	andseq	lr, r7, r0, lsl #14
    2324:	0017e100 	andseq	lr, r7, r0, lsl #2
    2328:	08e60c00 	stmiaeq	r6!, {sl, fp}^
    232c:	0b010000 	bleq	42334 <__bss_end__+0x3832c>
    2330:	0001540a 	andeq	r5, r1, sl, lsl #8
    2334:	8ddc0d00 	ldclhi	13, cr0, [ip]
    2338:	00080000 	andeq	r0, r8, r0
    233c:	012f0000 			; <UNDEFINED> instruction: 0x012f0000
    2340:	690e0000 	stmdbvs	lr, {}	; <UNPREDICTABLE>
    2344:	1401006e 	strne	r0, [r1], #-110	; 0xffffff92
    2348:	00002c05 	andeq	r2, r0, r5, lsl #24
    234c:	0f000100 	svceq	0x00000100
    2350:	00008dc0 	andeq	r8, r0, r0, asr #27
    2354:	0000015a 	andeq	r0, r0, sl, asr r1
    2358:	008ddc0f 	addeq	sp, sp, pc, lsl #24
    235c:	00016700 	andeq	r6, r1, r0, lsl #14
    2360:	8de80f00 	stclhi	15, cr0, [r8]
    2364:	01730000 	cmneq	r3, r0
    2368:	ec0f0000 	stc	0, cr0, [pc], {-0}
    236c:	8000008d 	andhi	r0, r0, sp, lsl #1
    2370:	00000001 	andeq	r0, r0, r1
    2374:	00250407 	eoreq	r0, r5, r7, lsl #8
    2378:	f8100000 			; <UNDEFINED> instruction: 0xf8100000
    237c:	f8000008 			; <UNDEFINED> instruction: 0xf8000008
    2380:	02000008 	andeq	r0, r0, #8, 0
    2384:	11060136 	tstne	r6, r6, lsr r1
    2388:	000008ee 	andeq	r0, r0, lr, ror #17
    238c:	000008ee 	andeq	r0, r0, lr, ror #17
    2390:	10063b02 	andne	r3, r6, r2, lsl #22
    2394:	00000066 	andeq	r0, r0, r6, rrx
    2398:	00000066 	andeq	r0, r0, r6, rrx
    239c:	06010a02 	streq	r0, [r1], -r2, lsl #20
    23a0:	00007c11 	andeq	r7, r0, r1, lsl ip
    23a4:	00007c00 	andeq	r7, r0, r0, lsl #24
    23a8:	066e0200 	strbteq	r0, [lr], -r0, lsl #4
    23ac:	0000ce00 	andeq	ip, r0, r0, lsl #28
    23b0:	57000400 	strpl	r0, [r0, -r0, lsl #8]
    23b4:	0400000b 	streq	r0, [r0], #-11
    23b8:	00063001 	andeq	r3, r6, r1
    23bc:	091b0c00 	ldmdbeq	fp, {sl, fp}
    23c0:	06fa0000 	ldrbteq	r0, [sl], r0
    23c4:	8df40000 	ldclhi	0, cr0, [r4]
    23c8:	00040000 	andeq	r0, r4, r0
    23cc:	1c030000 	stcne	0, cr0, [r3], {-0}
    23d0:	04020000 	streq	r0, [r2], #-0
    23d4:	746e6905 	strbtvc	r6, [lr], #-2309	; 0xfffff6fb
    23d8:	07040300 	streq	r0, [r4, -r0, lsl #6]
    23dc:	0000017d 	andeq	r0, r0, sp, ror r1
    23e0:	70060103 	andvc	r0, r6, r3, lsl #2
    23e4:	03000000 	movweq	r0, #0
    23e8:	01bb0502 			; <UNDEFINED> instruction: 0x01bb0502
    23ec:	04030000 	streq	r0, [r3], #-0
    23f0:	0001a605 	andeq	sl, r1, r5, lsl #12
    23f4:	05080300 	streq	r0, [r8, #-768]	; 0xfffffd00
    23f8:	000001a1 	andeq	r0, r0, r1, lsr #3
    23fc:	6e080103 	adfvse	f0, f0, f3
    2400:	03000000 	movweq	r0, #0
    2404:	00890702 	addeq	r0, r9, r2, lsl #14
    2408:	04030000 	streq	r0, [r3], #-0
    240c:	00017807 	andeq	r7, r1, r7, lsl #16
    2410:	07080300 	streq	r0, [r8, -r0, lsl #6]
    2414:	00000173 	andeq	r0, r0, r3, ror r1
    2418:	00002504 	andeq	r2, r0, r4, lsl #10
    241c:	00007a00 	andeq	r7, r0, r0, lsl #20
    2420:	00250500 	eoreq	r0, r5, r0, lsl #10
    2424:	06000000 	streq	r0, [r0], -r0
    2428:	000001af 	andeq	r0, r0, pc, lsr #3
    242c:	860e1c02 	strhi	r1, [lr], -r2, lsl #24
    2430:	07000000 	streq	r0, [r0, -r0]
    2434:	00006b04 	andeq	r6, r0, r4, lsl #22
    2438:	00250400 	eoreq	r0, r5, r0, lsl #8
    243c:	009b0000 	addseq	r0, fp, r0
    2440:	9b050000 	blls	142448 <__bss_end__+0x138440>
    2444:	00000000 	andeq	r0, r0, r0
    2448:	00a80407 	adceq	r0, r8, r7, lsl #8
    244c:	01030000 	mrseq	r0, (UNDEF: 3)
    2450:	00007708 	andeq	r7, r0, r8, lsl #14
    2454:	00a10800 	adceq	r0, r1, r0, lsl #16
    2458:	8a060000 	bhi	182460 <__bss_end__+0x178458>
    245c:	02000007 	andeq	r0, r0, #7, 0
    2460:	00b90e21 	adcseq	r0, r9, r1, lsr #28
    2464:	04070000 	streq	r0, [r7], #-0
    2468:	0000008c 	andeq	r0, r0, ip, lsl #1
    246c:	0008f809 	andeq	pc, r8, r9, lsl #16
    2470:	06040100 	streq	r0, [r4], -r0, lsl #2
    2474:	00008df4 	strdeq	r8, [r0], -r4
    2478:	00000004 	andeq	r0, r0, r4
    247c:	36009c01 	strcc	r9, [r0], -r1, lsl #24
    2480:	04000002 	streq	r0, [r0], #-2
    2484:	000bd000 	andeq	sp, fp, r0
    2488:	30010400 	andcc	r0, r1, r0, lsl #8
    248c:	0c000006 	stceq	0, cr0, [r0], {6}
    2490:	0000095d 	andeq	r0, r0, sp, asr r9
    2494:	000006fa 	strdeq	r0, [r0], -sl
    2498:	00000268 	andeq	r0, r0, r8, ror #4
    249c:	00000000 	andeq	r0, r0, r0
    24a0:	00001cac 	andeq	r1, r0, ip, lsr #25
    24a4:	69050402 	stmdbvs	r5, {r1, sl}
    24a8:	0300746e 	movweq	r7, #1134	; 0x46e
    24ac:	00000025 	andeq	r0, r0, r5, lsr #32
    24b0:	7d070404 	cfstrsvc	mvf0, [r7, #-16]
    24b4:	04000001 	streq	r0, [r0], #-1
    24b8:	00700601 	rsbseq	r0, r0, r1, lsl #12
    24bc:	02040000 	andeq	r0, r4, #0, 0
    24c0:	0001bb05 	andeq	fp, r1, r5, lsl #22
    24c4:	05040400 	streq	r0, [r4, #-1024]	; 0xfffffc00
    24c8:	000001a6 	andeq	r0, r0, r6, lsr #3
    24cc:	a1050804 	tstge	r5, r4, lsl #16
    24d0:	04000001 	streq	r0, [r0], #-1
    24d4:	006e0801 	rsbeq	r0, lr, r1, lsl #16
    24d8:	02040000 	andeq	r0, r4, #0, 0
    24dc:	00008907 	andeq	r8, r0, r7, lsl #18
    24e0:	07040400 	streq	r0, [r4, -r0, lsl #8]
    24e4:	00000178 	andeq	r0, r0, r8, ror r1
    24e8:	73070804 	movwvc	r0, #30724	; 0x7804
    24ec:	05000001 	streq	r0, [r0, #-1]
    24f0:	00000025 	andeq	r0, r0, r5, lsr #32
    24f4:	0000007f 	andeq	r0, r0, pc, ror r0
    24f8:	00002506 	andeq	r2, r0, r6, lsl #10
    24fc:	af070000 	svcge	0x00070000
    2500:	02000001 	andeq	r0, r0, #1, 0
    2504:	008b0e1c 	addeq	r0, fp, ip, lsl lr
    2508:	04080000 	streq	r0, [r8], #-0
    250c:	00000070 	andeq	r0, r0, r0, ror r0
    2510:	00002505 	andeq	r2, r0, r5, lsl #10
    2514:	0000a000 	andeq	sl, r0, r0
    2518:	00a00600 	adceq	r0, r0, r0, lsl #12
    251c:	08000000 	stmdaeq	r0, {}	; <UNPREDICTABLE>
    2520:	0000ad04 	andeq	sl, r0, r4, lsl #26
    2524:	08010400 	stmdaeq	r1, {sl}
    2528:	00000077 	andeq	r0, r0, r7, ror r0
    252c:	0000a603 	andeq	sl, r0, r3, lsl #12
    2530:	078a0700 	streq	r0, [sl, r0, lsl #14]
    2534:	21020000 	mrscs	r0, (UNDEF: 2)
    2538:	0000be0e 	andeq	fp, r0, lr, lsl #28
    253c:	91040800 	tstls	r4, r0, lsl #16
    2540:	09000000 	stmdbeq	r0, {}	; <UNPREDICTABLE>
    2544:	00000981 	andeq	r0, r0, r1, lsl #19
    2548:	31110d01 	tstcc	r1, r1, lsl #26
    254c:	0a000000 	beq	2554 <__code_start__-0x5aac>
    2550:	000008a1 	andeq	r0, r0, r1, lsr #17
    2554:	3c061f01 	stccc	15, cr1, [r6], {1}
    2558:	5400008e 	strpl	r0, [r0], #-142	; 0xffffff72
    255c:	01000000 	mrseq	r0, (UNDEF: 0)
    2560:	0001ae9c 	muleq	r1, ip, lr
    2564:	09a50b00 	stmibeq	r5!, {r8, r9, fp}
    2568:	2c010000 	stccs	0, cr0, [r1], {-0}
    256c:	00002c0f 	andeq	r2, r0, pc, lsl #24
    2570:	00181400 	andseq	r1, r8, r0, lsl #8
    2574:	00181200 	andseq	r1, r8, r0, lsl #4
    2578:	09460b00 	stmdbeq	r6, {r8, r9, fp}^
    257c:	2d010000 	stccs	0, cr0, [r1, #-0]
    2580:	00002c0f 	andeq	r2, r0, pc, lsl #24
    2584:	00182e00 	andseq	r2, r8, r0, lsl #28
    2588:	00182c00 	andseq	r2, r8, r0, lsl #24
    258c:	09720b00 	ldmdbeq	r2!, {r8, r9, fp}^
    2590:	2e010000 	cdpcs	0, 0, cr0, cr1, cr0, {0}
    2594:	00002c0f 	andeq	r2, r0, pc, lsl #24
    2598:	00184800 	andseq	r4, r8, r0, lsl #16
    259c:	00184600 	andseq	r4, r8, r0, lsl #12
    25a0:	098c0b00 	stmibeq	ip, {r8, r9, fp}
    25a4:	2f010000 	svccs	0x00010000
    25a8:	00002c0f 	andeq	r2, r0, pc, lsl #24
    25ac:	00186100 	andseq	r6, r8, r0, lsl #2
    25b0:	00185f00 	andseq	r5, r8, r0, lsl #30
    25b4:	8e440c00 	cdphi	12, 4, cr0, cr4, cr0, {0}
    25b8:	01d90000 	bicseq	r0, r9, r0
    25bc:	500c0000 	andpl	r0, ip, r0
    25c0:	0800008e 	stmdaeq	r0, {r1, r2, r3, r7}
    25c4:	0c000002 	stceq	0, cr0, [r0], {2}
    25c8:	00008e54 	andeq	r8, r0, r4, asr lr
    25cc:	00000215 	andeq	r0, r0, r5, lsl r2
    25d0:	008e5c0d 	addeq	r5, lr, sp, lsl #24
    25d4:	00022100 	andeq	r2, r2, r0, lsl #2
    25d8:	00016400 	andeq	r6, r1, r0, lsl #8
    25dc:	50010e00 	andpl	r0, r1, r0, lsl #28
    25e0:	0d003a01 	vstreq	s6, [r0, #-4]
    25e4:	00008e68 	andeq	r8, r0, r8, ror #28
    25e8:	0000022d 	andeq	r0, r0, sp, lsr #4
    25ec:	00000184 	andeq	r0, r0, r4, lsl #3
    25f0:	0550010e 	ldrbeq	r0, [r0, #-270]	; 0xfffffef2
    25f4:	1000240c 	andne	r2, r0, ip, lsl #8
    25f8:	51010e20 	tstpl	r1, r0, lsr #28
    25fc:	00010c05 	andeq	r0, r1, r5, lsl #24
    2600:	0d005a00 	vstreq	s10, [r0, #-0]
    2604:	00008e74 	andeq	r8, r0, r4, ror lr
    2608:	0000022d 	andeq	r0, r0, sp, lsr #4
    260c:	000001a4 	andeq	r0, r0, r4, lsr #3
    2610:	0550010e 	ldrbeq	r0, [r0, #-270]	; 0xfffffef2
    2614:	10001c0c 	andne	r1, r0, ip, lsl #24
    2618:	51010e20 	tstpl	r1, r0, lsr #28
    261c:	00200c05 	eoreq	r0, r0, r5, lsl #24
    2620:	0c005a00 			; <UNDEFINED> instruction: 0x0c005a00
    2624:	00008e7c 	andeq	r8, r0, ip, ror lr
    2628:	000001ae 	andeq	r0, r0, lr, lsr #3
    262c:	094e0f00 	stmdbeq	lr, {r8, r9, sl, fp}^
    2630:	17010000 	strne	r0, [r1, -r0]
    2634:	008e2806 	addeq	r2, lr, r6, lsl #16
    2638:	00001400 	andeq	r1, r0, r0, lsl #8
    263c:	d99c0100 	ldmible	ip, {r8}
    2640:	0b000001 	bleq	264c <__code_start__-0x59b4>
    2644:	000009ad 	andeq	r0, r0, sp, lsr #19
    2648:	310e1801 	tstcc	lr, r1, lsl #16
    264c:	7c000000 	stcvc	0, cr0, [r0], {-0}
    2650:	76000018 			; <UNDEFINED> instruction: 0x76000018
    2654:	00000018 	andeq	r0, r0, r8, lsl r0
    2658:	00097e10 	andeq	r7, r9, r0, lsl lr
    265c:	050e0100 	streq	r0, [lr, #-256]	; 0xffffff00
    2660:	00000025 	andeq	r0, r0, r5, lsr #32
    2664:	00008e10 	andeq	r8, r0, r0, lsl lr
    2668:	00000018 	andeq	r0, r0, r8, lsl r0
    266c:	02089c01 	andeq	r9, r8, #256	; 0x100
    2670:	ad0b0000 	stcge	0, cr0, [fp, #-0]
    2674:	01000009 	tsteq	r0, r9
    2678:	00310e0f 	eorseq	r0, r1, pc, lsl #28
    267c:	18aa0000 	stmiane	sl!, {}	; <UNPREDICTABLE>
    2680:	18a60000 	stmiane	r6!, {}	; <UNPREDICTABLE>
    2684:	11000000 	mrsne	r0, (UNDEF: 0)
    2688:	00000937 	andeq	r0, r0, r7, lsr r9
    268c:	00000937 	andeq	r0, r0, r7, lsr r9
    2690:	06013b02 	streq	r3, [r1], -r2, lsl #22
    2694:	0008d012 	andeq	sp, r8, r2, lsl r0
    2698:	0008d000 	andeq	sp, r8, r0
    269c:	064d0200 	strbeq	r0, [sp], -r0, lsl #4
    26a0:	0008ac12 	andeq	sl, r8, r2, lsl ip
    26a4:	0008ac00 	andeq	sl, r8, r0, lsl #24
    26a8:	06580200 	ldrbeq	r0, [r8], -r0, lsl #4
    26ac:	0004c012 	andeq	ip, r4, r2, lsl r0
    26b0:	0004c000 	andeq	ip, r4, r0
    26b4:	06b20200 	ldrteq	r0, [r2], r0, lsl #4
    26b8:	00024d00 	andeq	r4, r2, r0, lsl #26
    26bc:	f5000400 			; <UNDEFINED> instruction: 0xf5000400
    26c0:	0400000c 	streq	r0, [r0], #-12
    26c4:	00063001 	andeq	r3, r6, r1
    26c8:	09bc0c00 	ldmibeq	ip!, {sl, fp}
    26cc:	06fa0000 	ldrbteq	r0, [sl], r0
    26d0:	8e900000 	cdphi	0, 9, cr0, cr0, cr0, {0}
    26d4:	00840000 	addeq	r0, r4, r0
    26d8:	1da50000 	stcne	0, cr0, [r5]
    26dc:	04020000 	streq	r0, [r2], #-0
    26e0:	746e6905 	strbtvc	r6, [lr], #-2309	; 0xfffff6fb
    26e4:	07040300 	streq	r0, [r4, -r0, lsl #6]
    26e8:	0000017d 	andeq	r0, r0, sp, ror r1
    26ec:	70060103 	andvc	r0, r6, r3, lsl #2
    26f0:	03000000 	movweq	r0, #0
    26f4:	01bb0502 			; <UNDEFINED> instruction: 0x01bb0502
    26f8:	04030000 	streq	r0, [r3], #-0
    26fc:	0001a605 	andeq	sl, r1, r5, lsl #12
    2700:	05080300 	streq	r0, [r8, #-768]	; 0xfffffd00
    2704:	000001a1 	andeq	r0, r0, r1, lsr #3
    2708:	6e080103 	adfvse	f0, f0, f3
    270c:	03000000 	movweq	r0, #0
    2710:	00890702 	addeq	r0, r9, r2, lsl #14
    2714:	04030000 	streq	r0, [r3], #-0
    2718:	00017807 	andeq	r7, r1, r7, lsl #16
    271c:	07080300 	streq	r0, [r8, -r0, lsl #6]
    2720:	00000173 	andeq	r0, r0, r3, ror r1
    2724:	00002504 	andeq	r2, r0, r4, lsl #10
    2728:	00007a00 	andeq	r7, r0, r0, lsl #20
    272c:	00250500 	eoreq	r0, r5, r0, lsl #10
    2730:	06000000 	streq	r0, [r0], -r0
    2734:	000001af 	andeq	r0, r0, pc, lsr #3
    2738:	860e1c02 	strhi	r1, [lr], -r2, lsl #24
    273c:	07000000 	streq	r0, [r0, -r0]
    2740:	00006b04 	andeq	r6, r0, r4, lsl #22
    2744:	00250400 	eoreq	r0, r5, r0, lsl #8
    2748:	009b0000 	addseq	r0, fp, r0
    274c:	9b050000 	blls	142754 <__bss_end__+0x13874c>
    2750:	00000000 	andeq	r0, r0, r0
    2754:	00a80407 	adceq	r0, r8, r7, lsl #8
    2758:	01030000 	mrseq	r0, (UNDEF: 3)
    275c:	00007708 	andeq	r7, r0, r8, lsl #14
    2760:	00a10800 	adceq	r0, r1, r0, lsl #16
    2764:	8a060000 	bhi	18276c <__bss_end__+0x178764>
    2768:	02000007 	andeq	r0, r0, #7, 0
    276c:	00b90e21 	adcseq	r0, r9, r1, lsr #28
    2770:	04070000 	streq	r0, [r7], #-0
    2774:	0000008c 	andeq	r0, r0, ip, lsl #1
    2778:	0009b209 	andeq	fp, r9, r9, lsl #4
    277c:	061e0100 	ldreq	r0, [lr], -r0, lsl #2
    2780:	00008efc 	strdeq	r8, [r0], -ip
    2784:	00000018 	andeq	r0, r0, r8, lsl r0
    2788:	01099c01 	tsteq	r9, r1, lsl #24
    278c:	730a0000 	movwvc	r0, #40960	; 0xa000
    2790:	01006365 	tsteq	r0, r5, ror #6
    2794:	002c191e 	eoreq	r1, ip, lr, lsl r9
    2798:	18cd0000 	stmiane	sp, {}^	; <UNPREDICTABLE>
    279c:	18c90000 	stmiane	r9, {}^	; <UNPREDICTABLE>
    27a0:	100b0000 	andne	r0, fp, r0
    27a4:	0900008f 	stmdbeq	r0, {r0, r1, r2, r3, r7}
    27a8:	0c000001 	stceq	0, cr0, [r0], {1}
    27ac:	f3115001 	vhadd.u16	d5, d1, d1
    27b0:	24355001 	ldrtcs	r5, [r5], #-1
    27b4:	1c5001f3 	ldfnee	f0, [r0], {243}	; 0xf3
    27b8:	01f32432 	mvnseq	r2, r2, lsr r4
    27bc:	24332250 	ldrtcs	r2, [r3], #-592	; 0xfffffdb0
    27c0:	ac090000 	stcge	0, cr0, [r9], {-0}
    27c4:	01000008 	tsteq	r0, r8
    27c8:	8ee4061b 	mcrhi	6, 7, r0, cr4, cr11, {0}
    27cc:	00180000 	andseq	r0, r8, r0
    27d0:	9c010000 	stcls	0, cr0, [r1], {-0}
    27d4:	00000152 	andeq	r0, r0, r2, asr r1
    27d8:	00736d0a 	rsbseq	r6, r3, sl, lsl #26
    27dc:	2c181b01 			; <UNDEFINED> instruction: 0x2c181b01
    27e0:	f2000000 	vhadd.s8	d0, d0, d0
    27e4:	ee000018 	mcr	0, 0, r0, cr0, cr8, {0}
    27e8:	0b000018 	bleq	2850 <__code_start__-0x57b0>
    27ec:	00008ef8 	strdeq	r8, [r0], -r8	; <UNPREDICTABLE>
    27f0:	00000152 	andeq	r0, r0, r2, asr r1
    27f4:	1150010c 	cmpne	r0, ip, lsl #2
    27f8:	355001f3 	ldrbcc	r0, [r0, #-499]	; 0xfffffe0d
    27fc:	5001f324 	andpl	pc, r1, r4, lsr #6
    2800:	f324321c 	vqsub.u32	d3, d4, d12
    2804:	33225001 			; <UNDEFINED> instruction: 0x33225001
    2808:	09000024 	stmdbeq	r0, {r2, r5}
    280c:	000009d0 	ldrdeq	r0, [r0], -r0	; <UNPREDICTABLE>
    2810:	c0061201 	andgt	r1, r6, r1, lsl #4
    2814:	2400008e 	strcs	r0, [r0], #-142	; 0xffffff72
    2818:	01000000 	mrseq	r0, (UNDEF: 0)
    281c:	0001c29c 	muleq	r1, ip, r2
    2820:	73750a00 	cmnvc	r5, #0, 20
    2824:	18120100 	ldmdane	r2, {r8}
    2828:	0000002c 	andeq	r0, r0, ip, lsr #32
    282c:	00001917 	andeq	r1, r0, r7, lsl r9
    2830:	00001913 	andeq	r1, r0, r3, lsl r9
    2834:	0062720d 	rsbeq	r7, r2, sp, lsl #4
    2838:	2c0e1301 	stccs	3, cr1, [lr], {1}
    283c:	37000000 	strcc	r0, [r0, -r0]
    2840:	35000019 	strcc	r0, [r0, #-25]	; 0xffffffe7
    2844:	0e000019 	mcreq	0, 0, r0, cr0, cr9, {0}
    2848:	00008ed0 	ldrdeq	r8, [r0], -r0
    284c:	00000014 	andeq	r0, r0, r4, lsl r0
    2850:	000001b8 			; <UNDEFINED> instruction: 0x000001b8
    2854:	0061720d 	rsbeq	r7, r1, sp, lsl #4
    2858:	2c121501 	cfldr32cs	mvfx1, [r2], {1}
    285c:	4c000000 	stcmi	0, cr0, [r0], {-0}
    2860:	4a000019 	bmi	28cc <__code_start__-0x5734>
    2864:	0f000019 	svceq	0x00000019
    2868:	00008ed4 	ldrdeq	r8, [r0], -r4
    286c:	000001c2 	andeq	r0, r0, r2, asr #3
    2870:	8ecc0f00 	cdphi	15, 12, cr0, cr12, cr0, {0}
    2874:	01c20000 	biceq	r0, r2, r0
    2878:	10000000 	andne	r0, r0, r0
    287c:	0000009c 	muleq	r0, ip, r0
    2880:	2c0a0901 			; <UNDEFINED> instruction: 0x2c0a0901
    2884:	a4000000 	strge	r0, [r0], #-0
    2888:	1c00008e 	stcne	0, cr0, [r0], {142}	; 0x8e
    288c:	01000000 	mrseq	r0, (UNDEF: 0)
    2890:	00020a9c 	muleq	r2, ip, sl
    2894:	00750d00 	rsbseq	r0, r5, r0, lsl #26
    2898:	2c0e0d01 	stccs	13, cr0, [lr], {1}
    289c:	63000000 	movwvs	r0, #0
    28a0:	5f000019 	svcpl	0x00000019
    28a4:	0f000019 	svceq	0x00000019
    28a8:	00008eac 	andeq	r8, r0, ip, lsr #29
    28ac:	00000238 	andeq	r0, r0, r8, lsr r2
    28b0:	008eb00f 	addeq	fp, lr, pc
    28b4:	00020a00 	andeq	r0, r2, r0, lsl #20
    28b8:	8eb80f00 	cdphi	15, 11, cr0, cr8, cr0, {0}
    28bc:	02380000 	eorseq	r0, r8, #0, 0
    28c0:	10000000 	andne	r0, r0, r0
    28c4:	000009d9 	ldrdeq	r0, [r0], -r9
    28c8:	2c0a0401 	cfstrscs	mvf0, [sl], {1}
    28cc:	90000000 	andls	r0, r0, r0
    28d0:	1400008e 	strne	r0, [r0], #-142	; 0xffffff72
    28d4:	01000000 	mrseq	r0, (UNDEF: 0)
    28d8:	0002389c 	muleq	r2, ip, r8
    28dc:	8e9c0b00 	vfnmshi.f64	d0, d12, d0
    28e0:	02440000 	subeq	r0, r4, #0, 0
    28e4:	010c0000 	mrseq	r0, (UNDEF: 12)
    28e8:	040c0550 	streq	r0, [ip], #-1360	; 0xfffffab0
    28ec:	00200030 	eoreq	r0, r0, r0, lsr r0
    28f0:	045c1100 	ldrbeq	r1, [ip], #-256	; 0xffffff00
    28f4:	045c0000 	ldrbeq	r0, [ip], #-0
    28f8:	a1020000 	mrsge	r0, (UNDEF: 2)
    28fc:	03611106 	cmneq	r1, #-2147483647	; 0x80000001
    2900:	03610000 	cmneq	r1, #0, 0
    2904:	c7020000 	strgt	r0, [r2, -r0]
    2908:	03a5000a 			; <UNDEFINED> instruction: 0x03a5000a
    290c:	00040000 	andeq	r0, r4, r0
    2910:	00000df6 	strdeq	r0, [r0], -r6
    2914:	0a910104 	beq	fe442d2c <__bss_end__+0xfe438d24>
    2918:	330c0000 	movwcc	r0, #49152	; 0xc000
    291c:	2e00000b 	cdpcs	0, 0, cr0, cr0, cr11, {0}
    2920:	1400000a 	strne	r0, [r0], #-10
    2924:	1c00008f 	stcne	0, cr0, [r0], {143}	; 0x8f
    2928:	a5000001 	strge	r0, [r0, #-1]
    292c:	0200001e 	andeq	r0, r0, #30, 0
    2930:	6e690504 	cdpvs	5, 6, cr0, cr9, cr4, {0}
    2934:	04030074 	streq	r0, [r3], #-116	; 0xffffff8c
    2938:	00017d07 	andeq	r7, r1, r7, lsl #26
    293c:	002c0400 	eoreq	r0, ip, r0, lsl #8
    2940:	01030000 	mrseq	r0, (UNDEF: 3)
    2944:	00007006 	andeq	r7, r0, r6
    2948:	05020300 	streq	r0, [r2, #-768]	; 0xfffffd00
    294c:	000001bb 			; <UNDEFINED> instruction: 0x000001bb
    2950:	a6050403 	strge	r0, [r5], -r3, lsl #8
    2954:	03000001 	movweq	r0, #1
    2958:	01a10508 			; <UNDEFINED> instruction: 0x01a10508
    295c:	01030000 	mrseq	r0, (UNDEF: 3)
    2960:	00006e08 	andeq	r6, r0, r8, lsl #28
    2964:	07020300 	streq	r0, [r2, -r0, lsl #6]
    2968:	00000089 	andeq	r0, r0, r9, lsl #1
    296c:	0001c505 	andeq	ip, r1, r5, lsl #10
    2970:	19340300 	ldmdbne	r4!, {r8, r9}
    2974:	0000006e 	andeq	r0, r0, lr, rrx
    2978:	78070403 	stmdavc	r7, {r0, r1, sl}
    297c:	03000001 	movweq	r0, #1
    2980:	01730708 	cmneq	r3, r8, lsl #14
    2984:	01030000 	mrseq	r0, (UNDEF: 3)
    2988:	00007708 	andeq	r7, r0, r8, lsl #14
    298c:	01070600 	tsteq	r7, r0, lsl #12
    2990:	00000054 	andeq	r0, r0, r4, asr r0
    2994:	c20e0c04 	andgt	r0, lr, #4, 24	; 0x400
    2998:	07000000 	streq	r0, [r0, -r0]
    299c:	0000039e 	muleq	r0, lr, r3
    29a0:	02460700 	subeq	r0, r6, #0, 14
    29a4:	07010000 	streq	r0, [r1, -r0]
    29a8:	00000371 	andeq	r0, r0, r1, ror r3
    29ac:	028f0704 	addeq	r0, pc, #4, 14	; 0x100000
    29b0:	07050000 	streq	r0, [r5, -r0]
    29b4:	0000029e 	muleq	r0, lr, r2
    29b8:	02ad0706 	adceq	r0, sp, #1572864	; 0x180000
    29bc:	07070000 	streq	r0, [r7, -r0]
    29c0:	000002bc 			; <UNDEFINED> instruction: 0x000002bc
    29c4:	02cb0703 	sbceq	r0, fp, #786432	; 0xc0000
    29c8:	00020000 	andeq	r0, r2, r0
    29cc:	000a8505 	andeq	r8, sl, r5, lsl #10
    29d0:	03150400 	tsteq	r5, #0, 8
    29d4:	00000083 	andeq	r0, r0, r3, lsl #1
    29d8:	0009f608 	andeq	pc, r9, r8, lsl #12
    29dc:	171d0100 	ldrne	r0, [sp, -r0, lsl #2]
    29e0:	00000033 	andeq	r0, r0, r3, lsr r0
    29e4:	2020001c 	eorcs	r0, r0, ip, lsl r0
    29e8:	0009ec08 	andeq	lr, r9, r8, lsl #24
    29ec:	171e0100 	ldrne	r0, [lr, -r0, lsl #2]
    29f0:	00000033 	andeq	r0, r0, r3, lsr r0
    29f4:	20200028 	eorcs	r0, r0, r8, lsr #32
    29f8:	000b2408 	andeq	r2, fp, r8, lsl #8
    29fc:	171f0100 	ldrne	r0, [pc, -r0, lsl #2]
    2a00:	00000033 	andeq	r0, r0, r3, lsr r0
    2a04:	20200034 	eorcs	r0, r0, r4, lsr r0
    2a08:	000a1509 	andeq	r1, sl, r9, lsl #10
    2a0c:	05550100 	ldrbeq	r0, [r5, #-256]	; 0xffffff00
    2a10:	00000025 	andeq	r0, r0, r5, lsr #32
    2a14:	00008ffc 	strdeq	r8, [r0], -ip
    2a18:	00000034 	andeq	r0, r0, r4, lsr r0
    2a1c:	016e9c01 	cmneq	lr, r1, lsl #24
    2a20:	700a0000 	andvc	r0, sl, r0
    2a24:	01006e69 	tsteq	r0, r9, ror #28
    2a28:	002c1855 	eoreq	r1, ip, r5, asr r8
    2a2c:	19890000 	stmibne	r9, {}	; <UNPREDICTABLE>
    2a30:	19810000 	stmibne	r1, {}	; <UNPREDICTABLE>
    2a34:	2e0b0000 	cdpcs	0, 0, cr0, cr11, cr0, {0}
    2a38:	0100000b 	tsteq	r0, fp
    2a3c:	002c0e58 	eoreq	r0, ip, r8, asr lr
    2a40:	19c90000 	stmibne	r9, {}^	; <UNPREDICTABLE>
    2a44:	19c30000 	stmibne	r3, {}^	; <UNPREDICTABLE>
    2a48:	6f0c0000 	svcvs	0x000c0000
    2a4c:	01006666 	tsteq	r0, r6, ror #12
    2a50:	002c0e59 	eoreq	r0, ip, r9, asr lr
    2a54:	1a090000 	bne	242a5c <__bss_end__+0x238a54>
    2a58:	1a070000 	bne	1c2a60 <__bss_end__+0x1b8a58>
    2a5c:	180d0000 	stmdane	sp, {}	; <UNPREDICTABLE>
    2a60:	90000090 	mulls	r0, r0, r0
    2a64:	0e000003 	cdpeq	0, 0, cr0, cr0, cr3, {0}
    2a68:	f30b5001 	vhadd.u8	d5, d11, d1
    2a6c:	25355001 	ldrcs	r5, [r5, #-1]!
    2a70:	8080b423 	addhi	fp, r0, r3, lsr #8
    2a74:	00000281 	andeq	r0, r0, r1, lsl #5
    2a78:	000a000f 	andeq	r0, sl, pc
    2a7c:	064e0100 	strbeq	r0, [lr], -r0, lsl #2
    2a80:	00008fe0 	andeq	r8, r0, r0, ror #31
    2a84:	0000001c 	andeq	r0, r0, ip, lsl r0
    2a88:	01c99c01 	biceq	r9, r9, r1, lsl #24
    2a8c:	700a0000 	andvc	r0, sl, r0
    2a90:	01006e69 	tsteq	r0, r9, ror #28
    2a94:	002c1a4e 	eoreq	r1, ip, lr, asr #20
    2a98:	1a240000 	bne	902aa0 <__bss_end__+0x8f8a98>
    2a9c:	1a1c0000 	bne	702aa4 <__bss_end__+0x6f8a9c>
    2aa0:	760a0000 	strvc	r0, [sl], -r0
    2aa4:	284e0100 	stmdacs	lr, {r8}^
    2aa8:	0000002c 	andeq	r0, r0, ip, lsr #32
    2aac:	00001a66 	andeq	r1, r0, r6, ror #20
    2ab0:	00001a5e 	andeq	r1, r0, lr, asr sl
    2ab4:	008ff010 	addeq	pc, pc, r0, lsl r0	; <UNPREDICTABLE>
    2ab8:	00025100 	andeq	r5, r2, r0, lsl #2
    2abc:	0001bf00 	andeq	fp, r1, r0, lsl #30
    2ac0:	50010e00 	andpl	r0, r1, r0, lsl #28
    2ac4:	5001f303 	andpl	pc, r1, r3, lsl #6
    2ac8:	8ff81100 	svchi	0x00f81100
    2acc:	020a0000 	andeq	r0, sl, #0, 0
    2ad0:	0f000000 	svceq	0x00000000
    2ad4:	00000a1f 	andeq	r0, r0, pc, lsl sl
    2ad8:	d0064901 	andle	r4, r6, r1, lsl #18
    2adc:	1000008f 	andne	r0, r0, pc, lsl #1
    2ae0:	01000000 	mrseq	r0, (UNDEF: 0)
    2ae4:	00020a9c 	muleq	r2, ip, sl
    2ae8:	69700a00 	ldmdbvs	r0!, {r9, fp}^
    2aec:	4901006e 	stmdbmi	r1, {r1, r2, r3, r5, r6}
    2af0:	00002c1e 	andeq	r2, r0, lr, lsl ip
    2af4:	001aa400 	andseq	sl, sl, r0, lsl #8
    2af8:	001aa000 	andseq	sl, sl, r0
    2afc:	8fdc0d00 	svchi	0x00dc0d00
    2b00:	02d90000 	sbcseq	r0, r9, #0, 0
    2b04:	010e0000 	mrseq	r0, (UNDEF: 14)
    2b08:	01f30350 	mvnseq	r0, r0, asr r3
    2b0c:	51010e50 	tstpl	r1, r0, asr lr
    2b10:	00003001 	andeq	r3, r0, r1
    2b14:	000a630f 	andeq	r6, sl, pc, lsl #6
    2b18:	06420100 	strbeq	r0, [r2], -r0, lsl #2
    2b1c:	00008fac 	andeq	r8, r0, ip, lsr #31
    2b20:	00000024 	andeq	r0, r0, r4, lsr #32
    2b24:	02519c01 	subseq	r9, r1, #256	; 0x100
    2b28:	700a0000 	andvc	r0, sl, r0
    2b2c:	01006e69 	tsteq	r0, r9, ror #28
    2b30:	002c1c42 	eoreq	r1, ip, r2, asr #24
    2b34:	1ac90000 	bne	ff242b3c <__bss_end__+0xff238b34>
    2b38:	1ac50000 	bne	ff142b40 <__bss_end__+0xff138b38>
    2b3c:	c80d0000 	stmdagt	sp, {}	; <UNPREDICTABLE>
    2b40:	9c00008f 	stcls	0, cr0, [r0], {143}	; 0x8f
    2b44:	0e000003 	cdpeq	0, 0, cr0, cr0, cr3, {0}
    2b48:	0c055001 	stceq	0, cr5, [r5], {1}
    2b4c:	20200028 	eorcs	r0, r0, r8, lsr #32
    2b50:	0551010e 	ldrbeq	r0, [r1, #-270]	; 0xfffffef2
    2b54:	5001f331 	andpl	pc, r1, r1, lsr r3	; <UNPREDICTABLE>
    2b58:	0f000024 	svceq	0x00000024
    2b5c:	000004e9 	andeq	r0, r0, r9, ror #9
    2b60:	88063b01 	stmdahi	r6, {r0, r8, r9, fp, ip, sp}
    2b64:	2400008f 	strcs	r0, [r0], #-143	; 0xffffff71
    2b68:	01000000 	mrseq	r0, (UNDEF: 0)
    2b6c:	0002989c 	muleq	r2, ip, r8
    2b70:	69700a00 	ldmdbvs	r0!, {r9, fp}^
    2b74:	3b01006e 	blcc	42d34 <__bss_end__+0x38d2c>
    2b78:	00002c1b 	andeq	r2, r0, fp, lsl ip
    2b7c:	001aee00 	andseq	lr, sl, r0, lsl #28
    2b80:	001aea00 	andseq	lr, sl, r0, lsl #20
    2b84:	8fa40d00 	svchi	0x00a40d00
    2b88:	039c0000 	orrseq	r0, ip, #0, 0
    2b8c:	010e0000 	mrseq	r0, (UNDEF: 14)
    2b90:	1c0c0550 	cfstr32ne	mvfx0, [ip], {80}	; 0x50
    2b94:	0e202000 	cdpeq	0, 2, cr2, cr0, cr0, {0}
    2b98:	31055101 	tstcc	r5, r1, lsl #2
    2b9c:	245001f3 	ldrbcs	r0, [r0], #-499	; 0xfffffe0d
    2ba0:	700f0000 	andvc	r0, pc, r0
    2ba4:	0100000a 	tsteq	r0, sl
    2ba8:	8f780636 	svchi	0x00780636
    2bac:	00100000 	andseq	r0, r0, r0
    2bb0:	9c010000 	stcls	0, cr0, [r1], {-0}
    2bb4:	000002d9 	ldrdeq	r0, [r0], -r9
    2bb8:	6e69700a 	cdpvs	0, 6, cr7, cr9, cr10, {0}
    2bbc:	1f360100 	svcne	0x00360100
    2bc0:	0000002c 	andeq	r0, r0, ip, lsr #32
    2bc4:	00001b13 	andeq	r1, r0, r3, lsl fp
    2bc8:	00001b0f 	andeq	r1, r0, pc, lsl #22
    2bcc:	008f840d 	addeq	r8, pc, sp, lsl #8
    2bd0:	0002d900 	andeq	sp, r2, r0, lsl #18
    2bd4:	50010e00 	andpl	r0, r1, r0, lsl #28
    2bd8:	5001f303 	andpl	pc, r1, r3, lsl #6
    2bdc:	0151010e 	cmpeq	r1, lr, lsl #2
    2be0:	0f000031 	svceq	0x00000031
    2be4:	000004a3 	andeq	r0, r0, r3, lsr #9
    2be8:	14062801 	strne	r2, [r6], #-2049	; 0xfffff7ff
    2bec:	6400008f 	strvs	r0, [r0], #-143	; 0xffffff71
    2bf0:	01000000 	mrseq	r0, (UNDEF: 0)
    2bf4:	0003749c 	muleq	r3, ip, r4
    2bf8:	69700a00 	ldmdbvs	r0!, {r9, fp}^
    2bfc:	2801006e 	stmdacs	r1, {r1, r2, r3, r5, r6}
    2c00:	00002c21 	andeq	r2, r0, r1, lsr #24
    2c04:	001b3800 	andseq	r3, fp, r0, lsl #16
    2c08:	001b3400 	andseq	r3, fp, r0, lsl #8
    2c0c:	0a801200 	beq	fe007414 <__bss_end__+0xfdffd40c>
    2c10:	28010000 	stmdacs	r1, {}	; <UNPREDICTABLE>
    2c14:	0000c232 	andeq	ip, r0, r2, lsr r2
    2c18:	001b5d00 	andseq	r5, fp, r0, lsl #26
    2c1c:	001b5900 	andseq	r5, fp, r0, lsl #18
    2c20:	666f0c00 	strbtvs	r0, [pc], -r0, lsl #24
    2c24:	2d010066 	stccs	0, cr0, [r1, #-408]	; 0xfffffe68
    2c28:	00002c0e 	andeq	r2, r0, lr, lsl #24
    2c2c:	001b8000 	andseq	r8, fp, r0
    2c30:	001b7e00 	andseq	r7, fp, r0, lsl #28
    2c34:	00670c00 	rsbeq	r0, r7, r0, lsl #24
    2c38:	2c0e2e01 	stccs	14, cr2, [lr], {1}
    2c3c:	95000000 	strls	r0, [r0, #-0]
    2c40:	9300001b 	movwls	r0, #27
    2c44:	0c00001b 	stceq	0, cr0, [r0], {27}
    2c48:	30010076 	andcc	r0, r1, r6, ror r0
    2c4c:	00002c0e 	andeq	r2, r0, lr, lsl #24
    2c50:	001bb000 	andseq	fp, fp, r0
    2c54:	001ba800 	andseq	sl, fp, r0, lsl #16
    2c58:	8f5c1000 	svchi	0x005c1000
    2c5c:	03900000 	orrseq	r0, r0, #0, 0
    2c60:	03630000 	cmneq	r3, #0, 0
    2c64:	010e0000 	mrseq	r0, (UNDEF: 14)
    2c68:	00760250 	rsbseq	r0, r6, r0, asr r2
    2c6c:	8f700d00 	svchi	0x00700d00
    2c70:	039c0000 	orrseq	r0, ip, #0, 0
    2c74:	010e0000 	mrseq	r0, (UNDEF: 14)
    2c78:	00760250 	rsbseq	r0, r6, r0, asr r2
    2c7c:	0b130000 	bleq	4c2c84 <__bss_end__+0x4b8c7c>
    2c80:	0200000a 	andeq	r0, r0, #10, 0
    2c84:	006218b6 	strhteq	r1, [r2], #-134	; 0xffffff7a
    2c88:	90030000 	andls	r0, r3, r0
    2c8c:	14000003 	strne	r0, [r0], #-3
    2c90:	b6020078 			; <UNDEFINED> instruction: 0xb6020078
    2c94:	0000622b 	andeq	r6, r0, fp, lsr #4
    2c98:	61150000 	tstvs	r5, r0
    2c9c:	61000003 	tstvs	r0, r3
    2ca0:	02000003 	andeq	r0, r0, #3, 0
    2ca4:	c0150ac7 	andsgt	r0, r5, r7, asr #21
    2ca8:	c0000004 	andgt	r0, r0, r4
    2cac:	02000004 	andeq	r0, r0, #4, 0
    2cb0:	cd0006b2 	stcgt	6, cr0, [r0, #-712]	; 0xfffffd38
    2cb4:	04000005 	streq	r0, [r0], #-5
    2cb8:	000f5300 	andeq	r5, pc, r0, lsl #6
    2cbc:	91010400 	tstls	r1, r0, lsl #8
    2cc0:	0c00000a 	stceq	0, cr0, [r0], {10}
    2cc4:	00000b68 	andeq	r0, r0, r8, ror #22
    2cc8:	00000a2e 	andeq	r0, r0, lr, lsr #20
    2ccc:	00009030 	andeq	r9, r0, r0, lsr r0
    2cd0:	000001f0 	strdeq	r0, [r0], -r0	; <UNPREDICTABLE>
    2cd4:	00002064 	andeq	r2, r0, r4, rrx
    2cd8:	69050402 	stmdbvs	r5, {r1, sl}
    2cdc:	0300746e 	movweq	r7, #1134	; 0x46e
    2ce0:	017d0704 	cmneq	sp, r4, lsl #14
    2ce4:	2c040000 	stccs	0, cr0, [r4], {-0}
    2ce8:	03000000 	movweq	r0, #0
    2cec:	00700601 	rsbseq	r0, r0, r1, lsl #12
    2cf0:	02030000 	andeq	r0, r3, #0, 0
    2cf4:	0001bb05 	andeq	fp, r1, r5, lsl #22
    2cf8:	05040300 	streq	r0, [r4, #-768]	; 0xfffffd00
    2cfc:	000001a6 	andeq	r0, r0, r6, lsr #3
    2d00:	a1050803 	tstge	r5, r3, lsl #16
    2d04:	03000001 	movweq	r0, #1
    2d08:	006e0801 	rsbeq	r0, lr, r1, lsl #16
    2d0c:	02030000 	andeq	r0, r3, #0, 0
    2d10:	00008907 	andeq	r8, r0, r7, lsl #18
    2d14:	01c50500 	biceq	r0, r5, r0, lsl #10
    2d18:	34050000 	strcc	r0, [r5], #-0
    2d1c:	00006e19 	andeq	r6, r0, r9, lsl lr
    2d20:	07040300 	streq	r0, [r4, -r0, lsl #6]
    2d24:	00000178 	andeq	r0, r0, r8, ror r1
    2d28:	73070803 	movwvc	r0, #30723	; 0x7803
    2d2c:	03000001 	movweq	r0, #1
    2d30:	00770801 	rsbseq	r0, r7, r1, lsl #16
    2d34:	07060000 	streq	r0, [r6, -r0]
    2d38:	00005401 	andeq	r5, r0, r1, lsl #8
    2d3c:	0e0c0400 	cfcpyseq	mvf0, mvf12
    2d40:	000000c2 	andeq	r0, r0, r2, asr #1
    2d44:	00039e07 	andeq	r9, r3, r7, lsl #28
    2d48:	46070000 	strmi	r0, [r7], -r0
    2d4c:	01000002 	tsteq	r0, r2
    2d50:	00037107 	andeq	r7, r3, r7, lsl #2
    2d54:	8f070400 	svchi	0x00070400
    2d58:	05000002 	streq	r0, [r0, #-2]
    2d5c:	00029e07 	andeq	r9, r2, r7, lsl #28
    2d60:	ad070600 	stcge	6, cr0, [r7, #-0]
    2d64:	07000002 	streq	r0, [r0, -r2]
    2d68:	0002bc07 	andeq	fp, r2, r7, lsl #24
    2d6c:	cb070300 	blgt	1c3974 <__bss_end__+0x1b996c>
    2d70:	02000002 	andeq	r0, r0, #2, 0
    2d74:	0b5c0800 	bleq	1704d7c <__bss_end__+0x16fad74>
    2d78:	022c0000 	eoreq	r0, ip, #0, 0
    2d7c:	015e0806 	cmpeq	lr, r6, lsl #16
    2d80:	69090000 	stmdbvs	r9, {}	; <UNPREDICTABLE>
    2d84:	0902006f 	stmdbeq	r2, {r0, r1, r2, r3, r5, r6}
    2d88:	00003309 	andeq	r3, r0, r9, lsl #6
    2d8c:	69090000 	stmdbvs	r9, {}	; <UNPREDICTABLE>
    2d90:	02007265 	andeq	r7, r0, #1342177286	; 0x50000006
    2d94:	0033090a 	eorseq	r0, r3, sl, lsl #18
    2d98:	09040000 	stmdbeq	r4, {}	; <UNPREDICTABLE>
    2d9c:	00726969 	rsbseq	r6, r2, r9, ror #18
    2da0:	33091102 	movwcc	r1, #37122	; 0x9102
    2da4:	08000000 	stmdaeq	r0, {}	; <UNPREDICTABLE>
    2da8:	72636c09 	rsbvc	r6, r3, #2304	; 0x900
    2dac:	09130200 	ldmdbeq	r3, {r9}
    2db0:	00000033 	andeq	r0, r0, r3, lsr r0
    2db4:	636d090c 	cmnvs	sp, #12, 18	; 0x30000
    2db8:	14020072 	strne	r0, [r2], #-114	; 0xffffff8e
    2dbc:	00003309 	andeq	r3, r0, r9, lsl #6
    2dc0:	6c091000 	stcvs	0, cr1, [r9], {-0}
    2dc4:	02007273 	andeq	r7, r0, #805306375	; 0x30000007
    2dc8:	00330915 	eorseq	r0, r3, r5, lsl r9
    2dcc:	09140000 	ldmdbeq	r4, {}	; <UNPREDICTABLE>
    2dd0:	0072736d 	rsbseq	r7, r2, sp, ror #6
    2dd4:	33091602 	movwcc	r1, #38402	; 0x9602
    2dd8:	18000000 	stmdane	r0, {}	; <UNPREDICTABLE>
    2ddc:	000bd60a 	andeq	sp, fp, sl, lsl #12
    2de0:	09170200 	ldmdbeq	r7, {r9}
    2de4:	00000033 	andeq	r0, r0, r3, lsr r0
    2de8:	0bae0a1c 	bleq	feb85660 <__bss_end__+0xfeb7b658>
    2dec:	1b020000 	blne	82df4 <__bss_end__+0x78dec>
    2df0:	00003309 	andeq	r3, r0, r9, lsl #6
    2df4:	490a2000 	stmdbmi	sl, {sp}
    2df8:	0200000b 	andeq	r0, r0, #11, 0
    2dfc:	0033091d 	eorseq	r0, r3, sp, lsl r9
    2e00:	0a240000 	beq	902e08 <__bss_end__+0x8f8e00>
    2e04:	00000b93 	muleq	r0, r3, fp
    2e08:	33091e02 	movwcc	r1, #40450	; 0x9e02
    2e0c:	28000000 	stmdacs	r0, {}	; <UNPREDICTABLE>
    2e10:	0b980b00 	bleq	fe605a18 <__bss_end__+0xfe5fba10>
    2e14:	08010000 	stmdaeq	r1, {}	; <UNPREDICTABLE>
    2e18:	00017409 	andeq	r7, r1, r9, lsl #8
    2e1c:	21500400 	cmpcs	r0, r0, lsl #8
    2e20:	33040c20 	movwcc	r0, #19488	; 0x4c20
    2e24:	0d000000 	stceq	0, cr0, [r0, #-0]
    2e28:	0000016e 	andeq	r0, r0, lr, ror #2
    2e2c:	000bde0b 	andeq	sp, fp, fp, lsl #28
    2e30:	23290100 			; <UNDEFINED> instruction: 0x23290100
    2e34:	0000018f 	andeq	r0, r0, pc, lsl #3
    2e38:	20215040 	eorcs	r5, r1, r0, asr #32
    2e3c:	00c2040c 	sbceq	r0, r2, ip, lsl #8
    2e40:	890d0000 	stmdbhi	sp, {}	; <UNPREDICTABLE>
    2e44:	0e000001 	cdpeq	0, 0, cr0, cr0, cr1, {0}
    2e48:	000008d0 	ldrdeq	r0, [r0], -r0	; <UNPREDICTABLE>
    2e4c:	e806cc01 	stmda	r6, {r0, sl, fp, lr, pc}
    2e50:	14000091 	strne	r0, [r0], #-145	; 0xffffff6f
    2e54:	01000000 	mrseq	r0, (UNDEF: 0)
    2e58:	0001b49c 	muleq	r1, ip, r4
    2e5c:	91f00f00 	mvnsls	r0, r0, lsl #30
    2e60:	01b40000 			; <UNDEFINED> instruction: 0x01b40000
    2e64:	10000000 	andne	r0, r0, r0
    2e68:	00000b82 	andeq	r0, r0, r2, lsl #23
    2e6c:	2505b601 	strcs	fp, [r5, #-1537]	; 0xfffff9ff
    2e70:	c8000000 	stmdagt	r0, {}	; <UNPREDICTABLE>
    2e74:	20000091 	mulcs	r0, r1, r0
    2e78:	01000000 	mrseq	r0, (UNDEF: 0)
    2e7c:	0001eb9c 	muleq	r1, ip, fp
    2e80:	91d00f00 	bicsls	r0, r0, r0, lsl #30
    2e84:	05a00000 	streq	r0, [r0, #0]!
    2e88:	d8110000 	ldmdale	r1, {}	; <UNPREDICTABLE>
    2e8c:	ac000091 	stcge	0, cr0, [r0], {145}	; 0x91
    2e90:	12000005 	andne	r0, r0, #5, 0
    2e94:	0c055001 	stceq	0, cr5, [r5], {1}
    2e98:	20215064 	eorcs	r5, r1, r4, rrx
    2e9c:	c0100000 	andsgt	r0, r0, r0
    2ea0:	0100000b 	tsteq	r0, fp
    2ea4:	002505b3 	strhteq	r0, [r5], -r3
    2ea8:	91b80000 			; <UNDEFINED> instruction: 0x91b80000
    2eac:	00100000 	andseq	r0, r0, r0
    2eb0:	9c010000 	stcls	0, cr0, [r1], {-0}
    2eb4:	00000218 	andeq	r0, r0, r8, lsl r2
    2eb8:	0091c00f 	addseq	ip, r1, pc
    2ebc:	0005a000 	andeq	sl, r5, r0
    2ec0:	91c40f00 	bicls	r0, r4, r0, lsl #30
    2ec4:	03090000 	movweq	r0, #36864	; 0x9000
    2ec8:	0e000000 	cdpeq	0, 0, cr0, cr0, cr0, {0}
    2ecc:	00000bec 	andeq	r0, r0, ip, ror #23
    2ed0:	8806ab01 	stmdahi	r6, {r0, r8, r9, fp, sp, pc}
    2ed4:	30000091 	mulcc	r0, r1, r0
    2ed8:	01000000 	mrseq	r0, (UNDEF: 0)
    2edc:	00027c9c 	muleq	r2, ip, ip
    2ee0:	00631300 	rsbeq	r1, r3, r0, lsl #6
    2ee4:	2c19ab01 			; <UNDEFINED> instruction: 0x2c19ab01
    2ee8:	f0000000 			; <UNDEFINED> instruction: 0xf0000000
    2eec:	ec00001b 	stc	0, cr0, [r0], {27}
    2ef0:	0f00001b 	svceq	0x0000001b
    2ef4:	00009194 	muleq	r0, r4, r1
    2ef8:	000005a0 	andeq	r0, r0, r0, lsr #11
    2efc:	0091980f 	addseq	r9, r1, pc, lsl #16
    2f00:	0002db00 	andeq	sp, r2, r0, lsl #22
    2f04:	91ac1400 			; <UNDEFINED> instruction: 0x91ac1400
    2f08:	05b80000 	ldreq	r0, [r8, #0]!
    2f0c:	02720000 	rsbseq	r0, r2, #0, 0
    2f10:	01120000 	tsteq	r2, r0
    2f14:	400c0550 	andmi	r0, ip, r0, asr r5
    2f18:	12202150 	eorne	r2, r0, #20
    2f1c:	74055101 	strvc	r5, [r5], #-257	; 0xfffffeff
    2f20:	1aff0800 	bne	fffc4f28 <__bss_end__+0xfffbaf20>
    2f24:	91b00f00 	lslsls	r0, r0, #30
    2f28:	05a00000 	streq	r0, [r0, #0]!
    2f2c:	10000000 	andne	r0, r0, r0
    2f30:	00000ba4 	andeq	r0, r0, r4, lsr #23
    2f34:	2505a301 	strcs	sl, [r5, #-769]	; 0xfffffcff
    2f38:	58000000 	stmdapl	r0, {}	; <UNPREDICTABLE>
    2f3c:	30000091 	mulcc	r0, r1, r0
    2f40:	01000000 	mrseq	r0, (UNDEF: 0)
    2f44:	0002db9c 	muleq	r2, ip, fp
    2f48:	00631500 	rsbeq	r1, r3, r0, lsl #10
    2f4c:	2509a701 	strcs	sl, [r9, #-1793]	; 0xfffff8ff
    2f50:	10000000 	andne	r0, r0, r0
    2f54:	0e00001c 	mcreq	0, 0, r0, cr0, cr12, {0}
    2f58:	0f00001c 	svceq	0x0000001c
    2f5c:	00009160 	andeq	r9, r0, r0, ror #2
    2f60:	000005a0 	andeq	r0, r0, r0, lsr #11
    2f64:	0091640f 	addseq	r6, r1, pc, lsl #8
    2f68:	00030900 	andeq	r0, r3, r0, lsl #18
    2f6c:	91741400 	cmnls	r4, r0, lsl #8
    2f70:	05ac0000 	streq	r0, [ip, #0]!
    2f74:	02d10000 	sbcseq	r0, r1, #0, 0
    2f78:	01120000 	tsteq	r2, r0
    2f7c:	400c0550 	andmi	r0, ip, r0, asr r5
    2f80:	00202150 	eoreq	r2, r0, r0, asr r1
    2f84:	00917c0f 	addseq	r7, r1, pc, lsl #24
    2f88:	0005a000 	andeq	sl, r5, r0
    2f8c:	6f100000 	svcvs	0x00100000
    2f90:	0100000b 	tsteq	r0, fp
    2f94:	00250594 	mlaeq	r5, r4, r5, r0
    2f98:	91380000 	teqls	r8, r0
    2f9c:	00200000 	eoreq	r0, r0, r0
    2fa0:	9c010000 	stcls	0, cr0, [r1], {-0}
    2fa4:	00000309 	andeq	r0, r0, r9, lsl #6
    2fa8:	00914411 	addseq	r4, r1, r1, lsl r4
    2fac:	0005ac00 	andeq	sl, r5, r0, lsl #24
    2fb0:	50011200 	andpl	r1, r1, r0, lsl #4
    2fb4:	50640c05 	rsbpl	r0, r4, r5, lsl #24
    2fb8:	00002021 	andeq	r2, r0, r1, lsr #32
    2fbc:	000b4e10 	andeq	r4, fp, r0, lsl lr
    2fc0:	058b0100 	streq	r0, [fp, #256]	; 0x100
    2fc4:	00000025 	andeq	r0, r0, r5, lsr #32
    2fc8:	00009120 	andeq	r9, r0, r0, lsr #2
    2fcc:	00000018 	andeq	r0, r0, r8, lsl r0
    2fd0:	03379c01 	teqeq	r7, #256	; 0x100
    2fd4:	2c110000 	ldccs	0, cr0, [r1], {-0}
    2fd8:	ac000091 	stcge	0, cr0, [r0], {145}	; 0x91
    2fdc:	12000005 	andne	r0, r0, #5, 0
    2fe0:	0c055001 	stceq	0, cr5, [r5], {1}
    2fe4:	20215064 	eorcs	r5, r1, r4, rrx
    2fe8:	ee0e0000 	cdp	0, 0, cr0, cr14, cr0, {0}
    2fec:	01000008 	tsteq	r0, r8
    2ff0:	90700645 	rsbsls	r0, r0, r5, asr #12
    2ff4:	00b00000 	adcseq	r0, r0, r0
    2ff8:	9c010000 	stcls	0, cr0, [r1], {-0}
    2ffc:	00000484 	andeq	r0, r0, r4, lsl #9
    3000:	000b4016 	andeq	r4, fp, r6, lsl r0
    3004:	0e7e0100 	rpweqe	f0, f6, f0
    3008:	00000062 	andeq	r0, r0, r2, rrx
    300c:	8014010e 	andshi	r0, r4, lr, lsl #2
    3010:	c4000090 	strgt	r0, [r0], #-144	; 0xffffff70
    3014:	73000005 	movwvc	r0, #5
    3018:	12000003 	andne	r0, r0, #3, 0
    301c:	3e015001 	cdpcc	0, 0, cr5, cr1, cr1, {0}
    3020:	01510112 	cmpeq	r1, r2, lsl r1
    3024:	8c140032 	ldchi	0, cr0, [r4], {50}	; 0x32
    3028:	c4000090 	strgt	r0, [r0], #-144	; 0xffffff70
    302c:	8b000005 	blhi	3048 <__code_start__-0x4fb8>
    3030:	12000003 	andne	r0, r0, #3, 0
    3034:	3f015001 	svccc	0x00015001
    3038:	01510112 	cmpeq	r1, r2, lsl r1
    303c:	900f0032 	andls	r0, pc, r2, lsr r0	; <UNPREDICTABLE>
    3040:	a0000090 	mulge	r0, r0, r0
    3044:	14000005 	strne	r0, [r0], #-5
    3048:	0000909c 	muleq	r0, ip, r0
    304c:	0000053d 	andeq	r0, r0, sp, lsr r5
    3050:	000003b0 			; <UNDEFINED> instruction: 0x000003b0
    3054:	05500112 	ldrbeq	r0, [r0, #-274]	; 0xfffffeee
    3058:	2150040c 	cmpcs	r0, ip, lsl #8
    305c:	51011220 	tstpl	r1, r0, lsr #4
    3060:	0f003101 	svceq	0x00003101
    3064:	000090a0 	andeq	r9, r0, r0, lsr #1
    3068:	000005a0 	andeq	r0, r0, r0, lsr #11
    306c:	0090b014 	addseq	fp, r0, r4, lsl r0
    3070:	0005b800 	andeq	fp, r5, r0, lsl #16
    3074:	0003d200 	andeq	sp, r3, r0, lsl #4
    3078:	50011200 	andpl	r1, r1, r0, lsl #4
    307c:	12007402 	andne	r7, r0, #33554432	; 0x2000000
    3080:	30015101 	andcc	r5, r1, r1, lsl #2
    3084:	90bc1400 	adcsls	r1, ip, r0, lsl #8
    3088:	05b80000 	ldreq	r0, [r8, #0]!
    308c:	03ee0000 	mvneq	r0, #0, 0
    3090:	01120000 	tsteq	r2, r0
    3094:	440c0550 	strmi	r0, [ip], #-1360	; 0xfffffab0
    3098:	12202150 	eorne	r2, r0, #20
    309c:	30015101 	andcc	r5, r1, r1, lsl #2
    30a0:	90c81400 	sbcls	r1, r8, r0, lsl #8
    30a4:	05b80000 	ldreq	r0, [r8, #0]!
    30a8:	040a0000 	streq	r0, [sl], #-0
    30ac:	01120000 	tsteq	r2, r0
    30b0:	4c0c0550 	cfstr32mi	mvfx0, [ip], {80}	; 0x50
    30b4:	12202150 	eorne	r2, r0, #20
    30b8:	33015101 	movwcc	r5, #4353	; 0x1101
    30bc:	90d41400 	sbcsls	r1, r4, r0, lsl #8
    30c0:	05b80000 	ldreq	r0, [r8, #0]!
    30c4:	04260000 	strteq	r0, [r6], #-0
    30c8:	01120000 	tsteq	r2, r0
    30cc:	500c0550 	andpl	r0, ip, r0, asr r5
    30d0:	12202150 	eorne	r2, r0, #20
    30d4:	30015101 	andcc	r5, r1, r1, lsl #2
    30d8:	90e01400 	rscls	r1, r0, r0, lsl #8
    30dc:	05b80000 	ldreq	r0, [r8, #0]!
    30e0:	04430000 	strbeq	r0, [r3], #-0
    30e4:	01120000 	tsteq	r2, r0
    30e8:	480c0550 	stmdami	ip, {r4, r6, r8, sl}
    30ec:	12202150 	eorne	r2, r0, #20
    30f0:	08025101 	stmdaeq	r2, {r0, r8, ip, lr}
    30f4:	ec1400c7 	ldc	0, cr0, [r4], {199}	; 0xc7
    30f8:	b8000090 	stmdalt	r0, {r4, r7}
    30fc:	61000005 	tstvs	r0, r5
    3100:	12000004 	andne	r0, r0, #4, 0
    3104:	0c055001 	stceq	0, cr5, [r5], {1}
    3108:	20215068 	eorcs	r5, r1, r8, rrx
    310c:	03510112 	cmpeq	r1, #-2147483644	; 0x80000004
    3110:	00010e0a 	andeq	r0, r1, sl, lsl #28
    3114:	0090f814 	addseq	pc, r0, r4, lsl r8	; <UNPREDICTABLE>
    3118:	0005b800 	andeq	fp, r5, r0, lsl #16
    311c:	00047a00 	andeq	r7, r4, r0, lsl #20
    3120:	50011200 	andpl	r1, r1, r0, lsl #4
    3124:	12007402 	andne	r7, r0, #33554432	; 0x2000000
    3128:	33015101 	movwcc	r5, #4353	; 0x1101
    312c:	90fc0f00 	rscsls	r0, ip, r0, lsl #30
    3130:	05a00000 	streq	r0, [r0, #0]!
    3134:	0e000000 	cdpeq	0, 0, cr0, cr0, cr0, {0}
    3138:	00000bb3 			; <UNDEFINED> instruction: 0x00000bb3
    313c:	fc063501 	stc2	5, cr3, [r6], {1}
    3140:	24000091 	strcs	r0, [r0], #-145	; 0xffffff6f
    3144:	01000000 	mrseq	r0, (UNDEF: 0)
    3148:	0004d39c 	muleq	r4, ip, r3
    314c:	92040f00 	andls	r0, r4, #0, 30
    3150:	01940000 	orrseq	r0, r4, r0
    3154:	080f0000 	stmdaeq	pc, {}	; <UNPREDICTABLE>
    3158:	a0000092 	mulge	r0, r2, r0
    315c:	14000005 	strne	r0, [r0], #-5
    3160:	00009214 	andeq	r9, r0, r4, lsl r2
    3164:	000004d3 	ldrdeq	r0, [r0], -r3
    3168:	000004c9 	andeq	r0, r0, r9, asr #9
    316c:	05500112 	ldrbeq	r0, [r0, #-274]	; 0xfffffeee
    3170:	2150040c 	cmpcs	r0, ip, lsl #8
    3174:	51011220 	tstpl	r1, r0, lsr #4
    3178:	00fe0902 	rscseq	r0, lr, r2, lsl #18
    317c:	0092180f 	addseq	r1, r2, pc, lsl #16
    3180:	0005a000 	andeq	sl, r5, r0
    3184:	e3170000 	tst	r7, #0, 0
    3188:	0100000b 	tsteq	r0, fp
    318c:	90300d31 	eorsls	r0, r0, r1, lsr sp
    3190:	00200000 	eoreq	r0, r0, r0
    3194:	9c010000 	stcls	0, cr0, [r1], {-0}
    3198:	00000536 	andeq	r0, r0, r6, lsr r5
    319c:	000b7d18 	andeq	r7, fp, r8, lsl sp
    31a0:	25310100 	ldrcs	r0, [r1, #-256]!	; 0xffffff00
    31a4:	00000536 	andeq	r0, r0, r6, lsr r5
    31a8:	00001c27 	andeq	r1, r0, r7, lsr #24
    31ac:	00001c23 	andeq	r1, r0, r3, lsr #24
    31b0:	6c617613 	stclvs	6, cr7, [r1], #-76	; 0xffffffb4
    31b4:	34310100 	ldrtcc	r0, [r1], #-256	; 0xffffff00
    31b8:	0000002c 	andeq	r0, r0, ip, lsr #32
    31bc:	00001c49 	andeq	r1, r0, r9, asr #24
    31c0:	00001c45 	andeq	r1, r0, r5, asr #24
    31c4:	00904014 	addseq	r4, r0, r4, lsl r0
    31c8:	0005ac00 	andeq	sl, r5, r0, lsl #24
    31cc:	00052500 	andeq	r2, r5, r0, lsl #10
    31d0:	50011200 	andpl	r1, r1, r0, lsl #4
    31d4:	00007402 	andeq	r7, r0, r2, lsl #8
    31d8:	00904c11 	addseq	r4, r0, r1, lsl ip
    31dc:	0005b800 	andeq	fp, r5, r0, lsl #16
    31e0:	50011200 	andpl	r1, r1, r0, lsl #4
    31e4:	00007402 	andeq	r7, r0, r2, lsl #8
    31e8:	3c040c00 	stccc	12, cr0, [r4], {-0}
    31ec:	19000005 	stmdbne	r0, {r0, r2}
    31f0:	000bce17 	andeq	ip, fp, r7, lsl lr
    31f4:	0d2e0100 	stfeqs	f0, [lr, #-0]
    31f8:	00009050 	andeq	r9, r0, r0, asr r0
    31fc:	00000020 	andeq	r0, r0, r0, lsr #32
    3200:	05a09c01 	streq	r9, [r0, #3073]!	; 0xc01
    3204:	7d180000 	ldcvc	0, cr0, [r8, #-0]
    3208:	0100000b 	tsteq	r0, fp
    320c:	0536242e 	ldreq	r2, [r6, #-1070]!	; 0xfffffbd2
    3210:	1c6b0000 	stclne	0, cr0, [fp], #-0
    3214:	1c670000 	stclne	0, cr0, [r7], #-0
    3218:	76130000 	ldrvc	r0, [r3], -r0
    321c:	01006c61 	tsteq	r0, r1, ror #24
    3220:	002c332e 	eoreq	r3, ip, lr, lsr #6
    3224:	1c8d0000 	stcne	0, cr0, [sp], {0}
    3228:	1c890000 	stcne	0, cr0, [r9], {0}
    322c:	60140000 	andsvs	r0, r4, r0
    3230:	ac000090 	stcge	0, cr0, [r0], {144}	; 0x90
    3234:	8f000005 	svchi	0x00000005
    3238:	12000005 	andne	r0, r0, #5, 0
    323c:	74025001 	strvc	r5, [r2], #-1
    3240:	6c110000 	ldcvs	0, cr0, [r1], {-0}
    3244:	b8000090 	stmdalt	r0, {r4, r7}
    3248:	12000005 	andne	r0, r0, #5, 0
    324c:	74025001 	strvc	r5, [r2], #-1
    3250:	1a000000 	bne	3258 <__code_start__-0x4da8>
    3254:	0000045c 	andeq	r0, r0, ip, asr r4
    3258:	0000045c 	andeq	r0, r0, ip, asr r4
    325c:	1a06a103 	bne	1ab670 <__bss_end__+0x1a1668>
    3260:	00000bf6 	strdeq	r0, [r0], -r6
    3264:	00000bf6 	strdeq	r0, [r0], -r6
    3268:	1a0bc803 	bne	2f527c <__bss_end__+0x2eb274>
    326c:	00000b3a 	andeq	r0, r0, sl, lsr fp
    3270:	00000b3a 	andeq	r0, r0, sl, lsr fp
    3274:	1a06b303 	bne	1afe88 <__bss_end__+0x1a5e80>
    3278:	000004a3 	andeq	r0, r0, r3, lsr #9
    327c:	000004a3 	andeq	r0, r0, r3, lsr #9
    3280:	00061904 	andeq	r1, r6, r4, lsl #18
    3284:	00000149 	andeq	r0, r0, r9, asr #2
    3288:	10eb0004 	rscne	r0, fp, r4
    328c:	01040000 	mrseq	r0, (UNDEF: 4)
    3290:	00000630 	andeq	r0, r0, r0, lsr r6
    3294:	000c1a0c 	andeq	r1, ip, ip, lsl #20
    3298:	0006fa00 	andeq	pc, r6, r0, lsl #20
    329c:	00922000 	addseq	r2, r2, r0
    32a0:	00003c00 	andeq	r3, r0, r0, lsl #24
    32a4:	00226d00 	eoreq	r6, r2, r0, lsl #26
    32a8:	05040200 	streq	r0, [r4, #-512]	; 0xfffffe00
    32ac:	00746e69 	rsbseq	r6, r4, r9, ror #28
    32b0:	7d070403 	cfstrsvc	mvf0, [r7, #-12]
    32b4:	03000001 	movweq	r0, #1
    32b8:	00700601 	rsbseq	r0, r0, r1, lsl #12
    32bc:	02030000 	andeq	r0, r3, #0, 0
    32c0:	0001bb05 	andeq	fp, r1, r5, lsl #22
    32c4:	05040300 	streq	r0, [r4, #-768]	; 0xfffffd00
    32c8:	000001a6 	andeq	r0, r0, r6, lsr #3
    32cc:	a1050803 	tstge	r5, r3, lsl #16
    32d0:	03000001 	movweq	r0, #1
    32d4:	006e0801 	rsbeq	r0, lr, r1, lsl #16
    32d8:	02030000 	andeq	r0, r3, #0, 0
    32dc:	00008907 	andeq	r8, r0, r7, lsl #18
    32e0:	07040300 	streq	r0, [r4, -r0, lsl #6]
    32e4:	00000178 	andeq	r0, r0, r8, ror r1
    32e8:	73070803 	movwvc	r0, #30723	; 0x7803
    32ec:	04000001 	streq	r0, [r0], #-1
    32f0:	00000025 	andeq	r0, r0, r5, lsr #32
    32f4:	0000007a 	andeq	r0, r0, sl, ror r0
    32f8:	00002505 	andeq	r2, r0, r5, lsl #10
    32fc:	af060000 	svcge	0x00060000
    3300:	02000001 	andeq	r0, r0, #1, 0
    3304:	00860e1c 	addeq	r0, r6, ip, lsl lr
    3308:	04070000 	streq	r0, [r7], #-0
    330c:	0000006b 	andeq	r0, r0, fp, rrx
    3310:	00002504 	andeq	r2, r0, r4, lsl #10
    3314:	00009b00 	andeq	r9, r0, r0, lsl #22
    3318:	009b0500 	addseq	r0, fp, r0, lsl #10
    331c:	07000000 	streq	r0, [r0, -r0]
    3320:	0000a804 	andeq	sl, r0, r4, lsl #16
    3324:	08010300 	stmdaeq	r1, {r8, r9}
    3328:	00000077 	andeq	r0, r0, r7, ror r0
    332c:	0000a108 	andeq	sl, r0, r8, lsl #2
    3330:	078a0600 	streq	r0, [sl, r0, lsl #12]
    3334:	21020000 	mrscs	r0, (UNDEF: 2)
    3338:	0000b90e 	andeq	fp, r0, lr, lsl #18
    333c:	8c040700 	stchi	7, cr0, [r4], {-0}
    3340:	09000000 	stmdbeq	r0, {}	; <UNPREDICTABLE>
    3344:	0000007a 	andeq	r0, r0, sl, ror r0
    3348:	05070601 	streq	r0, [r7, #-1537]	; 0xfffff9ff
    334c:	009c0003 	addseq	r0, ip, r3
    3350:	0c0d0a00 			; <UNDEFINED> instruction: 0x0c0d0a00
    3354:	0b010000 	bleq	4335c <__bss_end__+0x39354>
    3358:	00924c06 	addseq	r4, r2, r6, lsl #24
    335c:	00001000 	andeq	r1, r0, r0
    3360:	f19c0100 			; <UNDEFINED> instruction: 0xf19c0100
    3364:	0b000000 	bleq	336c <__code_start__-0x4c94>
    3368:	01007066 	tsteq	r0, r6, rrx
    336c:	0086190b 	addeq	r1, r6, fp, lsl #18
    3370:	50010000 	andpl	r0, r1, r0
    3374:	0c2b0c00 	stceq	12, cr0, [fp], #-0
    3378:	08010000 	stmdaeq	r1, {}	; <UNPREDICTABLE>
    337c:	00923406 	addseq	r3, r2, r6, lsl #8
    3380:	00001800 	andeq	r1, r0, r0, lsl #16
    3384:	0d9c0100 	ldfeqs	f0, [ip]
    3388:	00000bfc 	strdeq	r0, [r0], -ip
    338c:	250c0301 	strcs	r0, [ip, #-769]	; 0xfffffcff
    3390:	20000000 	andcs	r0, r0, r0
    3394:	14000092 	strne	r0, [r0], #-146	; 0xffffff6e
    3398:	01000000 	mrseq	r0, (UNDEF: 0)
    339c:	0001409c 	muleq	r1, ip, r0
    33a0:	00630e00 	rsbeq	r0, r3, r0, lsl #28
    33a4:	25210301 	strcs	r0, [r1, #-769]!	; 0xfffffcff
    33a8:	af000000 	svcge	0x00000000
    33ac:	ab00001c 	blge	3424 <__code_start__-0x4bdc>
    33b0:	0f00001c 	svceq	0x0000001c
    33b4:	0000922c 	andeq	r9, r0, ip, lsr #4
    33b8:	00000140 	andeq	r0, r0, r0, asr #2
    33bc:	02500110 	subseq	r0, r0, #4
    33c0:	00000074 	andeq	r0, r0, r4, ror r0
    33c4:	000bec11 	andeq	lr, fp, r1, lsl ip
    33c8:	000bec00 	andeq	lr, fp, r0, lsl #24
    33cc:	06420200 	strbeq	r0, [r2], -r0, lsl #4
    33d0:	00013700 	andeq	r3, r1, r0, lsl #14
    33d4:	fa000400 	blx	43dc <__code_start__-0x3c24>
    33d8:	04000011 	streq	r0, [r0], #-17	; 0xffffffef
    33dc:	00063001 	andeq	r3, r6, r1
    33e0:	0c3f0c00 	ldceq	12, cr0, [pc], #-0	; 33e8 <__code_start__-0x4c18>
    33e4:	06fa0000 	ldrbteq	r0, [sl], r0
    33e8:	925c0000 	subsls	r0, ip, #0, 0
    33ec:	00340000 	eorseq	r0, r4, r0
    33f0:	23310000 	teqcs	r1, #0, 0
    33f4:	04020000 	streq	r0, [r2], #-0
    33f8:	746e6905 	strbtvc	r6, [lr], #-2309	; 0xfffff6fb
    33fc:	07040300 	streq	r0, [r4, -r0, lsl #6]
    3400:	0000017d 	andeq	r0, r0, sp, ror r1
    3404:	70060103 	andvc	r0, r6, r3, lsl #2
    3408:	03000000 	movweq	r0, #0
    340c:	01bb0502 			; <UNDEFINED> instruction: 0x01bb0502
    3410:	04030000 	streq	r0, [r3], #-0
    3414:	0001a605 	andeq	sl, r1, r5, lsl #12
    3418:	05080300 	streq	r0, [r8, #-768]	; 0xfffffd00
    341c:	000001a1 	andeq	r0, r0, r1, lsr #3
    3420:	6e080103 	adfvse	f0, f0, f3
    3424:	03000000 	movweq	r0, #0
    3428:	00890702 	addeq	r0, r9, r2, lsl #14
    342c:	04030000 	streq	r0, [r3], #-0
    3430:	00017807 	andeq	r7, r1, r7, lsl #16
    3434:	07080300 	streq	r0, [r8, -r0, lsl #6]
    3438:	00000173 	andeq	r0, r0, r3, ror r1
    343c:	00002504 	andeq	r2, r0, r4, lsl #10
    3440:	00007a00 	andeq	r7, r0, r0, lsl #20
    3444:	00250500 	eoreq	r0, r5, r0, lsl #10
    3448:	06000000 	streq	r0, [r0], -r0
    344c:	000001af 	andeq	r0, r0, pc, lsr #3
    3450:	860e1c02 	strhi	r1, [lr], -r2, lsl #24
    3454:	07000000 	streq	r0, [r0, -r0]
    3458:	00006b04 	andeq	r6, r0, r4, lsl #22
    345c:	00250400 	eoreq	r0, r5, r0, lsl #8
    3460:	009b0000 	addseq	r0, fp, r0
    3464:	9b050000 	blls	14346c <__bss_end__+0x139464>
    3468:	00000000 	andeq	r0, r0, r0
    346c:	00a80407 	adceq	r0, r8, r7, lsl #8
    3470:	01030000 	mrseq	r0, (UNDEF: 3)
    3474:	00007708 	andeq	r7, r0, r8, lsl #14
    3478:	00a10800 	adceq	r0, r1, r0, lsl #16
    347c:	8a060000 	bhi	183484 <__bss_end__+0x17947c>
    3480:	02000007 	andeq	r0, r0, #7, 0
    3484:	00b90e21 	adcseq	r0, r9, r1, lsr #28
    3488:	04070000 	streq	r0, [r7], #-0
    348c:	0000008c 	andeq	r0, r0, ip, lsl #1
    3490:	00085c09 	andeq	r5, r8, r9, lsl #24
    3494:	07040100 	streq	r0, [r4, -r0, lsl #2]
    3498:	00000134 	andeq	r0, r0, r4, lsr r1
    349c:	0000925c 	andeq	r9, r0, ip, asr r2
    34a0:	00000034 	andeq	r0, r0, r4, lsr r0
    34a4:	01349c01 	teqeq	r4, r1, lsl #24
    34a8:	3a0a0000 	bcc	2834b0 <__bss_end__+0x2794a8>
    34ac:	0100000c 	tsteq	r0, ip
    34b0:	01341504 	teqeq	r4, r4, lsl #10
    34b4:	50010000 	andpl	r0, r1, r0
    34b8:	6372730b 	cmnvs	r2, #738197504	; 0x2c000000
    34bc:	27040100 	strcs	r0, [r4, -r0, lsl #2]
    34c0:	0000009b 	muleq	r0, fp, r0
    34c4:	00001cd1 	ldrdeq	r1, [r0], -r1	; <UNPREDICTABLE>
    34c8:	00001ccd 	andeq	r1, r0, sp, asr #25
    34cc:	0031730c 	eorseq	r7, r1, ip, lsl #6
    34d0:	340b0501 	strcc	r0, [fp], #-1281	; 0xfffffaff
    34d4:	fc000001 	stc2	0, cr0, [r0], {1}
    34d8:	f200001c 	vqadd.s8	d0, d0, d12
    34dc:	0c00001c 	stceq	0, cr0, [r0], {28}
    34e0:	01003273 	tsteq	r0, r3, ror r2
    34e4:	009b1106 	addseq	r1, fp, r6, lsl #2
    34e8:	1d410000 	stclne	0, cr0, [r1, #-0]
    34ec:	1d3d0000 	ldcne	0, cr0, [sp, #-0]
    34f0:	630c0000 	movwvs	r0, #49152	; 0xc000
    34f4:	0a070100 	beq	1c38fc <__bss_end__+0x1b98f4>
    34f8:	000000a1 	andeq	r0, r0, r1, lsr #1
    34fc:	00001d65 	andeq	r1, r0, r5, ror #26
    3500:	00001d61 	andeq	r1, r0, r1, ror #26
    3504:	a1040700 	tstge	r4, r0, lsl #14
    3508:	00000000 	andeq	r0, r0, r0
    350c:	000000f7 	strdeq	r0, [r0], -r7
    3510:	12b00004 	adcsne	r0, r0, #4, 0
    3514:	01040000 	mrseq	r0, (UNDEF: 4)
    3518:	00000630 	andeq	r0, r0, r0, lsr r6
    351c:	000c4f0c 	andeq	r4, ip, ip, lsl #30
    3520:	0006fa00 	andeq	pc, r6, r0, lsl #20
    3524:	00929000 	addseq	r9, r2, r0
    3528:	00002c00 	andeq	r2, r0, r0, lsl #24
    352c:	00244100 	eoreq	r4, r4, r0, lsl #2
    3530:	05040200 	streq	r0, [r4, #-512]	; 0xfffffe00
    3534:	00746e69 	rsbseq	r6, r4, r9, ror #28
    3538:	7d070403 	cfstrsvc	mvf0, [r7, #-12]
    353c:	03000001 	movweq	r0, #1
    3540:	00700601 	rsbseq	r0, r0, r1, lsl #12
    3544:	02030000 	andeq	r0, r3, #0, 0
    3548:	0001bb05 	andeq	fp, r1, r5, lsl #22
    354c:	05040300 	streq	r0, [r4, #-768]	; 0xfffffd00
    3550:	000001a6 	andeq	r0, r0, r6, lsr #3
    3554:	a1050803 	tstge	r5, r3, lsl #16
    3558:	03000001 	movweq	r0, #1
    355c:	006e0801 	rsbeq	r0, lr, r1, lsl #16
    3560:	02030000 	andeq	r0, r3, #0, 0
    3564:	00008907 	andeq	r8, r0, r7, lsl #18
    3568:	07040300 	streq	r0, [r4, -r0, lsl #6]
    356c:	00000178 	andeq	r0, r0, r8, ror r1
    3570:	73070803 	movwvc	r0, #30723	; 0x7803
    3574:	04000001 	streq	r0, [r0], #-1
    3578:	00000025 	andeq	r0, r0, r5, lsr #32
    357c:	0000007a 	andeq	r0, r0, sl, ror r0
    3580:	00002505 	andeq	r2, r0, r5, lsl #10
    3584:	af060000 	svcge	0x00060000
    3588:	02000001 	andeq	r0, r0, #1, 0
    358c:	00860e1c 	addeq	r0, r6, ip, lsl lr
    3590:	04070000 	streq	r0, [r7], #-0
    3594:	0000006b 	andeq	r0, r0, fp, rrx
    3598:	00002504 	andeq	r2, r0, r4, lsl #10
    359c:	00009b00 	andeq	r9, r0, r0, lsl #22
    35a0:	009b0500 	addseq	r0, fp, r0, lsl #10
    35a4:	07000000 	streq	r0, [r0, -r0]
    35a8:	0000a804 	andeq	sl, r0, r4, lsl #16
    35ac:	08010300 	stmdaeq	r1, {r8, r9}
    35b0:	00000077 	andeq	r0, r0, r7, ror r0
    35b4:	0000a108 	andeq	sl, r0, r8, lsl #2
    35b8:	078a0600 	streq	r0, [sl, r0, lsl #12]
    35bc:	21020000 	mrscs	r0, (UNDEF: 2)
    35c0:	0000b90e 	andeq	fp, r0, lr, lsl #18
    35c4:	8c040700 	stchi	7, cr0, [r4], {-0}
    35c8:	09000000 	stmdbeq	r0, {}	; <UNPREDICTABLE>
    35cc:	00000863 	andeq	r0, r0, r3, ror #16
    35d0:	25050301 	strcs	r0, [r5, #-769]	; 0xfffffcff
    35d4:	90000000 	andls	r0, r0, r0
    35d8:	2c000092 	stccs	0, cr0, [r0], {146}	; 0x92
    35dc:	01000000 	mrseq	r0, (UNDEF: 0)
    35e0:	00610a9c 	mlseq	r1, ip, sl, r0
    35e4:	9b180301 	blls	6041f0 <__bss_end__+0x5fa1e8>
    35e8:	87000000 	strhi	r0, [r0, -r0]
    35ec:	8300001d 	movwhi	r0, #29
    35f0:	0a00001d 	beq	366c <__code_start__-0x4994>
    35f4:	03010062 	movweq	r0, #4194	; 0x1062
    35f8:	00009b27 	andeq	r9, r0, r7, lsr #22
    35fc:	001da900 	andseq	sl, sp, r0, lsl #18
    3600:	001da500 	andseq	sl, sp, r0, lsl #10
    3604:	0f000000 	svceq	0x00000000
    3608:	04000001 	streq	r0, [r0], #-1
    360c:	00133f00 	andseq	r3, r3, r0, lsl #30
    3610:	30010400 	andcc	r0, r1, r0, lsl #8
    3614:	0c000006 	stceq	0, cr0, [r0], {6}
    3618:	00000c5f 	andeq	r0, r0, pc, asr ip
    361c:	000006fa 	strdeq	r0, [r0], -sl
    3620:	000092bc 			; <UNDEFINED> instruction: 0x000092bc
    3624:	00000020 	andeq	r0, r0, r0, lsr #32
    3628:	0000250a 	andeq	r2, r0, sl, lsl #10
    362c:	69050402 	stmdbvs	r5, {r1, sl}
    3630:	0300746e 	movweq	r7, #1134	; 0x46e
    3634:	017d0704 	cmneq	sp, r4, lsl #14
    3638:	01030000 	mrseq	r0, (UNDEF: 3)
    363c:	00007006 	andeq	r7, r0, r6
    3640:	05020300 	streq	r0, [r2, #-768]	; 0xfffffd00
    3644:	000001bb 			; <UNDEFINED> instruction: 0x000001bb
    3648:	a6050403 	strge	r0, [r5], -r3, lsl #8
    364c:	03000001 	movweq	r0, #1
    3650:	01a10508 			; <UNDEFINED> instruction: 0x01a10508
    3654:	01030000 	mrseq	r0, (UNDEF: 3)
    3658:	00006e08 	andeq	r6, r0, r8, lsl #28
    365c:	07020300 	streq	r0, [r2, -r0, lsl #6]
    3660:	00000089 	andeq	r0, r0, r9, lsl #1
    3664:	78070403 	stmdavc	r7, {r0, r1, sl}
    3668:	03000001 	movweq	r0, #1
    366c:	01730708 	cmneq	r3, r8, lsl #14
    3670:	25040000 	strcs	r0, [r4, #-0]
    3674:	7a000000 	bvc	367c <__code_start__-0x4984>
    3678:	05000000 	streq	r0, [r0, #-0]
    367c:	00000025 	andeq	r0, r0, r5, lsr #32
    3680:	01af0600 			; <UNDEFINED> instruction: 0x01af0600
    3684:	1c020000 	stcne	0, cr0, [r2], {-0}
    3688:	0000860e 	andeq	r8, r0, lr, lsl #12
    368c:	6b040700 	blvs	105294 <__bss_end__+0xfb28c>
    3690:	04000000 	streq	r0, [r0], #-0
    3694:	00000025 	andeq	r0, r0, r5, lsr #32
    3698:	0000009b 	muleq	r0, fp, r0
    369c:	00009b05 	andeq	r9, r0, r5, lsl #22
    36a0:	04070000 	streq	r0, [r7], #-0
    36a4:	000000a8 	andeq	r0, r0, r8, lsr #1
    36a8:	77080103 	strvc	r0, [r8, -r3, lsl #2]
    36ac:	08000000 	stmdaeq	r0, {}	; <UNPREDICTABLE>
    36b0:	000000a1 	andeq	r0, r0, r1, lsr #1
    36b4:	00078a06 	andeq	r8, r7, r6, lsl #20
    36b8:	0e210200 	cdpeq	2, 2, cr0, cr1, cr0, {0}
    36bc:	000000b9 	strheq	r0, [r0], -r9
    36c0:	008c0407 	addeq	r0, ip, r7, lsl #8
    36c4:	2d090000 	stccs	0, cr0, [r9, #-0]
    36c8:	01000008 	tsteq	r0, r8
    36cc:	010c0703 	tsteq	ip, r3, lsl #14
    36d0:	92bc0000 	adcsls	r0, ip, #0, 0
    36d4:	00200000 	eoreq	r0, r0, r0
    36d8:	9c010000 	stcls	0, cr0, [r1], {-0}
    36dc:	0000010c 	andeq	r0, r0, ip, lsl #2
    36e0:	0031730a 	eorseq	r7, r1, sl, lsl #6
    36e4:	0c150301 	ldceq	3, cr0, [r5], {1}
    36e8:	01000001 	tsteq	r0, r1
    36ec:	32730b50 	rsbscc	r0, r3, #80, 22	; 0x14000
    36f0:	26030100 	strcs	r0, [r3], -r0, lsl #2
    36f4:	0000009b 	muleq	r0, fp, r0
    36f8:	00001dcd 	andeq	r1, r0, sp, asr #27
    36fc:	00001dc7 	andeq	r1, r0, r7, asr #27
    3700:	0100730c 	tsteq	r0, ip, lsl #6
    3704:	010c1404 	tsteq	ip, r4, lsl #8
    3708:	1dfe0000 	ldclne	0, cr0, [lr]
    370c:	1df80000 	ldclne	0, cr0, [r8]
    3710:	07000000 	streq	r0, [r0, -r0]
    3714:	0000a104 	andeq	sl, r0, r4, lsl #2
    3718:	014e0000 	mrseq	r0, (UNDEF: 78)
    371c:	00040000 	andeq	r0, r4, r0
    3720:	000013f5 	strdeq	r1, [r0], -r5
    3724:	06300104 	ldrteq	r0, [r0], -r4, lsl #2
    3728:	6f0c0000 	svcvs	0x000c0000
    372c:	fa00000c 	blx	3764 <__code_start__-0x489c>
    3730:	78000006 	stmdavc	r0, {r1, r2}
    3734:	00000002 	andeq	r0, r0, r2
    3738:	d1000000 	mrsle	r0, (UNDEF: 0)
    373c:	02000025 	andeq	r0, r0, #37, 0	; 0x25
    3740:	6e690504 	cdpvs	5, 6, cr0, cr9, cr4, {0}
    3744:	80030074 	andhi	r0, r3, r4, ror r0
    3748:	0300000c 	movweq	r0, #12
    374c:	003817d1 	ldrsbteq	r1, [r8], -r1
    3750:	04040000 	streq	r0, [r4], #-0
    3754:	00017d07 	andeq	r7, r1, r7, lsl #26
    3758:	06010400 	streq	r0, [r1], -r0, lsl #8
    375c:	00000070 	andeq	r0, r0, r0, ror r0
    3760:	bb050204 	bllt	143f78 <__bss_end__+0x139f70>
    3764:	04000001 	streq	r0, [r0], #-1
    3768:	01a60504 			; <UNDEFINED> instruction: 0x01a60504
    376c:	08040000 	stmdaeq	r4, {}	; <UNPREDICTABLE>
    3770:	0001a105 	andeq	sl, r1, r5, lsl #2
    3774:	08010400 	stmdaeq	r1, {sl}
    3778:	0000006e 	andeq	r0, r0, lr, rrx
    377c:	00005b05 	andeq	r5, r0, r5, lsl #22
    3780:	07020400 	streq	r0, [r2, -r0, lsl #8]
    3784:	00000089 	andeq	r0, r0, r9, lsl #1
    3788:	78070404 	stmdavc	r7, {r2, sl}
    378c:	04000001 	streq	r0, [r0], #-1
    3790:	01730708 	cmneq	r3, r8, lsl #14
    3794:	25060000 	strcs	r0, [r6, #-0]
    3798:	8b000000 	blhi	37a0 <__code_start__-0x4860>
    379c:	07000000 	streq	r0, [r0, -r0]
    37a0:	00000025 	andeq	r0, r0, r5, lsr #32
    37a4:	01af0800 			; <UNDEFINED> instruction: 0x01af0800
    37a8:	1c020000 	stcne	0, cr0, [r2], {-0}
    37ac:	0000970e 	andeq	r9, r0, lr, lsl #14
    37b0:	7c040900 			; <UNDEFINED> instruction: 0x7c040900
    37b4:	06000000 	streq	r0, [r0], -r0
    37b8:	00000025 	andeq	r0, r0, r5, lsr #32
    37bc:	000000ac 	andeq	r0, r0, ip, lsr #1
    37c0:	0000ac07 	andeq	sl, r0, r7, lsl #24
    37c4:	04090000 	streq	r0, [r9], #-0
    37c8:	000000b9 	strheq	r0, [r0], -r9
    37cc:	77080104 	strvc	r0, [r8, -r4, lsl #2]
    37d0:	05000000 	streq	r0, [r0, #-0]
    37d4:	000000b2 	strheq	r0, [r0], -r2
    37d8:	00078a08 	andeq	r8, r7, r8, lsl #20
    37dc:	0e210200 	cdpeq	2, 2, cr0, cr1, cr0, {0}
    37e0:	000000ca 	andeq	r0, r0, sl, asr #1
    37e4:	009d0409 	addseq	r0, sp, r9, lsl #8
    37e8:	8b0a0000 	blhi	2837f0 <__bss_end__+0x2797e8>
    37ec:	01000008 	tsteq	r0, r8
    37f0:	00250504 	eoreq	r0, r5, r4, lsl #10
    37f4:	92dc0000 	sbcsls	r0, ip, #0, 0
    37f8:	002c0000 	eoreq	r0, ip, r0
    37fc:	9c010000 	stcls	0, cr0, [r1], {-0}
    3800:	0000014b 	andeq	r0, r0, fp, asr #2
    3804:	31735f0b 	cmncc	r3, fp, lsl #30
    3808:	19040100 	stmdbne	r4, {r8}
    380c:	000000ac 	andeq	r0, r0, ip, lsr #1
    3810:	00001e2d 	andeq	r1, r0, sp, lsr #28
    3814:	00001e29 	andeq	r1, r0, r9, lsr #28
    3818:	32735f0b 	rsbscc	r5, r3, #11, 30	; 0x2c
    381c:	2a040100 	bcs	103c24 <__bss_end__+0xf9c1c>
    3820:	000000ac 	andeq	r0, r0, ip, lsr #1
    3824:	00001e52 	andeq	r1, r0, r2, asr lr
    3828:	00001e4e 	andeq	r1, r0, lr, asr #28
    382c:	01006e0b 	tsteq	r0, fp, lsl #28
    3830:	002c3604 	eoreq	r3, ip, r4, lsl #12
    3834:	1e790000 	cdpne	0, 7, cr0, cr9, cr0, {0}
    3838:	1e730000 	cdpne	0, 7, cr0, cr3, cr0, {0}
    383c:	730c0000 	movwvc	r0, #49152	; 0xc000
    3840:	05010031 	streq	r0, [r1, #-49]	; 0xffffffcf
    3844:	00014b1a 	andeq	r4, r1, sl, lsl fp
    3848:	001eac00 	andseq	sl, lr, r0, lsl #24
    384c:	001ea400 	andseq	sl, lr, r0, lsl #8
    3850:	32730c00 	rsbscc	r0, r3, #0, 24
    3854:	2c050100 	stfcss	f0, [r5], {-0}
    3858:	0000014b 	andeq	r0, r0, fp, asr #2
    385c:	00001ee8 	andeq	r1, r0, r8, ror #29
    3860:	00001ee2 	andeq	r1, r0, r2, ror #29
    3864:	62040900 	andvs	r0, r4, #0, 18
    3868:	00000000 	andeq	r0, r0, r0
    386c:	000000ce 	andeq	r0, r0, lr, asr #1
    3870:	14a90004 	strtne	r0, [r9], #4
    3874:	01040000 	mrseq	r0, (UNDEF: 4)
    3878:	00000630 	andeq	r0, r0, r0, lsr r6
    387c:	000c870c 	andeq	r8, ip, ip, lsl #14
    3880:	0006fa00 	andeq	pc, r6, r0, lsl #20
    3884:	00930800 	addseq	r0, r3, r0, lsl #16
    3888:	00000400 	andeq	r0, r0, r0, lsl #8
    388c:	0026fb00 	eoreq	pc, r6, r0, lsl #22
    3890:	05040200 	streq	r0, [r4, #-512]	; 0xfffffe00
    3894:	00746e69 	rsbseq	r6, r4, r9, ror #28
    3898:	7d070403 	cfstrsvc	mvf0, [r7, #-12]
    389c:	03000001 	movweq	r0, #1
    38a0:	00700601 	rsbseq	r0, r0, r1, lsl #12
    38a4:	02030000 	andeq	r0, r3, #0, 0
    38a8:	0001bb05 	andeq	fp, r1, r5, lsl #22
    38ac:	05040300 	streq	r0, [r4, #-768]	; 0xfffffd00
    38b0:	000001a6 	andeq	r0, r0, r6, lsr #3
    38b4:	a1050803 	tstge	r5, r3, lsl #16
    38b8:	03000001 	movweq	r0, #1
    38bc:	006e0801 	rsbeq	r0, lr, r1, lsl #16
    38c0:	02030000 	andeq	r0, r3, #0, 0
    38c4:	00008907 	andeq	r8, r0, r7, lsl #18
    38c8:	07040300 	streq	r0, [r4, -r0, lsl #6]
    38cc:	00000178 	andeq	r0, r0, r8, ror r1
    38d0:	73070803 	movwvc	r0, #30723	; 0x7803
    38d4:	04000001 	streq	r0, [r0], #-1
    38d8:	00000025 	andeq	r0, r0, r5, lsr #32
    38dc:	0000007a 	andeq	r0, r0, sl, ror r0
    38e0:	00002505 	andeq	r2, r0, r5, lsl #10
    38e4:	af060000 	svcge	0x00060000
    38e8:	02000001 	andeq	r0, r0, #1, 0
    38ec:	00860e1c 	addeq	r0, r6, ip, lsl lr
    38f0:	04070000 	streq	r0, [r7], #-0
    38f4:	0000006b 	andeq	r0, r0, fp, rrx
    38f8:	00002504 	andeq	r2, r0, r4, lsl #10
    38fc:	00009b00 	andeq	r9, r0, r0, lsl #22
    3900:	009b0500 	addseq	r0, fp, r0, lsl #10
    3904:	07000000 	streq	r0, [r0, -r0]
    3908:	0000a804 	andeq	sl, r0, r4, lsl #16
    390c:	08010300 	stmdaeq	r1, {r8, r9}
    3910:	00000077 	andeq	r0, r0, r7, ror r0
    3914:	0000a108 	andeq	sl, r0, r8, lsl #2
    3918:	078a0600 	streq	r0, [sl, r0, lsl #12]
    391c:	21020000 	mrscs	r0, (UNDEF: 2)
    3920:	0000b90e 	andeq	fp, r0, lr, lsl #18
    3924:	8c040700 	stchi	7, cr0, [r4], {-0}
    3928:	09000000 	stmdbeq	r0, {}	; <UNPREDICTABLE>
    392c:	00000937 	andeq	r0, r0, r7, lsr r9
    3930:	08060301 	stmdaeq	r6, {r0, r8, r9}
    3934:	04000093 	streq	r0, [r0], #-147	; 0xffffff6d
    3938:	01000000 	mrseq	r0, (UNDEF: 0)
    393c:	Address 0x000000000000393c is out of bounds.


Disassembly of section .debug_abbrev:

00000000 <.debug_abbrev>:
       0:	25011101 	strcs	r1, [r1, #-257]	; 0xfffffeff
       4:	030b130e 	movweq	r1, #45838	; 0xb30e
       8:	110e1b0e 	tstne	lr, lr, lsl #22
       c:	10061201 	andne	r1, r6, r1, lsl #4
      10:	02000017 	andeq	r0, r0, #23, 0
      14:	0b0b0024 	bleq	2c00ac <__bss_end__+0x2b60a4>
      18:	08030b3e 	stmdaeq	r3, {r1, r2, r3, r4, r5, r8, r9, fp}
      1c:	24030000 	strcs	r0, [r3], #-0
      20:	3e0b0b00 	vmlacc.f64	d0, d11, d0
      24:	000e030b 	andeq	r0, lr, fp, lsl #6
      28:	00160400 	andseq	r0, r6, r0, lsl #8
      2c:	0b3a0e03 	bleq	e83840 <__bss_end__+0xe79838>
      30:	0b390b3b 	bleq	e42d24 <__bss_end__+0xe38d1c>
      34:	00001349 	andeq	r1, r0, r9, asr #6
      38:	27011505 	strcs	r1, [r1, -r5, lsl #10]
      3c:	01134919 	tsteq	r3, r9, lsl r9
      40:	06000013 			; <UNDEFINED> instruction: 0x06000013
      44:	13490005 	movtne	r0, #36869	; 0x9005
      48:	34070000 	strcc	r0, [r7], #-0
      4c:	3a0e0300 	bcc	380c54 <__bss_end__+0x376c4c>
      50:	390b3b0b 	stmdbcc	fp, {r0, r1, r3, r8, r9, fp, ip, sp}
      54:	3f13490b 	svccc	0x0013490b
      58:	00193c19 	andseq	r3, r9, r9, lsl ip
      5c:	000f0800 	andeq	r0, pc, r0, lsl #16
      60:	13490b0b 	movtne	r0, #39691	; 0x9b0b
      64:	26090000 	strcs	r0, [r9], -r0
      68:	00134900 	andseq	r4, r3, r0, lsl #18
      6c:	012e0a00 			; <UNDEFINED> instruction: 0x012e0a00
      70:	0e03193f 			; <UNDEFINED> instruction: 0x0e03193f
      74:	0b3b0b3a 	bleq	ec2d64 <__bss_end__+0xeb8d5c>
      78:	19270b39 	stmdbne	r7!, {r0, r3, r4, r5, r8, r9, fp}
      7c:	06120111 			; <UNDEFINED> instruction: 0x06120111
      80:	42971840 	addsmi	r1, r7, #64, 16	; 0x400000
      84:	00130119 	andseq	r0, r3, r9, lsl r1
      88:	00340b00 	eorseq	r0, r4, r0, lsl #22
      8c:	0b3a0e03 	bleq	e838a0 <__bss_end__+0xe79898>
      90:	0b390b3b 	bleq	e42d84 <__bss_end__+0xe38d7c>
      94:	18021349 	stmdane	r2, {r0, r3, r6, r8, r9, ip}
      98:	340c0000 	strcc	r0, [ip], #-0
      9c:	3a0e0300 	bcc	380ca4 <__bss_end__+0x376c9c>
      a0:	390b3b0b 	stmdbcc	fp, {r0, r1, r3, r8, r9, fp, ip, sp}
      a4:	0213490b 	andseq	r4, r3, #180224	; 0x2c000
      a8:	1742b717 	smlaldne	fp, r2, r7, r7
      ac:	340d0000 	strcc	r0, [sp], #-0
      b0:	3a080300 	bcc	200cb8 <__bss_end__+0x1f6cb0>
      b4:	390b3b0b 	stmdbcc	fp, {r0, r1, r3, r8, r9, fp, ip, sp}
      b8:	0213490b 	andseq	r4, r3, #180224	; 0x2c000
      bc:	1742b717 	smlaldne	fp, r2, r7, r7
      c0:	0b0e0000 	bleq	3800c8 <__bss_end__+0x3760c0>
      c4:	01175501 	tsteq	r7, r1, lsl #10
      c8:	0f000013 	svceq	0x00000013
      cc:	0111010b 	tsteq	r1, fp, lsl #2
      d0:	13010612 	movwne	r0, #5650	; 0x1612
      d4:	89100000 	ldmdbhi	r0, {}	; <UNPREDICTABLE>
      d8:	11010182 	smlabbne	r1, r2, r1, r0
      dc:	00133101 	andseq	r3, r3, r1, lsl #2
      e0:	828a1100 	addhi	r1, sl, #0
      e4:	18020001 	stmdane	r2, {r0}
      e8:	00184291 	mulseq	r8, r1, r2
      ec:	82891200 	addhi	r1, r9, #0, 4
      f0:	01110001 	tsteq	r1, r1
      f4:	00001331 	andeq	r1, r0, r1, lsr r3
      f8:	01828913 	orreq	r8, r2, r3, lsl r9
      fc:	31011101 	tstcc	r1, r1, lsl #2
     100:	00130113 	andseq	r0, r3, r3, lsl r1
     104:	01011400 	tsteq	r1, r0, lsl #8
     108:	13011349 	movwne	r1, #4937	; 0x1349
     10c:	21150000 	tstcs	r5, r0
     110:	2f134900 	svccs	0x00134900
     114:	1600000b 	strne	r0, [r0], -fp
     118:	193f002e 	ldmdbne	pc!, {r1, r2, r3, r5}	; <UNPREDICTABLE>
     11c:	0e6e193c 			; <UNDEFINED> instruction: 0x0e6e193c
     120:	0b3a0e03 	bleq	e83934 <__bss_end__+0xe7992c>
     124:	0b390b3b 	bleq	e42e18 <__bss_end__+0xe38e10>
     128:	01000000 	mrseq	r0, (UNDEF: 0)
     12c:	0e250111 	mcreq	1, 1, r0, cr5, cr1, {0}
     130:	0e030b13 	vmoveq.32	d3[0], r0
     134:	01110e1b 	tsteq	r1, fp, lsl lr
     138:	17100612 			; <UNDEFINED> instruction: 0x17100612
     13c:	24020000 	strcs	r0, [r2], #-0
     140:	3e0b0b00 	vmlacc.f64	d0, d11, d0
     144:	0008030b 	andeq	r0, r8, fp, lsl #6
     148:	00240300 	eoreq	r0, r4, r0, lsl #6
     14c:	0b3e0b0b 	bleq	f82d80 <__bss_end__+0xf78d78>
     150:	00000e03 	andeq	r0, r0, r3, lsl #28
     154:	03001604 	movweq	r1, #1540	; 0x604
     158:	3b0b3a0e 	blcc	2ce998 <__bss_end__+0x2c4990>
     15c:	490b390b 	stmdbmi	fp, {r0, r1, r3, r8, fp, ip, sp}
     160:	05000013 	streq	r0, [r0, #-19]	; 0xffffffed
     164:	19270115 	stmdbne	r7!, {r0, r2, r4, r8}
     168:	13011349 	movwne	r1, #4937	; 0x1349
     16c:	05060000 	streq	r0, [r6, #-0]
     170:	00134900 	andseq	r4, r3, r0, lsl #18
     174:	00340700 	eorseq	r0, r4, r0, lsl #14
     178:	0b3a0e03 	bleq	e8398c <__bss_end__+0xe79984>
     17c:	0b390b3b 	bleq	e42e70 <__bss_end__+0xe38e68>
     180:	193f1349 	ldmdbne	pc!, {r0, r3, r6, r8, r9, ip}	; <UNPREDICTABLE>
     184:	0000193c 	andeq	r1, r0, ip, lsr r9
     188:	0b000f08 	bleq	3db0 <__code_start__-0x4250>
     18c:	0013490b 	andseq	r4, r3, fp, lsl #18
     190:	00260900 	eoreq	r0, r6, r0, lsl #18
     194:	00001349 	andeq	r1, r0, r9, asr #6
     198:	3e01040a 	cdpcc	4, 0, cr0, cr1, cr10, {0}
     19c:	490b0b0b 	stmdbmi	fp, {r0, r1, r3, r8, r9, fp}
     1a0:	3b0b3a13 	blcc	2ce9f4 <__bss_end__+0x2c49ec>
     1a4:	010b390b 	tsteq	fp, fp, lsl #18
     1a8:	0b000013 	bleq	1fc <__code_start__-0x7e04>
     1ac:	0e030028 	cdpeq	0, 0, cr0, cr3, cr8, {1}
     1b0:	00000b1c 	andeq	r0, r0, ip, lsl fp
     1b4:	0b01130c 	bleq	44dec <__bss_end__+0x3ade4>
     1b8:	3b0b3a0b 	blcc	2ce9ec <__bss_end__+0x2c49e4>
     1bc:	010b390b 	tsteq	fp, fp, lsl #18
     1c0:	0d000013 	stceq	0, cr0, [r0, #-76]	; 0xffffffb4
     1c4:	0803000d 	stmdaeq	r3, {r0, r2, r3}
     1c8:	0b3b0b3a 	bleq	ec2eb8 <__bss_end__+0xeb8eb0>
     1cc:	13490b39 	movtne	r0, #39737	; 0x9b39
     1d0:	00000b38 	andeq	r0, r0, r8, lsr fp
     1d4:	03000d0e 	movweq	r0, #3342	; 0xd0e
     1d8:	3b0b3a0e 	blcc	2cea18 <__bss_end__+0x2c4a10>
     1dc:	490b390b 	stmdbmi	fp, {r0, r1, r3, r8, fp, ip, sp}
     1e0:	000b3813 	andeq	r3, fp, r3, lsl r8
     1e4:	00350f00 	eorseq	r0, r5, r0, lsl #30
     1e8:	00001349 	andeq	r1, r0, r9, asr #6
     1ec:	49010110 	stmdbmi	r1, {r4, r8}
     1f0:	00130113 	andseq	r0, r3, r3, lsl r1
     1f4:	00211100 	eoreq	r1, r1, r0, lsl #2
     1f8:	0b2f1349 	bleq	bc4f24 <__bss_end__+0xbbaf1c>
     1fc:	34120000 	ldrcc	r0, [r2], #-0
     200:	3a0e0300 	bcc	380e08 <__bss_end__+0x376e00>
     204:	390b3b0b 	stmdbcc	fp, {r0, r1, r3, r8, r9, fp, ip, sp}
     208:	3f13490b 	svccc	0x0013490b
     20c:	00180219 	andseq	r0, r8, r9, lsl r2
     210:	00281300 	eoreq	r1, r8, r0, lsl #6
     214:	061c0e03 	ldreq	r0, [ip], -r3, lsl #28
     218:	2e140000 	cdpcs	0, 1, cr0, cr4, cr0, {0}
     21c:	03193f01 	tsteq	r9, #1, 30
     220:	3b0b3a0e 	blcc	2cea60 <__bss_end__+0x2c4a58>
     224:	270b390b 	strcs	r3, [fp, -fp, lsl #18]
     228:	11134919 	tstne	r3, r9, lsl r9
     22c:	40061201 	andmi	r1, r6, r1, lsl #4
     230:	19429718 	stmdbne	r2, {r3, r4, r8, r9, sl, ip, pc}^
     234:	00001301 	andeq	r1, r0, r1, lsl #6
     238:	03003415 	movweq	r3, #1045	; 0x415
     23c:	3b0b3a08 	blcc	2cea64 <__bss_end__+0x2c4a5c>
     240:	490b390b 	stmdbmi	fp, {r0, r1, r3, r8, fp, ip, sp}
     244:	b7170213 			; <UNDEFINED> instruction: 0xb7170213
     248:	00001742 	andeq	r1, r0, r2, asr #14
     24c:	01828916 	orreq	r8, r2, r6, lsl r9
     250:	31011100 	mrscc	r1, (UNDEF: 17)
     254:	17000013 	smladne	r0, r3, r0, r0
     258:	01018289 	smlabbeq	r1, r9, r2, r8
     25c:	13310111 	teqne	r1, #1073741828	; 0x40000004
     260:	00001301 	andeq	r1, r0, r1, lsl #6
     264:	01828a18 	orreq	r8, r2, r8, lsl sl
     268:	91180200 	tstls	r8, r0, lsl #4
     26c:	00001842 	andeq	r1, r0, r2, asr #16
     270:	01828919 	orreq	r8, r2, r9, lsl r9
     274:	95011101 	strls	r1, [r1, #-257]	; 0xfffffeff
     278:	13311942 	teqne	r1, #1081344	; 0x108000
     27c:	2e1a0000 	cdpcs	0, 1, cr0, cr10, cr0, {0}
     280:	03193f01 	tsteq	r9, #1, 30
     284:	3b0b3a0e 	blcc	2ceac4 <__bss_end__+0x2c4abc>
     288:	270b390b 	strcs	r3, [fp, -fp, lsl #18]
     28c:	12011119 	andne	r1, r1, #1073741830	; 0x40000006
     290:	97184006 	ldrls	r4, [r8, -r6]
     294:	13011942 	movwne	r1, #6466	; 0x1942
     298:	341b0000 	ldrcc	r0, [fp], #-0
     29c:	490e0300 	stmdbmi	lr, {r8, r9}
     2a0:	02193413 	andseq	r3, r9, #318767104	; 0x13000000
     2a4:	1c000018 	stcne	0, cr0, [r0], {24}
     2a8:	1331011d 	teqne	r1, #1073741831	; 0x40000007
     2ac:	42b80152 	adcsmi	r0, r8, #-2147483628	; 0x80000014
     2b0:	58175505 	ldmdapl	r7, {r0, r2, r8, sl, ip, lr}
     2b4:	570b590b 	strpl	r5, [fp, -fp, lsl #18]
     2b8:	0013010b 	andseq	r0, r3, fp, lsl #2
     2bc:	00051d00 	andeq	r1, r5, r0, lsl #26
     2c0:	17021331 	smladxne	r2, r1, r3, r1
     2c4:	001742b7 			; <UNDEFINED> instruction: 0x001742b7
     2c8:	011d1e00 	tsteq	sp, r0, lsl #28
     2cc:	01521331 	cmpeq	r2, r1, lsr r3
     2d0:	110542b8 			; <UNDEFINED> instruction: 0x110542b8
     2d4:	58061201 	stmdapl	r6, {r0, r9, ip}
     2d8:	570b590b 	strpl	r5, [fp, -fp, lsl #18]
     2dc:	0013010b 	andseq	r0, r3, fp, lsl #2
     2e0:	010b1f00 	tsteq	fp, r0, lsl #30
     2e4:	00001755 	andeq	r1, r0, r5, asr r7
     2e8:	31003420 	tstcc	r0, r0, lsr #8
     2ec:	b7170213 			; <UNDEFINED> instruction: 0xb7170213
     2f0:	00001742 	andeq	r1, r0, r2, asr #14
     2f4:	55000b21 	strpl	r0, [r0, #-2849]	; 0xfffff4df
     2f8:	22000017 	andcs	r0, r0, #23, 0
     2fc:	1331011d 	teqne	r1, #1073741831	; 0x40000007
     300:	42b80152 	adcsmi	r0, r8, #-2147483628	; 0x80000014
     304:	12011105 	andne	r1, r1, #1073741825	; 0x40000001
     308:	590b5806 	stmdbpl	fp, {r1, r2, fp, ip, lr}
     30c:	000b570b 	andeq	r5, fp, fp, lsl #14
     310:	82892300 	addhi	r2, r9, #0, 6
     314:	01110001 	tsteq	r1, r1
     318:	31194295 			; <UNDEFINED> instruction: 0x31194295
     31c:	24000013 	strcs	r0, [r0], #-19	; 0xffffffed
     320:	193f012e 	ldmdbne	pc!, {r1, r2, r3, r5, r8}	; <UNPREDICTABLE>
     324:	0b3a0e03 	bleq	e83b38 <__bss_end__+0xe79b30>
     328:	0b390b3b 	bleq	e4301c <__bss_end__+0xe39014>
     32c:	13491927 	movtne	r1, #39207	; 0x9927
     330:	13010b20 	movwne	r0, #6944	; 0x1b20
     334:	05250000 	streq	r0, [r5, #-0]!
     338:	3a080300 	bcc	200f40 <__bss_end__+0x1f6f38>
     33c:	390b3b0b 	stmdbcc	fp, {r0, r1, r3, r8, r9, fp, ip, sp}
     340:	0013490b 	andseq	r4, r3, fp, lsl #18
     344:	012e2600 			; <UNDEFINED> instruction: 0x012e2600
     348:	0b3a0e03 	bleq	e83b5c <__bss_end__+0xe79b54>
     34c:	0b390b3b 	bleq	e43040 <__bss_end__+0xe39038>
     350:	13491927 	movtne	r1, #39207	; 0x9927
     354:	13010b20 	movwne	r0, #6944	; 0x1b20
     358:	34270000 	strtcc	r0, [r7], #-0
     35c:	3a080300 	bcc	200f64 <__bss_end__+0x1f6f5c>
     360:	390b3b0b 	stmdbcc	fp, {r0, r1, r3, r8, r9, fp, ip, sp}
     364:	0013490b 	andseq	r4, r3, fp, lsl #18
     368:	00342800 	eorseq	r2, r4, r0, lsl #16
     36c:	13490e03 	movtne	r0, #40451	; 0x9e03
     370:	00001934 	andeq	r1, r0, r4, lsr r9
     374:	03003429 	movweq	r3, #1065	; 0x429
     378:	3b0b3a0e 	blcc	2cebb8 <__bss_end__+0x2c4bb0>
     37c:	490b390b 	stmdbmi	fp, {r0, r1, r3, r8, fp, ip, sp}
     380:	2a000013 	bcs	3d4 <__code_start__-0x7c2c>
     384:	0e030005 	cdpeq	0, 0, cr0, cr3, cr5, {0}
     388:	0b3b0b3a 	bleq	ec3078 <__bss_end__+0xeb9070>
     38c:	13490b39 	movtne	r0, #39737	; 0x9b39
     390:	342b0000 	strtcc	r0, [fp], #-0
     394:	490e0300 	stmdbmi	lr, {r8, r9}
     398:	1c193413 	cfldrsne	mvf3, [r9], {19}
     39c:	2c00000e 	stccs	0, cr0, [r0], {14}
     3a0:	1331012e 	teqne	r1, #-2147483637	; 0x8000000b
     3a4:	06120111 			; <UNDEFINED> instruction: 0x06120111
     3a8:	42971840 	addsmi	r1, r7, #64, 16	; 0x400000
     3ac:	00130119 	andseq	r0, r3, r9, lsl r1
     3b0:	00342d00 	eorseq	r2, r4, r0, lsl #26
     3b4:	00001331 	andeq	r1, r0, r1, lsr r3
     3b8:	3f002e2e 	svccc	0x00002e2e
     3bc:	6e193c19 	mrcvs	12, 0, r3, cr9, cr9, {0}
     3c0:	3a0e030e 	bcc	381000 <__bss_end__+0x376ff8>
     3c4:	390b3b0b 	stmdbcc	fp, {r0, r1, r3, r8, r9, fp, ip, sp}
     3c8:	0000000b 	andeq	r0, r0, fp
     3cc:	25011101 	strcs	r1, [r1, #-257]	; 0xfffffeff
     3d0:	030b130e 	movweq	r1, #45838	; 0xb30e
     3d4:	110e1b0e 	tstne	lr, lr, lsl #22
     3d8:	10061201 	andne	r1, r6, r1, lsl #4
     3dc:	02000017 	andeq	r0, r0, #23, 0
     3e0:	0b0b0024 	bleq	2c0478 <__bss_end__+0x2b6470>
     3e4:	08030b3e 	stmdaeq	r3, {r1, r2, r3, r4, r5, r8, r9, fp}
     3e8:	24030000 	strcs	r0, [r3], #-0
     3ec:	3e0b0b00 	vmlacc.f64	d0, d11, d0
     3f0:	000e030b 	andeq	r0, lr, fp, lsl #6
     3f4:	00160400 	andseq	r0, r6, r0, lsl #8
     3f8:	0b3a0e03 	bleq	e83c0c <__bss_end__+0xe79c04>
     3fc:	0b390b3b 	bleq	e430f0 <__bss_end__+0xe390e8>
     400:	00001349 	andeq	r1, r0, r9, asr #6
     404:	27011505 	strcs	r1, [r1, -r5, lsl #10]
     408:	01134919 	tsteq	r3, r9, lsl r9
     40c:	06000013 			; <UNDEFINED> instruction: 0x06000013
     410:	13490005 	movtne	r0, #36869	; 0x9005
     414:	34070000 	strcc	r0, [r7], #-0
     418:	3a0e0300 	bcc	381020 <__bss_end__+0x377018>
     41c:	390b3b0b 	stmdbcc	fp, {r0, r1, r3, r8, r9, fp, ip, sp}
     420:	3f13490b 	svccc	0x0013490b
     424:	00193c19 	andseq	r3, r9, r9, lsl ip
     428:	000f0800 	andeq	r0, pc, r0, lsl #16
     42c:	13490b0b 	movtne	r0, #39691	; 0x9b0b
     430:	26090000 	strcs	r0, [r9], -r0
     434:	00134900 	andseq	r4, r3, r0, lsl #18
     438:	01010a00 	tsteq	r1, r0, lsl #20
     43c:	13011349 	movwne	r1, #4937	; 0x1349
     440:	210b0000 	mrscs	r0, (UNDEF: 11)
     444:	2f134900 	svccs	0x00134900
     448:	0c000005 	stceq	0, cr0, [r0], {5}
     44c:	0e030034 	mcreq	0, 0, r0, cr3, cr4, {1}
     450:	0b3b0b3a 	bleq	ec3140 <__bss_end__+0xeb9138>
     454:	13490b39 	movtne	r0, #39737	; 0x9b39
     458:	1802193f 	stmdane	r2, {r0, r1, r2, r3, r4, r5, r8, fp, ip}
     45c:	2e0d0000 	cdpcs	0, 0, cr0, cr13, cr0, {0}
     460:	03193f01 	tsteq	r9, #1, 30
     464:	3b0b3a0e 	blcc	2ceca4 <__bss_end__+0x2c4c9c>
     468:	270b390b 	strcs	r3, [fp, -fp, lsl #18]
     46c:	11134919 	tstne	r3, r9, lsl r9
     470:	40061201 	andmi	r1, r6, r1, lsl #4
     474:	19429718 	stmdbne	r2, {r3, r4, r8, r9, sl, ip, pc}^
     478:	00001301 	andeq	r1, r0, r1, lsl #6
     47c:	0300050e 	movweq	r0, #1294	; 0x50e
     480:	3b0b3a0e 	blcc	2cecc0 <__bss_end__+0x2c4cb8>
     484:	490b390b 	stmdbmi	fp, {r0, r1, r3, r8, fp, ip, sp}
     488:	b7170213 			; <UNDEFINED> instruction: 0xb7170213
     48c:	00001742 	andeq	r1, r0, r2, asr #14
     490:	0300340f 	movweq	r3, #1039	; 0x40f
     494:	3413490e 	ldrcc	r4, [r3], #-2318	; 0xfffff6f2
     498:	00180219 	andseq	r0, r8, r9, lsl r2
     49c:	00341000 	eorseq	r1, r4, r0
     4a0:	0b3a0803 	bleq	e824b4 <__bss_end__+0xe784ac>
     4a4:	0b390b3b 	bleq	e43198 <__bss_end__+0xe39190>
     4a8:	00001349 	andeq	r1, r0, r9, asr #6
     4ac:	03003411 	movweq	r3, #1041	; 0x411
     4b0:	3b0b3a0e 	blcc	2cecf0 <__bss_end__+0x2c4ce8>
     4b4:	490b390b 	stmdbmi	fp, {r0, r1, r3, r8, fp, ip, sp}
     4b8:	12000013 	andne	r0, r0, #19, 0
     4bc:	1301010b 	movwne	r0, #4363	; 0x110b
     4c0:	89130000 	ldmdbhi	r3, {}	; <UNPREDICTABLE>
     4c4:	11010182 	smlabbne	r1, r2, r1, r0
     4c8:	01133101 	tsteq	r3, r1, lsl #2
     4cc:	14000013 	strne	r0, [r0], #-19	; 0xffffffed
     4d0:	0001828a 	andeq	r8, r1, sl, lsl #5
     4d4:	42911802 	addsmi	r1, r1, #131072	; 0x20000
     4d8:	15000018 	strne	r0, [r0, #-24]	; 0xffffffe8
     4dc:	00018289 	andeq	r8, r1, r9, lsl #5
     4e0:	13310111 	teqne	r1, #1073741828	; 0x40000004
     4e4:	21160000 	tstcs	r6, r0
     4e8:	2f134900 	svccs	0x00134900
     4ec:	1700000b 	strne	r0, [r0, -fp]
     4f0:	08030034 	stmdaeq	r3, {r2, r4, r5}
     4f4:	0b3b0b3a 	bleq	ec31e4 <__bss_end__+0xeb91dc>
     4f8:	13490b39 	movtne	r0, #39737	; 0x9b39
     4fc:	42b71702 	adcsmi	r1, r7, #524288	; 0x80000
     500:	18000017 	stmdane	r0, {r0, r1, r2, r4}
     504:	0e030034 	mcreq	0, 0, r0, cr3, cr4, {1}
     508:	0b3b0b3a 	bleq	ec31f8 <__bss_end__+0xeb91f0>
     50c:	13490b39 	movtne	r0, #39737	; 0x9b39
     510:	42b71702 	adcsmi	r1, r7, #524288	; 0x80000
     514:	19000017 	stmdbne	r0, {r0, r1, r2, r4}
     518:	1755010b 	ldrbne	r0, [r5, -fp, lsl #2]
     51c:	00001301 	andeq	r1, r0, r1, lsl #6
     520:	11010b1a 	tstne	r1, sl, lsl fp
     524:	00061201 	andeq	r1, r6, r1, lsl #4
     528:	010b1b00 	tsteq	fp, r0, lsl #22
     52c:	0b1c0000 	bleq	700534 <__bss_end__+0x6f652c>
     530:	00175501 	andseq	r5, r7, r1, lsl #10
     534:	011d1d00 	tsteq	sp, r0, lsl #26
     538:	01521331 	cmpeq	r2, r1, lsr r3
     53c:	550542b8 	strpl	r4, [r5, #-696]	; 0xfffffd48
     540:	590b5817 	stmdbpl	fp, {r0, r1, r2, r4, fp, ip, lr}
     544:	010b570b 	tsteq	fp, fp, lsl #14
     548:	1e000013 	mcrne	0, 0, r0, cr0, cr3, {0}
     54c:	13310005 	teqne	r1, #5, 0
     550:	42b71702 	adcsmi	r1, r7, #524288	; 0x80000
     554:	1f000017 	svcne	0x00000017
     558:	13310034 	teqne	r1, #52, 0	; 0x34
     55c:	42b71702 	adcsmi	r1, r7, #524288	; 0x80000
     560:	20000017 	andcs	r0, r0, r7, lsl r0
     564:	1331011d 	teqne	r1, #1073741831	; 0x40000007
     568:	42b80152 	adcsmi	r0, r8, #-2147483628	; 0x80000014
     56c:	58175505 	ldmdapl	r7, {r0, r2, r8, sl, ip, lr}
     570:	570b590b 	strpl	r5, [fp, -fp, lsl #18]
     574:	2100000b 	tstcs	r0, fp
     578:	193f012e 	ldmdbne	pc!, {r1, r2, r3, r5, r8}	; <UNPREDICTABLE>
     57c:	0b3a0e03 	bleq	e83d90 <__bss_end__+0xe79d88>
     580:	0b390b3b 	bleq	e43274 <__bss_end__+0xe3926c>
     584:	13491927 	movtne	r1, #39207	; 0x9927
     588:	13010b20 	movwne	r0, #6944	; 0x1b20
     58c:	05220000 	streq	r0, [r2, #-0]!
     590:	3a080300 	bcc	201198 <__bss_end__+0x1f7190>
     594:	390b3b0b 	stmdbcc	fp, {r0, r1, r3, r8, r9, fp, ip, sp}
     598:	0013490b 	andseq	r4, r3, fp, lsl #18
     59c:	002e2300 	eoreq	r2, lr, r0, lsl #6
     5a0:	193c193f 	ldmdbne	ip!, {r0, r1, r2, r3, r4, r5, r8, fp, ip}
     5a4:	0e030e6e 	cdpeq	14, 0, cr0, cr3, cr14, {3}
     5a8:	0b3b0b3a 	bleq	ec3298 <__bss_end__+0xeb9290>
     5ac:	00000b39 	andeq	r0, r0, r9, lsr fp
     5b0:	01110100 	tsteq	r1, r0, lsl #2
     5b4:	0b130e25 	bleq	4c3e50 <__bss_end__+0x4b9e48>
     5b8:	0e1b0e03 	cdpeq	14, 1, cr0, cr11, cr3, {0}
     5bc:	06120111 			; <UNDEFINED> instruction: 0x06120111
     5c0:	00001710 	andeq	r1, r0, r0, lsl r7
     5c4:	03001602 	movweq	r1, #1538	; 0x602
     5c8:	3b0b3a0e 	blcc	2cee08 <__bss_end__+0x2c4e00>
     5cc:	490b390b 	stmdbmi	fp, {r0, r1, r3, r8, fp, ip, sp}
     5d0:	03000013 	movweq	r0, #19
     5d4:	0e030113 	mcreq	1, 0, r0, cr3, cr3, {0}
     5d8:	0b3a0b0b 	bleq	e8320c <__bss_end__+0xe79204>
     5dc:	13010b3b 	movwne	r0, #6971	; 0x1b3b
     5e0:	0d040000 	stceq	0, cr0, [r4, #-0]
     5e4:	490e0300 	stmdbmi	lr, {r8, r9}
     5e8:	340b3813 	strcc	r3, [fp], #-2067	; 0xfffff7ed
     5ec:	05000019 	streq	r0, [r0, #-25]	; 0xffffffe7
     5f0:	0b0b000f 	bleq	2c0634 <__bss_end__+0x2b662c>
     5f4:	24060000 	strcs	r0, [r6], #-0
     5f8:	3e0b0b00 	vmlacc.f64	d0, d11, d0
     5fc:	0008030b 	andeq	r0, r8, fp, lsl #6
     600:	00240700 	eoreq	r0, r4, r0, lsl #14
     604:	0b3e0b0b 	bleq	f83238 <__bss_end__+0xf79230>
     608:	00000e03 	andeq	r0, r0, r3, lsl #28
     60c:	27011508 	strcs	r1, [r1, -r8, lsl #10]
     610:	01134919 	tsteq	r3, r9, lsl r9
     614:	09000013 	stmdbeq	r0, {r0, r1, r4}
     618:	13490005 	movtne	r0, #36869	; 0x9005
     61c:	340a0000 	strcc	r0, [sl], #-0
     620:	3a0e0300 	bcc	381228 <__bss_end__+0x377220>
     624:	390b3b0b 	stmdbcc	fp, {r0, r1, r3, r8, r9, fp, ip, sp}
     628:	3f13490b 	svccc	0x0013490b
     62c:	00193c19 	andseq	r3, r9, r9, lsl ip
     630:	000f0b00 	andeq	r0, pc, r0, lsl #22
     634:	13490b0b 	movtne	r0, #39691	; 0x9b0b
     638:	260c0000 	strcs	r0, [ip], -r0
     63c:	00134900 	andseq	r4, r3, r0, lsl #18
     640:	012e0d00 			; <UNDEFINED> instruction: 0x012e0d00
     644:	0e03193f 			; <UNDEFINED> instruction: 0x0e03193f
     648:	0b3b0b3a 	bleq	ec3338 <__bss_end__+0xeb9330>
     64c:	19270b39 	stmdbne	r7!, {r0, r3, r4, r5, r8, r9, fp}
     650:	01111349 	tsteq	r1, r9, asr #6
     654:	18400612 	stmdane	r0, {r1, r4, r9, sl}^
     658:	01194297 			; <UNDEFINED> instruction: 0x01194297
     65c:	0e000013 	mcreq	0, 0, r0, cr0, cr3, {0}
     660:	08030005 	stmdaeq	r3, {r0, r2}
     664:	0b3b0b3a 	bleq	ec3354 <__bss_end__+0xeb934c>
     668:	13490b39 	movtne	r0, #39737	; 0x9b39
     66c:	00001802 	andeq	r1, r0, r2, lsl #16
     670:	0000180f 	andeq	r1, r0, pc, lsl #16
     674:	00341000 	eorseq	r1, r4, r0
     678:	0b3a0803 	bleq	e8268c <__bss_end__+0xe78684>
     67c:	0b390b3b 	bleq	e43370 <__bss_end__+0xe39368>
     680:	18021349 	stmdane	r2, {r0, r3, r6, r8, r9, ip}
     684:	34110000 	ldrcc	r0, [r1], #-0
     688:	3a0e0300 	bcc	381290 <__bss_end__+0x377288>
     68c:	390b3b0b 	stmdbcc	fp, {r0, r1, r3, r8, r9, fp, ip, sp}
     690:	0213490b 	andseq	r4, r3, #180224	; 0x2c000
     694:	12000018 	andne	r0, r0, #24, 0
     698:	08030034 	stmdaeq	r3, {r2, r4, r5}
     69c:	0b3b0b3a 	bleq	ec338c <__bss_end__+0xeb9384>
     6a0:	13490b39 	movtne	r0, #39737	; 0x9b39
     6a4:	42b71702 	adcsmi	r1, r7, #524288	; 0x80000
     6a8:	13000017 	movwne	r0, #23
     6ac:	01018289 	smlabbeq	r1, r9, r2, r8
     6b0:	13310111 	teqne	r1, #1073741828	; 0x40000004
     6b4:	00001301 	andeq	r1, r0, r1, lsl #6
     6b8:	01828a14 	orreq	r8, r2, r4, lsl sl
     6bc:	91180200 	tstls	r8, r0, lsl #4
     6c0:	00001842 	andeq	r1, r0, r2, asr #16
     6c4:	01828915 	orreq	r8, r2, r5, lsl r9
     6c8:	00011101 	andeq	r1, r1, r1, lsl #2
     6cc:	01011600 	tsteq	r1, r0, lsl #12
     6d0:	13011349 	movwne	r1, #4937	; 0x1349
     6d4:	21170000 	tstcs	r7, r0
     6d8:	2f134900 	svccs	0x00134900
     6dc:	18000005 	stmdane	r0, {r0, r2}
     6e0:	193f002e 	ldmdbne	pc!, {r1, r2, r3, r5}	; <UNPREDICTABLE>
     6e4:	0e6e193c 			; <UNDEFINED> instruction: 0x0e6e193c
     6e8:	0b3a0e03 	bleq	e83efc <__bss_end__+0xe79ef4>
     6ec:	0b390b3b 	bleq	e433e0 <__bss_end__+0xe393d8>
     6f0:	01000000 	mrseq	r0, (UNDEF: 0)
     6f4:	0e250111 	mcreq	1, 1, r0, cr5, cr1, {0}
     6f8:	0e030b13 	vmoveq.32	d3[0], r0
     6fc:	01110e1b 	tsteq	r1, fp, lsl lr
     700:	17100612 			; <UNDEFINED> instruction: 0x17100612
     704:	24020000 	strcs	r0, [r2], #-0
     708:	3e0b0b00 	vmlacc.f64	d0, d11, d0
     70c:	0008030b 	andeq	r0, r8, fp, lsl #6
     710:	00240300 	eoreq	r0, r4, r0, lsl #6
     714:	0b3e0b0b 	bleq	f83348 <__bss_end__+0xf79340>
     718:	00000e03 	andeq	r0, r0, r3, lsl #28
     71c:	27011504 	strcs	r1, [r1, -r4, lsl #10]
     720:	01134919 	tsteq	r3, r9, lsl r9
     724:	05000013 	streq	r0, [r0, #-19]	; 0xffffffed
     728:	13490005 	movtne	r0, #36869	; 0x9005
     72c:	34060000 	strcc	r0, [r6], #-0
     730:	3a0e0300 	bcc	381338 <__bss_end__+0x377330>
     734:	390b3b0b 	stmdbcc	fp, {r0, r1, r3, r8, r9, fp, ip, sp}
     738:	3f13490b 	svccc	0x0013490b
     73c:	00193c19 	andseq	r3, r9, r9, lsl ip
     740:	000f0700 	andeq	r0, pc, r0, lsl #14
     744:	13490b0b 	movtne	r0, #39691	; 0x9b0b
     748:	26080000 	strcs	r0, [r8], -r0
     74c:	00134900 	andseq	r4, r3, r0, lsl #18
     750:	00340900 	eorseq	r0, r4, r0, lsl #18
     754:	0b3a1347 	bleq	e85478 <__bss_end__+0xe7b470>
     758:	0b390b3b 	bleq	e4344c <__bss_end__+0xe39444>
     75c:	00001802 	andeq	r1, r0, r2, lsl #16
     760:	3f012e0a 	svccc	0x00012e0a
     764:	3a0e0319 	bcc	3813d0 <__bss_end__+0x3773c8>
     768:	390b3b0b 	stmdbcc	fp, {r0, r1, r3, r8, r9, fp, ip, sp}
     76c:	4919270b 	ldmdbmi	r9, {r0, r1, r3, r8, r9, sl, sp}
     770:	12011113 	andne	r1, r1, #-1073741820	; 0xc0000004
     774:	96184006 	ldrls	r4, [r8], -r6
     778:	00001942 	andeq	r1, r0, r2, asr #18
     77c:	0300050b 	movweq	r0, #1291	; 0x50b
     780:	3b0b3a08 	blcc	2cefa8 <__bss_end__+0x2c4fa0>
     784:	490b390b 	stmdbmi	fp, {r0, r1, r3, r8, fp, ip, sp}
     788:	b7170213 			; <UNDEFINED> instruction: 0xb7170213
     78c:	00001742 	andeq	r1, r0, r2, asr #14
     790:	01110100 	tsteq	r1, r0, lsl #2
     794:	0b130e25 	bleq	4c4030 <__bss_end__+0x4ba028>
     798:	0e1b0e03 	cdpeq	14, 1, cr0, cr11, cr3, {0}
     79c:	06120111 			; <UNDEFINED> instruction: 0x06120111
     7a0:	00001710 	andeq	r1, r0, r0, lsl r7
     7a4:	0b002402 	bleq	97b4 <FFT_SINE_LUT+0x1b8>
     7a8:	030b3e0b 	movweq	r3, #48651	; 0xbe0b
     7ac:	03000008 	movweq	r0, #8
     7b0:	0b0b0024 	bleq	2c0848 <__bss_end__+0x2b6840>
     7b4:	0e030b3e 	vmoveq.16	d3[0], r0
     7b8:	16040000 	strne	r0, [r4], -r0
     7bc:	3a0e0300 	bcc	3813c4 <__bss_end__+0x3773bc>
     7c0:	390b3b0b 	stmdbcc	fp, {r0, r1, r3, r8, r9, fp, ip, sp}
     7c4:	0013490b 	andseq	r4, r3, fp, lsl #18
     7c8:	01150500 	tsteq	r5, r0, lsl #10
     7cc:	13491927 	movtne	r1, #39207	; 0x9927
     7d0:	00001301 	andeq	r1, r0, r1, lsl #6
     7d4:	49000506 	stmdbmi	r0, {r1, r2, r8, sl}
     7d8:	07000013 	smladeq	r0, r3, r0, r0
     7dc:	0e030034 	mcreq	0, 0, r0, cr3, cr4, {1}
     7e0:	0b3b0b3a 	bleq	ec34d0 <__bss_end__+0xeb94c8>
     7e4:	13490b39 	movtne	r0, #39737	; 0x9b39
     7e8:	193c193f 	ldmdbne	ip!, {r0, r1, r2, r3, r4, r5, r8, fp, ip}
     7ec:	0f080000 	svceq	0x00080000
     7f0:	490b0b00 	stmdbmi	fp, {r8, r9, fp}
     7f4:	09000013 	stmdbeq	r0, {r0, r1, r4}
     7f8:	13490026 	movtne	r0, #36902	; 0x9026
     7fc:	130a0000 	movwne	r0, #40960	; 0xa000
     800:	0b0e0301 	bleq	38140c <__bss_end__+0x377404>
     804:	3b0b3a0b 	blcc	2cf038 <__bss_end__+0x2c5030>
     808:	0013010b 	andseq	r0, r3, fp, lsl #2
     80c:	000d0b00 	andeq	r0, sp, r0, lsl #22
     810:	13490e03 	movtne	r0, #40451	; 0x9e03
     814:	19340b38 	ldmdbne	r4!, {r3, r4, r5, r8, r9, fp}
     818:	0f0c0000 	svceq	0x000c0000
     81c:	000b0b00 	andeq	r0, fp, r0, lsl #22
     820:	012e0d00 			; <UNDEFINED> instruction: 0x012e0d00
     824:	0e03193f 			; <UNDEFINED> instruction: 0x0e03193f
     828:	0b3b0b3a 	bleq	ec3518 <__bss_end__+0xeb9510>
     82c:	19270b39 	stmdbne	r7!, {r0, r3, r4, r5, r8, r9, fp}
     830:	01111349 	tsteq	r1, r9, asr #6
     834:	18400612 	stmdane	r0, {r1, r4, r9, sl}^
     838:	01194297 			; <UNDEFINED> instruction: 0x01194297
     83c:	0e000013 	mcreq	0, 0, r0, cr0, cr3, {0}
     840:	08030005 	stmdaeq	r3, {r0, r2}
     844:	0b3b0b3a 	bleq	ec3534 <__bss_end__+0xeb952c>
     848:	13490b39 	movtne	r0, #39737	; 0x9b39
     84c:	42b71702 	adcsmi	r1, r7, #524288	; 0x80000
     850:	0f000017 	svceq	0x00000017
     854:	0e030005 	cdpeq	0, 0, cr0, cr3, cr5, {0}
     858:	0b3b0b3a 	bleq	ec3548 <__bss_end__+0xeb9540>
     85c:	13490b39 	movtne	r0, #39737	; 0x9b39
     860:	00001802 	andeq	r1, r0, r2, lsl #16
     864:	03003410 	movweq	r3, #1040	; 0x410
     868:	3b0b3a08 	blcc	2cf090 <__bss_end__+0x2c5088>
     86c:	490b390b 	stmdbmi	fp, {r0, r1, r3, r8, fp, ip, sp}
     870:	b7170213 			; <UNDEFINED> instruction: 0xb7170213
     874:	00001742 	andeq	r1, r0, r2, asr #14
     878:	03003411 	movweq	r3, #1041	; 0x411
     87c:	3b0b3a0e 	blcc	2cf0bc <__bss_end__+0x2c50b4>
     880:	490b390b 	stmdbmi	fp, {r0, r1, r3, r8, fp, ip, sp}
     884:	b7170213 			; <UNDEFINED> instruction: 0xb7170213
     888:	00001742 	andeq	r1, r0, r2, asr #14
     88c:	03003412 	movweq	r3, #1042	; 0x412
     890:	3413490e 	ldrcc	r4, [r3], #-2318	; 0xfffff6f2
     894:	00180219 	andseq	r0, r8, r9, lsl r2
     898:	010b1300 	mrseq	r1, (UNDEF: 59)
     89c:	06120111 			; <UNDEFINED> instruction: 0x06120111
     8a0:	34140000 	ldrcc	r0, [r4], #-0
     8a4:	3a080300 	bcc	2014ac <__bss_end__+0x1f74a4>
     8a8:	390b3b0b 	stmdbcc	fp, {r0, r1, r3, r8, r9, fp, ip, sp}
     8ac:	0213490b 	andseq	r4, r3, #180224	; 0x2c000
     8b0:	15000018 	strne	r0, [r0, #-24]	; 0xffffffe8
     8b4:	0e030034 	mcreq	0, 0, r0, cr3, cr4, {1}
     8b8:	0b3b0b3a 	bleq	ec35a8 <__bss_end__+0xeb95a0>
     8bc:	13490b39 	movtne	r0, #39737	; 0x9b39
     8c0:	00001802 	andeq	r1, r0, r2, lsl #16
     8c4:	11010b16 	tstne	r1, r6, lsl fp
     8c8:	01061201 	tsteq	r6, r1, lsl #4
     8cc:	17000013 	smladne	r0, r3, r0, r0
     8d0:	08030034 	stmdaeq	r3, {r2, r4, r5}
     8d4:	0b3b0b3a 	bleq	ec35c4 <__bss_end__+0xeb95bc>
     8d8:	13490b39 	movtne	r0, #39737	; 0x9b39
     8dc:	89180000 	ldmdbhi	r8, {}	; <UNPREDICTABLE>
     8e0:	11010182 	smlabbne	r1, r2, r1, r0
     8e4:	01133101 	tsteq	r3, r1, lsl #2
     8e8:	19000013 	stmdbne	r0, {r0, r1, r4}
     8ec:	0001828a 	andeq	r8, r1, sl, lsl #5
     8f0:	42911802 	addsmi	r1, r1, #131072	; 0x20000
     8f4:	1a000018 	bne	95c <__code_start__-0x76a4>
     8f8:	00018289 	andeq	r8, r1, r9, lsl #5
     8fc:	13310111 	teqne	r1, #1073741828	; 0x40000004
     900:	891b0000 	ldmdbhi	fp, {}	; <UNPREDICTABLE>
     904:	11010182 	smlabbne	r1, r2, r1, r0
     908:	00130101 	andseq	r0, r3, r1, lsl #2
     90c:	01011c00 	tsteq	r1, r0, lsl #24
     910:	13011349 	movwne	r1, #4937	; 0x1349
     914:	211d0000 	tstcs	sp, r0
     918:	2f134900 	svccs	0x00134900
     91c:	1e00000b 	cdpne	0, 0, cr0, cr0, cr11, {0}
     920:	0e03012e 	adfeqsp	f0, f3, #0.5
     924:	0b3b0b3a 	bleq	ec3614 <__bss_end__+0xeb960c>
     928:	19270b39 	stmdbne	r7!, {r0, r3, r4, r5, r8, r9, fp}
     92c:	01111349 	tsteq	r1, r9, asr #6
     930:	18400612 	stmdane	r0, {r1, r4, r9, sl}^
     934:	01194297 			; <UNDEFINED> instruction: 0x01194297
     938:	1f000013 	svcne	0x00000013
     93c:	0e030005 	cdpeq	0, 0, cr0, cr3, cr5, {0}
     940:	0b3b0b3a 	bleq	ec3630 <__bss_end__+0xeb9628>
     944:	13490b39 	movtne	r0, #39737	; 0x9b39
     948:	42b71702 	adcsmi	r1, r7, #524288	; 0x80000
     94c:	20000017 	andcs	r0, r0, r7, lsl r0
     950:	0803012e 	stmdaeq	r3, {r1, r2, r3, r5, r8}
     954:	0b3b0b3a 	bleq	ec3644 <__bss_end__+0xeb963c>
     958:	19270b39 	stmdbne	r7!, {r0, r3, r4, r5, r8, r9, fp}
     95c:	01111349 	tsteq	r1, r9, asr #6
     960:	18400612 	stmdane	r0, {r1, r4, r9, sl}^
     964:	01194297 			; <UNDEFINED> instruction: 0x01194297
     968:	21000013 	tstcs	r0, r3, lsl r0
     96c:	193f012e 	ldmdbne	pc!, {r1, r2, r3, r5, r8}	; <UNPREDICTABLE>
     970:	0b3a0e03 	bleq	e84184 <__bss_end__+0xe7a17c>
     974:	0b390b3b 	bleq	e43668 <__bss_end__+0xe39660>
     978:	01111927 	tsteq	r1, r7, lsr #18
     97c:	18400612 	stmdane	r0, {r1, r4, r9, sl}^
     980:	01194297 			; <UNDEFINED> instruction: 0x01194297
     984:	22000013 	andcs	r0, r0, #19, 0
     988:	193f002e 	ldmdbne	pc!, {r1, r2, r3, r5}	; <UNPREDICTABLE>
     98c:	0e6e193c 			; <UNDEFINED> instruction: 0x0e6e193c
     990:	0b3a0e03 	bleq	e841a4 <__bss_end__+0xe7a19c>
     994:	0b390b3b 	bleq	e43688 <__bss_end__+0xe39680>
     998:	01000000 	mrseq	r0, (UNDEF: 0)
     99c:	0e250111 	mcreq	1, 1, r0, cr5, cr1, {0}
     9a0:	0e030b13 	vmoveq.32	d3[0], r0
     9a4:	01110e1b 	tsteq	r1, fp, lsl lr
     9a8:	17100612 			; <UNDEFINED> instruction: 0x17100612
     9ac:	24020000 	strcs	r0, [r2], #-0
     9b0:	3e0b0b00 	vmlacc.f64	d0, d11, d0
     9b4:	0008030b 	andeq	r0, r8, fp, lsl #6
     9b8:	00240300 	eoreq	r0, r4, r0, lsl #6
     9bc:	0b3e0b0b 	bleq	f835f0 <__bss_end__+0xf795e8>
     9c0:	00000e03 	andeq	r0, r0, r3, lsl #28
     9c4:	27011504 	strcs	r1, [r1, -r4, lsl #10]
     9c8:	01134919 	tsteq	r3, r9, lsl r9
     9cc:	05000013 	streq	r0, [r0, #-19]	; 0xffffffed
     9d0:	13490005 	movtne	r0, #36869	; 0x9005
     9d4:	34060000 	strcc	r0, [r6], #-0
     9d8:	3a0e0300 	bcc	3815e0 <__bss_end__+0x3775d8>
     9dc:	390b3b0b 	stmdbcc	fp, {r0, r1, r3, r8, r9, fp, ip, sp}
     9e0:	3f13490b 	svccc	0x0013490b
     9e4:	00193c19 	andseq	r3, r9, r9, lsl ip
     9e8:	000f0700 	andeq	r0, pc, r0, lsl #14
     9ec:	13490b0b 	movtne	r0, #39691	; 0x9b0b
     9f0:	26080000 	strcs	r0, [r8], -r0
     9f4:	00134900 	andseq	r4, r3, r0, lsl #18
     9f8:	012e0900 			; <UNDEFINED> instruction: 0x012e0900
     9fc:	0e03193f 			; <UNDEFINED> instruction: 0x0e03193f
     a00:	0b3b0b3a 	bleq	ec36f0 <__bss_end__+0xeb96e8>
     a04:	19270b39 	stmdbne	r7!, {r0, r3, r4, r5, r8, r9, fp}
     a08:	11190187 	tstne	r9, r7, lsl #3
     a0c:	40061201 	andmi	r1, r6, r1, lsl #4
     a10:	19429718 	stmdbne	r2, {r3, r4, r8, r9, sl, ip, pc}^
     a14:	00001301 	andeq	r1, r0, r1, lsl #6
     a18:	0182890a 	orreq	r8, r2, sl, lsl #18
     a1c:	01011101 	tsteq	r1, r1, lsl #2
     a20:	0b000013 	bleq	a74 <__code_start__-0x758c>
     a24:	0001828a 	andeq	r8, r1, sl, lsl #5
     a28:	42911802 	addsmi	r1, r1, #131072	; 0x20000
     a2c:	0c000018 	stceq	0, cr0, [r0], {24}
     a30:	00018289 	andeq	r8, r1, r9, lsl #5
     a34:	13310111 	teqne	r1, #1073741828	; 0x40000004
     a38:	890d0000 	stmdbhi	sp, {}	; <UNPREDICTABLE>
     a3c:	11010182 	smlabbne	r1, r2, r1, r0
     a40:	01133101 	tsteq	r3, r1, lsl #2
     a44:	0e000013 	mcreq	0, 0, r0, cr0, cr3, {0}
     a48:	193f002e 	ldmdbne	pc!, {r1, r2, r3, r5}	; <UNPREDICTABLE>
     a4c:	0e6e193c 			; <UNDEFINED> instruction: 0x0e6e193c
     a50:	0b3a0e03 	bleq	e84264 <__bss_end__+0xe7a25c>
     a54:	0b390b3b 	bleq	e43748 <__bss_end__+0xe39740>
     a58:	01000000 	mrseq	r0, (UNDEF: 0)
     a5c:	0e250111 	mcreq	1, 1, r0, cr5, cr1, {0}
     a60:	0e030b13 	vmoveq.32	d3[0], r0
     a64:	01110e1b 	tsteq	r1, fp, lsl lr
     a68:	17100612 			; <UNDEFINED> instruction: 0x17100612
     a6c:	24020000 	strcs	r0, [r2], #-0
     a70:	3e0b0b00 	vmlacc.f64	d0, d11, d0
     a74:	0008030b 	andeq	r0, r8, fp, lsl #6
     a78:	00240300 	eoreq	r0, r4, r0, lsl #6
     a7c:	0b3e0b0b 	bleq	f836b0 <__bss_end__+0xf796a8>
     a80:	00000e03 	andeq	r0, r0, r3, lsl #28
     a84:	27011504 	strcs	r1, [r1, -r4, lsl #10]
     a88:	01134919 	tsteq	r3, r9, lsl r9
     a8c:	05000013 	streq	r0, [r0, #-19]	; 0xffffffed
     a90:	13490005 	movtne	r0, #36869	; 0x9005
     a94:	34060000 	strcc	r0, [r6], #-0
     a98:	3a0e0300 	bcc	3816a0 <__bss_end__+0x377698>
     a9c:	390b3b0b 	stmdbcc	fp, {r0, r1, r3, r8, r9, fp, ip, sp}
     aa0:	3f13490b 	svccc	0x0013490b
     aa4:	00193c19 	andseq	r3, r9, r9, lsl ip
     aa8:	000f0700 	andeq	r0, pc, r0, lsl #14
     aac:	13490b0b 	movtne	r0, #39691	; 0x9b0b
     ab0:	26080000 	strcs	r0, [r8], -r0
     ab4:	00134900 	andseq	r4, r3, r0, lsl #18
     ab8:	012e0900 			; <UNDEFINED> instruction: 0x012e0900
     abc:	0e03193f 			; <UNDEFINED> instruction: 0x0e03193f
     ac0:	0b3b0b3a 	bleq	ec37b0 <__bss_end__+0xeb97a8>
     ac4:	01110b39 	tsteq	r1, r9, lsr fp
     ac8:	18400612 	stmdane	r0, {r1, r4, r9, sl}^
     acc:	01194297 			; <UNDEFINED> instruction: 0x01194297
     ad0:	0a000013 	beq	b24 <__code_start__-0x74dc>
     ad4:	193f002e 	ldmdbne	pc!, {r1, r2, r3, r5}	; <UNPREDICTABLE>
     ad8:	0b3a0e03 	bleq	e842ec <__bss_end__+0xe7a2e4>
     adc:	0b390b3b 	bleq	e437d0 <__bss_end__+0xe397c8>
     ae0:	193c1927 	ldmdbne	ip!, {r0, r1, r2, r5, r8, fp, ip}
     ae4:	340b0000 	strcc	r0, [fp], #-0
     ae8:	3a080300 	bcc	2016f0 <__bss_end__+0x1f76e8>
     aec:	390b3b0b 	stmdbcc	fp, {r0, r1, r3, r8, r9, fp, ip, sp}
     af0:	0213490b 	andseq	r4, r3, #180224	; 0x2c000
     af4:	1742b717 	smlaldne	fp, r2, r7, r7
     af8:	340c0000 	strcc	r0, [ip], #-0
     afc:	3a0e0300 	bcc	381704 <__bss_end__+0x3776fc>
     b00:	390b3b0b 	stmdbcc	fp, {r0, r1, r3, r8, r9, fp, ip, sp}
     b04:	0013490b 	andseq	r4, r3, fp, lsl #18
     b08:	010b0d00 	tsteq	fp, r0, lsl #26
     b0c:	06120111 			; <UNDEFINED> instruction: 0x06120111
     b10:	00001301 	andeq	r1, r0, r1, lsl #6
     b14:	0300340e 	movweq	r3, #1038	; 0x40e
     b18:	3b0b3a08 	blcc	2cf340 <__bss_end__+0x2c5338>
     b1c:	490b390b 	stmdbmi	fp, {r0, r1, r3, r8, fp, ip, sp}
     b20:	000b1c13 	andeq	r1, fp, r3, lsl ip
     b24:	82890f00 	addhi	r0, r9, #0, 30
     b28:	01110001 	tsteq	r1, r1
     b2c:	00001331 	andeq	r1, r0, r1, lsr r3
     b30:	3f002e10 	svccc	0x00002e10
     b34:	6e193c19 	mrcvs	12, 0, r3, cr9, cr9, {0}
     b38:	3a0e030e 	bcc	381778 <__bss_end__+0x377770>
     b3c:	39053b0b 	stmdbcc	r5, {r0, r1, r3, r8, r9, fp, ip, sp}
     b40:	1100000b 	tstne	r0, fp
     b44:	193f002e 	ldmdbne	pc!, {r1, r2, r3, r5}	; <UNPREDICTABLE>
     b48:	0e6e193c 			; <UNDEFINED> instruction: 0x0e6e193c
     b4c:	0b3a0e03 	bleq	e84360 <__bss_end__+0xe7a358>
     b50:	0b390b3b 	bleq	e43844 <__bss_end__+0xe3983c>
     b54:	01000000 	mrseq	r0, (UNDEF: 0)
     b58:	0e250111 	mcreq	1, 1, r0, cr5, cr1, {0}
     b5c:	0e030b13 	vmoveq.32	d3[0], r0
     b60:	01110e1b 	tsteq	r1, fp, lsl lr
     b64:	17100612 			; <UNDEFINED> instruction: 0x17100612
     b68:	24020000 	strcs	r0, [r2], #-0
     b6c:	3e0b0b00 	vmlacc.f64	d0, d11, d0
     b70:	0008030b 	andeq	r0, r8, fp, lsl #6
     b74:	00240300 	eoreq	r0, r4, r0, lsl #6
     b78:	0b3e0b0b 	bleq	f837ac <__bss_end__+0xf797a4>
     b7c:	00000e03 	andeq	r0, r0, r3, lsl #28
     b80:	27011504 	strcs	r1, [r1, -r4, lsl #10]
     b84:	01134919 	tsteq	r3, r9, lsl r9
     b88:	05000013 	streq	r0, [r0, #-19]	; 0xffffffed
     b8c:	13490005 	movtne	r0, #36869	; 0x9005
     b90:	34060000 	strcc	r0, [r6], #-0
     b94:	3a0e0300 	bcc	38179c <__bss_end__+0x377794>
     b98:	390b3b0b 	stmdbcc	fp, {r0, r1, r3, r8, r9, fp, ip, sp}
     b9c:	3f13490b 	svccc	0x0013490b
     ba0:	00193c19 	andseq	r3, r9, r9, lsl ip
     ba4:	000f0700 	andeq	r0, pc, r0, lsl #14
     ba8:	13490b0b 	movtne	r0, #39691	; 0x9b0b
     bac:	26080000 	strcs	r0, [r8], -r0
     bb0:	00134900 	andseq	r4, r3, r0, lsl #18
     bb4:	002e0900 	eoreq	r0, lr, r0, lsl #18
     bb8:	0e03193f 			; <UNDEFINED> instruction: 0x0e03193f
     bbc:	0b3b0b3a 	bleq	ec38ac <__bss_end__+0xeb98a4>
     bc0:	19270b39 	stmdbne	r7!, {r0, r3, r4, r5, r8, r9, fp}
     bc4:	06120111 			; <UNDEFINED> instruction: 0x06120111
     bc8:	42971840 	addsmi	r1, r7, #64, 16	; 0x400000
     bcc:	00000019 	andeq	r0, r0, r9, lsl r0
     bd0:	25011101 	strcs	r1, [r1, #-257]	; 0xfffffeff
     bd4:	030b130e 	movweq	r1, #45838	; 0xb30e
     bd8:	550e1b0e 	strpl	r1, [lr, #-2830]	; 0xfffff4f2
     bdc:	10011117 	andne	r1, r1, r7, lsl r1
     be0:	02000017 	andeq	r0, r0, #23, 0
     be4:	0b0b0024 	bleq	2c0c7c <__bss_end__+0x2b6c74>
     be8:	08030b3e 	stmdaeq	r3, {r1, r2, r3, r4, r5, r8, r9, fp}
     bec:	26030000 	strcs	r0, [r3], -r0
     bf0:	00134900 	andseq	r4, r3, r0, lsl #18
     bf4:	00240400 	eoreq	r0, r4, r0, lsl #8
     bf8:	0b3e0b0b 	bleq	f8382c <__bss_end__+0xf79824>
     bfc:	00000e03 	andeq	r0, r0, r3, lsl #28
     c00:	27011505 	strcs	r1, [r1, -r5, lsl #10]
     c04:	01134919 	tsteq	r3, r9, lsl r9
     c08:	06000013 			; <UNDEFINED> instruction: 0x06000013
     c0c:	13490005 	movtne	r0, #36869	; 0x9005
     c10:	34070000 	strcc	r0, [r7], #-0
     c14:	3a0e0300 	bcc	38181c <__bss_end__+0x377814>
     c18:	390b3b0b 	stmdbcc	fp, {r0, r1, r3, r8, r9, fp, ip, sp}
     c1c:	3f13490b 	svccc	0x0013490b
     c20:	00193c19 	andseq	r3, r9, r9, lsl ip
     c24:	000f0800 	andeq	r0, pc, r0, lsl #16
     c28:	13490b0b 	movtne	r0, #39691	; 0x9b0b
     c2c:	34090000 	strcc	r0, [r9], #-0
     c30:	3a0e0300 	bcc	381838 <__bss_end__+0x377830>
     c34:	390b3b0b 	stmdbcc	fp, {r0, r1, r3, r8, r9, fp, ip, sp}
     c38:	0013490b 	andseq	r4, r3, fp, lsl #18
     c3c:	012e0a00 			; <UNDEFINED> instruction: 0x012e0a00
     c40:	0e03193f 			; <UNDEFINED> instruction: 0x0e03193f
     c44:	0b3b0b3a 	bleq	ec3934 <__bss_end__+0xeb992c>
     c48:	19270b39 	stmdbne	r7!, {r0, r3, r4, r5, r8, r9, fp}
     c4c:	11190187 	tstne	r9, r7, lsl #3
     c50:	40061201 	andmi	r1, r6, r1, lsl #4
     c54:	19429718 	stmdbne	r2, {r3, r4, r8, r9, sl, ip, pc}^
     c58:	00001301 	andeq	r1, r0, r1, lsl #6
     c5c:	0300340b 	movweq	r3, #1035	; 0x40b
     c60:	3b0b3a0e 	blcc	2cf4a0 <__bss_end__+0x2c5498>
     c64:	490b390b 	stmdbmi	fp, {r0, r1, r3, r8, fp, ip, sp}
     c68:	b7170213 			; <UNDEFINED> instruction: 0xb7170213
     c6c:	00001742 	andeq	r1, r0, r2, asr #14
     c70:	0182890c 	orreq	r8, r2, ip, lsl #18
     c74:	31011100 	mrscc	r1, (UNDEF: 17)
     c78:	0d000013 	stceq	0, cr0, [r0, #-76]	; 0xffffffb4
     c7c:	01018289 	smlabbeq	r1, r9, r2, r8
     c80:	13310111 	teqne	r1, #1073741828	; 0x40000004
     c84:	00001301 	andeq	r1, r0, r1, lsl #6
     c88:	01828a0e 	orreq	r8, r2, lr, lsl #20
     c8c:	91180200 	tstls	r8, r0, lsl #4
     c90:	00001842 	andeq	r1, r0, r2, asr #16
     c94:	3f012e0f 	svccc	0x00012e0f
     c98:	3a0e0319 	bcc	381904 <__bss_end__+0x3778fc>
     c9c:	390b3b0b 	stmdbcc	fp, {r0, r1, r3, r8, r9, fp, ip, sp}
     ca0:	1119270b 	tstne	r9, fp, lsl #14
     ca4:	40061201 	andmi	r1, r6, r1, lsl #4
     ca8:	19429718 	stmdbne	r2, {r3, r4, r8, r9, sl, ip, pc}^
     cac:	00001301 	andeq	r1, r0, r1, lsl #6
     cb0:	3f012e10 	svccc	0x00012e10
     cb4:	3a0e0319 	bcc	381920 <__bss_end__+0x377918>
     cb8:	390b3b0b 	stmdbcc	fp, {r0, r1, r3, r8, r9, fp, ip, sp}
     cbc:	4919270b 	ldmdbmi	r9, {r0, r1, r3, r8, r9, sl, sp}
     cc0:	12011113 	andne	r1, r1, #-1073741820	; 0xc0000004
     cc4:	97184006 	ldrls	r4, [r8, -r6]
     cc8:	13011942 	movwne	r1, #6466	; 0x1942
     ccc:	2e110000 	cdpcs	0, 1, cr0, cr1, cr0, {0}
     cd0:	3c193f00 	ldccc	15, cr3, [r9], {-0}
     cd4:	030e6e19 	movweq	r6, #60953	; 0xee19
     cd8:	3b0b3a0e 	blcc	2cf518 <__bss_end__+0x2c5510>
     cdc:	000b3905 	andeq	r3, fp, r5, lsl #18
     ce0:	002e1200 	eoreq	r1, lr, r0, lsl #4
     ce4:	193c193f 	ldmdbne	ip!, {r0, r1, r2, r3, r4, r5, r8, fp, ip}
     ce8:	0e030e6e 	cdpeq	14, 0, cr0, cr3, cr14, {3}
     cec:	0b3b0b3a 	bleq	ec39dc <__bss_end__+0xeb99d4>
     cf0:	00000b39 	andeq	r0, r0, r9, lsr fp
     cf4:	01110100 	tsteq	r1, r0, lsl #2
     cf8:	0b130e25 	bleq	4c4594 <__bss_end__+0x4ba58c>
     cfc:	0e1b0e03 	cdpeq	14, 1, cr0, cr11, cr3, {0}
     d00:	06120111 			; <UNDEFINED> instruction: 0x06120111
     d04:	00001710 	andeq	r1, r0, r0, lsl r7
     d08:	0b002402 	bleq	9d18 <__data_end__+0x114>
     d0c:	030b3e0b 	movweq	r3, #48651	; 0xbe0b
     d10:	03000008 	movweq	r0, #8
     d14:	0b0b0024 	bleq	2c0dac <__bss_end__+0x2b6da4>
     d18:	0e030b3e 	vmoveq.16	d3[0], r0
     d1c:	15040000 	strne	r0, [r4, #-0]
     d20:	49192701 	ldmdbmi	r9, {r0, r8, r9, sl, sp}
     d24:	00130113 	andseq	r0, r3, r3, lsl r1
     d28:	00050500 	andeq	r0, r5, r0, lsl #10
     d2c:	00001349 	andeq	r1, r0, r9, asr #6
     d30:	03003406 	movweq	r3, #1030	; 0x406
     d34:	3b0b3a0e 	blcc	2cf574 <__bss_end__+0x2c556c>
     d38:	490b390b 	stmdbmi	fp, {r0, r1, r3, r8, fp, ip, sp}
     d3c:	3c193f13 	ldccc	15, cr3, [r9], {19}
     d40:	07000019 	smladeq	r0, r9, r0, r0
     d44:	0b0b000f 	bleq	2c0d88 <__bss_end__+0x2b6d80>
     d48:	00001349 	andeq	r1, r0, r9, asr #6
     d4c:	49002608 	stmdbmi	r0, {r3, r9, sl, sp}
     d50:	09000013 	stmdbeq	r0, {r0, r1, r4}
     d54:	193f012e 	ldmdbne	pc!, {r1, r2, r3, r5, r8}	; <UNPREDICTABLE>
     d58:	0b3a0e03 	bleq	e8456c <__bss_end__+0xe7a564>
     d5c:	0b390b3b 	bleq	e43a50 <__bss_end__+0xe39a48>
     d60:	01111927 	tsteq	r1, r7, lsr #18
     d64:	18400612 	stmdane	r0, {r1, r4, r9, sl}^
     d68:	01194297 			; <UNDEFINED> instruction: 0x01194297
     d6c:	0a000013 	beq	dc0 <__code_start__-0x7240>
     d70:	08030005 	stmdaeq	r3, {r0, r2}
     d74:	0b3b0b3a 	bleq	ec3a64 <__bss_end__+0xeb9a5c>
     d78:	13490b39 	movtne	r0, #39737	; 0x9b39
     d7c:	42b71702 	adcsmi	r1, r7, #524288	; 0x80000
     d80:	0b000017 	bleq	de4 <__code_start__-0x721c>
     d84:	01018289 	smlabbeq	r1, r9, r2, r8
     d88:	13310111 	teqne	r1, #1073741828	; 0x40000004
     d8c:	8a0c0000 	bhi	300d94 <__bss_end__+0x2f6d8c>
     d90:	02000182 	andeq	r0, r0, #-2147483616	; 0x80000020
     d94:	18429118 	stmdane	r2, {r3, r4, r8, ip, pc}^
     d98:	340d0000 	strcc	r0, [sp], #-0
     d9c:	3a080300 	bcc	2019a4 <__bss_end__+0x1f799c>
     da0:	390b3b0b 	stmdbcc	fp, {r0, r1, r3, r8, r9, fp, ip, sp}
     da4:	0213490b 	andseq	r4, r3, #180224	; 0x2c000
     da8:	1742b717 	smlaldne	fp, r2, r7, r7
     dac:	0b0e0000 	bleq	380db4 <__bss_end__+0x376dac>
     db0:	12011101 	andne	r1, r1, #1073741824	; 0x40000000
     db4:	00130106 	andseq	r0, r3, r6, lsl #2
     db8:	82890f00 	addhi	r0, r9, #0, 30
     dbc:	01110001 	tsteq	r1, r1
     dc0:	00001331 	andeq	r1, r0, r1, lsr r3
     dc4:	3f012e10 	svccc	0x00012e10
     dc8:	3a0e0319 	bcc	381a34 <__bss_end__+0x377a2c>
     dcc:	390b3b0b 	stmdbcc	fp, {r0, r1, r3, r8, r9, fp, ip, sp}
     dd0:	4919270b 	ldmdbmi	r9, {r0, r1, r3, r8, r9, sl, sp}
     dd4:	12011113 	andne	r1, r1, #-1073741820	; 0xc0000004
     dd8:	97184006 	ldrls	r4, [r8, -r6]
     ddc:	13011942 	movwne	r1, #6466	; 0x1942
     de0:	2e110000 	cdpcs	0, 1, cr0, cr1, cr0, {0}
     de4:	3c193f00 	ldccc	15, cr3, [r9], {-0}
     de8:	030e6e19 	movweq	r6, #60953	; 0xee19
     dec:	3b0b3a0e 	blcc	2cf62c <__bss_end__+0x2c5624>
     df0:	000b390b 	andeq	r3, fp, fp, lsl #18
     df4:	11010000 	mrsne	r0, (UNDEF: 1)
     df8:	130e2501 	movwne	r2, #58625	; 0xe501
     dfc:	1b0e030b 	blne	381a30 <__bss_end__+0x377a28>
     e00:	1201110e 	andne	r1, r1, #-2147483645	; 0x80000003
     e04:	00171006 	andseq	r1, r7, r6
     e08:	00240200 	eoreq	r0, r4, r0, lsl #4
     e0c:	0b3e0b0b 	bleq	f83a40 <__bss_end__+0xf79a38>
     e10:	00000803 	andeq	r0, r0, r3, lsl #16
     e14:	0b002403 	bleq	9e28 <__data_end__+0x224>
     e18:	030b3e0b 	movweq	r3, #48651	; 0xbe0b
     e1c:	0400000e 	streq	r0, [r0], #-14
     e20:	13490026 	movtne	r0, #36902	; 0x9026
     e24:	16050000 	strne	r0, [r5], -r0
     e28:	3a0e0300 	bcc	381a30 <__bss_end__+0x377a28>
     e2c:	390b3b0b 	stmdbcc	fp, {r0, r1, r3, r8, r9, fp, ip, sp}
     e30:	0013490b 	andseq	r4, r3, fp, lsl #18
     e34:	01040600 	tsteq	r4, r0, lsl #12
     e38:	0b0b0b3e 	bleq	2c3b38 <__bss_end__+0x2b9b30>
     e3c:	0b3a1349 	bleq	e85b68 <__bss_end__+0xe7bb60>
     e40:	0b390b3b 	bleq	e43b34 <__bss_end__+0xe39b2c>
     e44:	00001301 	andeq	r1, r0, r1, lsl #6
     e48:	03002807 	movweq	r2, #2055	; 0x807
     e4c:	000b1c0e 	andeq	r1, fp, lr, lsl #24
     e50:	00340800 	eorseq	r0, r4, r0, lsl #16
     e54:	0b3a0e03 	bleq	e84668 <__bss_end__+0xe7a660>
     e58:	0b390b3b 	bleq	e43b4c <__bss_end__+0xe39b44>
     e5c:	061c1349 	ldreq	r1, [ip], -r9, asr #6
     e60:	2e090000 	cdpcs	0, 0, cr0, cr9, cr0, {0}
     e64:	03193f01 	tsteq	r9, #1, 30
     e68:	3b0b3a0e 	blcc	2cf6a8 <__bss_end__+0x2c56a0>
     e6c:	270b390b 	strcs	r3, [fp, -fp, lsl #18]
     e70:	11134919 	tstne	r3, r9, lsl r9
     e74:	40061201 	andmi	r1, r6, r1, lsl #4
     e78:	19429718 	stmdbne	r2, {r3, r4, r8, r9, sl, ip, pc}^
     e7c:	00001301 	andeq	r1, r0, r1, lsl #6
     e80:	0300050a 	movweq	r0, #1290	; 0x50a
     e84:	3b0b3a08 	blcc	2cf6ac <__bss_end__+0x2c56a4>
     e88:	490b390b 	stmdbmi	fp, {r0, r1, r3, r8, fp, ip, sp}
     e8c:	b7170213 			; <UNDEFINED> instruction: 0xb7170213
     e90:	00001742 	andeq	r1, r0, r2, asr #14
     e94:	0300340b 	movweq	r3, #1035	; 0x40b
     e98:	3b0b3a0e 	blcc	2cf6d8 <__bss_end__+0x2c56d0>
     e9c:	490b390b 	stmdbmi	fp, {r0, r1, r3, r8, fp, ip, sp}
     ea0:	b7170213 			; <UNDEFINED> instruction: 0xb7170213
     ea4:	00001742 	andeq	r1, r0, r2, asr #14
     ea8:	0300340c 	movweq	r3, #1036	; 0x40c
     eac:	3b0b3a08 	blcc	2cf6d4 <__bss_end__+0x2c56cc>
     eb0:	490b390b 	stmdbmi	fp, {r0, r1, r3, r8, fp, ip, sp}
     eb4:	b7170213 			; <UNDEFINED> instruction: 0xb7170213
     eb8:	00001742 	andeq	r1, r0, r2, asr #14
     ebc:	0182890d 	orreq	r8, r2, sp, lsl #18
     ec0:	31011101 	tstcc	r1, r1, lsl #2
     ec4:	0e000013 	mcreq	0, 0, r0, cr0, cr3, {0}
     ec8:	0001828a 	andeq	r8, r1, sl, lsl #5
     ecc:	42911802 	addsmi	r1, r1, #131072	; 0x20000
     ed0:	0f000018 	svceq	0x00000018
     ed4:	193f012e 	ldmdbne	pc!, {r1, r2, r3, r5, r8}	; <UNPREDICTABLE>
     ed8:	0b3a0e03 	bleq	e846ec <__bss_end__+0xe7a6e4>
     edc:	0b390b3b 	bleq	e43bd0 <__bss_end__+0xe39bc8>
     ee0:	01111927 	tsteq	r1, r7, lsr #18
     ee4:	18400612 	stmdane	r0, {r1, r4, r9, sl}^
     ee8:	01194297 			; <UNDEFINED> instruction: 0x01194297
     eec:	10000013 	andne	r0, r0, r3, lsl r0
     ef0:	01018289 	smlabbeq	r1, r9, r2, r8
     ef4:	13310111 	teqne	r1, #1073741828	; 0x40000004
     ef8:	00001301 	andeq	r1, r0, r1, lsl #6
     efc:	01828911 	orreq	r8, r2, r1, lsl r9
     f00:	31011100 	mrscc	r1, (UNDEF: 17)
     f04:	12000013 	andne	r0, r0, #19, 0
     f08:	0e030005 	cdpeq	0, 0, cr0, cr3, cr5, {0}
     f0c:	0b3b0b3a 	bleq	ec3bfc <__bss_end__+0xeb9bf4>
     f10:	13490b39 	movtne	r0, #39737	; 0x9b39
     f14:	42b71702 	adcsmi	r1, r7, #524288	; 0x80000
     f18:	13000017 	movwne	r0, #23
     f1c:	0e03012e 	adfeqsp	f0, f3, #0.5
     f20:	0b3b0b3a 	bleq	ec3c10 <__bss_end__+0xeb9c08>
     f24:	19270b39 	stmdbne	r7!, {r0, r3, r4, r5, r8, r9, fp}
     f28:	0b201349 	bleq	805c54 <__bss_end__+0x7fbc4c>
     f2c:	00001301 	andeq	r1, r0, r1, lsl #6
     f30:	03000514 	movweq	r0, #1300	; 0x514
     f34:	3b0b3a08 	blcc	2cf75c <__bss_end__+0x2c5754>
     f38:	490b390b 	stmdbmi	fp, {r0, r1, r3, r8, fp, ip, sp}
     f3c:	15000013 	strne	r0, [r0, #-19]	; 0xffffffed
     f40:	193f002e 	ldmdbne	pc!, {r1, r2, r3, r5}	; <UNPREDICTABLE>
     f44:	0e6e193c 			; <UNDEFINED> instruction: 0x0e6e193c
     f48:	0b3a0e03 	bleq	e8475c <__bss_end__+0xe7a754>
     f4c:	0b390b3b 	bleq	e43c40 <__bss_end__+0xe39c38>
     f50:	01000000 	mrseq	r0, (UNDEF: 0)
     f54:	0e250111 	mcreq	1, 1, r0, cr5, cr1, {0}
     f58:	0e030b13 	vmoveq.32	d3[0], r0
     f5c:	01110e1b 	tsteq	r1, fp, lsl lr
     f60:	17100612 			; <UNDEFINED> instruction: 0x17100612
     f64:	24020000 	strcs	r0, [r2], #-0
     f68:	3e0b0b00 	vmlacc.f64	d0, d11, d0
     f6c:	0008030b 	andeq	r0, r8, fp, lsl #6
     f70:	00240300 	eoreq	r0, r4, r0, lsl #6
     f74:	0b3e0b0b 	bleq	f83ba8 <__bss_end__+0xf79ba0>
     f78:	00000e03 	andeq	r0, r0, r3, lsl #28
     f7c:	49003504 	stmdbmi	r0, {r2, r8, sl, ip, sp}
     f80:	05000013 	streq	r0, [r0, #-19]	; 0xffffffed
     f84:	0e030016 	mcreq	0, 0, r0, cr3, cr6, {0}
     f88:	0b3b0b3a 	bleq	ec3c78 <__bss_end__+0xeb9c70>
     f8c:	13490b39 	movtne	r0, #39737	; 0x9b39
     f90:	04060000 	streq	r0, [r6], #-0
     f94:	0b0b3e01 	bleq	2d07a0 <__bss_end__+0x2c6798>
     f98:	3a13490b 	bcc	4d33cc <__bss_end__+0x4c93c4>
     f9c:	390b3b0b 	stmdbcc	fp, {r0, r1, r3, r8, r9, fp, ip, sp}
     fa0:	0013010b 	andseq	r0, r3, fp, lsl #2
     fa4:	00280700 	eoreq	r0, r8, r0, lsl #14
     fa8:	0b1c0e03 	bleq	7047bc <__bss_end__+0x6fa7b4>
     fac:	13080000 	movwne	r0, #32768	; 0x8000
     fb0:	0b0e0301 	bleq	381bbc <__bss_end__+0x377bb4>
     fb4:	3b0b3a0b 	blcc	2cf7e8 <__bss_end__+0x2c57e0>
     fb8:	010b390b 	tsteq	fp, fp, lsl #18
     fbc:	09000013 	stmdbeq	r0, {r0, r1, r4}
     fc0:	0803000d 	stmdaeq	r3, {r0, r2, r3}
     fc4:	0b3b0b3a 	bleq	ec3cb4 <__bss_end__+0xeb9cac>
     fc8:	13490b39 	movtne	r0, #39737	; 0x9b39
     fcc:	00000b38 	andeq	r0, r0, r8, lsr fp
     fd0:	03000d0a 	movweq	r0, #3338	; 0xd0a
     fd4:	3b0b3a0e 	blcc	2cf814 <__bss_end__+0x2c580c>
     fd8:	490b390b 	stmdbmi	fp, {r0, r1, r3, r8, fp, ip, sp}
     fdc:	000b3813 	andeq	r3, fp, r3, lsl r8
     fe0:	00340b00 	eorseq	r0, r4, r0, lsl #22
     fe4:	0b3a0e03 	bleq	e847f8 <__bss_end__+0xe7a7f0>
     fe8:	0b390b3b 	bleq	e43cdc <__bss_end__+0xe39cd4>
     fec:	061c1349 	ldreq	r1, [ip], -r9, asr #6
     ff0:	0f0c0000 	svceq	0x000c0000
     ff4:	490b0b00 	stmdbmi	fp, {r8, r9, fp}
     ff8:	0d000013 	stceq	0, cr0, [r0, #-76]	; 0xffffffb4
     ffc:	13490026 	movtne	r0, #36902	; 0x9026
    1000:	2e0e0000 	cdpcs	0, 0, cr0, cr14, cr0, {0}
    1004:	03193f01 	tsteq	r9, #1, 30
    1008:	3b0b3a0e 	blcc	2cf848 <__bss_end__+0x2c5840>
    100c:	270b390b 	strcs	r3, [fp, -fp, lsl #18]
    1010:	12011119 	andne	r1, r1, #1073741830	; 0x40000006
    1014:	97184006 	ldrls	r4, [r8, -r6]
    1018:	13011942 	movwne	r1, #6466	; 0x1942
    101c:	890f0000 	stmdbhi	pc, {}	; <UNPREDICTABLE>
    1020:	11000182 	smlabbne	r0, r2, r1, r0
    1024:	00133101 	andseq	r3, r3, r1, lsl #2
    1028:	012e1000 			; <UNDEFINED> instruction: 0x012e1000
    102c:	0e03193f 			; <UNDEFINED> instruction: 0x0e03193f
    1030:	0b3b0b3a 	bleq	ec3d20 <__bss_end__+0xeb9d18>
    1034:	19270b39 	stmdbne	r7!, {r0, r3, r4, r5, r8, r9, fp}
    1038:	01111349 	tsteq	r1, r9, asr #6
    103c:	18400612 	stmdane	r0, {r1, r4, r9, sl}^
    1040:	01194297 			; <UNDEFINED> instruction: 0x01194297
    1044:	11000013 	tstne	r0, r3, lsl r0
    1048:	01018289 	smlabbeq	r1, r9, r2, r8
    104c:	13310111 	teqne	r1, #1073741828	; 0x40000004
    1050:	8a120000 	bhi	481058 <__bss_end__+0x477050>
    1054:	02000182 	andeq	r0, r0, #-2147483616	; 0x80000020
    1058:	18429118 	stmdane	r2, {r3, r4, r8, ip, pc}^
    105c:	05130000 	ldreq	r0, [r3, #-0]
    1060:	3a080300 	bcc	201c68 <__bss_end__+0x1f7c60>
    1064:	390b3b0b 	stmdbcc	fp, {r0, r1, r3, r8, r9, fp, ip, sp}
    1068:	0213490b 	andseq	r4, r3, #180224	; 0x2c000
    106c:	1742b717 	smlaldne	fp, r2, r7, r7
    1070:	89140000 	ldmdbhi	r4, {}	; <UNPREDICTABLE>
    1074:	11010182 	smlabbne	r1, r2, r1, r0
    1078:	01133101 	tsteq	r3, r1, lsl #2
    107c:	15000013 	strne	r0, [r0, #-19]	; 0xffffffed
    1080:	08030034 	stmdaeq	r3, {r2, r4, r5}
    1084:	0b3b0b3a 	bleq	ec3d74 <__bss_end__+0xeb9d6c>
    1088:	13490b39 	movtne	r0, #39737	; 0x9b39
    108c:	42b71702 	adcsmi	r1, r7, #524288	; 0x80000
    1090:	16000017 			; <UNDEFINED> instruction: 0x16000017
    1094:	0e030034 	mcreq	0, 0, r0, cr3, cr4, {1}
    1098:	0b3b0b3a 	bleq	ec3d88 <__bss_end__+0xeb9d80>
    109c:	13490b39 	movtne	r0, #39737	; 0x9b39
    10a0:	0000051c 	andeq	r0, r0, ip, lsl r5
    10a4:	03012e17 	movweq	r2, #7703	; 0x1e17
    10a8:	3b0b3a0e 	blcc	2cf8e8 <__bss_end__+0x2c58e0>
    10ac:	270b390b 	strcs	r3, [fp, -fp, lsl #18]
    10b0:	12011119 	andne	r1, r1, #1073741830	; 0x40000006
    10b4:	97184006 	ldrls	r4, [r8, -r6]
    10b8:	13011942 	movwne	r1, #6466	; 0x1942
    10bc:	05180000 	ldreq	r0, [r8, #-0]
    10c0:	3a0e0300 	bcc	381cc8 <__bss_end__+0x377cc0>
    10c4:	390b3b0b 	stmdbcc	fp, {r0, r1, r3, r8, r9, fp, ip, sp}
    10c8:	0213490b 	andseq	r4, r3, #180224	; 0x2c000
    10cc:	1742b717 	smlaldne	fp, r2, r7, r7
    10d0:	35190000 	ldrcc	r0, [r9, #-0]
    10d4:	1a000000 	bne	10dc <__code_start__-0x6f24>
    10d8:	193f002e 	ldmdbne	pc!, {r1, r2, r3, r5}	; <UNPREDICTABLE>
    10dc:	0e6e193c 			; <UNDEFINED> instruction: 0x0e6e193c
    10e0:	0b3a0e03 	bleq	e848f4 <__bss_end__+0xe7a8ec>
    10e4:	0b390b3b 	bleq	e43dd8 <__bss_end__+0xe39dd0>
    10e8:	01000000 	mrseq	r0, (UNDEF: 0)
    10ec:	0e250111 	mcreq	1, 1, r0, cr5, cr1, {0}
    10f0:	0e030b13 	vmoveq.32	d3[0], r0
    10f4:	01110e1b 	tsteq	r1, fp, lsl lr
    10f8:	17100612 			; <UNDEFINED> instruction: 0x17100612
    10fc:	24020000 	strcs	r0, [r2], #-0
    1100:	3e0b0b00 	vmlacc.f64	d0, d11, d0
    1104:	0008030b 	andeq	r0, r8, fp, lsl #6
    1108:	00240300 	eoreq	r0, r4, r0, lsl #6
    110c:	0b3e0b0b 	bleq	f83d40 <__bss_end__+0xf79d38>
    1110:	00000e03 	andeq	r0, r0, r3, lsl #28
    1114:	27011504 	strcs	r1, [r1, -r4, lsl #10]
    1118:	01134919 	tsteq	r3, r9, lsl r9
    111c:	05000013 	streq	r0, [r0, #-19]	; 0xffffffed
    1120:	13490005 	movtne	r0, #36869	; 0x9005
    1124:	34060000 	strcc	r0, [r6], #-0
    1128:	3a0e0300 	bcc	381d30 <__bss_end__+0x377d28>
    112c:	390b3b0b 	stmdbcc	fp, {r0, r1, r3, r8, r9, fp, ip, sp}
    1130:	3f13490b 	svccc	0x0013490b
    1134:	00193c19 	andseq	r3, r9, r9, lsl ip
    1138:	000f0700 	andeq	r0, pc, r0, lsl #14
    113c:	13490b0b 	movtne	r0, #39691	; 0x9b0b
    1140:	26080000 	strcs	r0, [r8], -r0
    1144:	00134900 	andseq	r4, r3, r0, lsl #18
    1148:	00340900 	eorseq	r0, r4, r0, lsl #18
    114c:	0b3a1347 	bleq	e85e70 <__bss_end__+0xe7be68>
    1150:	0b390b3b 	bleq	e43e44 <__bss_end__+0xe39e3c>
    1154:	00001802 	andeq	r1, r0, r2, lsl #16
    1158:	3f012e0a 	svccc	0x00012e0a
    115c:	3a0e0319 	bcc	381dc8 <__bss_end__+0x377dc0>
    1160:	390b3b0b 	stmdbcc	fp, {r0, r1, r3, r8, r9, fp, ip, sp}
    1164:	1119270b 	tstne	r9, fp, lsl #14
    1168:	40061201 	andmi	r1, r6, r1, lsl #4
    116c:	19429718 	stmdbne	r2, {r3, r4, r8, r9, sl, ip, pc}^
    1170:	00001301 	andeq	r1, r0, r1, lsl #6
    1174:	0300050b 	movweq	r0, #1291	; 0x50b
    1178:	3b0b3a08 	blcc	2cf9a0 <__bss_end__+0x2c5998>
    117c:	490b390b 	stmdbmi	fp, {r0, r1, r3, r8, fp, ip, sp}
    1180:	00180213 	andseq	r0, r8, r3, lsl r2
    1184:	002e0c00 	eoreq	r0, lr, r0, lsl #24
    1188:	0e03193f 			; <UNDEFINED> instruction: 0x0e03193f
    118c:	0b3b0b3a 	bleq	ec3e7c <__bss_end__+0xeb9e74>
    1190:	19270b39 	stmdbne	r7!, {r0, r3, r4, r5, r8, r9, fp}
    1194:	06120111 			; <UNDEFINED> instruction: 0x06120111
    1198:	42971840 	addsmi	r1, r7, #64, 16	; 0x400000
    119c:	0d000019 	stceq	0, cr0, [r0, #-100]	; 0xffffff9c
    11a0:	0e03012e 	adfeqsp	f0, f3, #0.5
    11a4:	0b3b0b3a 	bleq	ec3e94 <__bss_end__+0xeb9e8c>
    11a8:	19270b39 	stmdbne	r7!, {r0, r3, r4, r5, r8, r9, fp}
    11ac:	01111349 	tsteq	r1, r9, asr #6
    11b0:	18400612 	stmdane	r0, {r1, r4, r9, sl}^
    11b4:	01194297 			; <UNDEFINED> instruction: 0x01194297
    11b8:	0e000013 	mcreq	0, 0, r0, cr0, cr3, {0}
    11bc:	08030005 	stmdaeq	r3, {r0, r2}
    11c0:	0b3b0b3a 	bleq	ec3eb0 <__bss_end__+0xeb9ea8>
    11c4:	13490b39 	movtne	r0, #39737	; 0x9b39
    11c8:	42b71702 	adcsmi	r1, r7, #524288	; 0x80000
    11cc:	0f000017 	svceq	0x00000017
    11d0:	01018289 	smlabbeq	r1, r9, r2, r8
    11d4:	13310111 	teqne	r1, #1073741828	; 0x40000004
    11d8:	8a100000 	bhi	4011e0 <__bss_end__+0x3f71d8>
    11dc:	02000182 	andeq	r0, r0, #-2147483616	; 0x80000020
    11e0:	18429118 	stmdane	r2, {r3, r4, r8, ip, pc}^
    11e4:	2e110000 	cdpcs	0, 1, cr0, cr1, cr0, {0}
    11e8:	3c193f00 	ldccc	15, cr3, [r9], {-0}
    11ec:	030e6e19 	movweq	r6, #60953	; 0xee19
    11f0:	3b0b3a0e 	blcc	2cfa30 <__bss_end__+0x2c5a28>
    11f4:	000b390b 	andeq	r3, fp, fp, lsl #18
    11f8:	11010000 	mrsne	r0, (UNDEF: 1)
    11fc:	130e2501 	movwne	r2, #58625	; 0xe501
    1200:	1b0e030b 	blne	381e34 <__bss_end__+0x377e2c>
    1204:	1201110e 	andne	r1, r1, #-2147483645	; 0x80000003
    1208:	00171006 	andseq	r1, r7, r6
    120c:	00240200 	eoreq	r0, r4, r0, lsl #4
    1210:	0b3e0b0b 	bleq	f83e44 <__bss_end__+0xf79e3c>
    1214:	00000803 	andeq	r0, r0, r3, lsl #16
    1218:	0b002403 	bleq	a22c <__bss_end__+0x224>
    121c:	030b3e0b 	movweq	r3, #48651	; 0xbe0b
    1220:	0400000e 	streq	r0, [r0], #-14
    1224:	19270115 	stmdbne	r7!, {r0, r2, r4, r8}
    1228:	13011349 	movwne	r1, #4937	; 0x1349
    122c:	05050000 	streq	r0, [r5, #-0]
    1230:	00134900 	andseq	r4, r3, r0, lsl #18
    1234:	00340600 	eorseq	r0, r4, r0, lsl #12
    1238:	0b3a0e03 	bleq	e84a4c <__bss_end__+0xe7aa44>
    123c:	0b390b3b 	bleq	e43f30 <__bss_end__+0xe39f28>
    1240:	193f1349 	ldmdbne	pc!, {r0, r3, r6, r8, r9, ip}	; <UNPREDICTABLE>
    1244:	0000193c 	andeq	r1, r0, ip, lsr r9
    1248:	0b000f07 	bleq	4e6c <__code_start__-0x3194>
    124c:	0013490b 	andseq	r4, r3, fp, lsl #18
    1250:	00260800 	eoreq	r0, r6, r0, lsl #16
    1254:	00001349 	andeq	r1, r0, r9, asr #6
    1258:	3f012e09 	svccc	0x00012e09
    125c:	3a0e0319 	bcc	381ec8 <__bss_end__+0x377ec0>
    1260:	390b3b0b 	stmdbcc	fp, {r0, r1, r3, r8, r9, fp, ip, sp}
    1264:	4919270b 	ldmdbmi	r9, {r0, r1, r3, r8, r9, sl, sp}
    1268:	12011113 	andne	r1, r1, #-1073741820	; 0xc0000004
    126c:	97184006 	ldrls	r4, [r8, -r6]
    1270:	13011942 	movwne	r1, #6466	; 0x1942
    1274:	050a0000 	streq	r0, [sl, #-0]
    1278:	3a0e0300 	bcc	381e80 <__bss_end__+0x377e78>
    127c:	390b3b0b 	stmdbcc	fp, {r0, r1, r3, r8, r9, fp, ip, sp}
    1280:	0213490b 	andseq	r4, r3, #180224	; 0x2c000
    1284:	0b000018 	bleq	12ec <__code_start__-0x6d14>
    1288:	08030005 	stmdaeq	r3, {r0, r2}
    128c:	0b3b0b3a 	bleq	ec3f7c <__bss_end__+0xeb9f74>
    1290:	13490b39 	movtne	r0, #39737	; 0x9b39
    1294:	42b71702 	adcsmi	r1, r7, #524288	; 0x80000
    1298:	0c000017 	stceq	0, cr0, [r0], {23}
    129c:	08030034 	stmdaeq	r3, {r2, r4, r5}
    12a0:	0b3b0b3a 	bleq	ec3f90 <__bss_end__+0xeb9f88>
    12a4:	13490b39 	movtne	r0, #39737	; 0x9b39
    12a8:	42b71702 	adcsmi	r1, r7, #524288	; 0x80000
    12ac:	00000017 	andeq	r0, r0, r7, lsl r0
    12b0:	25011101 	strcs	r1, [r1, #-257]	; 0xfffffeff
    12b4:	030b130e 	movweq	r1, #45838	; 0xb30e
    12b8:	110e1b0e 	tstne	lr, lr, lsl #22
    12bc:	10061201 	andne	r1, r6, r1, lsl #4
    12c0:	02000017 	andeq	r0, r0, #23, 0
    12c4:	0b0b0024 	bleq	2c135c <__bss_end__+0x2b7354>
    12c8:	08030b3e 	stmdaeq	r3, {r1, r2, r3, r4, r5, r8, r9, fp}
    12cc:	24030000 	strcs	r0, [r3], #-0
    12d0:	3e0b0b00 	vmlacc.f64	d0, d11, d0
    12d4:	000e030b 	andeq	r0, lr, fp, lsl #6
    12d8:	01150400 	tsteq	r5, r0, lsl #8
    12dc:	13491927 	movtne	r1, #39207	; 0x9927
    12e0:	00001301 	andeq	r1, r0, r1, lsl #6
    12e4:	49000505 	stmdbmi	r0, {r0, r2, r8, sl}
    12e8:	06000013 			; <UNDEFINED> instruction: 0x06000013
    12ec:	0e030034 	mcreq	0, 0, r0, cr3, cr4, {1}
    12f0:	0b3b0b3a 	bleq	ec3fe0 <__bss_end__+0xeb9fd8>
    12f4:	13490b39 	movtne	r0, #39737	; 0x9b39
    12f8:	193c193f 	ldmdbne	ip!, {r0, r1, r2, r3, r4, r5, r8, fp, ip}
    12fc:	0f070000 	svceq	0x00070000
    1300:	490b0b00 	stmdbmi	fp, {r8, r9, fp}
    1304:	08000013 	stmdaeq	r0, {r0, r1, r4}
    1308:	13490026 	movtne	r0, #36902	; 0x9026
    130c:	2e090000 	cdpcs	0, 0, cr0, cr9, cr0, {0}
    1310:	03193f01 	tsteq	r9, #1, 30
    1314:	3b0b3a0e 	blcc	2cfb54 <__bss_end__+0x2c5b4c>
    1318:	270b390b 	strcs	r3, [fp, -fp, lsl #18]
    131c:	11134919 	tstne	r3, r9, lsl r9
    1320:	40061201 	andmi	r1, r6, r1, lsl #4
    1324:	19429718 	stmdbne	r2, {r3, r4, r8, r9, sl, ip, pc}^
    1328:	050a0000 	streq	r0, [sl, #-0]
    132c:	3a080300 	bcc	201f34 <__bss_end__+0x1f7f2c>
    1330:	390b3b0b 	stmdbcc	fp, {r0, r1, r3, r8, r9, fp, ip, sp}
    1334:	0213490b 	andseq	r4, r3, #180224	; 0x2c000
    1338:	1742b717 	smlaldne	fp, r2, r7, r7
    133c:	01000000 	mrseq	r0, (UNDEF: 0)
    1340:	0e250111 	mcreq	1, 1, r0, cr5, cr1, {0}
    1344:	0e030b13 	vmoveq.32	d3[0], r0
    1348:	01110e1b 	tsteq	r1, fp, lsl lr
    134c:	17100612 			; <UNDEFINED> instruction: 0x17100612
    1350:	24020000 	strcs	r0, [r2], #-0
    1354:	3e0b0b00 	vmlacc.f64	d0, d11, d0
    1358:	0008030b 	andeq	r0, r8, fp, lsl #6
    135c:	00240300 	eoreq	r0, r4, r0, lsl #6
    1360:	0b3e0b0b 	bleq	f83f94 <__bss_end__+0xf79f8c>
    1364:	00000e03 	andeq	r0, r0, r3, lsl #28
    1368:	27011504 	strcs	r1, [r1, -r4, lsl #10]
    136c:	01134919 	tsteq	r3, r9, lsl r9
    1370:	05000013 	streq	r0, [r0, #-19]	; 0xffffffed
    1374:	13490005 	movtne	r0, #36869	; 0x9005
    1378:	34060000 	strcc	r0, [r6], #-0
    137c:	3a0e0300 	bcc	381f84 <__bss_end__+0x377f7c>
    1380:	390b3b0b 	stmdbcc	fp, {r0, r1, r3, r8, r9, fp, ip, sp}
    1384:	3f13490b 	svccc	0x0013490b
    1388:	00193c19 	andseq	r3, r9, r9, lsl ip
    138c:	000f0700 	andeq	r0, pc, r0, lsl #14
    1390:	13490b0b 	movtne	r0, #39691	; 0x9b0b
    1394:	26080000 	strcs	r0, [r8], -r0
    1398:	00134900 	andseq	r4, r3, r0, lsl #18
    139c:	012e0900 			; <UNDEFINED> instruction: 0x012e0900
    13a0:	0e03193f 			; <UNDEFINED> instruction: 0x0e03193f
    13a4:	0b3b0b3a 	bleq	ec4094 <__bss_end__+0xeba08c>
    13a8:	19270b39 	stmdbne	r7!, {r0, r3, r4, r5, r8, r9, fp}
    13ac:	01111349 	tsteq	r1, r9, asr #6
    13b0:	18400612 	stmdane	r0, {r1, r4, r9, sl}^
    13b4:	01194297 			; <UNDEFINED> instruction: 0x01194297
    13b8:	0a000013 	beq	140c <__code_start__-0x6bf4>
    13bc:	08030005 	stmdaeq	r3, {r0, r2}
    13c0:	0b3b0b3a 	bleq	ec40b0 <__bss_end__+0xeba0a8>
    13c4:	13490b39 	movtne	r0, #39737	; 0x9b39
    13c8:	00001802 	andeq	r1, r0, r2, lsl #16
    13cc:	0300050b 	movweq	r0, #1291	; 0x50b
    13d0:	3b0b3a08 	blcc	2cfbf8 <__bss_end__+0x2c5bf0>
    13d4:	490b390b 	stmdbmi	fp, {r0, r1, r3, r8, fp, ip, sp}
    13d8:	b7170213 			; <UNDEFINED> instruction: 0xb7170213
    13dc:	00001742 	andeq	r1, r0, r2, asr #14
    13e0:	0300340c 	movweq	r3, #1036	; 0x40c
    13e4:	3b0b3a08 	blcc	2cfc0c <__bss_end__+0x2c5c04>
    13e8:	490b390b 	stmdbmi	fp, {r0, r1, r3, r8, fp, ip, sp}
    13ec:	b7170213 			; <UNDEFINED> instruction: 0xb7170213
    13f0:	00001742 	andeq	r1, r0, r2, asr #14
    13f4:	01110100 	tsteq	r1, r0, lsl #2
    13f8:	0b130e25 	bleq	4c4c94 <__bss_end__+0x4bac8c>
    13fc:	0e1b0e03 	cdpeq	14, 1, cr0, cr11, cr3, {0}
    1400:	01111755 	tsteq	r1, r5, asr r7
    1404:	00001710 	andeq	r1, r0, r0, lsl r7
    1408:	0b002402 	bleq	a418 <__bss_end__+0x410>
    140c:	030b3e0b 	movweq	r3, #48651	; 0xbe0b
    1410:	03000008 	movweq	r0, #8
    1414:	0e030016 	mcreq	0, 0, r0, cr3, cr6, {0}
    1418:	0b3b0b3a 	bleq	ec4108 <__bss_end__+0xeba100>
    141c:	13490b39 	movtne	r0, #39737	; 0x9b39
    1420:	24040000 	strcs	r0, [r4], #-0
    1424:	3e0b0b00 	vmlacc.f64	d0, d11, d0
    1428:	000e030b 	andeq	r0, lr, fp, lsl #6
    142c:	00260500 	eoreq	r0, r6, r0, lsl #10
    1430:	00001349 	andeq	r1, r0, r9, asr #6
    1434:	27011506 	strcs	r1, [r1, -r6, lsl #10]
    1438:	01134919 	tsteq	r3, r9, lsl r9
    143c:	07000013 	smladeq	r0, r3, r0, r0
    1440:	13490005 	movtne	r0, #36869	; 0x9005
    1444:	34080000 	strcc	r0, [r8], #-0
    1448:	3a0e0300 	bcc	382050 <__bss_end__+0x378048>
    144c:	390b3b0b 	stmdbcc	fp, {r0, r1, r3, r8, r9, fp, ip, sp}
    1450:	3f13490b 	svccc	0x0013490b
    1454:	00193c19 	andseq	r3, r9, r9, lsl ip
    1458:	000f0900 	andeq	r0, pc, r0, lsl #18
    145c:	13490b0b 	movtne	r0, #39691	; 0x9b0b
    1460:	2e0a0000 	cdpcs	0, 0, cr0, cr10, cr0, {0}
    1464:	03193f01 	tsteq	r9, #1, 30
    1468:	3b0b3a0e 	blcc	2cfca8 <__bss_end__+0x2c5ca0>
    146c:	270b390b 	strcs	r3, [fp, -fp, lsl #18]
    1470:	11134919 	tstne	r3, r9, lsl r9
    1474:	40061201 	andmi	r1, r6, r1, lsl #4
    1478:	19429718 	stmdbne	r2, {r3, r4, r8, r9, sl, ip, pc}^
    147c:	00001301 	andeq	r1, r0, r1, lsl #6
    1480:	0300050b 	movweq	r0, #1291	; 0x50b
    1484:	3b0b3a08 	blcc	2cfcac <__bss_end__+0x2c5ca4>
    1488:	490b390b 	stmdbmi	fp, {r0, r1, r3, r8, fp, ip, sp}
    148c:	b7170213 			; <UNDEFINED> instruction: 0xb7170213
    1490:	00001742 	andeq	r1, r0, r2, asr #14
    1494:	0300340c 	movweq	r3, #1036	; 0x40c
    1498:	3b0b3a08 	blcc	2cfcc0 <__bss_end__+0x2c5cb8>
    149c:	490b390b 	stmdbmi	fp, {r0, r1, r3, r8, fp, ip, sp}
    14a0:	b7170213 			; <UNDEFINED> instruction: 0xb7170213
    14a4:	00001742 	andeq	r1, r0, r2, asr #14
    14a8:	01110100 	tsteq	r1, r0, lsl #2
    14ac:	0b130e25 	bleq	4c4d48 <__bss_end__+0x4bad40>
    14b0:	0e1b0e03 	cdpeq	14, 1, cr0, cr11, cr3, {0}
    14b4:	06120111 			; <UNDEFINED> instruction: 0x06120111
    14b8:	00001710 	andeq	r1, r0, r0, lsl r7
    14bc:	0b002402 	bleq	a4cc <__bss_end__+0x4c4>
    14c0:	030b3e0b 	movweq	r3, #48651	; 0xbe0b
    14c4:	03000008 	movweq	r0, #8
    14c8:	0b0b0024 	bleq	2c1560 <__bss_end__+0x2b7558>
    14cc:	0e030b3e 	vmoveq.16	d3[0], r0
    14d0:	15040000 	strne	r0, [r4, #-0]
    14d4:	49192701 	ldmdbmi	r9, {r0, r8, r9, sl, sp}
    14d8:	00130113 	andseq	r0, r3, r3, lsl r1
    14dc:	00050500 	andeq	r0, r5, r0, lsl #10
    14e0:	00001349 	andeq	r1, r0, r9, asr #6
    14e4:	03003406 	movweq	r3, #1030	; 0x406
    14e8:	3b0b3a0e 	blcc	2cfd28 <__bss_end__+0x2c5d20>
    14ec:	490b390b 	stmdbmi	fp, {r0, r1, r3, r8, fp, ip, sp}
    14f0:	3c193f13 	ldccc	15, cr3, [r9], {19}
    14f4:	07000019 	smladeq	r0, r9, r0, r0
    14f8:	0b0b000f 	bleq	2c153c <__bss_end__+0x2b7534>
    14fc:	00001349 	andeq	r1, r0, r9, asr #6
    1500:	49002608 	stmdbmi	r0, {r3, r9, sl, sp}
    1504:	09000013 	stmdbeq	r0, {r0, r1, r4}
    1508:	193f002e 	ldmdbne	pc!, {r1, r2, r3, r5}	; <UNPREDICTABLE>
    150c:	0b3a0e03 	bleq	e84d20 <__bss_end__+0xe7ad18>
    1510:	0b390b3b 	bleq	e44204 <__bss_end__+0xe3a1fc>
    1514:	01111927 	tsteq	r1, r7, lsr #18
    1518:	18400612 	stmdane	r0, {r1, r4, r9, sl}^
    151c:	00194297 	mulseq	r9, r7, r2
	...

Disassembly of section .debug_loc:

00000000 <.debug_loc>:
       0:	00030300 	andeq	r0, r3, r0, lsl #6
       4:	0000003c 	andeq	r0, r0, ip, lsr r0
       8:	0000003c 	andeq	r0, r0, ip, lsr r0
       c:	3c500001 	mrrccc	0, 0, r0, r0, cr1	; <UNPREDICTABLE>
      10:	7c000000 	stcvc	0, cr0, [r0], {-0}
      14:	01000000 	mrseq	r0, (UNDEF: 0)
      18:	00005500 	andeq	r5, r0, r0, lsl #10
	...
      24:	0000005c 	andeq	r0, r0, ip, asr r0
      28:	0000006c 	andeq	r0, r0, ip, rrx
      2c:	00500001 	subseq	r0, r0, r1
      30:	00000000 	andeq	r0, r0, r0
      34:	05000000 	streq	r0, [r0, #-0]
      38:	00000000 	andeq	r0, r0, r0
      3c:	00001c00 	andeq	r1, r0, r0, lsl #24
      40:	30000200 	andcc	r0, r0, r0, lsl #4
      44:	0000009f 	muleq	r0, pc, r0	; <UNPREDICTABLE>
      48:	00000000 	andeq	r0, r0, r0
      4c:	3c030200 	sfmcc	f0, 4, [r3], {-0}
      50:	3c000000 	stccc	0, cr0, [r0], {-0}
      54:	02000000 	andeq	r0, r0, #0, 0
      58:	009f3000 	addseq	r3, pc, r0
      5c:	00000000 	andeq	r0, r0, r0
      60:	01000000 	mrseq	r0, (UNDEF: 0)
      64:	a8000000 	stmdage	r0, {}	; <UNPREDICTABLE>
      68:	ac000001 	stcge	0, cr0, [r0], {1}
      6c:	02000001 	andeq	r0, r0, #1, 0
      70:	b49f3000 	ldrlt	r3, [pc], #0	; 78 <__code_start__-0x7f88>
      74:	c4000001 	strgt	r0, [r0], #-1
      78:	01000001 	tsteq	r0, r1
      7c:	00005000 	andeq	r5, r0, r0
      80:	00000000 	andeq	r0, r0, r0
      84:	29000000 	stmdbcs	r0, {}	; <UNPREDICTABLE>
      88:	55525229 	ldrbpl	r5, [r2, #-553]	; 0xfffffdd7
      8c:	2a010055 	bcs	401e8 <__bss_end__+0x361e0>
      90:	5553532a 	ldrbpl	r5, [r3, #-810]	; 0xfffffcd6
      94:	06000055 			; <UNDEFINED> instruction: 0x06000055
      98:	00090906 	andeq	r0, r9, r6, lsl #18
      9c:	55292900 	strpl	r2, [r9, #-2304]!	; 0xfffff700
      a0:	06000055 			; <UNDEFINED> instruction: 0x06000055
      a4:	362f2f06 	strtcc	r2, [pc], -r6, lsl #30
      a8:	06000036 			; <UNDEFINED> instruction: 0x06000036
      ac:	120c0c06 	andne	r0, ip, #1536	; 0x600
      b0:	1f181812 	svcne	0x00181812
      b4:	00a0001f 	adceq	r0, r0, pc, lsl r0
      b8:	00a00000 	adceq	r0, r0, r0
      bc:	00010000 	andeq	r0, r1, r0
      c0:	0000a050 	andeq	sl, r0, r0, asr r0
      c4:	0000a000 	andeq	sl, r0, r0
      c8:	70000800 	andvc	r0, r0, r0, lsl #16
      cc:	1af00900 	bne	ffc024d4 <__bss_end__+0xffbf84cc>
      d0:	a09f2131 	addsge	r2, pc, r1, lsr r1	; <UNPREDICTABLE>
      d4:	a0000000 	andge	r0, r0, r0
      d8:	0b000000 	bleq	e0 <__code_start__-0x7f20>
      dc:	0b007000 	bleq	1c0e4 <__bss_end__+0x120dc>
      e0:	0a1af9f0 	beq	6be8a8 <__bss_end__+0x6b48a0>
      e4:	9f210601 	svcls	0x00210601
      e8:	000000a0 	andeq	r0, r0, r0, lsr #1
      ec:	000000a8 	andeq	r0, r0, r8, lsr #1
      f0:	0070000d 	rsbseq	r0, r0, sp
      f4:	1af9f00b 	bne	ffe7c128 <__bss_end__+0xffe72120>
      f8:	0006010c 	andeq	r0, r6, ip, lsl #2
      fc:	b89f215a 	ldmlt	pc, {r1, r3, r4, r6, r8, sp}	; <UNPREDICTABLE>
     100:	b8000000 	stmdalt	r0, {}	; <UNPREDICTABLE>
     104:	02000000 	andeq	r0, r0, #0, 0
     108:	b89f3000 	ldmlt	pc, {ip, sp}	; <UNPREDICTABLE>
     10c:	b8000000 	stmdalt	r0, {}	; <UNPREDICTABLE>
     110:	04000000 	streq	r0, [r0], #-0
     114:	60000a00 	andvs	r0, r0, r0, lsl #20
     118:	0000b89f 	muleq	r0, pc, r8	; <UNPREDICTABLE>
     11c:	0000b800 	andeq	fp, r0, r0, lsl #16
     120:	0a000400 	beq	1128 <__code_start__-0x6ed8>
     124:	b89f6cd8 	ldmlt	pc, {r3, r4, r6, r7, sl, fp, sp, lr}	; <UNPREDICTABLE>
     128:	cc000000 	stcgt	0, cr0, [r0], {-0}
     12c:	06000000 	streq	r0, [r0], -r0
     130:	6cd80c00 	ldclvs	12, cr0, [r8], {0}
     134:	cc9f5a00 	vldmiagt	pc, {s10-s9}
     138:	cc000000 	stcgt	0, cr0, [r0], {-0}
     13c:	01000000 	mrseq	r0, (UNDEF: 0)
     140:	00cc5000 	sbceq	r5, ip, r0
     144:	00cc0000 	sbceq	r0, ip, r0
     148:	00050000 	andeq	r0, r5, r0
     14c:	21400070 	hvccs	0
     150:	0000cc9f 	muleq	r0, pc, ip	; <UNPREDICTABLE>
     154:	0000d800 	andeq	sp, r0, r0, lsl #16
     158:	70000900 	andvc	r0, r0, r0, lsl #18
     15c:	00100c00 	andseq	r0, r0, r0, lsl #24
     160:	9f215a00 	svcls	0x00215a00
     164:	000000e8 	andeq	r0, r0, r8, ror #1
     168:	000000e8 	andeq	r0, r0, r8, ror #1
     16c:	e8500001 	ldmda	r0, {r0}^
     170:	e8000000 	stmda	r0, {}	; <UNPREDICTABLE>
     174:	0c000000 	stceq	0, cr0, [r0], {-0}
     178:	11007000 	mrsne	r7, (UNDEF: 0)
     17c:	1a4087ff 	bne	1022180 <__bss_end__+0x1018178>
     180:	21fc000a 	mvnscs	r0, sl
     184:	0000e89f 	muleq	r0, pc, r8	; <UNPREDICTABLE>
     188:	0000fc00 	andeq	pc, r0, r0, lsl #24
     18c:	70000c00 	andvc	r0, r0, r0, lsl #24
     190:	80801100 	addhi	r1, r0, r0, lsl #2
     194:	200a1a40 	andcs	r1, sl, r0, asr #20
     198:	089f21fc 	ldmeq	pc, {r2, r3, r4, r5, r6, r7, r8, sp}	; <UNPREDICTABLE>
     19c:	08000001 	stmdaeq	r0, {r0}
     1a0:	01000001 	tsteq	r0, r1
     1a4:	01085000 	mrseq	r5, (UNDEF: 8)
     1a8:	01080000 	mrseq	r0, (UNDEF: 8)
     1ac:	00070000 	andeq	r0, r7, r0
     1b0:	4a400070 	bmi	1000378 <__bss_end__+0xff6370>
     1b4:	089f2124 	ldmeq	pc, {r2, r5, r8, sp}	; <UNPREDICTABLE>
     1b8:	08000001 	stmdaeq	r0, {r0}
     1bc:	0e000001 	cdpeq	0, 0, cr0, cr0, cr1, {0}
     1c0:	11007000 	mrsne	r7, (UNDEF: 0)
     1c4:	1a43ffff 	bne	11001c8 <__bss_end__+0x10f61c0>
     1c8:	0800000c 	stmdaeq	r0, {r2, r3}
     1cc:	089f2140 	ldmeq	pc, {r6, r8, sp}	; <UNPREDICTABLE>
     1d0:	18000001 	stmdane	r0, {r0}
     1d4:	0f000001 	svceq	0x00000001
     1d8:	11007000 	mrsne	r7, (UNDEF: 0)
     1dc:	1a43ffff 	bne	11001e0 <__bss_end__+0x10f61d8>
     1e0:	a0808011 	addge	r8, r0, r1, lsl r0
     1e4:	9f217c80 	svcls	0x00217c80
     1e8:	00000124 	andeq	r0, r0, r4, lsr #2
     1ec:	00000124 	andeq	r0, r0, r4, lsr #2
     1f0:	24500001 	ldrbcs	r0, [r0], #-1
     1f4:	24000001 	strcs	r0, [r0], #-1
     1f8:	05000001 	streq	r0, [r0, #-1]
     1fc:	31007000 	mrscc	r7, (UNDEF: 0)
     200:	01249f21 			; <UNDEFINED> instruction: 0x01249f21
     204:	01240000 			; <UNDEFINED> instruction: 0x01240000
     208:	00090000 	andeq	r0, r9, r0
     20c:	010c0070 	tsteq	ip, r0, ror r0
     210:	21020000 	mrscs	r0, (UNDEF: 2)
     214:	0001249f 	muleq	r1, pc, r4	; <UNPREDICTABLE>
     218:	00012400 	andeq	r2, r1, r0, lsl #8
     21c:	70000900 	andvc	r0, r0, r0, lsl #18
     220:	00110c00 	andseq	r0, r1, r0, lsl #24
     224:	9f210200 	svcls	0x00210200
     228:	00000124 	andeq	r0, r0, r4, lsr #2
     22c:	00000124 	andeq	r0, r0, r4, lsr #2
     230:	00700009 	rsbseq	r0, r0, r9
     234:	0000130c 	andeq	r1, r0, ip, lsl #6
     238:	249f2102 	ldrcs	r2, [pc], #258	; 240 <__code_start__-0x7dc0>
     23c:	30000001 	andcc	r0, r0, r1
     240:	09000001 	stmdbeq	r0, {r0}
     244:	0c007000 	stceq	0, cr7, [r0], {-0}
     248:	03000013 	movweq	r0, #19
     24c:	00009f21 	andeq	r9, r0, r1, lsr #30
     250:	00000000 	andeq	r0, r0, r0
     254:	55530000 	ldrbpl	r0, [r3, #-0]
     258:	000000a0 	andeq	r0, r0, r0, lsr #1
     25c:	000000a0 	andeq	r0, r0, r0, lsr #1
     260:	0070000b 	rsbseq	r0, r0, fp
     264:	1af9f00b 	bne	ffe7c298 <__bss_end__+0xffe72290>
     268:	2106010a 	tstcs	r6, sl, lsl #2
     26c:	0000009f 	muleq	r0, pc, r0	; <UNPREDICTABLE>
     270:	00000000 	andeq	r0, r0, r0
     274:	cc090700 	stcgt	7, cr0, [r9], {-0}
     278:	cc000000 	stcgt	0, cr0, [r0], {-0}
     27c:	05000000 	streq	r0, [r0, #-0]
     280:	40007000 	andmi	r7, r0, r0
     284:	00009f21 	andeq	r9, r0, r1, lsr #30
     288:	00000000 	andeq	r0, r0, r0
     28c:	552a0000 	strpl	r0, [sl, #-0]!
     290:	000000e8 	andeq	r0, r0, r8, ror #1
     294:	000000e8 	andeq	r0, r0, r8, ror #1
     298:	20080003 	andcs	r0, r8, r3
     29c:	0000009f 	muleq	r0, pc, r0	; <UNPREDICTABLE>
     2a0:	00000000 	andeq	r0, r0, r0
     2a4:	e8552a00 	ldmda	r5, {r9, fp, sp}^
     2a8:	e8000000 	stmda	r0, {}	; <UNPREDICTABLE>
     2ac:	02000000 	andeq	r0, r0, #0, 0
     2b0:	009f3900 	addseq	r3, pc, r0, lsl #18
     2b4:	00000000 	andeq	r0, r0, r0
     2b8:	2a000000 	bcs	2c0 <__code_start__-0x7d40>
     2bc:	0000e855 	andeq	lr, r0, r5, asr r8
     2c0:	0000e800 	andeq	lr, r0, r0, lsl #16
     2c4:	30000200 	andcc	r0, r0, r0, lsl #4
     2c8:	0000009f 	muleq	r0, pc, r0	; <UNPREDICTABLE>
     2cc:	00000000 	andeq	r0, r0, r0
     2d0:	e8552a00 	ldmda	r5, {r9, fp, sp}^
     2d4:	e8000000 	stmda	r0, {}	; <UNPREDICTABLE>
     2d8:	0c000000 	stceq	0, cr0, [r0], {-0}
     2dc:	11007000 	mrsne	r7, (UNDEF: 0)
     2e0:	1a4087ff 	bne	10222e4 <__bss_end__+0x10182dc>
     2e4:	21fc000a 	mvnscs	r0, sl
     2e8:	0000009f 	muleq	r0, pc, r0	; <UNPREDICTABLE>
     2ec:	00000000 	andeq	r0, r0, r0
     2f0:	e8553400 	ldmda	r5, {sl, ip, sp}^
     2f4:	e8000000 	stmda	r0, {}	; <UNPREDICTABLE>
     2f8:	02000000 	andeq	r0, r0, #0, 0
     2fc:	009f3a00 	addseq	r3, pc, r0, lsl #20
     300:	00000000 	andeq	r0, r0, r0
     304:	30000000 	andcc	r0, r0, r0
     308:	00010836 	andeq	r0, r1, r6, lsr r8
     30c:	00010800 	andeq	r0, r1, r0, lsl #16
     310:	4f000200 	svcmi	0x00000200
     314:	0000009f 	muleq	r0, pc, r0	; <UNPREDICTABLE>
     318:	00000000 	andeq	r0, r0, r0
     31c:	08363000 	ldmdaeq	r6!, {ip, sp}
     320:	08000001 	stmdaeq	r0, {r0}
     324:	0e000001 	cdpeq	0, 0, cr0, cr0, cr1, {0}
     328:	11007000 	mrsne	r7, (UNDEF: 0)
     32c:	1a43ffff 	bne	1100330 <__bss_end__+0x10f6328>
     330:	0800000c 	stmdaeq	r0, {r2, r3}
     334:	009f2140 	addseq	r2, pc, r0, asr #2
     338:	00000000 	andeq	r0, r0, r0
     33c:	19000000 	stmdbne	r0, {}	; <UNPREDICTABLE>
     340:	0001241f 	andeq	r2, r1, pc, lsl r4
     344:	00012400 	andeq	r2, r1, r0, lsl #8
     348:	48000200 	stmdami	r0, {r9}
     34c:	0000009f 	muleq	r0, pc, r0	; <UNPREDICTABLE>
     350:	00000000 	andeq	r0, r0, r0
     354:	241f1900 	ldrcs	r1, [pc], #-2304	; 35c <__code_start__-0x7ca4>
     358:	24000001 	strcs	r0, [r0], #-1
     35c:	09000001 	stmdbeq	r0, {r0}
     360:	0c007000 	stceq	0, cr7, [r0], {-0}
     364:	02000013 	andeq	r0, r0, #19, 0
     368:	00009f21 	andeq	r9, r0, r1, lsr #30
     36c:	00000000 	andeq	r0, r0, r0
     370:	08000000 	stmdaeq	r0, {}	; <UNPREDICTABLE>
     374:	00000140 	andeq	r0, r0, r0, asr #2
     378:	00000140 	andeq	r0, r0, r0, asr #2
     37c:	9f480002 	svcls	0x00480002
	...
     388:	01400800 	cmpeq	r0, r0, lsl #16
     38c:	01400000 	mrseq	r0, (UNDEF: 64)
     390:	00010000 	andeq	r0, r1, r0
     394:	00000050 	andeq	r0, r0, r0, asr r0
     398:	00000000 	andeq	r0, r0, r0
     39c:	40080200 	andmi	r0, r8, r0, lsl #4
     3a0:	40000001 	andmi	r0, r0, r1
     3a4:	02000001 	andeq	r0, r0, #1, 0
     3a8:	009f4800 	addseq	r4, pc, r0, lsl #16
     3ac:	00000000 	andeq	r0, r0, r0
     3b0:	02000000 	andeq	r0, r0, #0, 0
     3b4:	00014008 	andeq	r4, r1, r8
     3b8:	00014000 	andeq	r4, r1, r0
     3bc:	50000100 	andpl	r0, r0, r0, lsl #2
	...
     3c8:	00000001 	andeq	r0, r0, r1
     3cc:	00380000 	eorseq	r0, r8, r0
     3d0:	00060000 	andeq	r0, r6, r0
     3d4:	0007c9fa 	strdeq	ip, [r7], -sl
     3d8:	00009f00 	andeq	r9, r0, r0, lsl #30
     3dc:	00000000 	andeq	r0, r0, r0
     3e0:	00010000 	andeq	r0, r1, r0
     3e4:	00000000 	andeq	r0, r0, r0
     3e8:	00000038 	andeq	r0, r0, r8, lsr r0
     3ec:	befa0006 	cdplt	0, 15, cr0, cr10, cr6, {0}
     3f0:	9f000007 	svcls	0x00000007
	...
     3fc:	00000001 	andeq	r0, r0, r1
     400:	00380000 	eorseq	r0, r8, r0
     404:	00060000 	andeq	r0, r6, r0
     408:	0007b3fa 	strdeq	fp, [r7], -sl
     40c:	00009f00 	andeq	r9, r0, r0, lsl #30
     410:	00000000 	andeq	r0, r0, r0
     414:	00010000 	andeq	r0, r1, r0
     418:	00000000 	andeq	r0, r0, r0
     41c:	00000038 	andeq	r0, r0, r8, lsr r0
     420:	a9fa0006 	ldmibge	sl!, {r1, r2}^
     424:	9f000007 	svcls	0x00000007
	...
     434:	00000038 	andeq	r0, r0, r8, lsr r0
     438:	0000003c 	andeq	r0, r0, ip, lsr r0
     43c:	3c500001 	mrrccc	0, 0, r0, r0, cr1	; <UNPREDICTABLE>
     440:	40000000 	andmi	r0, r0, r0
     444:	04000000 	streq	r0, [r0], #-0
     448:	5001f300 	andpl	pc, r1, r0, lsl #6
     44c:	0000009f 	muleq	r0, pc, r0	; <UNPREDICTABLE>
	...
     458:	00031400 	andeq	r1, r3, r0, lsl #8
     45c:	00032800 	andeq	r2, r3, r0, lsl #16
     460:	50000100 	andpl	r0, r0, r0, lsl #2
     464:	00000328 	andeq	r0, r0, r8, lsr #6
     468:	0000033c 	andeq	r0, r0, ip, lsr r3
     46c:	01f30004 	mvnseq	r0, r4
     470:	00009f50 	andeq	r9, r0, r0, asr pc
	...
     47c:	03140000 	tsteq	r4, #0, 0
     480:	03240000 			; <UNDEFINED> instruction: 0x03240000
     484:	00010000 	andeq	r0, r1, r0
     488:	00032451 	andeq	r2, r3, r1, asr r4
     48c:	00033c00 	andeq	r3, r3, r0, lsl #24
     490:	f3000400 	vshl.u8	d0, d0, d0
     494:	009f5101 	addseq	r5, pc, r1, lsl #2
	...
     4a0:	14000000 	strne	r0, [r0], #-0
     4a4:	20000003 	andcs	r0, r0, r3
     4a8:	01000003 	tsteq	r0, r3
     4ac:	03205200 	nopeq	{0}	; <UNPREDICTABLE>
     4b0:	033c0000 	teqeq	ip, #0, 0
     4b4:	00040000 	andeq	r0, r4, r0
     4b8:	9f5201f3 	svcls	0x005201f3
	...
     4d4:	00000038 	andeq	r0, r0, r8, lsr r0
     4d8:	38500001 	ldmdacc	r0, {r0}^
     4dc:	28000000 	stmdacs	r0, {}	; <UNPREDICTABLE>
     4e0:	01000002 	tsteq	r0, r2
     4e4:	02285a00 	eoreq	r5, r8, #0, 20
     4e8:	02340000 	eorseq	r0, r4, #0, 0
     4ec:	00040000 	andeq	r0, r4, r0
     4f0:	9f5001f3 	svcls	0x005001f3
     4f4:	00000234 	andeq	r0, r0, r4, lsr r2
     4f8:	000002ec 	andeq	r0, r0, ip, ror #5
     4fc:	ec5a0001 	mrrc	0, 0, r0, sl, cr1
     500:	fc000002 	stc2	0, cr0, [r0], {2}
     504:	01000002 	tsteq	r0, r2
     508:	02fc5000 	rscseq	r5, ip, #0, 0
     50c:	03140000 	tsteq	r4, #0, 0
     510:	00040000 	andeq	r0, r4, r0
     514:	9f5001f3 	svcls	0x005001f3
	...
     530:	00000030 	andeq	r0, r0, r0, lsr r0
     534:	30510001 	subscc	r0, r1, r1
     538:	28000000 	stmdacs	r0, {}	; <UNPREDICTABLE>
     53c:	01000002 	tsteq	r0, r2
     540:	02285800 	eoreq	r5, r8, #0, 16
     544:	02340000 	eorseq	r0, r4, #0, 0
     548:	00040000 	andeq	r0, r4, r0
     54c:	9f5101f3 	svcls	0x005101f3
     550:	00000234 	andeq	r0, r0, r4, lsr r2
     554:	000002ec 	andeq	r0, r0, ip, ror #5
     558:	ec580001 	mrrc	0, 0, r0, r8, cr1
     55c:	f8000002 			; <UNDEFINED> instruction: 0xf8000002
     560:	01000002 	tsteq	r0, r2
     564:	02f85100 	rscseq	r5, r8, #0
     568:	03140000 	tsteq	r4, #0, 0
     56c:	00040000 	andeq	r0, r4, r0
     570:	9f5101f3 	svcls	0x005101f3
	...
     588:	00000040 	andeq	r0, r0, r0, asr #32
     58c:	40520001 	subsmi	r0, r2, r1
     590:	ec000000 	stc	0, cr0, [r0], {-0}
     594:	04000002 	streq	r0, [r0], #-2
     598:	5201f300 	andpl	pc, r1, #0, 6
     59c:	0002ec9f 	muleq	r2, pc, ip	; <UNPREDICTABLE>
     5a0:	0002f400 	andeq	pc, r2, r0, lsl #8
     5a4:	52000100 	andpl	r0, r0, #0
     5a8:	000002f4 	strdeq	r0, [r0], -r4
     5ac:	00000314 	andeq	r0, r0, r4, lsl r3
     5b0:	01f30004 	mvnseq	r0, r4
     5b4:	00009f52 	andeq	r9, r0, r2, asr pc
	...
     5c8:	00400000 	subeq	r0, r0, r0
     5cc:	00010000 	andeq	r0, r1, r0
     5d0:	00004053 	andeq	r4, r0, r3, asr r0
     5d4:	0002ec00 	andeq	lr, r2, r0, lsl #24
     5d8:	91000200 	mrsls	r0, R8_usr
     5dc:	0002ec4c 	andeq	lr, r2, ip, asr #24
     5e0:	0002f000 	andeq	pc, r2, r0
     5e4:	53000100 	movwpl	r0, #256	; 0x100
     5e8:	000002f0 	strdeq	r0, [r0], -r0	; <UNPREDICTABLE>
     5ec:	00000314 	andeq	r0, r0, r4, lsl r3
     5f0:	4c910002 	ldcmi	0, cr0, [r1], {2}
	...
     600:	0000000c 	andeq	r0, r0, ip
     604:	000000b4 	strheq	r0, [r0], -r4
     608:	ec540001 	mrrc	0, 0, r0, r4, cr1
     60c:	14000002 	strne	r0, [r0], #-2
     610:	01000003 	tsteq	r0, r3
     614:	00005400 	andeq	r5, r0, r0, lsl #8
	...
     620:	00b40000 	adcseq	r0, r4, r0
     624:	02280000 	eoreq	r0, r8, #0, 0
     628:	00020000 	andeq	r0, r2, r0
     62c:	02349f30 	eorseq	r9, r4, #48, 30	; 0xc0
     630:	02ec0000 	rsceq	r0, ip, #0, 0
     634:	00020000 	andeq	r0, r2, r0
     638:	00009f30 	andeq	r9, r0, r0, lsr pc
	...
     648:	0000001c 	andeq	r0, r0, ip, lsl r0
     64c:	00000040 	andeq	r0, r0, r0, asr #32
     650:	9f300002 	svcls	0x00300002
     654:	00000040 	andeq	r0, r0, r0, asr #32
     658:	0000005c 	andeq	r0, r0, ip, asr r0
     65c:	60510001 	subsvs	r0, r1, r1
     660:	b4000000 	strlt	r0, [r0], #-0
     664:	01000000 	mrseq	r0, (UNDEF: 0)
     668:	00005100 	andeq	r5, r0, r0, lsl #2
	...
     674:	00010000 	andeq	r0, r1, r0
     678:	000000b4 	strheq	r0, [r0], -r4
     67c:	000000dc 	ldrdeq	r0, [r0], -ip
     680:	b4910003 	ldrlt	r0, [r1], #3
     684:	0000dc7f 	andeq	sp, r0, pc, ror ip
     688:	0000e000 	andeq	lr, r0, r0
     68c:	51000100 	mrspl	r0, (UNDEF: 16)
     690:	00000224 	andeq	r0, r0, r4, lsr #4
     694:	00000228 	andeq	r0, r0, r8, lsr #4
     698:	00520001 	subseq	r0, r2, r1
	...
     6a4:	b4000000 	strlt	r0, [r0], #-0
     6a8:	28000000 	stmdacs	r0, {}	; <UNPREDICTABLE>
     6ac:	02000002 	andeq	r0, r0, #2, 0
     6b0:	34449100 	strbcc	r9, [r4], #-256	; 0xffffff00
     6b4:	ec000002 	stc	0, cr0, [r0], {2}
     6b8:	02000002 	andeq	r0, r0, #2, 0
     6bc:	00449100 	subeq	r9, r4, r0, lsl #2
	...
     6cc:	1c000000 	stcne	0, cr0, [r0], {-0}
     6d0:	40000000 	andmi	r0, r0, r0
     6d4:	02000000 	andeq	r0, r0, #0, 0
     6d8:	409f3100 	addsmi	r3, pc, r0, lsl #2
     6dc:	b4000000 	strlt	r0, [r0], #-0
     6e0:	01000000 	mrseq	r0, (UNDEF: 0)
     6e4:	00b45500 	adcseq	r5, r4, r0, lsl #10
     6e8:	02280000 	eoreq	r0, r8, #0, 0
     6ec:	00030000 	andeq	r0, r3, r0
     6f0:	347fb891 	ldrbtcc	fp, [pc], #-2193	; 6f8 <__code_start__-0x7908>
     6f4:	ec000002 	stc	0, cr0, [r0], {2}
     6f8:	03000002 	movweq	r0, #2
     6fc:	7fb89100 	svcvc	0x00b89100
	...
     70c:	00000044 	andeq	r0, r0, r4, asr #32
     710:	0000006c 	andeq	r0, r0, ip, rrx
     714:	6c530001 	mrrcvs	0, 0, r0, r3, cr1
     718:	74000000 	strvc	r0, [r0], #-0
     71c:	03000000 	movweq	r0, #0
     720:	9f017200 	svcls	0x00017200
	...
     730:	00000074 	andeq	r0, r0, r4, ror r0
     734:	00000080 	andeq	r0, r0, r0, lsl #1
     738:	80520001 	subshi	r0, r2, r1
     73c:	88000000 	stmdahi	r0, {}	; <UNPREDICTABLE>
     740:	05000000 	streq	r0, [r0, #-0]
     744:	73007a00 	movwvc	r7, #2560	; 0xa00
     748:	00002200 	andeq	r2, r0, r0, lsl #4
	...
     754:	00000080 	andeq	r0, r0, r0, lsl #1
     758:	0000008c 	andeq	r0, r0, ip, lsl #1
     75c:	00520001 	subseq	r0, r2, r1
     760:	00000000 	andeq	r0, r0, r0
     764:	02000000 	andeq	r0, r0, #0, 0
     768:	0000b403 	andeq	fp, r0, r3, lsl #8
     76c:	0000b400 	andeq	fp, r0, r0, lsl #8
     770:	31000200 	mrscc	r0, R8_usr
     774:	0000009f 	muleq	r0, pc, r0	; <UNPREDICTABLE>
	...
     780:	dc000000 	stcle	0, cr0, [r0], {-0}
     784:	e0000000 	and	r0, r0, r0
     788:	01000000 	mrseq	r0, (UNDEF: 0)
     78c:	00e05200 	rsceq	r5, r0, r0, lsl #4
     790:	02280000 	eoreq	r0, r8, #0, 0
     794:	00030000 	andeq	r0, r3, r0
     798:	347fb491 	ldrbtcc	fp, [pc], #-1169	; 7a0 <__code_start__-0x7860>
     79c:	ec000002 	stc	0, cr0, [r0], {2}
     7a0:	03000002 	movweq	r0, #2
     7a4:	7fb49100 	svcvc	0x00b49100
	...
     7b0:	00000002 	andeq	r0, r0, r2
     7b4:	00000000 	andeq	r0, r0, r0
     7b8:	00dc0000 	sbcseq	r0, ip, r0
     7bc:	00e00000 	rsceq	r0, r0, r0
     7c0:	00020000 	andeq	r0, r2, r0
     7c4:	00e09f30 	rsceq	r9, r0, r0, lsr pc
     7c8:	02040000 	andeq	r0, r4, #0, 0
     7cc:	00020000 	andeq	r0, r2, r0
     7d0:	02044091 	andeq	r4, r4, #145, 0	; 0x91
     7d4:	02080000 	andeq	r0, r8, #0, 0
     7d8:	00010000 	andeq	r0, r1, r0
     7dc:	00023453 	andeq	r3, r2, r3, asr r4
     7e0:	00024000 	andeq	r4, r2, r0
     7e4:	5b000100 	blpl	bec <__code_start__-0x7414>
     7e8:	00000240 	andeq	r0, r0, r0, asr #4
     7ec:	000002ec 	andeq	r0, r0, ip, ror #5
     7f0:	40910002 	addsmi	r0, r1, r2
	...
     800:	00f00000 	rscseq	r0, r0, r0
     804:	01040000 	mrseq	r0, (UNDEF: 4)
     808:	00010000 	andeq	r0, r1, r0
     80c:	00010453 	andeq	r0, r1, r3, asr r4
     810:	00013400 	andeq	r3, r1, r0, lsl #8
     814:	91000800 	tstls	r0, r0, lsl #16
     818:	44910640 	ldrmi	r0, [r1], #1600	; 0x640
     81c:	349f2406 	ldrcc	r2, [pc], #1030	; 824 <__code_start__-0x77dc>
     820:	40000002 	andmi	r0, r0, r2
     824:	07000002 	streq	r0, [r0, -r2]
     828:	91007b00 	tstls	r0, r0, lsl #22
     82c:	9f240644 	svcls	0x00240644
	...
     840:	00000108 	andeq	r0, r0, r8, lsl #2
     844:	00000124 	andeq	r0, r0, r4, lsr #2
     848:	24570001 	ldrbcs	r0, [r7], #-1
     84c:	2c000001 	stccs	0, cr0, [r0], {1}
     850:	05000001 	streq	r0, [r0, #-1]
     854:	72007000 	andvc	r7, r0, #0, 0
     858:	012c2200 			; <UNDEFINED> instruction: 0x012c2200
     85c:	02080000 	andeq	r0, r8, #0, 0
     860:	00010000 	andeq	r0, r1, r0
     864:	00023457 	andeq	r3, r2, r7, asr r4
     868:	0002ec00 	andeq	lr, r2, r0, lsl #24
     86c:	57000100 	strpl	r0, [r0, -r0, lsl #2]
	...
     87c:	00010100 	andeq	r0, r1, r0, lsl #2
     880:	010c0000 	mrseq	r0, (UNDEF: 12)
     884:	011c0000 	tsteq	ip, r0
     888:	00040000 	andeq	r0, r4, r0
     88c:	9f1f0079 	svcls	0x001f0079
     890:	0000011c 	andeq	r0, r0, ip, lsl r1
     894:	00000120 	andeq	r0, r0, r0, lsr #2
     898:	20560001 	subscs	r0, r6, r1
     89c:	2c000001 	stccs	0, cr0, [r0], {1}
     8a0:	04000001 	streq	r0, [r0], #-1
     8a4:	1f007900 	svcne	0x00007900
     8a8:	00012c9f 	muleq	r1, pc, ip	; <UNPREDICTABLE>
     8ac:	0001f000 	andeq	pc, r1, r0
     8b0:	56000100 	strpl	r0, [r0], -r0, lsl #2
     8b4:	00000234 	andeq	r0, r0, r4, lsr r2
     8b8:	000002ec 	andeq	r0, r0, ip, ror #5
     8bc:	00590001 	subseq	r0, r9, r1
     8c0:	00000000 	andeq	r0, r0, r0
     8c4:	03000000 	movweq	r0, #0
     8c8:	01000000 	mrseq	r0, (UNDEF: 0)
     8cc:	00000300 	andeq	r0, r0, r0, lsl #6
     8d0:	2c000100 	stfcss	f0, [r0], {-0}
     8d4:	34000001 	strcc	r0, [r0], #-1
     8d8:	02000001 	andeq	r0, r0, #1, 0
     8dc:	34409100 	strbcc	r9, [r0], #-256	; 0xffffff00
     8e0:	98000001 	stmdals	r0, {r0}
     8e4:	01000001 	tsteq	r0, r1
     8e8:	01e85b00 	mvneq	r5, r0, lsl #22
     8ec:	02080000 	andeq	r0, r8, #0, 0
     8f0:	00010000 	andeq	r0, r1, r0
     8f4:	0002345b 	andeq	r3, r2, fp, asr r4
     8f8:	00024000 	andeq	r4, r2, r0
     8fc:	91000200 	mrsls	r0, R8_usr
     900:	00024040 	andeq	r4, r2, r0, asr #32
     904:	0002a400 	andeq	sl, r2, r0, lsl #8
     908:	5b000100 	blpl	d10 <__code_start__-0x72f0>
     90c:	000002e0 	andeq	r0, r0, r0, ror #5
     910:	000002ec 	andeq	r0, r0, ip, ror #5
     914:	005b0001 	subseq	r0, fp, r1
	...
     920:	64000000 	strvs	r0, [r0], #-0
     924:	cc000001 	stcgt	0, cr0, [r0], {1}
     928:	06000001 	streq	r0, [r0], -r1
     92c:	7c007e00 	stcvc	14, cr7, [r0], {-0}
     930:	709f1c00 	addsvc	r1, pc, r0, lsl #24
     934:	bc000002 	stclt	0, cr0, [r0], {2}
     938:	06000002 	streq	r0, [r0], -r2
     93c:	72007100 	andvc	r7, r0, #0
     940:	009f1c00 	addseq	r1, pc, r0, lsl #24
	...
     94c:	bc000000 	stclt	0, cr0, [r0], {-0}
     950:	f0000001 			; <UNDEFINED> instruction: 0xf0000001
     954:	01000001 	tsteq	r0, r1
     958:	02a45000 	adceq	r5, r4, #0, 0
     95c:	02c40000 	sbceq	r0, r4, #0, 0
     960:	00010000 	andeq	r0, r1, r0
     964:	00000053 	andeq	r0, r0, r3, asr r0
     968:	00000000 	andeq	r0, r0, r0
     96c:	04040100 	streq	r0, [r4], #-256	; 0xffffff00
     970:	bc000100 	stflts	f0, [r0], {-0}
     974:	bc000001 	stclt	0, cr0, [r0], {1}
     978:	05000001 	streq	r0, [r0, #-1]
     97c:	75007a00 	strvc	r7, [r0, #-2560]	; 0xfffff600
     980:	01bc2200 			; <UNDEFINED> instruction: 0x01bc2200
     984:	01d80000 	bicseq	r0, r8, r0
     988:	000a0000 	andeq	r0, sl, r0
     98c:	0075007a 	rsbseq	r0, r5, sl, ror r0
     990:	32029422 	andcc	r9, r2, #570425344	; 0x22000000
     994:	02a49f1b 	adceq	r9, r4, #108	; 0x6c
     998:	02d00000 	sbcseq	r0, r0, #0, 0
     99c:	00050000 	andeq	r0, r5, r0
     9a0:	0075007a 	rsbseq	r0, r5, sl, ror r0
     9a4:	00000022 	andeq	r0, r0, r2, lsr #32
     9a8:	00000000 	andeq	r0, r0, r0
     9ac:	05050200 	streq	r0, [r5, #-512]	; 0xfffffe00
     9b0:	00000200 	andeq	r0, r0, r0, lsl #4
     9b4:	0001bc00 	andeq	fp, r1, r0, lsl #24
     9b8:	0001bc00 	andeq	fp, r1, r0, lsl #24
     9bc:	78000500 	stmdavc	r0, {r8, sl}
     9c0:	22007500 	andcs	r7, r0, #0, 10
     9c4:	000001bc 			; <UNDEFINED> instruction: 0x000001bc
     9c8:	000001d8 	ldrdeq	r0, [r0], -r8
     9cc:	0078000a 	rsbseq	r0, r8, sl
     9d0:	94220075 	strtls	r0, [r2], #-117	; 0xffffff8b
     9d4:	9f1b3202 	svcls	0x001b3202
     9d8:	000002a4 	andeq	r0, r0, r4, lsr #5
     9dc:	000002a8 	andeq	r0, r0, r8, lsr #5
     9e0:	a85c0001 	ldmdage	ip, {r0}^
     9e4:	d0000002 	andle	r0, r0, r2
     9e8:	05000002 	streq	r0, [r0, #-2]
     9ec:	75007800 	strvc	r7, [r0, #-2048]	; 0xfffff800
     9f0:	00002200 	andeq	r2, r0, r0, lsl #4
	...
     9fc:	01380000 	teqeq	r8, r0
     a00:	01500000 	cmpeq	r0, r0
     a04:	00010000 	andeq	r0, r1, r0
     a08:	00024453 	andeq	r4, r2, r3, asr r4
     a0c:	00025800 	andeq	r5, r2, r0, lsl #16
     a10:	50000100 	andpl	r0, r0, r0, lsl #2
	...
     a20:	00000138 	andeq	r0, r0, r8, lsr r1
     a24:	00000150 	andeq	r0, r0, r0, asr r1
     a28:	44570001 	ldrbmi	r0, [r7], #-1
     a2c:	58000002 	stmdapl	r0, {r1}
     a30:	01000002 	tsteq	r0, r2
     a34:	00005700 	andeq	r5, r0, r0, lsl #14
     a38:	00000000 	andeq	r0, r0, r0
     a3c:	00010000 	andeq	r0, r1, r0
     a40:	013c0001 	teqeq	ip, r1
     a44:	01540000 	cmpeq	r4, r0
     a48:	00010000 	andeq	r0, r1, r0
     a4c:	00024852 	andeq	r4, r2, r2, asr r8
     a50:	00025c00 	andeq	r5, r2, r0, lsl #24
     a54:	53000100 	movwpl	r0, #256	; 0x100
	...
     a60:	00000003 	andeq	r0, r0, r3
     a64:	00030000 	andeq	r0, r3, r0
     a68:	00000000 	andeq	r0, r0, r0
     a6c:	0000013c 	andeq	r0, r0, ip, lsr r1
     a70:	00000144 	andeq	r0, r0, r4, asr #2
     a74:	00720007 	rsbseq	r0, r2, r7
     a78:	1a31263e 	bne	c4a378 <__bss_end__+0xc40370>
     a7c:	0001449f 	muleq	r1, pc, r4	; <UNPREDICTABLE>
     a80:	00014800 	andeq	r4, r1, r0, lsl #16
     a84:	5e000100 	adfpls	f0, f0, f0
     a88:	00000148 	andeq	r0, r0, r8, asr #2
     a8c:	00000150 	andeq	r0, r0, r0, asr r1
     a90:	00720007 	rsbseq	r0, r2, r7
     a94:	1a31263e 	bne	c4a394 <__bss_end__+0xc4038c>
     a98:	0002489f 	muleq	r2, pc, r8	; <UNPREDICTABLE>
     a9c:	00025000 	andeq	r5, r2, r0
     aa0:	73000700 	movwvc	r0, #1792	; 0x700
     aa4:	31263e00 			; <UNDEFINED> instruction: 0x31263e00
     aa8:	02509f1a 	subseq	r9, r0, #104	; 0x68
     aac:	02540000 	subseq	r0, r4, #0, 0
     ab0:	00010000 	andeq	r0, r1, r0
     ab4:	00025451 	andeq	r5, r2, r1, asr r4
     ab8:	00025800 	andeq	r5, r2, r0, lsl #16
     abc:	73000700 	movwvc	r0, #1792	; 0x700
     ac0:	31263e00 			; <UNDEFINED> instruction: 0x31263e00
     ac4:	00009f1a 	andeq	r9, r0, sl, lsl pc
     ac8:	00000000 	andeq	r0, r0, r0
     acc:	01020000 	mrseq	r0, (UNDEF: 2)
     ad0:	01380102 	teqeq	r8, r2, lsl #2
     ad4:	013c0000 	teqeq	ip, r0
     ad8:	00010000 	andeq	r0, r1, r0
     adc:	00024453 	andeq	r4, r2, r3, asr r4
     ae0:	00024800 	andeq	r4, r2, r0, lsl #16
     ae4:	50000100 	andpl	r0, r0, r0, lsl #2
	...
     af0:	01020102 	tsteq	r2, r2, lsl #2
     af4:	00000138 	andeq	r0, r0, r8, lsr r1
     af8:	0000013c 	andeq	r0, r0, ip, lsr r1
     afc:	44570001 	ldrbmi	r0, [r7], #-1
     b00:	48000002 	stmdami	r0, {r1}
     b04:	01000002 	tsteq	r0, r2
     b08:	00005700 	andeq	r5, r0, r0, lsl #14
     b0c:	00000000 	andeq	r0, r0, r0
     b10:	00040000 	andeq	r0, r4, r0
     b14:	00040100 	andeq	r0, r4, r0, lsl #2
     b18:	01380100 	teqeq	r8, r0, lsl #2
     b1c:	013c0000 	teqeq	ip, r0
     b20:	00020000 	andeq	r0, r2, r0
     b24:	013c9f30 	teqeq	ip, r0, lsr pc
     b28:	013c0000 	teqeq	ip, r0
     b2c:	00010000 	andeq	r0, r1, r0
     b30:	00024452 	andeq	r4, r2, r2, asr r4
     b34:	00024800 	andeq	r4, r2, r0, lsl #16
     b38:	30000200 	andcc	r0, r0, r0, lsl #4
     b3c:	0002489f 	muleq	r2, pc, r8	; <UNPREDICTABLE>
     b40:	00024800 	andeq	r4, r2, r0, lsl #16
     b44:	53000100 	movwpl	r0, #256	; 0x100
	...
     b54:	00000150 	andeq	r0, r0, r0, asr r1
     b58:	00000164 	andeq	r0, r0, r4, ror #2
     b5c:	5c500001 	mrrcpl	0, 0, r0, r0, cr1	; <UNPREDICTABLE>
     b60:	70000002 	andvc	r0, r0, r2
     b64:	01000002 	tsteq	r0, r2
     b68:	00005300 	andeq	r5, r0, r0, lsl #6
	...
     b74:	01500000 	cmpeq	r0, r0
     b78:	01640000 	cmneq	r4, r0
     b7c:	00010000 	andeq	r0, r1, r0
     b80:	00025c56 	andeq	r5, r2, r6, asr ip
     b84:	00027000 	andeq	r7, r2, r0
     b88:	59000100 	stmdbpl	r0, {r8}
	...
     b94:	00010001 	andeq	r0, r1, r1
     b98:	00000154 	andeq	r0, r0, r4, asr r1
     b9c:	0000017c 	andeq	r0, r0, ip, ror r1
     ba0:	60520001 	subsvs	r0, r2, r1
     ba4:	94000002 	strls	r0, [r0], #-2
     ba8:	01000002 	tsteq	r0, r2
     bac:	00005c00 	andeq	r5, r0, r0, lsl #24
     bb0:	00000000 	andeq	r0, r0, r0
     bb4:	00030000 	andeq	r0, r3, r0
     bb8:	00000000 	andeq	r0, r0, r0
     bbc:	00000003 	andeq	r0, r0, r3
     bc0:	01540000 	cmpeq	r4, r0
     bc4:	015c0000 	cmpeq	ip, r0
     bc8:	00070000 	andeq	r0, r7, r0
     bcc:	263e0072 			; <UNDEFINED> instruction: 0x263e0072
     bd0:	5c9f1a31 	vldmiapl	pc, {s2-s50}
     bd4:	60000001 	andvs	r0, r0, r1
     bd8:	01000001 	tsteq	r0, r1
     bdc:	01605c00 	cmneq	r0, r0, lsl #24
     be0:	01640000 	cmneq	r4, r0
     be4:	00070000 	andeq	r0, r7, r0
     be8:	263e0072 			; <UNDEFINED> instruction: 0x263e0072
     bec:	609f1a31 	addsvs	r1, pc, r1, lsr sl	; <UNPREDICTABLE>
     bf0:	68000002 	stmdavs	r0, {r1}
     bf4:	07000002 	streq	r0, [r0, -r2]
     bf8:	3e007c00 	cdpcc	12, 0, cr7, cr0, cr0, {0}
     bfc:	9f1a3126 	svcls	0x001a3126
     c00:	00000268 	andeq	r0, r0, r8, ror #4
     c04:	0000026c 	andeq	r0, r0, ip, ror #4
     c08:	6c520001 	mrrcvs	0, 0, r0, r2, cr1
     c0c:	70000002 	andvc	r0, r0, r2
     c10:	07000002 	streq	r0, [r0, -r2]
     c14:	3e007c00 	cdpcc	12, 0, cr7, cr0, cr0, {0}
     c18:	9f1a3126 	svcls	0x001a3126
	...
     c24:	01020103 	tsteq	r2, r3, lsl #2
     c28:	00000150 	andeq	r0, r0, r0, asr r1
     c2c:	00000154 	andeq	r0, r0, r4, asr r1
     c30:	5c500001 	mrrcpl	0, 0, r0, r0, cr1	; <UNPREDICTABLE>
     c34:	60000002 	andvs	r0, r0, r2
     c38:	01000002 	tsteq	r0, r2
     c3c:	00005300 	andeq	r5, r0, r0, lsl #6
     c40:	00000000 	andeq	r0, r0, r0
     c44:	01030000 	mrseq	r0, (UNDEF: 3)
     c48:	01500102 	cmpeq	r0, r2, lsl #2
     c4c:	01540000 	cmpeq	r4, r0
     c50:	00010000 	andeq	r0, r1, r0
     c54:	00025c56 	andeq	r5, r2, r6, asr ip
     c58:	00026000 	andeq	r6, r2, r0
     c5c:	59000100 	stmdbpl	r0, {r8}
	...
     c68:	01000005 	tsteq	r0, r5
     c6c:	01000004 	tsteq	r0, r4
     c70:	00000150 	andeq	r0, r0, r0, asr r1
     c74:	00000154 	andeq	r0, r0, r4, asr r1
     c78:	9f300002 	svcls	0x00300002
     c7c:	00000154 	andeq	r0, r0, r4, asr r1
     c80:	00000154 	andeq	r0, r0, r4, asr r1
     c84:	5c520001 	mrrcpl	0, 0, r0, r2, cr1
     c88:	60000002 	andvs	r0, r0, r2
     c8c:	02000002 	andeq	r0, r0, #2, 0
     c90:	609f3000 	addsvs	r3, pc, r0
     c94:	60000002 	andvs	r0, r0, r2
     c98:	01000002 	tsteq	r0, r2
     c9c:	00005c00 	andeq	r5, r0, r0, lsl #24
     ca0:	00000000 	andeq	r0, r0, r0
     ca4:	00020000 	andeq	r0, r2, r0
     ca8:	00020400 	andeq	r0, r2, r0, lsl #8
     cac:	01640400 	cmneq	r4, r0, lsl #8
     cb0:	01680000 	cmneq	r8, r0
     cb4:	00010000 	andeq	r0, r1, r0
     cb8:	00016850 	andeq	r6, r1, r0, asr r8
     cbc:	00016800 	andeq	r6, r1, r0, lsl #16
     cc0:	78000500 	stmdavc	r0, {r8, sl}
     cc4:	22007400 	andcs	r7, r0, #0, 8
     cc8:	00000270 	andeq	r0, r0, r0, ror r2
     ccc:	00000274 	andeq	r0, r0, r4, ror r2
     cd0:	74530001 	ldrbvc	r0, [r3], #-1
     cd4:	74000002 	strvc	r0, [r0], #-2
     cd8:	05000002 	streq	r0, [r0, #-2]
     cdc:	74007800 	strvc	r7, [r0], #-2048	; 0xfffff800
     ce0:	00002200 	andeq	r2, r0, r0, lsl #4
     ce4:	00000000 	andeq	r0, r0, r0
     ce8:	04020000 	streq	r0, [r2], #-0
     cec:	01640402 	cmneq	r4, r2, lsl #8
     cf0:	01680000 	cmneq	r8, r0
     cf4:	00010000 	andeq	r0, r1, r0
     cf8:	00027057 	andeq	r7, r2, r7, asr r0
     cfc:	00027400 	andeq	r7, r2, r0, lsl #8
     d00:	57000100 	strpl	r0, [r0, -r0, lsl #2]
	...
     d0c:	00010001 	andeq	r0, r1, r1
     d10:	00000168 	andeq	r0, r0, r8, ror #2
     d14:	00000178 	andeq	r0, r0, r8, ror r1
     d18:	74500001 	ldrbvc	r0, [r0], #-1
     d1c:	84000002 	strhi	r0, [r0], #-2
     d20:	01000002 	tsteq	r0, r2
     d24:	00005300 	andeq	r5, r0, r0, lsl #6
     d28:	00000000 	andeq	r0, r0, r0
     d2c:	04030000 	streq	r0, [r3], #-0
     d30:	01680403 	cmneq	r8, r3, lsl #8
     d34:	01680000 	cmneq	r8, r0
     d38:	00070000 	andeq	r0, r7, r0
     d3c:	263e0070 			; <UNDEFINED> instruction: 0x263e0070
     d40:	749f1a31 	ldrvc	r1, [pc], #2609	; d48 <__code_start__-0x72b8>
     d44:	74000002 	strvc	r0, [r0], #-2
     d48:	07000002 	streq	r0, [r0, -r2]
     d4c:	3e007300 	cdpcc	3, 0, cr7, cr0, cr0, {0}
     d50:	9f1a3126 	svcls	0x001a3126
	...
     d5c:	01000004 	tsteq	r0, r4
     d60:	01000004 	tsteq	r0, r4
     d64:	00000164 	andeq	r0, r0, r4, ror #2
     d68:	00000168 	andeq	r0, r0, r8, ror #2
     d6c:	68500001 	ldmdavs	r0, {r0}^
     d70:	68000001 	stmdavs	r0, {r0}
     d74:	05000001 	streq	r0, [r0, #-1]
     d78:	74007800 	strvc	r7, [r0], #-2048	; 0xfffff800
     d7c:	02702200 	rsbseq	r2, r0, #0, 4
     d80:	02740000 	rsbseq	r0, r4, #0, 0
     d84:	00010000 	andeq	r0, r1, r0
     d88:	00027453 	andeq	r7, r2, r3, asr r4
     d8c:	00027400 	andeq	r7, r2, r0, lsl #8
     d90:	78000500 	stmdavc	r0, {r8, sl}
     d94:	22007400 	andcs	r7, r0, #0, 8
	...
     da0:	01040104 	tsteq	r4, r4, lsl #2
     da4:	00000164 	andeq	r0, r0, r4, ror #2
     da8:	00000168 	andeq	r0, r0, r8, ror #2
     dac:	70570001 	subsvc	r0, r7, r1
     db0:	74000002 	strvc	r0, [r0], #-2
     db4:	01000002 	tsteq	r0, r2
     db8:	00005700 	andeq	r5, r0, r0, lsl #14
     dbc:	00000000 	andeq	r0, r0, r0
     dc0:	00060000 	andeq	r0, r6, r0
     dc4:	00060100 	andeq	r0, r6, r0, lsl #2
     dc8:	01640100 	cmneq	r4, r0, lsl #2
     dcc:	01680000 	cmneq	r8, r0
     dd0:	00020000 	andeq	r0, r2, r0
     dd4:	01689f30 	cmneq	r8, r0, lsr pc
     dd8:	01680000 	cmneq	r8, r0
     ddc:	00010000 	andeq	r0, r1, r0
     de0:	00027050 	andeq	r7, r2, r0, asr r0
     de4:	00027400 	andeq	r7, r2, r0, lsl #8
     de8:	30000200 	andcc	r0, r0, r0, lsl #4
     dec:	0002749f 	muleq	r2, pc, r4	; <UNPREDICTABLE>
     df0:	00027400 	andeq	r7, r2, r0, lsl #8
     df4:	53000100 	movwpl	r0, #256	; 0x100
	...
     e00:	04000004 	streq	r0, [r0], #-4
     e04:	04000004 	streq	r0, [r0], #-4
     e08:	00000168 	andeq	r0, r0, r8, ror #2
     e0c:	0000016c 	andeq	r0, r0, ip, ror #2
     e10:	6c530001 	mrrcvs	0, 0, r0, r3, cr1
     e14:	6c000001 	stcvs	0, cr0, [r0], {1}
     e18:	05000001 	streq	r0, [r0, #-1]
     e1c:	74007a00 	strvc	r7, [r0], #-2560	; 0xfffff600
     e20:	02742200 	rsbseq	r2, r4, #0, 4
     e24:	02780000 	rsbseq	r0, r8, #0, 0
     e28:	00010000 	andeq	r0, r1, r0
     e2c:	00027850 	andeq	r7, r2, r0, asr r8
     e30:	00027800 	andeq	r7, r2, r0, lsl #16
     e34:	7a000500 	bvc	223c <__code_start__-0x5dc4>
     e38:	22007400 	andcs	r7, r0, #0, 8
	...
     e44:	04040404 	streq	r0, [r4], #-1028	; 0xfffffbfc
     e48:	00000168 	andeq	r0, r0, r8, ror #2
     e4c:	0000016c 	andeq	r0, r0, ip, ror #2
     e50:	74560001 	ldrbvc	r0, [r6], #-1
     e54:	78000002 	stmdavc	r0, {r1}
     e58:	01000002 	tsteq	r0, r2
     e5c:	00005900 	andeq	r5, r0, r0, lsl #18
     e60:	00000000 	andeq	r0, r0, r0
     e64:	00010000 	andeq	r0, r1, r0
     e68:	016c0001 	cmneq	ip, r1
     e6c:	01840000 	orreq	r0, r4, r0
     e70:	00010000 	andeq	r0, r1, r0
     e74:	00027853 	andeq	r7, r2, r3, asr r8
     e78:	00028c00 	andeq	r8, r2, r0, lsl #24
     e7c:	50000100 	andpl	r0, r0, r0, lsl #2
	...
     e88:	04030403 	streq	r0, [r3], #-1027	; 0xfffffbfd
     e8c:	0000016c 	andeq	r0, r0, ip, ror #2
     e90:	0000016c 	andeq	r0, r0, ip, ror #2
     e94:	00730007 	rsbseq	r0, r3, r7
     e98:	1a31263e 	bne	c4a798 <__bss_end__+0xc40790>
     e9c:	0002789f 	muleq	r2, pc, r8	; <UNPREDICTABLE>
     ea0:	00027800 	andeq	r7, r2, r0, lsl #16
     ea4:	70000700 	andvc	r0, r0, r0, lsl #14
     ea8:	31263e00 			; <UNDEFINED> instruction: 0x31263e00
     eac:	00009f1a 	andeq	r9, r0, sl, lsl pc
     eb0:	00000000 	andeq	r0, r0, r0
     eb4:	00070000 	andeq	r0, r7, r0
     eb8:	00070100 	andeq	r0, r7, r0, lsl #2
     ebc:	01680100 	cmneq	r8, r0, lsl #2
     ec0:	016c0000 	cmneq	ip, r0
     ec4:	00010000 	andeq	r0, r1, r0
     ec8:	00016c53 	andeq	r6, r1, r3, asr ip
     ecc:	00016c00 	andeq	r6, r1, r0, lsl #24
     ed0:	7a000500 	bvc	22d8 <__code_start__-0x5d28>
     ed4:	22007400 	andcs	r7, r0, #0, 8
     ed8:	00000274 	andeq	r0, r0, r4, ror r2
     edc:	00000278 	andeq	r0, r0, r8, ror r2
     ee0:	78500001 	ldmdavc	r0, {r0}^
     ee4:	78000002 	stmdavc	r0, {r1}
     ee8:	05000002 	streq	r0, [r0, #-2]
     eec:	74007a00 	strvc	r7, [r0], #-2560	; 0xfffff600
     ef0:	00002200 	andeq	r2, r0, r0, lsl #4
     ef4:	00000000 	andeq	r0, r0, r0
     ef8:	01070000 	mrseq	r0, (UNDEF: 7)
     efc:	01680107 	cmneq	r8, r7, lsl #2
     f00:	016c0000 	cmneq	ip, r0
     f04:	00010000 	andeq	r0, r1, r0
     f08:	00027456 	andeq	r7, r2, r6, asr r4
     f0c:	00027800 	andeq	r7, r2, r0, lsl #16
     f10:	59000100 	stmdbpl	r0, {r8}
	...
     f1c:	01000009 	tsteq	r0, r9
     f20:	01000009 	tsteq	r0, r9
     f24:	00000168 	andeq	r0, r0, r8, ror #2
     f28:	0000016c 	andeq	r0, r0, ip, ror #2
     f2c:	9f300002 	svcls	0x00300002
     f30:	0000016c 	andeq	r0, r0, ip, ror #2
     f34:	0000016c 	andeq	r0, r0, ip, ror #2
     f38:	74530001 	ldrbvc	r0, [r3], #-1
     f3c:	78000002 	stmdavc	r0, {r1}
     f40:	02000002 	andeq	r0, r0, #2, 0
     f44:	789f3000 	ldmvc	pc, {ip, sp}	; <UNPREDICTABLE>
     f48:	78000002 	stmdavc	r0, {r1}
     f4c:	01000002 	tsteq	r0, r2
     f50:	00005000 	andeq	r5, r0, r0
	...
     f60:	0000002c 	andeq	r0, r0, ip, lsr #32
     f64:	00000038 	andeq	r0, r0, r8, lsr r0
     f68:	38500001 	ldmdacc	r0, {r0}^
     f6c:	48000000 	stmdami	r0, {}	; <UNPREDICTABLE>
     f70:	01000000 	mrseq	r0, (UNDEF: 0)
     f74:	00485400 	subeq	r5, r8, r0, lsl #8
     f78:	00580000 	subseq	r0, r8, r0
     f7c:	00010000 	andeq	r0, r1, r0
     f80:	00000050 	andeq	r0, r0, r0, asr r0
     f84:	00000000 	andeq	r0, r0, r0
     f88:	01010000 	mrseq	r0, (UNDEF: 1)
     f8c:	00000000 	andeq	r0, r0, r0
     f90:	00000800 	andeq	r0, r0, r0, lsl #16
     f94:	50000100 	andpl	r0, r0, r0, lsl #2
     f98:	00000008 	andeq	r0, r0, r8
     f9c:	00000034 	andeq	r0, r0, r4, lsr r0
     fa0:	00540001 	subseq	r0, r4, r1
	...
     fb0:	00028800 	andeq	r8, r2, r0, lsl #16
     fb4:	0002b800 	andeq	fp, r2, r0, lsl #16
     fb8:	50000100 	andpl	r0, r0, r0, lsl #2
     fbc:	000002b8 			; <UNDEFINED> instruction: 0x000002b8
     fc0:	00000704 	andeq	r0, r0, r4, lsl #14
     fc4:	04590001 	ldrbeq	r0, [r9], #-1
     fc8:	40000007 	andmi	r0, r0, r7
     fcc:	04000007 	streq	r0, [r0], #-7
     fd0:	5001f300 	andpl	pc, r1, r0, lsl #6
     fd4:	0000009f 	muleq	r0, pc, r0	; <UNPREDICTABLE>
	...
     fe0:	88000000 	stmdahi	r0, {}	; <UNPREDICTABLE>
     fe4:	a0000002 	andge	r0, r0, r2
     fe8:	01000002 	tsteq	r0, r2
     fec:	02a05100 	adceq	r5, r0, #0
     ff0:	02b80000 	adcseq	r0, r8, #0, 0
     ff4:	00030000 	andeq	r0, r3, r0
     ff8:	b89f0171 	ldmlt	pc, {r0, r4, r5, r6, r8}	; <UNPREDICTABLE>
     ffc:	40000002 	andmi	r0, r0, r2
    1000:	04000007 	streq	r0, [r0], #-7
    1004:	5101f300 	mrspl	pc, SP_irq	; <UNPREDICTABLE>
    1008:	0000009f 	muleq	r0, pc, r0	; <UNPREDICTABLE>
	...
    101c:	00028800 	andeq	r8, r2, r0, lsl #16
    1020:	0002b800 	andeq	fp, r2, r0, lsl #16
    1024:	52000100 	andpl	r0, r0, #0
    1028:	000002b8 			; <UNDEFINED> instruction: 0x000002b8
    102c:	000003ec 	andeq	r0, r0, ip, ror #7
    1030:	ec560001 	mrrc	0, 0, r0, r6, cr1
    1034:	b8000003 	stmdalt	r0, {r0, r1}
    1038:	01000004 	tsteq	r0, r4
    103c:	04b85b00 	ldrteq	r5, [r8], #2816	; 0xb00
    1040:	04d80000 	ldrbeq	r0, [r8], #0
    1044:	00010000 	andeq	r0, r1, r0
    1048:	0004d856 	andeq	sp, r4, r6, asr r8
    104c:	00055c00 	andeq	r5, r5, r0, lsl #24
    1050:	5b000100 	blpl	1458 <__code_start__-0x6ba8>
    1054:	0000055c 	andeq	r0, r0, ip, asr r5
    1058:	00000704 	andeq	r0, r0, r4, lsl #14
    105c:	00560001 	subseq	r0, r6, r1
    1060:	00000000 	andeq	r0, r0, r0
    1064:	01000000 	mrseq	r0, (UNDEF: 0)
    1068:	00000000 	andeq	r0, r0, r0
    106c:	01010000 	mrseq	r0, (UNDEF: 1)
    1070:	00000000 	andeq	r0, r0, r0
    1074:	02020000 	andeq	r0, r2, #0, 0
    1078:	9c000000 	stcls	0, cr0, [r0], {-0}
    107c:	b8000002 	stmdalt	r0, {r1}
    1080:	01000002 	tsteq	r0, r2
    1084:	02b85000 	adcseq	r5, r8, #0, 0
    1088:	02bc0000 	adcseq	r0, ip, #0, 0
    108c:	00010000 	andeq	r0, r1, r0
    1090:	0002bc54 	andeq	fp, r2, r4, asr ip
    1094:	0002c000 	andeq	ip, r2, r0
    1098:	74000300 	strvc	r0, [r0], #-768	; 0xfffffd00
    109c:	02c09f01 	sbceq	r9, r0, #1, 30
    10a0:	02e40000 	rsceq	r0, r4, #0, 0
    10a4:	00010000 	andeq	r0, r1, r0
    10a8:	0002e454 	andeq	lr, r2, r4, asr r4
    10ac:	0002e800 	andeq	lr, r2, r0, lsl #16
    10b0:	74000300 	strvc	r0, [r0], #-768	; 0xfffffd00
    10b4:	02e89f01 	rsceq	r9, r8, #1, 30
    10b8:	06d40000 	ldrbeq	r0, [r4], r0
    10bc:	00010000 	andeq	r0, r1, r0
    10c0:	0006d454 	andeq	sp, r6, r4, asr r4
    10c4:	0006d800 	andeq	sp, r6, r0, lsl #16
    10c8:	74000300 	strvc	r0, [r0], #-768	; 0xfffffd00
    10cc:	06d89f01 	ldrbeq	r9, [r8], r1, lsl #30
    10d0:	06f00000 	ldrbteq	r0, [r0], r0
    10d4:	00010000 	andeq	r0, r1, r0
    10d8:	0006f054 	andeq	pc, r6, r4, asr r0	; <UNPREDICTABLE>
    10dc:	0006f800 	andeq	pc, r6, r0, lsl #16
    10e0:	74000300 	strvc	r0, [r0], #-768	; 0xfffffd00
    10e4:	06f89f01 	ldrbteq	r9, [r8], r1, lsl #30
    10e8:	07040000 	streq	r0, [r4, -r0]
    10ec:	00010000 	andeq	r0, r1, r0
    10f0:	00000054 	andeq	r0, r0, r4, asr r0
	...
    10fc:	0002a400 	andeq	sl, r2, r0, lsl #8
    1100:	00070400 	andeq	r0, r7, r0, lsl #8
    1104:	58000100 	stmdapl	r0, {r8}
    1108:	00000704 	andeq	r0, r0, r4, lsl #14
    110c:	00000740 	andeq	r0, r0, r0, asr #14
    1110:	01f3000a 	mvnseq	r0, sl
    1114:	5001f351 	andpl	pc, r1, r1, asr r3	; <UNPREDICTABLE>
    1118:	9f1c3122 	svcls	0x001c3122
	...
    1124:	00000001 	andeq	r0, r0, r1
    1128:	04080000 	streq	r0, [r8], #-0
    112c:	04740000 	ldrbteq	r0, [r4], #-0
    1130:	00010000 	andeq	r0, r1, r0
    1134:	0004d857 	andeq	sp, r4, r7, asr r8
    1138:	0004fc00 	andeq	pc, r4, r0, lsl #24
    113c:	57000100 	strpl	r0, [r0, -r0, lsl #2]
    1140:	00000540 	andeq	r0, r0, r0, asr #10
    1144:	0000055c 	andeq	r0, r0, ip, asr r5
    1148:	00570001 	subseq	r0, r7, r1
    114c:	00000000 	andeq	r0, r0, r0
    1150:	02000000 	andeq	r0, r0, #0, 0
    1154:	08000000 	stmdaeq	r0, {}	; <UNPREDICTABLE>
    1158:	b8000004 	stmdalt	r0, {r2}
    115c:	01000004 	tsteq	r0, r4
    1160:	04d85a00 	ldrbeq	r5, [r8], #2560	; 0xa00
    1164:	055c0000 	ldrbeq	r0, [ip, #-0]
    1168:	00010000 	andeq	r0, r1, r0
    116c:	0000005a 	andeq	r0, r0, sl, asr r0
    1170:	00000000 	andeq	r0, r0, r0
    1174:	00000100 	andeq	r0, r0, r0, lsl #2
    1178:	0002ac00 	andeq	sl, r2, r0, lsl #24
    117c:	0002b800 	andeq	fp, r2, r0, lsl #16
    1180:	52000100 	andpl	r0, r0, #0
    1184:	000002b8 			; <UNDEFINED> instruction: 0x000002b8
    1188:	00000740 	andeq	r0, r0, r0, asr #14
    118c:	c8910003 	ldmgt	r1, {r0, r1}
    1190:	0000007d 	andeq	r0, r0, sp, ror r0
	...
    11a0:	01010000 	mrseq	r0, (UNDEF: 1)
	...
    11ac:	74000000 	strvc	r0, [r0], #-0
    11b0:	8c000004 	stchi	0, cr0, [r0], {4}
    11b4:	01000004 	tsteq	r0, r4
    11b8:	048c5000 	streq	r5, [ip], #0
    11bc:	04b80000 	ldrteq	r0, [r8], #0
    11c0:	00010000 	andeq	r0, r1, r0
    11c4:	0004fc57 	andeq	pc, r4, r7, asr ip	; <UNPREDICTABLE>
    11c8:	00051400 	andeq	r1, r5, r0, lsl #8
    11cc:	50000100 	andpl	r0, r0, r0, lsl #2
    11d0:	00000514 	andeq	r0, r0, r4, lsl r5
    11d4:	00000540 	andeq	r0, r0, r0, asr #10
    11d8:	a4570001 	ldrbge	r0, [r7], #-1
    11dc:	a4000005 	strge	r0, [r0], #-5
    11e0:	01000005 	tsteq	r0, r5
    11e4:	05a45000 	streq	r5, [r4, #0]!
    11e8:	05ac0000 	streq	r0, [ip, #0]!
    11ec:	00010000 	andeq	r0, r1, r0
    11f0:	0005dc57 	andeq	sp, r5, r7, asr ip
    11f4:	0005e000 	andeq	lr, r5, r0
    11f8:	50000100 	andpl	r0, r0, r0, lsl #2
    11fc:	00000610 	andeq	r0, r0, r0, lsl r6
    1200:	00000614 	andeq	r0, r0, r4, lsl r6
    1204:	44500001 	ldrbmi	r0, [r0], #-1
    1208:	48000006 	stmdami	r0, {r1, r2}
    120c:	01000006 	tsteq	r0, r6
    1210:	068c5000 	streq	r5, [ip], r0
    1214:	06900000 	ldreq	r0, [r0], r0
    1218:	00010000 	andeq	r0, r1, r0
    121c:	0006d050 	andeq	sp, r6, r0, asr r0
    1220:	0006f000 	andeq	pc, r6, r0
    1224:	57000100 	strpl	r0, [r0, -r0, lsl #2]
	...
    1230:	00000002 	andeq	r0, r0, r2
    1234:	02f40000 	rscseq	r0, r4, #0, 0
    1238:	02f80000 	rscseq	r0, r8, #0, 0
    123c:	00020000 	andeq	r0, r2, r0
    1240:	02f89f30 	rscseq	r9, r8, #48, 30	; 0xc0
    1244:	03140000 	tsteq	r4, #0, 0
    1248:	00010000 	andeq	r0, r1, r0
    124c:	00031c55 	andeq	r1, r3, r5, asr ip
    1250:	0006f000 	andeq	pc, r6, r0
    1254:	55000100 	strpl	r0, [r0, #-256]	; 0xffffff00
	...
    1260:	00000001 	andeq	r0, r0, r1
    1264:	00000000 	andeq	r0, r0, r0
    1268:	03b80000 			; <UNDEFINED> instruction: 0x03b80000
    126c:	04540000 	ldrbeq	r0, [r4], #-0
    1270:	00010000 	andeq	r0, r1, r0
    1274:	00045456 	andeq	r5, r4, r6, asr r4
    1278:	0004b800 	andeq	fp, r4, r0, lsl #16
    127c:	7b000300 	blvc	1e84 <__code_start__-0x617c>
    1280:	04b89f7e 	ldrteq	r9, [r8], #3966	; 0xf7e
    1284:	04dc0000 	ldrbeq	r0, [ip], #0
    1288:	00010000 	andeq	r0, r1, r0
    128c:	0004dc56 	andeq	sp, r4, r6, asr ip
    1290:	00054000 	andeq	r4, r5, r0
    1294:	7b000300 	blvc	1e9c <__code_start__-0x6164>
    1298:	05409f7e 	strbeq	r9, [r0, #-3966]	; 0xfffff082
    129c:	055c0000 	ldrbeq	r0, [ip, #-0]
    12a0:	00010000 	andeq	r0, r1, r0
    12a4:	00000056 	andeq	r0, r0, r6, asr r0
	...
    12b0:	70000000 	andvc	r0, r0, r0
    12b4:	94000000 	strls	r0, [r0], #-0
    12b8:	01000000 	mrseq	r0, (UNDEF: 0)
    12bc:	00945000 	addseq	r5, r4, r0
    12c0:	00fc0000 	rscseq	r0, ip, r0
    12c4:	00030000 	andeq	r0, r3, r0
    12c8:	fc9f0270 	ldc2	2, cr0, [pc], {112}	; 0x70
    12cc:	24000000 	strcs	r0, [r0], #-0
    12d0:	04000002 	streq	r0, [r0], #-2
    12d4:	5001f300 	andpl	pc, r1, r0, lsl #6
    12d8:	0000009f 	muleq	r0, pc, r0	; <UNPREDICTABLE>
	...
    12f0:	00007000 	andeq	r7, r0, r0
    12f4:	0000e000 	andeq	lr, r0, r0
    12f8:	51000100 	mrspl	r0, (UNDEF: 16)
    12fc:	000000e0 	andeq	r0, r0, r0, ror #1
    1300:	00000154 	andeq	r0, r0, r4, asr r1
    1304:	54550001 	ldrbpl	r0, [r5], #-1
    1308:	58000001 	stmdapl	r0, {r0}
    130c:	01000001 	tsteq	r0, r1
    1310:	01585100 	cmpeq	r8, r0, lsl #2
    1314:	01b00000 	movseq	r0, r0
    1318:	00010000 	andeq	r0, r1, r0
    131c:	0001b055 	andeq	fp, r1, r5, asr r0
    1320:	0001c000 	andeq	ip, r1, r0
    1324:	51000100 	mrspl	r0, (UNDEF: 16)
    1328:	000001c0 	andeq	r0, r0, r0, asr #3
    132c:	000001e4 	andeq	r0, r0, r4, ror #3
    1330:	e4550001 	ldrb	r0, [r5], #-1
    1334:	f8000001 			; <UNDEFINED> instruction: 0xf8000001
    1338:	01000001 	tsteq	r0, r1
    133c:	01f85100 	mvnseq	r5, r0, lsl #2
    1340:	02240000 	eoreq	r0, r4, #0, 0
    1344:	00010000 	andeq	r0, r1, r0
    1348:	00000055 	andeq	r0, r0, r5, asr r0
	...
    1354:	00007000 	andeq	r7, r0, r0
    1358:	00008400 	andeq	r8, r0, r0, lsl #8
    135c:	52000100 	andpl	r0, r0, #0
    1360:	00000084 	andeq	r0, r0, r4, lsl #1
    1364:	00000224 	andeq	r0, r0, r4, lsr #4
    1368:	00540001 	subseq	r0, r4, r1
	...
    1378:	00000001 	andeq	r0, r0, r1
    137c:	70000000 	andvc	r0, r0, r0
    1380:	f4000000 	vst4.8	{d0-d3}, [r0], r0
    1384:	01000000 	mrseq	r0, (UNDEF: 0)
    1388:	014c5300 	mrseq	r5, SPSR_mon
    138c:	01800000 	orreq	r0, r0, r0
    1390:	00010000 	andeq	r0, r1, r0
    1394:	00018053 	andeq	r8, r1, r3, asr r0
    1398:	00018c00 	andeq	r8, r1, r0, lsl #24
    139c:	f3000400 	vshl.u8	d0, d0, d0
    13a0:	b09f5301 	addslt	r5, pc, r1, lsl #6
    13a4:	e8000001 	stmda	r0, {r0}
    13a8:	01000001 	tsteq	r0, r1
    13ac:	01e85300 	mvneq	r5, r0, lsl #6
    13b0:	01ff0000 	mvnseq	r0, r0
    13b4:	00010000 	andeq	r0, r1, r0
    13b8:	0001ff5c 	andeq	pc, r1, ip, asr pc	; <UNPREDICTABLE>
    13bc:	00022400 	andeq	r2, r2, r0, lsl #8
    13c0:	f3000400 	vshl.u8	d0, d0, d0
    13c4:	009f5301 	addseq	r5, pc, r1, lsl #6
	...
    13d4:	00007000 	andeq	r7, r0, r0
    13d8:	00008c00 	andeq	r8, r0, r0, lsl #24
    13dc:	91000200 	mrsls	r0, R8_usr
    13e0:	00008c00 	andeq	r8, r0, r0, lsl #24
    13e4:	00019300 	andeq	r9, r1, r0, lsl #6
    13e8:	52000100 	andpl	r0, r0, #0
    13ec:	000001b0 			; <UNDEFINED> instruction: 0x000001b0
    13f0:	000001f4 	strdeq	r0, [r0], -r4
    13f4:	00520001 	subseq	r0, r2, r1
    13f8:	00000000 	andeq	r0, r0, r0
    13fc:	01000000 	mrseq	r0, (UNDEF: 0)
    1400:	01010000 	mrseq	r0, (UNDEF: 1)
	...
    140c:	01010101 	tsteq	r1, r1, lsl #2
    1410:	01010000 	mrseq	r0, (UNDEF: 1)
	...
    141c:	8c000000 	stchi	0, cr0, [r0], {-0}
    1420:	fc000000 	stc2	0, cr0, [r0], {-0}
    1424:	04000000 	streq	r0, [r0], #-0
    1428:	7fa09100 	svcvc	0x00a09100
    142c:	0000fc9f 	muleq	r0, pc, ip	; <UNPREDICTABLE>
    1430:	00013c00 	andeq	r3, r1, r0, lsl #24
    1434:	50000100 	andpl	r0, r0, r0, lsl #2
    1438:	0000013c 	andeq	r0, r0, ip, lsr r1
    143c:	00000148 	andeq	r0, r0, r8, asr #2
    1440:	02710003 	rsbseq	r0, r1, #3, 0
    1444:	0001489f 	muleq	r1, pc, r8	; <UNPREDICTABLE>
    1448:	00014c00 	andeq	r4, r1, r0, lsl #24
    144c:	50000100 	andpl	r0, r0, r0, lsl #2
    1450:	0000014c 	andeq	r0, r0, ip, asr #2
    1454:	00000158 	andeq	r0, r0, r8, asr r1
    1458:	a0910004 	addsge	r0, r1, r4
    145c:	01589f7f 	cmpeq	r8, pc, ror pc
    1460:	016c0000 	cmneq	ip, r0
    1464:	00010000 	andeq	r0, r1, r0
    1468:	00016c51 	andeq	r6, r1, r1, asr ip
    146c:	00017800 	andeq	r7, r1, r0, lsl #16
    1470:	71000300 	mrsvc	r0, LR_irq
    1474:	01789f7f 	cmneq	r8, pc, ror pc
    1478:	01840000 	orreq	r0, r4, r0
    147c:	00030000 	andeq	r0, r3, r0
    1480:	849f0171 	ldrhi	r0, [pc], #369	; 1488 <__code_start__-0x6b78>
    1484:	93000001 	movwls	r0, #1
    1488:	01000001 	tsteq	r0, r1
    148c:	01b05000 	movseq	r5, r0
    1490:	01b00000 	movseq	r0, r0
    1494:	00040000 	andeq	r0, r4, r0
    1498:	9f7fa091 	svcls	0x007fa091
    149c:	000001b0 			; <UNDEFINED> instruction: 0x000001b0
    14a0:	000001b8 			; <UNDEFINED> instruction: 0x000001b8
    14a4:	a1910004 	orrsge	r0, r1, r4
    14a8:	01b89f7f 			; <UNDEFINED> instruction: 0x01b89f7f
    14ac:	01bc0000 			; <UNDEFINED> instruction: 0x01bc0000
    14b0:	00010000 	andeq	r0, r1, r0
    14b4:	0001bc50 	andeq	fp, r1, r0, asr ip
    14b8:	0001c000 	andeq	ip, r1, r0
    14bc:	91000400 	tstls	r0, r0, lsl #8
    14c0:	c09f7fa0 	addsgt	r7, pc, r0, lsr #31
    14c4:	d4000001 	strle	r0, [r0], #-1
    14c8:	01000001 	tsteq	r0, r1
    14cc:	01d45000 	bicseq	r5, r4, r0
    14d0:	01e40000 	mvneq	r0, r0
    14d4:	00030000 	andeq	r0, r3, r0
    14d8:	e49f7f70 	ldr	r7, [pc], #3952	; 14e0 <__code_start__-0x6b20>
    14dc:	24000001 	strcs	r0, [r0], #-1
    14e0:	04000002 	streq	r0, [r0], #-2
    14e4:	7fa09100 	svcvc	0x00a09100
    14e8:	0000009f 	muleq	r0, pc, r0	; <UNPREDICTABLE>
	...
    14f4:	00000101 	andeq	r0, r0, r1, lsl #2
	...
    1504:	00009000 	andeq	r9, r0, r0
    1508:	0000dc00 	andeq	sp, r0, r0, lsl #24
    150c:	5c000100 	stfpls	f0, [r0], {-0}
    1510:	000000dc 	ldrdeq	r0, [r0], -ip
    1514:	000000f4 	strdeq	r0, [r0], -r4
    1518:	f4530001 			; <UNDEFINED> instruction: 0xf4530001
    151c:	4c000000 	stcmi	0, cr0, [r0], {-0}
    1520:	01000001 	tsteq	r0, r1
    1524:	014c5c00 	cmpeq	ip, r0, lsl #24
    1528:	01580000 	cmpeq	r8, r0
    152c:	00010000 	andeq	r0, r1, r0
    1530:	00015853 	andeq	r5, r1, r3, asr r8
    1534:	00017400 	andeq	r7, r1, r0, lsl #8
    1538:	5c000100 	stfpls	f0, [r0], {-0}
    153c:	000001b0 			; <UNDEFINED> instruction: 0x000001b0
    1540:	000001c0 	andeq	r0, r0, r0, asr #3
    1544:	c0530001 	subsgt	r0, r3, r1
    1548:	dc000001 	stcle	0, cr0, [r0], {1}
    154c:	01000001 	tsteq	r0, r1
    1550:	01e45c00 	mvneq	r5, r0, lsl #24
    1554:	01e80000 	mvneq	r0, r0
    1558:	00010000 	andeq	r0, r1, r0
    155c:	0001e853 	andeq	lr, r1, r3, asr r8
    1560:	0001ff00 	andeq	pc, r1, r0, lsl #30
    1564:	5c000100 	stfpls	f0, [r0], {-0}
    1568:	000001ff 	strdeq	r0, [r0], -pc	; <UNPREDICTABLE>
    156c:	00000224 	andeq	r0, r0, r4, lsr #4
    1570:	01f30004 	mvnseq	r0, r4
    1574:	00009f53 	andeq	r9, r0, r3, asr pc
    1578:	00000000 	andeq	r0, r0, r0
    157c:	01010000 	mrseq	r0, (UNDEF: 1)
    1580:	00000001 	andeq	r0, r0, r1
    1584:	00dc0000 	sbcseq	r0, ip, r0
    1588:	00f00000 	rscseq	r0, r0, r0
    158c:	00020000 	andeq	r0, r2, r0
    1590:	00f09f30 	rscseq	r9, r0, r0, lsr pc
    1594:	00f80000 	rscseq	r0, r8, r0
    1598:	00020000 	andeq	r0, r2, r0
    159c:	00fc9f31 	rscseq	r9, ip, r1, lsr pc
    15a0:	014c0000 	mrseq	r0, (UNDEF: 76)
    15a4:	00010000 	andeq	r0, r1, r0
    15a8:	00014c56 	andeq	r4, r1, r6, asr ip
    15ac:	00015400 	andeq	r5, r1, r0, lsl #8
    15b0:	30000200 	andcc	r0, r0, r0, lsl #4
    15b4:	0000009f 	muleq	r0, pc, r0	; <UNPREDICTABLE>
	...
    15c0:	00000101 	andeq	r0, r0, r1, lsl #2
    15c4:	38000101 	stmdacc	r0, {r0, r8}
    15c8:	54000000 	strpl	r0, [r0], #-0
    15cc:	01000000 	mrseq	r0, (UNDEF: 0)
    15d0:	00545000 	subseq	r5, r4, r0
    15d4:	00580000 	subseq	r0, r8, r0
    15d8:	00010000 	andeq	r0, r1, r0
    15dc:	00005852 	andeq	r5, r0, r2, asr r8
    15e0:	00006000 	andeq	r6, r0, r0
    15e4:	72000300 	andvc	r0, r0, #0, 6
    15e8:	00609f01 	rsbeq	r9, r0, r1, lsl #30
    15ec:	00640000 	rsbeq	r0, r4, r0
    15f0:	00010000 	andeq	r0, r1, r0
    15f4:	00006452 	andeq	r6, r0, r2, asr r4
    15f8:	00007000 	andeq	r7, r0, r0
    15fc:	72000300 	andvc	r0, r0, #0, 6
    1600:	00009f01 	andeq	r9, r0, r1, lsl #30
	...
    160c:	00380000 	eorseq	r0, r8, r0
    1610:	00500000 	subseq	r0, r0, r0
    1614:	00010000 	andeq	r0, r1, r0
    1618:	00005051 	andeq	r5, r0, r1, asr r0
    161c:	00007000 	andeq	r7, r0, r0
    1620:	f3000400 	vshl.u8	d0, d0, d0
    1624:	009f5101 	addseq	r5, pc, r1, lsl #2
	...
    1634:	38000101 	stmdacc	r0, {r0, r8}
    1638:	50000000 	andpl	r0, r0, r0
    163c:	01000000 	mrseq	r0, (UNDEF: 0)
    1640:	00505200 	subseq	r5, r0, r0, lsl #4
    1644:	005c0000 	subseq	r0, ip, r0
    1648:	00010000 	andeq	r0, r1, r0
    164c:	00005c51 	andeq	r5, r0, r1, asr ip
    1650:	00006000 	andeq	r6, r0, r0
    1654:	71000300 	mrsvc	r0, LR_irq
    1658:	00609f01 	rsbeq	r9, r0, r1, lsl #30
    165c:	00700000 	rsbseq	r0, r0, r0
    1660:	00010000 	andeq	r0, r1, r0
    1664:	00000051 	andeq	r0, r0, r1, asr r0
	...
    1670:	00003800 	andeq	r3, r0, r0, lsl #16
    1674:	00004c00 	andeq	r4, r0, r0, lsl #24
    1678:	53000100 	movwpl	r0, #256	; 0x100
    167c:	0000004c 	andeq	r0, r0, ip, asr #32
    1680:	00000068 	andeq	r0, r0, r8, rrx
    1684:	00530001 	subseq	r0, r3, r1
	...
    1694:	40000000 	andmi	r0, r0, r0
    1698:	48000000 	stmdami	r0, {}	; <UNPREDICTABLE>
    169c:	01000000 	mrseq	r0, (UNDEF: 0)
    16a0:	00485c00 	subeq	r5, r8, r0, lsl #24
    16a4:	004c0000 	subeq	r0, ip, r0
    16a8:	00080000 	andeq	r0, r8, r0
    16ac:	00730072 	rsbseq	r0, r3, r2, ror r0
    16b0:	9f01231c 	svcls	0x0001231c
    16b4:	0000004c 	andeq	r0, r0, ip, asr #32
    16b8:	00000054 	andeq	r0, r0, r4, asr r0
    16bc:	00720009 	rsbseq	r0, r2, r9
    16c0:	1c5301f3 	ldfnee	f0, [r3], {243}	; 0xf3
    16c4:	549f0123 	ldrpl	r0, [pc], #291	; 16cc <__code_start__-0x6934>
    16c8:	70000000 	andvc	r0, r0, r0
    16cc:	0a000000 	beq	16d4 <__code_start__-0x692c>
    16d0:	5201f300 	andpl	pc, r1, #0, 6
    16d4:	1c5301f3 	ldfnee	f0, [r3], {243}	; 0xf3
    16d8:	009f0123 	addseq	r0, pc, r3, lsr #2
    16dc:	00000000 	andeq	r0, r0, r0
    16e0:	01000000 	mrseq	r0, (UNDEF: 0)
    16e4:	00004c00 	andeq	r4, r0, r0, lsl #24
    16e8:	00007000 	andeq	r7, r0, r0
    16ec:	50000100 	andpl	r0, r0, r0, lsl #2
	...
    16f8:	00010100 	andeq	r0, r1, r0, lsl #2
    16fc:	00140000 	andseq	r0, r4, r0
    1700:	001c0000 	andseq	r0, ip, r0
    1704:	00010000 	andeq	r0, r1, r0
    1708:	00001c50 	andeq	r1, r0, r0, asr ip
    170c:	00002400 	andeq	r2, r0, r0, lsl #8
    1710:	70000300 	andvc	r0, r0, r0, lsl #6
    1714:	00249f01 	eoreq	r9, r4, r1, lsl #30
    1718:	00380000 	eorseq	r0, r8, r0
    171c:	00010000 	andeq	r0, r1, r0
    1720:	00000050 	andeq	r0, r0, r0, asr r0
	...
    172c:	00001400 	andeq	r1, r0, r0, lsl #8
    1730:	00001800 	andeq	r1, r0, r0, lsl #16
    1734:	51000100 	mrspl	r0, (UNDEF: 16)
    1738:	00000018 	andeq	r0, r0, r8, lsl r0
    173c:	00000038 	andeq	r0, r0, r8, lsr r0
    1740:	01f30004 	mvnseq	r0, r4
    1744:	00009f51 	andeq	r9, r0, r1, asr pc
	...
    1750:	00000018 	andeq	r0, r0, r8, lsl r0
    1754:	00000038 	andeq	r0, r0, r8, lsr r0
    1758:	00510001 	subseq	r0, r1, r1
	...
    176c:	00000400 	andeq	r0, r0, r0, lsl #8
    1770:	50000100 	andpl	r0, r0, r0, lsl #2
    1774:	00000004 	andeq	r0, r0, r4
    1778:	0000000c 	andeq	r0, r0, ip
    177c:	30700003 	rsbscc	r0, r0, r3
    1780:	00000c9f 	muleq	r0, pc, ip	; <UNPREDICTABLE>
    1784:	00001400 	andeq	r1, r0, r0, lsl #8
    1788:	f3000400 	vshl.u8	d0, d0, d0
    178c:	009f5001 	addseq	r5, pc, r1
	...
    1798:	24000000 	strcs	r0, [r0], #-0
    179c:	68000002 	stmdavs	r0, {r1}
    17a0:	01000002 	tsteq	r0, r2
    17a4:	02685000 	rsbeq	r5, r8, #0, 0
    17a8:	02880000 	addeq	r0, r8, #0, 0
    17ac:	00040000 	andeq	r0, r4, r0
    17b0:	9f5001f3 	svcls	0x005001f3
	...
    17c0:	00000224 	andeq	r0, r0, r4, lsr #4
    17c4:	00000264 	andeq	r0, r0, r4, ror #4
    17c8:	64510001 	ldrbvs	r0, [r1], #-1
    17cc:	88000002 	stmdahi	r0, {r1}
    17d0:	04000002 	streq	r0, [r0], #-2
    17d4:	5101f300 	mrspl	pc, SP_irq	; <UNPREDICTABLE>
    17d8:	0000009f 	muleq	r0, pc, r0	; <UNPREDICTABLE>
    17dc:	00000000 	andeq	r0, r0, r0
    17e0:	01010000 	mrseq	r0, (UNDEF: 1)
    17e4:	0c000000 	stceq	0, cr0, [r0], {-0}
    17e8:	14000000 	strne	r0, [r0], #-0
    17ec:	01000000 	mrseq	r0, (UNDEF: 0)
    17f0:	00145300 	andseq	r5, r4, r0, lsl #6
    17f4:	001c0000 	andseq	r0, ip, r0
    17f8:	00030000 	andeq	r0, r3, r0
    17fc:	1c9f0473 	cfldrsne	mvf0, [pc], {115}	; 0x73
    1800:	23000000 	movwcs	r0, #0
    1804:	01000000 	mrseq	r0, (UNDEF: 0)
    1808:	00005300 	andeq	r5, r0, r0, lsl #6
    180c:	00000000 	andeq	r0, r0, r0
    1810:	00010000 	andeq	r0, r1, r0
    1814:	00008e5c 	andeq	r8, r0, ip, asr lr
    1818:	00008e78 	andeq	r8, r0, r8, ror lr
    181c:	1c0c0006 	stcne	0, cr0, [ip], {6}
    1820:	9f201000 	svcls	0x00201000
	...
    182c:	8e5c0002 	cdphi	0, 5, cr0, cr12, cr2, {0}
    1830:	8e780000 	cdphi	0, 7, cr0, cr8, cr0, {0}
    1834:	00060000 	andeq	r0, r6, r0
    1838:	1000240c 	andne	r2, r0, ip, lsl #8
    183c:	00009f20 	andeq	r9, r0, r0, lsr #30
    1840:	00000000 	andeq	r0, r0, r0
    1844:	00030000 	andeq	r0, r3, r0
    1848:	00008e5c 	andeq	r8, r0, ip, asr lr
    184c:	00008e78 	andeq	r8, r0, r8, ror lr
    1850:	b4080005 	strlt	r0, [r8], #-5
    1854:	009f2447 	addseq	r2, pc, r7, asr #8
    1858:	00000000 	andeq	r0, r0, r0
    185c:	04000000 	streq	r0, [r0], #-0
    1860:	008e5c00 	addeq	r5, lr, r0, lsl #24
    1864:	008e7800 	addeq	r7, lr, r0, lsl #16
    1868:	08000300 	stmdaeq	r0, {r8, r9}
    186c:	00009f20 	andeq	r9, r0, r0, lsr #30
    1870:	00000000 	andeq	r0, r0, r0
    1874:	00020000 	andeq	r0, r2, r0
    1878:	00000000 	andeq	r0, r0, r0
    187c:	00008e28 	andeq	r8, r0, r8, lsr #28
    1880:	00008e2c 	andeq	r8, r0, ip, lsr #28
    1884:	9f300002 	svcls	0x00300002
    1888:	00008e2c 	andeq	r8, r0, ip, lsr #28
    188c:	00008e30 	andeq	r8, r0, r0, lsr lr
    1890:	34530001 	ldrbcc	r0, [r3], #-1
    1894:	3c00008e 	stccc	0, cr0, [r0], {142}	; 0x8e
    1898:	0100008e 	smlabbeq	r0, lr, r0, r0
    189c:	00005300 	andeq	r5, r0, r0, lsl #6
    18a0:	00000000 	andeq	r0, r0, r0
    18a4:	00020000 	andeq	r0, r2, r0
    18a8:	8e100000 	cdphi	0, 1, cr0, cr0, cr0, {0}
    18ac:	8e140000 	cdphi	0, 1, cr0, cr4, cr0, {0}
    18b0:	00020000 	andeq	r0, r2, r0
    18b4:	8e149f30 	mrchi	15, 0, r9, cr4, cr0, {1}
    18b8:	8e180000 	cdphi	0, 1, cr0, cr8, cr0, {0}
    18bc:	00010000 	andeq	r0, r1, r0
    18c0:	00000050 	andeq	r0, r0, r0, asr r0
	...
    18cc:	00006c00 	andeq	r6, r0, r0, lsl #24
    18d0:	00007800 	andeq	r7, r0, r0, lsl #16
    18d4:	50000100 	andpl	r0, r0, r0, lsl #2
    18d8:	00000078 	andeq	r0, r0, r8, ror r0
    18dc:	00000084 	andeq	r0, r0, r4, lsl #1
    18e0:	01f30004 	mvnseq	r0, r4
    18e4:	00009f50 	andeq	r9, r0, r0, asr pc
	...
    18f0:	00540000 	subseq	r0, r4, r0
    18f4:	00600000 	rsbeq	r0, r0, r0
    18f8:	00010000 	andeq	r0, r1, r0
    18fc:	00006050 	andeq	r6, r0, r0, asr r0
    1900:	00006c00 	andeq	r6, r0, r0, lsl #24
    1904:	f3000400 	vshl.u8	d0, d0, d0
    1908:	009f5001 	addseq	r5, pc, r1
	...
    1914:	30000000 	andcc	r0, r0, r0
    1918:	3b000000 	blcc	1920 <__code_start__-0x66e0>
    191c:	01000000 	mrseq	r0, (UNDEF: 0)
    1920:	003b5000 	eorseq	r5, fp, r0
    1924:	00540000 	subseq	r0, r4, r0
    1928:	00010000 	andeq	r0, r1, r0
    192c:	00000055 	andeq	r0, r0, r5, asr r0
    1930:	00000000 	andeq	r0, r0, r0
    1934:	40000000 	andmi	r0, r0, r0
    1938:	54000000 	strpl	r0, [r0], #-0
    193c:	01000000 	mrseq	r0, (UNDEF: 0)
    1940:	00005400 	andeq	r5, r0, r0, lsl #8
	...
    194c:	00000044 	andeq	r0, r0, r4, asr #32
    1950:	00000048 	andeq	r0, r0, r8, asr #32
    1954:	00500001 	subseq	r0, r0, r1
	...
    1960:	24000000 	strcs	r0, [r0], #-0
    1964:	27000000 	strcs	r0, [r0, -r0]
    1968:	01000000 	mrseq	r0, (UNDEF: 0)
    196c:	00275000 	eoreq	r5, r7, r0
    1970:	00300000 	eorseq	r0, r0, r0
    1974:	00010000 	andeq	r0, r1, r0
    1978:	00000054 	andeq	r0, r0, r4, asr r0
	...
    1988:	0000e800 	andeq	lr, r0, r0, lsl #16
    198c:	00010000 	andeq	r0, r1, r0
    1990:	50000100 	andpl	r0, r0, r0, lsl #2
    1994:	00000100 	andeq	r0, r0, r0, lsl #2
    1998:	00000110 	andeq	r0, r0, r0, lsl r1
    199c:	01f30004 	mvnseq	r0, r4
    19a0:	01109f50 	tsteq	r0, r0, asr pc
    19a4:	01140000 	tsteq	r4, r0
    19a8:	00010000 	andeq	r0, r1, r0
    19ac:	00011450 	andeq	r1, r1, r0, asr r4
    19b0:	00011c00 	andeq	r1, r1, r0, lsl #24
    19b4:	f3000400 	vshl.u8	d0, d0, d0
    19b8:	009f5001 	addseq	r5, pc, r1
    19bc:	00000000 	andeq	r0, r0, r0
    19c0:	01000000 	mrseq	r0, (UNDEF: 0)
    19c4:	00000000 	andeq	r0, r0, r0
    19c8:	0000f400 	andeq	pc, r0, r0, lsl #8
    19cc:	00010000 	andeq	r0, r1, r0
    19d0:	70000b00 	andvc	r0, r0, r0, lsl #22
    19d4:	23253500 			; <UNDEFINED> instruction: 0x23253500
    19d8:	818080b4 	strhhi	r8, [r0, r4]
    19dc:	01009f02 	tsteq	r0, r2, lsl #30
    19e0:	01030000 	mrseq	r0, (UNDEF: 3)
    19e4:	00010000 	andeq	r0, r1, r0
    19e8:	00010350 	andeq	r0, r1, r0, asr r3
    19ec:	00011000 	andeq	r1, r1, r0
    19f0:	f3000c00 			; <UNDEFINED> instruction: 0xf3000c00
    19f4:	25355001 	ldrcs	r5, [r5, #-1]!
    19f8:	8080b423 	addhi	fp, r0, r3, lsr #8
    19fc:	009f0281 	addseq	r0, pc, r1, lsl #5
	...
    1a08:	0000f800 	andeq	pc, r0, r0, lsl #16
    1a0c:	00011000 	andeq	r1, r1, r0
    1a10:	54000100 	strpl	r0, [r0], #-256	; 0xffffff00
	...
    1a24:	000000cc 	andeq	r0, r0, ip, asr #1
    1a28:	000000db 	ldrdeq	r0, [r0], -fp
    1a2c:	db500001 	blle	1401a38 <__bss_end__+0x13f7a30>
    1a30:	e0000000 	and	r0, r0, r0
    1a34:	04000000 	streq	r0, [r0], #-0
    1a38:	5001f300 	andpl	pc, r1, r0, lsl #6
    1a3c:	0000e09f 	muleq	r0, pc, r0	; <UNPREDICTABLE>
    1a40:	0000e300 	andeq	lr, r0, r0, lsl #6
    1a44:	50000100 	andpl	r0, r0, r0, lsl #2
    1a48:	000000e3 	andeq	r0, r0, r3, ror #1
    1a4c:	000000e8 	andeq	r0, r0, r8, ror #1
    1a50:	01f30004 	mvnseq	r0, r4
    1a54:	00009f50 	andeq	r9, r0, r0, asr pc
	...
    1a64:	00cc0000 	sbceq	r0, ip, r0
    1a68:	00db0000 	sbcseq	r0, fp, r0
    1a6c:	00010000 	andeq	r0, r1, r0
    1a70:	0000db51 	andeq	sp, r0, r1, asr fp
    1a74:	0000e000 	andeq	lr, r0, r0
    1a78:	f3000400 	vshl.u8	d0, d0, d0
    1a7c:	e09f5101 	adds	r5, pc, r1, lsl #2
    1a80:	e3000000 	movw	r0, #0
    1a84:	01000000 	mrseq	r0, (UNDEF: 0)
    1a88:	00e35100 	rsceq	r5, r3, r0, lsl #2
    1a8c:	00e80000 	rsceq	r0, r8, r0
    1a90:	00040000 	andeq	r0, r4, r0
    1a94:	9f5101f3 	svcls	0x005101f3
	...
    1aa4:	000000bc 	strheq	r0, [r0], -ip
    1aa8:	000000c7 	andeq	r0, r0, r7, asr #1
    1aac:	c7500001 	ldrbgt	r0, [r0, -r1]
    1ab0:	cc000000 	stcgt	0, cr0, [r0], {-0}
    1ab4:	04000000 	streq	r0, [r0], #-0
    1ab8:	5001f300 	andpl	pc, r1, r0, lsl #6
    1abc:	0000009f 	muleq	r0, pc, r0	; <UNPREDICTABLE>
	...
    1ac8:	00009800 	andeq	r9, r0, r0, lsl #16
    1acc:	0000b000 	andeq	fp, r0, r0
    1ad0:	50000100 	andpl	r0, r0, r0, lsl #2
    1ad4:	000000b0 	strheq	r0, [r0], -r0	; <UNPREDICTABLE>
    1ad8:	000000bc 	strheq	r0, [r0], -ip
    1adc:	01f30004 	mvnseq	r0, r4
    1ae0:	00009f50 	andeq	r9, r0, r0, asr pc
	...
    1aec:	00740000 	rsbseq	r0, r4, r0
    1af0:	008c0000 	addeq	r0, ip, r0
    1af4:	00010000 	andeq	r0, r1, r0
    1af8:	00008c50 	andeq	r8, r0, r0, asr ip
    1afc:	00009800 	andeq	r9, r0, r0, lsl #16
    1b00:	f3000400 	vshl.u8	d0, d0, d0
    1b04:	009f5001 	addseq	r5, pc, r1
	...
    1b10:	64000000 	strvs	r0, [r0], #-0
    1b14:	6f000000 	svcvs	0x00000000
    1b18:	01000000 	mrseq	r0, (UNDEF: 0)
    1b1c:	006f5000 	rsbeq	r5, pc, r0
    1b20:	00740000 	rsbseq	r0, r4, r0
    1b24:	00040000 	andeq	r0, r4, r0
    1b28:	9f5001f3 	svcls	0x005001f3
	...
    1b3c:	00000038 	andeq	r0, r0, r8, lsr r0
    1b40:	38500001 	ldmdacc	r0, {r0}^
    1b44:	64000000 	strvs	r0, [r0], #-0
    1b48:	04000000 	streq	r0, [r0], #-0
    1b4c:	5001f300 	andpl	pc, r1, r0, lsl #6
    1b50:	0000009f 	muleq	r0, pc, r0	; <UNPREDICTABLE>
	...
    1b60:	00004700 	andeq	r4, r0, r0, lsl #14
    1b64:	51000100 	mrspl	r0, (UNDEF: 16)
    1b68:	00000047 	andeq	r0, r0, r7, asr #32
    1b6c:	00000064 	andeq	r0, r0, r4, rrx
    1b70:	01f30004 	mvnseq	r0, r4
    1b74:	00009f51 	andeq	r9, r0, r1, asr pc
	...
    1b80:	00000034 	andeq	r0, r0, r4, lsr r0
    1b84:	00000064 	andeq	r0, r0, r4, rrx
    1b88:	00540001 	subseq	r0, r4, r1
	...
    1b94:	00004000 	andeq	r4, r0, r0
    1b98:	00006400 	andeq	r6, r0, r0, lsl #8
    1b9c:	56000100 	strpl	r0, [r0], -r0, lsl #2
	...
    1ba8:	01000000 	mrseq	r0, (UNDEF: 0)
    1bac:	00000001 	andeq	r0, r0, r1
    1bb0:	00000048 	andeq	r0, r0, r8, asr #32
    1bb4:	00000050 	andeq	r0, r0, r0, asr r0
    1bb8:	50500001 	subspl	r0, r0, r1
    1bbc:	50000000 	andpl	r0, r0, r0
    1bc0:	01000000 	mrseq	r0, (UNDEF: 0)
    1bc4:	00505100 	subseq	r5, r0, r0, lsl #2
    1bc8:	00540000 	subseq	r0, r4, r0
    1bcc:	00090000 	andeq	r0, r9, r0
    1bd0:	00740075 	rsbseq	r0, r4, r5, ror r0
    1bd4:	21007124 	tstcs	r0, r4, lsr #2
    1bd8:	0000549f 	muleq	r0, pc, r4	; <UNPREDICTABLE>
    1bdc:	00005b00 	andeq	r5, r0, r0, lsl #22
    1be0:	51000100 	mrspl	r0, (UNDEF: 16)
	...
    1bf0:	00000158 	andeq	r0, r0, r8, asr r1
    1bf4:	00000163 	andeq	r0, r0, r3, ror #2
    1bf8:	63500001 	cmpvs	r0, #1, 0
    1bfc:	88000001 	stmdahi	r0, {r0}
    1c00:	01000001 	tsteq	r0, r1
    1c04:	00005400 	andeq	r5, r0, r0, lsl #8
	...
    1c10:	00000148 	andeq	r0, r0, r8, asr #2
    1c14:	00000158 	andeq	r0, r0, r8, asr r1
    1c18:	00540001 	subseq	r0, r4, r1
	...
    1c28:	0f000000 	svceq	0x00000000
    1c2c:	01000000 	mrseq	r0, (UNDEF: 0)
    1c30:	000f5000 	andeq	r5, pc, r0
    1c34:	00200000 	eoreq	r0, r0, r0
    1c38:	00010000 	andeq	r0, r1, r0
    1c3c:	00000054 	andeq	r0, r0, r4, asr r0
	...
    1c4c:	00000f00 	andeq	r0, r0, r0, lsl #30
    1c50:	51000100 	mrspl	r0, (UNDEF: 16)
    1c54:	0000000f 	andeq	r0, r0, pc
    1c58:	00000020 	andeq	r0, r0, r0, lsr #32
    1c5c:	00550001 	subseq	r0, r5, r1
	...
    1c68:	20000000 	andcs	r0, r0, r0
    1c6c:	2f000000 	svccs	0x00000000
    1c70:	01000000 	mrseq	r0, (UNDEF: 0)
    1c74:	002f5000 	eoreq	r5, pc, r0
    1c78:	00400000 	subeq	r0, r0, r0
    1c7c:	00010000 	andeq	r0, r1, r0
    1c80:	00000054 	andeq	r0, r0, r4, asr r0
	...
    1c8c:	00002000 	andeq	r2, r0, r0
    1c90:	00002f00 	andeq	r2, r0, r0, lsl #30
    1c94:	51000100 	mrspl	r0, (UNDEF: 16)
    1c98:	0000002f 	andeq	r0, r0, pc, lsr #32
    1c9c:	00000040 	andeq	r0, r0, r0, asr #32
    1ca0:	00550001 	subseq	r0, r5, r1
	...
    1cb0:	0b000000 	bleq	1cb8 <__code_start__-0x6348>
    1cb4:	01000000 	mrseq	r0, (UNDEF: 0)
    1cb8:	000b5000 	andeq	r5, fp, r0
    1cbc:	00140000 	andseq	r0, r4, r0
    1cc0:	00010000 	andeq	r0, r1, r0
    1cc4:	00000054 	andeq	r0, r0, r4, asr r0
	...
    1cd4:	00001c00 	andeq	r1, r0, r0, lsl #24
    1cd8:	51000100 	mrspl	r0, (UNDEF: 16)
    1cdc:	0000001c 	andeq	r0, r0, ip, lsl r0
    1ce0:	00000034 	andeq	r0, r0, r4, lsr r0
    1ce4:	01f30004 	mvnseq	r0, r4
    1ce8:	00009f51 	andeq	r9, r0, r1, asr pc
    1cec:	00000000 	andeq	r0, r0, r0
    1cf0:	00020000 	andeq	r0, r2, r0
    1cf4:	01000000 	mrseq	r0, (UNDEF: 0)
    1cf8:	00000001 	andeq	r0, r0, r1
    1cfc:	00000000 	andeq	r0, r0, r0
    1d00:	00000004 	andeq	r0, r0, r4
    1d04:	04500001 	ldrbeq	r0, [r0], #-1
    1d08:	1c000000 	stcne	0, cr0, [r0], {-0}
    1d0c:	01000000 	mrseq	r0, (UNDEF: 0)
    1d10:	001c5200 	andseq	r5, ip, r0, lsl #4
    1d14:	00240000 	eoreq	r0, r4, r0
    1d18:	00010000 	andeq	r0, r1, r0
    1d1c:	00002453 	andeq	r2, r0, r3, asr r4
    1d20:	00002800 	andeq	r2, r0, r0, lsl #16
    1d24:	73000300 	movwvc	r0, #768	; 0x300
    1d28:	00289f01 	eoreq	r9, r8, r1, lsl #30
    1d2c:	00340000 	eorseq	r0, r4, r0
    1d30:	00010000 	andeq	r0, r1, r0
    1d34:	00000053 	andeq	r0, r0, r3, asr r0
    1d38:	00000000 	andeq	r0, r0, r0
    1d3c:	00000300 	andeq	r0, r0, r0, lsl #6
    1d40:	00000000 	andeq	r0, r0, r0
    1d44:	00002400 	andeq	r2, r0, r0, lsl #8
    1d48:	51000100 	mrspl	r0, (UNDEF: 16)
    1d4c:	00000024 	andeq	r0, r0, r4, lsr #32
    1d50:	00000034 	andeq	r0, r0, r4, lsr r0
    1d54:	7f710003 	svcvc	0x00710003
    1d58:	0000009f 	muleq	r0, pc, r0	; <UNPREDICTABLE>
	...
    1d64:	00001000 	andeq	r1, r0, r0
    1d68:	00001c00 	andeq	r1, r0, r0, lsl #24
    1d6c:	5c000100 	stfpls	f0, [r0], {-0}
    1d70:	00000024 	andeq	r0, r0, r4, lsr #32
    1d74:	00000034 	andeq	r0, r0, r4, lsr r0
    1d78:	00520001 	subseq	r0, r2, r1
	...
    1d88:	18000000 	stmdane	r0, {}	; <UNPREDICTABLE>
    1d8c:	01000000 	mrseq	r0, (UNDEF: 0)
    1d90:	00185000 	andseq	r5, r8, r0
    1d94:	00240000 	eoreq	r0, r4, r0
    1d98:	00010000 	andeq	r0, r1, r0
    1d9c:	00000050 	andeq	r0, r0, r0, asr r0
	...
    1dac:	00001c00 	andeq	r1, r0, r0, lsl #24
    1db0:	51000100 	mrspl	r0, (UNDEF: 16)
    1db4:	0000001c 	andeq	r0, r0, ip, lsl r0
    1db8:	0000002c 	andeq	r0, r0, ip, lsr #32
    1dbc:	00510001 	subseq	r0, r1, r1
	...
    1dd0:	00000400 	andeq	r0, r0, r0, lsl #8
    1dd4:	51000100 	mrspl	r0, (UNDEF: 16)
    1dd8:	00000004 	andeq	r0, r0, r4
    1ddc:	0000000c 	andeq	r0, r0, ip
    1de0:	0c510001 	mrrceq	0, 0, r0, r1, cr1
    1de4:	20000000 	andcs	r0, r0, r0
    1de8:	03000000 	movweq	r0, #0
    1dec:	9f7f7100 	svcls	0x007f7100
	...
    1df8:	00000002 	andeq	r0, r0, r2
    1dfc:	00000000 	andeq	r0, r0, r0
    1e00:	00040000 	andeq	r0, r4, r0
    1e04:	00010000 	andeq	r0, r1, r0
    1e08:	00000450 	andeq	r0, r0, r0, asr r4
    1e0c:	00001400 	andeq	r1, r0, r0, lsl #8
    1e10:	5c000100 	stfpls	f0, [r0], {-0}
    1e14:	00000014 	andeq	r0, r0, r4, lsl r0
    1e18:	00000020 	andeq	r0, r0, r0, lsr #32
    1e1c:	7f7c0003 	svcvc	0x007c0003
    1e20:	0000009f 	muleq	r0, pc, r0	; <UNPREDICTABLE>
    1e24:	00000000 	andeq	r0, r0, r0
    1e28:	03030000 	movweq	r0, #12288	; 0x3000
    1e2c:	0092dc00 	addseq	sp, r2, r0, lsl #24
    1e30:	0092dc00 	addseq	sp, r2, r0, lsl #24
    1e34:	50000100 	andpl	r0, r0, r0, lsl #2
    1e38:	000092dc 	ldrdeq	r9, [r0], -ip
    1e3c:	00009308 	andeq	r9, r0, r8, lsl #6
    1e40:	01f30004 	mvnseq	r0, r4
    1e44:	00009f50 	andeq	r9, r0, r0, asr pc
    1e48:	00000000 	andeq	r0, r0, r0
    1e4c:	03000000 	movweq	r0, #0
    1e50:	92dc0003 	sbcsls	r0, ip, #3, 0
    1e54:	92dc0000 	sbcsls	r0, ip, #0, 0
    1e58:	00010000 	andeq	r0, r1, r0
    1e5c:	0092dc51 	addseq	sp, r2, r1, asr ip
    1e60:	00930800 	addseq	r0, r3, r0, lsl #16
    1e64:	f3000400 	vshl.u8	d0, d0, d0
    1e68:	009f5101 	addseq	r5, pc, r1, lsl #2
	...
    1e74:	00000303 	andeq	r0, r0, r3, lsl #6
    1e78:	0092dc00 	addseq	sp, r2, r0, lsl #24
    1e7c:	0092dc00 	addseq	sp, r2, r0, lsl #24
    1e80:	52000100 	andpl	r0, r0, #0
    1e84:	000092dc 	ldrdeq	r9, [r0], -ip
    1e88:	000092e4 	andeq	r9, r0, r4, ror #5
    1e8c:	e4520001 	ldrb	r0, [r2], #-1
    1e90:	08000092 	stmdaeq	r0, {r1, r4, r7}
    1e94:	03000093 	movweq	r0, #147	; 0x93
    1e98:	9f017200 	svcls	0x00017200
	...
    1ea4:	00010102 	andeq	r0, r1, r2, lsl #2
    1ea8:	00000000 	andeq	r0, r0, r0
    1eac:	000092dc 	ldrdeq	r9, [r0], -ip
    1eb0:	000092e8 	andeq	r9, r0, r8, ror #5
    1eb4:	e8500001 	ldmda	r0, {r0}^
    1eb8:	ec000092 	stc	0, cr0, [r0], {146}	; 0x92
    1ebc:	03000092 	movweq	r0, #146	; 0x92
    1ec0:	9f017000 	svcls	0x00017000
    1ec4:	000092ec 	andeq	r9, r0, ip, ror #5
    1ec8:	000092fc 	strdeq	r9, [r0], -ip
    1ecc:	00500001 	subseq	r0, r0, r1
    1ed0:	04000093 	streq	r0, [r0], #-147	; 0xffffff6d
    1ed4:	01000093 	swpeq	r0, r3, [r0]	; <UNPREDICTABLE>
    1ed8:	00005000 	andeq	r5, r0, r0
    1edc:	00000000 	andeq	r0, r0, r0
    1ee0:	00020000 	andeq	r0, r2, r0
    1ee4:	00000000 	andeq	r0, r0, r0
    1ee8:	000092dc 	ldrdeq	r9, [r0], -ip
    1eec:	000092ec 	andeq	r9, r0, ip, ror #5
    1ef0:	ec510001 	mrrc	0, 0, r0, r1, cr1
    1ef4:	f0000092 			; <UNDEFINED> instruction: 0xf0000092
    1ef8:	03000092 	movweq	r0, #146	; 0x92
    1efc:	9f017100 	svcls	0x00017100
    1f00:	000092f0 	strdeq	r9, [r0], -r0
    1f04:	00009308 	andeq	r9, r0, r8, lsl #6
    1f08:	00510001 	subseq	r0, r1, r1
    1f0c:	00000000 	andeq	r0, r0, r0
    1f10:	Address 0x0000000000001f10 is out of bounds.


Disassembly of section .debug_aranges:

00000000 <.debug_aranges>:
   0:	0000001c 	andeq	r0, r0, ip, lsl r0
   4:	00000002 	andeq	r0, r0, r2
   8:	00040000 	andeq	r0, r4, r0
   c:	00000000 	andeq	r0, r0, r0
  10:	00008038 	andeq	r8, r0, r8, lsr r0
  14:	0000007c 	andeq	r0, r0, ip, ror r0
	...
  20:	0000001c 	andeq	r0, r0, ip, lsl r0
  24:	020d0002 	andeq	r0, sp, #2, 0
  28:	00040000 	andeq	r0, r4, r0
  2c:	00000000 	andeq	r0, r0, r0
  30:	000080b4 	strheq	r8, [r0], -r4
  34:	000001d0 	ldrdeq	r0, [r0], -r0	; <UNPREDICTABLE>
	...
  40:	0000001c 	andeq	r0, r0, ip, lsl r0
  44:	0c290002 	stceq	0, cr0, [r9], #-8
  48:	00040000 	andeq	r0, r4, r0
  4c:	00000000 	andeq	r0, r0, r0
  50:	00008284 	andeq	r8, r0, r4, lsl #5
  54:	0000033c 	andeq	r0, r0, ip, lsr r3
	...
  60:	0000001c 	andeq	r0, r0, ip, lsl r0
  64:	137a0002 	cmnne	sl, #2, 0
  68:	00040000 	andeq	r0, r4, r0
  6c:	00000000 	andeq	r0, r0, r0
  70:	000085c0 	andeq	r8, r0, r0, asr #11
  74:	00000058 	andeq	r0, r0, r8, asr r0
	...
  80:	0000001c 	andeq	r0, r0, ip, lsl r0
  84:	151b0002 	ldrne	r0, [fp, #-2]
  88:	00040000 	andeq	r0, r4, r0
  8c:	00000000 	andeq	r0, r0, r0
  90:	00008618 	andeq	r8, r0, r8, lsl r6
  94:	00000034 	andeq	r0, r0, r4, lsr r0
	...
  a0:	0000001c 	andeq	r0, r0, ip, lsl r0
  a4:	16120002 	ldrne	r0, [r2], -r2
  a8:	00040000 	andeq	r0, r4, r0
  ac:	00000000 	andeq	r0, r0, r0
  b0:	0000864c 	andeq	r8, r0, ip, asr #12
  b4:	00000740 	andeq	r0, r0, r0, asr #14
	...
  c0:	0000001c 	andeq	r0, r0, ip, lsl r0
  c4:	20ed0002 	rsccs	r0, sp, r2
  c8:	00040000 	andeq	r0, r4, r0
  cc:	00000000 	andeq	r0, r0, r0
  d0:	00008d8c 	andeq	r8, r0, ip, lsl #27
  d4:	0000002c 	andeq	r0, r0, ip, lsr #32
	...
  e0:	0000001c 	andeq	r0, r0, ip, lsl r0
  e4:	22200002 	eorcs	r0, r0, #2, 0
  e8:	00040000 	andeq	r0, r4, r0
  ec:	00000000 	andeq	r0, r0, r0
  f0:	00008db8 			; <UNDEFINED> instruction: 0x00008db8
  f4:	0000003c 	andeq	r0, r0, ip, lsr r0
	...
 100:	0000001c 	andeq	r0, r0, ip, lsl r0
 104:	23ad0002 			; <UNDEFINED> instruction: 0x23ad0002
 108:	00040000 	andeq	r0, r4, r0
 10c:	00000000 	andeq	r0, r0, r0
 110:	00008df4 	strdeq	r8, [r0], -r4
 114:	00000004 	andeq	r0, r0, r4
	...
 120:	0000001c 	andeq	r0, r0, ip, lsl r0
 124:	247f0002 	ldrbtcs	r0, [pc], #-2	; 12c <__code_start__-0x7ed4>
 128:	00040000 	andeq	r0, r4, r0
 12c:	00000000 	andeq	r0, r0, r0
 130:	00008e10 	andeq	r8, r0, r0, lsl lr
 134:	00000080 	andeq	r0, r0, r0, lsl #1
	...
 140:	0000001c 	andeq	r0, r0, ip, lsl r0
 144:	26b90002 	ldrtcs	r0, [r9], r2
 148:	00040000 	andeq	r0, r4, r0
 14c:	00000000 	andeq	r0, r0, r0
 150:	00008e90 	muleq	r0, r0, lr
 154:	00000084 	andeq	r0, r0, r4, lsl #1
	...
 160:	0000001c 	andeq	r0, r0, ip, lsl r0
 164:	290a0002 	stmdbcs	sl, {r1}
 168:	00040000 	andeq	r0, r4, r0
 16c:	00000000 	andeq	r0, r0, r0
 170:	00008f14 	andeq	r8, r0, r4, lsl pc
 174:	0000011c 	andeq	r0, r0, ip, lsl r1
	...
 180:	0000001c 	andeq	r0, r0, ip, lsl r0
 184:	2cb30002 	ldccs	0, cr0, [r3], #8
 188:	00040000 	andeq	r0, r4, r0
 18c:	00000000 	andeq	r0, r0, r0
 190:	00009030 	andeq	r9, r0, r0, lsr r0
 194:	000001f0 	strdeq	r0, [r0], -r0	; <UNPREDICTABLE>
	...
 1a0:	0000001c 	andeq	r0, r0, ip, lsl r0
 1a4:	32840002 	addcc	r0, r4, #2, 0
 1a8:	00040000 	andeq	r0, r4, r0
 1ac:	00000000 	andeq	r0, r0, r0
 1b0:	00009220 	andeq	r9, r0, r0, lsr #4
 1b4:	0000003c 	andeq	r0, r0, ip, lsr r0
	...
 1c0:	0000001c 	andeq	r0, r0, ip, lsl r0
 1c4:	33d10002 	bicscc	r0, r1, #2, 0
 1c8:	00040000 	andeq	r0, r4, r0
 1cc:	00000000 	andeq	r0, r0, r0
 1d0:	0000925c 	andeq	r9, r0, ip, asr r2
 1d4:	00000034 	andeq	r0, r0, r4, lsr r0
	...
 1e0:	0000001c 	andeq	r0, r0, ip, lsl r0
 1e4:	350c0002 	strcc	r0, [ip, #-2]
 1e8:	00040000 	andeq	r0, r4, r0
 1ec:	00000000 	andeq	r0, r0, r0
 1f0:	00009290 	muleq	r0, r0, r2
 1f4:	0000002c 	andeq	r0, r0, ip, lsr #32
	...
 200:	0000001c 	andeq	r0, r0, ip, lsl r0
 204:	36070002 	strcc	r0, [r7], -r2
 208:	00040000 	andeq	r0, r4, r0
 20c:	00000000 	andeq	r0, r0, r0
 210:	000092bc 			; <UNDEFINED> instruction: 0x000092bc
 214:	00000020 	andeq	r0, r0, r0, lsr #32
	...
 220:	0000001c 	andeq	r0, r0, ip, lsl r0
 224:	371a0002 	ldrcc	r0, [sl, -r2]
 228:	00040000 	andeq	r0, r4, r0
 22c:	00000000 	andeq	r0, r0, r0
 230:	000092dc 	ldrdeq	r9, [r0], -ip
 234:	0000002c 	andeq	r0, r0, ip, lsr #32
	...
 240:	0000001c 	andeq	r0, r0, ip, lsl r0
 244:	386c0002 	stmdacc	ip!, {r1}^
 248:	00040000 	andeq	r0, r4, r0
 24c:	00000000 	andeq	r0, r0, r0
 250:	00009308 	andeq	r9, r0, r8, lsl #6
 254:	00000004 	andeq	r0, r0, r4
	...

Disassembly of section .debug_ranges:

00000000 <.debug_ranges>:
   0:	00000000 	andeq	r0, r0, r0
   4:	00000004 	andeq	r0, r0, r4
   8:	00000010 	andeq	r0, r0, r0, lsl r0
   c:	00000014 	andeq	r0, r0, r4, lsl r0
  10:	0000001c 	andeq	r0, r0, ip, lsl r0
  14:	00000030 	andeq	r0, r0, r0, lsr r0
	...
  20:	000000a0 	andeq	r0, r0, r0, lsr #1
  24:	000000a0 	andeq	r0, r0, r0, lsr #1
  28:	000000a4 	andeq	r0, r0, r4, lsr #1
  2c:	000000ac 	andeq	r0, r0, ip, lsr #1
	...
  38:	000000e8 	andeq	r0, r0, r8, ror #1
  3c:	000000e8 	andeq	r0, r0, r8, ror #1
  40:	000000e8 	andeq	r0, r0, r8, ror #1
  44:	000000e8 	andeq	r0, r0, r8, ror #1
  48:	000000e8 	andeq	r0, r0, r8, ror #1
  4c:	000000f0 	strdeq	r0, [r0], -r0	; <UNPREDICTABLE>
	...
  58:	00000108 	andeq	r0, r0, r8, lsl #2
  5c:	00000108 	andeq	r0, r0, r8, lsl #2
  60:	00000108 	andeq	r0, r0, r8, lsl #2
  64:	0000010c 	andeq	r0, r0, ip, lsl #2
	...
  70:	00000140 	andeq	r0, r0, r0, asr #2
  74:	00000140 	andeq	r0, r0, r0, asr #2
  78:	00000140 	andeq	r0, r0, r0, asr #2
  7c:	00000140 	andeq	r0, r0, r0, asr #2
	...
  88:	0000001c 	andeq	r0, r0, ip, lsl r0
  8c:	0000002c 	andeq	r0, r0, ip, lsr #32
  90:	00000030 	andeq	r0, r0, r0, lsr r0
  94:	00000040 	andeq	r0, r0, r0, asr #32
  98:	00000044 	andeq	r0, r0, r4, asr #32
  9c:	000000b4 	strheq	r0, [r0], -r4
	...
  a8:	000000b4 	strheq	r0, [r0], -r4
  ac:	0000020c 	andeq	r0, r0, ip, lsl #4
  b0:	00000224 	andeq	r0, r0, r4, lsr #4
  b4:	00000224 	andeq	r0, r0, r4, lsr #4
  b8:	00000234 	andeq	r0, r0, r4, lsr r2
  bc:	000002ec 	andeq	r0, r0, ip, ror #5
	...
  c8:	000000cc 	andeq	r0, r0, ip, asr #1
  cc:	000000d4 	ldrdeq	r0, [r0], -r4
  d0:	000000dc 	ldrdeq	r0, [r0], -ip
  d4:	00000208 	andeq	r0, r0, r8, lsl #4
  d8:	00000234 	andeq	r0, r0, r4, lsr r2
  dc:	000002ec 	andeq	r0, r0, ip, ror #5
	...
  e8:	000000e0 	andeq	r0, r0, r0, ror #1
  ec:	000001f0 	strdeq	r0, [r0], -r0	; <UNPREDICTABLE>
  f0:	00000234 	andeq	r0, r0, r4, lsr r2
  f4:	000002ec 	andeq	r0, r0, ip, ror #5
	...
 100:	0000012c 	andeq	r0, r0, ip, lsr #2
 104:	000001f0 	strdeq	r0, [r0], -r0	; <UNPREDICTABLE>
 108:	00000234 	andeq	r0, r0, r4, lsr r2
 10c:	000002ec 	andeq	r0, r0, ip, ror #5
	...
 118:	00000134 	andeq	r0, r0, r4, lsr r1
 11c:	0000018c 	andeq	r0, r0, ip, lsl #3
 120:	00000190 	muleq	r0, r0, r1
 124:	00000194 	muleq	r0, r4, r1
 128:	00000198 	muleq	r0, r8, r1
 12c:	0000019c 	muleq	r0, ip, r1
 130:	000001a0 	andeq	r0, r0, r0, lsr #3
 134:	000001bc 			; <UNDEFINED> instruction: 0x000001bc
 138:	000001c4 	andeq	r0, r0, r4, asr #3
 13c:	000001e8 	andeq	r0, r0, r8, ror #3
 140:	00000240 	andeq	r0, r0, r0, asr #4
 144:	00000298 	muleq	r0, r8, r2
 148:	0000029c 	muleq	r0, ip, r2
 14c:	000002a0 	andeq	r0, r0, r0, lsr #5
 150:	000002a4 	andeq	r0, r0, r4, lsr #5
 154:	000002ac 	andeq	r0, r0, ip, lsr #5
 158:	000002b0 			; <UNDEFINED> instruction: 0x000002b0
 15c:	000002c8 	andeq	r0, r0, r8, asr #5
 160:	000002cc 	andeq	r0, r0, ip, asr #5
 164:	000002e0 	andeq	r0, r0, r0, ror #5
	...
 170:	00000138 	andeq	r0, r0, r8, lsr r1
 174:	00000148 	andeq	r0, r0, r8, asr #2
 178:	0000014c 	andeq	r0, r0, ip, asr #2
 17c:	00000150 	andeq	r0, r0, r0, asr r1
 180:	00000244 	andeq	r0, r0, r4, asr #4
 184:	00000258 	andeq	r0, r0, r8, asr r2
	...
 190:	00000138 	andeq	r0, r0, r8, lsr r1
 194:	0000013c 	andeq	r0, r0, ip, lsr r1
 198:	00000244 	andeq	r0, r0, r4, asr #4
 19c:	00000248 	andeq	r0, r0, r8, asr #4
	...
 1a8:	00000150 	andeq	r0, r0, r0, asr r1
 1ac:	00000164 	andeq	r0, r0, r4, ror #2
 1b0:	0000025c 	andeq	r0, r0, ip, asr r2
 1b4:	00000270 	andeq	r0, r0, r0, ror r2
	...
 1c0:	00000150 	andeq	r0, r0, r0, asr r1
 1c4:	00000154 	andeq	r0, r0, r4, asr r1
 1c8:	0000025c 	andeq	r0, r0, ip, asr r2
 1cc:	00000260 	andeq	r0, r0, r0, ror #4
	...
 1d8:	00000164 	andeq	r0, r0, r4, ror #2
 1dc:	00000168 	andeq	r0, r0, r8, ror #2
 1e0:	0000016c 	andeq	r0, r0, ip, ror #2
 1e4:	00000170 	andeq	r0, r0, r0, ror r1
 1e8:	00000174 	andeq	r0, r0, r4, ror r1
 1ec:	00000178 	andeq	r0, r0, r8, ror r1
 1f0:	00000270 	andeq	r0, r0, r0, ror r2
 1f4:	00000274 	andeq	r0, r0, r4, ror r2
 1f8:	00000278 	andeq	r0, r0, r8, ror r2
 1fc:	0000027c 	andeq	r0, r0, ip, ror r2
 200:	00000280 	andeq	r0, r0, r0, lsl #5
 204:	00000284 	andeq	r0, r0, r4, lsl #5
	...
 210:	00000164 	andeq	r0, r0, r4, ror #2
 214:	00000168 	andeq	r0, r0, r8, ror #2
 218:	00000270 	andeq	r0, r0, r0, ror r2
 21c:	00000274 	andeq	r0, r0, r4, ror r2
	...
 228:	00000168 	andeq	r0, r0, r8, ror #2
 22c:	0000016c 	andeq	r0, r0, ip, ror #2
 230:	00000180 	andeq	r0, r0, r0, lsl #3
 234:	00000184 	andeq	r0, r0, r4, lsl #3
 238:	00000274 	andeq	r0, r0, r4, ror r2
 23c:	00000278 	andeq	r0, r0, r8, ror r2
 240:	00000288 	andeq	r0, r0, r8, lsl #5
 244:	0000028c 	andeq	r0, r0, ip, lsl #5
	...
 250:	00000168 	andeq	r0, r0, r8, ror #2
 254:	0000016c 	andeq	r0, r0, ip, ror #2
 258:	00000274 	andeq	r0, r0, r4, ror r2
 25c:	00000278 	andeq	r0, r0, r8, ror r2
	...
 268:	00008e10 	andeq	r8, r0, r0, lsl lr
 26c:	00008e90 	muleq	r0, r0, lr
	...
 278:	000092dc 	ldrdeq	r9, [r0], -ip
 27c:	00009308 	andeq	r9, r0, r8, lsl #6
	...

Disassembly of section .debug_line:

00000000 <.debug_line>:
       0:	0000019f 	muleq	r0, pc, r1	; <UNPREDICTABLE>
       4:	00fb0003 	rscseq	r0, fp, r3
       8:	01020000 	mrseq	r0, (UNDEF: 2)
       c:	000d0efb 	strdeq	r0, [sp], -fp
      10:	01010101 	tsteq	r1, r1, lsl #2
      14:	01000000 	mrseq	r0, (UNDEF: 0)
      18:	74010000 	strvc	r0, [r1], #-0
      1c:	73747365 	cmnvc	r4, #-1811939327	; 0x94000001
      20:	706f2f00 	rsbvc	r2, pc, r0, lsl #30
      24:	6f682f74 	svcvs	0x00682f74
      28:	7262656d 	rsbvc	r6, r2, #457179136	; 0x1b400000
      2c:	432f7765 			; <UNDEFINED> instruction: 0x432f7765
      30:	616c6c65 	cmnvs	ip, r5, ror #24
      34:	72612f72 	rsbvc	r2, r1, #456	; 0x1c8
      38:	6f6e2d6d 	svcvs	0x006e2d6d
      3c:	652d656e 	strvs	r6, [sp, #-1390]!	; 0xfffffa92
      40:	2d696261 	sfmcs	f6, 2, [r9, #-388]!	; 0xfffffe7c
      44:	74736574 	ldrbtvc	r6, [r3], #-1396	; 0xfffffa8c
      48:	322d392f 	eorcc	r3, sp, #770048	; 0xbc000
      4c:	71393130 	teqvc	r9, r0, lsr r1
      50:	73632d34 	cmnvc	r3, #52, 26	; 0xd00
      54:	65373031 	ldrvs	r3, [r7, #-49]!	; 0xffffffcf
      58:	62696c2f 	rsbvs	r6, r9, #12032	; 0x2f00
      5c:	6363672f 	cmnvs	r3, #12320768	; 0xbc0000
      60:	6d72612f 	ldfvse	f6, [r2, #-188]!	; 0xffffff44
      64:	6e6f6e2d 	cdpvs	14, 6, cr6, cr15, cr13, {1}
      68:	61652d65 	cmnvs	r5, r5, ror #26
      6c:	392f6962 	stmdbcc	pc!, {r1, r5, r6, r8, fp, sp, lr}	; <UNPREDICTABLE>
      70:	312e322e 			; <UNDEFINED> instruction: 0x312e322e
      74:	636e692f 	cmnvs	lr, #770048	; 0xbc000
      78:	6564756c 	strbvs	r7, [r4, #-1388]!	; 0xfffffa94
      7c:	73552f00 	cmpvc	r5, #0, 30
      80:	2f737265 	svccs	0x00737265
      84:	6574616b 	ldrbvs	r6, [r4, #-363]!	; 0xfffffe95
      88:	6c657365 	stclvs	3, cr7, [r5], #-404	; 0xfffffe6c
      8c:	2f737569 	svccs	0x00737569
      90:	75636f44 	strbvc	r6, [r3, #-3908]!	; 0xfffff0bc
      94:	746e656d 	strbtvc	r6, [lr], #-1389	; 0xfffffa93
      98:	53432f73 	movtpl	r2, #16243	; 0x3f73
      9c:	45303431 	ldrmi	r3, [r0, #-1073]!	; 0xfffffbcf
      a0:	3173632f 	cmncc	r3, pc, lsr #6
      a4:	2d453034 	stclcs	0, cr3, [r5, #-208]	; 0xffffff30
      a8:	616e6966 	cmnvs	lr, r6, ror #18
      ac:	72702d6c 	rsbsvc	r2, r0, #108, 26	; 0x1b00
      b0:	63656a6f 	cmnvs	r5, #454656	; 0x6f000
      b4:	696c2f74 	stmdbvs	ip!, {r2, r4, r5, r6, r8, r9, sl, fp, sp}^
      b8:	322d7362 	eorcc	r7, sp, #-2013265919	; 0x88000001
      bc:	786c3034 	stmdavc	ip!, {r2, r4, r5, ip, sp}^
      c0:	62696c2f 	rsbvs	r6, r9, #12032	; 0x2f00
      c4:	692f6970 	stmdbvs	pc!, {r4, r5, r6, r8, fp, sp, lr}	; <UNPREDICTABLE>
      c8:	756c636e 	strbvc	r6, [ip, #-878]!	; 0xfffffc92
      cc:	2e006564 	cfsh32cs	mvfx6, mvfx0, #52
      d0:	2d350000 	ldccs	0, cr0, [r5, #-0]
      d4:	2d746666 	ldclcs	6, cr6, [r4, #-408]!	; 0xfffffe68
      d8:	656d6974 	strbvs	r6, [sp, #-2420]!	; 0xfffff68c
      dc:	0100632e 	tsteq	r0, lr, lsr #6
      e0:	74730000 	ldrbtvc	r0, [r3], #-0
      e4:	746e6964 	strbtvc	r6, [lr], #-2404	; 0xfffff69c
      e8:	6363672d 	cmnvs	r3, #11796480	; 0xb40000
      ec:	0200682e 	andeq	r6, r0, #3014656	; 0x2e0000
      f0:	70720000 	rsbsvc	r0, r2, r0
      f4:	00682e69 	rsbeq	r2, r8, r9, ror #28
      f8:	66000003 	strvs	r0, [r0], -r3
      fc:	682e7466 	stmdavs	lr!, {r1, r2, r5, r6, sl, ip, sp, lr}
     100:	00000400 	andeq	r0, r0, r0, lsl #8
     104:	00140500 	andseq	r0, r4, r0, lsl #10
     108:	80380205 	eorshi	r0, r8, r5, lsl #4
     10c:	0c030000 	stceq	0, cr0, [r3], {-0}
     110:	14050501 	strne	r0, [r5], #-1281	; 0xfffffaff
     114:	0a051513 	beq	145568 <__bss_end__+0x13b560>
     118:	01150501 	tsteq	r5, r1, lsl #10
     11c:	14061105 	strne	r1, [r6], #-261	; 0xfffffefb
     120:	78031405 	stmdavc	r3, {r0, r2, sl, ip}
     124:	6d11052e 	cfldr32vs	mvfx0, [r1, #-184]	; 0xffffff48
     128:	79031405 	stmdbvc	r3, {r0, r2, sl, ip}
     12c:	0009052e 	andeq	r0, r9, lr, lsr #10
     130:	06030402 	streq	r0, [r3], -r2, lsl #8
     134:	00110551 	andseq	r0, r1, r1, asr r5
     138:	06030402 	streq	r0, [r3], -r2, lsl #8
     13c:	00090501 	andeq	r0, r9, r1, lsl #10
     140:	06030402 	streq	r0, [r3], -r2, lsl #8
     144:	0011052f 	andseq	r0, r1, pc, lsr #10
     148:	06030402 	streq	r0, [r3], -r2, lsl #8
     14c:	001c052e 	andseq	r0, ip, lr, lsr #10
     150:	06030402 	streq	r0, [r3], -r2, lsl #8
     154:	0015052c 	andseq	r0, r5, ip, lsr #10
     158:	01030402 	tsteq	r3, r2, lsl #8
     15c:	05500505 	ldrbeq	r0, [r0, #-1285]	; 0xfffffafb
     160:	05010616 	streq	r0, [r1, #-1558]	; 0xfffff9ea
     164:	05670605 	strbeq	r0, [r7, #-1541]!	; 0xfffff9fb
     168:	1505010a 	strne	r0, [r5, #-266]	; 0xfffffef6
     16c:	00090501 	andeq	r0, r9, r1, lsl #10
     170:	13030402 	movwne	r0, #13314	; 0x3402
     174:	02002505 	andeq	r2, r0, #20971520	; 0x1400000
     178:	059d0304 	ldreq	r0, [sp, #772]	; 0x304
     17c:	04020015 	streq	r0, [r2], #-21	; 0xffffffeb
     180:	05050103 	streq	r0, [r5, #-259]	; 0xfffffefd
     184:	03040200 	movweq	r0, #16896	; 0x4200
     188:	4d060106 	stfmis	f0, [r6, #-24]	; 0xffffffe8
     18c:	01061405 	tsteq	r6, r5, lsl #8
     190:	30060505 	andcc	r0, r6, r5, lsl #10
     194:	01062c05 	tsteq	r6, r5, lsl #24
     198:	662e0505 	strtvs	r0, [lr], -r5, lsl #10
     19c:	06023006 	streq	r3, [r2], -r6
     1a0:	84010100 	strhi	r0, [r1], #-256	; 0xffffff00
     1a4:	0300000b 	movweq	r0, #11
     1a8:	00015600 	andeq	r5, r1, r0, lsl #12
     1ac:	fb010200 	blx	409b6 <__bss_end__+0x369ae>
     1b0:	01000d0e 	tsteq	r0, lr, lsl #26
     1b4:	00010101 	andeq	r0, r1, r1, lsl #2
     1b8:	00010000 	andeq	r0, r1, r0
     1bc:	552f0100 	strpl	r0, [pc, #-256]!	; c4 <__code_start__-0x7f3c>
     1c0:	73726573 	cmnvc	r2, #482344960	; 0x1cc00000
     1c4:	74616b2f 	strbtvc	r6, [r1], #-2863	; 0xfffff4d1
     1c8:	65736565 	ldrbvs	r6, [r3, #-1381]!	; 0xfffffa9b
     1cc:	7375696c 	cmnvc	r5, #108, 18	; 0x1b0000
     1d0:	636f442f 	cmnvs	pc, #788529152	; 0x2f000000
     1d4:	6e656d75 	mcrvs	13, 3, r6, cr5, cr5, {3}
     1d8:	432f7374 			; <UNDEFINED> instruction: 0x432f7374
     1dc:	30343153 	eorscc	r3, r4, r3, asr r1
     1e0:	73632f45 	cmnvc	r3, #276	; 0x114
     1e4:	45303431 	ldrmi	r3, [r0, #-1073]!	; 0xfffffbcf
     1e8:	6e69662d 	cdpvs	6, 6, cr6, cr9, cr13, {1}
     1ec:	702d6c61 	eorvc	r6, sp, r1, ror #24
     1f0:	656a6f72 	strbvs	r6, [sl, #-3954]!	; 0xfffff08e
     1f4:	6c2f7463 	cfstrsvs	mvf7, [pc], #-396	; 70 <__code_start__-0x7f90>
     1f8:	2d736269 	lfmcs	f6, 2, [r3, #-420]!	; 0xfffffe5c
     1fc:	6c303432 	cfldrsvs	mvf3, [r0], #-200	; 0xffffff38
     200:	696c2f78 	stmdbvs	ip!, {r3, r4, r5, r6, r8, r9, sl, fp, sp}^
     204:	2f697062 	svccs	0x00697062
     208:	6362696c 	cmnvs	r2, #108, 18	; 0x1b0000
     20c:	706f2f00 	rsbvc	r2, pc, r0, lsl #30
     210:	6f682f74 	svcvs	0x00682f74
     214:	7262656d 	rsbvc	r6, r2, #457179136	; 0x1b400000
     218:	432f7765 			; <UNDEFINED> instruction: 0x432f7765
     21c:	616c6c65 	cmnvs	ip, r5, ror #24
     220:	72612f72 	rsbvc	r2, r1, #456	; 0x1c8
     224:	6f6e2d6d 	svcvs	0x006e2d6d
     228:	652d656e 	strvs	r6, [sp, #-1390]!	; 0xfffffa92
     22c:	2d696261 	sfmcs	f6, 2, [r9, #-388]!	; 0xfffffe7c
     230:	74736574 	ldrbtvc	r6, [r3], #-1396	; 0xfffffa8c
     234:	322d392f 	eorcc	r3, sp, #770048	; 0xbc000
     238:	71393130 	teqvc	r9, r0, lsr r1
     23c:	73632d34 	cmnvc	r3, #52, 26	; 0xd00
     240:	65373031 	ldrvs	r3, [r7, #-49]!	; 0xffffffcf
     244:	62696c2f 	rsbvs	r6, r9, #12032	; 0x2f00
     248:	6363672f 	cmnvs	r3, #12320768	; 0xbc0000
     24c:	6d72612f 	ldfvse	f6, [r2, #-188]!	; 0xffffff44
     250:	6e6f6e2d 	cdpvs	14, 6, cr6, cr15, cr13, {1}
     254:	61652d65 	cmnvs	r5, r5, ror #26
     258:	392f6962 	stmdbcc	pc!, {r1, r5, r6, r8, fp, sp, lr}	; <UNPREDICTABLE>
     25c:	312e322e 			; <UNDEFINED> instruction: 0x312e322e
     260:	636e692f 	cmnvs	lr, #770048	; 0xbc000
     264:	6564756c 	strbvs	r7, [r4, #-1388]!	; 0xfffffa94
     268:	73552f00 	cmpvc	r5, #0, 30
     26c:	2f737265 	svccs	0x00737265
     270:	6574616b 	ldrbvs	r6, [r4, #-363]!	; 0xfffffe95
     274:	6c657365 	stclvs	3, cr7, [r5], #-404	; 0xfffffe6c
     278:	2f737569 	svccs	0x00737569
     27c:	75636f44 	strbvc	r6, [r3, #-3908]!	; 0xfffff0bc
     280:	746e656d 	strbtvc	r6, [lr], #-1389	; 0xfffffa93
     284:	53432f73 	movtpl	r2, #16243	; 0x3f73
     288:	45303431 	ldrmi	r3, [r0, #-1073]!	; 0xfffffbcf
     28c:	3173632f 	cmncc	r3, pc, lsr #6
     290:	2d453034 	stclcs	0, cr3, [r5, #-208]	; 0xffffff30
     294:	616e6966 	cmnvs	lr, r6, ror #18
     298:	72702d6c 	rsbsvc	r2, r0, #108, 26	; 0x1b00
     29c:	63656a6f 	cmnvs	r5, #454656	; 0x6f000
     2a0:	696c2f74 	stmdbvs	ip!, {r2, r4, r5, r6, r8, r9, sl, fp, sp}^
     2a4:	322d7362 	eorcc	r7, sp, #-2013265919	; 0x88000001
     2a8:	786c3034 	stmdavc	ip!, {r2, r4, r5, ip, sp}^
     2ac:	62696c2f 	rsbvs	r6, r9, #12032	; 0x2f00
     2b0:	692f6970 	stmdbvs	pc!, {r4, r5, r6, r8, fp, sp, lr}	; <UNPREDICTABLE>
     2b4:	756c636e 	strbvc	r6, [ip, #-878]!	; 0xfffffc92
     2b8:	00006564 	andeq	r6, r0, r4, ror #10
     2bc:	2d746962 			; <UNDEFINED> instruction: 0x2d746962
     2c0:	70707573 	rsbsvc	r7, r0, r3, ror r5
     2c4:	2e74726f 	cdpcs	2, 7, cr7, cr4, cr15, {3}
     2c8:	00010068 	andeq	r0, r1, r8, rrx
     2cc:	73326900 	teqvc	r2, #0, 18
     2d0:	0000632e 	andeq	r6, r0, lr, lsr #6
     2d4:	74730000 	ldrbtvc	r0, [r3], #-0
     2d8:	746e6964 	strbtvc	r6, [lr], #-2404	; 0xfffff69c
     2dc:	6363672d 	cmnvs	r3, #11796480	; 0xb40000
     2e0:	0200682e 	andeq	r6, r0, #3014656	; 0x2e0000
     2e4:	70720000 	rsbsvc	r0, r2, r0
     2e8:	00682e69 	rsbeq	r2, r8, r9, ror #28
     2ec:	69000003 	stmdbvs	r0, {r0, r1}
     2f0:	682e7332 	stmdavs	lr!, {r1, r4, r5, r8, r9, ip, sp, lr}
     2f4:	00000000 	andeq	r0, r0, r0
     2f8:	6f697067 	svcvs	0x00697067
     2fc:	0300682e 	movweq	r6, #2094	; 0x82e
     300:	05000000 	streq	r0, [r0, #-0]
     304:	02050001 	andeq	r0, r5, #1, 0
     308:	000080b4 	strheq	r8, [r0], -r4
     30c:	0100cc03 	tsteq	r0, r3, lsl #24
     310:	0b030505 	bleq	c172c <__bss_end__+0xb7724>
     314:	01050101 	tsteq	r5, r1, lsl #2
     318:	01750306 	cmneq	r5, r6, lsl #6
     31c:	0b030505 	bleq	c1738 <__bss_end__+0xb7730>
     320:	0301052e 	movweq	r0, #5422	; 0x152e
     324:	05052e75 	streq	r2, [r5, #-3701]	; 0xfffff18b
     328:	062e0b03 	strteq	r0, [lr], -r3, lsl #22
     32c:	050204ba 	streq	r0, [r2, #-1210]	; 0xfffffb46
     330:	7fbd0325 	svcvc	0x00bd0325
     334:	1605059e 			; <UNDEFINED> instruction: 0x1605059e
     338:	13060105 	movwne	r0, #24837	; 0x6105
     33c:	0615052e 	ldreq	r0, [r5], -lr, lsr #10
     340:	13050530 	movwne	r0, #21808	; 0x5530
     344:	06150501 	ldreq	r0, [r5], -r1, lsl #10
     348:	2f050511 	svccs	0x00050511
     34c:	052d1505 	streq	r1, [sp, #-1285]!	; 0xfffffafb
     350:	01042f05 	tsteq	r4, r5, lsl #30
     354:	010d3506 	tsteq	sp, r6, lsl #10
     358:	04130101 	ldreq	r0, [r3], #-257	; 0xfffffeff
     35c:	000f0602 	andeq	r0, pc, r2, lsl #12
     360:	06020402 	streq	r0, [r2], -r2, lsl #8
     364:	0402004a 	streq	r0, [r2], #-74	; 0xffffffb6
     368:	02000102 	andeq	r0, r0, #-2147483648	; 0x80000000
     36c:	00160204 	andseq	r0, r6, r4, lsl #4
     370:	67020402 	strvs	r0, [r2, -r2, lsl #8]
     374:	02040200 	andeq	r0, r4, #0, 4
     378:	04020067 	streq	r0, [r2], #-103	; 0xffffff99
     37c:	02006802 	andeq	r6, r0, #131072	; 0x20000
     380:	004b0204 	subeq	r0, fp, r4, lsl #4
     384:	4b020402 	blmi	81394 <__bss_end__+0x7738c>
     388:	02040200 	andeq	r0, r4, #0, 4
     38c:	0402004c 	streq	r0, [r2], #-76	; 0xffffffb4
     390:	14053102 	strne	r3, [r5], #-258	; 0xfffffefe
     394:	02040200 	andeq	r0, r4, #0, 4
     398:	05050106 	streq	r0, [r5, #-262]	; 0xfffffefa
     39c:	02040200 	andeq	r0, r4, #0, 4
     3a0:	01044b06 	tsteq	r4, r6, lsl #22
     3a4:	02040200 	andeq	r0, r4, #0, 4
     3a8:	00012103 	andeq	r2, r1, r3, lsl #2
     3ac:	01020402 	tsteq	r2, r2, lsl #8
     3b0:	02040200 	andeq	r0, r4, #0, 4
     3b4:	04020001 	streq	r0, [r2], #-1
     3b8:	02000102 	andeq	r0, r0, #-2147483648	; 0x80000000
     3bc:	00130204 	andseq	r0, r3, r4, lsl #4
     3c0:	01020402 	tsteq	r2, r2, lsl #8
     3c4:	02040200 	andeq	r0, r4, #0, 4
     3c8:	04020001 	streq	r0, [r2], #-1
     3cc:	02000102 	andeq	r0, r0, #-2147483648	; 0x80000000
     3d0:	00190204 	andseq	r0, r9, r4, lsl #4
     3d4:	13020402 	movwne	r0, #9218	; 0x2402
     3d8:	02040200 	andeq	r0, r4, #0, 4
     3dc:	04020001 	streq	r0, [r2], #-1
     3e0:	02000102 	andeq	r0, r0, #-2147483648	; 0x80000000
     3e4:	00010204 	andeq	r0, r1, r4, lsl #4
     3e8:	13020402 	movwne	r0, #9218	; 0x2402
     3ec:	02040200 	andeq	r0, r4, #0, 4
     3f0:	04020001 	streq	r0, [r2], #-1
     3f4:	01590302 	cmpeq	r9, r2, lsl #6
     3f8:	02040200 	andeq	r0, r4, #0, 4
     3fc:	04020014 	streq	r0, [r2], #-20	; 0xffffffec
     400:	02000102 	andeq	r0, r0, #-2147483648	; 0x80000000
     404:	00010204 	andeq	r0, r1, r4, lsl #4
     408:	01020402 	tsteq	r2, r2, lsl #8
     40c:	02040200 	andeq	r0, r4, #0, 4
     410:	04020013 	streq	r0, [r2], #-19	; 0xffffffed
     414:	01240302 			; <UNDEFINED> instruction: 0x01240302
     418:	02040200 	andeq	r0, r4, #0, 4
     41c:	04020001 	streq	r0, [r2], #-1
     420:	02001402 	andeq	r1, r0, #33554432	; 0x2000000
     424:	68030204 	stmdavs	r3, {r2, r9}
     428:	04020001 	streq	r0, [r2], #-1
     42c:	02000102 	andeq	r0, r0, #-2147483648	; 0x80000000
     430:	00010204 	andeq	r0, r1, r4, lsl #4
     434:	01020402 	tsteq	r2, r2, lsl #8
     438:	02040200 	andeq	r0, r4, #0, 4
     43c:	04020013 	streq	r0, [r2], #-19	; 0xffffffed
     440:	02000102 	andeq	r0, r0, #-2147483648	; 0x80000000
     444:	00010204 	andeq	r0, r1, r4, lsl #4
     448:	01020402 	tsteq	r2, r2, lsl #8
     44c:	02040200 	andeq	r0, r4, #0, 4
     450:	04020014 	streq	r0, [r2], #-20	; 0xffffffec
     454:	016c0302 	cmneq	ip, r2, lsl #6
     458:	02040200 	andeq	r0, r4, #0, 4
     45c:	04020014 	streq	r0, [r2], #-20	; 0xffffffec
     460:	02000102 	andeq	r0, r0, #-2147483648	; 0x80000000
     464:	00010204 	andeq	r0, r1, r4, lsl #4
     468:	01020402 	tsteq	r2, r2, lsl #8
     46c:	02040200 	andeq	r0, r4, #0, 4
     470:	04020013 	streq	r0, [r2], #-19	; 0xffffffed
     474:	01140302 	tsteq	r4, r2, lsl #6
     478:	02000204 	andeq	r0, r0, #4, 4	; 0x40000000
     47c:	66030204 	strvs	r0, [r3], -r4, lsl #4
     480:	00010401 	andeq	r0, r1, r1, lsl #8
     484:	03020402 	movweq	r0, #9218	; 0x2402
     488:	02000120 	andeq	r0, r0, #8
     48c:	00010204 	andeq	r0, r1, r4, lsl #4
     490:	01020402 	tsteq	r2, r2, lsl #8
     494:	02040200 	andeq	r0, r4, #0, 4
     498:	04020001 	streq	r0, [r2], #-1
     49c:	02001302 	andeq	r1, r0, #134217728	; 0x8000000
     4a0:	00010204 	andeq	r0, r1, r4, lsl #4
     4a4:	01020402 	tsteq	r2, r2, lsl #8
     4a8:	02040200 	andeq	r0, r4, #0, 4
     4ac:	04020001 	streq	r0, [r2], #-1
     4b0:	02001902 	andeq	r1, r0, #32768	; 0x8000
     4b4:	00130204 	andseq	r0, r3, r4, lsl #4
     4b8:	01020402 	tsteq	r2, r2, lsl #8
     4bc:	02040200 	andeq	r0, r4, #0, 4
     4c0:	04020001 	streq	r0, [r2], #-1
     4c4:	02000102 	andeq	r0, r0, #-2147483648	; 0x80000000
     4c8:	00130204 	andseq	r0, r3, r4, lsl #4
     4cc:	01020402 	tsteq	r2, r2, lsl #8
     4d0:	02040200 	andeq	r0, r4, #0, 4
     4d4:	00015903 	andeq	r5, r1, r3, lsl #18
     4d8:	14020402 	strne	r0, [r2], #-1026	; 0xfffffbfe
     4dc:	02040200 	andeq	r0, r4, #0, 4
     4e0:	04020001 	streq	r0, [r2], #-1
     4e4:	02000102 	andeq	r0, r0, #-2147483648	; 0x80000000
     4e8:	00010204 	andeq	r0, r1, r4, lsl #4
     4ec:	13020402 	movwne	r0, #9218	; 0x2402
     4f0:	02040200 	andeq	r0, r4, #0, 4
     4f4:	00012403 	andeq	r2, r1, r3, lsl #8
     4f8:	01020402 	tsteq	r2, r2, lsl #8
     4fc:	02040200 	andeq	r0, r4, #0, 4
     500:	04020014 	streq	r0, [r2], #-20	; 0xffffffec
     504:	01680302 	cmneq	r8, r2, lsl #6
     508:	02040200 	andeq	r0, r4, #0, 4
     50c:	04020001 	streq	r0, [r2], #-1
     510:	02000102 	andeq	r0, r0, #-2147483648	; 0x80000000
     514:	00010204 	andeq	r0, r1, r4, lsl #4
     518:	13020402 	movwne	r0, #9218	; 0x2402
     51c:	02040200 	andeq	r0, r4, #0, 4
     520:	04020001 	streq	r0, [r2], #-1
     524:	02000102 	andeq	r0, r0, #-2147483648	; 0x80000000
     528:	00010204 	andeq	r0, r1, r4, lsl #4
     52c:	14020402 	strne	r0, [r2], #-1026	; 0xfffffbfe
     530:	02040200 	andeq	r0, r4, #0, 4
     534:	00016c03 	andeq	r6, r1, r3, lsl #24
     538:	14020402 	strne	r0, [r2], #-1026	; 0xfffffbfe
     53c:	02040200 	andeq	r0, r4, #0, 4
     540:	04020001 	streq	r0, [r2], #-1
     544:	02000102 	andeq	r0, r0, #-2147483648	; 0x80000000
     548:	00010204 	andeq	r0, r1, r4, lsl #4
     54c:	13020402 	movwne	r0, #9218	; 0x2402
     550:	02040200 	andeq	r0, r4, #0, 4
     554:	04011403 	streq	r1, [r1], #-1027	; 0xfffffbfd
     558:	04020002 	streq	r0, [r2], #-2
     55c:	01670302 	cmneq	r7, r2, lsl #6
     560:	02000a05 	andeq	r0, r0, #20480	; 0x5000
     564:	66030204 	strvs	r0, [r3], -r4, lsl #4
     568:	00050501 	andeq	r0, r5, r1, lsl #10
     56c:	16020402 	strne	r0, [r2], -r2, lsl #8
     570:	02040200 	andeq	r0, r4, #0, 4
     574:	02000106 	andeq	r0, r0, #-2147483647	; 0x80000001
     578:	03060204 	movweq	r0, #25092	; 0x6204
     57c:	10050117 	andne	r0, r5, r7, lsl r1
     580:	02040200 	andeq	r0, r4, #0, 4
     584:	2e690306 	cdpcs	3, 6, cr0, cr9, cr6, {0}
     588:	02040200 	andeq	r0, r4, #0, 4
     58c:	0005052e 	andeq	r0, r5, lr, lsr #10
     590:	03020402 	movweq	r0, #9218	; 0x2402
     594:	02002e17 	andeq	r2, r0, #368	; 0x170
     598:	69060204 	stmdbvs	r6, {r2, r9}
     59c:	02040200 	andeq	r0, r4, #0, 4
     5a0:	00010413 	andeq	r0, r1, r3, lsl r4
     5a4:	03020402 	movweq	r0, #9218	; 0x2402
     5a8:	0200011a 	andeq	r0, r0, #-2147483642	; 0x80000006
     5ac:	00010204 	andeq	r0, r1, r4, lsl #4
     5b0:	01020402 	tsteq	r2, r2, lsl #8
     5b4:	02040200 	andeq	r0, r4, #0, 4
     5b8:	04020001 	streq	r0, [r2], #-1
     5bc:	02001302 	andeq	r1, r0, #134217728	; 0x8000000
     5c0:	00010204 	andeq	r0, r1, r4, lsl #4
     5c4:	01020402 	tsteq	r2, r2, lsl #8
     5c8:	02040200 	andeq	r0, r4, #0, 4
     5cc:	04020001 	streq	r0, [r2], #-1
     5d0:	02001902 	andeq	r1, r0, #32768	; 0x8000
     5d4:	00130204 	andseq	r0, r3, r4, lsl #4
     5d8:	01020402 	tsteq	r2, r2, lsl #8
     5dc:	02040200 	andeq	r0, r4, #0, 4
     5e0:	04020001 	streq	r0, [r2], #-1
     5e4:	02000102 	andeq	r0, r0, #-2147483648	; 0x80000000
     5e8:	00130204 	andseq	r0, r3, r4, lsl #4
     5ec:	01020402 	tsteq	r2, r2, lsl #8
     5f0:	02040200 	andeq	r0, r4, #0, 4
     5f4:	00015903 	andeq	r5, r1, r3, lsl #18
     5f8:	14020402 	strne	r0, [r2], #-1026	; 0xfffffbfe
     5fc:	02040200 	andeq	r0, r4, #0, 4
     600:	04020001 	streq	r0, [r2], #-1
     604:	02000102 	andeq	r0, r0, #-2147483648	; 0x80000000
     608:	00010204 	andeq	r0, r1, r4, lsl #4
     60c:	13020402 	movwne	r0, #9218	; 0x2402
     610:	02040200 	andeq	r0, r4, #0, 4
     614:	00012403 	andeq	r2, r1, r3, lsl #8
     618:	01020402 	tsteq	r2, r2, lsl #8
     61c:	02040200 	andeq	r0, r4, #0, 4
     620:	04020014 	streq	r0, [r2], #-20	; 0xffffffec
     624:	01680302 	cmneq	r8, r2, lsl #6
     628:	02040200 	andeq	r0, r4, #0, 4
     62c:	04020001 	streq	r0, [r2], #-1
     630:	02000102 	andeq	r0, r0, #-2147483648	; 0x80000000
     634:	00010204 	andeq	r0, r1, r4, lsl #4
     638:	13020402 	movwne	r0, #9218	; 0x2402
     63c:	02040200 	andeq	r0, r4, #0, 4
     640:	04020001 	streq	r0, [r2], #-1
     644:	02000102 	andeq	r0, r0, #-2147483648	; 0x80000000
     648:	00010204 	andeq	r0, r1, r4, lsl #4
     64c:	14020402 	strne	r0, [r2], #-1026	; 0xfffffbfe
     650:	02040200 	andeq	r0, r4, #0, 4
     654:	00016c03 	andeq	r6, r1, r3, lsl #24
     658:	14020402 	strne	r0, [r2], #-1026	; 0xfffffbfe
     65c:	02040200 	andeq	r0, r4, #0, 4
     660:	04020001 	streq	r0, [r2], #-1
     664:	02000102 	andeq	r0, r0, #-2147483648	; 0x80000000
     668:	00010204 	andeq	r0, r1, r4, lsl #4
     66c:	13020402 	movwne	r0, #9218	; 0x2402
     670:	02040200 	andeq	r0, r4, #0, 4
     674:	04011403 	streq	r1, [r1], #-1027	; 0xfffffbfd
     678:	04020002 	streq	r0, [r2], #-2
     67c:	016d0302 	cmneq	sp, r2, lsl #6
     680:	02000104 	andeq	r0, r0, #1
     684:	19030204 	stmdbne	r3, {r2, r9}
     688:	04020001 	streq	r0, [r2], #-1
     68c:	02000102 	andeq	r0, r0, #-2147483648	; 0x80000000
     690:	00010204 	andeq	r0, r1, r4, lsl #4
     694:	01020402 	tsteq	r2, r2, lsl #8
     698:	02040200 	andeq	r0, r4, #0, 4
     69c:	04020013 	streq	r0, [r2], #-19	; 0xffffffed
     6a0:	02000102 	andeq	r0, r0, #-2147483648	; 0x80000000
     6a4:	00010204 	andeq	r0, r1, r4, lsl #4
     6a8:	01020402 	tsteq	r2, r2, lsl #8
     6ac:	02040200 	andeq	r0, r4, #0, 4
     6b0:	04020019 	streq	r0, [r2], #-25	; 0xffffffe7
     6b4:	02001302 	andeq	r1, r0, #134217728	; 0x8000000
     6b8:	00010204 	andeq	r0, r1, r4, lsl #4
     6bc:	01020402 	tsteq	r2, r2, lsl #8
     6c0:	02040200 	andeq	r0, r4, #0, 4
     6c4:	04020001 	streq	r0, [r2], #-1
     6c8:	02001302 	andeq	r1, r0, #134217728	; 0x8000000
     6cc:	00010204 	andeq	r0, r1, r4, lsl #4
     6d0:	03020402 	movweq	r0, #9218	; 0x2402
     6d4:	02000159 	andeq	r0, r0, #1073741846	; 0x40000016
     6d8:	00140204 	andseq	r0, r4, r4, lsl #4
     6dc:	01020402 	tsteq	r2, r2, lsl #8
     6e0:	02040200 	andeq	r0, r4, #0, 4
     6e4:	04020001 	streq	r0, [r2], #-1
     6e8:	02000102 	andeq	r0, r0, #-2147483648	; 0x80000000
     6ec:	00130204 	andseq	r0, r3, r4, lsl #4
     6f0:	03020402 	movweq	r0, #9218	; 0x2402
     6f4:	02000124 	andeq	r0, r0, #9
     6f8:	00010204 	andeq	r0, r1, r4, lsl #4
     6fc:	14020402 	strne	r0, [r2], #-1026	; 0xfffffbfe
     700:	02040200 	andeq	r0, r4, #0, 4
     704:	00016803 	andeq	r6, r1, r3, lsl #16
     708:	01020402 	tsteq	r2, r2, lsl #8
     70c:	02040200 	andeq	r0, r4, #0, 4
     710:	04020001 	streq	r0, [r2], #-1
     714:	02000102 	andeq	r0, r0, #-2147483648	; 0x80000000
     718:	00130204 	andseq	r0, r3, r4, lsl #4
     71c:	01020402 	tsteq	r2, r2, lsl #8
     720:	02040200 	andeq	r0, r4, #0, 4
     724:	04020001 	streq	r0, [r2], #-1
     728:	02000102 	andeq	r0, r0, #-2147483648	; 0x80000000
     72c:	00140204 	andseq	r0, r4, r4, lsl #4
     730:	03020402 	movweq	r0, #9218	; 0x2402
     734:	0200016c 	andeq	r0, r0, #27
     738:	00140204 	andseq	r0, r4, r4, lsl #4
     73c:	01020402 	tsteq	r2, r2, lsl #8
     740:	02040200 	andeq	r0, r4, #0, 4
     744:	04020001 	streq	r0, [r2], #-1
     748:	02000102 	andeq	r0, r0, #-2147483648	; 0x80000000
     74c:	00130204 	andseq	r0, r3, r4, lsl #4
     750:	03020402 	movweq	r0, #9218	; 0x2402
     754:	02040114 	andeq	r0, r4, #5
     758:	02040200 	andeq	r0, r4, #0, 4
     75c:	00016e03 	andeq	r6, r1, r3, lsl #28
     760:	03020402 	movweq	r0, #9218	; 0x2402
     764:	02000163 	andeq	r0, r0, #-1073741800	; 0xc0000018
     768:	1e030204 	cdpne	2, 0, cr0, cr3, cr4, {0}
     76c:	04020001 	streq	r0, [r2], #-1
     770:	0b056902 	bleq	15ab80 <__bss_end__+0x150b78>
     774:	02040200 	andeq	r0, r4, #0, 4
     778:	05050106 	streq	r0, [r5, #-262]	; 0xfffffefa
     77c:	02040200 	andeq	r0, r4, #0, 4
     780:	01044b06 	tsteq	r4, r6, lsl #22
     784:	02040200 	andeq	r0, r4, #0, 4
     788:	00015403 	andeq	r5, r1, r3, lsl #8
     78c:	01020402 	tsteq	r2, r2, lsl #8
     790:	02040200 	andeq	r0, r4, #0, 4
     794:	04020001 	streq	r0, [r2], #-1
     798:	02000102 	andeq	r0, r0, #-2147483648	; 0x80000000
     79c:	04130204 	ldreq	r0, [r3], #-516	; 0xfffffdfc
     7a0:	04020002 	streq	r0, [r2], #-2
     7a4:	012c0302 			; <UNDEFINED> instruction: 0x012c0302
     7a8:	02000a05 	andeq	r0, r0, #20480	; 0x5000
     7ac:	59030204 	stmdbpl	r3, {r2, r9}
     7b0:	00050501 	andeq	r0, r5, r1, lsl #10
     7b4:	16020402 	strne	r0, [r2], -r2, lsl #8
     7b8:	02040200 	andeq	r0, r4, #0, 4
     7bc:	02000106 	andeq	r0, r0, #-2147483647	; 0x80000001
     7c0:	03060204 	movweq	r0, #25092	; 0x6204
     7c4:	02000124 	andeq	r0, r0, #9
     7c8:	66060204 	strvs	r0, [r6], -r4, lsl #4
     7cc:	02040200 	andeq	r0, r4, #0, 4
     7d0:	02003006 	andeq	r3, r0, #6, 0
     7d4:	05320204 	ldreq	r0, [r2, #-516]!	; 0xfffffdfc
     7d8:	0402000b 	streq	r0, [r2], #-11
     7dc:	05010602 	streq	r0, [r1, #-1538]	; 0xfffff9fe
     7e0:	04020005 	streq	r0, [r2], #-5
     7e4:	044b0602 	strbeq	r0, [fp], #-1538	; 0xfffff9fe
     7e8:	04020001 	streq	r0, [r2], #-1
     7ec:	010a0302 	tsteq	sl, r2, lsl #6
     7f0:	02040200 	andeq	r0, r4, #0, 4
     7f4:	04020001 	streq	r0, [r2], #-1
     7f8:	02000102 	andeq	r0, r0, #-2147483648	; 0x80000000
     7fc:	00010204 	andeq	r0, r1, r4, lsl #4
     800:	13020402 	movwne	r0, #9218	; 0x2402
     804:	02040200 	andeq	r0, r4, #0, 4
     808:	04020001 	streq	r0, [r2], #-1
     80c:	02000102 	andeq	r0, r0, #-2147483648	; 0x80000000
     810:	00010204 	andeq	r0, r1, r4, lsl #4
     814:	19020402 	stmdbne	r2, {r1, sl}
     818:	02040200 	andeq	r0, r4, #0, 4
     81c:	04020013 	streq	r0, [r2], #-19	; 0xffffffed
     820:	02000102 	andeq	r0, r0, #-2147483648	; 0x80000000
     824:	00010204 	andeq	r0, r1, r4, lsl #4
     828:	01020402 	tsteq	r2, r2, lsl #8
     82c:	02040200 	andeq	r0, r4, #0, 4
     830:	04020013 	streq	r0, [r2], #-19	; 0xffffffed
     834:	02000102 	andeq	r0, r0, #-2147483648	; 0x80000000
     838:	59030204 	stmdbpl	r3, {r2, r9}
     83c:	04020001 	streq	r0, [r2], #-1
     840:	02001402 	andeq	r1, r0, #33554432	; 0x2000000
     844:	00010204 	andeq	r0, r1, r4, lsl #4
     848:	01020402 	tsteq	r2, r2, lsl #8
     84c:	02040200 	andeq	r0, r4, #0, 4
     850:	04020001 	streq	r0, [r2], #-1
     854:	02001302 	andeq	r1, r0, #134217728	; 0x8000000
     858:	24030204 	strcs	r0, [r3], #-516	; 0xfffffdfc
     85c:	04020001 	streq	r0, [r2], #-1
     860:	02000102 	andeq	r0, r0, #-2147483648	; 0x80000000
     864:	00140204 	andseq	r0, r4, r4, lsl #4
     868:	03020402 	movweq	r0, #9218	; 0x2402
     86c:	02000168 	andeq	r0, r0, #26
     870:	00010204 	andeq	r0, r1, r4, lsl #4
     874:	01020402 	tsteq	r2, r2, lsl #8
     878:	02040200 	andeq	r0, r4, #0, 4
     87c:	04020001 	streq	r0, [r2], #-1
     880:	02001302 	andeq	r1, r0, #134217728	; 0x8000000
     884:	00010204 	andeq	r0, r1, r4, lsl #4
     888:	01020402 	tsteq	r2, r2, lsl #8
     88c:	02040200 	andeq	r0, r4, #0, 4
     890:	04020001 	streq	r0, [r2], #-1
     894:	02001402 	andeq	r1, r0, #33554432	; 0x2000000
     898:	6c030204 	sfmvs	f0, 4, [r3], {4}
     89c:	04020001 	streq	r0, [r2], #-1
     8a0:	02001402 	andeq	r1, r0, #33554432	; 0x2000000
     8a4:	00010204 	andeq	r0, r1, r4, lsl #4
     8a8:	01020402 	tsteq	r2, r2, lsl #8
     8ac:	02040200 	andeq	r0, r4, #0, 4
     8b0:	04020001 	streq	r0, [r2], #-1
     8b4:	02001302 	andeq	r1, r0, #134217728	; 0x8000000
     8b8:	14030204 	strne	r0, [r3], #-516	; 0xfffffdfc
     8bc:	00020401 	andeq	r0, r2, r1, lsl #8
     8c0:	0f020402 	svceq	0x00020402
     8c4:	01050104 	tsteq	r5, r4, lsl #2
     8c8:	02040200 	andeq	r0, r4, #0, 4
     8cc:	0005051a 	andeq	r0, r5, sl, lsl r5
     8d0:	13020402 	movwne	r0, #9218	; 0x2402
     8d4:	02040200 	andeq	r0, r4, #0, 4
     8d8:	04020001 	streq	r0, [r2], #-1
     8dc:	02000102 	andeq	r0, r0, #-2147483648	; 0x80000000
     8e0:	00010204 	andeq	r0, r1, r4, lsl #4
     8e4:	13020402 	movwne	r0, #9218	; 0x2402
     8e8:	02040200 	andeq	r0, r4, #0, 4
     8ec:	04020001 	streq	r0, [r2], #-1
     8f0:	02000102 	andeq	r0, r0, #-2147483648	; 0x80000000
     8f4:	00010204 	andeq	r0, r1, r4, lsl #4
     8f8:	19020402 	stmdbne	r2, {r1, sl}
     8fc:	02040200 	andeq	r0, r4, #0, 4
     900:	04020013 	streq	r0, [r2], #-19	; 0xffffffed
     904:	02000102 	andeq	r0, r0, #-2147483648	; 0x80000000
     908:	00010204 	andeq	r0, r1, r4, lsl #4
     90c:	01020402 	tsteq	r2, r2, lsl #8
     910:	02040200 	andeq	r0, r4, #0, 4
     914:	04020013 	streq	r0, [r2], #-19	; 0xffffffed
     918:	02000102 	andeq	r0, r0, #-2147483648	; 0x80000000
     91c:	01060204 	tsteq	r6, r4, lsl #4
     920:	02040200 	andeq	r0, r4, #0, 4
     924:	01590306 	cmpeq	r9, r6, lsl #6
     928:	02040200 	andeq	r0, r4, #0, 4
     92c:	04020014 	streq	r0, [r2], #-20	; 0xffffffec
     930:	02000102 	andeq	r0, r0, #-2147483648	; 0x80000000
     934:	00010204 	andeq	r0, r1, r4, lsl #4
     938:	01020402 	tsteq	r2, r2, lsl #8
     93c:	02040200 	andeq	r0, r4, #0, 4
     940:	04020013 	streq	r0, [r2], #-19	; 0xffffffed
     944:	01240302 			; <UNDEFINED> instruction: 0x01240302
     948:	02040200 	andeq	r0, r4, #0, 4
     94c:	04020001 	streq	r0, [r2], #-1
     950:	02001402 	andeq	r1, r0, #33554432	; 0x2000000
     954:	01060204 	tsteq	r6, r4, lsl #4
     958:	02040200 	andeq	r0, r4, #0, 4
     95c:	01680306 	cmneq	r8, r6, lsl #6
     960:	02040200 	andeq	r0, r4, #0, 4
     964:	04020001 	streq	r0, [r2], #-1
     968:	02000102 	andeq	r0, r0, #-2147483648	; 0x80000000
     96c:	00010204 	andeq	r0, r1, r4, lsl #4
     970:	13020402 	movwne	r0, #9218	; 0x2402
     974:	02040200 	andeq	r0, r4, #0, 4
     978:	04020001 	streq	r0, [r2], #-1
     97c:	02000102 	andeq	r0, r0, #-2147483648	; 0x80000000
     980:	00010204 	andeq	r0, r1, r4, lsl #4
     984:	14020402 	strne	r0, [r2], #-1026	; 0xfffffbfe
     988:	02040200 	andeq	r0, r4, #0, 4
     98c:	00016c03 	andeq	r6, r1, r3, lsl #24
     990:	14020402 	strne	r0, [r2], #-1026	; 0xfffffbfe
     994:	02040200 	andeq	r0, r4, #0, 4
     998:	04020001 	streq	r0, [r2], #-1
     99c:	02000102 	andeq	r0, r0, #-2147483648	; 0x80000000
     9a0:	00010204 	andeq	r0, r1, r4, lsl #4
     9a4:	13020402 	movwne	r0, #9218	; 0x2402
     9a8:	02040200 	andeq	r0, r4, #0, 4
     9ac:	04011403 	streq	r1, [r1], #-1027	; 0xfffffbfd
     9b0:	04020002 	streq	r0, [r2], #-2
     9b4:	01041002 	tsteq	r4, r2
     9b8:	02002005 	andeq	r2, r0, #5, 0
     9bc:	03060204 	movweq	r0, #25092	; 0x6204
     9c0:	02040114 	andeq	r0, r4, #5
     9c4:	02000505 	andeq	r0, r0, #20971520	; 0x1400000
     9c8:	6c030204 	sfmvs	f0, 4, [r3], {4}
     9cc:	0402004a 	streq	r0, [r2], #-74	; 0xffffffb6
     9d0:	02006602 	andeq	r6, r0, #2097152	; 0x200000
     9d4:	30060204 	andcc	r0, r6, r4, lsl #4
     9d8:	02000b05 	andeq	r0, r0, #5120	; 0x1400
     9dc:	01060204 	tsteq	r6, r4, lsl #4
     9e0:	02000505 	andeq	r0, r0, #20971520	; 0x1400000
     9e4:	4b060204 	blmi	1811fc <__bss_end__+0x1771f4>
     9e8:	02000104 	andeq	r0, r0, #1
     9ec:	46030204 	strmi	r0, [r3], -r4, lsl #4
     9f0:	04020001 	streq	r0, [r2], #-1
     9f4:	02000102 	andeq	r0, r0, #-2147483648	; 0x80000000
     9f8:	00010204 	andeq	r0, r1, r4, lsl #4
     9fc:	01020402 	tsteq	r2, r2, lsl #8
     a00:	02040200 	andeq	r0, r4, #0, 4
     a04:	00020413 	andeq	r0, r2, r3, lsl r4
     a08:	03020402 	movweq	r0, #9218	; 0x2402
     a0c:	0104013a 	tsteq	r4, sl, lsr r1
     a10:	02040200 	andeq	r0, r4, #0, 4
     a14:	04020016 	streq	r0, [r2], #-22	; 0xffffffea
     a18:	02000102 	andeq	r0, r0, #-2147483648	; 0x80000000
     a1c:	00010204 	andeq	r0, r1, r4, lsl #4
     a20:	01020402 	tsteq	r2, r2, lsl #8
     a24:	02040200 	andeq	r0, r4, #0, 4
     a28:	04020013 	streq	r0, [r2], #-19	; 0xffffffed
     a2c:	02000102 	andeq	r0, r0, #-2147483648	; 0x80000000
     a30:	00010204 	andeq	r0, r1, r4, lsl #4
     a34:	01020402 	tsteq	r2, r2, lsl #8
     a38:	02040200 	andeq	r0, r4, #0, 4
     a3c:	04020019 	streq	r0, [r2], #-25	; 0xffffffe7
     a40:	02001302 	andeq	r1, r0, #134217728	; 0x8000000
     a44:	00010204 	andeq	r0, r1, r4, lsl #4
     a48:	01020402 	tsteq	r2, r2, lsl #8
     a4c:	02040200 	andeq	r0, r4, #0, 4
     a50:	04020001 	streq	r0, [r2], #-1
     a54:	02001302 	andeq	r1, r0, #134217728	; 0x8000000
     a58:	00010204 	andeq	r0, r1, r4, lsl #4
     a5c:	03020402 	movweq	r0, #9218	; 0x2402
     a60:	02000159 	andeq	r0, r0, #1073741846	; 0x40000016
     a64:	00140204 	andseq	r0, r4, r4, lsl #4
     a68:	01020402 	tsteq	r2, r2, lsl #8
     a6c:	02040200 	andeq	r0, r4, #0, 4
     a70:	04020001 	streq	r0, [r2], #-1
     a74:	02000102 	andeq	r0, r0, #-2147483648	; 0x80000000
     a78:	00130204 	andseq	r0, r3, r4, lsl #4
     a7c:	03020402 	movweq	r0, #9218	; 0x2402
     a80:	02000124 	andeq	r0, r0, #9
     a84:	00010204 	andeq	r0, r1, r4, lsl #4
     a88:	14020402 	strne	r0, [r2], #-1026	; 0xfffffbfe
     a8c:	02040200 	andeq	r0, r4, #0, 4
     a90:	00016803 	andeq	r6, r1, r3, lsl #16
     a94:	01020402 	tsteq	r2, r2, lsl #8
     a98:	02040200 	andeq	r0, r4, #0, 4
     a9c:	04020001 	streq	r0, [r2], #-1
     aa0:	02000102 	andeq	r0, r0, #-2147483648	; 0x80000000
     aa4:	00130204 	andseq	r0, r3, r4, lsl #4
     aa8:	01020402 	tsteq	r2, r2, lsl #8
     aac:	02040200 	andeq	r0, r4, #0, 4
     ab0:	04020001 	streq	r0, [r2], #-1
     ab4:	02000102 	andeq	r0, r0, #-2147483648	; 0x80000000
     ab8:	00140204 	andseq	r0, r4, r4, lsl #4
     abc:	03020402 	movweq	r0, #9218	; 0x2402
     ac0:	0200016c 	andeq	r0, r0, #27
     ac4:	00140204 	andseq	r0, r4, r4, lsl #4
     ac8:	01020402 	tsteq	r2, r2, lsl #8
     acc:	02040200 	andeq	r0, r4, #0, 4
     ad0:	04020001 	streq	r0, [r2], #-1
     ad4:	02000102 	andeq	r0, r0, #-2147483648	; 0x80000000
     ad8:	00130204 	andseq	r0, r3, r4, lsl #4
     adc:	03020402 	movweq	r0, #9218	; 0x2402
     ae0:	02040114 	andeq	r0, r4, #5
     ae4:	02040200 	andeq	r0, r4, #0, 4
     ae8:	05010415 	streq	r0, [r1, #-1045]	; 0xfffffbeb
     aec:	04020001 	streq	r0, [r2], #-1
     af0:	01430302 	cmpeq	r3, r2, lsl #6
     af4:	02000505 	andeq	r0, r0, #20971520	; 0x1400000
     af8:	00130204 	andseq	r0, r3, r4, lsl #4
     afc:	01020402 	tsteq	r2, r2, lsl #8
     b00:	02040200 	andeq	r0, r4, #0, 4
     b04:	04020001 	streq	r0, [r2], #-1
     b08:	02000102 	andeq	r0, r0, #-2147483648	; 0x80000000
     b0c:	00130204 	andseq	r0, r3, r4, lsl #4
     b10:	06020402 	streq	r0, [r2], -r2, lsl #8
     b14:	00020401 	andeq	r0, r2, r1, lsl #8
     b18:	06020402 	streq	r0, [r2], -r2, lsl #8
     b1c:	0100c003 	tsteq	r0, r3
     b20:	0e050104 	adfeqs	f0, f5, f4
     b24:	02040200 	andeq	r0, r4, #0, 4
     b28:	01400306 	cmpeq	r0, r6, lsl #6
     b2c:	05050204 	streq	r0, [r5, #-516]	; 0xfffffdfc
     b30:	02040200 	andeq	r0, r4, #0, 4
     b34:	2e00c003 	cdpcs	0, 0, cr12, cr0, cr3, {0}
     b38:	02040200 	andeq	r0, r4, #0, 4
     b3c:	04020066 	streq	r0, [r2], #-102	; 0xffffff9a
     b40:	05300602 	ldreq	r0, [r0, #-1538]!	; 0xfffff9fe
     b44:	0402000b 	streq	r0, [r2], #-11
     b48:	05010602 	streq	r0, [r1, #-1538]	; 0xfffff9fe
     b4c:	04020005 	streq	r0, [r2], #-5
     b50:	044b0602 	strbeq	r0, [fp], #-1538	; 0xfffff9fe
     b54:	04020001 	streq	r0, [r2], #-1
     b58:	7fbc0302 	svcvc	0x00bc0302
     b5c:	04020001 	streq	r0, [r2], #-1
     b60:	02000102 	andeq	r0, r0, #-2147483648	; 0x80000000
     b64:	00010204 	andeq	r0, r1, r4, lsl #4
     b68:	01020402 	tsteq	r2, r2, lsl #8
     b6c:	02040200 	andeq	r0, r4, #0, 4
     b70:	00020413 	andeq	r0, r2, r3, lsl r4
     b74:	03020402 	movweq	r0, #9218	; 0x2402
     b78:	040100c4 	streq	r0, [r1], #-196	; 0xffffff3c
     b7c:	04020001 	streq	r0, [r2], #-1
     b80:	7fbb0302 	svcvc	0x00bb0302
     b84:	04020001 	streq	r0, [r2], #-1
     b88:	02000102 	andeq	r0, r0, #-2147483648	; 0x80000000
     b8c:	00010204 	andeq	r0, r1, r4, lsl #4
     b90:	01020402 	tsteq	r2, r2, lsl #8
     b94:	02040200 	andeq	r0, r4, #0, 4
     b98:	00020413 	andeq	r0, r2, r3, lsl r4
     b9c:	03020402 	movweq	r0, #9218	; 0x2402
     ba0:	040100c5 	streq	r0, [r1], #-197	; 0xffffff3b
     ba4:	04020001 	streq	r0, [r2], #-1
     ba8:	7fba0302 	svcvc	0x00ba0302
     bac:	04020001 	streq	r0, [r2], #-1
     bb0:	02000102 	andeq	r0, r0, #-2147483648	; 0x80000000
     bb4:	00010204 	andeq	r0, r1, r4, lsl #4
     bb8:	01020402 	tsteq	r2, r2, lsl #8
     bbc:	02040200 	andeq	r0, r4, #0, 4
     bc0:	00020413 	andeq	r0, r2, r3, lsl r4
     bc4:	03020402 	movweq	r0, #9218	; 0x2402
     bc8:	040100c6 	streq	r0, [r1], #-198	; 0xffffff3a
     bcc:	04020001 	streq	r0, [r2], #-1
     bd0:	7fb90302 	svcvc	0x00b90302
     bd4:	04020001 	streq	r0, [r2], #-1
     bd8:	02000102 	andeq	r0, r0, #-2147483648	; 0x80000000
     bdc:	00010204 	andeq	r0, r1, r4, lsl #4
     be0:	01020402 	tsteq	r2, r2, lsl #8
     be4:	02040200 	andeq	r0, r4, #0, 4
     be8:	00020413 	andeq	r0, r2, r3, lsl r4
     bec:	03020402 	movweq	r0, #9218	; 0x2402
     bf0:	040100c7 	streq	r0, [r1], #-199	; 0xffffff39
     bf4:	00010501 	andeq	r0, r1, r1, lsl #10
     bf8:	03020402 	movweq	r0, #9218	; 0x2402
     bfc:	05017fb7 	streq	r7, [r1, #-4023]	; 0xfffff049
     c00:	04020005 	streq	r0, [r2], #-5
     c04:	02001302 	andeq	r1, r0, #134217728	; 0x8000000
     c08:	00010204 	andeq	r0, r1, r4, lsl #4
     c0c:	01020402 	tsteq	r2, r2, lsl #8
     c10:	02040200 	andeq	r0, r4, #0, 4
     c14:	04020001 	streq	r0, [r2], #-1
     c18:	02001302 	andeq	r1, r0, #134217728	; 0x8000000
     c1c:	01060204 	tsteq	r6, r4, lsl #4
     c20:	02000204 	andeq	r0, r0, #4, 4	; 0x40000000
     c24:	03060204 	movweq	r0, #25092	; 0x6204
     c28:	000100c8 	andeq	r0, r1, r8, asr #1
     c2c:	06020402 	streq	r0, [r2], -r2, lsl #8
     c30:	04020066 	streq	r0, [r2], #-102	; 0xffffff9a
     c34:	05300602 	ldreq	r0, [r0, #-1538]!	; 0xfffff9fe
     c38:	04020016 	streq	r0, [r2], #-22	; 0xffffffea
     c3c:	05010602 	streq	r0, [r1, #-1538]	; 0xfffff9fe
     c40:	04020030 	streq	r0, [r2], #-48	; 0xffffffd0
     c44:	052e0601 	streq	r0, [lr, #-1537]!	; 0xfffff9ff
     c48:	0402000a 	streq	r0, [r2], #-10
     c4c:	16050101 	strne	r0, [r5], -r1, lsl #2
     c50:	01040200 	mrseq	r0, R12_usr
     c54:	01040106 	tsteq	r4, r6, lsl #2
     c58:	02000105 	andeq	r0, r0, #1073741825	; 0x40000001
     c5c:	03060104 	movweq	r0, #24836	; 0x6104
     c60:	05054a49 	streq	r4, [r5, #-2633]	; 0xfffff5b7
     c64:	01040200 	mrseq	r0, R12_usr
     c68:	00010513 	andeq	r0, r1, r3, lsl r5
     c6c:	03010402 	movweq	r0, #5122	; 0x1402
     c70:	0505017a 	streq	r0, [r5, #-378]	; 0xfffffe86
     c74:	01040200 	mrseq	r0, R12_usr
     c78:	04020013 	streq	r0, [r2], #-19	; 0xffffffed
     c7c:	02000101 	andeq	r0, r0, #1073741824	; 0x40000000
     c80:	00010104 	andeq	r0, r1, r4, lsl #2
     c84:	01010402 	tsteq	r1, r2, lsl #8
     c88:	01040200 	mrseq	r0, R12_usr
     c8c:	04020013 	streq	r0, [r2], #-19	; 0xffffffed
     c90:	04010601 	streq	r0, [r1], #-1537	; 0xfffff9ff
     c94:	000a0502 	andeq	r0, sl, r2, lsl #10
     c98:	03010402 	movweq	r0, #5122	; 0x1402
     c9c:	0505013a 	streq	r0, [r5, #-314]	; 0xfffffec6
     ca0:	01054c06 	tsteq	r5, r6, lsl #24
     ca4:	05051906 	streq	r1, [r5, #-2310]	; 0xfffff6fa
     ca8:	004a7903 	subeq	r7, sl, r3, lsl #18
     cac:	06010402 	streq	r0, [r1], -r2, lsl #8
     cb0:	002e4103 	eoreq	r4, lr, r3, lsl #2
     cb4:	01010402 	tsteq	r1, r2, lsl #8
     cb8:	01040200 	mrseq	r0, R12_usr
     cbc:	031f05d6 	tsteq	pc, #897581056	; 0x35800000
     cc0:	740800c8 	strvc	r0, [r8], #-200	; 0xffffff38
     cc4:	05130505 	ldreq	r0, [r3, #-1285]	; 0xfffffafb
     cc8:	0511061f 	ldreq	r0, [r1, #-1567]	; 0xfffff9e1
     ccc:	2f062f05 	svccs	0x00062f05
     cd0:	061a0514 			; <UNDEFINED> instruction: 0x061a0514
     cd4:	00730501 	rsbseq	r0, r3, r1, lsl #10
     cd8:	06010402 	streq	r0, [r1], -r2, lsl #8
     cdc:	000a052e 	andeq	r0, sl, lr, lsr #10
     ce0:	01010402 	tsteq	r1, r2, lsl #8
     ce4:	02001a05 	andeq	r1, r0, #20480	; 0x5000
     ce8:	01060104 	tsteq	r6, r4, lsl #2
     cec:	05050104 	streq	r0, [r5, #-260]	; 0xfffffefc
     cf0:	01040200 	mrseq	r0, R12_usr
     cf4:	7fb60306 	svcvc	0x00b60306
     cf8:	0402004a 	streq	r0, [r2], #-74	; 0xffffffb6
     cfc:	02000101 	andeq	r0, r0, #1073741824	; 0x40000000
     d00:	00010104 	andeq	r0, r1, r4, lsl #2
     d04:	01010402 	tsteq	r1, r2, lsl #8
     d08:	01040200 	mrseq	r0, R12_usr
     d0c:	05020413 	streq	r0, [r2, #-1043]	; 0xfffffbed
     d10:	0402000a 	streq	r0, [r2], #-10
     d14:	c9030601 	stmdbgt	r3, {r0, r9, sl}
     d18:	05050100 	streq	r0, [r5, #-256]	; 0xffffff00
     d1c:	01055006 	tsteq	r5, r6
     d20:	0c051306 	stceq	3, cr1, [r5], {6}
     d24:	06022e2d 	streq	r2, [r2], -sp, lsr #28
     d28:	31010100 	mrscc	r0, (UNDEF: 17)
     d2c:	03000005 	movweq	r0, #5
     d30:	0000fe00 	andeq	pc, r0, r0, lsl #28
     d34:	fb010200 	blx	4153e <__bss_end__+0x37536>
     d38:	01000d0e 	tsteq	r0, lr, lsl #26
     d3c:	00010101 	andeq	r0, r1, r1, lsl #2
     d40:	00010000 	andeq	r0, r1, r0
     d44:	6f2f0100 	svcvs	0x002f0100
     d48:	682f7470 	stmdavs	pc!, {r4, r5, r6, sl, ip, sp, lr}	; <UNPREDICTABLE>
     d4c:	62656d6f 	rsbvs	r6, r5, #7104	; 0x1bc0
     d50:	2f776572 	svccs	0x00776572
     d54:	6c6c6543 	cfstr64vs	mvdx6, [ip], #-268	; 0xfffffef4
     d58:	612f7261 			; <UNDEFINED> instruction: 0x612f7261
     d5c:	6e2d6d72 	mcrvs	13, 1, r6, cr13, cr2, {3}
     d60:	2d656e6f 	stclcs	14, cr6, [r5, #-444]!	; 0xfffffe44
     d64:	69626165 	stmdbvs	r2!, {r0, r2, r5, r6, r8, sp, lr}^
     d68:	7365742d 	cmnvc	r5, #754974720	; 0x2d000000
     d6c:	2d392f74 	ldccs	15, cr2, [r9, #-464]!	; 0xfffffe30
     d70:	39313032 	ldmdbcc	r1!, {r1, r4, r5, ip, sp}
     d74:	632d3471 			; <UNDEFINED> instruction: 0x632d3471
     d78:	37303173 			; <UNDEFINED> instruction: 0x37303173
     d7c:	696c2f65 	stmdbvs	ip!, {r0, r2, r5, r6, r8, r9, sl, fp, sp}^
     d80:	63672f62 	cmnvs	r7, #392	; 0x188
     d84:	72612f63 	rsbvc	r2, r1, #396	; 0x18c
     d88:	6f6e2d6d 	svcvs	0x006e2d6d
     d8c:	652d656e 	strvs	r6, [sp, #-1390]!	; 0xfffffa92
     d90:	2f696261 	svccs	0x00696261
     d94:	2e322e39 	mrccs	14, 1, r2, cr2, cr9, {1}
     d98:	6e692f31 	mcrvs	15, 3, r2, cr9, cr1, {1}
     d9c:	64756c63 	ldrbtvs	r6, [r5], #-3171	; 0xfffff39d
     da0:	552f0065 	strpl	r0, [pc, #-101]!	; d43 <__code_start__-0x72bd>
     da4:	73726573 	cmnvc	r2, #482344960	; 0x1cc00000
     da8:	74616b2f 	strbtvc	r6, [r1], #-2863	; 0xfffff4d1
     dac:	65736565 	ldrbvs	r6, [r3, #-1381]!	; 0xfffffa9b
     db0:	7375696c 	cmnvc	r5, #108, 18	; 0x1b0000
     db4:	636f442f 	cmnvs	pc, #788529152	; 0x2f000000
     db8:	6e656d75 	mcrvs	13, 3, r6, cr5, cr5, {3}
     dbc:	432f7374 			; <UNDEFINED> instruction: 0x432f7374
     dc0:	30343153 	eorscc	r3, r4, r3, asr r1
     dc4:	73632f45 	cmnvc	r3, #276	; 0x114
     dc8:	45303431 	ldrmi	r3, [r0, #-1073]!	; 0xfffffbcf
     dcc:	6e69662d 	cdpvs	6, 6, cr6, cr9, cr13, {1}
     dd0:	702d6c61 	eorvc	r6, sp, r1, ror #24
     dd4:	656a6f72 	strbvs	r6, [sl, #-3954]!	; 0xfffff08e
     dd8:	6c2f7463 	cfstrsvs	mvf7, [pc], #-396	; c54 <__code_start__-0x73ac>
     ddc:	2d736269 	lfmcs	f6, 2, [r3, #-420]!	; 0xfffffe5c
     de0:	6c303432 	cfldrsvs	mvf3, [r0], #-200	; 0xffffff38
     de4:	696c2f78 	stmdbvs	ip!, {r3, r4, r5, r6, r8, r9, sl, fp, sp}^
     de8:	2f697062 	svccs	0x00697062
     dec:	6c636e69 	stclvs	14, cr6, [r3], #-420	; 0xfffffe5c
     df0:	00656475 	rsbeq	r6, r5, r5, ror r4
     df4:	74666600 	strbtvc	r6, [r6], #-1536	; 0xfffffa00
     df8:	0000632e 	andeq	r6, r0, lr, lsr #6
     dfc:	66660000 	strbtvs	r0, [r6], -r0
     e00:	00682e74 	rsbeq	r2, r8, r4, ror lr
     e04:	73000000 	movwvc	r0, #0
     e08:	6e696474 	mcrvs	4, 3, r6, cr9, cr4, {3}
     e0c:	63672d74 	cmnvs	r7, #116, 26	; 0x1d00
     e10:	00682e63 	rsbeq	r2, r8, r3, ror #28
     e14:	72000001 	andvc	r0, r0, #1, 0
     e18:	682e6970 	stmdavs	lr!, {r4, r5, r6, r8, fp, sp, lr}
     e1c:	00000200 	andeq	r0, r0, r0, lsl #4
     e20:	5f746666 	svcpl	0x00746666
     e24:	656e6973 	strbvs	r6, [lr, #-2419]!	; 0xfffff68d
     e28:	74756c5f 	ldrbtvc	r6, [r5], #-3167	; 0xfffff3a1
     e2c:	0000682e 	andeq	r6, r0, lr, lsr #16
     e30:	05000000 	streq	r0, [r0, #-0]
     e34:	0205005a 	andeq	r0, r5, #90, 0	; 0x5a
     e38:	00008284 	andeq	r8, r0, r4, lsl #5
     e3c:	05010903 	streq	r0, [r1, #-2307]	; 0xfffff6fd
     e40:	14051405 	strne	r1, [r5], #-1029	; 0xfffffbfb
     e44:	5a050106 	bpl	141264 <__bss_end__+0x13725c>
     e48:	3014052c 	andscc	r0, r4, ip, lsr #10
     e4c:	30060505 	andcc	r0, r6, r5, lsl #10
     e50:	0e065a05 	vmlaeq.f32	s10, s12, s10
     e54:	05320805 	ldreq	r0, [r2, #-2053]!	; 0xfffff7fb
     e58:	08052a5a 	stmdaeq	r5, {r1, r3, r4, r6, r9, fp, sp}
     e5c:	06210532 			; <UNDEFINED> instruction: 0x06210532
     e60:	06050536 			; <UNDEFINED> instruction: 0x06050536
     e64:	7f0d0501 	svcvc	0x000d0501
     e68:	4a311305 	bmi	c45a84 <__bss_end__+0xc3ba7c>
     e6c:	0f0d054a 	svceq	0x000d054a
     e70:	02000905 	andeq	r0, r0, #81920	; 0x14000
     e74:	33060104 	movwcc	r0, #24836	; 0x6104
     e78:	02000d05 	andeq	r0, r0, #320	; 0x140
     e7c:	05130104 	ldreq	r0, [r3, #-260]	; 0xfffffefc
     e80:	04020011 	streq	r0, [r2], #-17	; 0xffffffef
     e84:	00010601 	andeq	r0, r1, r1, lsl #12
     e88:	06010402 	streq	r0, [r1], -r2, lsl #8
     e8c:	001b052f 	andseq	r0, fp, pc, lsr #10
     e90:	06010402 	streq	r0, [r1], -r2, lsl #8
     e94:	00090501 	andeq	r0, r9, r1, lsl #10
     e98:	2e010402 	cdpcs	4, 0, cr0, cr1, cr2, {0}
     e9c:	25054c06 	strcs	r4, [r5, #-3078]	; 0xfffff3fa
     ea0:	1e050106 	adfnes	f0, f5, f6
     ea4:	2e2b052e 	cfsh64cs	mvdx0, mvdx11, #30
     ea8:	2f060905 	svccs	0x00060905
     eac:	01060c05 	tsteq	r6, r5, lsl #24
     eb0:	4e060905 	vmlami.f16	s0, s12, s10	; <UNPREDICTABLE>
     eb4:	13061e05 	movwne	r1, #28165	; 0x6e05
     eb8:	2d11052e 	cfldr32cs	mvfx0, [r1, #-184]	; 0xffffff48
     ebc:	2f060905 	svccs	0x00060905
     ec0:	01061805 	tsteq	r6, r5, lsl #16
     ec4:	2f060905 	svccs	0x00060905
     ec8:	01061805 	tsteq	r6, r5, lsl #16
     ecc:	2f060905 	svccs	0x00060905
     ed0:	01061105 	tsteq	r6, r5, lsl #2
     ed4:	2f060905 	svccs	0x00060905
     ed8:	01061e05 	tsteq	r6, r5, lsl #28
     edc:	052e1805 	streq	r1, [lr, #-2053]!	; 0xfffff7fb
     ee0:	052f0609 	streq	r0, [pc, #-1545]!	; 8df <__code_start__-0x7721>
     ee4:	2e010618 	mcrcs	6, 0, r0, cr1, cr8, {0}
     ee8:	02002f05 	andeq	r2, r0, #5, 30
     eec:	03060204 	movweq	r0, #25092	; 0x6204
     ef0:	37050170 	smlsdxcc	r5, r0, r1, r0
     ef4:	02040200 	andeq	r0, r4, #0, 4
     ef8:	21050106 	tstcs	r5, r6, lsl #2
     efc:	02040200 	andeq	r0, r4, #0, 4
     f00:	05052e06 	streq	r2, [r5, #-3590]	; 0xfffff1fa
     f04:	02040200 	andeq	r0, r4, #0, 4
     f08:	02000106 	andeq	r0, r0, #-2147483647	; 0x80000001
     f0c:	20080204 	andcs	r0, r8, r4, lsl #4
     f10:	03060905 	movweq	r0, #26885	; 0x6905
     f14:	03130116 	tsteq	r3, #-2147483643	; 0x80000005
     f18:	17050115 	smladne	r5, r5, r1, r0
     f1c:	1205bb06 	andne	fp, r5, #6144	; 0x1800
     f20:	06090549 	streq	r0, [r9], -r9, asr #10
     f24:	010e054b 	tsteq	lr, fp, asr #10
     f28:	06012105 	streq	r2, [r1], -r5, lsl #2
     f2c:	060d0501 	streq	r0, [sp], -r1, lsl #10
     f30:	061e052f 	ldreq	r0, [lr], -pc, lsr #10
     f34:	50100501 	andspl	r0, r0, r1, lsl #10
     f38:	7a031e05 	bvc	c8754 <__bss_end__+0xbe74c>
     f3c:	060d052e 	streq	r0, [sp], -lr, lsr #10
     f40:	06150530 			; <UNDEFINED> instruction: 0x06150530
     f44:	32100501 	andscc	r0, r0, #4194304	; 0x400000
     f48:	052a1505 	streq	r1, [sl, #-1285]!	; 0xfffffafb
     f4c:	15054b2e 	strne	r4, [r5, #-2862]	; 0xfffff4d2
     f50:	060d052d 	streq	r0, [sp], -sp, lsr #10
     f54:	062e052f 	strteq	r0, [lr], -pc, lsr #10
     f58:	060d0501 	streq	r0, [sp], -r1, lsl #10
     f5c:	06100531 			; <UNDEFINED> instruction: 0x06100531
     f60:	2b150501 	blcs	54236c <__bss_end__+0x538364>
     f64:	6d060d05 	stcvs	13, cr0, [r6, #-20]	; 0xffffffec
     f68:	05131105 	ldreq	r1, [r3, #-261]	; 0xfffffefb
     f6c:	2d13061b 	ldccs	6, cr0, [r3, #-108]	; 0xffffff94
     f70:	11052d2f 	tstne	r5, pc, lsr #26
     f74:	0d052f06 	stceq	15, cr2, [r5, #-24]	; 0xffffffe8
     f78:	01120514 	tsteq	r2, r4, lsl r5
     f7c:	06012505 	streq	r2, [r1], -r5, lsl #10
     f80:	06110501 	ldreq	r0, [r1], -r1, lsl #10
     f84:	2505134b 	strcs	r1, [r5, #-843]	; 0xfffffcb5
     f88:	02040106 	andeq	r0, r4, #-2147483647	; 0x80000001
     f8c:	03061005 	movweq	r1, #24581	; 0x6005
     f90:	05052e56 	streq	r2, [r5, #-3670]	; 0xfffff1aa
     f94:	03100513 	tsteq	r0, #79691776	; 0x4c00000
     f98:	0505015e 	streq	r0, [r5, #-350]	; 0xfffffea2
     f9c:	13010a03 	movwne	r0, #6659	; 0x1a03
     fa0:	06010630 			; <UNDEFINED> instruction: 0x06010630
     fa4:	13011703 	movwne	r1, #5891	; 0x1703
     fa8:	11061805 	tstne	r6, r5, lsl #16
     fac:	052e0d05 	streq	r0, [lr, #-3333]!	; 0xfffff2fb
     fb0:	042e2f16 	strteq	r2, [lr], #-3862	; 0xfffff0ea
     fb4:	034d0501 	movteq	r0, #54529	; 0xd501
     fb8:	02040126 	andeq	r0, r4, #-2147483639	; 0x80000009
     fbc:	5a031605 	bpl	c67d8 <__bss_end__+0xbc7d0>
     fc0:	10052e2e 	andne	r2, r5, lr, lsr #28
     fc4:	05050e06 	streq	r0, [r5, #-3590]	; 0xfffff1fa
     fc8:	03100513 	tsteq	r0, #79691776	; 0x4c00000
     fcc:	0505015e 	streq	r0, [r5, #-350]	; 0xfffffea2
     fd0:	13010a03 	movwne	r0, #6659	; 0x1a03
     fd4:	06010630 			; <UNDEFINED> instruction: 0x06010630
     fd8:	13011703 	movwne	r1, #5891	; 0x1703
     fdc:	11061805 	tstne	r6, r5, lsl #16
     fe0:	052e0d05 	streq	r0, [lr, #-3333]!	; 0xfffff2fb
     fe4:	2e2e2f16 	mcrcs	15, 1, r2, cr14, cr6, {0}
     fe8:	11050104 	tstne	r5, r4, lsl #2
     fec:	01270306 			; <UNDEFINED> instruction: 0x01270306
     ff0:	10050204 	andne	r0, r5, r4, lsl #4
     ff4:	05015503 	streq	r5, [r1, #-1283]	; 0xfffffafd
     ff8:	10051305 	andne	r1, r5, r5, lsl #6
     ffc:	05015e03 	streq	r5, [r1, #-3587]	; 0xfffff1fd
    1000:	010a0305 	tsteq	sl, r5, lsl #6
    1004:	01063013 	tsteq	r6, r3, lsl r0
    1008:	01170306 	tsteq	r7, r6, lsl #6
    100c:	05010613 	streq	r0, [r1, #-1555]	; 0xfffff9ed
    1010:	050e0610 	streq	r0, [lr, #-1552]	; 0xfffff9f0
    1014:	10051305 	andne	r1, r5, r5, lsl #6
    1018:	05015e03 	streq	r5, [r1, #-3587]	; 0xfffff1fd
    101c:	010a0305 	tsteq	sl, r5, lsl #6
    1020:	01063013 	tsteq	r6, r3, lsl r0
    1024:	01170306 	tsteq	r7, r6, lsl #6
    1028:	05010613 	streq	r0, [r1, #-1555]	; 0xfffff9ed
    102c:	0104010f 	tsteq	r4, pc, lsl #2
    1030:	27034b05 	strcs	r4, [r3, -r5, lsl #22]
    1034:	0502042e 	streq	r0, [r2, #-1070]	; 0xfffffbd2
    1038:	2e58030d 	cdpcs	3, 5, cr0, cr8, cr13, {0}
    103c:	0501042e 	streq	r0, [r1, #-1070]	; 0xfffffbd2
    1040:	01290319 			; <UNDEFINED> instruction: 0x01290319
    1044:	042d4b05 	strteq	r4, [sp], #-2821	; 0xfffff4fb
    1048:	030d0502 	movweq	r0, #54530	; 0xd502
    104c:	042e2e58 	strteq	r2, [lr], #-3672	; 0xfffff1a8
    1050:	03190501 	tsteq	r9, #4194304	; 0x400000
    1054:	4b05012a 	blmi	141504 <__bss_end__+0x1374fc>
    1058:	2b2e052c 	blcs	b82510 <__bss_end__+0xb78508>
    105c:	05351f05 	ldreq	r1, [r5, #-3845]!	; 0xfffff0fb
    1060:	2e79032e 	cdpcs	3, 7, cr0, cr9, cr14, {1}
    1064:	05351f05 	ldreq	r1, [r5, #-3845]!	; 0xfffff0fb
    1068:	2e79030d 	cdpcs	3, 7, cr0, cr9, cr13, {0}
    106c:	05361f05 	ldreq	r1, [r6, #-3845]!	; 0xfffff0fb
    1070:	1f053025 	svcne	0x00053025
    1074:	3025052c 	eorcc	r0, r5, ip, lsr #10
    1078:	4b052f2f 	blmi	14cd3c <__bss_end__+0x142d34>
    107c:	052e7703 	streq	r7, [lr, #-1795]!	; 0xfffff8fd
    1080:	132f0611 			; <UNDEFINED> instruction: 0x132f0611
    1084:	13150513 	tstne	r5, #79691776	; 0x4c00000
    1088:	14110513 	ldrne	r0, [r1], #-1299	; 0xfffffaed
    108c:	03060d05 	movweq	r0, #27909	; 0x6d05
    1090:	25050176 	strcs	r0, [r5, #-374]	; 0xfffffe8a
    1094:	2c4a0c03 	mcrrcs	12, 0, r0, sl, cr3
    1098:	1905302f 	stmdbne	r5, {r0, r1, r2, r3, r5, ip, sp}
    109c:	0611052b 	ldreq	r0, [r1], -fp, lsr #10
    10a0:	0619052f 	ldreq	r0, [r9], -pc, lsr #10
    10a4:	06110501 	ldreq	r0, [r1], -r1, lsl #10
    10a8:	0619052f 	ldreq	r0, [r9], -pc, lsr #10
    10ac:	06110501 	ldreq	r0, [r1], -r1, lsl #10
    10b0:	0619052f 	ldreq	r0, [r9], -pc, lsr #10
    10b4:	062c052e 	strteq	r0, [ip], -lr, lsr #10
    10b8:	052e7303 	streq	r7, [lr, #-771]!	; 0xfffffcfd
    10bc:	0d050125 	stfeqs	f0, [r5, #-148]	; 0xffffff6c
    10c0:	052e2e06 	streq	r2, [lr, #-3590]!	; 0xfffff1fa
    10c4:	7103062d 	tstvc	r3, sp, lsr #12
    10c8:	06310501 	ldrteq	r0, [r1], -r1, lsl #10
    10cc:	2e090501 	cfsh32cs	mvfx0, mvfx9, #1
    10d0:	052e3105 	streq	r3, [lr, #-261]!	; 0xfffffefb
    10d4:	31052e09 	tstcc	r5, r9, lsl #28
    10d8:	0621052e 	strteq	r0, [r1], -lr, lsr #10
    10dc:	0609052e 	streq	r0, [r9], -lr, lsr #10
    10e0:	03062e01 	movweq	r2, #28161	; 0x6e01
    10e4:	0b05011f 	bleq	141568 <__bss_end__+0x137560>
    10e8:	2e490306 	cdpcs	3, 4, cr0, cr9, cr6, {0}
    10ec:	03060905 	movweq	r0, #26885	; 0x6905
    10f0:	0106ba38 	tsteq	r6, r8, lsr sl
    10f4:	03060b05 	movweq	r0, #27397	; 0x6b05
    10f8:	01050148 	tsteq	r5, r8, asr #2
    10fc:	2e3b0306 	cdpcs	3, 3, cr0, cr11, cr6, {0}
    1100:	03060d05 	movweq	r0, #27909	; 0x6d05
    1104:	05166668 	ldreq	r6, [r6, #-1640]	; 0xfffff998
    1108:	25050112 	strcs	r0, [r5, #-274]	; 0xfffffeee
    110c:	05010601 	streq	r0, [r1, #-1537]	; 0xfffff9ff
    1110:	13670611 	cmnne	r7, #17825792	; 0x1100000
    1114:	01062505 	tsteq	r6, r5, lsl #10
    1118:	10050204 	andne	r0, r5, r4, lsl #4
    111c:	2e560306 	cdpcs	3, 5, cr0, cr6, cr6, {0}
    1120:	05130505 	ldreq	r0, [r3, #-1285]	; 0xfffffafb
    1124:	015e0310 	cmpeq	lr, r0, lsl r3
    1128:	0a030505 	beq	c2544 <__bss_end__+0xb853c>
    112c:	06301301 	ldrteq	r1, [r0], -r1, lsl #6
    1130:	17030601 	strne	r0, [r3, -r1, lsl #12]
    1134:	18051301 	stmdane	r5, {r0, r8, r9, ip}
    1138:	0d051106 	stfeqs	f1, [r5, #-24]	; 0xffffffe8
    113c:	2f16052e 	svccs	0x0016052e
    1140:	01042e2e 	tsteq	r4, lr, lsr #28
    1144:	26034d05 	strcs	r4, [r3], -r5, lsl #26
    1148:	05020401 	streq	r0, [r2, #-1025]	; 0xfffffbff
    114c:	56030610 			; <UNDEFINED> instruction: 0x56030610
    1150:	1305052e 	movwne	r0, #21806	; 0x552e
    1154:	5e031005 	cdppl	0, 0, cr1, cr3, cr5, {0}
    1158:	03050501 	movweq	r0, #21761	; 0x5501
    115c:	3013010a 	andscc	r0, r3, sl, lsl #2
    1160:	03060106 	movweq	r0, #24838	; 0x6106
    1164:	05130117 	ldreq	r0, [r3, #-279]	; 0xfffffee9
    1168:	05110618 	ldreq	r0, [r1, #-1560]	; 0xfffff9e8
    116c:	16052e0d 	strne	r2, [r5], -sp, lsl #28
    1170:	042e2e2f 	strteq	r2, [lr], #-3631	; 0xfffff1d1
    1174:	06110501 	ldreq	r0, [r1], -r1, lsl #10
    1178:	04012703 	streq	r2, [r1], #-1795	; 0xfffff8fd
    117c:	03100502 	tsteq	r0, #8388608	; 0x800000
    1180:	05050155 	streq	r0, [r5, #-341]	; 0xfffffeab
    1184:	03100513 	tsteq	r0, #79691776	; 0x4c00000
    1188:	0505015e 	streq	r0, [r5, #-350]	; 0xfffffea2
    118c:	13010a03 	movwne	r0, #6659	; 0x1a03
    1190:	06010630 			; <UNDEFINED> instruction: 0x06010630
    1194:	13011703 	movwne	r1, #5891	; 0x1703
    1198:	10050106 	andne	r0, r5, r6, lsl #2
    119c:	05050e06 	streq	r0, [r5, #-3590]	; 0xfffff1fa
    11a0:	03100513 	tsteq	r0, #79691776	; 0x4c00000
    11a4:	0505015e 	streq	r0, [r5, #-350]	; 0xfffffea2
    11a8:	13010a03 	movwne	r0, #6659	; 0x1a03
    11ac:	06010630 			; <UNDEFINED> instruction: 0x06010630
    11b0:	13011703 	movwne	r1, #5891	; 0x1703
    11b4:	0f050106 	svceq	0x00050106
    11b8:	05010401 	streq	r0, [r1, #-1025]	; 0xfffffbff
    11bc:	2e27034b 	cdpcs	3, 2, cr0, cr7, cr11, {2}
    11c0:	0d050204 	sfmeq	f0, 4, [r5, #-16]
    11c4:	2e2e5803 	cdpcs	8, 2, cr5, cr14, cr3, {0}
    11c8:	4b050104 	blmi	1415e0 <__bss_end__+0x1375d8>
    11cc:	04012803 	streq	r2, [r1], #-2051	; 0xfffff7fd
    11d0:	030d0502 	movweq	r0, #54530	; 0xd502
    11d4:	042e2e58 	strteq	r2, [lr], #-3672	; 0xfffff1a8
    11d8:	03250501 			; <UNDEFINED> instruction: 0x03250501
    11dc:	1905012f 	stmdbne	r5, {r0, r1, r2, r3, r5, r8}
    11e0:	2c4b0529 	cfstr64cs	mvdx0, [fp], {41}	; 0x29
    11e4:	052b2e05 	streq	r2, [fp, #-3589]!	; 0xfffff1fb
    11e8:	2e05314b 	adfcssm	f3, f5, #3.0
    11ec:	0611052b 	ldreq	r0, [r1], -fp, lsr #10
    11f0:	16131332 			; <UNDEFINED> instruction: 0x16131332
    11f4:	13062505 	movwne	r2, #25861	; 0x6505
    11f8:	030d052d 	movweq	r0, #54573	; 0xd52d
    11fc:	25052e76 	strcs	r2, [r5, #-3702]	; 0xfffff18a
    1200:	492e0c03 	stmdbmi	lr!, {r0, r1, sl, fp}
    1204:	0d054730 	stceq	7, cr4, [r5, #-192]	; 0xffffff40
    1208:	052e7603 	streq	r7, [lr, #-1539]!	; 0xfffff9fd
    120c:	2e0a0319 	mcrcs	3, 0, r0, cr10, cr9, {0}
    1210:	2f061105 	svccs	0x00061105
    1214:	01061905 	tsteq	r6, r5, lsl #18
    1218:	2f061105 	svccs	0x00061105
    121c:	01061905 	tsteq	r6, r5, lsl #18
    1220:	2f061105 	svccs	0x00061105
    1224:	2e061905 	vmlacs.f16	s2, s12, s10	; <UNPREDICTABLE>
    1228:	03062c05 	movweq	r2, #27653	; 0x6c05
    122c:	25052e73 	strcs	r2, [r5, #-3699]	; 0xfffff18d
    1230:	060d0501 	streq	r0, [sp], -r1, lsl #10
    1234:	09054a2e 	stmdbeq	r5, {r1, r2, r3, r5, r9, fp, lr}
    1238:	7fbd0306 	svcvc	0x00bd0306
    123c:	2e060101 	adfcss	f0, f6, f1
    1240:	062e2e2e 	strteq	r2, [lr], -lr, lsr #28
    1244:	034b052e 	movteq	r0, #46382	; 0xb52e
    1248:	059e00da 	ldreq	r0, [lr, #218]	; 0xda
    124c:	05011305 	streq	r1, [r1, #-773]	; 0xfffffcfb
    1250:	052d064b 	streq	r0, [sp, #-1611]!	; 0xfffff9b5
    1254:	2e2e2f05 	cdpcs	15, 2, cr2, cr14, cr5, {0}
    1258:	022e062e 	eoreq	r0, lr, #48234496	; 0x2e00000
    125c:	01010008 	tsteq	r1, r8
    1260:	00000138 	andeq	r0, r0, r8, lsr r1
    1264:	01060003 	tsteq	r6, r3
    1268:	01020000 	mrseq	r0, (UNDEF: 2)
    126c:	000d0efb 	strdeq	r0, [sp], -fp
    1270:	01010101 	tsteq	r1, r1, lsl #2
    1274:	01000000 	mrseq	r0, (UNDEF: 0)
    1278:	2e010000 	cdpcs	0, 0, cr0, cr1, cr0, {0}
    127c:	62696c2f 	rsbvs	r6, r9, #12032	; 0x2f00
    1280:	6f2f0063 	svcvs	0x002f0063
    1284:	682f7470 	stmdavs	pc!, {r4, r5, r6, sl, ip, sp, lr}	; <UNPREDICTABLE>
    1288:	62656d6f 	rsbvs	r6, r5, #7104	; 0x1bc0
    128c:	2f776572 	svccs	0x00776572
    1290:	6c6c6543 	cfstr64vs	mvdx6, [ip], #-268	; 0xfffffef4
    1294:	612f7261 			; <UNDEFINED> instruction: 0x612f7261
    1298:	6e2d6d72 	mcrvs	13, 1, r6, cr13, cr2, {3}
    129c:	2d656e6f 	stclcs	14, cr6, [r5, #-444]!	; 0xfffffe44
    12a0:	69626165 	stmdbvs	r2!, {r0, r2, r5, r6, r8, sp, lr}^
    12a4:	7365742d 	cmnvc	r5, #754974720	; 0x2d000000
    12a8:	2d392f74 	ldccs	15, cr2, [r9, #-464]!	; 0xfffffe30
    12ac:	39313032 	ldmdbcc	r1!, {r1, r4, r5, ip, sp}
    12b0:	632d3471 			; <UNDEFINED> instruction: 0x632d3471
    12b4:	37303173 			; <UNDEFINED> instruction: 0x37303173
    12b8:	696c2f65 	stmdbvs	ip!, {r0, r2, r5, r6, r8, r9, sl, fp, sp}^
    12bc:	63672f62 	cmnvs	r7, #392	; 0x188
    12c0:	72612f63 	rsbvc	r2, r1, #396	; 0x18c
    12c4:	6f6e2d6d 	svcvs	0x006e2d6d
    12c8:	652d656e 	strvs	r6, [sp, #-1390]!	; 0xfffffa92
    12cc:	2f696261 	svccs	0x00696261
    12d0:	2e322e39 	mrccs	14, 1, r2, cr2, cr9, {1}
    12d4:	6e692f31 	mcrvs	15, 3, r2, cr9, cr1, {1}
    12d8:	64756c63 	ldrbtvs	r6, [r5], #-3171	; 0xfffff39d
    12dc:	552f0065 	strpl	r0, [pc, #-101]!	; 127f <__code_start__-0x6d81>
    12e0:	73726573 	cmnvc	r2, #482344960	; 0x1cc00000
    12e4:	74616b2f 	strbtvc	r6, [r1], #-2863	; 0xfffff4d1
    12e8:	65736565 	ldrbvs	r6, [r3, #-1381]!	; 0xfffffa9b
    12ec:	7375696c 	cmnvc	r5, #108, 18	; 0x1b0000
    12f0:	636f442f 	cmnvs	pc, #788529152	; 0x2f000000
    12f4:	6e656d75 	mcrvs	13, 3, r6, cr5, cr5, {3}
    12f8:	432f7374 			; <UNDEFINED> instruction: 0x432f7374
    12fc:	30343153 	eorscc	r3, r4, r3, asr r1
    1300:	73632f45 	cmnvc	r3, #276	; 0x114
    1304:	45303431 	ldrmi	r3, [r0, #-1073]!	; 0xfffffbcf
    1308:	6e69662d 	cdpvs	6, 6, cr6, cr9, cr13, {1}
    130c:	702d6c61 	eorvc	r6, sp, r1, ror #24
    1310:	656a6f72 	strbvs	r6, [sl, #-3954]!	; 0xfffff08e
    1314:	6c2f7463 	cfstrsvs	mvf7, [pc], #-396	; 1190 <__code_start__-0x6e70>
    1318:	2d736269 	lfmcs	f6, 2, [r3, #-420]!	; 0xfffffe5c
    131c:	6c303432 	cfldrsvs	mvf3, [r0], #-200	; 0xffffff38
    1320:	696c2f78 	stmdbvs	ip!, {r3, r4, r5, r6, r8, r9, sl, fp, sp}^
    1324:	2f697062 	svccs	0x00697062
    1328:	6c636e69 	stclvs	14, cr6, [r3], #-420	; 0xfffffe5c
    132c:	00656475 	rsbeq	r6, r5, r5, ror r4
    1330:	69727000 	ldmdbvs	r2!, {ip, sp, lr}^
    1334:	2e6b746e 	cdpcs	4, 6, cr7, cr11, cr14, {3}
    1338:	00010063 	andeq	r0, r1, r3, rrx
    133c:	64747300 	ldrbtvs	r7, [r4], #-768	; 0xfffffd00
    1340:	2e677261 	cdpcs	2, 6, cr7, cr7, cr1, {3}
    1344:	00020068 	andeq	r0, r2, r8, rrx
    1348:	69707200 	ldmdbvs	r0!, {r9, ip, sp, lr}^
    134c:	0300682e 	movweq	r6, #2094	; 0x82e
    1350:	623c0000 	eorsvs	r0, ip, #0, 0
    1354:	746c6975 	strbtvc	r6, [ip], #-2421	; 0xfffff68b
    1358:	3e6e692d 	vmulcc.f16	s13, s28, s27	; <UNPREDICTABLE>
    135c:	00000000 	andeq	r0, r0, r0
    1360:	702d6176 	eorvc	r6, sp, r6, ror r1
    1364:	746e6972 	strbtvc	r6, [lr], #-2418	; 0xfffff68e
    1368:	00682e6b 	rsbeq	r2, r8, fp, ror #28
    136c:	00000001 	andeq	r0, r0, r1
    1370:	05002205 	streq	r2, [r0, #-517]	; 0xfffffdfb
    1374:	0085c002 	addeq	ip, r5, r2
    1378:	01061700 	tsteq	r6, r0, lsl #14
    137c:	68060505 	stmdavs	r6, {r0, r2, r8, sl}
    1380:	09051413 	stmdbeq	r5, {r0, r1, r4, sl, ip}
    1384:	0612054b 	ldreq	r0, [r2], -fp, asr #10
    1388:	06050501 	streq	r0, [r5], -r1, lsl #10
    138c:	660616bb 			; <UNDEFINED> instruction: 0x660616bb
    1390:	01053406 	tsteq	r5, r6, lsl #8
    1394:	02661306 	rsbeq	r1, r6, #402653184	; 0x18000000
    1398:	01010008 	tsteq	r1, r8
    139c:	000000cd 	andeq	r0, r0, sp, asr #1
    13a0:	007f0003 	rsbseq	r0, pc, r3
    13a4:	01020000 	mrseq	r0, (UNDEF: 2)
    13a8:	000d0efb 	strdeq	r0, [sp], -fp
    13ac:	01010101 	tsteq	r1, r1, lsl #2
    13b0:	01000000 	mrseq	r0, (UNDEF: 0)
    13b4:	2e010000 	cdpcs	0, 0, cr0, cr1, cr0, {0}
    13b8:	62696c2f 	rsbvs	r6, r9, #12032	; 0x2f00
    13bc:	552f0063 	strpl	r0, [pc, #-99]!	; 1361 <__code_start__-0x6c9f>
    13c0:	73726573 	cmnvc	r2, #482344960	; 0x1cc00000
    13c4:	74616b2f 	strbtvc	r6, [r1], #-2863	; 0xfffff4d1
    13c8:	65736565 	ldrbvs	r6, [r3, #-1381]!	; 0xfffffa9b
    13cc:	7375696c 	cmnvc	r5, #108, 18	; 0x1b0000
    13d0:	636f442f 	cmnvs	pc, #788529152	; 0x2f000000
    13d4:	6e656d75 	mcrvs	13, 3, r6, cr5, cr5, {3}
    13d8:	432f7374 			; <UNDEFINED> instruction: 0x432f7374
    13dc:	30343153 	eorscc	r3, r4, r3, asr r1
    13e0:	73632f45 	cmnvc	r3, #276	; 0x114
    13e4:	45303431 	ldrmi	r3, [r0, #-1073]!	; 0xfffffbcf
    13e8:	6e69662d 	cdpvs	6, 6, cr6, cr9, cr13, {1}
    13ec:	702d6c61 	eorvc	r6, sp, r1, ror #24
    13f0:	656a6f72 	strbvs	r6, [sl, #-3954]!	; 0xfffff08e
    13f4:	6c2f7463 	cfstrsvs	mvf7, [pc], #-396	; 1270 <__code_start__-0x6d90>
    13f8:	2d736269 	lfmcs	f6, 2, [r3, #-420]!	; 0xfffffe5c
    13fc:	6c303432 	cfldrsvs	mvf3, [r0], #-200	; 0xffffff38
    1400:	696c2f78 	stmdbvs	ip!, {r3, r4, r5, r6, r8, r9, sl, fp, sp}^
    1404:	2f697062 	svccs	0x00697062
    1408:	6c636e69 	stclvs	14, cr6, [r3], #-420	; 0xfffffe5c
    140c:	00656475 	rsbeq	r6, r5, r5, ror r4
    1410:	74757000 	ldrbtvc	r7, [r5], #-0
    1414:	00632e6b 	rsbeq	r2, r3, fp, ror #28
    1418:	72000001 	andvc	r0, r0, #1, 0
    141c:	682e6970 	stmdavs	lr!, {r4, r5, r6, r8, fp, sp, lr}
    1420:	00000200 	andeq	r0, r0, r0, lsl #4
    1424:	00220500 	eoreq	r0, r2, r0, lsl #10
    1428:	86180205 	ldrhi	r0, [r8], -r5, lsl #4
    142c:	06150000 	ldreq	r0, [r5], -r0
    1430:	06050501 	streq	r0, [r5], -r1, lsl #10
    1434:	000b054b 	andeq	r0, fp, fp, asr #10
    1438:	01010402 	tsteq	r1, r2, lsl #8
    143c:	02000505 	andeq	r0, r0, #20971520	; 0x1400000
    1440:	2e060104 	adfcss	f0, f6, f4
    1444:	02000905 	andeq	r0, r0, #81920	; 0x14000
    1448:	4b060204 	blmi	181c60 <__bss_end__+0x177c58>
    144c:	02000f05 	andeq	r0, r0, #5, 30
    1450:	05650204 	strbeq	r0, [r5, #-516]!	; 0xfffffdfc
    1454:	04020010 	streq	r0, [r2], #-16
    1458:	00010602 	andeq	r0, r1, r2, lsl #12
    145c:	2e020402 	cdpcs	4, 0, cr0, cr2, cr2, {0}
    1460:	32060505 	andcc	r0, r6, #20971520	; 0x1400000
    1464:	13060105 	movwne	r0, #24837	; 0x6105
    1468:	01000602 	tsteq	r0, r2, lsl #12
    146c:	00062201 	andeq	r2, r6, r1, lsl #4
    1470:	1c000300 	stcne	3, cr0, [r0], {-0}
    1474:	02000001 	andeq	r0, r0, #1, 0
    1478:	0d0efb01 	vstreq	d15, [lr, #-4]
    147c:	01010100 	mrseq	r0, (UNDEF: 17)
    1480:	00000001 	andeq	r0, r0, r1
    1484:	01000001 	tsteq	r0, r1
    1488:	696c2f2e 	stmdbvs	ip!, {r1, r2, r3, r5, r8, r9, sl, fp, sp}^
    148c:	2f006362 	svccs	0x00006362
    1490:	2f74706f 	svccs	0x0074706f
    1494:	656d6f68 	strbvs	r6, [sp, #-3944]!	; 0xfffff098
    1498:	77657262 	strbvc	r7, [r5, -r2, ror #4]!
    149c:	6c65432f 	stclvs	3, cr4, [r5], #-188	; 0xffffff44
    14a0:	2f72616c 	svccs	0x0072616c
    14a4:	2d6d7261 	sfmcs	f7, 2, [sp, #-388]!	; 0xfffffe7c
    14a8:	656e6f6e 	strbvs	r6, [lr, #-3950]!	; 0xfffff092
    14ac:	6261652d 	rsbvs	r6, r1, #188743680	; 0xb400000
    14b0:	65742d69 	ldrbvs	r2, [r4, #-3433]!	; 0xfffff297
    14b4:	392f7473 	stmdbcc	pc!, {r0, r1, r4, r5, r6, sl, ip, sp, lr}	; <UNPREDICTABLE>
    14b8:	3130322d 	teqcc	r0, sp, lsr #4
    14bc:	2d347139 	ldfcss	f7, [r4, #-228]!	; 0xffffff1c
    14c0:	30317363 	eorscc	r7, r1, r3, ror #6
    14c4:	6c2f6537 	cfstr32vs	mvfx6, [pc], #-220	; 13f0 <__code_start__-0x6c10>
    14c8:	672f6269 	strvs	r6, [pc, -r9, ror #4]!
    14cc:	612f6363 			; <UNDEFINED> instruction: 0x612f6363
    14d0:	6e2d6d72 	mcrvs	13, 1, r6, cr13, cr2, {3}
    14d4:	2d656e6f 	stclcs	14, cr6, [r5, #-444]!	; 0xfffffe44
    14d8:	69626165 	stmdbvs	r2!, {r0, r2, r5, r6, r8, sp, lr}^
    14dc:	322e392f 	eorcc	r3, lr, #770048	; 0xbc000
    14e0:	692f312e 	stmdbvs	pc!, {r1, r2, r3, r5, r8, ip, sp}	; <UNPREDICTABLE>
    14e4:	756c636e 	strbvc	r6, [ip, #-878]!	; 0xfffffc92
    14e8:	2f006564 	svccs	0x00006564
    14ec:	72657355 	rsbvc	r7, r5, #1409286145	; 0x54000001
    14f0:	616b2f73 	smcvs	45811	; 0xb2f3
    14f4:	73656574 	cmnvc	r5, #116, 10	; 0x1d000000
    14f8:	75696c65 	strbvc	r6, [r9, #-3173]!	; 0xfffff39b
    14fc:	6f442f73 	svcvs	0x00442f73
    1500:	656d7563 	strbvs	r7, [sp, #-1379]!	; 0xfffffa9d
    1504:	2f73746e 	svccs	0x0073746e
    1508:	34315343 	ldrtcc	r5, [r1], #-835	; 0xfffffcbd
    150c:	632f4530 			; <UNDEFINED> instruction: 0x632f4530
    1510:	30343173 	eorscc	r3, r4, r3, ror r1
    1514:	69662d45 	stmdbvs	r6!, {r0, r2, r6, r8, sl, fp, sp}^
    1518:	2d6c616e 	stfcse	f6, [ip, #-440]!	; 0xfffffe48
    151c:	6a6f7270 	bvs	1bddee4 <__bss_end__+0x1bd3edc>
    1520:	2f746365 	svccs	0x00746365
    1524:	7362696c 	cmnvc	r2, #108, 18	; 0x1b0000
    1528:	3034322d 	eorscc	r3, r4, sp, lsr #4
    152c:	6c2f786c 	stcvs	8, cr7, [pc], #-432	; 1384 <__code_start__-0x6c7c>
    1530:	69706269 	ldmdbvs	r0!, {r0, r3, r5, r6, r9, sp, lr}^
    1534:	636e692f 	cmnvs	lr, #770048	; 0xbc000
    1538:	6564756c 	strbvs	r7, [r4, #-1388]!	; 0xfffffa94
    153c:	61760000 	cmnvs	r6, r0
    1540:	6972702d 	ldmdbvs	r2!, {r0, r2, r3, r5, ip, sp, lr}^
    1544:	2e6b746e 	cdpcs	4, 6, cr7, cr11, cr14, {3}
    1548:	00010063 	andeq	r0, r1, r3, rrx
    154c:	64747300 	ldrbtvs	r7, [r4], #-768	; 0xfffffd00
    1550:	2d746e69 	ldclcs	14, cr6, [r4, #-420]!	; 0xfffffe5c
    1554:	2e636367 	cdpcs	3, 6, cr6, cr3, cr7, {3}
    1558:	00020068 	andeq	r0, r2, r8, rrx
    155c:	69707200 	ldmdbvs	r0!, {r9, ip, sp, lr}^
    1560:	0300682e 	movweq	r6, #2094	; 0x82e
    1564:	70720000 	rsbsvc	r0, r2, r0
    1568:	6e692d69 	cdpvs	13, 6, cr2, cr9, cr9, {3}
    156c:	6e726574 	mrcvs	5, 3, r6, cr2, cr4, {3}
    1570:	682e6c61 	stmdavs	lr!, {r0, r5, r6, sl, fp, sp, lr}
    1574:	00000300 	andeq	r0, r0, r0, lsl #6
    1578:	61647473 	smcvs	18243	; 0x4743
    157c:	682e6772 	stmdavs	lr!, {r1, r4, r5, r6, r8, r9, sl, sp, lr}
    1580:	00000200 	andeq	r0, r0, r0, lsl #4
    1584:	6975623c 	ldmdbvs	r5!, {r2, r3, r4, r5, r9, sp, lr}^
    1588:	692d746c 	pushvs	{r2, r3, r5, r6, sl, ip, sp, lr}
    158c:	00003e6e 	andeq	r3, r0, lr, ror #28
    1590:	05000000 	streq	r0, [r0, #-0]
    1594:	0205001b 	andeq	r0, r5, #27, 0
    1598:	0000864c 	andeq	r8, r0, ip, asr #12
    159c:	05012603 	streq	r2, [r1, #-1539]	; 0xfffff9fd
    15a0:	2d05011d 	stfcss	f0, [r5, #-116]	; 0xffffff8c
    15a4:	01050106 	tsteq	r5, r6, lsl #2
    15a8:	33054a2e 	movwcc	r4, #23086	; 0x5a2e
    15ac:	02055106 	andeq	r5, r5, #-2147483647	; 0x80000001
    15b0:	06060513 			; <UNDEFINED> instruction: 0x06060513
    15b4:	06020501 	streq	r0, [r2], -r1, lsl #10
    15b8:	00080530 	andeq	r0, r8, r0, lsr r5
    15bc:	01010402 	tsteq	r1, r2, lsl #8
    15c0:	02000205 	andeq	r0, r0, #1342177280	; 0x50000000
    15c4:	01060104 	tsteq	r6, r4, lsl #2
    15c8:	02000305 	andeq	r0, r0, #335544320	; 0x14000000
    15cc:	2f060204 	svccs	0x00060204
    15d0:	02000805 	andeq	r0, r0, #327680	; 0x50000
    15d4:	01060204 	tsteq	r6, r4, lsl #4
    15d8:	02001505 	andeq	r1, r0, #20971520	; 0x1400000
    15dc:	49060204 	stmdbmi	r6, {r2, r9}
    15e0:	02001805 	andeq	r1, r0, #327680	; 0x50000
    15e4:	01060204 	tsteq	r6, r4, lsl #4
    15e8:	02040200 	andeq	r0, r4, #0, 4
    15ec:	0602052e 	streq	r0, [r2], -lr, lsr #10
    15f0:	06050530 			; <UNDEFINED> instruction: 0x06050530
    15f4:	06020501 	streq	r0, [r2], -r1, lsl #10
    15f8:	0601054b 	streq	r0, [r1], -fp, asr #10
    15fc:	063e0513 			; <UNDEFINED> instruction: 0x063e0513
    1600:	14020531 	strne	r0, [r2], #-1329	; 0xfffffacf
    1604:	01060e05 	tsteq	r6, r5, lsl #28
    1608:	052e0605 	streq	r0, [lr, #-1541]!	; 0xfffff9fb
    160c:	052f0602 	streq	r0, [pc, #-1538]!	; 1012 <__code_start__-0x6fee>
    1610:	05010604 	streq	r0, [r1, #-1540]	; 0xfffff9fc
    1614:	052f0603 	streq	r0, [pc, #-1539]!	; 1019 <__code_start__-0x6fe7>
    1618:	05010611 	streq	r0, [r1, #-1553]	; 0xfffff9ef
    161c:	02052e09 	andeq	r2, r5, #144	; 0x90
    1620:	05153006 	ldreq	r3, [r5, #-6]
    1624:	05010607 	streq	r0, [r1, #-1543]	; 0xfffff9f9
    1628:	0b052e02 	bleq	14ce38 <__bss_end__+0x142e30>
    162c:	01040200 	mrseq	r0, R12_usr
    1630:	02052e06 	andeq	r2, r5, #96	; 0x60
    1634:	01040200 	mrseq	r0, R12_usr
    1638:	03050106 	movweq	r0, #20742	; 0x5106
    163c:	03040200 	movweq	r0, #16896	; 0x4200
    1640:	0c052f06 	stceq	15, cr2, [r5], {6}
    1644:	03040200 	movweq	r0, #16896	; 0x4200
    1648:	0a050106 	beq	141a68 <__bss_end__+0x137a60>
    164c:	03040200 	movweq	r0, #16896	; 0x4200
    1650:	0017052e 	andseq	r0, r7, lr, lsr #10
    1654:	06030402 	streq	r0, [r3], -r2, lsl #8
    1658:	0402002d 	streq	r0, [r2], #-45	; 0xffffffd3
    165c:	05010603 	streq	r0, [r1, #-1539]	; 0xfffff9fd
    1660:	05300602 	ldreq	r0, [r0, #-1538]!	; 0xfffff9fe
    1664:	2e010609 	cfmadd32cs	mvax0, mvfx0, mvfx1, mvfx9
    1668:	30060205 	andcc	r0, r6, r5, lsl #4
    166c:	13060105 	movwne	r0, #24837	; 0x6105
    1670:	31064905 	tstcc	r6, r5, lsl #18
    1674:	02050106 	andeq	r0, r5, #-2147483647	; 0x80000001
    1678:	0405a006 	streq	sl, [r5], #-6
    167c:	03050106 	movweq	r0, #20742	; 0x5106
    1680:	09052f06 	stmdbeq	r5, {r1, r2, r8, r9, sl, fp, sp}
    1684:	02050106 	andeq	r0, r5, #-2147483647	; 0x80000001
    1688:	05133006 	ldreq	r3, [r3, #-6]
    168c:	0501060b 	streq	r0, [r1, #-1547]	; 0xfffff9f5
    1690:	06300602 	ldrteq	r0, [r0], -r2, lsl #12
    1694:	0604052e 	streq	r0, [r4], -lr, lsr #10
    1698:	13152402 	tstne	r5, #33554432	; 0x2000000
    169c:	01060f05 	tsteq	r6, r5, lsl #30
    16a0:	4a06052e 	bmi	182b60 <__bss_end__+0x178b58>
    16a4:	4b060505 	blmi	182ac0 <__bss_end__+0x178ab8>
    16a8:	06090513 			; <UNDEFINED> instruction: 0x06090513
    16ac:	06050501 	streq	r0, [r5], -r1, lsl #10
    16b0:	060b052f 	streq	r0, [fp], -pc, lsr #10
    16b4:	000d0510 	andeq	r0, sp, r0, lsl r5
    16b8:	2c010402 	cfstrscs	mvf0, [r1], {2}
    16bc:	02000405 	andeq	r0, r0, #83886080	; 0x5000000
    16c0:	34060104 	strcc	r0, [r6], #-260	; 0xfffffefc
    16c4:	02000505 	andeq	r0, r0, #20971520	; 0x1400000
    16c8:	05130104 	ldreq	r0, [r3, #-260]	; 0xfffffefc
    16cc:	0402001b 	streq	r0, [r2], #-27	; 0xffffffe5
    16d0:	05010601 	streq	r0, [r1, #-1537]	; 0xfffff9ff
    16d4:	04020007 	streq	r0, [r2], #-7
    16d8:	1805d601 	stmdane	r5, {r0, r9, sl, ip, lr, pc}
    16dc:	01040200 	mrseq	r0, R12_usr
    16e0:	000a052e 	andeq	r0, sl, lr, lsr #10
    16e4:	4a010402 	bmi	426f4 <__bss_end__+0x386ec>
    16e8:	02000b05 	andeq	r0, r0, #5120	; 0x1400
    16ec:	2f060104 	svccs	0x00060104
    16f0:	02000e05 	andeq	r0, r0, #80	; 0x50
    16f4:	2e060104 	adfcss	f0, f6, f4
    16f8:	02000405 	andeq	r0, r0, #83886080	; 0x5000000
    16fc:	062e0104 	strteq	r0, [lr], -r4, lsl #2
    1700:	0606054b 	streq	r0, [r6], -fp, asr #10
    1704:	06050501 	streq	r0, [r5], -r1, lsl #10
    1708:	060a052f 	streq	r0, [sl], -pc, lsr #10
    170c:	4a070501 	bmi	1c2b18 <__bss_end__+0x1b8b10>
    1710:	030d052e 	movweq	r0, #54574	; 0xd52e
    1714:	054a2e76 	strbeq	r2, [sl, #-3702]	; 0xfffff18a
    1718:	0d050d0b 	stceq	13, cr0, [r5, #-44]	; 0xffffffd4
    171c:	01040200 	mrseq	r0, R12_usr
    1720:	2e140306 	cdpcs	3, 1, cr0, cr4, cr6, {0}
    1724:	02001105 	andeq	r1, r0, #1073741825	; 0x40000001
    1728:	05130104 	ldreq	r0, [r3, #-260]	; 0xfffffefc
    172c:	0402002d 	streq	r0, [r2], #-45	; 0xffffffd3
    1730:	05010601 	streq	r0, [r1, #-1537]	; 0xfffff9ff
    1734:	0402002a 	streq	r0, [r2], #-42	; 0xffffffd6
    1738:	16052e01 	strne	r2, [r5], -r1, lsl #28
    173c:	01040200 	mrseq	r0, R12_usr
    1740:	0014054a 	andseq	r0, r4, sl, asr #10
    1744:	06010402 	streq	r0, [r1], -r2, lsl #8
    1748:	000d054b 	andeq	r0, sp, fp, asr #10
    174c:	06010402 	streq	r0, [r1], -r2, lsl #8
    1750:	04020001 	streq	r0, [r2], #-1
    1754:	2f064a01 	svccs	0x00064a01
    1758:	01061205 	tsteq	r6, r5, lsl #4
    175c:	060d054a 	streq	r0, [sp], -sl, asr #10
    1760:	0612052f 	ldreq	r0, [r2], -pc, lsr #10
    1764:	06190501 	ldreq	r0, [r9], -r1, lsl #10
    1768:	0004054b 	andeq	r0, r4, fp, asr #10
    176c:	03020402 	movweq	r0, #9218	; 0x2402
    1770:	02000111 	andeq	r0, r0, #1073741828	; 0x40000004
    1774:	05010204 	streq	r0, [r1, #-516]	; 0xfffffdfc
    1778:	04020002 	streq	r0, [r2], #-2
    177c:	09051502 	stmdbeq	r5, {r1, r8, sl, ip}
    1780:	02040200 	andeq	r0, r4, #0, 4
    1784:	02000106 	andeq	r0, r0, #-2147483647	; 0x80000001
    1788:	054a0204 	strbeq	r0, [sl, #-516]	; 0xfffffdfc
    178c:	04020001 	streq	r0, [r2], #-1
    1790:	04059f02 	streq	r9, [r5], #-3842	; 0xfffff0fe
    1794:	4a6e0306 	bmi	1b823b4 <__bss_end__+0x1b783ac>
    1798:	01060905 	tsteq	r6, r5, lsl #18
    179c:	2f060405 	svccs	0x00060405
    17a0:	11060605 	tstne	r6, r5, lsl #12
    17a4:	052f0405 	streq	r0, [pc, #-1029]!	; 13a7 <__code_start__-0x6c59>
    17a8:	2e63030b 	cdpcs	3, 6, cr0, cr3, cr11, {0}
    17ac:	02001905 	andeq	r1, r0, #81920	; 0x14000
    17b0:	03060104 	movweq	r0, #24836	; 0x6104
    17b4:	1a052e24 	bne	14d04c <__bss_end__+0x143044>
    17b8:	01040200 	mrseq	r0, R12_usr
    17bc:	00280513 	eoreq	r0, r8, r3, lsl r5
    17c0:	06010402 	streq	r0, [r1], -r2, lsl #8
    17c4:	00250501 	eoreq	r0, r5, r1, lsl #10
    17c8:	2e010402 	cdpcs	4, 0, cr0, cr1, cr2, {0}
    17cc:	02001f05 	andeq	r1, r0, #5, 30
    17d0:	054a0104 	strbeq	r0, [sl, #-260]	; 0xfffffefc
    17d4:	0402000b 	streq	r0, [r2], #-11
    17d8:	054b0601 	strbeq	r0, [fp, #-1537]	; 0xfffff9ff
    17dc:	04020004 	streq	r0, [r2], #-4
    17e0:	00010601 	andeq	r0, r1, r1, lsl #12
    17e4:	4a010402 	bmi	427f4 <__bss_end__+0x387ec>
    17e8:	01040200 	mrseq	r0, R12_usr
    17ec:	02004e06 	andeq	r4, r0, #96	; 0x60
    17f0:	00010104 	andeq	r0, r1, r4, lsl #2
    17f4:	01010402 	tsteq	r1, r2, lsl #8
    17f8:	01040200 	mrseq	r0, R12_usr
    17fc:	04020001 	streq	r0, [r2], #-1
    1800:	002e0601 	eoreq	r0, lr, r1, lsl #12
    1804:	66010402 	strvs	r0, [r1], -r2, lsl #8
    1808:	01040200 	mrseq	r0, R12_usr
    180c:	0402002e 	streq	r0, [r2], #-46	; 0xffffffd2
    1810:	054a0601 	strbeq	r0, [sl, #-1537]	; 0xfffff9ff
    1814:	7fa60348 	svcvc	0x00a60348
    1818:	05052008 	streq	r2, [r5, #-8]
    181c:	2e060113 	mcrcs	1, 0, r0, cr6, cr3, {0}
    1820:	02040200 	andeq	r0, r4, #0, 4
    1824:	02002e06 	andeq	r2, r0, #96	; 0x60
    1828:	00010204 	andeq	r0, r1, r4, lsl #4
    182c:	13020402 	movwne	r0, #9218	; 0x2402
    1830:	02001105 	andeq	r1, r0, #1073741825	; 0x40000001
    1834:	01060204 	tsteq	r6, r4, lsl #4
    1838:	02000505 	andeq	r0, r0, #20971520	; 0x1400000
    183c:	4b060204 	blmi	182054 <__bss_end__+0x17804c>
    1840:	02000705 	andeq	r0, r0, #1310720	; 0x140000
    1844:	01060204 	tsteq	r6, r4, lsl #4
    1848:	4b060905 	blmi	183c64 <__bss_end__+0x179c5c>
    184c:	01060e05 	tsteq	r6, r5, lsl #28
    1850:	02004805 	andeq	r4, r0, #327680	; 0x50000
    1854:	05620104 	strbeq	r0, [r2, #-260]!	; 0xfffffefc
    1858:	04020005 	streq	r0, [r2], #-5
    185c:	004b0601 	subeq	r0, fp, r1, lsl #12
    1860:	01010402 	tsteq	r1, r2, lsl #8
    1864:	01040200 	mrseq	r0, R12_usr
    1868:	02009e06 	andeq	r9, r0, #96	; 0x60
    186c:	002e0104 	eoreq	r0, lr, r4, lsl #2
    1870:	06010402 	streq	r0, [r1], -r2, lsl #8
    1874:	0340052e 	movteq	r0, #1326	; 0x52e
    1878:	06d600e1 	ldrbeq	r0, [r6], r1, ror #1
    187c:	06020501 	streq	r0, [r2], -r1, lsl #10
    1880:	061e059f 			; <UNDEFINED> instruction: 0x061e059f
    1884:	2e120501 	cfmul32cs	mvfx0, mvfx2, mvfx1
    1888:	2f060505 	svccs	0x00060505
    188c:	05140205 	ldreq	r0, [r4, #-517]	; 0xfffffdfb
    1890:	05010609 	streq	r0, [r1, #-1545]	; 0xfffff9f7
    1894:	054b0605 	strbeq	r0, [fp, #-1541]	; 0xfffff9fb
    1898:	08051302 	stmdaeq	r5, {r1, r8, r9, ip}
    189c:	02050d06 	andeq	r0, r5, #384	; 0x180
    18a0:	06040533 			; <UNDEFINED> instruction: 0x06040533
    18a4:	060f054c 	streq	r0, [pc], -ip, asr #10
    18a8:	2e090501 	cfsh32cs	mvfx0, mvfx9, #1
    18ac:	2c060805 	stccs	8, cr0, [r6], {5}
    18b0:	2e060205 	cdpcs	2, 0, cr0, cr6, cr5, {0}
    18b4:	02000d05 	andeq	r0, r0, #320	; 0x140
    18b8:	054a0104 	strbeq	r0, [sl, #-260]	; 0xfffffefc
    18bc:	054b0603 	strbeq	r0, [fp, #-1539]	; 0xfffff9fd
    18c0:	05010605 	streq	r0, [r1, #-1541]	; 0xfffff9fb
    18c4:	054d0608 	strbeq	r0, [sp, #-1544]	; 0xfffff9f8
    18c8:	0501060e 	streq	r0, [r1, #-1550]	; 0xfffff9f2
    18cc:	04052e0a 	streq	r2, [r5], #-3594	; 0xfffff1f6
    18d0:	09052f06 	stmdbeq	r5, {r1, r2, r8, r9, sl, fp, sp}
    18d4:	04050106 	streq	r0, [r5], #-262	; 0xfffffefa
    18d8:	07052f06 	streq	r2, [r5, -r6, lsl #30]
    18dc:	052e0106 	streq	r0, [lr, #-262]!	; 0xfffffefa
    18e0:	05300604 	ldreq	r0, [r0, #-1540]!	; 0xfffff9fc
    18e4:	05010607 	streq	r0, [r1, #-1543]	; 0xfffff9f9
    18e8:	13300604 	teqne	r0, #4, 12	; 0x400000
    18ec:	060d0514 			; <UNDEFINED> instruction: 0x060d0514
    18f0:	06090510 			; <UNDEFINED> instruction: 0x06090510
    18f4:	06120530 			; <UNDEFINED> instruction: 0x06120530
    18f8:	2e0a0501 	cfsh32cs	mvfx0, mvfx10, #1
    18fc:	05660905 	strbeq	r0, [r6, #-2309]!	; 0xfffff6fb
    1900:	054b0605 	strbeq	r0, [fp, #-1541]	; 0xfffff9fb
    1904:	05010612 	streq	r0, [r1, #-1554]	; 0xfffff9ee
    1908:	0b052e16 	bleq	14d168 <__bss_end__+0x143160>
    190c:	0605052e 	streq	r0, [r5], -lr, lsr #10
    1910:	0608052f 	streq	r0, [r8], -pc, lsr #10
    1914:	04052e01 	streq	r2, [r5], #-3585	; 0xfffff1ff
    1918:	4a013006 	bmi	4d938 <__bss_end__+0x43930>
    191c:	02001501 	andeq	r1, r0, #4194304	; 0x400000
    1920:	36020104 	strcc	r0, [r2], -r4, lsl #2
    1924:	0402000f 	streq	r0, [r2], #-15
    1928:	02000101 	andeq	r0, r0, #1073741824	; 0x40000000
    192c:	05d60104 	ldrbeq	r0, [r6, #260]	; 0x104
    1930:	01133411 	tsteq	r3, r1, lsl r4
    1934:	02040200 	andeq	r0, r4, #0, 4
    1938:	0200ba06 	andeq	fp, r0, #24576	; 0x6000
    193c:	ba060304 	blt	182554 <__bss_end__+0x17854c>
    1940:	03040200 	movweq	r0, #16896	; 0x4200
    1944:	04020001 	streq	r0, [r2], #-1
    1948:	15051403 	strne	r1, [r5, #-1027]	; 0xfffffbfd
    194c:	03040200 	movweq	r0, #16896	; 0x4200
    1950:	11050106 	tstne	r5, r6, lsl #2
    1954:	03040200 	movweq	r0, #16896	; 0x4200
    1958:	1a052f06 	bne	14d578 <__bss_end__+0x143570>
    195c:	03040200 	movweq	r0, #16896	; 0x4200
    1960:	11050106 	tstne	r5, r6, lsl #2
    1964:	03040200 	movweq	r0, #16896	; 0x4200
    1968:	0200d706 	andeq	sp, r0, #1572864	; 0x180000
    196c:	00130304 	andseq	r0, r3, r4, lsl #6
    1970:	14030402 	strne	r0, [r3], #-1026	; 0xfffffbfe
    1974:	03040200 	movweq	r0, #16896	; 0x4200
    1978:	04020067 	streq	r0, [r2], #-103	; 0xffffff99
    197c:	14056803 	strne	r6, [r5], #-2051	; 0xfffff7fd
    1980:	03040200 	movweq	r0, #16896	; 0x4200
    1984:	13050106 	movwne	r0, #20742	; 0x5106
    1988:	03040200 	movweq	r0, #16896	; 0x4200
    198c:	06180582 	ldreq	r0, [r8], -r2, lsl #11
    1990:	061b054e 	ldreq	r0, [fp], -lr, asr #10
    1994:	821a0501 	andshi	r0, sl, #4194304	; 0x400000
    1998:	4b060905 	blmi	183db4 <__bss_end__+0x179dac>
    199c:	01060d05 	tsteq	r6, r5, lsl #26
    19a0:	0609052e 	streq	r0, [r9], -lr, lsr #10
    19a4:	05ba06f3 	ldreq	r0, [sl, #1779]!	; 0x6f3
    19a8:	05300615 	ldreq	r0, [r0, #-1557]!	; 0xfffff9eb
    19ac:	05010618 	streq	r0, [r1, #-1560]	; 0xfffff9e8
    19b0:	19056617 	stmdbne	r5, {r0, r1, r2, r4, r9, sl, sp, lr}
    19b4:	15054b06 	strne	r4, [r5, #-2822]	; 0xfffff4fa
    19b8:	666f0306 	strbtvs	r0, [pc], -r6, lsl #6
    19bc:	48061105 	stmdami	r6, {r0, r2, r8, ip}
    19c0:	0905d601 	stmdbeq	r5, {r0, r9, sl, ip, lr, pc}
    19c4:	052e0b03 	streq	r0, [lr, #-2819]!	; 0xfffff4fd
    19c8:	2e01060d 	cfmadd32cs	mvax0, mvfx0, mvfx1, mvfx13
    19cc:	f3060905 	vmls.i8	d0, d6, d5
    19d0:	1505ba06 	strne	fp, [r5, #-2566]	; 0xfffff5fa
    19d4:	03062f06 	movweq	r2, #28422	; 0x6f06
    19d8:	19056675 	stmdbne	r5, {r0, r2, r4, r5, r6, r9, sl, sp, lr}
    19dc:	4a130306 	bmi	4c25fc <__bss_end__+0x4b85f4>
    19e0:	03061505 	movweq	r1, #25861	; 0x6505
    19e4:	0306666d 	movweq	r6, #26221	; 0x666d
    19e8:	ba014a15 	blt	54244 <__bss_end__+0x4a23c>
    19ec:	05052e06 	streq	r2, [r5, #-3590]	; 0xfffff1fa
    19f0:	9e011a06 	vmlals.f32	s2, s2, s12
    19f4:	010e032e 	tsteq	lr, lr, lsr #6
    19f8:	01060905 	tsteq	r6, r5, lsl #18
    19fc:	08060505 	stmdaeq	r6, {r0, r2, r8, sl}
    1a00:	03040575 	movweq	r0, #17781	; 0x4575
    1a04:	07050118 	smladeq	r5, r8, r1, r0
    1a08:	04050106 	streq	r0, [r5], #-262	; 0xfffffefa
    1a0c:	05053106 	streq	r3, [r5, #-262]	; 0xfffffefa
    1a10:	052e6703 	streq	r6, [lr, #-1795]!	; 0xfffff8fd
    1a14:	0501061c 	streq	r0, [r1, #-1564]	; 0xfffff9e4
    1a18:	05058209 	streq	r8, [r5, #-521]	; 0xfffffdf7
    1a1c:	0531f306 	ldreq	pc, [r1, #-774]!	; 0xfffffcfa
    1a20:	0501061c 	streq	r0, [r1, #-1564]	; 0xfffff9e4
    1a24:	05058209 	streq	r8, [r5, #-521]	; 0xfffffdf7
    1a28:	0530f306 	ldreq	pc, [r0, #-774]!	; 0xfffffcfa
    1a2c:	0501061b 	streq	r0, [r1, #-1563]	; 0xfffff9e5
    1a30:	05058209 	streq	r8, [r5, #-521]	; 0xfffffdf7
    1a34:	0530f306 	ldreq	pc, [r0, #-774]!	; 0xfffffcfa
    1a38:	05010607 	streq	r0, [r1, #-1543]	; 0xfffff9f9
    1a3c:	30830605 	addcc	r0, r3, r5, lsl #12
    1a40:	01060905 	tsteq	r6, r5, lsl #18
    1a44:	08060505 	stmdaeq	r6, {r0, r2, r8, sl}
    1a48:	30110575 	andscc	r0, r1, r5, ror r5
    1a4c:	01062205 	tsteq	r6, r5, lsl #4
    1a50:	4b060505 	blmi	182e6c <__bss_end__+0x178e64>
    1a54:	05831105 	streq	r1, [r3, #261]	; 0x105
    1a58:	9e018305 	cdpls	3, 0, cr8, cr1, cr5, {0}
    1a5c:	060e0535 			; <UNDEFINED> instruction: 0x060e0535
    1a60:	2e0a0501 	cfsh32cs	mvfx0, mvfx10, #1
    1a64:	04052d06 	streq	r2, [r5], #-3334	; 0xfffff2fa
    1a68:	13050106 	movwne	r0, #20742	; 0x5106
    1a6c:	01040200 	mrseq	r0, R12_usr
    1a70:	0010054a 	andseq	r0, r0, sl, asr #10
    1a74:	2e010402 	cdpcs	4, 0, cr0, cr1, cr2, {0}
    1a78:	01040200 	mrseq	r0, R12_usr
    1a7c:	06020566 	streq	r0, [r2], -r6, ror #10
    1a80:	06070516 			; <UNDEFINED> instruction: 0x06070516
    1a84:	06020501 	streq	r0, [r2], -r1, lsl #10
    1a88:	0601054b 	streq	r0, [r1], -fp, asr #10
    1a8c:	1e026613 	mcrne	6, 0, r6, cr2, cr3, {0}
    1a90:	a7010100 	strge	r0, [r1, -r0, lsl #2]
    1a94:	03000000 	movweq	r0, #0
    1a98:	00008c00 	andeq	r8, r0, r0, lsl #24
    1a9c:	fb010200 	blx	422a6 <__bss_end__+0x3829e>
    1aa0:	01000d0e 	tsteq	r0, lr, lsl #26
    1aa4:	00010101 	andeq	r0, r1, r1, lsl #2
    1aa8:	00010000 	andeq	r0, r1, r0
    1aac:	2f2e0100 	svccs	0x002e0100
    1ab0:	66617473 			; <UNDEFINED> instruction: 0x66617473
    1ab4:	72732d66 	rsbsvc	r2, r3, #6528	; 0x1980
    1ab8:	552f0063 	strpl	r0, [pc, #-99]!	; 1a5d <__code_start__-0x65a3>
    1abc:	73726573 	cmnvc	r2, #482344960	; 0x1cc00000
    1ac0:	74616b2f 	strbtvc	r6, [r1], #-2863	; 0xfffff4d1
    1ac4:	65736565 	ldrbvs	r6, [r3, #-1381]!	; 0xfffffa9b
    1ac8:	7375696c 	cmnvc	r5, #108, 18	; 0x1b0000
    1acc:	636f442f 	cmnvs	pc, #788529152	; 0x2f000000
    1ad0:	6e656d75 	mcrvs	13, 3, r6, cr5, cr5, {3}
    1ad4:	432f7374 			; <UNDEFINED> instruction: 0x432f7374
    1ad8:	30343153 	eorscc	r3, r4, r3, asr r1
    1adc:	73632f45 	cmnvc	r3, #276	; 0x114
    1ae0:	45303431 	ldrmi	r3, [r0, #-1073]!	; 0xfffffbcf
    1ae4:	6e69662d 	cdpvs	6, 6, cr6, cr9, cr13, {1}
    1ae8:	702d6c61 	eorvc	r6, sp, r1, ror #24
    1aec:	656a6f72 	strbvs	r6, [sl, #-3954]!	; 0xfffff08e
    1af0:	6c2f7463 	cfstrsvs	mvf7, [pc], #-396	; 196c <__code_start__-0x6694>
    1af4:	2d736269 	lfmcs	f6, 2, [r3, #-420]!	; 0xfffffe5c
    1af8:	6c303432 	cfldrsvs	mvf3, [r0], #-200	; 0xffffff38
    1afc:	696c2f78 	stmdbvs	ip!, {r3, r4, r5, r6, r8, r9, sl, fp, sp}^
    1b00:	2f697062 	svccs	0x00697062
    1b04:	6c636e69 	stclvs	14, cr6, [r3], #-420	; 0xfffffe5c
    1b08:	00656475 	rsbeq	r6, r5, r5, ror r4
    1b0c:	656c6300 	strbvs	r6, [ip, #-768]!	; 0xfffffd00
    1b10:	722d6e61 	eorvc	r6, sp, #1552	; 0x610
    1b14:	6f6f6265 	svcvs	0x006f6265
    1b18:	00632e74 	rsbeq	r2, r3, r4, ror lr
    1b1c:	72000001 	andvc	r0, r0, #1, 0
    1b20:	682e6970 	stmdavs	lr!, {r4, r5, r6, r8, fp, sp, lr}
    1b24:	00000200 	andeq	r0, r0, r0, lsl #4
    1b28:	00190500 	andseq	r0, r9, r0, lsl #10
    1b2c:	8d8c0205 	sfmhi	f0, 4, [ip, #20]
    1b30:	05150000 	ldreq	r0, [r5, #-0]
    1b34:	2f832f05 	svccs	0x00832f05
    1b38:	0006024b 	andeq	r0, r6, fp, asr #4
    1b3c:	00c10101 	sbceq	r0, r1, r1, lsl #2
    1b40:	00030000 	andeq	r0, r3, r0
    1b44:	00000086 	andeq	r0, r0, r6, lsl #1
    1b48:	0efb0102 	cdpeq	1, 15, cr0, cr11, cr2, {0}
    1b4c:	0101000d 	tsteq	r1, sp
    1b50:	00000101 	andeq	r0, r0, r1, lsl #2
    1b54:	00000100 	andeq	r0, r0, r0, lsl #2
    1b58:	732f2e01 			; <UNDEFINED> instruction: 0x732f2e01
    1b5c:	66666174 			; <UNDEFINED> instruction: 0x66666174
    1b60:	6372732d 	cmnvs	r2, #-1275068416	; 0xb4000000
    1b64:	73552f00 	cmpvc	r5, #0, 30
    1b68:	2f737265 	svccs	0x00737265
    1b6c:	6574616b 	ldrbvs	r6, [r4, #-363]!	; 0xfffffe95
    1b70:	6c657365 	stclvs	3, cr7, [r5], #-404	; 0xfffffe6c
    1b74:	2f737569 	svccs	0x00737569
    1b78:	75636f44 	strbvc	r6, [r3, #-3908]!	; 0xfffff0bc
    1b7c:	746e656d 	strbtvc	r6, [lr], #-1389	; 0xfffffa93
    1b80:	53432f73 	movtpl	r2, #16243	; 0x3f73
    1b84:	45303431 	ldrmi	r3, [r0, #-1073]!	; 0xfffffbcf
    1b88:	3173632f 	cmncc	r3, pc, lsr #6
    1b8c:	2d453034 	stclcs	0, cr3, [r5, #-208]	; 0xffffff30
    1b90:	616e6966 	cmnvs	lr, r6, ror #18
    1b94:	72702d6c 	rsbsvc	r2, r0, #108, 26	; 0x1b00
    1b98:	63656a6f 	cmnvs	r5, #454656	; 0x6f000
    1b9c:	696c2f74 	stmdbvs	ip!, {r2, r4, r5, r6, r8, r9, sl, fp, sp}^
    1ba0:	322d7362 	eorcc	r7, sp, #-2013265919	; 0x88000001
    1ba4:	786c3034 	stmdavc	ip!, {r2, r4, r5, ip, sp}^
    1ba8:	62696c2f 	rsbvs	r6, r9, #12032	; 0x2f00
    1bac:	692f6970 	stmdbvs	pc!, {r4, r5, r6, r8, fp, sp, lr}	; <UNPREDICTABLE>
    1bb0:	756c636e 	strbvc	r6, [ip, #-878]!	; 0xfffffc92
    1bb4:	00006564 	andeq	r6, r0, r4, ror #10
    1bb8:	61747363 	cmnvs	r4, r3, ror #6
    1bbc:	632e7472 			; <UNDEFINED> instruction: 0x632e7472
    1bc0:	00000100 	andeq	r0, r0, r0, lsl #2
    1bc4:	2e697072 	mcrcs	0, 3, r7, cr9, cr2, {3}
    1bc8:	00020068 	andeq	r0, r2, r8, rrx
    1bcc:	10050000 	andne	r0, r5, r0
    1bd0:	b8020500 	stmdalt	r2, {r8, sl}
    1bd4:	1500008d 	strne	r0, [r0, #-141]	; 0xffffff73
    1bd8:	052f0505 	streq	r0, [pc, #-1285]!	; 16db <__code_start__-0x6925>
    1bdc:	05051302 	streq	r1, [r5, #-770]	; 0xfffffcfe
    1be0:	14133014 	ldrne	r3, [r3], #-20	; 0xffffffec
    1be4:	0f060a05 	svceq	0x00060a05
    1be8:	09053106 	stmdbeq	r5, {r1, r2, r8, ip, sp}
    1bec:	0610054b 	ldreq	r0, [r0], -fp, asr #10
    1bf0:	05054a01 	streq	r4, [r5, #-2561]	; 0xfffff5ff
    1bf4:	01323006 	teqeq	r2, r6
    1bf8:	05144a01 	ldreq	r4, [r4, #-2561]	; 0xfffff5ff
    1bfc:	06022f02 	streq	r2, [r2], -r2, lsl #30
    1c00:	a5010100 	strge	r0, [r1, #-256]	; 0xffffff00
    1c04:	03000000 	movweq	r0, #0
    1c08:	00008d00 	andeq	r8, r0, r0, lsl #26
    1c0c:	fb010200 	blx	42416 <__bss_end__+0x3840e>
    1c10:	01000d0e 	tsteq	r0, lr, lsl #26
    1c14:	00010101 	andeq	r0, r1, r1, lsl #2
    1c18:	00010000 	andeq	r0, r1, r0
    1c1c:	2f2e0100 	svccs	0x002e0100
    1c20:	66617473 			; <UNDEFINED> instruction: 0x66617473
    1c24:	72732d66 	rsbsvc	r2, r3, #6528	; 0x1980
    1c28:	552f0063 	strpl	r0, [pc, #-99]!	; 1bcd <__code_start__-0x6433>
    1c2c:	73726573 	cmnvc	r2, #482344960	; 0x1cc00000
    1c30:	74616b2f 	strbtvc	r6, [r1], #-2863	; 0xfffff4d1
    1c34:	65736565 	ldrbvs	r6, [r3, #-1381]!	; 0xfffffa9b
    1c38:	7375696c 	cmnvc	r5, #108, 18	; 0x1b0000
    1c3c:	636f442f 	cmnvs	pc, #788529152	; 0x2f000000
    1c40:	6e656d75 	mcrvs	13, 3, r6, cr5, cr5, {3}
    1c44:	432f7374 			; <UNDEFINED> instruction: 0x432f7374
    1c48:	30343153 	eorscc	r3, r4, r3, asr r1
    1c4c:	73632f45 	cmnvc	r3, #276	; 0x114
    1c50:	45303431 	ldrmi	r3, [r0, #-1073]!	; 0xfffffbcf
    1c54:	6e69662d 	cdpvs	6, 6, cr6, cr9, cr13, {1}
    1c58:	702d6c61 	eorvc	r6, sp, r1, ror #24
    1c5c:	656a6f72 	strbvs	r6, [sl, #-3954]!	; 0xfffff08e
    1c60:	6c2f7463 	cfstrsvs	mvf7, [pc], #-396	; 1adc <__code_start__-0x6524>
    1c64:	2d736269 	lfmcs	f6, 2, [r3, #-420]!	; 0xfffffe5c
    1c68:	6c303432 	cfldrsvs	mvf3, [r0], #-200	; 0xffffff38
    1c6c:	696c2f78 	stmdbvs	ip!, {r3, r4, r5, r6, r8, r9, sl, fp, sp}^
    1c70:	2f697062 	svccs	0x00697062
    1c74:	6c636e69 	stclvs	14, cr6, [r3], #-420	; 0xfffffe5c
    1c78:	00656475 	rsbeq	r6, r5, r5, ror r4
    1c7c:	73756300 	cmnvc	r5, #0, 6
    1c80:	2d6d6f74 	stclcs	15, cr6, [sp, #-464]!	; 0xfffffe30
    1c84:	64616f6c 	strbtvs	r6, [r1], #-3948	; 0xfffff094
    1c88:	632e7265 			; <UNDEFINED> instruction: 0x632e7265
    1c8c:	00000100 	andeq	r0, r0, r0, lsl #2
    1c90:	2e697072 	mcrcs	0, 3, r7, cr9, cr2, {3}
    1c94:	00020068 	andeq	r0, r2, r8, rrx
    1c98:	1a050000 	bne	141ca0 <__bss_end__+0x137c98>
    1c9c:	f4020500 	vst3.8	{d0,d2,d4}, [r2], r0
    1ca0:	1500008d 	strne	r0, [r0, #-141]	; 0xffffff73
    1ca4:	02140105 	andseq	r0, r4, #1073741825	; 0x40000001
    1ca8:	01010002 	tsteq	r1, r2
    1cac:	000000f5 	strdeq	r0, [r0], -r5
    1cb0:	00860003 	addeq	r0, r6, r3
    1cb4:	01020000 	mrseq	r0, (UNDEF: 2)
    1cb8:	000d0efb 	strdeq	r0, [sp], -fp
    1cbc:	01010101 	tsteq	r1, r1, lsl #2
    1cc0:	01000000 	mrseq	r0, (UNDEF: 0)
    1cc4:	2e010000 	cdpcs	0, 0, cr0, cr1, cr0, {0}
    1cc8:	6174732f 	cmnvs	r4, pc, lsr #6
    1ccc:	732d6666 			; <UNDEFINED> instruction: 0x732d6666
    1cd0:	2f006372 	svccs	0x00006372
    1cd4:	72657355 	rsbvc	r7, r5, #1409286145	; 0x54000001
    1cd8:	616b2f73 	smcvs	45811	; 0xb2f3
    1cdc:	73656574 	cmnvc	r5, #116, 10	; 0x1d000000
    1ce0:	75696c65 	strbvc	r6, [r9, #-3173]!	; 0xfffff39b
    1ce4:	6f442f73 	svcvs	0x00442f73
    1ce8:	656d7563 	strbvs	r7, [sp, #-1379]!	; 0xfffffa9d
    1cec:	2f73746e 	svccs	0x0073746e
    1cf0:	34315343 	ldrtcc	r5, [r1], #-835	; 0xfffffcbd
    1cf4:	632f4530 			; <UNDEFINED> instruction: 0x632f4530
    1cf8:	30343173 	eorscc	r3, r4, r3, ror r1
    1cfc:	69662d45 	stmdbvs	r6!, {r0, r2, r6, r8, sl, fp, sp}^
    1d00:	2d6c616e 	stfcse	f6, [ip, #-440]!	; 0xfffffe48
    1d04:	6a6f7270 	bvs	1bde6cc <__bss_end__+0x1bd46c4>
    1d08:	2f746365 	svccs	0x00746365
    1d0c:	7362696c 	cmnvc	r2, #108, 18	; 0x1b0000
    1d10:	3034322d 	eorscc	r3, r4, sp, lsr #4
    1d14:	6c2f786c 	stcvs	8, cr7, [pc], #-432	; 1b6c <__code_start__-0x6494>
    1d18:	69706269 	ldmdbvs	r0!, {r0, r3, r5, r6, r9, sp, lr}^
    1d1c:	636e692f 	cmnvs	lr, #770048	; 0xbc000
    1d20:	6564756c 	strbvs	r7, [r4, #-1388]!	; 0xfffffa94
    1d24:	65720000 	ldrbvs	r0, [r2, #-0]!
    1d28:	746f6f62 	strbtvc	r6, [pc], #-3938	; 1d30 <__code_start__-0x62d0>
    1d2c:	0100632e 	tsteq	r0, lr, lsr #6
    1d30:	70720000 	rsbsvc	r0, r2, r0
    1d34:	00682e69 	rsbeq	r2, r8, r9, ror #28
    1d38:	00000002 	andeq	r0, r0, r2
    1d3c:	05001905 	streq	r1, [r0, #-2309]	; 0xfffff6fb
    1d40:	008e1002 	addeq	r1, lr, r2
    1d44:	010d0300 	mrseq	r0, SP_mon
    1d48:	13130505 	tstne	r3, #20971520	; 0x1400000
    1d4c:	06130531 			; <UNDEFINED> instruction: 0x06130531
    1d50:	2f010501 	svccs	0x00010501
    1d54:	85061b05 	strhi	r1, [r6, #-2821]	; 0xfffff4fb
    1d58:	14130505 	ldrne	r0, [r3], #-1285	; 0xfffffafb
    1d5c:	052f0905 	streq	r0, [pc, #-2309]!	; 145f <__code_start__-0x6ba1>
    1d60:	05010616 	streq	r0, [r1, #-1558]	; 0xfffff9ea
    1d64:	05052e0e 	streq	r2, [r5, #-3598]	; 0xfffff1f2
    1d68:	01052f06 	tsteq	r5, r6, lsl #30
    1d6c:	17052f06 	strne	r2, [r5, -r6, lsl #30]
    1d70:	05053006 	streq	r3, [r5, #-6]
    1d74:	0608052f 	streq	r0, [r8], -pc, lsr #10
    1d78:	2e070501 	cfsh32cs	mvfx0, mvfx7, #1
    1d7c:	50060505 	andpl	r0, r6, r5, lsl #10
    1d80:	134d2f30 	movtne	r2, #57136	; 0xdf30
    1d84:	67151313 			; <UNDEFINED> instruction: 0x67151313
    1d88:	01040200 	mrseq	r0, R12_usr
    1d8c:	000d0567 	andeq	r0, sp, r7, ror #10
    1d90:	01010402 	tsteq	r1, r2, lsl #8
    1d94:	02000a05 	andeq	r0, r0, #20480	; 0x5000
    1d98:	05010104 	streq	r0, [r1, #-260]	; 0xfffffefc
    1d9c:	2e6d0309 	cdpcs	3, 6, cr0, cr13, cr9, {0}
    1da0:	01000c02 	tsteq	r0, r2, lsl #24
    1da4:	0000fc01 	andeq	pc, r0, r1, lsl #24
    1da8:	85000300 	strhi	r0, [r0, #-768]	; 0xfffffd00
    1dac:	02000000 	andeq	r0, r0, #0, 0
    1db0:	0d0efb01 	vstreq	d15, [lr, #-4]
    1db4:	01010100 	mrseq	r0, (UNDEF: 17)
    1db8:	00000001 	andeq	r0, r0, r1
    1dbc:	01000001 	tsteq	r0, r1
    1dc0:	74732f2e 	ldrbtvc	r2, [r3], #-3886	; 0xfffff0d2
    1dc4:	2d666661 	stclcs	6, cr6, [r6, #-388]!	; 0xfffffe7c
    1dc8:	00637273 	rsbeq	r7, r3, r3, ror r2
    1dcc:	6573552f 	ldrbvs	r5, [r3, #-1327]!	; 0xfffffad1
    1dd0:	6b2f7372 	blvs	bdeba0 <__bss_end__+0xbd4b98>
    1dd4:	65657461 	strbvs	r7, [r5, #-1121]!	; 0xfffffb9f
    1dd8:	696c6573 	stmdbvs	ip!, {r0, r1, r4, r5, r6, r8, sl, sp, lr}^
    1ddc:	442f7375 	strtmi	r7, [pc], #-885	; 1de4 <__code_start__-0x621c>
    1de0:	6d75636f 	ldclvs	3, cr6, [r5, #-444]!	; 0xfffffe44
    1de4:	73746e65 	cmnvc	r4, #1616	; 0x650
    1de8:	3153432f 	cmpcc	r3, pc, lsr #6
    1dec:	2f453034 	svccs	0x00453034
    1df0:	34317363 	ldrtcc	r7, [r1], #-867	; 0xfffffc9d
    1df4:	662d4530 			; <UNDEFINED> instruction: 0x662d4530
    1df8:	6c616e69 	stclvs	14, cr6, [r1], #-420	; 0xfffffe5c
    1dfc:	6f72702d 	svcvs	0x0072702d
    1e00:	7463656a 	strbtvc	r6, [r3], #-1386	; 0xfffffa96
    1e04:	62696c2f 	rsbvs	r6, r9, #12032	; 0x2f00
    1e08:	34322d73 	ldrtcc	r2, [r2], #-3443	; 0xfffff28d
    1e0c:	2f786c30 	svccs	0x00786c30
    1e10:	7062696c 	rsbvc	r6, r2, ip, ror #18
    1e14:	6e692f69 	cdpvs	15, 6, cr2, cr9, cr9, {3}
    1e18:	64756c63 	ldrbtvs	r6, [r5], #-3171	; 0xfffff39d
    1e1c:	74000065 	strvc	r0, [r0], #-101	; 0xffffff9b
    1e20:	72656d69 	rsbvc	r6, r5, #6720	; 0x1a40
    1e24:	0100632e 	tsteq	r0, lr, lsr #6
    1e28:	70720000 	rsbsvc	r0, r2, r0
    1e2c:	00682e69 	rsbeq	r2, r8, r9, ror #28
    1e30:	00000002 	andeq	r0, r0, r2
    1e34:	05002305 	streq	r2, [r0, #-773]	; 0xfffffcfb
    1e38:	008e9002 	addeq	r9, lr, r2
    1e3c:	05051500 	streq	r1, [r5, #-1280]	; 0xfffffb00
    1e40:	060c052f 	streq	r0, [ip], -pc, lsr #10
    1e44:	4b010501 	blmi	43250 <__bss_end__+0x39248>
    1e48:	4d061f05 	stcmi	15, cr1, [r6, #-20]	; 0xffffffec
    1e4c:	2f310505 	svccs	0x00310505
    1e50:	01061205 	tsteq	r6, r5, lsl #4
    1e54:	4b060505 	blmi	183270 <__bss_end__+0x179268>
    1e58:	0601052f 	streq	r0, [r1], -pc, lsr #10
    1e5c:	061c0513 			; <UNDEFINED> instruction: 0x061c0513
    1e60:	0501064c 	streq	r0, [r1, #-1612]	; 0xfffff9b4
    1e64:	054b0605 	strbeq	r0, [fp, #-1541]	; 0xfffff9fb
    1e68:	2e010613 	mcrcs	6, 0, r0, cr1, cr3, {0}
    1e6c:	2f060505 	svccs	0x00060505
    1e70:	05130905 	ldreq	r0, [r3, #-2309]	; 0xfffff6fb
    1e74:	05010617 	streq	r0, [r1, #-1559]	; 0xfffff9e9
    1e78:	052f0609 	streq	r0, [pc, #-1545]!	; 1877 <__code_start__-0x6789>
    1e7c:	05010611 	streq	r0, [r1, #-1553]	; 0xfffff9ef
    1e80:	1c052e0c 	stcne	14, cr2, [r5], {12}
    1e84:	01066b06 	tsteq	r6, r6, lsl #22
    1e88:	2f060505 	svccs	0x00060505
    1e8c:	01054a06 	tsteq	r5, r6, lsl #20
    1e90:	061e054b 	ldreq	r0, [lr], -fp, asr #10
    1e94:	0501062f 	streq	r0, [r1, #-1583]	; 0xfffff9d1
    1e98:	062f0605 	strteq	r0, [pc], -r5, lsl #12
    1e9c:	4b01054a 	blmi	433cc <__bss_end__+0x393c4>
    1ea0:	01000202 	tsteq	r0, r2, lsl #4
    1ea4:	0001bb01 	andeq	fp, r1, r1, lsl #22
    1ea8:	bf000300 	svclt	0x00000300
    1eac:	02000000 	andeq	r0, r0, #0, 0
    1eb0:	0d0efb01 	vstreq	d15, [lr, #-4]
    1eb4:	01010100 	mrseq	r0, (UNDEF: 17)
    1eb8:	00000001 	andeq	r0, r0, r1
    1ebc:	01000001 	tsteq	r0, r1
    1ec0:	6d6f682f 	stclvs	8, cr6, [pc, #-188]!	; 1e0c <__code_start__-0x61f4>
    1ec4:	6e652f65 	cdpvs	15, 6, cr2, cr5, cr5, {3}
    1ec8:	72656c67 	rsbvc	r6, r5, #26368	; 0x6700
    1ecc:	616c632f 	cmnvs	ip, pc, lsr #6
    1ed0:	632f7373 			; <UNDEFINED> instruction: 0x632f7373
    1ed4:	30343273 	eorscc	r3, r4, r3, ror r2
    1ed8:	322d786c 	eorcc	r7, sp, #108, 16	; 0x6c0000
    1edc:	72707332 	rsbsvc	r7, r0, #-939524096	; 0xc8000000
    1ee0:	696c2f2f 	stmdbvs	ip!, {r0, r1, r2, r3, r5, r8, r9, sl, fp, sp}^
    1ee4:	2f697062 	svccs	0x00697062
    1ee8:	6c636e69 	stclvs	14, cr6, [r3], #-420	; 0xfffffe5c
    1eec:	00656475 	rsbeq	r6, r5, r5, ror r4
    1ef0:	7273752f 	rsbsvc	r7, r3, #197132288	; 0xbc00000
    1ef4:	6168732f 	cmnvs	r8, pc, lsr #6
    1ef8:	672f6572 			; <UNDEFINED> instruction: 0x672f6572
    1efc:	612d6363 			; <UNDEFINED> instruction: 0x612d6363
    1f00:	6e2d6d72 	mcrvs	13, 1, r6, cr13, cr2, {3}
    1f04:	2d656e6f 	stclcs	14, cr6, [r5, #-444]!	; 0xfffffe44
    1f08:	69626165 	stmdbvs	r2!, {r0, r2, r5, r6, r8, sp, lr}^
    1f0c:	2e30312d 	rsfcssp	f3, f0, #5.0
    1f10:	30322d33 	eorscc	r2, r2, r3, lsr sp
    1f14:	312e3132 			; <UNDEFINED> instruction: 0x312e3132
    1f18:	696c2f30 	stmdbvs	ip!, {r4, r5, r8, r9, sl, fp, sp}^
    1f1c:	63672f62 	cmnvs	r7, #392	; 0x188
    1f20:	72612f63 	rsbvc	r2, r1, #396	; 0x18c
    1f24:	6f6e2d6d 	svcvs	0x006e2d6d
    1f28:	652d656e 	strvs	r6, [sp, #-1390]!	; 0xfffffa92
    1f2c:	2f696261 	svccs	0x00696261
    1f30:	332e3031 			; <UNDEFINED> instruction: 0x332e3031
    1f34:	692f312e 	stmdbvs	pc!, {r1, r2, r3, r5, r8, ip, sp}	; <UNPREDICTABLE>
    1f38:	756c636e 	strbvc	r6, [ip, #-878]!	; 0xfffffc92
    1f3c:	00006564 	andeq	r6, r0, r4, ror #10
    1f40:	6f697067 	svcvs	0x00697067
    1f44:	0000632e 	andeq	r6, r0, lr, lsr #6
    1f48:	70720000 	rsbsvc	r0, r2, r0
    1f4c:	00682e69 	rsbeq	r2, r8, r9, ror #28
    1f50:	73000001 	movwvc	r0, #1
    1f54:	6e696474 	mcrvs	4, 3, r6, cr9, cr4, {3}
    1f58:	63672d74 	cmnvs	r7, #116, 26	; 0x1d00
    1f5c:	00682e63 	rsbeq	r2, r8, r3, ror #28
    1f60:	67000002 	strvs	r0, [r0, -r2]
    1f64:	2e6f6970 			; <UNDEFINED> instruction: 0x2e6f6970
    1f68:	00010068 	andeq	r0, r1, r8, rrx
    1f6c:	38050000 	stmdacc	r5, {}	; <UNPREDICTABLE>
    1f70:	14020500 	strne	r0, [r2], #-1280	; 0xfffffb00
    1f74:	0300008f 	movweq	r0, #143	; 0x8f
    1f78:	05050127 	streq	r0, [r5, #-295]	; 0xfffffed9
    1f7c:	06070513 			; <UNDEFINED> instruction: 0x06070513
    1f80:	49380501 	ldmdbmi	r8!, {r0, r8, sl}
    1f84:	4d060505 	cfstr32mi	mvfx0, [r6, #-20]	; 0xffffffec
    1f88:	01060705 	tsteq	r6, r5, lsl #14
    1f8c:	4c060505 	cfstr32mi	mvfx0, [r6], {5}
    1f90:	01061805 	tsteq	r6, r5, lsl #16
    1f94:	05ba0e05 	ldreq	r0, [sl, #3589]!	; 0xe05
    1f98:	052f0605 	streq	r0, [pc, #-1541]!	; 199b <__code_start__-0x6665>
    1f9c:	2e01061c 	mcrcs	6, 0, r0, cr1, cr12, {0}
    1fa0:	052e0e05 	streq	r0, [lr, #-3589]!	; 0xfffff1fb
    1fa4:	05300605 	ldreq	r0, [r0, #-1541]!	; 0xfffff9fb
    1fa8:	05010612 	streq	r0, [r1, #-1554]	; 0xfffff9ee
    1fac:	054b0605 	strbeq	r0, [fp, #-1541]	; 0xfffff9fb
    1fb0:	05010607 	streq	r0, [r1, #-1543]	; 0xfffff9f9
    1fb4:	134b0605 	movtne	r0, #46597	; 0xb605
    1fb8:	01052e06 	tsteq	r5, r6, lsl #28
    1fbc:	0624054b 	strteq	r0, [r4], -fp, asr #10
    1fc0:	0501064c 	streq	r0, [r1, #-1612]	; 0xfffff9b4
    1fc4:	052f0605 	streq	r0, [pc, #-1541]!	; 19c7 <__code_start__-0x6639>
    1fc8:	054b0601 	strbeq	r0, [fp, #-1537]	; 0xfffff9ff
    1fcc:	05310620 	ldreq	r0, [r1, #-1568]!	; 0xfffff9e0
    1fd0:	07051305 	streq	r1, [r5, -r5, lsl #6]
    1fd4:	20050106 	andcs	r0, r5, r6, lsl #2
    1fd8:	06050549 	streq	r0, [r5], -r9, asr #10
    1fdc:	05660631 	strbeq	r0, [r6, #-1585]!	; 0xfffff9cf
    1fe0:	21052f01 	tstcs	r5, r1, lsl #30
    1fe4:	05054d06 	streq	r4, [r5, #-3334]	; 0xfffff2fa
    1fe8:	06070513 			; <UNDEFINED> instruction: 0x06070513
    1fec:	49210501 	stmdbmi	r1!, {r0, r8, sl}
    1ff0:	31060505 	tstcc	r6, r5, lsl #10
    1ff4:	01056606 	tsteq	r5, r6, lsl #12
    1ff8:	0623052f 	strteq	r0, [r3], -pc, lsr #10
    1ffc:	0501064d 	streq	r0, [r1, #-1613]	; 0xfffff9b3
    2000:	052f0605 	streq	r0, [pc, #-1541]!	; 1a03 <__code_start__-0x65fd>
    2004:	054b0601 	strbeq	r0, [fp, #-1537]	; 0xfffff9ff
    2008:	0631062b 	ldrteq	r0, [r1], -fp, lsr #12
    200c:	06050501 	streq	r0, [r5], -r1, lsl #10
    2010:	0607052f 	streq	r0, [r7], -pc, lsr #10
    2014:	06090501 	streq	r0, [r9], -r1, lsl #10
    2018:	062e064b 	strteq	r0, [lr], -fp, asr #12
    201c:	06010530 			; <UNDEFINED> instruction: 0x06010530
    2020:	061d052f 	ldreq	r0, [sp], -pc, lsr #10
    2024:	13050530 	movwne	r0, #21808	; 0x5530
    2028:	01060705 	tsteq	r6, r5, lsl #14
    202c:	05491d05 	strbeq	r1, [r9, #-3333]	; 0xfffff2fb
    2030:	13310605 	teqne	r1, #5242880	; 0x500000
    2034:	01060e05 	tsteq	r6, r5, lsl #28
    2038:	2f060505 	svccs	0x00060505
    203c:	01061705 	tsteq	r6, r5, lsl #14
    2040:	2e23054a 	cfsh64cs	mvdx0, mvdx3, #42
    2044:	30050204 	andcc	r0, r5, r4, lsl #4
    2048:	00dc0306 	sbcseq	r0, ip, r6, lsl #6
    204c:	0501042e 	streq	r0, [r1, #-1070]	; 0xfffffbd2
    2050:	a403060c 	strge	r0, [r3], #-1548	; 0xfffff9f4
    2054:	0105017f 	tsteq	r5, pc, ror r1
    2058:	2a10052f 	bcs	40351c <__bss_end__+0x3f9514>
    205c:	02320105 	eorseq	r0, r2, #1073741825	; 0x40000001
    2060:	01010004 	tsteq	r1, r4
    2064:	00000205 	andeq	r0, r0, r5, lsl #4
    2068:	00c90003 	sbceq	r0, r9, r3
    206c:	01020000 	mrseq	r0, (UNDEF: 2)
    2070:	000d0efb 	strdeq	r0, [sp], -fp
    2074:	01010101 	tsteq	r1, r1, lsl #2
    2078:	01000000 	mrseq	r0, (UNDEF: 0)
    207c:	2f010000 	svccs	0x00010000
    2080:	656d6f68 	strbvs	r6, [sp, #-3944]!	; 0xfffff098
    2084:	676e652f 	strbvs	r6, [lr, -pc, lsr #10]!
    2088:	2f72656c 	svccs	0x0072656c
    208c:	73616c63 	cmnvc	r1, #25344	; 0x6300
    2090:	73632f73 	cmnvc	r3, #460	; 0x1cc
    2094:	6c303432 	cfldrsvs	mvf3, [r0], #-200	; 0xffffff38
    2098:	32322d78 	eorscc	r2, r2, #120, 26	; 0x1e00
    209c:	2f727073 	svccs	0x00727073
    20a0:	62696c2f 	rsbvs	r6, r9, #12032	; 0x2f00
    20a4:	692f6970 	stmdbvs	pc!, {r4, r5, r6, r8, fp, sp, lr}	; <UNPREDICTABLE>
    20a8:	756c636e 	strbvc	r6, [ip, #-878]!	; 0xfffffc92
    20ac:	2f006564 	svccs	0x00006564
    20b0:	2f727375 	svccs	0x00727375
    20b4:	72616873 	rsbvc	r6, r1, #7536640	; 0x730000
    20b8:	63672f65 	cmnvs	r7, #404	; 0x194
    20bc:	72612d63 	rsbvc	r2, r1, #6336	; 0x18c0
    20c0:	6f6e2d6d 	svcvs	0x006e2d6d
    20c4:	652d656e 	strvs	r6, [sp, #-1390]!	; 0xfffffa92
    20c8:	2d696261 	sfmcs	f6, 2, [r9, #-388]!	; 0xfffffe7c
    20cc:	332e3031 			; <UNDEFINED> instruction: 0x332e3031
    20d0:	3230322d 	eorscc	r3, r0, #-805306366	; 0xd0000002
    20d4:	30312e31 	eorscc	r2, r1, r1, lsr lr
    20d8:	62696c2f 	rsbvs	r6, r9, #12032	; 0x2f00
    20dc:	6363672f 	cmnvs	r3, #12320768	; 0xbc0000
    20e0:	6d72612f 	ldfvse	f6, [r2, #-188]!	; 0xffffff44
    20e4:	6e6f6e2d 	cdpvs	14, 6, cr6, cr15, cr13, {1}
    20e8:	61652d65 	cmnvs	r5, r5, ror #26
    20ec:	312f6962 			; <UNDEFINED> instruction: 0x312f6962
    20f0:	2e332e30 	mrccs	14, 1, r2, cr3, cr0, {1}
    20f4:	6e692f31 	mcrvs	15, 3, r2, cr9, cr1, {1}
    20f8:	64756c63 	ldrbtvs	r6, [r5], #-3171	; 0xfffff39d
    20fc:	75000065 	strvc	r0, [r0, #-101]	; 0xffffff9b
    2100:	2e747261 	cdpcs	2, 7, cr7, cr4, cr1, {3}
    2104:	00000063 	andeq	r0, r0, r3, rrx
    2108:	72617500 	rsbvc	r7, r1, #0, 10
    210c:	00682e74 	rsbeq	r2, r8, r4, ror lr
    2110:	72000001 	andvc	r0, r0, #1, 0
    2114:	682e6970 	stmdavs	lr!, {r4, r5, r6, r8, fp, sp, lr}
    2118:	00000100 	andeq	r0, r0, r0, lsl #2
    211c:	6f697067 	svcvs	0x00697067
    2120:	0100682e 	tsteq	r0, lr, lsr #16
    2124:	74730000 	ldrbtvc	r0, [r3], #-0
    2128:	746e6964 	strbtvc	r6, [lr], #-2404	; 0xfffff69c
    212c:	6363672d 	cmnvs	r3, #11796480	; 0xb40000
    2130:	0200682e 	andeq	r6, r0, #3014656	; 0x2e0000
    2134:	05000000 	streq	r0, [r0, #-0]
    2138:	02050039 	andeq	r0, r5, #57, 0	; 0x39
    213c:	00009030 	andeq	r9, r0, r0, lsr r0
    2140:	06013003 	streq	r3, [r1], -r3
    2144:	06050501 	streq	r0, [r5], -r1, lsl #10
    2148:	06110567 	ldreq	r0, [r1], -r7, ror #10
    214c:	2e050501 	cfsh32cs	mvfx0, mvfx5, #1
    2150:	05670105 	strbeq	r0, [r7, #-261]!	; 0xfffffefb
    2154:	06290638 			; <UNDEFINED> instruction: 0x06290638
    2158:	06050501 	streq	r0, [r5], -r1, lsl #10
    215c:	06110567 	ldreq	r0, [r1], -r7, ror #10
    2160:	2e050501 	cfsh32cs	mvfx0, mvfx5, #1
    2164:	05670105 	strbeq	r0, [r7, #-261]!	; 0xfffffefb
    2168:	15030616 	strne	r0, [r3, #-1558]	; 0xfffff9ea
    216c:	3505052e 	strcc	r0, [r5, #-1326]	; 0xfffffad2
    2170:	68356867 	ldmdavs	r5!, {r0, r1, r2, r5, r6, fp, sp, lr}
    2174:	852e0c03 	strhi	r0, [lr, #-3075]!	; 0xfffff3fd
    2178:	0369696b 	cmneq	r9, #1753088	; 0x1ac000
    217c:	6b13660c 	blvs	4db9b4 <__bss_end__+0x4d19ac>
    2180:	06010567 	streq	r0, [r1], -r7, ror #10
    2184:	0619052f 	ldreq	r0, [r9], -pc, lsr #10
    2188:	05052508 	streq	r2, [r5, #-1288]	; 0xfffffaf8
    218c:	060d0534 			; <UNDEFINED> instruction: 0x060d0534
    2190:	4c010501 	cfstr32mi	mvfx0, [r1], {1}
    2194:	67061905 	strvs	r1, [r6, -r5, lsl #18]
    2198:	05360505 	ldreq	r0, [r6, #-1285]!	; 0xfffffafb
    219c:	0501060d 	streq	r0, [r1, #-1549]	; 0xfffff9f3
    21a0:	01054a28 	tsteq	r5, r8, lsr #20
    21a4:	06150530 			; <UNDEFINED> instruction: 0x06150530
    21a8:	2f050587 	svccs	0x00050587
    21ac:	0009052f 	andeq	r0, r9, pc, lsr #10
    21b0:	13010402 	movwne	r0, #5122	; 0x1402
    21b4:	02000a05 	andeq	r0, r0, #20480	; 0x5000
    21b8:	05110104 	ldreq	r0, [r1, #-260]	; 0xfffffefc
    21bc:	0402000c 	streq	r0, [r2], #-12
    21c0:	05010601 	streq	r0, [r1, #-1537]	; 0xfffff9ff
    21c4:	0402000a 	streq	r0, [r2], #-10
    21c8:	05052e01 	streq	r2, [r5, #-3585]	; 0xfffff1ff
    21cc:	0e054c06 	cdpeq	12, 0, cr4, cr5, cr6, {0}
    21d0:	09050106 	stmdbeq	r5, {r1, r2, r8}
    21d4:	0605054a 	streq	r0, [r5], -sl, asr #10
    21d8:	01052f2f 	tsteq	r5, pc, lsr #30
    21dc:	1c051306 	stcne	3, cr1, [r5], {6}
    21e0:	01066706 	tsteq	r6, r6, lsl #14
    21e4:	4b060505 	blmi	183600 <__bss_end__+0x1795f8>
    21e8:	0009052f 	andeq	r0, r9, pc, lsr #10
    21ec:	13010402 	movwne	r0, #5122	; 0x1402
    21f0:	02000a05 	andeq	r0, r0, #20480	; 0x5000
    21f4:	05110104 	ldreq	r0, [r1, #-260]	; 0xfffffefc
    21f8:	0402000c 	streq	r0, [r2], #-12
    21fc:	05010601 	streq	r0, [r1, #-1537]	; 0xfffff9ff
    2200:	0402000a 	streq	r0, [r2], #-10
    2204:	05052e01 	streq	r2, [r5, #-3585]	; 0xfffff1ff
    2208:	05674c06 	strbeq	r4, [r7, #-3078]!	; 0xfffff3fa
    220c:	052f0601 	streq	r0, [pc, #-1537]!	; 1c13 <__code_start__-0x63ed>
    2210:	054c0619 	strbeq	r0, [ip, #-1561]	; 0xfffff9e7
    2214:	2a052e1b 	bcs	14da88 <__bss_end__+0x143a80>
    2218:	0631052e 	ldrteq	r0, [r1], -lr, lsr #10
    221c:	2e420501 	cdpcs	5, 4, cr0, cr2, cr1, {0}
    2220:	31061c05 	tstcc	r6, r5, lsl #24
    2224:	032f0505 			; <UNDEFINED> instruction: 0x032f0505
    2228:	0e052e09 	cdpeq	14, 0, cr2, cr5, cr9, {0}
    222c:	21050106 	tstcs	r5, r6, lsl #2
    2230:	0301054a 	movweq	r0, #5450	; 0x154a
    2234:	1a052e0a 	bne	14da64 <__bss_end__+0x143a5c>
    2238:	09056806 	stmdbeq	r5, {r1, r2, fp, sp, lr}
    223c:	01040200 	mrseq	r0, R12_usr
    2240:	000a0530 	andeq	r0, sl, r0, lsr r5
    2244:	11010402 	tstne	r1, r2, lsl #8
    2248:	02000c05 	andeq	r0, r0, #1280	; 0x500
    224c:	01060104 	tsteq	r6, r4, lsl #2
    2250:	02000a05 	andeq	r0, r0, #20480	; 0x5000
    2254:	052e0104 	streq	r0, [lr, #-260]!	; 0xfffffefc
    2258:	e8030619 	stmda	r3, {r0, r3, r4, r9, sl}
    225c:	0505667e 	streq	r6, [r5, #-1662]	; 0xfffff982
    2260:	672f2f2f 	strvs	r2, [pc, -pc, lsr #30]!
    2264:	2f060105 	svccs	0x00060105
    2268:	01000402 	tsteq	r0, r2, lsl #8
    226c:	0000c001 	andeq	ip, r0, r1
    2270:	82000300 	andhi	r0, r0, #0, 6
    2274:	02000000 	andeq	r0, r0, #0, 0
    2278:	0d0efb01 	vstreq	d15, [lr, #-4]
    227c:	01010100 	mrseq	r0, (UNDEF: 17)
    2280:	00000001 	andeq	r0, r0, r1
    2284:	01000001 	tsteq	r0, r1
    2288:	696c2f2e 	stmdbvs	ip!, {r1, r2, r3, r5, r8, r9, sl, fp, sp}^
    228c:	2f006362 	svccs	0x00006362
    2290:	72657355 	rsbvc	r7, r5, #1409286145	; 0x54000001
    2294:	616b2f73 	smcvs	45811	; 0xb2f3
    2298:	73656574 	cmnvc	r5, #116, 10	; 0x1d000000
    229c:	75696c65 	strbvc	r6, [r9, #-3173]!	; 0xfffff39b
    22a0:	6f442f73 	svcvs	0x00442f73
    22a4:	656d7563 	strbvs	r7, [sp, #-1379]!	; 0xfffffa9d
    22a8:	2f73746e 	svccs	0x0073746e
    22ac:	34315343 	ldrtcc	r5, [r1], #-835	; 0xfffffcbd
    22b0:	632f4530 			; <UNDEFINED> instruction: 0x632f4530
    22b4:	30343173 	eorscc	r3, r4, r3, ror r1
    22b8:	69662d45 	stmdbvs	r6!, {r0, r2, r6, r8, sl, fp, sp}^
    22bc:	2d6c616e 	stfcse	f6, [ip, #-440]!	; 0xfffffe48
    22c0:	6a6f7270 	bvs	1bdec88 <__bss_end__+0x1bd4c80>
    22c4:	2f746365 	svccs	0x00746365
    22c8:	7362696c 	cmnvc	r2, #108, 18	; 0x1b0000
    22cc:	3034322d 	eorscc	r3, r4, sp, lsr #4
    22d0:	6c2f786c 	stcvs	8, cr7, [pc], #-432	; 2128 <__code_start__-0x5ed8>
    22d4:	69706269 	ldmdbvs	r0!, {r0, r3, r5, r6, r9, sp, lr}^
    22d8:	636e692f 	cmnvs	lr, #770048	; 0xbc000
    22dc:	6564756c 	strbvs	r7, [r4, #-1388]!	; 0xfffffa94
    22e0:	75700000 	ldrbvc	r0, [r0, #-0]!
    22e4:	61686374 	smcvs	34356	; 0x8634
    22e8:	00632e72 	rsbeq	r2, r3, r2, ror lr
    22ec:	72000001 	andvc	r0, r0, #1, 0
    22f0:	682e6970 	stmdavs	lr!, {r4, r5, r6, r8, fp, sp, lr}
    22f4:	00000200 	andeq	r0, r0, r0, lsl #4
    22f8:	00240500 	eoreq	r0, r4, r0, lsl #10
    22fc:	92200205 	eorls	r0, r0, #1342177280	; 0x50000000
    2300:	06140000 	ldreq	r0, [r4], -r0
    2304:	06260501 	strteq	r0, [r6], -r1, lsl #10
    2308:	2e34054a 	cdpcs	5, 3, cr0, cr4, cr10, {2}
    230c:	01060105 	tsteq	r6, r5, lsl #2
    2310:	4f061b05 	svcmi	0x00061b05
    2314:	05130505 	ldreq	r0, [r3, #-1285]	; 0xfffffafb
    2318:	05010611 	streq	r0, [r1, #-1553]	; 0xfffff9ef
    231c:	23056701 	movwcs	r6, #22273	; 0x5701
    2320:	05056706 	streq	r6, [r5, #-1798]	; 0xfffff8fa
    2324:	06110513 			; <UNDEFINED> instruction: 0x06110513
    2328:	4b010501 	blmi	43734 <__bss_end__+0x3972c>
    232c:	01000402 	tsteq	r0, r2, lsl #8
    2330:	00010c01 	andeq	r0, r1, r1, lsl #24
    2334:	81000300 	mrshi	r0, LR_irq
    2338:	02000000 	andeq	r0, r0, #0, 0
    233c:	0d0efb01 	vstreq	d15, [lr, #-4]
    2340:	01010100 	mrseq	r0, (UNDEF: 17)
    2344:	00000001 	andeq	r0, r0, r1
    2348:	01000001 	tsteq	r0, r1
    234c:	696c2f2e 	stmdbvs	ip!, {r1, r2, r3, r5, r8, r9, sl, fp, sp}^
    2350:	2f006362 	svccs	0x00006362
    2354:	72657355 	rsbvc	r7, r5, #1409286145	; 0x54000001
    2358:	616b2f73 	smcvs	45811	; 0xb2f3
    235c:	73656574 	cmnvc	r5, #116, 10	; 0x1d000000
    2360:	75696c65 	strbvc	r6, [r9, #-3173]!	; 0xfffff39b
    2364:	6f442f73 	svcvs	0x00442f73
    2368:	656d7563 	strbvs	r7, [sp, #-1379]!	; 0xfffffa9d
    236c:	2f73746e 	svccs	0x0073746e
    2370:	34315343 	ldrtcc	r5, [r1], #-835	; 0xfffffcbd
    2374:	632f4530 			; <UNDEFINED> instruction: 0x632f4530
    2378:	30343173 	eorscc	r3, r4, r3, ror r1
    237c:	69662d45 	stmdbvs	r6!, {r0, r2, r6, r8, sl, fp, sp}^
    2380:	2d6c616e 	stfcse	f6, [ip, #-440]!	; 0xfffffe48
    2384:	6a6f7270 	bvs	1bded4c <__bss_end__+0x1bd4d44>
    2388:	2f746365 	svccs	0x00746365
    238c:	7362696c 	cmnvc	r2, #108, 18	; 0x1b0000
    2390:	3034322d 	eorscc	r3, r4, sp, lsr #4
    2394:	6c2f786c 	stcvs	8, cr7, [pc], #-432	; 21ec <__code_start__-0x5e14>
    2398:	69706269 	ldmdbvs	r0!, {r0, r3, r5, r6, r9, sp, lr}^
    239c:	636e692f 	cmnvs	lr, #770048	; 0xbc000
    23a0:	6564756c 	strbvs	r7, [r4, #-1388]!	; 0xfffffa94
    23a4:	74730000 	ldrbtvc	r0, [r3], #-0
    23a8:	74616372 	strbtvc	r6, [r1], #-882	; 0xfffffc8e
    23ac:	0100632e 	tsteq	r0, lr, lsr #6
    23b0:	70720000 	rsbsvc	r0, r2, r0
    23b4:	00682e69 	rsbeq	r2, r8, r9, ror #28
    23b8:	00000002 	andeq	r0, r0, r2
    23bc:	05002c05 	streq	r2, [r0, #-3077]	; 0xfffff3fb
    23c0:	00925c02 	addseq	r5, r2, r2, lsl #24
    23c4:	05051500 	streq	r1, [r5, #-1280]	; 0xfffffb00
    23c8:	0b051313 	bleq	14701c <__bss_end__+0x13d014>
    23cc:	05051106 	streq	r1, [r5, #-262]	; 0xfffffefa
    23d0:	01040200 	mrseq	r0, R12_usr
    23d4:	02003006 	andeq	r3, r0, #6, 0
    23d8:	05150104 	ldreq	r0, [r5, #-260]	; 0xfffffefc
    23dc:	04020009 	streq	r0, [r2], #-9
    23e0:	10051301 	andne	r1, r5, r1, lsl #6
    23e4:	01040200 	mrseq	r0, R12_usr
    23e8:	0b052e06 	bleq	14dc08 <__bss_end__+0x143c00>
    23ec:	01040200 	mrseq	r0, R12_usr
    23f0:	0402002e 	streq	r0, [r2], #-46	; 0xffffffd2
    23f4:	052f0601 	streq	r0, [pc, #-1537]!	; 1dfb <__code_start__-0x6205>
    23f8:	04020005 	streq	r0, [r2], #-5
    23fc:	06010601 	streq	r0, [r1], -r1, lsl #12
    2400:	0608054e 	streq	r0, [r8], -lr, asr #10
    2404:	00050501 	andeq	r0, r5, r1, lsl #10
    2408:	06010402 	streq	r0, [r1], -r2, lsl #8
    240c:	0009052f 	andeq	r0, r9, pc, lsr #10
    2410:	13010402 	movwne	r0, #5122	; 0x1402
    2414:	02000b05 	andeq	r0, r0, #5120	; 0x1400
    2418:	01060104 	tsteq	r6, r4, lsl #2
    241c:	02000905 	andeq	r0, r0, #81920	; 0x14000
    2420:	4b060104 	blmi	182838 <__bss_end__+0x178830>
    2424:	02000f05 	andeq	r0, r0, #5, 30
    2428:	01060104 	tsteq	r6, r4, lsl #2
    242c:	02000d05 	andeq	r0, r0, #320	; 0x140
    2430:	2f060104 	svccs	0x00060104
    2434:	02000505 	andeq	r0, r0, #20971520	; 0x1400000
    2438:	01060104 	tsteq	r6, r4, lsl #2
    243c:	01000602 	tsteq	r0, r2, lsl #12
    2440:	0000c501 	andeq	ip, r0, r1, lsl #10
    2444:	81000300 	mrshi	r0, LR_irq
    2448:	02000000 	andeq	r0, r0, #0, 0
    244c:	0d0efb01 	vstreq	d15, [lr, #-4]
    2450:	01010100 	mrseq	r0, (UNDEF: 17)
    2454:	00000001 	andeq	r0, r0, r1
    2458:	01000001 	tsteq	r0, r1
    245c:	696c2f2e 	stmdbvs	ip!, {r1, r2, r3, r5, r8, r9, sl, fp, sp}^
    2460:	2f006362 	svccs	0x00006362
    2464:	72657355 	rsbvc	r7, r5, #1409286145	; 0x54000001
    2468:	616b2f73 	smcvs	45811	; 0xb2f3
    246c:	73656574 	cmnvc	r5, #116, 10	; 0x1d000000
    2470:	75696c65 	strbvc	r6, [r9, #-3173]!	; 0xfffff39b
    2474:	6f442f73 	svcvs	0x00442f73
    2478:	656d7563 	strbvs	r7, [sp, #-1379]!	; 0xfffffa9d
    247c:	2f73746e 	svccs	0x0073746e
    2480:	34315343 	ldrtcc	r5, [r1], #-835	; 0xfffffcbd
    2484:	632f4530 			; <UNDEFINED> instruction: 0x632f4530
    2488:	30343173 	eorscc	r3, r4, r3, ror r1
    248c:	69662d45 	stmdbvs	r6!, {r0, r2, r6, r8, sl, fp, sp}^
    2490:	2d6c616e 	stfcse	f6, [ip, #-440]!	; 0xfffffe48
    2494:	6a6f7270 	bvs	1bdee5c <__bss_end__+0x1bd4e54>
    2498:	2f746365 	svccs	0x00746365
    249c:	7362696c 	cmnvc	r2, #108, 18	; 0x1b0000
    24a0:	3034322d 	eorscc	r3, r4, sp, lsr #4
    24a4:	6c2f786c 	stcvs	8, cr7, [pc], #-432	; 22fc <__code_start__-0x5d04>
    24a8:	69706269 	ldmdbvs	r0!, {r0, r3, r5, r6, r9, sp, lr}^
    24ac:	636e692f 	cmnvs	lr, #770048	; 0xbc000
    24b0:	6564756c 	strbvs	r7, [r4, #-1388]!	; 0xfffffa94
    24b4:	74730000 	ldrbtvc	r0, [r3], #-0
    24b8:	706d6372 	rsbvc	r6, sp, r2, ror r3
    24bc:	0100632e 	tsteq	r0, lr, lsr #6
    24c0:	70720000 	rsbsvc	r0, r2, r0
    24c4:	00682e69 	rsbeq	r2, r8, r9, ror #28
    24c8:	00000002 	andeq	r0, r0, r2
    24cc:	05002a05 	streq	r2, [r0, #-2565]	; 0xfffff5fb
    24d0:	00929002 	addseq	r9, r2, r2
    24d4:	09051400 	stmdbeq	r5, {sl, ip}
    24d8:	010f0513 	tsteq	pc, r3, lsl r5	; <UNPREDICTABLE>
    24dc:	01061005 	tsteq	r6, r5
    24e0:	052e0f05 	streq	r0, [lr, #-3845]!	; 0xfffff0fb
    24e4:	0402001c 	streq	r0, [r2], #-28	; 0xffffffe4
    24e8:	13054a01 	movwne	r4, #23041	; 0x5a01
    24ec:	01040200 	mrseq	r0, R12_usr
    24f0:	0611052e 	ldreq	r0, [r1], -lr, lsr #10
    24f4:	0616052f 	ldreq	r0, [r6], -pc, lsr #10
    24f8:	09052e2e 	stmdbeq	r5, {r1, r2, r3, r5, r9, sl, fp, sp}
    24fc:	15052f06 	strne	r2, [r5, #-3846]	; 0xfffff0fa
    2500:	01050106 	tsteq	r5, r6, lsl #2
    2504:	0004022f 	andeq	r0, r4, pc, lsr #4
    2508:	00c30101 	sbceq	r0, r3, r1, lsl #2
    250c:	00030000 	andeq	r0, r3, r0
    2510:	00000081 	andeq	r0, r0, r1, lsl #1
    2514:	0efb0102 	cdpeq	1, 15, cr0, cr11, cr2, {0}
    2518:	0101000d 	tsteq	r1, sp
    251c:	00000101 	andeq	r0, r0, r1, lsl #2
    2520:	00000100 	andeq	r0, r0, r0, lsl #2
    2524:	6c2f2e01 	stcvs	14, cr2, [pc], #-4	; 2528 <__code_start__-0x5ad8>
    2528:	00636269 	rsbeq	r6, r3, r9, ror #4
    252c:	6573552f 	ldrbvs	r5, [r3, #-1327]!	; 0xfffffad1
    2530:	6b2f7372 	blvs	bdf300 <__bss_end__+0xbd52f8>
    2534:	65657461 	strbvs	r7, [r5, #-1121]!	; 0xfffffb9f
    2538:	696c6573 	stmdbvs	ip!, {r0, r1, r4, r5, r6, r8, sl, sp, lr}^
    253c:	442f7375 	strtmi	r7, [pc], #-885	; 2544 <__code_start__-0x5abc>
    2540:	6d75636f 	ldclvs	3, cr6, [r5, #-444]!	; 0xfffffe44
    2544:	73746e65 	cmnvc	r4, #1616	; 0x650
    2548:	3153432f 	cmpcc	r3, pc, lsr #6
    254c:	2f453034 	svccs	0x00453034
    2550:	34317363 	ldrtcc	r7, [r1], #-867	; 0xfffffc9d
    2554:	662d4530 			; <UNDEFINED> instruction: 0x662d4530
    2558:	6c616e69 	stclvs	14, cr6, [r1], #-420	; 0xfffffe5c
    255c:	6f72702d 	svcvs	0x0072702d
    2560:	7463656a 	strbtvc	r6, [r3], #-1386	; 0xfffffa96
    2564:	62696c2f 	rsbvs	r6, r9, #12032	; 0x2f00
    2568:	34322d73 	ldrtcc	r2, [r2], #-3443	; 0xfffff28d
    256c:	2f786c30 	svccs	0x00786c30
    2570:	7062696c 	rsbvc	r6, r2, ip, ror #18
    2574:	6e692f69 	cdpvs	15, 6, cr2, cr9, cr9, {3}
    2578:	64756c63 	ldrbtvs	r6, [r5], #-3171	; 0xfffff39d
    257c:	73000065 	movwvc	r0, #101	; 0x65
    2580:	70637274 	rsbvc	r7, r3, r4, ror r2
    2584:	00632e79 	rsbeq	r2, r3, r9, ror lr
    2588:	72000001 	andvc	r0, r0, #1, 0
    258c:	682e6970 	stmdavs	lr!, {r4, r5, r6, r8, fp, sp, lr}
    2590:	00000200 	andeq	r0, r0, r0, lsl #4
    2594:	002a0500 	eoreq	r0, sl, r0, lsl #10
    2598:	92bc0205 	adcsls	r0, ip, #1342177280	; 0x50000000
    259c:	05140000 	ldreq	r0, [r4, #-0]
    25a0:	05131305 	ldreq	r1, [r3, #-773]	; 0xfffffcfb
    25a4:	05110614 	ldreq	r0, [r1, #-1556]	; 0xfffff9ec
    25a8:	04020022 	streq	r0, [r2], #-34	; 0xffffffde
    25ac:	052f0601 	streq	r0, [pc, #-1537]!	; 1fb3 <__code_start__-0x604d>
    25b0:	0402000b 	streq	r0, [r2], #-11
    25b4:	15050101 	strne	r0, [r5, #-257]	; 0xfffffeff
    25b8:	01040200 	mrseq	r0, R12_usr
    25bc:	13050106 	movwne	r0, #20742	; 0x5106
    25c0:	01040200 	mrseq	r0, R12_usr
    25c4:	000b054a 	andeq	r0, fp, sl, asr #10
    25c8:	4a010402 	bmi	435d8 <__bss_end__+0x395d0>
    25cc:	01000602 	tsteq	r0, r2, lsl #12
    25d0:	00012601 	andeq	r2, r1, r1, lsl #12
    25d4:	ea000300 	b	31dc <__code_start__-0x4e24>
    25d8:	02000000 	andeq	r0, r0, #0, 0
    25dc:	0d0efb01 	vstreq	d15, [lr, #-4]
    25e0:	01010100 	mrseq	r0, (UNDEF: 17)
    25e4:	00000001 	andeq	r0, r0, r1
    25e8:	01000001 	tsteq	r0, r1
    25ec:	696c2f2e 	stmdbvs	ip!, {r1, r2, r3, r5, r8, r9, sl, fp, sp}^
    25f0:	2f006362 	svccs	0x00006362
    25f4:	72657355 	rsbvc	r7, r5, #1409286145	; 0x54000001
    25f8:	616b2f73 	smcvs	45811	; 0xb2f3
    25fc:	73656574 	cmnvc	r5, #116, 10	; 0x1d000000
    2600:	75696c65 	strbvc	r6, [r9, #-3173]!	; 0xfffff39b
    2604:	6f442f73 	svcvs	0x00442f73
    2608:	656d7563 	strbvs	r7, [sp, #-1379]!	; 0xfffffa9d
    260c:	2f73746e 	svccs	0x0073746e
    2610:	34315343 	ldrtcc	r5, [r1], #-835	; 0xfffffcbd
    2614:	632f4530 			; <UNDEFINED> instruction: 0x632f4530
    2618:	30343173 	eorscc	r3, r4, r3, ror r1
    261c:	69662d45 	stmdbvs	r6!, {r0, r2, r6, r8, sl, fp, sp}^
    2620:	2d6c616e 	stfcse	f6, [ip, #-440]!	; 0xfffffe48
    2624:	6a6f7270 	bvs	1bdefec <__bss_end__+0x1bd4fe4>
    2628:	2f746365 	svccs	0x00746365
    262c:	7362696c 	cmnvc	r2, #108, 18	; 0x1b0000
    2630:	3034322d 	eorscc	r3, r4, sp, lsr #4
    2634:	6c2f786c 	stcvs	8, cr7, [pc], #-432	; 248c <__code_start__-0x5b74>
    2638:	69706269 	ldmdbvs	r0!, {r0, r3, r5, r6, r9, sp, lr}^
    263c:	636e692f 	cmnvs	lr, #770048	; 0xbc000
    2640:	6564756c 	strbvs	r7, [r4, #-1388]!	; 0xfffffa94
    2644:	706f2f00 	rsbvc	r2, pc, r0, lsl #30
    2648:	6f682f74 	svcvs	0x00682f74
    264c:	7262656d 	rsbvc	r6, r2, #457179136	; 0x1b400000
    2650:	432f7765 			; <UNDEFINED> instruction: 0x432f7765
    2654:	616c6c65 	cmnvs	ip, r5, ror #24
    2658:	72612f72 	rsbvc	r2, r1, #456	; 0x1c8
    265c:	6f6e2d6d 	svcvs	0x006e2d6d
    2660:	652d656e 	strvs	r6, [sp, #-1390]!	; 0xfffffa92
    2664:	2d696261 	sfmcs	f6, 2, [r9, #-388]!	; 0xfffffe7c
    2668:	74736574 	ldrbtvc	r6, [r3], #-1396	; 0xfffffa8c
    266c:	322d392f 	eorcc	r3, sp, #770048	; 0xbc000
    2670:	71393130 	teqvc	r9, r0, lsr r1
    2674:	73632d34 	cmnvc	r3, #52, 26	; 0xd00
    2678:	65373031 	ldrvs	r3, [r7, #-49]!	; 0xffffffcf
    267c:	62696c2f 	rsbvs	r6, r9, #12032	; 0x2f00
    2680:	6363672f 	cmnvs	r3, #12320768	; 0xbc0000
    2684:	6d72612f 	ldfvse	f6, [r2, #-188]!	; 0xffffff44
    2688:	6e6f6e2d 	cdpvs	14, 6, cr6, cr15, cr13, {1}
    268c:	61652d65 	cmnvs	r5, r5, ror #26
    2690:	392f6962 	stmdbcc	pc!, {r1, r5, r6, r8, fp, sp, lr}	; <UNPREDICTABLE>
    2694:	312e322e 			; <UNDEFINED> instruction: 0x312e322e
    2698:	636e692f 	cmnvs	lr, #770048	; 0xbc000
    269c:	6564756c 	strbvs	r7, [r4, #-1388]!	; 0xfffffa94
    26a0:	74730000 	ldrbtvc	r0, [r3], #-0
    26a4:	6d636e72 	stclvs	14, cr6, [r3, #-456]!	; 0xfffffe38
    26a8:	00632e70 	rsbeq	r2, r3, r0, ror lr
    26ac:	72000001 	andvc	r0, r0, #1, 0
    26b0:	682e6970 	stmdavs	lr!, {r4, r5, r6, r8, fp, sp, lr}
    26b4:	00000200 	andeq	r0, r0, r0, lsl #4
    26b8:	64647473 	strbtvs	r7, [r4], #-1139	; 0xfffffb8d
    26bc:	682e6665 	stmdavs	lr!, {r0, r2, r5, r6, r9, sl, sp, lr}
    26c0:	00000300 	andeq	r0, r0, r0, lsl #6
    26c4:	00390500 	eorseq	r0, r9, r0, lsl #10
    26c8:	92dc0205 	sbcsls	r0, ip, #1342177280	; 0x50000000
    26cc:	05150000 	ldreq	r0, [r5, #-0]
    26d0:	05131305 	ldreq	r1, [r3, #-773]	; 0xfffffcfb
    26d4:	0106010a 	tsteq	r6, sl, lsl #2
    26d8:	0609054a 	streq	r0, [r9], -sl, asr #10
    26dc:	060c052f 	streq	r0, [ip], -pc, lsr #10
    26e0:	2e130501 	cfmul32cs	mvfx0, mvfx3, mvfx1
    26e4:	052e0b05 	streq	r0, [lr, #-2821]!	; 0xfffff4fb
    26e8:	054b060d 	strbeq	r0, [fp, #-1549]	; 0xfffff9f3
    26ec:	2e01061b 	mcrcs	6, 0, r0, cr1, cr11, {0}
    26f0:	05300c05 	ldreq	r0, [r0, #-3077]!	; 0xfffff3fb
    26f4:	02022f01 	andeq	r2, r2, #1, 30
    26f8:	b2010100 	andlt	r0, r1, #0
    26fc:	03000000 	movweq	r0, #0
    2700:	00009600 	andeq	r9, r0, r0, lsl #12
    2704:	fb010200 	blx	42f0e <__bss_end__+0x38f06>
    2708:	01000d0e 	tsteq	r0, lr, lsl #26
    270c:	00010101 	andeq	r0, r1, r1, lsl #2
    2710:	00010000 	andeq	r0, r1, r0
    2714:	2f2e0100 	svccs	0x002e0100
    2718:	66617473 			; <UNDEFINED> instruction: 0x66617473
    271c:	72732d66 	rsbsvc	r2, r3, #6528	; 0x1980
    2720:	552f0063 	strpl	r0, [pc, #-99]!	; 26c5 <__code_start__-0x593b>
    2724:	73726573 	cmnvc	r2, #482344960	; 0x1cc00000
    2728:	74616b2f 	strbtvc	r6, [r1], #-2863	; 0xfffff4d1
    272c:	65736565 	ldrbvs	r6, [r3, #-1381]!	; 0xfffffa9b
    2730:	7375696c 	cmnvc	r5, #108, 18	; 0x1b0000
    2734:	636f442f 	cmnvs	pc, #788529152	; 0x2f000000
    2738:	6e656d75 	mcrvs	13, 3, r6, cr5, cr5, {3}
    273c:	432f7374 			; <UNDEFINED> instruction: 0x432f7374
    2740:	30343153 	eorscc	r3, r4, r3, asr r1
    2744:	73632f45 	cmnvc	r3, #276	; 0x114
    2748:	45303431 	ldrmi	r3, [r0, #-1073]!	; 0xfffffbcf
    274c:	6e69662d 	cdpvs	6, 6, cr6, cr9, cr13, {1}
    2750:	702d6c61 	eorvc	r6, sp, r1, ror #24
    2754:	656a6f72 	strbvs	r6, [sl, #-3954]!	; 0xfffff08e
    2758:	6c2f7463 	cfstrsvs	mvf7, [pc], #-396	; 25d4 <__code_start__-0x5a2c>
    275c:	2d736269 	lfmcs	f6, 2, [r3, #-420]!	; 0xfffffe5c
    2760:	6c303432 	cfldrsvs	mvf3, [r0], #-200	; 0xffffff38
    2764:	696c2f78 	stmdbvs	ip!, {r3, r4, r5, r6, r8, r9, sl, fp, sp}^
    2768:	2f697062 	svccs	0x00697062
    276c:	6c636e69 	stclvs	14, cr6, [r3], #-420	; 0xfffffe5c
    2770:	00656475 	rsbeq	r6, r5, r5, ror r4
    2774:	66656400 	strbtvs	r6, [r5], -r0, lsl #8
    2778:	746c7561 	strbtvc	r7, [ip], #-1377	; 0xfffffa9f
    277c:	6265722d 	rsbvs	r7, r5, #-805306366	; 0xd0000002
    2780:	2d746f6f 	ldclcs	15, cr6, [r4, #-444]!	; 0xfffffe44
    2784:	6c6c6163 	stfvse	f6, [ip], #-396	; 0xfffffe74
    2788:	2e74756f 	cdpcs	5, 7, cr7, cr4, cr15, {3}
    278c:	00010063 	andeq	r0, r1, r3, rrx
    2790:	69707200 	ldmdbvs	r0!, {r9, ip, sp, lr}^
    2794:	0200682e 	andeq	r6, r0, #3014656	; 0x2e0000
    2798:	05000000 	streq	r0, [r0, #-0]
    279c:	0205001b 	andeq	r0, r5, #27, 0
    27a0:	00009308 	andeq	r9, r0, r8, lsl #6
    27a4:	011c0514 	tsteq	ip, r4, lsl r5
    27a8:	01060105 	tsteq	r6, r5, lsl #2
    27ac:	01000202 	tsteq	r0, r2, lsl #4
    27b0:	Address 0x00000000000027b0 is out of bounds.


Disassembly of section .debug_str:

00000000 <.debug_str>:
   0:	6573552f 	ldrbvs	r5, [r3, #-1327]!	; 0xfffffad1
   4:	6b2f7372 	blvs	bdcdd4 <__bss_end__+0xbd2dcc>
   8:	65657461 	strbvs	r7, [r5, #-1121]!	; 0xfffffb9f
   c:	696c6573 	stmdbvs	ip!, {r0, r1, r4, r5, r6, r8, sl, sp, lr}^
  10:	442f7375 	strtmi	r7, [pc], #-885	; 18 <__code_start__-0x7fe8>
  14:	6d75636f 	ldclvs	3, cr6, [r5, #-444]!	; 0xfffffe44
  18:	73746e65 	cmnvc	r4, #1616	; 0x650
  1c:	3153432f 	cmpcc	r3, pc, lsr #6
  20:	2f453034 	svccs	0x00453034
  24:	34317363 	ldrtcc	r7, [r1], #-867	; 0xfffffc9d
  28:	662d4530 			; <UNDEFINED> instruction: 0x662d4530
  2c:	6c616e69 	stclvs	14, cr6, [r1], #-420	; 0xfffffe5c
  30:	6f72702d 	svcvs	0x0072702d
  34:	7463656a 	strbtvc	r6, [r3], #-1386	; 0xfffffa96
  38:	6c65722f 	sfmvs	f7, 2, [r5], #-188	; 0xffffff44
  3c:	6e617665 	cdpvs	6, 6, cr7, cr1, cr5, {3}
  40:	616c2d74 	smcvs	49876	; 0xc2d4
  44:	6d2f7362 	stcvs	3, cr7, [pc, #-392]!	; fffffec4 <__bss_end__+0xffff5ebc>
  48:	6f726369 	svcvs	0x00726369
  4c:	6e6f6870 	mcrvs	8, 3, r6, cr15, cr0, {3}
  50:	73632d65 	cmnvc	r3, #6464	; 0x1940
  54:	6c303432 	cfldrsvs	mvf3, [r0], #-200	; 0xffffff38
  58:	37312d78 			; <UNDEFINED> instruction: 0x37312d78
  5c:	7332692d 	teqvc	r2, #737280	; 0xb4000
  60:	646f632f 	strbtvs	r6, [pc], #-815	; 68 <__code_start__-0x7f98>
  64:	6f6e0065 	svcvs	0x006e0065
  68:	69616d74 	stmdbvs	r1!, {r2, r4, r5, r6, r8, sl, fp, sp, lr}^
  6c:	6e75006e 	cdpvs	0, 7, cr0, cr5, cr14, {3}
  70:	6e676973 			; <UNDEFINED> instruction: 0x6e676973
  74:	63206465 			; <UNDEFINED> instruction: 0x63206465
  78:	00726168 	rsbseq	r6, r2, r8, ror #2
  7c:	61656c63 	cmnvs	r5, r3, ror #24
  80:	65725f6e 	ldrbvs	r5, [r2, #-3950]!	; 0xfffff092
  84:	746f6f62 	strbtvc	r6, [pc], #-3938	; 8c <__code_start__-0x7f74>
  88:	6f687300 	svcvs	0x00687300
  8c:	75207472 	strvc	r7, [r0, #-1138]!	; 0xfffffb8e
  90:	6769736e 	strbvs	r7, [r9, -lr, ror #6]!
  94:	2064656e 	rsbcs	r6, r4, lr, ror #10
  98:	00746e69 	rsbseq	r6, r4, r9, ror #28
  9c:	656d6974 	strbvs	r6, [sp, #-2420]!	; 0xfffff68c
  a0:	65675f72 	strbvs	r5, [r7, #-3954]!	; 0xfffff08e
  a4:	73755f74 	cmnvc	r5, #116, 30	; 0x1d0
  a8:	47006365 	strmi	r6, [r0, -r5, ror #6]
  ac:	4320554e 			; <UNDEFINED> instruction: 0x4320554e
  b0:	39203939 	stmdbcc	r0!, {r0, r3, r4, r5, r8, fp, ip, sp}
  b4:	312e322e 			; <UNDEFINED> instruction: 0x312e322e
  b8:	31303220 	teqcc	r0, r0, lsr #4
  bc:	32303139 	eorscc	r3, r0, #1073741838	; 0x4000000e
  c0:	72282035 	eorvc	r2, r8, #53, 0	; 0x35
  c4:	61656c65 	cmnvs	r5, r5, ror #24
  c8:	20296573 	eorcs	r6, r9, r3, ror r5
  cc:	4d52415b 	ldfmie	f4, [r2, #-364]	; 0xfffffe94
  d0:	6d72612f 	ldfvse	f6, [r2, #-188]!	; 0xffffff44
  d4:	622d392d 	eorvs	r3, sp, #737280	; 0xb4000
  d8:	636e6172 	cmnvs	lr, #-2147483620	; 0x8000001c
  dc:	65722068 	ldrbvs	r2, [r2, #-104]!	; 0xffffff98
  e0:	69736976 	ldmdbvs	r3!, {r1, r2, r4, r5, r6, r8, fp, sp, lr}^
  e4:	32206e6f 	eorcc	r6, r0, #1776	; 0x6f0
  e8:	39353737 	ldmdbcc	r5!, {r0, r1, r2, r4, r5, r8, r9, sl, ip, sp}
  ec:	2d205d39 	stccs	13, cr5, [r0, #-228]!	; 0xffffff1c
  f0:	7570636d 	ldrbvc	r6, [r0, #-877]!	; 0xfffffc93
  f4:	6d72613d 	ldfvse	f6, [r2, #-244]!	; 0xffffff0c
  f8:	36373131 			; <UNDEFINED> instruction: 0x36373131
  fc:	2d667a6a 	vstmdbcs	r6!, {s15-s120}
 100:	6d2d2073 	stcvs	0, cr2, [sp, #-460]!	; 0xfffffe34
 104:	656e7574 	strbvs	r7, [lr, #-1396]!	; 0xfffffa8c
 108:	6d72613d 	ldfvse	f6, [r2, #-244]!	; 0xffffff0c
 10c:	36373131 			; <UNDEFINED> instruction: 0x36373131
 110:	2d667a6a 	vstmdbcs	r6!, {s15-s120}
 114:	6d2d2073 	stcvs	0, cr2, [sp, #-460]!	; 0xfffffe34
 118:	616f6c66 	cmnvs	pc, r6, ror #24
 11c:	62612d74 	rsbvs	r2, r1, #116, 26	; 0x1d00
 120:	6f733d69 	svcvs	0x00733d69
 124:	2d207466 	cfstrscs	mvf7, [r0, #-408]!	; 0xfffffe68
 128:	6d72616d 	ldfvse	f6, [r2, #-436]!	; 0xfffffe4c
 12c:	616d2d20 	cmnvs	sp, r0, lsr #26
 130:	3d686372 	stclcc	3, cr6, [r8, #-456]!	; 0xfffffe38
 134:	766d7261 	strbtvc	r7, [sp], -r1, ror #4
 138:	207a6b36 	rsbscs	r6, sl, r6, lsr fp
 13c:	6467672d 	strbtvs	r6, [r7], #-1837	; 0xfffff8d3
 140:	4f2d2062 	svcmi	0x002d2062
 144:	732d2033 			; <UNDEFINED> instruction: 0x732d2033
 148:	673d6474 			; <UNDEFINED> instruction: 0x673d6474
 14c:	3939756e 	ldmdbcc	r9!, {r1, r2, r3, r5, r6, r8, sl, ip, sp, lr}
 150:	66662d20 	strbtvs	r2, [r6], -r0, lsr #26
 154:	73656572 	cmnvc	r5, #478150656	; 0x1c800000
 158:	646e6174 	strbtvs	r6, [lr], #-372	; 0xfffffe8c
 15c:	00676e69 	rsbeq	r6, r7, r9, ror #28
 160:	74736574 	ldrbtvc	r6, [r3], #-1396	; 0xfffffa8c
 164:	2d352f73 	ldccs	15, cr2, [r5, #-460]!	; 0xfffffe34
 168:	2d746666 	ldclcs	6, cr6, [r4, #-408]!	; 0xfffffe68
 16c:	656d6974 	strbvs	r6, [sp, #-2420]!	; 0xfffff68c
 170:	6c00632e 	stcvs	3, cr6, [r0], {46}	; 0x2e
 174:	20676e6f 	rsbcs	r6, r7, pc, ror #28
 178:	676e6f6c 	strbvs	r6, [lr, -ip, ror #30]!
 17c:	736e7520 	cmnvc	lr, #32, 10	; 0x8000000
 180:	656e6769 	strbvs	r6, [lr, #-1897]!	; 0xfffff897
 184:	6e692064 	cdpvs	0, 6, cr2, cr9, cr4, {3}
 188:	66660074 			; <UNDEFINED> instruction: 0x66660074
 18c:	69665f74 	stmdbvs	r6!, {r2, r4, r5, r6, r8, r9, sl, fp, ip, lr}^
 190:	5f646578 	svcpl	0x00646578
 194:	74666663 	strbtvc	r6, [r6], #-1635	; 0xfffff99d
 198:	746e6900 	strbtvc	r6, [lr], #-2304	; 0xfffff700
 19c:	745f3631 	ldrbvc	r3, [pc], #-1585	; 1a4 <__code_start__-0x7e5c>
 1a0:	6e6f6c00 	cdpvs	12, 6, cr6, cr15, cr0, {0}
 1a4:	6f6c2067 	svcvs	0x006c2067
 1a8:	6920676e 	stmdbvs	r0!, {r1, r2, r3, r5, r6, r8, r9, sl, sp, lr}
 1ac:	7200746e 	andvc	r7, r0, #1845493760	; 0x6e000000
 1b0:	705f6970 	subsvc	r6, pc, r0, ror r9	; <UNPREDICTABLE>
 1b4:	68637475 	stmdavs	r3!, {r0, r2, r4, r5, r6, sl, ip, sp, lr}^
 1b8:	73007261 	movwvc	r7, #609	; 0x261
 1bc:	74726f68 	ldrbtvc	r6, [r2], #-3944	; 0xfffff098
 1c0:	746e6920 	strbtvc	r6, [lr], #-2336	; 0xfffff6e0
 1c4:	6e697500 	cdpvs	5, 6, cr7, cr9, cr0, {0}
 1c8:	5f323374 	svcpl	0x00323374
 1cc:	6d630074 	stclvs	0, cr0, [r3, #-464]!	; 0xfffffe30
 1d0:	6765725f 			; <UNDEFINED> instruction: 0x6765725f
 1d4:	00745f73 	rsbseq	r5, r4, r3, ror pc
 1d8:	5f533249 	svcpl	0x00533249
 1dc:	525f5343 	subspl	r5, pc, #201326593	; 0xc000001
 1e0:	524c4358 	subpl	r4, ip, #88, 6	; 0x60000001
 1e4:	53324900 	teqpl	r2, #0, 18
 1e8:	5f53435f 	svcpl	0x0053435f
 1ec:	43004e45 	movwmi	r4, #3653	; 0xe45
 1f0:	00415f53 	subeq	r5, r1, r3, asr pc
 1f4:	5f533249 	svcpl	0x00533249
 1f8:	5f435852 	svcpl	0x00435852
 1fc:	57314843 	ldrpl	r4, [r1, -r3, asr #16]!
 200:	555f4449 	ldrbpl	r4, [pc, #-1097]	; fffffdbf <__bss_end__+0xffff5db7>
 204:	6e690042 	cdpvs	0, 6, cr0, cr9, cr2, {2}
 208:	74735f74 	ldrbtvc	r5, [r3], #-3956	; 0xfffff08c
 20c:	4f4d0063 	svcmi	0x004d0063
 210:	415f4544 	cmpmi	pc, r4, asr #10
 214:	53324900 	teqpl	r2, #0, 18
 218:	4358525f 	cmpmi	r8, #-268435451	; 0xf0000005
 21c:	3148435f 	cmpcc	r8, pc, asr r3
 220:	5f534f50 	svcpl	0x00534f50
 224:	4900424c 	stmdbmi	r0, {r2, r3, r6, r9, lr}
 228:	525f5332 	subspl	r5, pc, #-939524096	; 0xc8000000
 22c:	435f4358 	cmpmi	pc, #88, 6	; 0x60000001
 230:	45573248 	ldrbmi	r3, [r7, #-584]	; 0xfffffdb8
 234:	72670058 	rsbvc	r0, r7, #88, 0	; 0x58
 238:	69007961 	stmdbvs	r0, {r0, r5, r6, r8, fp, ip, sp, lr}
 23c:	725f7332 	subsvc	r7, pc, #-939524096	; 0xc8000000
 240:	5f736765 	svcpl	0x00736765
 244:	50470074 	subpl	r0, r7, r4, ror r0
 248:	465f4f49 	ldrbmi	r4, [pc], -r9, asr #30
 24c:	5f434e55 	svcpl	0x00434e55
 250:	5054554f 	subspl	r5, r4, pc, asr #10
 254:	69005455 	stmdbvs	r0, {r0, r2, r4, r6, sl, ip, lr}
 258:	655f746e 	ldrbvs	r7, [pc, #-1134]	; fffffdf2 <__bss_end__+0xffff5dea>
 25c:	4350006e 	cmpmi	r0, #110, 0	; 0x6e
 260:	54435f4d 	strbpl	r5, [r3], #-3917	; 0xfffff0b3
 264:	70004c52 	andvc	r4, r0, r2, asr ip
 268:	635f6d63 	cmpvs	pc, #6336	; 0x18c0
 26c:	006c7274 	rsbeq	r7, ip, r4, ror r2
 270:	65646f6d 	strbvs	r6, [r4, #-3949]!	; 0xfffff093
 274:	53324900 	teqpl	r2, #0, 18
 278:	5f53435f 	svcpl	0x0053435f
 27c:	59425453 	stmdbpl	r2, {r0, r1, r4, r6, sl, ip, lr}^
 280:	4d435000 	stclmi	0, cr5, [r3, #-0]
 284:	5649445f 			; <UNDEFINED> instruction: 0x5649445f
 288:	73326900 	teqvc	r2, #0, 18
 28c:	4700632e 	strmi	r6, [r0, -lr, lsr #6]
 290:	5f4f4950 	svcpl	0x004f4950
 294:	434e5546 	movtmi	r5, #58694	; 0xe546
 298:	544c415f 	strbpl	r4, [ip], #-351	; 0xfffffea1
 29c:	50470031 	subpl	r0, r7, r1, lsr r0
 2a0:	465f4f49 	ldrbmi	r4, [pc], -r9, asr #30
 2a4:	5f434e55 	svcpl	0x00434e55
 2a8:	32544c41 	subscc	r4, r4, #16640	; 0x4100
 2ac:	49504700 	ldmdbmi	r0, {r8, r9, sl, lr}^
 2b0:	55465f4f 	strbpl	r5, [r6, #-3919]	; 0xfffff0b1
 2b4:	415f434e 	cmpmi	pc, lr, asr #6
 2b8:	0033544c 	eorseq	r5, r3, ip, asr #8
 2bc:	4f495047 	svcmi	0x00495047
 2c0:	4e55465f 	mrcmi	6, 2, r4, cr5, cr15, {2}
 2c4:	4c415f43 	mcrrmi	15, 4, r5, r1, cr3
 2c8:	47003454 	smlsdmi	r0, r4, r4, r3
 2cc:	5f4f4950 	svcpl	0x004f4950
 2d0:	434e5546 	movtmi	r5, #58694	; 0xe546
 2d4:	544c415f 	strbpl	r4, [ip], #-351	; 0xfffffea1
 2d8:	32690035 	rsbcc	r0, r9, #53, 0	; 0x35
 2dc:	65725f73 	ldrbvs	r5, [r2, #-3955]!	; 0xfffff08d
 2e0:	62007367 	andvs	r7, r0, #-1677721599	; 0x9c000001
 2e4:	735f7469 	cmpvc	pc, #1761607680	; 0x69000000
 2e8:	49007465 	stmdbmi	r0, {r0, r2, r5, r6, sl, ip, sp, lr}
 2ec:	525f5332 	subspl	r5, pc, #-939524096	; 0xc8000000
 2f0:	435f4358 	cmpmi	pc, #88, 6	; 0x60000001
 2f4:	49573248 	ldmdbmi	r7, {r3, r6, r9, ip, sp}^
 2f8:	42555f44 	subsmi	r5, r5, #68, 30	; 0x110
 2fc:	69626e00 	stmdbvs	r2!, {r9, sl, fp, sp, lr}^
 300:	62007374 	andvs	r7, r0, #116, 6	; 0xd0000001
 304:	5f737469 	svcpl	0x00737469
 308:	00726c63 	rsbseq	r6, r2, r3, ror #24
 30c:	5f746962 	svcpl	0x00746962
 310:	6f5f7369 	svcvs	0x005f7369
 314:	49006666 	stmdbmi	r0, {r1, r2, r5, r6, r9, sl, sp, lr}
 318:	435f5332 	cmpmi	pc, #-939524096	; 0xc8000000
 31c:	58525f53 	ldmdapl	r2, {r0, r1, r4, r6, r8, r9, sl, fp, ip, lr}^
 320:	00584553 	subseq	r4, r8, r3, asr r5
 324:	5f533249 	svcpl	0x00533249
 328:	5f435852 	svcpl	0x00435852
 32c:	50324843 	eorspl	r4, r2, r3, asr #16
 330:	555f534f 	ldrbpl	r5, [pc, #-847]	; ffffffe9 <__bss_end__+0xffff5fe1>
 334:	63700042 	cmnvs	r0, #66, 0	; 0x42
 338:	69645f6d 	stmdbvs	r4!, {r0, r2, r3, r5, r6, r8, r9, sl, fp, ip, lr}^
 33c:	32690076 	rsbcc	r0, r9, #118, 0	; 0x76
 340:	6e695f73 	mcrvs	15, 3, r5, cr9, cr3, {3}
 344:	5f007469 	svcpl	0x00007469
 348:	4e55465f 	mrcmi	6, 2, r4, cr5, cr15, {2}
 34c:	4f495443 	svcmi	0x00495443
 350:	005f5f4e 	subseq	r5, pc, lr, asr #30
 354:	5f533249 	svcpl	0x00533249
 358:	525f5343 	subspl	r5, pc, #201326593	; 0xc000001
 35c:	52524558 	subspl	r4, r2, #88, 10	; 0x16000000
 360:	54454700 	strbpl	r4, [r5], #-1792	; 0xfffff900
 364:	62003233 	andvs	r3, r0, #805306371	; 0x30000003
 368:	695f7469 	ldmdbvs	pc, {r0, r3, r5, r6, sl, ip, sp, lr}^	; <UNPREDICTABLE>
 36c:	6e6f5f73 	mcrvs	15, 3, r5, cr15, cr3, {3}
 370:	49504700 	ldmdbmi	r0, {r8, r9, sl, lr}^
 374:	55465f4f 	strbpl	r5, [r6, #-3919]	; 0xfffff0b1
 378:	415f434e 	cmpmi	pc, lr, asr #6
 37c:	0030544c 	eorseq	r5, r0, ip, asr #8
 380:	5f435852 	svcpl	0x00435852
 384:	32490041 	subcc	r0, r9, #65, 0	; 0x41
 388:	53435f53 	movtpl	r5, #16211	; 0x3f53
 38c:	4658525f 			; <UNDEFINED> instruction: 0x4658525f
 390:	5f4d4300 	svcpl	0x004d4300
 394:	5f676572 	svcpl	0x00676572
 398:	756c6176 	strbvc	r6, [ip, #-374]!	; 0xfffffe8a
 39c:	50470065 	subpl	r0, r7, r5, rrx
 3a0:	465f4f49 	ldrbmi	r4, [pc], -r9, asr #30
 3a4:	5f434e55 	svcpl	0x00434e55
 3a8:	55504e49 	ldrbpl	r4, [r0, #-3657]	; 0xfffff1b7
 3ac:	32490054 	subcc	r0, r9, #84, 0	; 0x54
 3b0:	53435f53 	movtpl	r5, #16211	; 0x3f53
 3b4:	5258525f 	subspl	r5, r8, #-268435451	; 0xf0000005
 3b8:	53324900 	teqpl	r2, #0, 18
 3bc:	444f4d5f 	strbmi	r4, [pc], #-3423	; 3c4 <__code_start__-0x7c3c>
 3c0:	4c465f45 	mcrrmi	15, 4, r5, r6, cr5
 3c4:	4c5f4e45 	mrrcmi	14, 4, r4, pc, cr5	; <UNPREDICTABLE>
 3c8:	32490042 	subcc	r0, r9, #66, 0	; 0x42
 3cc:	53435f53 	movtpl	r5, #16211	; 0x3f53
 3d0:	5358525f 	cmppl	r8, #-268435451	; 0xf0000005
 3d4:	00434e59 	subeq	r4, r3, r9, asr lr
 3d8:	73746962 	cmnvc	r4, #1605632	; 0x188000
 3dc:	7465735f 	strbtvc	r7, [r5], #-863	; 0xfffffca1
 3e0:	5f6d6300 	svcpl	0x006d6300
 3e4:	73676572 	cmnvc	r7, #478150656	; 0x1c800000
 3e8:	53324900 	teqpl	r2, #0, 18
 3ec:	4358525f 	cmpmi	r8, #-268435451	; 0xf0000005
 3f0:	3148435f 	cmpcc	r8, pc, asr r3
 3f4:	66004e45 	strvs	r4, [r0], -r5, asr #28
 3f8:	006f6669 	rsbeq	r6, pc, r9, ror #12
 3fc:	5f533249 	svcpl	0x00533249
 400:	45444f4d 	strbmi	r4, [r4, #-3917]	; 0xfffff0b3
 404:	4c53465f 	mrrcmi	6, 5, r4, r3, cr15
 408:	4c5f4e45 	mrrcmi	14, 4, r4, pc, cr5	; <UNPREDICTABLE>
 40c:	32490042 	subcc	r0, r9, #66, 0	; 0x42
 410:	58525f53 	ldmdapl	r2, {r0, r1, r4, r6, r8, r9, sl, fp, ip, lr}^
 414:	48435f43 	stmdami	r3, {r0, r1, r6, r8, r9, sl, fp, ip, lr}^
 418:	44495731 	strbmi	r5, [r9], #-1841	; 0xfffff8cf
 41c:	00424c5f 	subeq	r4, r2, pc, asr ip
 420:	5f533249 	svcpl	0x00533249
 424:	525f5343 	subspl	r5, pc, #201326593	; 0xc000001
 428:	52485458 	subpl	r5, r8, #88, 8	; 0x58000000
 42c:	00424c5f 	subeq	r4, r2, pc, asr ip
 430:	5f533249 	svcpl	0x00533249
 434:	5f435852 	svcpl	0x00435852
 438:	45324843 	ldrmi	r4, [r2, #-2115]!	; 0xfffff7bd
 43c:	3249004e 	subcc	r0, r9, #78, 0	; 0x4e
 440:	53435f53 	movtpl	r5, #16211	; 0x3f53
 444:	4e59535f 	mrcmi	3, 2, r5, cr9, cr15, {2}
 448:	32490043 	subcc	r0, r9, #67, 0	; 0x43
 44c:	58525f53 	ldmdapl	r2, {r0, r1, r4, r6, r8, r9, sl, fp, ip, lr}^
 450:	48435f43 	stmdami	r3, {r0, r1, r6, r8, r9, sl, fp, ip, lr}^
 454:	44495732 	strbmi	r5, [r9], #-1842	; 0xfffff8ce
 458:	00424c5f 	subeq	r4, r2, pc, asr ip
 45c:	5f766564 	svcpl	0x00766564
 460:	72726162 	rsbsvc	r6, r2, #-2147483624	; 0x80000018
 464:	00726569 	rsbseq	r6, r2, r9, ror #10
 468:	5f533249 	svcpl	0x00533249
 46c:	5f435852 	svcpl	0x00435852
 470:	50324843 	eorspl	r4, r2, r3, asr #16
 474:	4c5f534f 	mrrcmi	3, 4, r5, pc, cr15	; <UNPREDICTABLE>
 478:	32490042 	subcc	r0, r9, #66, 0	; 0x42
 47c:	53435f53 	movtpl	r5, #16211	; 0x3f53
 480:	4458525f 	ldrbmi	r5, [r8], #-607	; 0xfffffda1
 484:	65726400 	ldrbvs	r6, [r2, #-1024]!	; 0xfffffc00
 488:	69620071 	stmdbvs	r2!, {r0, r4, r5, r6}^
 48c:	6d5f7374 	ldclvs	3, cr7, [pc, #-464]	; 2c4 <__code_start__-0x7d3c>
 490:	006b7361 	rsbeq	r7, fp, r1, ror #6
 494:	5f533249 	svcpl	0x00533249
 498:	5f435852 	svcpl	0x00435852
 49c:	57314843 	ldrpl	r4, [r1, -r3, asr #16]!
 4a0:	67005845 	strvs	r5, [r0, -r5, asr #16]
 4a4:	5f6f6970 	svcpl	0x006f6970
 4a8:	5f746573 	svcpl	0x00746573
 4ac:	636e7566 	cmnvs	lr, #427819008	; 0x19800000
 4b0:	6e6f6974 			; <UNDEFINED> instruction: 0x6e6f6974
 4b4:	68746f00 	ldmdavs	r4!, {r8, r9, sl, fp, sp, lr}^
 4b8:	725f7265 	subsvc	r7, pc, #1342177286	; 0x50000006
 4bc:	00736765 	rsbseq	r6, r3, r5, ror #14
 4c0:	33545550 	cmpcc	r4, #80, 10	; 0x14000000
 4c4:	32490032 	subcc	r0, r9, #50, 0	; 0x32
 4c8:	53435f53 	movtpl	r5, #16211	; 0x3f53
 4cc:	4f58525f 	svcmi	0x0058525f
 4d0:	3269004e 	rsbcc	r0, r9, #78, 0	; 0x4e
 4d4:	65725f73 	ldrbvs	r5, [r2, #-3955]!	; 0xfffff08d
 4d8:	735f6461 	cmpvc	pc, #1627389952	; 0x61000000
 4dc:	6c706d61 	ldclvs	13, cr6, [r0], #-388	; 0xfffffe7c
 4e0:	78740065 	ldmdavc	r4!, {r0, r2, r5, r6}^
 4e4:	6766635f 			; <UNDEFINED> instruction: 0x6766635f
 4e8:	69706700 	ldmdbvs	r0!, {r8, r9, sl, sp, lr}^
 4ec:	65735f6f 	ldrbvs	r5, [r3, #-3951]!	; 0xfffff091
 4f0:	6e6f5f74 	mcrvs	15, 3, r5, cr15, cr4, {3}
 4f4:	53324900 	teqpl	r2, #0, 18
 4f8:	5f53435f 	svcpl	0x0053435f
 4fc:	48545852 	ldmdami	r4, {r1, r4, r6, fp, ip, lr}^
 500:	42555f52 	subsmi	r5, r5, #328	; 0x148
 504:	53324900 	teqpl	r2, #0, 18
 508:	444f4d5f 	strbmi	r4, [pc], #-3423	; 510 <__code_start__-0x7af0>
 50c:	53465f45 	movtpl	r5, #28485	; 0x6f45
 510:	5f4e454c 	svcpl	0x004e454c
 514:	72004255 	andvc	r4, r0, #1342177285	; 0x50000005
 518:	66635f78 	uqsub16vs	r5, r3, r8
 51c:	32490067 	subcc	r0, r9, #103, 0	; 0x67
 520:	58525f53 	ldmdapl	r2, {r0, r1, r4, r6, r8, r9, sl, fp, ip, lr}^
 524:	48435f43 	stmdami	r3, {r0, r1, r6, r8, r9, sl, fp, ip, lr}^
 528:	534f5031 	movtpl	r5, #61489	; 0xf031
 52c:	0042555f 	subeq	r5, r2, pc, asr r5
 530:	4f464946 	svcmi	0x00464946
 534:	4900415f 	stmdbmi	r0, {r0, r1, r2, r3, r4, r6, r8, lr}
 538:	4d5f5332 	ldclmi	3, cr5, [pc, #-200]	; 478 <__code_start__-0x7b88>
 53c:	5f45444f 	svcpl	0x0045444f
 540:	4e454c46 	cdpmi	12, 4, cr4, cr5, cr6, {2}
 544:	0042555f 	subeq	r5, r2, pc, asr r5
 548:	72727563 	rsbsvc	r7, r2, #415236096	; 0x18c00000
 54c:	7864695f 	stmdavc	r4!, {r0, r1, r2, r3, r4, r6, r8, fp, sp, lr}^
 550:	61777300 	cmnvs	r7, r0, lsl #6
 554:	64695f70 	strbtvs	r5, [r9], #-3952	; 0xfffff090
 558:	65740078 	ldrbvs	r0, [r4, #-120]!	; 0xffffff88
 55c:	6c00706d 	stcvs	0, cr7, [r0], {109}	; 0x6d
 560:	5f32676f 	svcpl	0x0032676f
 564:	006e656c 	rsbeq	r6, lr, ip, ror #10
 568:	65736162 	ldrbvs	r6, [r3, #-354]!	; 0xfffffe9e
 56c:	6165725f 	cmnvs	r5, pc, asr r2
 570:	5f69006c 	svcpl	0x0069006c
 574:	69727473 	ldmdbvs	r2!, {r0, r1, r4, r5, r6, sl, ip, sp, lr}^
 578:	74006564 	strvc	r6, [r0], #-1380	; 0xfffffa9c
 57c:	5f646977 	svcpl	0x00646977
 580:	67616d69 	strbvs	r6, [r1, -r9, ror #26]!
 584:	766e6900 	strbtvc	r6, [lr], -r0, lsl #18
 588:	65737265 	ldrbvs	r7, [r3, #-613]!	; 0xfffffd9b
 58c:	74666600 	strbtvc	r6, [r6], #-1536	; 0xfffffa00
 590:	7869665f 	stmdavc	r9!, {r0, r1, r2, r3, r4, r6, r9, sl, sp, lr}^
 594:	6d5f6465 	cfldrdvs	mvd6, [pc, #-404]	; 408 <__code_start__-0x7bf8>
 598:	73006c75 	movwvc	r6, #3189	; 0xc75
 59c:	74666968 	strbtvc	r6, [r6], #-2408	; 0xfffff698
 5a0:	74666600 	strbtvc	r6, [r6], #-1536	; 0xfffffa00
 5a4:	7400632e 	strvc	r6, [r0], #-814	; 0xfffffcd2
 5a8:	5f646977 	svcpl	0x00646977
 5ac:	6c616572 	cfstr64vs	mvdx6, [r1], #-456	; 0xfffffe38
 5b0:	756f7200 	strbvc	r7, [pc, #-512]!	; 3b8 <__code_start__-0x7c48>
 5b4:	7300646e 	movwvc	r6, #1134	; 0x46e
 5b8:	656c6163 	strbvs	r6, [ip, #-355]!	; 0xfffffe9d
 5bc:	74666600 	strbtvc	r6, [r6], #-1536	; 0xfffffa00
 5c0:	7869665f 	stmdavc	r9!, {r0, r1, r2, r3, r4, r6, r9, sl, sp, lr}^
 5c4:	725f6465 	subsvc	r6, pc, #1694498816	; 0x65000000
 5c8:	00746666 	rsbseq	r6, r4, r6, ror #12
 5cc:	706d6574 	rsbvc	r6, sp, r4, ror r5
 5d0:	616d695f 	cmnvs	sp, pc, asr r9
 5d4:	66660067 	strbtvs	r0, [r6], -r7, rrx
 5d8:	69665f74 	stmdbvs	r6!, {r2, r4, r5, r6, r8, r9, sl, fp, ip, lr}^
 5dc:	5f646578 	svcpl	0x00646578
 5e0:	5f6c756d 	svcpl	0x006c756d
 5e4:	00353171 	eorseq	r3, r5, r1, ror r1
 5e8:	32676f6c 	rsbcc	r6, r7, #108, 30	; 0x1b0
 5ec:	735f6a5f 	cmpvc	pc, #389120	; 0x5f000
 5f0:	64697274 	strbtvs	r7, [r9], #-628	; 0xfffffd8c
 5f4:	75630065 	strbvc	r0, [r3, #-101]!	; 0xffffff9b
 5f8:	695f7272 	ldmdbvs	pc, {r1, r4, r5, r6, r9, ip, sp, lr}^	; <UNPREDICTABLE>
 5fc:	0067616d 	rsbeq	r6, r7, sp, ror #2
 600:	72727563 	rsbsvc	r7, r2, #415236096	; 0x18c00000
 604:	54464600 	strbpl	r4, [r6], #-1536	; 0xfffffa00
 608:	4e49535f 	mcrmi	3, 2, r5, cr9, cr15, {2}
 60c:	554c5f45 	strbpl	r5, [ip, #-3909]	; 0xfffff0bb
 610:	65740054 	ldrbvs	r0, [r4, #-84]!	; 0xffffffac
 614:	725f706d 	subsvc	r7, pc, #109, 0	; 0x6d
 618:	006c6165 	rsbeq	r6, ip, r5, ror #2
 61c:	65736162 	ldrbvs	r6, [r3, #-354]!	; 0xfffffe9e
 620:	616d695f 	cmnvs	sp, pc, asr r9
 624:	75630067 	strbvc	r0, [r3, #-103]!	; 0xffffff99
 628:	725f7272 	subsvc	r7, pc, #536870919	; 0x20000007
 62c:	006c6165 	rsbeq	r6, ip, r5, ror #2
 630:	20554e47 	subscs	r4, r5, r7, asr #28
 634:	20393943 	eorscs	r3, r9, r3, asr #18
 638:	2e322e39 	mrccs	14, 1, r2, cr2, cr9, {1}
 63c:	30322031 	eorscc	r2, r2, r1, lsr r0
 640:	30313931 	eorscc	r3, r1, r1, lsr r9
 644:	28203532 	stmdacs	r0!, {r1, r4, r5, r8, sl, ip, sp}
 648:	656c6572 	strbvs	r6, [ip, #-1394]!	; 0xfffffa8e
 64c:	29657361 	stmdbcs	r5!, {r0, r5, r6, r8, r9, ip, sp, lr}^
 650:	52415b20 	subpl	r5, r1, #32, 22	; 0x8000
 654:	72612f4d 	rsbvc	r2, r1, #308	; 0x134
 658:	2d392d6d 	ldccs	13, cr2, [r9, #-436]!	; 0xfffffe4c
 65c:	6e617262 	cdpvs	2, 6, cr7, cr1, cr2, {3}
 660:	72206863 	eorvc	r6, r0, #6488064	; 0x630000
 664:	73697665 	cmnvc	r9, #105906176	; 0x6500000
 668:	206e6f69 	rsbcs	r6, lr, r9, ror #30
 66c:	35373732 	ldrcc	r3, [r7, #-1842]!	; 0xfffff8ce
 670:	205d3939 	subscs	r3, sp, r9, lsr r9
 674:	70636d2d 	rsbvc	r6, r3, sp, lsr #26
 678:	72613d75 	rsbvc	r3, r1, #7488	; 0x1d40
 67c:	3731316d 	ldrcc	r3, [r1, -sp, ror #2]!
 680:	667a6a36 			; <UNDEFINED> instruction: 0x667a6a36
 684:	2d20732d 	stccs	3, cr7, [r0, #-180]!	; 0xffffff4c
 688:	6e75746d 	cdpvs	4, 7, cr7, cr5, cr13, {3}
 68c:	72613d65 	rsbvc	r3, r1, #6464	; 0x1940
 690:	3731316d 	ldrcc	r3, [r1, -sp, ror #2]!
 694:	667a6a36 			; <UNDEFINED> instruction: 0x667a6a36
 698:	2d20732d 	stccs	3, cr7, [r0, #-180]!	; 0xffffff4c
 69c:	6f6c666d 	svcvs	0x006c666d
 6a0:	612d7461 			; <UNDEFINED> instruction: 0x612d7461
 6a4:	733d6962 	teqvc	sp, #1605632	; 0x188000
 6a8:	2074666f 	rsbscs	r6, r4, pc, ror #12
 6ac:	72616d2d 	rsbvc	r6, r1, #2880	; 0xb40
 6b0:	6d2d206d 	stcvs	0, cr2, [sp, #-436]!	; 0xfffffe4c
 6b4:	68637261 	stmdavs	r3!, {r0, r5, r6, r9, ip, sp, lr}^
 6b8:	6d72613d 	ldfvse	f6, [r2, #-244]!	; 0xffffff0c
 6bc:	7a6b3676 	bvc	1ace09c <__bss_end__+0x1ac4094>
 6c0:	67672d20 	strbvs	r2, [r7, -r0, lsr #26]!
 6c4:	2d206264 	sfmcs	f6, 4, [r0, #-400]!	; 0xfffffe70
 6c8:	62646767 	rsbvs	r6, r4, #27000832	; 0x19c0000
 6cc:	674f2d20 	strbvs	r2, [pc, -r0, lsr #26]
 6d0:	674f2d20 	strbvs	r2, [pc, -r0, lsr #26]
 6d4:	74732d20 	ldrbtvc	r2, [r3], #-3360	; 0xfffff2e0
 6d8:	6e673d64 	cdpvs	13, 6, cr3, cr7, cr4, {3}
 6dc:	20393975 	eorscs	r3, r9, r5, ror r9
 6e0:	6474732d 	ldrbtvs	r7, [r4], #-813	; 0xfffffcd3
 6e4:	756e673d 	strbvc	r6, [lr, #-1853]!	; 0xfffff8c3
 6e8:	2d203939 			; <UNDEFINED> instruction: 0x2d203939
 6ec:	65726666 	ldrbvs	r6, [r2, #-1638]!	; 0xfffff99a
 6f0:	61747365 	cmnvs	r4, r5, ror #6
 6f4:	6e69646e 	cdpvs	4, 6, cr6, cr9, cr14, {3}
 6f8:	552f0067 	strpl	r0, [pc, #-103]!	; 699 <__code_start__-0x7967>
 6fc:	73726573 	cmnvc	r2, #482344960	; 0x1cc00000
 700:	74616b2f 	strbtvc	r6, [r1], #-2863	; 0xfffff4d1
 704:	65736565 	ldrbvs	r6, [r3, #-1381]!	; 0xfffffa9b
 708:	7375696c 	cmnvc	r5, #108, 18	; 0x1b0000
 70c:	636f442f 	cmnvs	pc, #788529152	; 0x2f000000
 710:	6e656d75 	mcrvs	13, 3, r6, cr5, cr5, {3}
 714:	432f7374 			; <UNDEFINED> instruction: 0x432f7374
 718:	30343153 	eorscc	r3, r4, r3, asr r1
 71c:	73632f45 	cmnvc	r3, #276	; 0x114
 720:	45303431 	ldrmi	r3, [r0, #-1073]!	; 0xfffffbcf
 724:	6e69662d 	cdpvs	6, 6, cr6, cr9, cr13, {1}
 728:	702d6c61 	eorvc	r6, sp, r1, ror #24
 72c:	656a6f72 	strbvs	r6, [sl, #-3954]!	; 0xfffff08e
 730:	6c2f7463 	cfstrsvs	mvf7, [pc], #-396	; 5ac <__code_start__-0x7a54>
 734:	2d736269 	lfmcs	f6, 2, [r3, #-420]!	; 0xfffffe5c
 738:	6c303432 	cfldrsvs	mvf3, [r0], #-200	; 0xffffff38
 73c:	696c2f78 	stmdbvs	ip!, {r3, r4, r5, r6, r8, r9, sl, fp, sp}^
 740:	00697062 	rsbeq	r7, r9, r2, rrx
 744:	73677261 	cmnvc	r7, #268435462	; 0x10000006
 748:	5f617600 	svcpl	0x00617600
 74c:	6e697270 	mcrvs	2, 3, r7, cr9, cr0, {3}
 750:	5f006b74 	svcpl	0x00006b74
 754:	756e675f 	strbvc	r6, [lr, #-1887]!	; 0xfffff8a1
 758:	61765f63 	cmnvs	r6, r3, ror #30
 75c:	73696c5f 	cmnvc	r9, #24320	; 0x5f00
 760:	5f5f0074 	svcpl	0x005f0074
 764:	2e007061 	cdpcs	0, 0, cr7, cr0, cr1, {3}
 768:	62696c2f 	rsbvs	r6, r9, #12032	; 0x2f00
 76c:	72702f63 	rsbsvc	r2, r0, #396	; 0x18c
 770:	6b746e69 	blvs	1d1c11c <__bss_end__+0x1d12114>
 774:	5f00632e 	svcpl	0x0000632e
 778:	5f61765f 	svcpl	0x0061765f
 77c:	7473696c 	ldrbtvc	r6, [r3], #-2412	; 0xfffff694
 780:	746e6900 	strbtvc	r6, [lr], #-2304	; 0xfffff700
 784:	616e7265 	cmnvs	lr, r5, ror #4
 788:	75705f6c 	ldrbvc	r5, [r0, #-3948]!	; 0xfffff094
 78c:	2e006b74 	vmovcs.16	d0[1], r6
 790:	62696c2f 	rsbvs	r6, r9, #12032	; 0x2f00
 794:	75702f63 	ldrbvc	r2, [r0, #-3939]!	; 0xfffff09d
 798:	632e6b74 			; <UNDEFINED> instruction: 0x632e6b74
 79c:	64736900 	ldrbtvs	r6, [r3], #-2304	; 0xfffff700
 7a0:	74696769 	strbtvc	r6, [r9], #-1897	; 0xfffff897
 7a4:	6e697500 	cdpvs	5, 6, cr7, cr9, cr0, {0}
 7a8:	5f343674 	svcpl	0x00343674
 7ac:	2f2e0074 	svccs	0x002e0074
 7b0:	6362696c 	cmnvs	r2, #108, 18	; 0x1b0000
 7b4:	2d61762f 	stclcs	6, cr7, [r1, #-188]!	; 0xffffff44
 7b8:	6e697270 	mcrvs	2, 3, r7, cr9, cr0, {3}
 7bc:	632e6b74 			; <UNDEFINED> instruction: 0x632e6b74
 7c0:	635f5f00 	cmpvs	pc, #0, 30
 7c4:	5f65646f 	svcpl	0x0065646f
 7c8:	72617473 	rsbvc	r7, r1, #1929379840	; 0x73000000
 7cc:	005f5f74 	subseq	r5, pc, r4, ror pc	; <UNPREDICTABLE>
 7d0:	73625f5f 	cmnvc	r2, #380	; 0x17c
 7d4:	74735f73 	ldrbtvc	r5, [r3], #-3955	; 0xfffff08d
 7d8:	5f747261 	svcpl	0x00747261
 7dc:	6977005f 	ldmdbvs	r7!, {r0, r1, r2, r3, r4, r6}^
 7e0:	00687464 	rsbeq	r7, r8, r4, ror #8
 7e4:	61645f5f 	cmnvs	r4, pc, asr pc
 7e8:	655f6174 	ldrbvs	r6, [pc, #-372]	; 67c <__code_start__-0x7984>
 7ec:	5f5f646e 	svcpl	0x005f646e
 7f0:	74757000 	ldrbtvc	r7, [r5], #-0
 7f4:	70665f63 	rsbvc	r5, r6, r3, ror #30
 7f8:	625f5f00 	subsvs	r5, pc, #0, 30
 7fc:	655f7373 	ldrbvs	r7, [pc, #-883]	; 491 <__code_start__-0x7b6f>
 800:	5f5f646e 	svcpl	0x005f646e
 804:	685f5f00 	ldmdavs	pc, {r8, r9, sl, fp, ip, lr}^	; <UNPREDICTABLE>
 808:	5f706165 	svcpl	0x00706165
 80c:	72617473 	rsbvc	r7, r1, #1929379840	; 0x73000000
 810:	005f5f74 	subseq	r5, pc, r4, ror pc	; <UNPREDICTABLE>
 814:	5f697072 	svcpl	0x00697072
 818:	5f746573 	svcpl	0x00746573
 81c:	7074756f 	rsbsvc	r7, r4, pc, ror #10
 820:	66007475 			; <UNDEFINED> instruction: 0x66007475
 824:	735f746d 	cmpvc	pc, #1828716544	; 0x6d000000
 828:	74726174 	ldrbtvc	r6, [r2], #-372	; 0xfffffe8c
 82c:	72747300 	rsbsvc	r7, r4, #0, 6
 830:	00797063 	rsbseq	r7, r9, r3, rrx
 834:	5f67656e 	svcpl	0x0067656e
 838:	5f5f0070 	svcpl	0x005f0070
 83c:	65646f63 	strbvs	r6, [r4, #-3939]!	; 0xfffff09d
 840:	646e655f 	strbtvs	r6, [lr], #-1375	; 0xfffffaa1
 844:	65005f5f 	strvs	r5, [r0, #-3935]	; 0xfffff0a1
 848:	0074696d 	rsbseq	r6, r4, sp, ror #18
 84c:	73747570 	cmnvc	r4, #112, 10	; 0x1c000000
 850:	0070665f 	rsbseq	r6, r0, pc, asr r6
 854:	65766572 	ldrbvs	r6, [r6, #-1394]!	; 0xfffffa8e
 858:	00657372 	rsbeq	r7, r5, r2, ror r3
 85c:	63727473 	cmnvs	r2, #1929379840	; 0x73000000
 860:	73007461 	movwvc	r7, #1121	; 0x461
 864:	6d637274 	sfmvs	f7, 2, [r3, #-464]!	; 0xfffffe30
 868:	5f5f0070 	svcpl	0x005f0070
 86c:	61746164 	cmnvs	r4, r4, ror #2
 870:	6174735f 	cmnvs	r4, pc, asr r3
 874:	5f5f7472 	svcpl	0x005f7472
 878:	705f5f00 	subsvc	r5, pc, r0, lsl #30
 87c:	5f676f72 	svcpl	0x00676f72
 880:	5f646e65 	svcpl	0x00646e65
 884:	756e005f 	strbvc	r0, [lr, #-95]!	; 0xffffffa1
 888:	7300316d 	movwvc	r3, #365	; 0x16d
 88c:	636e7274 	cmnvs	lr, #116, 4	; 0x40000007
 890:	6200706d 	andvs	r7, r0, #109, 0	; 0x6d
 894:	00657361 	rsbeq	r7, r5, r1, ror #6
 898:	6e676973 			; <UNDEFINED> instruction: 0x6e676973
 89c:	705f6465 	subsvc	r6, pc, r5, ror #8
 8a0:	69707200 	ldmdbvs	r0!, {r9, ip, sp, lr}^
 8a4:	6265725f 	rsbvs	r7, r5, #-268435451	; 0xf0000005
 8a8:	00746f6f 	rsbseq	r6, r4, pc, ror #30
 8ac:	616c6564 	cmnvs	ip, r4, ror #10
 8b0:	736d5f79 	cmnvc	sp, #484	; 0x1e4
 8b4:	732f2e00 			; <UNDEFINED> instruction: 0x732f2e00
 8b8:	66666174 			; <UNDEFINED> instruction: 0x66666174
 8bc:	6372732d 	cmnvs	r2, #-1275068416	; 0xb4000000
 8c0:	656c632f 	strbvs	r6, [ip, #-815]!	; 0xfffffcd1
 8c4:	722d6e61 	eorvc	r6, sp, #1552	; 0x610
 8c8:	6f6f6265 	svcvs	0x006f6265
 8cc:	00632e74 	rsbeq	r2, r3, r4, ror lr
 8d0:	74726175 	ldrbtvc	r6, [r2], #-373	; 0xfffffe8b
 8d4:	756c665f 	strbvc	r6, [ip, #-1631]!	; 0xfffff9a1
 8d8:	745f6873 	ldrbvc	r6, [pc], #-2163	; 8e0 <__code_start__-0x7720>
 8dc:	635f0078 	cmpvs	pc, #120, 0	; 0x78
 8e0:	72617473 	rsbvc	r7, r1, #1929379840	; 0x73000000
 8e4:	73620074 	cmnvc	r2, #116, 0	; 0x74
 8e8:	6e655f73 	mcrvs	15, 3, r5, cr5, cr3, {3}
 8ec:	61750064 	cmnvs	r5, r4, rrx
 8f0:	695f7472 	ldmdbvs	pc, {r1, r4, r5, r6, sl, ip, sp, lr}^	; <UNPREDICTABLE>
 8f4:	0074696e 	rsbseq	r6, r4, lr, ror #18
 8f8:	74737563 	ldrbtvc	r7, [r3], #-1379	; 0xfffffa9d
 8fc:	6c5f6d6f 	mrrcvs	13, 6, r6, pc, cr15	; <UNPREDICTABLE>
 900:	6564616f 	strbvs	r6, [r4, #-367]!	; 0xfffffe91
 904:	2f2e0072 	svccs	0x002e0072
 908:	66617473 			; <UNDEFINED> instruction: 0x66617473
 90c:	72732d66 	rsbsvc	r2, r3, #6528	; 0x1980
 910:	73632f63 	cmnvc	r3, #396	; 0x18c
 914:	74726174 	ldrbtvc	r6, [r2], #-372	; 0xfffffe8c
 918:	2e00632e 	cdpcs	3, 0, cr6, cr0, cr14, {1}
 91c:	6174732f 	cmnvs	r4, pc, lsr #6
 920:	732d6666 			; <UNDEFINED> instruction: 0x732d6666
 924:	632f6372 			; <UNDEFINED> instruction: 0x632f6372
 928:	6f747375 	svcvs	0x00747375
 92c:	6f6c2d6d 	svcvs	0x006c2d6d
 930:	72656461 	rsbvc	r6, r5, #1627389952	; 0x61000000
 934:	7200632e 	andvc	r6, r0, #-1207959552	; 0xb8000000
 938:	6f6f6265 	svcvs	0x006f6265
 93c:	61635f74 	smcvs	13812	; 0x35f4
 940:	756f6c6c 	strbvc	r6, [pc, #-3180]!	; fffffcdc <__bss_end__+0xffff5cd4>
 944:	4d500074 	ldclmi	0, cr0, [r0, #-464]	; 0xfffffe30
 948:	4f44575f 	svcmi	0x0044575f
 94c:	65730047 	ldrbvs	r0, [r3, #-71]!	; 0xffffffb9
 950:	73755f74 	cmnvc	r5, #116, 30	; 0x1d0
 954:	6c5f7265 	lfmvs	f7, 2, [pc], {101}	; 0x65
 958:	6c657665 	stclvs	6, cr7, [r5], #-404	; 0xfffffe6c
 95c:	732f2e00 			; <UNDEFINED> instruction: 0x732f2e00
 960:	66666174 			; <UNDEFINED> instruction: 0x66666174
 964:	6372732d 	cmnvs	r2, #-1275068416	; 0xb4000000
 968:	6265722f 	rsbvs	r7, r5, #-268435454	; 0xf0000002
 96c:	2e746f6f 	cdpcs	15, 7, cr6, cr4, cr15, {3}
 970:	4d500063 	ldclmi	0, cr0, [r0, #-396]	; 0xfffffe74
 974:	5341505f 	movtpl	r5, #4191	; 0x105f
 978:	524f5753 	subpl	r5, pc, #21757952	; 0x14c0000
 97c:	74610044 	strbtvc	r0, [r1], #-68	; 0xffffffbc
 980:	6573755f 	ldrbvs	r7, [r3, #-1375]!	; 0xfffffaa1
 984:	656c5f72 	strbvs	r5, [ip, #-3954]!	; 0xfffff08e
 988:	006c6576 	rsbeq	r6, ip, r6, ror r5
 98c:	525f4d50 	subspl	r4, pc, #80, 26	; 0x1400
 990:	5f435453 	svcpl	0x00435453
 994:	46435257 			; <UNDEFINED> instruction: 0x46435257
 998:	55465f47 	strbpl	r5, [r6, #-3911]	; 0xfffff0b9
 99c:	525f4c4c 	subspl	r4, pc, #76, 24	; 0x4c00
 9a0:	54455345 	strbpl	r5, [r5], #-837	; 0xfffffcbb
 9a4:	5f4d5000 	svcpl	0x004d5000
 9a8:	43545352 	cmpmi	r4, #1207959553	; 0x48000001
 9ac:	73706300 	cmnvc	r0, #0, 6
 9b0:	65640072 	strbvs	r0, [r4, #-114]!	; 0xffffff8e
 9b4:	5f79616c 	svcpl	0x0079616c
 9b8:	00636573 	rsbeq	r6, r3, r3, ror r5
 9bc:	74732f2e 	ldrbtvc	r2, [r3], #-3886	; 0xfffff0d2
 9c0:	2d666661 	stclcs	6, cr6, [r6, #-388]!	; 0xfffffe7c
 9c4:	2f637273 	svccs	0x00637273
 9c8:	656d6974 	strbvs	r6, [sp, #-2420]!	; 0xfffff68c
 9cc:	00632e72 	rsbeq	r2, r3, r2, ror lr
 9d0:	616c6564 	cmnvs	ip, r4, ror #10
 9d4:	73755f79 	cmnvc	r5, #484	; 0x1e4
 9d8:	6d697400 	cfstrdvs	mvd7, [r9, #-0]
 9dc:	675f7265 	ldrbvs	r7, [pc, -r5, ror #4]
 9e0:	755f7465 	ldrbvc	r7, [pc, #-1125]	; 583 <__code_start__-0x7a7d>
 9e4:	5f636573 	svcpl	0x00636573
 9e8:	00776172 	rsbseq	r6, r7, r2, ror r1
 9ec:	6f697067 	svcvs	0x00697067
 9f0:	726c635f 	rsbvc	r6, ip, #2080374785	; 0x7c000001
 9f4:	70670030 	rsbvc	r0, r7, r0, lsr r0
 9f8:	735f6f69 	cmpvc	pc, #420	; 0x1a4
 9fc:	00307465 	eorseq	r7, r0, r5, ror #8
 a00:	6f697067 	svcvs	0x00697067
 a04:	6972775f 	ldmdbvs	r2!, {r0, r1, r2, r3, r4, r6, r8, r9, sl, ip, sp, lr}^
 a08:	44006574 	strmi	r6, [r0], #-1396	; 0xfffffa8c
 a0c:	565f5645 	ldrbpl	r5, [pc], -r5, asr #12
 a10:	32334c41 	eorscc	r4, r3, #16640	; 0x4100
 a14:	69706700 	ldmdbvs	r0!, {r8, r9, sl, sp, lr}^
 a18:	65725f6f 	ldrbvs	r5, [r2, #-3951]!	; 0xfffff091
 a1c:	67006461 	strvs	r6, [r0, -r1, ror #8]
 a20:	5f6f6970 	svcpl	0x006f6970
 a24:	5f746573 	svcpl	0x00746573
 a28:	75706e69 	ldrbvc	r6, [r0, #-3689]!	; 0xfffff197
 a2c:	682f0074 	stmdavs	pc!, {r2, r4, r5, r6}	; <UNPREDICTABLE>
 a30:	2f656d6f 	svccs	0x00656d6f
 a34:	6c676e65 	stclvs	14, cr6, [r7], #-404	; 0xfffffe6c
 a38:	632f7265 			; <UNDEFINED> instruction: 0x632f7265
 a3c:	7373616c 	cmnvc	r3, #27
 a40:	3273632f 	rsbscc	r6, r3, #-1140850688	; 0xbc000000
 a44:	786c3034 	stmdavc	ip!, {r2, r4, r5, ip, sp}^
 a48:	7332322d 	teqvc	r2, #-805306366	; 0xd0000002
 a4c:	6c2f7270 	sfmvs	f7, 4, [pc], #-448	; 894 <__code_start__-0x776c>
 a50:	69706269 	ldmdbvs	r0!, {r0, r3, r5, r6, r9, sp, lr}^
 a54:	6174732f 	cmnvs	r4, pc, lsr #6
 a58:	702d6666 	eorvc	r6, sp, r6, ror #12
 a5c:	61766972 	cmnvs	r6, r2, ror r9
 a60:	67006574 	smlsdxvs	r0, r4, r5, r6
 a64:	5f6f6970 	svcpl	0x006f6970
 a68:	5f746573 	svcpl	0x00746573
 a6c:	0066666f 	rsbeq	r6, r6, pc, ror #12
 a70:	6f697067 	svcvs	0x00697067
 a74:	7465735f 	strbtvc	r7, [r5], #-863	; 0xfffffca1
 a78:	74756f5f 	ldrbtvc	r6, [r5], #-3935	; 0xfffff0a1
 a7c:	00747570 	rsbseq	r7, r4, r0, ror r5
 a80:	636e7566 	cmnvs	lr, #427819008	; 0x19800000
 a84:	69706700 	ldmdbvs	r0!, {r8, r9, sl, sp, lr}^
 a88:	75665f6f 	strbvc	r5, [r6, #-3951]!	; 0xfffff091
 a8c:	745f636e 	ldrbvc	r6, [pc], #-878	; a94 <__code_start__-0x756c>
 a90:	554e4700 	strbpl	r4, [lr, #-1792]	; 0xfffff900
 a94:	39394320 	ldmdbcc	r9!, {r5, r8, r9, lr}
 a98:	2e303120 	rsfcssp	f3, f0, f0
 a9c:	20312e33 	eorscs	r2, r1, r3, lsr lr
 aa0:	31323032 	teqcc	r2, r2, lsr r0
 aa4:	34323830 	ldrtcc	r3, [r2], #-2096	; 0xfffff7d0
 aa8:	65722820 	ldrbvs	r2, [r2, #-2080]!	; 0xfffff7e0
 aac:	7361656c 	cmnvc	r1, #108, 10	; 0x1b000000
 ab0:	2d202965 			; <UNDEFINED> instruction: 0x2d202965
 ab4:	7570636d 	ldrbvc	r6, [r0, #-877]!	; 0xfffffc93
 ab8:	6d72613d 	ldfvse	f6, [r2, #-244]!	; 0xffffff0c
 abc:	36373131 			; <UNDEFINED> instruction: 0x36373131
 ac0:	2d667a6a 	vstmdbcs	r6!, {s15-s120}
 ac4:	6d2d2073 	stcvs	0, cr2, [sp, #-460]!	; 0xfffffe34
 ac8:	656e7574 	strbvs	r7, [lr, #-1396]!	; 0xfffffa8c
 acc:	6d72613d 	ldfvse	f6, [r2, #-244]!	; 0xffffff0c
 ad0:	36373131 			; <UNDEFINED> instruction: 0x36373131
 ad4:	2d667a6a 	vstmdbcs	r6!, {s15-s120}
 ad8:	6d2d2073 	stcvs	0, cr2, [sp, #-460]!	; 0xfffffe34
 adc:	616f6c66 	cmnvs	pc, r6, ror #24
 ae0:	62612d74 	rsbvs	r2, r1, #116, 26	; 0x1d00
 ae4:	6f733d69 	svcvs	0x00733d69
 ae8:	2d207466 	cfstrscs	mvf7, [r0, #-408]!	; 0xfffffe68
 aec:	6d72616d 	ldfvse	f6, [r2, #-436]!	; 0xfffffe4c
 af0:	616d2d20 	cmnvs	sp, r0, lsr #26
 af4:	3d686372 	stclcc	3, cr6, [r8, #-456]!	; 0xfffffe38
 af8:	766d7261 	strbtvc	r7, [sp], -r1, ror #4
 afc:	207a6b36 	rsbscs	r6, sl, r6, lsr fp
 b00:	6467672d 	strbtvs	r6, [r7], #-1837	; 0xfffff8d3
 b04:	4f2d2062 	svcmi	0x002d2062
 b08:	732d2067 			; <UNDEFINED> instruction: 0x732d2067
 b0c:	673d6474 			; <UNDEFINED> instruction: 0x673d6474
 b10:	3939756e 	ldmdbcc	r9!, {r1, r2, r3, r5, r6, r8, sl, ip, sp, lr}
 b14:	66662d20 	strbtvs	r2, [r6], -r0, lsr #26
 b18:	73656572 	cmnvc	r5, #478150656	; 0x1c800000
 b1c:	646e6174 	strbtvs	r6, [lr], #-372	; 0xfffffe8c
 b20:	00676e69 	rsbeq	r6, r7, r9, ror #28
 b24:	6f697067 	svcvs	0x00697067
 b28:	76656c5f 			; <UNDEFINED> instruction: 0x76656c5f
 b2c:	61620030 	cmnvs	r2, r0, lsr r0
 b30:	67006b6e 	strvs	r6, [r0, -lr, ror #22]
 b34:	2e6f6970 			; <UNDEFINED> instruction: 0x2e6f6970
 b38:	75700063 	ldrbvc	r0, [r0, #-99]!	; 0xffffff9d
 b3c:	00323374 	eorseq	r3, r2, r4, ror r3
 b40:	64756162 	ldrbtvs	r6, [r5], #-354	; 0xfffffe9e
 b44:	6c61765f 	stclvs	6, cr7, [r1], #-380	; 0xfffffe84
 b48:	61747300 	cmnvs	r4, r0, lsl #6
 b4c:	61750074 	cmnvs	r5, r4, ror r0
 b50:	635f7472 	cmpvs	pc, #1912602624	; 0x72000000
 b54:	675f6e61 	ldrbvs	r6, [pc, -r1, ror #28]
 b58:	00637465 	rsbeq	r7, r3, r5, ror #8
 b5c:	5f787561 	svcpl	0x00787561
 b60:	69726570 	ldmdbvs	r2!, {r4, r5, r6, r8, sl, sp, lr}^
 b64:	00736870 	rsbseq	r6, r3, r0, ror r8
 b68:	74726175 	ldrbtvc	r6, [r2], #-373	; 0xfffffe8b
 b6c:	7500632e 	strvc	r6, [r0, #-814]	; 0xfffffcd2
 b70:	5f747261 	svcpl	0x00747261
 b74:	5f6e6163 	svcpl	0x006e6163
 b78:	63747570 	cmnvs	r4, #112, 10	; 0x1c000000
 b7c:	64646100 	strbtvs	r6, [r4], #-256	; 0xffffff00
 b80:	61750072 	cmnvs	r5, r2, ror r0
 b84:	745f7472 	ldrbvc	r7, [pc], #-1138	; b8c <__code_start__-0x7474>
 b88:	73695f78 	cmnvc	r9, #120, 30	; 0x1e0
 b8c:	706d655f 	rsbvc	r6, sp, pc, asr r5
 b90:	62007974 	andvs	r7, r0, #116, 18	; 0x1d0000
 b94:	00647561 	rsbeq	r7, r4, r1, ror #10
 b98:	5f787561 	svcpl	0x00787561
 b9c:	62616e65 	rsbvs	r6, r1, #1616	; 0x650
 ba0:	0073656c 	rsbseq	r6, r3, ip, ror #10
 ba4:	74726175 	ldrbtvc	r6, [r2], #-373	; 0xfffffe8b
 ba8:	7465675f 	strbtvc	r6, [r5], #-1887	; 0xfffff8a1
 bac:	6e630063 	cdpvs	0, 6, cr0, cr3, cr3, {3}
 bb0:	75006c74 	strvc	r6, [r0, #-3188]	; 0xfffff38c
 bb4:	5f747261 	svcpl	0x00747261
 bb8:	61736964 	cmnvs	r3, r4, ror #18
 bbc:	00656c62 	rsbeq	r6, r5, r2, ror #24
 bc0:	74726175 	ldrbtvc	r6, [r2], #-373	; 0xfffffe8b
 bc4:	7361685f 	cmnvc	r1, #6225920	; 0x5f0000
 bc8:	7461645f 	strbtvc	r6, [r1], #-1119	; 0xfffffba1
 bcc:	726f0061 	rsbvc	r0, pc, #97, 0	; 0x61
 bd0:	336e695f 	cmncc	lr, #1556480	; 0x17c000
 bd4:	63730032 	cmnvs	r3, #50, 0	; 0x32
 bd8:	63746172 	cmnvs	r4, #-2147483620	; 0x8000001c
 bdc:	61750068 	cmnvs	r5, r8, rrx
 be0:	61007472 	tstvs	r0, r2, ror r4
 be4:	695f646e 	ldmdbvs	pc, {r1, r2, r3, r5, r6, sl, sp, lr}^	; <UNPREDICTABLE>
 be8:	0032336e 	eorseq	r3, r2, lr, ror #6
 bec:	74726175 	ldrbtvc	r6, [r2], #-373	; 0xfffffe8b
 bf0:	7475705f 	ldrbtvc	r7, [r5], #-95	; 0xffffffa1
 bf4:	65670063 	strbvs	r0, [r7, #-99]!	; 0xffffff9d
 bf8:	00323374 	eorseq	r3, r2, r4, ror r3
 bfc:	65746e69 	ldrbvs	r6, [r4, #-3689]!	; 0xfffff197
 c00:	6c616e72 	stclvs	14, cr6, [r1], #-456	; 0xfffffe38
 c04:	7475705f 	ldrbtvc	r7, [r5], #-95	; 0xffffffa1
 c08:	72616863 	rsbvc	r6, r1, #6488064	; 0x630000
 c0c:	69707200 	ldmdbvs	r0!, {r9, ip, sp, lr}^
 c10:	7465735f 	strbtvc	r7, [r5], #-863	; 0xfffffca1
 c14:	7475705f 	ldrbtvc	r7, [r5], #-95	; 0xffffffa1
 c18:	2f2e0063 	svccs	0x002e0063
 c1c:	6362696c 	cmnvs	r2, #108, 18	; 0x1b0000
 c20:	7475702f 	ldrbtvc	r7, [r5], #-47	; 0xffffffd1
 c24:	72616863 	rsbvc	r6, r1, #6488064	; 0x630000
 c28:	7200632e 	andvc	r6, r0, #-1207959552	; 0xb8000000
 c2c:	725f6970 	subsvc	r6, pc, #112, 18	; 0x1c0000
 c30:	74657365 	strbtvc	r7, [r5], #-869	; 0xfffffc9b
 c34:	7475705f 	ldrbtvc	r7, [r5], #-95	; 0xffffffa1
 c38:	65640063 	strbvs	r0, [r4, #-99]!	; 0xffffff9d
 c3c:	2e007473 	mcrcs	4, 0, r7, cr0, cr3, {3}
 c40:	62696c2f 	rsbvs	r6, r9, #12032	; 0x2f00
 c44:	74732f63 	ldrbtvc	r2, [r3], #-3939	; 0xfffff09d
 c48:	74616372 	strbtvc	r6, [r1], #-882	; 0xfffffc8e
 c4c:	2e00632e 	cdpcs	3, 0, cr6, cr0, cr14, {1}
 c50:	62696c2f 	rsbvs	r6, r9, #12032	; 0x2f00
 c54:	74732f63 	ldrbtvc	r2, [r3], #-3939	; 0xfffff09d
 c58:	706d6372 	rsbvc	r6, sp, r2, ror r3
 c5c:	2e00632e 	cdpcs	3, 0, cr6, cr0, cr14, {1}
 c60:	62696c2f 	rsbvs	r6, r9, #12032	; 0x2f00
 c64:	74732f63 	ldrbtvc	r2, [r3], #-3939	; 0xfffff09d
 c68:	79706372 	ldmdbvc	r0!, {r1, r4, r5, r6, r8, r9, sp, lr}^
 c6c:	2e00632e 	cdpcs	3, 0, cr6, cr0, cr14, {1}
 c70:	62696c2f 	rsbvs	r6, r9, #12032	; 0x2f00
 c74:	74732f63 	ldrbtvc	r2, [r3], #-3939	; 0xfffff09d
 c78:	6d636e72 	stclvs	14, cr6, [r3, #-456]!	; 0xfffffe38
 c7c:	00632e70 	rsbeq	r2, r3, r0, ror lr
 c80:	657a6973 	ldrbvs	r6, [sl, #-2419]!	; 0xfffff68d
 c84:	2e00745f 	cfmvsrcs	mvf0, r7
 c88:	6174732f 	cmnvs	r4, pc, lsr #6
 c8c:	732d6666 			; <UNDEFINED> instruction: 0x732d6666
 c90:	642f6372 	strtvs	r6, [pc], #-882	; c98 <__code_start__-0x7368>
 c94:	75616665 	strbvc	r6, [r1, #-1637]!	; 0xfffff99b
 c98:	722d746c 	eorvc	r7, sp, #108, 8	; 0x6c000000
 c9c:	6f6f6265 	svcvs	0x006f6265
 ca0:	61632d74 	smcvs	13012	; 0x32d4
 ca4:	756f6c6c 	strbvc	r6, [pc, #-3180]!	; 40 <__code_start__-0x7fc0>
 ca8:	00632e74 	rsbeq	r2, r3, r4, ror lr

Disassembly of section .debug_frame:

00000000 <.debug_frame>:
   0:	0000000c 	andeq	r0, r0, ip
   4:	ffffffff 			; <UNDEFINED> instruction: 0xffffffff
   8:	7c020001 	stcvc	0, cr0, [r2], {1}
   c:	000d0c0e 	andeq	r0, sp, lr, lsl #24
  10:	00000020 	andeq	r0, r0, r0, lsr #32
  14:	00000000 	andeq	r0, r0, r0
  18:	00008038 	andeq	r8, r0, r8, lsr r0
  1c:	0000007c 	andeq	r0, r0, ip, ror r0
  20:	840c0e44 	strhi	r0, [ip], #-3652	; 0xfffff1bc
  24:	8e028503 	cfsh32hi	mvfx8, mvfx2, #3
  28:	8c0e4201 	sfmhi	f4, 4, [lr], {1}
  2c:	900e4208 	andls	r4, lr, r8, lsl #4
  30:	00000008 	andeq	r0, r0, r8
  34:	0000000c 	andeq	r0, r0, ip
  38:	ffffffff 			; <UNDEFINED> instruction: 0xffffffff
  3c:	7c020001 	stcvc	0, cr0, [r2], {1}
  40:	000d0c0e 	andeq	r0, sp, lr, lsl #24
  44:	00000014 	andeq	r0, r0, r4, lsl r0
  48:	00000034 	andeq	r0, r0, r4, lsr r0
  4c:	000080b4 	strheq	r8, [r0], -r4
  50:	00000038 	andeq	r0, r0, r8, lsr r0
  54:	8e040e42 	cdphi	14, 0, cr0, cr4, cr2, {2}
  58:	100e4401 	andne	r4, lr, r1, lsl #8
  5c:	0000000c 	andeq	r0, r0, ip
  60:	00000034 	andeq	r0, r0, r4, lsr r0
  64:	000080ec 	andeq	r8, r0, ip, ror #1
  68:	00000008 	andeq	r0, r0, r8
  6c:	00000024 	andeq	r0, r0, r4, lsr #32
  70:	00000034 	andeq	r0, r0, r4, lsr r0
  74:	000080f4 	strdeq	r8, [r0], -r4
  78:	00000160 	andeq	r0, r0, r0, ror #2
  7c:	84080e42 	strhi	r0, [r8], #-3650	; 0xfffff1be
  80:	44018e02 	strmi	r8, [r1], #-3586	; 0xfffff1fe
  84:	8002100e 	andhi	r1, r2, lr
  88:	42080e0a 	andmi	r0, r8, #160	; 0xa0
  8c:	000ec4ce 	andeq	ip, lr, lr, asr #9
  90:	00000b42 	andeq	r0, r0, r2, asr #22
  94:	00000018 	andeq	r0, r0, r8, lsl r0
  98:	00000034 	andeq	r0, r0, r4, lsr r0
  9c:	00008254 	andeq	r8, r0, r4, asr r2
  a0:	00000030 	andeq	r0, r0, r0, lsr r0
  a4:	84080e42 	strhi	r0, [r8], #-3650	; 0xfffff1be
  a8:	4e018e02 	cdpmi	14, 0, cr8, cr1, cr2, {0}
  ac:	000ec4ce 	andeq	ip, lr, lr, asr #9
  b0:	0000000c 	andeq	r0, r0, ip
  b4:	ffffffff 			; <UNDEFINED> instruction: 0xffffffff
  b8:	7c020001 	stcvc	0, cr0, [r2], {1}
  bc:	000d0c0e 	andeq	r0, sp, lr, lsl #24
  c0:	0000002c 	andeq	r0, r0, ip, lsr #32
  c4:	000000b0 	strheq	r0, [r0], -r0	; <UNPREDICTABLE>
  c8:	00008284 	andeq	r8, r0, r4, lsl #5
  cc:	00000314 	andeq	r0, r0, r4, lsl r3
  d0:	84240e44 	strthi	r0, [r4], #-3652	; 0xfffff1bc
  d4:	86088509 	strhi	r8, [r8], -r9, lsl #10
  d8:	88068707 	stmdahi	r6, {r0, r1, r2, r8, r9, sl, pc}
  dc:	8a048905 	bhi	1224f8 <__bss_end__+0x1184f0>
  e0:	8e028b03 	vmlahi.f64	d8, d2, d3
  e4:	480e4401 	stmdami	lr, {r0, sl, lr}
  e8:	0a011003 	beq	440fc <__bss_end__+0x3a0f4>
  ec:	0b42240e 	bleq	108912c <__bss_end__+0x107f124>
  f0:	00000014 	andeq	r0, r0, r4, lsl r0
  f4:	000000b0 	strheq	r0, [r0], -r0	; <UNPREDICTABLE>
  f8:	00008598 	muleq	r0, r8, r5
  fc:	00000028 	andeq	r0, r0, r8, lsr #32
 100:	84080e44 	strhi	r0, [r8], #-3652	; 0xfffff1bc
 104:	00018e02 	andeq	r8, r1, r2, lsl #28
 108:	0000000c 	andeq	r0, r0, ip
 10c:	ffffffff 			; <UNDEFINED> instruction: 0xffffffff
 110:	7c020001 	stcvc	0, cr0, [r2], {1}
 114:	000d0c0e 	andeq	r0, sp, lr, lsl #24
 118:	00000034 	andeq	r0, r0, r4, lsr r0
 11c:	00000108 	andeq	r0, r0, r8, lsl #2
 120:	000085c0 	andeq	r8, r0, r0, asr #11
 124:	00000058 	andeq	r0, r0, r8, asr r0
 128:	80100e42 	andshi	r0, r0, r2, asr #28
 12c:	82038104 	andhi	r8, r3, #1
 130:	42018302 	andmi	r8, r1, #134217728	; 0x8000000
 134:	07841c0e 	streq	r1, [r4, lr, lsl #24]
 138:	058e0685 	streq	r0, [lr, #1669]	; 0x685
 13c:	5c280e42 	stcpl	14, cr0, [r8], #-264	; 0xfffffef8
 140:	ce421c0e 	cdpgt	12, 4, cr1, cr2, cr14, {0}
 144:	100ec4c5 	andne	ip, lr, r5, asr #9
 148:	c1c2c342 	bicgt	ip, r2, r2, asr #6
 14c:	00000ec0 	andeq	r0, r0, r0, asr #29
 150:	0000000c 	andeq	r0, r0, ip
 154:	ffffffff 			; <UNDEFINED> instruction: 0xffffffff
 158:	7c020001 	stcvc	0, cr0, [r2], {1}
 15c:	000d0c0e 	andeq	r0, sp, lr, lsl #24
 160:	00000014 	andeq	r0, r0, r4, lsl r0
 164:	00000150 	andeq	r0, r0, r0, asr r1
 168:	00008618 	andeq	r8, r0, r8, lsl r6
 16c:	00000034 	andeq	r0, r0, r4, lsr r0
 170:	84080e42 	strhi	r0, [r8], #-3650	; 0xfffff1be
 174:	00018e02 	andeq	r8, r1, r2, lsl #28
 178:	0000000c 	andeq	r0, r0, ip
 17c:	ffffffff 			; <UNDEFINED> instruction: 0xffffffff
 180:	7c020001 	stcvc	0, cr0, [r2], {1}
 184:	000d0c0e 	andeq	r0, sp, lr, lsl #24
 188:	0000000c 	andeq	r0, r0, ip
 18c:	00000178 	andeq	r0, r0, r8, ror r1
 190:	0000864c 	andeq	r8, r0, ip, asr #12
 194:	00000014 	andeq	r0, r0, r4, lsl r0
 198:	0000000c 	andeq	r0, r0, ip
 19c:	00000178 	andeq	r0, r0, r8, ror r1
 1a0:	00008660 	andeq	r8, r0, r0, ror #12
 1a4:	00000024 	andeq	r0, r0, r4, lsr #32
 1a8:	0000000c 	andeq	r0, r0, ip
 1ac:	00000178 	andeq	r0, r0, r8, ror r1
 1b0:	00008684 	andeq	r8, r0, r4, lsl #13
 1b4:	00000038 	andeq	r0, r0, r8, lsr r0
 1b8:	00000024 	andeq	r0, r0, r4, lsr #32
 1bc:	00000178 	andeq	r0, r0, r8, ror r1
 1c0:	000086bc 			; <UNDEFINED> instruction: 0x000086bc
 1c4:	000001b4 			; <UNDEFINED> instruction: 0x000001b4
 1c8:	84140e42 	ldrhi	r0, [r4], #-3650	; 0xfffff1be
 1cc:	86048505 	strhi	r8, [r4], -r5, lsl #10
 1d0:	8e028703 	cdphi	7, 0, cr8, cr2, cr3, {0}
 1d4:	600e4201 	andvs	r4, lr, r1, lsl #4
 1d8:	0e0a9a02 	vmlaeq.f32	s18, s20, s4
 1dc:	000b4214 	andeq	r4, fp, r4, lsl r2
 1e0:	00000014 	andeq	r0, r0, r4, lsl r0
 1e4:	00000178 	andeq	r0, r0, r8, ror r1
 1e8:	00008870 	andeq	r8, r0, r0, ror r8
 1ec:	00000064 	andeq	r0, r0, r4, rrx
 1f0:	8e040e54 	mcrhi	14, 0, r0, cr4, cr4, {2}
 1f4:	100e4201 	andne	r4, lr, r1, lsl #4
 1f8:	0000002c 	andeq	r0, r0, ip, lsr #32
 1fc:	00000178 	andeq	r0, r0, r8, ror r1
 200:	000088d4 	ldrdeq	r8, [r0], -r4
 204:	000004b8 			; <UNDEFINED> instruction: 0x000004b8
 208:	84240e42 	strthi	r0, [r4], #-3650	; 0xfffff1be
 20c:	86088509 	strhi	r8, [r8], -r9, lsl #10
 210:	88068707 	stmdahi	r6, {r0, r1, r2, r8, r9, sl, pc}
 214:	8a048905 	bhi	122630 <__bss_end__+0x118628>
 218:	8e028b03 	vmlahi.f64	d8, d2, d3
 21c:	b80e4201 	stmdalt	lr, {r0, r9, lr}
 220:	02380302 	eorseq	r0, r8, #134217728	; 0x8000000
 224:	0000240e 	andeq	r2, r0, lr, lsl #8
 228:	0000000c 	andeq	r0, r0, ip
 22c:	ffffffff 			; <UNDEFINED> instruction: 0xffffffff
 230:	7c020001 	stcvc	0, cr0, [r2], {1}
 234:	000d0c0e 	andeq	r0, sp, lr, lsl #24
 238:	00000014 	andeq	r0, r0, r4, lsl r0
 23c:	00000228 	andeq	r0, r0, r8, lsr #4
 240:	00008d8c 	andeq	r8, r0, ip, lsl #27
 244:	0000002c 	andeq	r0, r0, ip, lsr #32
 248:	84080e42 	strhi	r0, [r8], #-3650	; 0xfffff1be
 24c:	00018e02 	andeq	r8, r1, r2, lsl #28
 250:	0000000c 	andeq	r0, r0, ip
 254:	ffffffff 			; <UNDEFINED> instruction: 0xffffffff
 258:	7c020001 	stcvc	0, cr0, [r2], {1}
 25c:	000d0c0e 	andeq	r0, sp, lr, lsl #24
 260:	00000014 	andeq	r0, r0, r4, lsl r0
 264:	00000250 	andeq	r0, r0, r0, asr r2
 268:	00008db8 			; <UNDEFINED> instruction: 0x00008db8
 26c:	0000003c 	andeq	r0, r0, ip, lsr r0
 270:	84080e42 	strhi	r0, [r8], #-3650	; 0xfffff1be
 274:	00018e02 	andeq	r8, r1, r2, lsl #28
 278:	0000000c 	andeq	r0, r0, ip
 27c:	ffffffff 			; <UNDEFINED> instruction: 0xffffffff
 280:	7c020001 	stcvc	0, cr0, [r2], {1}
 284:	000d0c0e 	andeq	r0, sp, lr, lsl #24
 288:	0000000c 	andeq	r0, r0, ip
 28c:	00000278 	andeq	r0, r0, r8, ror r2
 290:	00008df4 	strdeq	r8, [r0], -r4
 294:	00000004 	andeq	r0, r0, r4
 298:	0000000c 	andeq	r0, r0, ip
 29c:	ffffffff 			; <UNDEFINED> instruction: 0xffffffff
 2a0:	7c020001 	stcvc	0, cr0, [r2], {1}
 2a4:	000d0c0e 	andeq	r0, sp, lr, lsl #24
 2a8:	0000000c 	andeq	r0, r0, ip
 2ac:	00000298 	muleq	r0, r8, r2
 2b0:	00008e10 	andeq	r8, r0, r0, lsl lr
 2b4:	00000018 	andeq	r0, r0, r8, lsl r0
 2b8:	0000000c 	andeq	r0, r0, ip
 2bc:	00000298 	muleq	r0, r8, r2
 2c0:	00008e28 	andeq	r8, r0, r8, lsr #28
 2c4:	00000014 	andeq	r0, r0, r4, lsl r0
 2c8:	00000014 	andeq	r0, r0, r4, lsl r0
 2cc:	00000298 	muleq	r0, r8, r2
 2d0:	00008e3c 	andeq	r8, r0, ip, lsr lr
 2d4:	00000054 	andeq	r0, r0, r4, asr r0
 2d8:	84080e42 	strhi	r0, [r8], #-3650	; 0xfffff1be
 2dc:	00018e02 	andeq	r8, r1, r2, lsl #28
 2e0:	0000000c 	andeq	r0, r0, ip
 2e4:	ffffffff 			; <UNDEFINED> instruction: 0xffffffff
 2e8:	7c020001 	stcvc	0, cr0, [r2], {1}
 2ec:	000d0c0e 	andeq	r0, sp, lr, lsl #24
 2f0:	00000014 	andeq	r0, r0, r4, lsl r0
 2f4:	000002e0 	andeq	r0, r0, r0, ror #5
 2f8:	00008e90 	muleq	r0, r0, lr
 2fc:	00000014 	andeq	r0, r0, r4, lsl r0
 300:	84080e42 	strhi	r0, [r8], #-3650	; 0xfffff1be
 304:	00018e02 	andeq	r8, r1, r2, lsl #28
 308:	00000014 	andeq	r0, r0, r4, lsl r0
 30c:	000002e0 	andeq	r0, r0, r0, ror #5
 310:	00008ea4 	andeq	r8, r0, r4, lsr #29
 314:	0000001c 	andeq	r0, r0, ip, lsl r0
 318:	84080e42 	strhi	r0, [r8], #-3650	; 0xfffff1be
 31c:	00018e02 	andeq	r8, r1, r2, lsl #28
 320:	00000018 	andeq	r0, r0, r8, lsl r0
 324:	000002e0 	andeq	r0, r0, r0, ror #5
 328:	00008ec0 	andeq	r8, r0, r0, asr #29
 32c:	00000024 	andeq	r0, r0, r4, lsr #32
 330:	84100e42 	ldrhi	r0, [r0], #-3650	; 0xfffff1be
 334:	86038504 	strhi	r8, [r3], -r4, lsl #10
 338:	00018e02 	andeq	r8, r1, r2, lsl #28
 33c:	00000014 	andeq	r0, r0, r4, lsl r0
 340:	000002e0 	andeq	r0, r0, r0, ror #5
 344:	00008ee4 	andeq	r8, r0, r4, ror #29
 348:	00000018 	andeq	r0, r0, r8, lsl r0
 34c:	84080e42 	strhi	r0, [r8], #-3650	; 0xfffff1be
 350:	00018e02 	andeq	r8, r1, r2, lsl #28
 354:	00000014 	andeq	r0, r0, r4, lsl r0
 358:	000002e0 	andeq	r0, r0, r0, ror #5
 35c:	00008efc 	strdeq	r8, [r0], -ip
 360:	00000018 	andeq	r0, r0, r8, lsl r0
 364:	84080e42 	strhi	r0, [r8], #-3650	; 0xfffff1be
 368:	00018e02 	andeq	r8, r1, r2, lsl #28
 36c:	0000000c 	andeq	r0, r0, ip
 370:	ffffffff 			; <UNDEFINED> instruction: 0xffffffff
 374:	7c020001 	stcvc	0, cr0, [r2], {1}
 378:	000d0c0e 	andeq	r0, sp, lr, lsl #24
 37c:	00000018 	andeq	r0, r0, r8, lsl r0
 380:	0000036c 	andeq	r0, r0, ip, ror #6
 384:	00008f14 	andeq	r8, r0, r4, lsl pc
 388:	00000064 	andeq	r0, r0, r4, rrx
 38c:	84100e46 	ldrhi	r0, [r0], #-3654	; 0xfffff1ba
 390:	86038504 	strhi	r8, [r3], -r4, lsl #10
 394:	00018e02 	andeq	r8, r1, r2, lsl #28
 398:	00000014 	andeq	r0, r0, r4, lsl r0
 39c:	0000036c 	andeq	r0, r0, ip, ror #6
 3a0:	00008f78 	andeq	r8, r0, r8, ror pc
 3a4:	00000010 	andeq	r0, r0, r0, lsl r0
 3a8:	84080e42 	strhi	r0, [r8], #-3650	; 0xfffff1be
 3ac:	00018e02 	andeq	r8, r1, r2, lsl #28
 3b0:	00000014 	andeq	r0, r0, r4, lsl r0
 3b4:	0000036c 	andeq	r0, r0, ip, ror #6
 3b8:	00008f88 	andeq	r8, r0, r8, lsl #31
 3bc:	00000024 	andeq	r0, r0, r4, lsr #32
 3c0:	84080e46 	strhi	r0, [r8], #-3654	; 0xfffff1ba
 3c4:	00018e02 	andeq	r8, r1, r2, lsl #28
 3c8:	00000014 	andeq	r0, r0, r4, lsl r0
 3cc:	0000036c 	andeq	r0, r0, ip, ror #6
 3d0:	00008fac 	andeq	r8, r0, ip, lsr #31
 3d4:	00000024 	andeq	r0, r0, r4, lsr #32
 3d8:	84080e46 	strhi	r0, [r8], #-3654	; 0xfffff1ba
 3dc:	00018e02 	andeq	r8, r1, r2, lsl #28
 3e0:	00000014 	andeq	r0, r0, r4, lsl r0
 3e4:	0000036c 	andeq	r0, r0, ip, ror #6
 3e8:	00008fd0 	ldrdeq	r8, [r0], -r0
 3ec:	00000010 	andeq	r0, r0, r0, lsl r0
 3f0:	84080e42 	strhi	r0, [r8], #-3650	; 0xfffff1be
 3f4:	00018e02 	andeq	r8, r1, r2, lsl #28
 3f8:	00000014 	andeq	r0, r0, r4, lsl r0
 3fc:	0000036c 	andeq	r0, r0, ip, ror #6
 400:	00008fe0 	andeq	r8, r0, r0, ror #31
 404:	0000001c 	andeq	r0, r0, ip, lsl r0
 408:	84080e42 	strhi	r0, [r8], #-3650	; 0xfffff1be
 40c:	00018e02 	andeq	r8, r1, r2, lsl #28
 410:	00000018 	andeq	r0, r0, r8, lsl r0
 414:	0000036c 	andeq	r0, r0, ip, ror #6
 418:	00008ffc 	strdeq	r8, [r0], -ip
 41c:	00000034 	andeq	r0, r0, r4, lsr r0
 420:	84080e46 	strhi	r0, [r8], #-3654	; 0xfffff1ba
 424:	4e018e02 	cdpmi	14, 0, cr8, cr1, cr2, {0}
 428:	cec4000e 	cdpgt	0, 12, cr0, cr4, cr14, {0}
 42c:	0000000c 	andeq	r0, r0, ip
 430:	ffffffff 			; <UNDEFINED> instruction: 0xffffffff
 434:	7c020001 	stcvc	0, cr0, [r2], {1}
 438:	000d0c0e 	andeq	r0, sp, lr, lsl #24
 43c:	00000018 	andeq	r0, r0, r8, lsl r0
 440:	0000042c 	andeq	r0, r0, ip, lsr #8
 444:	00009030 	andeq	r9, r0, r0, lsr r0
 448:	00000020 	andeq	r0, r0, r0, lsr #32
 44c:	84100e42 	ldrhi	r0, [r0], #-3650	; 0xfffff1be
 450:	86038504 	strhi	r8, [r3], -r4, lsl #10
 454:	00018e02 	andeq	r8, r1, r2, lsl #28
 458:	00000018 	andeq	r0, r0, r8, lsl r0
 45c:	0000042c 	andeq	r0, r0, ip, lsr #8
 460:	00009050 	andeq	r9, r0, r0, asr r0
 464:	00000020 	andeq	r0, r0, r0, lsr #32
 468:	84100e42 	ldrhi	r0, [r0], #-3650	; 0xfffff1be
 46c:	86038504 	strhi	r8, [r3], -r4, lsl #10
 470:	00018e02 	andeq	r8, r1, r2, lsl #28
 474:	00000014 	andeq	r0, r0, r4, lsl r0
 478:	0000042c 	andeq	r0, r0, ip, lsr #8
 47c:	00009070 	andeq	r9, r0, r0, ror r0
 480:	000000b0 	strheq	r0, [r0], -r0	; <UNPREDICTABLE>
 484:	84080e42 	strhi	r0, [r8], #-3650	; 0xfffff1be
 488:	00018e02 	andeq	r8, r1, r2, lsl #28
 48c:	00000014 	andeq	r0, r0, r4, lsl r0
 490:	0000042c 	andeq	r0, r0, ip, lsr #8
 494:	00009120 	andeq	r9, r0, r0, lsr #2
 498:	00000018 	andeq	r0, r0, r8, lsl r0
 49c:	84080e42 	strhi	r0, [r8], #-3650	; 0xfffff1be
 4a0:	00018e02 	andeq	r8, r1, r2, lsl #28
 4a4:	00000014 	andeq	r0, r0, r4, lsl r0
 4a8:	0000042c 	andeq	r0, r0, ip, lsr #8
 4ac:	00009138 	andeq	r9, r0, r8, lsr r1
 4b0:	00000020 	andeq	r0, r0, r0, lsr #32
 4b4:	84080e42 	strhi	r0, [r8], #-3650	; 0xfffff1be
 4b8:	00018e02 	andeq	r8, r1, r2, lsl #28
 4bc:	00000014 	andeq	r0, r0, r4, lsl r0
 4c0:	0000042c 	andeq	r0, r0, ip, lsr #8
 4c4:	00009158 	andeq	r9, r0, r8, asr r1
 4c8:	00000030 	andeq	r0, r0, r0, lsr r0
 4cc:	84080e42 	strhi	r0, [r8], #-3650	; 0xfffff1be
 4d0:	00018e02 	andeq	r8, r1, r2, lsl #28
 4d4:	00000014 	andeq	r0, r0, r4, lsl r0
 4d8:	0000042c 	andeq	r0, r0, ip, lsr #8
 4dc:	00009188 	andeq	r9, r0, r8, lsl #3
 4e0:	00000030 	andeq	r0, r0, r0, lsr r0
 4e4:	84080e42 	strhi	r0, [r8], #-3650	; 0xfffff1be
 4e8:	00018e02 	andeq	r8, r1, r2, lsl #28
 4ec:	00000014 	andeq	r0, r0, r4, lsl r0
 4f0:	0000042c 	andeq	r0, r0, ip, lsr #8
 4f4:	000091b8 			; <UNDEFINED> instruction: 0x000091b8
 4f8:	00000010 	andeq	r0, r0, r0, lsl r0
 4fc:	84080e42 	strhi	r0, [r8], #-3650	; 0xfffff1be
 500:	00018e02 	andeq	r8, r1, r2, lsl #28
 504:	00000014 	andeq	r0, r0, r4, lsl r0
 508:	0000042c 	andeq	r0, r0, ip, lsr #8
 50c:	000091c8 	andeq	r9, r0, r8, asr #3
 510:	00000020 	andeq	r0, r0, r0, lsr #32
 514:	84080e42 	strhi	r0, [r8], #-3650	; 0xfffff1be
 518:	00018e02 	andeq	r8, r1, r2, lsl #28
 51c:	00000014 	andeq	r0, r0, r4, lsl r0
 520:	0000042c 	andeq	r0, r0, ip, lsr #8
 524:	000091e8 	andeq	r9, r0, r8, ror #3
 528:	00000014 	andeq	r0, r0, r4, lsl r0
 52c:	84080e42 	strhi	r0, [r8], #-3650	; 0xfffff1be
 530:	00018e02 	andeq	r8, r1, r2, lsl #28
 534:	00000014 	andeq	r0, r0, r4, lsl r0
 538:	0000042c 	andeq	r0, r0, ip, lsr #8
 53c:	000091fc 	strdeq	r9, [r0], -ip
 540:	00000024 	andeq	r0, r0, r4, lsr #32
 544:	84080e42 	strhi	r0, [r8], #-3650	; 0xfffff1be
 548:	00018e02 	andeq	r8, r1, r2, lsl #28
 54c:	0000000c 	andeq	r0, r0, ip
 550:	ffffffff 			; <UNDEFINED> instruction: 0xffffffff
 554:	7c020001 	stcvc	0, cr0, [r2], {1}
 558:	000d0c0e 	andeq	r0, sp, lr, lsl #24
 55c:	00000014 	andeq	r0, r0, r4, lsl r0
 560:	0000054c 	andeq	r0, r0, ip, asr #10
 564:	00009220 	andeq	r9, r0, r0, lsr #4
 568:	00000014 	andeq	r0, r0, r4, lsl r0
 56c:	84080e42 	strhi	r0, [r8], #-3650	; 0xfffff1be
 570:	00018e02 	andeq	r8, r1, r2, lsl #28
 574:	0000000c 	andeq	r0, r0, ip
 578:	0000054c 	andeq	r0, r0, ip, asr #10
 57c:	00009234 	andeq	r9, r0, r4, lsr r2
 580:	00000018 	andeq	r0, r0, r8, lsl r0
 584:	0000000c 	andeq	r0, r0, ip
 588:	0000054c 	andeq	r0, r0, ip, asr #10
 58c:	0000924c 	andeq	r9, r0, ip, asr #4
 590:	00000010 	andeq	r0, r0, r0, lsl r0
 594:	0000000c 	andeq	r0, r0, ip
 598:	ffffffff 			; <UNDEFINED> instruction: 0xffffffff
 59c:	7c020001 	stcvc	0, cr0, [r2], {1}
 5a0:	000d0c0e 	andeq	r0, sp, lr, lsl #24
 5a4:	0000000c 	andeq	r0, r0, ip
 5a8:	00000594 	muleq	r0, r4, r5
 5ac:	0000925c 	andeq	r9, r0, ip, asr r2
 5b0:	00000034 	andeq	r0, r0, r4, lsr r0
 5b4:	0000000c 	andeq	r0, r0, ip
 5b8:	ffffffff 			; <UNDEFINED> instruction: 0xffffffff
 5bc:	7c020001 	stcvc	0, cr0, [r2], {1}
 5c0:	000d0c0e 	andeq	r0, sp, lr, lsl #24
 5c4:	0000000c 	andeq	r0, r0, ip
 5c8:	000005b4 			; <UNDEFINED> instruction: 0x000005b4
 5cc:	00009290 	muleq	r0, r0, r2
 5d0:	0000002c 	andeq	r0, r0, ip, lsr #32
 5d4:	0000000c 	andeq	r0, r0, ip
 5d8:	ffffffff 			; <UNDEFINED> instruction: 0xffffffff
 5dc:	7c020001 	stcvc	0, cr0, [r2], {1}
 5e0:	000d0c0e 	andeq	r0, sp, lr, lsl #24
 5e4:	0000000c 	andeq	r0, r0, ip
 5e8:	000005d4 	ldrdeq	r0, [r0], -r4
 5ec:	000092bc 			; <UNDEFINED> instruction: 0x000092bc
 5f0:	00000020 	andeq	r0, r0, r0, lsr #32
 5f4:	0000000c 	andeq	r0, r0, ip
 5f8:	ffffffff 			; <UNDEFINED> instruction: 0xffffffff
 5fc:	7c020001 	stcvc	0, cr0, [r2], {1}
 600:	000d0c0e 	andeq	r0, sp, lr, lsl #24
 604:	0000000c 	andeq	r0, r0, ip
 608:	000005f4 	strdeq	r0, [r0], -r4
 60c:	000092dc 	ldrdeq	r9, [r0], -ip
 610:	0000002c 	andeq	r0, r0, ip, lsr #32
 614:	0000000c 	andeq	r0, r0, ip
 618:	ffffffff 			; <UNDEFINED> instruction: 0xffffffff
 61c:	7c020001 	stcvc	0, cr0, [r2], {1}
 620:	000d0c0e 	andeq	r0, sp, lr, lsl #24
 624:	0000000c 	andeq	r0, r0, ip
 628:	00000614 	andeq	r0, r0, r4, lsl r6
 62c:	00009308 	andeq	r9, r0, r8, lsl #6
 630:	00000004 	andeq	r0, r0, r4
