
tests/5-fft-time.elf:     file format elf32-littlearm


Disassembly of section .text:

00008000 <__code_start__>:
    8000:	e3a00013 	mov	r0, #19, 0
    8004:	e3800080 	orr	r0, r0, #128, 0	; 0x80
    8008:	e129f000 	msr	CPSR_fc, r0
    800c:	e3a01000 	mov	r1, #0, 0
    8010:	ee071f95 	mcr	15, 0, r1, cr7, cr5, {4}
    8014:	e3a0d302 	mov	sp, #134217728	; 0x8000000
    8018:	e3a0b000 	mov	fp, #0, 0
    801c:	eb0002d7 	bl	8b80 <_cstart>
    8020:	eb0002f7 	bl	8c04 <rpi_reboot>

00008024 <PUT32>:
    8024:	e5801000 	str	r1, [r0]
    8028:	e12fff1e 	bx	lr

0000802c <GET32>:
    802c:	e5900000 	ldr	r0, [r0]
    8030:	e12fff1e 	bx	lr

00008034 <BRANCHTO>:
    8034:	e12fff10 	bx	r0

00008038 <notmain>:
    8038:	e3a00000 	mov	r0, #0, 0
    803c:	e92d4030 	push	{r4, r5, lr}
    8040:	e24ddb01 	sub	sp, sp, #1024	; 0x400
    8044:	e24dd004 	sub	sp, sp, #4, 0
    8048:	e59f105c 	ldr	r1, [pc, #92]	; 80ac <notmain+0x74>
    804c:	e28d3c02 	add	r3, sp, #512	; 0x200
    8050:	e24d2004 	sub	r2, sp, #4, 0
    8054:	e5a21004 	str	r1, [r2, #4]!
    8058:	e28dcb01 	add	ip, sp, #1024	; 0x400
    805c:	e4830004 	str	r0, [r3], #4
    8060:	e153000c 	cmp	r3, ip
    8064:	1afffffa 	bne	8054 <notmain+0x1c>
    8068:	eb0002ff 	bl	8c6c <timer_get_usec>
    806c:	e3a04b01 	mov	r4, #1024	; 0x400
    8070:	e1a05000 	mov	r5, r0
    8074:	e3a03000 	mov	r3, #0, 0
    8078:	e3a02008 	mov	r2, #8, 0
    807c:	e1a0000d 	mov	r0, sp
    8080:	e28d1c02 	add	r1, sp, #512	; 0x200
    8084:	eb00007e 	bl	8284 <fft_fixed_cfft>
    8088:	e2544001 	subs	r4, r4, #1, 0
    808c:	1afffff8 	bne	8074 <notmain+0x3c>
    8090:	eb0002f5 	bl	8c6c <timer_get_usec>
    8094:	e0401005 	sub	r1, r0, r5
    8098:	e3a02c01 	mov	r2, #256	; 0x100
    809c:	e1a01521 	lsr	r1, r1, #10
    80a0:	e59f0008 	ldr	r0, [pc, #8]	; 80b0 <notmain+0x78>
    80a4:	eb0000b7 	bl	8388 <printk>
    80a8:	eb0002a9 	bl	8b54 <clean_reboot>
    80ac:	04000400 	streq	r0, [r0], #-1024	; 0xfffffc00
    80b0:	000090d8 	ldrdeq	r9, [r0], -r8

000080b4 <bits_set.part.0>:
    80b4:	e52de004 	push	{lr}		; (str lr, [sp, #-4]!)
    80b8:	e59f201c 	ldr	r2, [pc, #28]	; 80dc <bits_set.part.0+0x28>
    80bc:	e24dd00c 	sub	sp, sp, #12, 0
    80c0:	e3a03058 	mov	r3, #88, 0	; 0x58
    80c4:	e59f1014 	ldr	r1, [pc, #20]	; 80e0 <bits_set.part.0+0x2c>
    80c8:	e58d2000 	str	r2, [sp]
    80cc:	e59f0010 	ldr	r0, [pc, #16]	; 80e4 <bits_set.part.0+0x30>
    80d0:	e59f2010 	ldr	r2, [pc, #16]	; 80e8 <bits_set.part.0+0x34>
    80d4:	eb0000ab 	bl	8388 <printk>
    80d8:	eb00029d 	bl	8b54 <clean_reboot>
    80dc:	00009160 	andeq	r9, r0, r0, ror #2
    80e0:	000090f0 	strdeq	r9, [r0], -r0
    80e4:	0000914c 	andeq	r9, r0, ip, asr #2
    80e8:	000091a4 	andeq	r9, r0, r4, lsr #3

000080ec <CM_reg_value>:
    80ec:	e380045a 	orr	r0, r0, #1509949440	; 0x5a000000
    80f0:	e12fff1e 	bx	lr

000080f4 <i2s_init>:
    80f4:	e92d4010 	push	{r4, lr}
    80f8:	e59f0128 	ldr	r0, [pc, #296]	; 8228 <i2s_init+0x134>
    80fc:	e24dd008 	sub	sp, sp, #8, 0
    8100:	ebffffc9 	bl	802c <GET32>
    8104:	e3100001 	tst	r0, #1, 0
    8108:	1a00003e 	bne	8208 <i2s_init+0x114>
    810c:	e3a01004 	mov	r1, #4, 0
    8110:	e3a00012 	mov	r0, #18, 0
    8114:	eb0002f0 	bl	8cdc <gpio_set_function>
    8118:	e3a01004 	mov	r1, #4, 0
    811c:	e3a00013 	mov	r0, #19, 0
    8120:	eb0002ed 	bl	8cdc <gpio_set_function>
    8124:	e3a01004 	mov	r1, #4, 0
    8128:	e3a00014 	mov	r0, #20, 0
    812c:	eb0002ea 	bl	8cdc <gpio_set_function>
    8130:	e3a00012 	mov	r0, #18, 0
    8134:	eb000305 	bl	8d50 <gpio_set_on>
    8138:	e3a00013 	mov	r0, #19, 0
    813c:	eb000303 	bl	8d50 <gpio_set_on>
    8140:	e3a00014 	mov	r0, #20, 0
    8144:	eb000301 	bl	8d50 <gpio_set_on>
    8148:	eb00029c 	bl	8bc0 <dev_barrier>
    814c:	e59f00d8 	ldr	r0, [pc, #216]	; 822c <i2s_init+0x138>
    8150:	ebffffb5 	bl	802c <GET32>
    8154:	e59f10d4 	ldr	r1, [pc, #212]	; 8230 <i2s_init+0x13c>
    8158:	e3c00c06 	bic	r0, r0, #1536	; 0x600
    815c:	e3c0000f 	bic	r0, r0, #15, 0
    8160:	e1801001 	orr	r1, r0, r1
    8164:	e59f00c0 	ldr	r0, [pc, #192]	; 822c <i2s_init+0x138>
    8168:	ebffffad 	bl	8024 <PUT32>
    816c:	e59f10c0 	ldr	r1, [pc, #192]	; 8234 <i2s_init+0x140>
    8170:	e59f00c0 	ldr	r0, [pc, #192]	; 8238 <i2s_init+0x144>
    8174:	ebffffaa 	bl	8024 <PUT32>
    8178:	e59f00ac 	ldr	r0, [pc, #172]	; 822c <i2s_init+0x138>
    817c:	ebffffaa 	bl	802c <GET32>
    8180:	e380145a 	orr	r1, r0, #1509949440	; 0x5a000000
    8184:	e3811010 	orr	r1, r1, #16, 0
    8188:	e59f009c 	ldr	r0, [pc, #156]	; 822c <i2s_init+0x138>
    818c:	ebffffa4 	bl	8024 <PUT32>
    8190:	eb00028a 	bl	8bc0 <dev_barrier>
    8194:	e59f00a0 	ldr	r0, [pc, #160]	; 823c <i2s_init+0x148>
    8198:	ebffffa3 	bl	802c <GET32>
    819c:	e1a01a20 	lsr	r1, r0, #20
    81a0:	e1a01a01 	lsl	r1, r1, #20
    81a4:	e3811b3f 	orr	r1, r1, #64512	; 0xfc00
    81a8:	e3811020 	orr	r1, r1, #32, 0
    81ac:	e59f0088 	ldr	r0, [pc, #136]	; 823c <i2s_init+0x148>
    81b0:	ebffff9b 	bl	8024 <PUT32>
    81b4:	e59f0084 	ldr	r0, [pc, #132]	; 8240 <i2s_init+0x14c>
    81b8:	ebffff9b 	bl	802c <GET32>
    81bc:	e3c0180f 	bic	r1, r0, #983040	; 0xf0000
    81c0:	e3811103 	orr	r1, r1, #-1073741824	; 0xc0000000
    81c4:	e3811702 	orr	r1, r1, #524288	; 0x80000
    81c8:	e59f0070 	ldr	r0, [pc, #112]	; 8240 <i2s_init+0x14c>
    81cc:	ebffff94 	bl	8024 <PUT32>
    81d0:	e59f0050 	ldr	r0, [pc, #80]	; 8228 <i2s_init+0x134>
    81d4:	ebffff94 	bl	802c <GET32>
    81d8:	e3801403 	orr	r1, r0, #50331648	; 0x3000000
    81dc:	e3811013 	orr	r1, r1, #19, 0
    81e0:	e59f0040 	ldr	r0, [pc, #64]	; 8228 <i2s_init+0x134>
    81e4:	ebffff8e 	bl	8024 <PUT32>
    81e8:	e59f4038 	ldr	r4, [pc, #56]	; 8228 <i2s_init+0x134>
    81ec:	e1a00004 	mov	r0, r4
    81f0:	ebffff8d 	bl	802c <GET32>
    81f4:	e3100401 	tst	r0, #16777216	; 0x1000000
    81f8:	0afffffb 	beq	81ec <i2s_init+0xf8>
    81fc:	e28dd008 	add	sp, sp, #8, 0
    8200:	e8bd4010 	pop	{r4, lr}
    8204:	ea00026d 	b	8bc0 <dev_barrier>
    8208:	e59f2034 	ldr	r2, [pc, #52]	; 8244 <i2s_init+0x150>
    820c:	e3a0301d 	mov	r3, #29, 0
    8210:	e59f1030 	ldr	r1, [pc, #48]	; 8248 <i2s_init+0x154>
    8214:	e58d2000 	str	r2, [sp]
    8218:	e59f002c 	ldr	r0, [pc, #44]	; 824c <i2s_init+0x158>
    821c:	e59f202c 	ldr	r2, [pc, #44]	; 8250 <i2s_init+0x15c>
    8220:	eb000058 	bl	8388 <printk>
    8224:	eb00024a 	bl	8b54 <clean_reboot>
    8228:	20203000 	eorcs	r3, r0, r0
    822c:	20101098 	mulscs	r0, r8, r0
    8230:	5a000601 	bpl	9a3c <__data_end__+0x30>
    8234:	5a006cd8 	bpl	2359c <__bss_end__+0x1978c>
    8238:	2010109c 	mulscs	r0, ip, r0
    823c:	20203008 	eorcs	r3, r0, r8
    8240:	2020300c 	eorcs	r3, r0, ip
    8244:	00009180 	andeq	r9, r0, r0, lsl #3
    8248:	00009178 	andeq	r9, r0, r8, ror r1
    824c:	0000914c 	andeq	r9, r0, ip, asr #2
    8250:	000091b0 			; <UNDEFINED> instruction: 0x000091b0

00008254 <i2s_read_sample>:
    8254:	e92d4010 	push	{r4, lr}
    8258:	eb000258 	bl	8bc0 <dev_barrier>
    825c:	e59f4018 	ldr	r4, [pc, #24]	; 827c <i2s_read_sample+0x28>
    8260:	e1a00004 	mov	r0, r4
    8264:	ebffff70 	bl	802c <GET32>
    8268:	e3100601 	tst	r0, #1048576	; 0x100000
    826c:	0afffffb 	beq	8260 <i2s_read_sample+0xc>
    8270:	e8bd4010 	pop	{r4, lr}
    8274:	e59f0004 	ldr	r0, [pc, #4]	; 8280 <i2s_read_sample+0x2c>
    8278:	eaffff6b 	b	802c <GET32>
    827c:	20203000 	eorcs	r3, r0, r0
    8280:	20203004 	eorcs	r3, r0, r4

00008284 <fft_fixed_cfft>:
    8284:	e92d41f0 	push	{r4, r5, r6, r7, r8, lr}
    8288:	e3a04001 	mov	r4, #1, 0
    828c:	e1a07214 	lsl	r7, r4, r2
    8290:	e3570b01 	cmp	r7, #1024	; 0x400
    8294:	8a000025 	bhi	8330 <fft_fixed_cfft+0xac>
    8298:	e1570004 	cmp	r7, r4
    829c:	83a0c000 	movhi	ip, #0, 0
    82a0:	8247e001 	subhi	lr, r7, #1, 0
    82a4:	82806002 	addhi	r6, r0, #2, 0
    82a8:	82815002 	addhi	r5, r1, #2, 0
    82ac:	9a00001d 	bls	8328 <fft_fixed_cfft+0xa4>
    82b0:	e1a03007 	mov	r3, r7
    82b4:	e1a030a3 	lsr	r3, r3, #1
    82b8:	e083200c 	add	r2, r3, ip
    82bc:	e152000e 	cmp	r2, lr
    82c0:	8afffffb 	bhi	82b4 <fft_fixed_cfft+0x30>
    82c4:	e2432001 	sub	r2, r3, #1, 0
    82c8:	e00cc002 	and	ip, ip, r2
    82cc:	e08cc003 	add	ip, ip, r3
    82d0:	e15c0004 	cmp	ip, r4
    82d4:	9a000008 	bls	82fc <fft_fixed_cfft+0x78>
    82d8:	e1a0308c 	lsl	r3, ip, #1
    82dc:	e19080f3 	ldrsh	r8, [r0, r3]
    82e0:	e1d620f0 	ldrsh	r2, [r6]
    82e4:	e1c680b0 	strh	r8, [r6]
    82e8:	e18020b3 	strh	r2, [r0, r3]
    82ec:	e1d520f0 	ldrsh	r2, [r5]
    82f0:	e19180f3 	ldrsh	r8, [r1, r3]
    82f4:	e1c580b0 	strh	r8, [r5]
    82f8:	e18120b3 	strh	r2, [r1, r3]
    82fc:	e2844001 	add	r4, r4, #1, 0
    8300:	e1570004 	cmp	r7, r4
    8304:	e2866002 	add	r6, r6, #2, 0
    8308:	e2855002 	add	r5, r5, #2, 0
    830c:	1affffe7 	bne	82b0 <fft_fixed_cfft+0x2c>
    8310:	e3a03008 	mov	r3, #8, 0
    8314:	e59f202c 	ldr	r2, [pc, #44]	; 8348 <fft_fixed_cfft+0xc4>
    8318:	e59f102c 	ldr	r1, [pc, #44]	; 834c <fft_fixed_cfft+0xc8>
    831c:	e59f002c 	ldr	r0, [pc, #44]	; 8350 <fft_fixed_cfft+0xcc>
    8320:	eb000018 	bl	8388 <printk>
    8324:	eb00020a 	bl	8b54 <clean_reboot>
    8328:	e3a00000 	mov	r0, #0, 0
    832c:	e8bd81f0 	pop	{r4, r5, r6, r7, r8, pc}
    8330:	e3a0300f 	mov	r3, #15, 0
    8334:	e59f2018 	ldr	r2, [pc, #24]	; 8354 <fft_fixed_cfft+0xd0>
    8338:	e59f1018 	ldr	r1, [pc, #24]	; 8358 <fft_fixed_cfft+0xd4>
    833c:	e59f0018 	ldr	r0, [pc, #24]	; 835c <fft_fixed_cfft+0xd8>
    8340:	eb000010 	bl	8388 <printk>
    8344:	eb000202 	bl	8b54 <clean_reboot>
    8348:	00009268 	andeq	r9, r0, r8, ror #4
    834c:	000091f4 	strdeq	r9, [r0], -r4
    8350:	000091fc 	strdeq	r9, [r0], -ip
    8354:	00009258 	andeq	r9, r0, r8, asr r2
    8358:	000091bc 			; <UNDEFINED> instruction: 0x000091bc
    835c:	000091c4 	andeq	r9, r0, r4, asr #3

00008360 <fft_fixed_rfft>:
    8360:	e3a0306a 	mov	r3, #106, 0	; 0x6a
    8364:	e92d4010 	push	{r4, lr}
    8368:	e59f200c 	ldr	r2, [pc, #12]	; 837c <fft_fixed_rfft+0x1c>
    836c:	e59f100c 	ldr	r1, [pc, #12]	; 8380 <fft_fixed_rfft+0x20>
    8370:	e59f000c 	ldr	r0, [pc, #12]	; 8384 <fft_fixed_rfft+0x24>
    8374:	eb000003 	bl	8388 <printk>
    8378:	eb0001f5 	bl	8b54 <clean_reboot>
    837c:	00009278 	andeq	r9, r0, r8, ror r2
    8380:	000091bc 			; <UNDEFINED> instruction: 0x000091bc
    8384:	00009228 	andeq	r9, r0, r8, lsr #4

00008388 <printk>:
    8388:	e92d000f 	push	{r0, r1, r2, r3}
    838c:	e92d4030 	push	{r4, r5, lr}
    8390:	e24dd00c 	sub	sp, sp, #12, 0
    8394:	e28d301c 	add	r3, sp, #28, 0
    8398:	e58d3004 	str	r3, [sp, #4]
    839c:	e59f5034 	ldr	r5, [pc, #52]	; 83d8 <printk+0x50>
    83a0:	e59d2018 	ldr	r2, [sp, #24]
    83a4:	e3a01b01 	mov	r1, #1024	; 0x400
    83a8:	e1a00005 	mov	r0, r5
    83ac:	eb0000ba 	bl	869c <va_printk>
    83b0:	e1a04000 	mov	r4, r0
    83b4:	e59f3020 	ldr	r3, [pc, #32]	; 83dc <printk+0x54>
    83b8:	e5933000 	ldr	r3, [r3]
    83bc:	e1a00005 	mov	r0, r5
    83c0:	e12fff33 	blx	r3
    83c4:	e1a00004 	mov	r0, r4
    83c8:	e28dd00c 	add	sp, sp, #12, 0
    83cc:	e8bd4030 	pop	{r4, r5, lr}
    83d0:	e28dd010 	add	sp, sp, #16, 0
    83d4:	e12fff1e 	bx	lr
    83d8:	00009a0c 	andeq	r9, r0, ip, lsl #20
    83dc:	00009a04 	andeq	r9, r0, r4, lsl #20

000083e0 <internal_putk>:
    83e0:	e92d4010 	push	{r4, lr}
    83e4:	e1a04000 	mov	r4, r0
    83e8:	e5d40000 	ldrb	r0, [r4]
    83ec:	e3500000 	cmp	r0, #0, 0
    83f0:	0a000004 	beq	8408 <internal_putk+0x28>
    83f4:	e59f3014 	ldr	r3, [pc, #20]	; 8410 <internal_putk+0x30>
    83f8:	e5933000 	ldr	r3, [r3]
    83fc:	e12fff33 	blx	r3
    8400:	e2844001 	add	r4, r4, #1, 0
    8404:	eafffff7 	b	83e8 <internal_putk+0x8>
    8408:	e3a00001 	mov	r0, #1, 0
    840c:	e8bd8010 	pop	{r4, pc}
    8410:	00009a08 	andeq	r9, r0, r8, lsl #20

00008414 <isdigit>:
    8414:	e2400030 	sub	r0, r0, #48, 0	; 0x30
    8418:	e3500009 	cmp	r0, #9, 0
    841c:	83a00000 	movhi	r0, #0, 0
    8420:	93a00001 	movls	r0, #1, 0
    8424:	e12fff1e 	bx	lr

00008428 <pad>:
    8428:	e0401001 	sub	r1, r0, r1
    842c:	e1510002 	cmp	r1, r2
    8430:	b3a03020 	movlt	r3, #32, 0
    8434:	b4c03001 	strblt	r3, [r0], #1
    8438:	b2811001 	addlt	r1, r1, #1, 0
    843c:	bafffffa 	blt	842c <pad+0x4>
    8440:	e3a03000 	mov	r3, #0, 0
    8444:	e5c03000 	strb	r3, [r0]
    8448:	e12fff1e 	bx	lr

0000844c <reverse>:
    844c:	e042c003 	sub	ip, r2, r3
    8450:	e28cc001 	add	ip, ip, #1, 0
    8454:	e15c0001 	cmp	ip, r1
    8458:	c04cc001 	subgt	ip, ip, r1
    845c:	c083300c 	addgt	r3, r3, ip
    8460:	e2421001 	sub	r1, r2, #1, 0
    8464:	e1a02000 	mov	r2, r0
    8468:	e1510003 	cmp	r1, r3
    846c:	2451c001 	ldrbcs	ip, [r1], #-1
    8470:	24c2c001 	strbcs	ip, [r2], #1
    8474:	2afffffb 	bcs	8468 <reverse+0x1c>
    8478:	e3a03000 	mov	r3, #0, 0
    847c:	e5c23000 	strb	r3, [r2]
    8480:	e12fff1e 	bx	lr

00008484 <emit>:
    8484:	e92d40f0 	push	{r4, r5, r6, r7, lr}
    8488:	e24dd04c 	sub	sp, sp, #76, 0	; 0x4c
    848c:	e1a05001 	mov	r5, r1
    8490:	e1a04002 	mov	r4, r2
    8494:	e59d2060 	ldr	r2, [sp, #96]	; 0x60
    8498:	e1520004 	cmp	r2, r4
    849c:	c2442001 	subgt	r2, r4, #1, 0
    84a0:	e1a0c003 	mov	ip, r3
    84a4:	e2400002 	sub	r0, r0, #2, 0
    84a8:	e350000e 	cmp	r0, #14, 0
    84ac:	979ff100 	ldrls	pc, [pc, r0, lsl #2]
    84b0:	ea000050 	b	85f8 <emit+0x174>
    84b4:	000085d0 	ldrdeq	r8, [r0], -r0
    84b8:	000085f8 	strdeq	r8, [r0], -r8	; <UNPREDICTABLE>
    84bc:	000085f8 	strdeq	r8, [r0], -r8	; <UNPREDICTABLE>
    84c0:	000085f8 	strdeq	r8, [r0], -r8	; <UNPREDICTABLE>
    84c4:	000085f8 	strdeq	r8, [r0], -r8	; <UNPREDICTABLE>
    84c8:	000085f8 	strdeq	r8, [r0], -r8	; <UNPREDICTABLE>
    84cc:	000085c4 	andeq	r8, r0, r4, asr #11
    84d0:	000085f8 	strdeq	r8, [r0], -r8	; <UNPREDICTABLE>
    84d4:	000084f0 	strdeq	r8, [r0], -r0
    84d8:	000085f8 	strdeq	r8, [r0], -r8	; <UNPREDICTABLE>
    84dc:	000085f8 	strdeq	r8, [r0], -r8	; <UNPREDICTABLE>
    84e0:	000085f8 	strdeq	r8, [r0], -r8	; <UNPREDICTABLE>
    84e4:	000085f8 	strdeq	r8, [r0], -r8	; <UNPREDICTABLE>
    84e8:	000085f8 	strdeq	r8, [r0], -r8	; <UNPREDICTABLE>
    84ec:	00008568 	andeq	r8, r0, r8, ror #10
    84f0:	e59d1064 	ldr	r1, [sp, #100]	; 0x64
    84f4:	e2511000 	subs	r1, r1, #0, 0
    84f8:	13a01001 	movne	r1, #1, 0
    84fc:	e0111fa3 	ands	r1, r1, r3, lsr #31
    8500:	0a000016 	beq	8560 <emit+0xdc>
    8504:	e263c000 	rsb	ip, r3, #0, 0
    8508:	e3a06001 	mov	r6, #1, 0
    850c:	e28d0008 	add	r0, sp, #8, 0
    8510:	e59f3100 	ldr	r3, [pc, #256]	; 8618 <emit+0x194>
    8514:	e0831c93 	umull	r1, r3, r3, ip
    8518:	e1a031a3 	lsr	r3, r3, #3
    851c:	e1a0e003 	mov	lr, r3
    8520:	e0833103 	add	r3, r3, r3, lsl #2
    8524:	e04c3083 	sub	r3, ip, r3, lsl #1
    8528:	e1a01000 	mov	r1, r0
    852c:	e2800001 	add	r0, r0, #1, 0
    8530:	e59f70e4 	ldr	r7, [pc, #228]	; 861c <emit+0x198>
    8534:	e7d73003 	ldrb	r3, [r7, r3]
    8538:	e5c13000 	strb	r3, [r1]
    853c:	e1a0300c 	mov	r3, ip
    8540:	e1a0c00e 	mov	ip, lr
    8544:	e3530009 	cmp	r3, #9, 0
    8548:	8afffff0 	bhi	8510 <emit+0x8c>
    854c:	e3560000 	cmp	r6, #0, 0
    8550:	13a0302d 	movne	r3, #45, 0	; 0x2d
    8554:	15c03000 	strbne	r3, [r0]
    8558:	12810002 	addne	r0, r1, #2, 0
    855c:	ea00000f 	b	85a0 <emit+0x11c>
    8560:	e3a06000 	mov	r6, #0, 0
    8564:	eaffffe8 	b	850c <emit+0x88>
    8568:	e28d1008 	add	r1, sp, #8, 0
    856c:	e20c000f 	and	r0, ip, #15, 0
    8570:	e59fe0a8 	ldr	lr, [pc, #168]	; 8620 <emit+0x19c>
    8574:	e7de0000 	ldrb	r0, [lr, r0]
    8578:	e5c10000 	strb	r0, [r1]
    857c:	e2811001 	add	r1, r1, #1, 0
    8580:	e35c000f 	cmp	ip, #15, 0
    8584:	e1a0c22c 	lsr	ip, ip, #4
    8588:	8afffff7 	bhi	856c <emit+0xe8>
    858c:	e1a00001 	mov	r0, r1
    8590:	e3a03078 	mov	r3, #120, 0	; 0x78
    8594:	e4c03002 	strb	r3, [r0], #2
    8598:	e3a03030 	mov	r3, #48, 0	; 0x30
    859c:	e5c13001 	strb	r3, [r1, #1]
    85a0:	e28d1008 	add	r1, sp, #8, 0
    85a4:	ebffff9f 	bl	8428 <pad>
    85a8:	e1a02000 	mov	r2, r0
    85ac:	e28d3008 	add	r3, sp, #8, 0
    85b0:	e1a01004 	mov	r1, r4
    85b4:	e1a00005 	mov	r0, r5
    85b8:	ebffffa3 	bl	844c <reverse>
    85bc:	e28dd04c 	add	sp, sp, #76, 0	; 0x4c
    85c0:	e8bd80f0 	pop	{r4, r5, r6, r7, pc}
    85c4:	e5cd3008 	strb	r3, [sp, #8]
    85c8:	e28d0009 	add	r0, sp, #9, 0
    85cc:	eafffff3 	b	85a0 <emit+0x11c>
    85d0:	e28d0008 	add	r0, sp, #8, 0
    85d4:	e20c1001 	and	r1, ip, #1, 0
    85d8:	e59fe044 	ldr	lr, [pc, #68]	; 8624 <emit+0x1a0>
    85dc:	e7de1001 	ldrb	r1, [lr, r1]
    85e0:	e5c01000 	strb	r1, [r0]
    85e4:	e2800001 	add	r0, r0, #1, 0
    85e8:	e35c0001 	cmp	ip, #1, 0
    85ec:	e1a0c0ac 	lsr	ip, ip, #1
    85f0:	8afffff7 	bhi	85d4 <emit+0x150>
    85f4:	eaffffe9 	b	85a0 <emit+0x11c>
    85f8:	e59f3028 	ldr	r3, [pc, #40]	; 8628 <emit+0x1a4>
    85fc:	e58d3000 	str	r3, [sp]
    8600:	e3a03079 	mov	r3, #121, 0	; 0x79
    8604:	e59f2020 	ldr	r2, [pc, #32]	; 862c <emit+0x1a8>
    8608:	e59f1020 	ldr	r1, [pc, #32]	; 8630 <emit+0x1ac>
    860c:	e59f0020 	ldr	r0, [pc, #32]	; 8634 <emit+0x1b0>
    8610:	ebffff5c 	bl	8388 <printk>
    8614:	eb00014e 	bl	8b54 <clean_reboot>
    8618:	cccccccd 	stclgt	12, cr12, [ip], {205}	; 0xcd
    861c:	000092a0 	andeq	r9, r0, r0, lsr #5
    8620:	000092ac 	andeq	r9, r0, ip, lsr #5
    8624:	000092c0 	andeq	r9, r0, r0, asr #5
    8628:	0000929c 	muleq	r0, ip, r2
    862c:	000093cc 	andeq	r9, r0, ip, asr #7
    8630:	00009288 	andeq	r9, r0, r8, lsl #5
    8634:	0000914c 	andeq	r9, r0, ip, asr #2

00008638 <rpi_set_output>:
    8638:	e3500000 	cmp	r0, #0, 0
    863c:	0a000006 	beq	865c <rpi_set_output+0x24>
    8640:	e59f303c 	ldr	r3, [pc, #60]	; 8684 <rpi_set_output+0x4c>
    8644:	e5830000 	str	r0, [r3]
    8648:	e3510000 	cmp	r1, #0, 0
    864c:	012fff1e 	bxeq	lr
    8650:	e59f3030 	ldr	r3, [pc, #48]	; 8688 <rpi_set_output+0x50>
    8654:	e5831000 	str	r1, [r3]
    8658:	e12fff1e 	bx	lr
    865c:	e52de004 	push	{lr}		; (str lr, [sp, #-4]!)
    8660:	e24dd00c 	sub	sp, sp, #12, 0
    8664:	e59f3020 	ldr	r3, [pc, #32]	; 868c <rpi_set_output+0x54>
    8668:	e58d3000 	str	r3, [sp]
    866c:	e3a03020 	mov	r3, #32, 0
    8670:	e59f2018 	ldr	r2, [pc, #24]	; 8690 <rpi_set_output+0x58>
    8674:	e59f1018 	ldr	r1, [pc, #24]	; 8694 <rpi_set_output+0x5c>
    8678:	e59f0018 	ldr	r0, [pc, #24]	; 8698 <rpi_set_output+0x60>
    867c:	ebffff41 	bl	8388 <printk>
    8680:	eb000133 	bl	8b54 <clean_reboot>
    8684:	00009a08 	andeq	r9, r0, r8, lsl #20
    8688:	00009a04 	andeq	r9, r0, r4, lsl #20
    868c:	000092c4 	andeq	r9, r0, r4, asr #5
    8690:	000093d4 	ldrdeq	r9, [r0], -r4
    8694:	00009288 	andeq	r9, r0, r8, lsl #5
    8698:	0000914c 	andeq	r9, r0, ip, asr #2

0000869c <va_printk>:
    869c:	e92d4ff0 	push	{r4, r5, r6, r7, r8, r9, sl, fp, lr}
    86a0:	e24ddf45 	sub	sp, sp, #276	; 0x114
    86a4:	e1a09000 	mov	r9, r0
    86a8:	e58d2008 	str	r2, [sp, #8]
    86ac:	e58d300c 	str	r3, [sp, #12]
    86b0:	e2411001 	sub	r1, r1, #1, 0
    86b4:	e0808001 	add	r8, r0, r1
    86b8:	e3a03000 	mov	r3, #0, 0
    86bc:	e5c03000 	strb	r3, [r0]
    86c0:	e1a04000 	mov	r4, r0
    86c4:	e1a06002 	mov	r6, r2
    86c8:	ea000001 	b	86d4 <va_printk+0x38>
    86cc:	e2866001 	add	r6, r6, #1, 0
    86d0:	e4c43001 	strb	r3, [r4], #1
    86d4:	e5d63000 	ldrb	r3, [r6]
    86d8:	e3530000 	cmp	r3, #0, 0
    86dc:	0a000108 	beq	8b04 <va_printk+0x468>
    86e0:	e1540008 	cmp	r4, r8
    86e4:	2a000106 	bcs	8b04 <va_printk+0x468>
    86e8:	e3530025 	cmp	r3, #37, 0	; 0x25
    86ec:	1afffff6 	bne	86cc <va_printk+0x30>
    86f0:	e5d62001 	ldrb	r2, [r6, #1]
    86f4:	e3520025 	cmp	r2, #37, 0	; 0x25
    86f8:	04c43001 	strbeq	r3, [r4], #1
    86fc:	02866002 	addeq	r6, r6, #2, 0
    8700:	0afffff3 	beq	86d4 <va_printk+0x38>
    8704:	e2866001 	add	r6, r6, #1, 0
    8708:	e3a05000 	mov	r5, #0, 0
    870c:	e5d67000 	ldrb	r7, [r6]
    8710:	e1a0a007 	mov	sl, r7
    8714:	e1a00007 	mov	r0, r7
    8718:	ebffff3d 	bl	8414 <isdigit>
    871c:	e3500000 	cmp	r0, #0, 0
    8720:	0a000004 	beq	8738 <va_printk+0x9c>
    8724:	e0855105 	add	r5, r5, r5, lsl #2
    8728:	e0875085 	add	r5, r7, r5, lsl #1
    872c:	e2455030 	sub	r5, r5, #48, 0	; 0x30
    8730:	e2866001 	add	r6, r6, #1, 0
    8734:	eafffff4 	b	870c <va_printk+0x70>
    8738:	e355001f 	cmp	r5, #31, 0
    873c:	8a00001a 	bhi	87ac <va_printk+0x110>
    8740:	e2477062 	sub	r7, r7, #98, 0	; 0x62
    8744:	e3570016 	cmp	r7, #22, 0
    8748:	979ff107 	ldrls	pc, [pc, r7, lsl #2]
    874c:	ea0000d4 	b	8aa4 <va_printk+0x408>
    8750:	00008a28 	andeq	r8, r0, r8, lsr #20
    8754:	00008a70 	andeq	r8, r0, r0, ror sl
    8758:	00008988 	andeq	r8, r0, r8, lsl #19
    875c:	00008aa4 	andeq	r8, r0, r4, lsr #21
    8760:	00008970 	andeq	r8, r0, r0, ror r9
    8764:	00008aa4 	andeq	r8, r0, r4, lsr #21
    8768:	00008aa4 	andeq	r8, r0, r4, lsr #21
    876c:	00008aa4 	andeq	r8, r0, r4, lsr #21
    8770:	00008aa4 	andeq	r8, r0, r4, lsr #21
    8774:	00008aa4 	andeq	r8, r0, r4, lsr #21
    8778:	000087cc 	andeq	r8, r0, ip, asr #15
    877c:	00008aa4 	andeq	r8, r0, r4, lsr #21
    8780:	00008aa4 	andeq	r8, r0, r4, lsr #21
    8784:	00008aa4 	andeq	r8, r0, r4, lsr #21
    8788:	000089f4 	strdeq	r8, [r0], -r4
    878c:	00008aa4 	andeq	r8, r0, r4, lsr #21
    8790:	00008aa4 	andeq	r8, r0, r4, lsr #21
    8794:	00008a5c 	andeq	r8, r0, ip, asr sl
    8798:	00008aa4 	andeq	r8, r0, r4, lsr #21
    879c:	000089c0 	andeq	r8, r0, r0, asr #19
    87a0:	00008aa4 	andeq	r8, r0, r4, lsr #21
    87a4:	00008aa4 	andeq	r8, r0, r4, lsr #21
    87a8:	000089f4 	strdeq	r8, [r0], -r4
    87ac:	e59f3364 	ldr	r3, [pc, #868]	; 8b18 <va_printk+0x47c>
    87b0:	e58d3000 	str	r3, [sp]
    87b4:	e3a03098 	mov	r3, #152, 0	; 0x98
    87b8:	e59f235c 	ldr	r2, [pc, #860]	; 8b1c <va_printk+0x480>
    87bc:	e59f135c 	ldr	r1, [pc, #860]	; 8b20 <va_printk+0x484>
    87c0:	e59f035c 	ldr	r0, [pc, #860]	; 8b24 <va_printk+0x488>
    87c4:	ebfffeef 	bl	8388 <printk>
    87c8:	eb0000e1 	bl	8b54 <clean_reboot>
    87cc:	e3a02003 	mov	r2, #3, 0
    87d0:	e59f1350 	ldr	r1, [pc, #848]	; 8b28 <va_printk+0x48c>
    87d4:	e1a00006 	mov	r0, r6
    87d8:	eb000231 	bl	90a4 <strncmp>
    87dc:	e3500000 	cmp	r0, #0, 0
    87e0:	0a000005 	beq	87fc <va_printk+0x160>
    87e4:	e3a02003 	mov	r2, #3, 0
    87e8:	e59f133c 	ldr	r1, [pc, #828]	; 8b2c <va_printk+0x490>
    87ec:	e1a00006 	mov	r0, r6
    87f0:	eb00022b 	bl	90a4 <strncmp>
    87f4:	e3500000 	cmp	r0, #0, 0
    87f8:	1a000033 	bne	88cc <va_printk+0x230>
    87fc:	e286b002 	add	fp, r6, #2, 0
    8800:	e59d300c 	ldr	r3, [sp, #12]
    8804:	e2833007 	add	r3, r3, #7, 0
    8808:	e3c33007 	bic	r3, r3, #7, 0
    880c:	e2832008 	add	r2, r3, #8, 0
    8810:	e58d200c 	str	r2, [sp, #12]
    8814:	e593a000 	ldr	sl, [r3]
    8818:	e5937004 	ldr	r7, [r3, #4]
    881c:	e1a01007 	mov	r1, r7
    8820:	e59f0308 	ldr	r0, [pc, #776]	; 8b30 <va_printk+0x494>
    8824:	ebfffed7 	bl	8388 <printk>
    8828:	e1a0100a 	mov	r1, sl
    882c:	e59f0300 	ldr	r0, [pc, #768]	; 8b34 <va_printk+0x498>
    8830:	ebfffed4 	bl	8388 <printk>
    8834:	e3a02003 	mov	r2, #3, 0
    8838:	e59f12e8 	ldr	r1, [pc, #744]	; 8b28 <va_printk+0x48c>
    883c:	e1a00006 	mov	r0, r6
    8840:	eb000217 	bl	90a4 <strncmp>
    8844:	e3500000 	cmp	r0, #0, 0
    8848:	0a000027 	beq	88ec <va_printk+0x250>
    884c:	e3a02003 	mov	r2, #3, 0
    8850:	e59f12d4 	ldr	r1, [pc, #724]	; 8b2c <va_printk+0x490>
    8854:	e1a00006 	mov	r0, r6
    8858:	eb000211 	bl	90a4 <strncmp>
    885c:	e3500000 	cmp	r0, #0, 0
    8860:	1a00003b 	bne	8954 <va_printk+0x2b8>
    8864:	e3a06000 	mov	r6, #0, 0
    8868:	e58d6004 	str	r6, [sp, #4]
    886c:	e58d5000 	str	r5, [sp]
    8870:	e1a03007 	mov	r3, r7
    8874:	e3a02080 	mov	r2, #128, 0	; 0x80
    8878:	e28d1010 	add	r1, sp, #16, 0
    887c:	e3a0000a 	mov	r0, #10, 0
    8880:	ebfffeff 	bl	8484 <emit>
    8884:	e1a07000 	mov	r7, r0
    8888:	e58d6004 	str	r6, [sp, #4]
    888c:	e58d5000 	str	r5, [sp]
    8890:	e1a0300a 	mov	r3, sl
    8894:	e3a02080 	mov	r2, #128, 0	; 0x80
    8898:	e28d1090 	add	r1, sp, #144, 0	; 0x90
    889c:	e3a0000a 	mov	r0, #10, 0
    88a0:	ebfffef7 	bl	8484 <emit>
    88a4:	e59f128c 	ldr	r1, [pc, #652]	; 8b38 <va_printk+0x49c>
    88a8:	e28d0010 	add	r0, sp, #16, 0
    88ac:	eb0001e9 	bl	9058 <strcmp>
    88b0:	e1500006 	cmp	r0, r6
    88b4:	1a000021 	bne	8940 <va_printk+0x2a4>
    88b8:	e28d1090 	add	r1, sp, #144, 0	; 0x90
    88bc:	e28d0010 	add	r0, sp, #16, 0
    88c0:	eb0001ef 	bl	9084 <strcpy>
    88c4:	e1a0600b 	mov	r6, fp
    88c8:	ea00003a 	b	89b8 <va_printk+0x31c>
    88cc:	e59f3268 	ldr	r3, [pc, #616]	; 8b3c <va_printk+0x4a0>
    88d0:	e58d3000 	str	r3, [sp]
    88d4:	e3a0309f 	mov	r3, #159, 0	; 0x9f
    88d8:	e59f223c 	ldr	r2, [pc, #572]	; 8b1c <va_printk+0x480>
    88dc:	e59f123c 	ldr	r1, [pc, #572]	; 8b20 <va_printk+0x484>
    88e0:	e59f023c 	ldr	r0, [pc, #572]	; 8b24 <va_printk+0x488>
    88e4:	ebfffea7 	bl	8388 <printk>
    88e8:	eb000099 	bl	8b54 <clean_reboot>
    88ec:	e3a06000 	mov	r6, #0, 0
    88f0:	e58d6004 	str	r6, [sp, #4]
    88f4:	e58d5000 	str	r5, [sp]
    88f8:	e1a03007 	mov	r3, r7
    88fc:	e3a02080 	mov	r2, #128, 0	; 0x80
    8900:	e28d1010 	add	r1, sp, #16, 0
    8904:	e3a00010 	mov	r0, #16, 0
    8908:	ebfffedd 	bl	8484 <emit>
    890c:	e1a07000 	mov	r7, r0
    8910:	e58d6004 	str	r6, [sp, #4]
    8914:	e58d5000 	str	r5, [sp]
    8918:	e1a0300a 	mov	r3, sl
    891c:	e3a02080 	mov	r2, #128, 0	; 0x80
    8920:	e28d1090 	add	r1, sp, #144, 0	; 0x90
    8924:	e3a00010 	mov	r0, #16, 0
    8928:	ebfffed5 	bl	8484 <emit>
    892c:	e28d1092 	add	r1, sp, #146, 0	; 0x92
    8930:	e28d0010 	add	r0, sp, #16, 0
    8934:	eb0001ba 	bl	9024 <strcat>
    8938:	e1a0600b 	mov	r6, fp
    893c:	ea00001d 	b	89b8 <va_printk+0x31c>
    8940:	e28d1090 	add	r1, sp, #144, 0	; 0x90
    8944:	e28d0010 	add	r0, sp, #16, 0
    8948:	eb0001b5 	bl	9024 <strcat>
    894c:	e1a0600b 	mov	r6, fp
    8950:	ea000018 	b	89b8 <va_printk+0x31c>
    8954:	e58d6000 	str	r6, [sp]
    8958:	e3a030b6 	mov	r3, #182, 0	; 0xb6
    895c:	e59f21b8 	ldr	r2, [pc, #440]	; 8b1c <va_printk+0x480>
    8960:	e59f11b8 	ldr	r1, [pc, #440]	; 8b20 <va_printk+0x484>
    8964:	e59f01d4 	ldr	r0, [pc, #468]	; 8b40 <va_printk+0x4a4>
    8968:	ebfffe86 	bl	8388 <printk>
    896c:	eb000078 	bl	8b54 <clean_reboot>
    8970:	e3a030be 	mov	r3, #190, 0	; 0xbe
    8974:	e59f21a0 	ldr	r2, [pc, #416]	; 8b1c <va_printk+0x480>
    8978:	e59f11a0 	ldr	r1, [pc, #416]	; 8b20 <va_printk+0x484>
    897c:	e59f01c0 	ldr	r0, [pc, #448]	; 8b44 <va_printk+0x4a8>
    8980:	ebfffe80 	bl	8388 <printk>
    8984:	eb000072 	bl	8b54 <clean_reboot>
    8988:	e59d300c 	ldr	r3, [sp, #12]
    898c:	e2832004 	add	r2, r3, #4, 0
    8990:	e58d200c 	str	r2, [sp, #12]
    8994:	e5933000 	ldr	r3, [r3]
    8998:	e3a02001 	mov	r2, #1, 0
    899c:	e58d2004 	str	r2, [sp, #4]
    89a0:	e58d5000 	str	r5, [sp]
    89a4:	e3a02080 	mov	r2, #128, 0	; 0x80
    89a8:	e28d1010 	add	r1, sp, #16, 0
    89ac:	e3a0000a 	mov	r0, #10, 0
    89b0:	ebfffeb3 	bl	8484 <emit>
    89b4:	e1a07000 	mov	r7, r0
    89b8:	e2866001 	add	r6, r6, #1, 0
    89bc:	ea00004a 	b	8aec <va_printk+0x450>
    89c0:	e59d300c 	ldr	r3, [sp, #12]
    89c4:	e2832004 	add	r2, r3, #4, 0
    89c8:	e58d200c 	str	r2, [sp, #12]
    89cc:	e5933000 	ldr	r3, [r3]
    89d0:	e3a02000 	mov	r2, #0, 0
    89d4:	e58d2004 	str	r2, [sp, #4]
    89d8:	e58d5000 	str	r5, [sp]
    89dc:	e3a02080 	mov	r2, #128, 0	; 0x80
    89e0:	e28d1010 	add	r1, sp, #16, 0
    89e4:	e3a0000a 	mov	r0, #10, 0
    89e8:	ebfffea5 	bl	8484 <emit>
    89ec:	e1a07000 	mov	r7, r0
    89f0:	eafffff0 	b	89b8 <va_printk+0x31c>
    89f4:	e59d300c 	ldr	r3, [sp, #12]
    89f8:	e2832004 	add	r2, r3, #4, 0
    89fc:	e58d200c 	str	r2, [sp, #12]
    8a00:	e5933000 	ldr	r3, [r3]
    8a04:	e3a02000 	mov	r2, #0, 0
    8a08:	e58d2004 	str	r2, [sp, #4]
    8a0c:	e58d5000 	str	r5, [sp]
    8a10:	e3a02080 	mov	r2, #128, 0	; 0x80
    8a14:	e28d1010 	add	r1, sp, #16, 0
    8a18:	e3a00010 	mov	r0, #16, 0
    8a1c:	ebfffe98 	bl	8484 <emit>
    8a20:	e1a07000 	mov	r7, r0
    8a24:	eaffffe3 	b	89b8 <va_printk+0x31c>
    8a28:	e59d300c 	ldr	r3, [sp, #12]
    8a2c:	e2832004 	add	r2, r3, #4, 0
    8a30:	e58d200c 	str	r2, [sp, #12]
    8a34:	e5933000 	ldr	r3, [r3]
    8a38:	e3a02000 	mov	r2, #0, 0
    8a3c:	e58d2004 	str	r2, [sp, #4]
    8a40:	e58d5000 	str	r5, [sp]
    8a44:	e3a02080 	mov	r2, #128, 0	; 0x80
    8a48:	e28d1010 	add	r1, sp, #16, 0
    8a4c:	e3a00002 	mov	r0, #2, 0
    8a50:	ebfffe8b 	bl	8484 <emit>
    8a54:	e1a07000 	mov	r7, r0
    8a58:	eaffffd6 	b	89b8 <va_printk+0x31c>
    8a5c:	e59d300c 	ldr	r3, [sp, #12]
    8a60:	e2832004 	add	r2, r3, #4, 0
    8a64:	e58d200c 	str	r2, [sp, #12]
    8a68:	e5937000 	ldr	r7, [r3]
    8a6c:	eaffffd1 	b	89b8 <va_printk+0x31c>
    8a70:	e59d300c 	ldr	r3, [sp, #12]
    8a74:	e2832004 	add	r2, r3, #4, 0
    8a78:	e58d200c 	str	r2, [sp, #12]
    8a7c:	e5933000 	ldr	r3, [r3]
    8a80:	e3a02000 	mov	r2, #0, 0
    8a84:	e58d2004 	str	r2, [sp, #4]
    8a88:	e58d5000 	str	r5, [sp]
    8a8c:	e3a02080 	mov	r2, #128, 0	; 0x80
    8a90:	e28d1010 	add	r1, sp, #16, 0
    8a94:	e3a00008 	mov	r0, #8, 0
    8a98:	ebfffe79 	bl	8484 <emit>
    8a9c:	e1a07000 	mov	r7, r0
    8aa0:	eaffffc4 	b	89b8 <va_printk+0x31c>
    8aa4:	e3a03000 	mov	r3, #0, 0
    8aa8:	e5c63001 	strb	r3, [r6, #1]
    8aac:	e1a0200a 	mov	r2, sl
    8ab0:	e1a0100a 	mov	r1, sl
    8ab4:	e59f008c 	ldr	r0, [pc, #140]	; 8b48 <va_printk+0x4ac>
    8ab8:	ebfffe32 	bl	8388 <printk>
    8abc:	e59f3088 	ldr	r3, [pc, #136]	; 8b4c <va_printk+0x4b0>
    8ac0:	e5933000 	ldr	r3, [r3]
    8ac4:	e59d0008 	ldr	r0, [sp, #8]
    8ac8:	e12fff33 	blx	r3
    8acc:	e3a030e2 	mov	r3, #226, 0	; 0xe2
    8ad0:	e59f2044 	ldr	r2, [pc, #68]	; 8b1c <va_printk+0x480>
    8ad4:	e59f1044 	ldr	r1, [pc, #68]	; 8b20 <va_printk+0x484>
    8ad8:	e59f0070 	ldr	r0, [pc, #112]	; 8b50 <va_printk+0x4b4>
    8adc:	ebfffe29 	bl	8388 <printk>
    8ae0:	eb00001b 	bl	8b54 <clean_reboot>
    8ae4:	e2877001 	add	r7, r7, #1, 0
    8ae8:	e4c43001 	strb	r3, [r4], #1
    8aec:	e1540008 	cmp	r4, r8
    8af0:	2afffef7 	bcs	86d4 <va_printk+0x38>
    8af4:	e5d73000 	ldrb	r3, [r7]
    8af8:	e3530000 	cmp	r3, #0, 0
    8afc:	1afffff8 	bne	8ae4 <va_printk+0x448>
    8b00:	eafffef3 	b	86d4 <va_printk+0x38>
    8b04:	e3a03000 	mov	r3, #0, 0
    8b08:	e4c43001 	strb	r3, [r4], #1
    8b0c:	e0440009 	sub	r0, r4, r9
    8b10:	e28ddf45 	add	sp, sp, #276	; 0x114
    8b14:	e8bd8ff0 	pop	{r4, r5, r6, r7, r8, r9, sl, fp, pc}
    8b18:	000092cc 	andeq	r9, r0, ip, asr #5
    8b1c:	000093e4 	andeq	r9, r0, r4, ror #7
    8b20:	00009288 	andeq	r9, r0, r8, lsl #5
    8b24:	0000914c 	andeq	r9, r0, ip, asr #2
    8b28:	000092d8 	ldrdeq	r9, [r0], -r8
    8b2c:	000092dc 	ldrdeq	r9, [r0], -ip
    8b30:	000092e0 	andeq	r9, r0, r0, ror #5
    8b34:	000092e8 	andeq	r9, r0, r8, ror #5
    8b38:	0000929c 	muleq	r0, ip, r2
    8b3c:	000092f0 	strdeq	r9, [r0], -r0
    8b40:	0000932c 	andeq	r9, r0, ip, lsr #6
    8b44:	00009354 	andeq	r9, r0, r4, asr r3
    8b48:	0000937c 	andeq	r9, r0, ip, ror r3
    8b4c:	00009a04 	andeq	r9, r0, r4, lsl #20
    8b50:	000093ac 	andeq	r9, r0, ip, lsr #7

00008b54 <clean_reboot>:
    8b54:	e92d4010 	push	{r4, lr}
    8b58:	e59f3018 	ldr	r3, [pc, #24]	; 8b78 <clean_reboot+0x24>
    8b5c:	e5933000 	ldr	r3, [r3]
    8b60:	e59f0014 	ldr	r0, [pc, #20]	; 8b7c <clean_reboot+0x28>
    8b64:	e12fff33 	blx	r3
    8b68:	eb000110 	bl	8fb0 <uart_flush_tx>
    8b6c:	e3a0000a 	mov	r0, #10, 0
    8b70:	eb00004d 	bl	8cac <delay_ms>
    8b74:	eb000022 	bl	8c04 <rpi_reboot>
    8b78:	00009a04 	andeq	r9, r0, r4, lsl #20
    8b7c:	000093f0 	strdeq	r9, [r0], -r0

00008b80 <_cstart>:
    8b80:	e92d4010 	push	{r4, lr}
    8b84:	eb00000c 	bl	8bbc <custom_loader>
    8b88:	e59f3024 	ldr	r3, [pc, #36]	; 8bb4 <_cstart+0x34>
    8b8c:	e59f2024 	ldr	r2, [pc, #36]	; 8bb8 <_cstart+0x38>
    8b90:	e1530002 	cmp	r3, r2
    8b94:	33a02000 	movcc	r2, #0, 0
    8b98:	34832004 	strcc	r2, [r3], #4
    8b9c:	3afffffa 	bcc	8b8c <_cstart+0xc>
    8ba0:	eb0000a4 	bl	8e38 <uart_init>
    8ba4:	e3a03001 	mov	r3, #1, 0
    8ba8:	ee0f3f1c 	mcr	15, 0, r3, cr15, cr12, {0}
    8bac:	ebfffd21 	bl	8038 <notmain>
    8bb0:	ebffffe7 	bl	8b54 <clean_reboot>
    8bb4:	00009a0c 	andeq	r9, r0, ip, lsl #20
    8bb8:	00009e10 	andeq	r9, r0, r0, lsl lr

00008bbc <custom_loader>:
    8bbc:	e12fff1e 	bx	lr

00008bc0 <dev_barrier>:
    8bc0:	ea000002 	b	8bd0 <dsb>

00008bc4 <dmb>:
    8bc4:	e3a00000 	mov	r0, #0, 0
    8bc8:	ee070fba 	mcr	15, 0, r0, cr7, cr10, {5}
    8bcc:	e12fff1e 	bx	lr

00008bd0 <dsb>:
    8bd0:	ee070f9a 	mcr	15, 0, r0, cr7, cr10, {4}
    8bd4:	e12fff1e 	bx	lr

00008bd8 <at_user_level>:
    8bd8:	e10f0000 	mrs	r0, CPSR
    8bdc:	e200001f 	and	r0, r0, #31, 0
    8be0:	e3500010 	cmp	r0, #16, 0
    8be4:	13a00000 	movne	r0, #0, 0
    8be8:	03a00001 	moveq	r0, #1, 0
    8bec:	e12fff1e 	bx	lr

00008bf0 <set_user_level>:
    8bf0:	e10f3000 	mrs	r3, CPSR
    8bf4:	e3c3301f 	bic	r3, r3, #31, 0
    8bf8:	e3833010 	orr	r3, r3, #16, 0
    8bfc:	e129f003 	msr	CPSR_fc, r3
    8c00:	e12fff1e 	bx	lr

00008c04 <rpi_reboot>:
    8c04:	e92d4010 	push	{r4, lr}
    8c08:	ebfffff2 	bl	8bd8 <at_user_level>
    8c0c:	e3500000 	cmp	r0, #0, 0
    8c10:	1a00000a 	bne	8c40 <rpi_reboot+0x3c>
    8c14:	eb00012d 	bl	90d0 <reboot_callout>
    8c18:	eb0000e4 	bl	8fb0 <uart_flush_tx>
    8c1c:	e3a0000a 	mov	r0, #10, 0
    8c20:	eb000021 	bl	8cac <delay_ms>
    8c24:	e59f101c 	ldr	r1, [pc, #28]	; 8c48 <rpi_reboot+0x44>
    8c28:	e59f001c 	ldr	r0, [pc, #28]	; 8c4c <rpi_reboot+0x48>
    8c2c:	ebfffcfc 	bl	8024 <PUT32>
    8c30:	e59f1018 	ldr	r1, [pc, #24]	; 8c50 <rpi_reboot+0x4c>
    8c34:	e59f0018 	ldr	r0, [pc, #24]	; 8c54 <rpi_reboot+0x50>
    8c38:	ebfffcf9 	bl	8024 <PUT32>
    8c3c:	eafffffe 	b	8c3c <rpi_reboot+0x38>
    8c40:	ebffffea 	bl	8bf0 <set_user_level>
    8c44:	eafffff2 	b	8c14 <rpi_reboot+0x10>
    8c48:	5a000001 	bpl	8c54 <rpi_reboot+0x50>
    8c4c:	20100024 	andscs	r0, r0, r4, lsr #32
    8c50:	5a000020 	bpl	8cd8 <delay_sec+0x14>
    8c54:	2010001c 	andscs	r0, r0, ip, lsl r0

00008c58 <timer_get_usec_raw>:
    8c58:	e92d4010 	push	{r4, lr}
    8c5c:	e59f0004 	ldr	r0, [pc, #4]	; 8c68 <timer_get_usec_raw+0x10>
    8c60:	ebfffcf1 	bl	802c <GET32>
    8c64:	e8bd8010 	pop	{r4, pc}
    8c68:	20003004 	andcs	r3, r0, r4

00008c6c <timer_get_usec>:
    8c6c:	e92d4010 	push	{r4, lr}
    8c70:	ebffffd2 	bl	8bc0 <dev_barrier>
    8c74:	ebfffff7 	bl	8c58 <timer_get_usec_raw>
    8c78:	e1a04000 	mov	r4, r0
    8c7c:	ebffffcf 	bl	8bc0 <dev_barrier>
    8c80:	e1a00004 	mov	r0, r4
    8c84:	e8bd8010 	pop	{r4, pc}

00008c88 <delay_us>:
    8c88:	e92d4070 	push	{r4, r5, r6, lr}
    8c8c:	e1a05000 	mov	r5, r0
    8c90:	ebfffff5 	bl	8c6c <timer_get_usec>
    8c94:	e1a04000 	mov	r4, r0
    8c98:	ebfffff3 	bl	8c6c <timer_get_usec>
    8c9c:	e0400004 	sub	r0, r0, r4
    8ca0:	e1500005 	cmp	r0, r5
    8ca4:	3afffffb 	bcc	8c98 <delay_us+0x10>
    8ca8:	e8bd8070 	pop	{r4, r5, r6, pc}

00008cac <delay_ms>:
    8cac:	e92d4010 	push	{r4, lr}
    8cb0:	e0603280 	rsb	r3, r0, r0, lsl #5
    8cb4:	e0800103 	add	r0, r0, r3, lsl #2
    8cb8:	e1a00180 	lsl	r0, r0, #3
    8cbc:	ebfffff1 	bl	8c88 <delay_us>
    8cc0:	e8bd8010 	pop	{r4, pc}

00008cc4 <delay_sec>:
    8cc4:	e92d4010 	push	{r4, lr}
    8cc8:	e0603280 	rsb	r3, r0, r0, lsl #5
    8ccc:	e0800103 	add	r0, r0, r3, lsl #2
    8cd0:	e1a00180 	lsl	r0, r0, #3
    8cd4:	ebfffff4 	bl	8cac <delay_ms>
    8cd8:	e8bd8010 	pop	{r4, pc}

00008cdc <gpio_set_function>:
    8cdc:	e350001f 	cmp	r0, #31, 0
    8ce0:	812fff1e 	bxhi	lr
    8ce4:	e92d4070 	push	{r4, r5, r6, lr}
    8ce8:	e1a05001 	mov	r5, r1
    8cec:	e3d13007 	bics	r3, r1, #7, 0
    8cf0:	18bd8070 	popne	{r4, r5, r6, pc}
    8cf4:	e59f3040 	ldr	r3, [pc, #64]	; 8d3c <gpio_set_function+0x60>
    8cf8:	e0832093 	umull	r2, r3, r3, r0
    8cfc:	e1a031a3 	lsr	r3, r3, #3
    8d00:	e1a02003 	mov	r2, r3
    8d04:	e0833103 	add	r3, r3, r3, lsl #2
    8d08:	e0403083 	sub	r3, r0, r3, lsl #1
    8d0c:	e0834083 	add	r4, r3, r3, lsl #1
    8d10:	e2820302 	add	r0, r2, #134217728	; 0x8000000
    8d14:	e2800702 	add	r0, r0, #524288	; 0x80000
    8d18:	e1a06100 	lsl	r6, r0, #2
    8d1c:	e1a00006 	mov	r0, r6
    8d20:	ebfffcc1 	bl	802c <GET32>
    8d24:	e3a01007 	mov	r1, #7, 0
    8d28:	e1c01411 	bic	r1, r0, r1, lsl r4
    8d2c:	e1811415 	orr	r1, r1, r5, lsl r4
    8d30:	e1a00006 	mov	r0, r6
    8d34:	ebfffcba 	bl	8024 <PUT32>
    8d38:	e8bd8070 	pop	{r4, r5, r6, pc}
    8d3c:	cccccccd 	stclgt	12, cr12, [ip], {205}	; 0xcd

00008d40 <gpio_set_output>:
    8d40:	e92d4010 	push	{r4, lr}
    8d44:	e3a01001 	mov	r1, #1, 0
    8d48:	ebffffe3 	bl	8cdc <gpio_set_function>
    8d4c:	e8bd8010 	pop	{r4, pc}

00008d50 <gpio_set_on>:
    8d50:	e350001f 	cmp	r0, #31, 0
    8d54:	812fff1e 	bxhi	lr
    8d58:	e92d4010 	push	{r4, lr}
    8d5c:	e3a01001 	mov	r1, #1, 0
    8d60:	e1a01011 	lsl	r1, r1, r0
    8d64:	e59f0004 	ldr	r0, [pc, #4]	; 8d70 <gpio_set_on+0x20>
    8d68:	ebfffcad 	bl	8024 <PUT32>
    8d6c:	e8bd8010 	pop	{r4, pc}
    8d70:	2020001c 	eorcs	r0, r0, ip, lsl r0

00008d74 <gpio_set_off>:
    8d74:	e350001f 	cmp	r0, #31, 0
    8d78:	812fff1e 	bxhi	lr
    8d7c:	e92d4010 	push	{r4, lr}
    8d80:	e3a01001 	mov	r1, #1, 0
    8d84:	e1a01011 	lsl	r1, r1, r0
    8d88:	e59f0004 	ldr	r0, [pc, #4]	; 8d94 <gpio_set_off+0x20>
    8d8c:	ebfffca4 	bl	8024 <PUT32>
    8d90:	e8bd8010 	pop	{r4, pc}
    8d94:	20200028 	eorcs	r0, r0, r8, lsr #32

00008d98 <gpio_set_input>:
    8d98:	e92d4010 	push	{r4, lr}
    8d9c:	e3a01000 	mov	r1, #0, 0
    8da0:	ebffffcd 	bl	8cdc <gpio_set_function>
    8da4:	e8bd8010 	pop	{r4, pc}

00008da8 <gpio_write>:
    8da8:	e92d4010 	push	{r4, lr}
    8dac:	e3510000 	cmp	r1, #0, 0
    8db0:	0a000001 	beq	8dbc <gpio_write+0x14>
    8db4:	ebffffe5 	bl	8d50 <gpio_set_on>
    8db8:	e8bd8010 	pop	{r4, pc}
    8dbc:	ebffffec 	bl	8d74 <gpio_set_off>
    8dc0:	e8bd8010 	pop	{r4, pc}

00008dc4 <gpio_read>:
    8dc4:	e350001f 	cmp	r0, #31, 0
    8dc8:	8a000007 	bhi	8dec <gpio_read+0x28>
    8dcc:	e92d4010 	push	{r4, lr}
    8dd0:	e200401f 	and	r4, r0, #31, 0
    8dd4:	e59f3018 	ldr	r3, [pc, #24]	; 8df4 <gpio_read+0x30>
    8dd8:	e08302a0 	add	r0, r3, r0, lsr #5
    8ddc:	ebfffc92 	bl	802c <GET32>
    8de0:	e1a00430 	lsr	r0, r0, r4
    8de4:	e2000001 	and	r0, r0, #1, 0
    8de8:	e8bd8010 	pop	{r4, pc}
    8dec:	e3e00000 	mvn	r0, #0, 0
    8df0:	e12fff1e 	bx	lr
    8df4:	20200034 	eorcs	r0, r0, r4, lsr r0

00008df8 <and_in32>:
    8df8:	e92d4070 	push	{r4, r5, r6, lr}
    8dfc:	e1a04000 	mov	r4, r0
    8e00:	e1a05001 	mov	r5, r1
    8e04:	ebfffc88 	bl	802c <GET32>
    8e08:	e0001005 	and	r1, r0, r5
    8e0c:	e1a00004 	mov	r0, r4
    8e10:	ebfffc83 	bl	8024 <PUT32>
    8e14:	e8bd8070 	pop	{r4, r5, r6, pc}

00008e18 <or_in32>:
    8e18:	e92d4070 	push	{r4, r5, r6, lr}
    8e1c:	e1a04000 	mov	r4, r0
    8e20:	e1a05001 	mov	r5, r1
    8e24:	ebfffc80 	bl	802c <GET32>
    8e28:	e1801005 	orr	r1, r0, r5
    8e2c:	e1a00004 	mov	r0, r4
    8e30:	ebfffc7b 	bl	8024 <PUT32>
    8e34:	e8bd8070 	pop	{r4, r5, r6, pc}

00008e38 <uart_init>:
    8e38:	e92d4010 	push	{r4, lr}
    8e3c:	e3a01002 	mov	r1, #2, 0
    8e40:	e3a0000e 	mov	r0, #14, 0
    8e44:	ebffffa4 	bl	8cdc <gpio_set_function>
    8e48:	e3a01002 	mov	r1, #2, 0
    8e4c:	e3a0000f 	mov	r0, #15, 0
    8e50:	ebffffa1 	bl	8cdc <gpio_set_function>
    8e54:	ebffff59 	bl	8bc0 <dev_barrier>
    8e58:	e3a01001 	mov	r1, #1, 0
    8e5c:	e59f0064 	ldr	r0, [pc, #100]	; 8ec8 <uart_init+0x90>
    8e60:	ebffffec 	bl	8e18 <or_in32>
    8e64:	ebffff55 	bl	8bc0 <dev_barrier>
    8e68:	e59f405c 	ldr	r4, [pc, #92]	; 8ecc <uart_init+0x94>
    8e6c:	e3a01000 	mov	r1, #0, 0
    8e70:	e1a00004 	mov	r0, r4
    8e74:	ebfffc6a 	bl	8024 <PUT32>
    8e78:	e3a01000 	mov	r1, #0, 0
    8e7c:	e59f004c 	ldr	r0, [pc, #76]	; 8ed0 <uart_init+0x98>
    8e80:	ebfffc67 	bl	8024 <PUT32>
    8e84:	e3a01003 	mov	r1, #3, 0
    8e88:	e59f0044 	ldr	r0, [pc, #68]	; 8ed4 <uart_init+0x9c>
    8e8c:	ebfffc64 	bl	8024 <PUT32>
    8e90:	e3a01000 	mov	r1, #0, 0
    8e94:	e59f003c 	ldr	r0, [pc, #60]	; 8ed8 <uart_init+0xa0>
    8e98:	ebfffc61 	bl	8024 <PUT32>
    8e9c:	e3a010c7 	mov	r1, #199, 0	; 0xc7
    8ea0:	e59f0034 	ldr	r0, [pc, #52]	; 8edc <uart_init+0xa4>
    8ea4:	ebfffc5e 	bl	8024 <PUT32>
    8ea8:	e59f1030 	ldr	r1, [pc, #48]	; 8ee0 <uart_init+0xa8>
    8eac:	e59f0030 	ldr	r0, [pc, #48]	; 8ee4 <uart_init+0xac>
    8eb0:	ebfffc5b 	bl	8024 <PUT32>
    8eb4:	e3a01003 	mov	r1, #3, 0
    8eb8:	e1a00004 	mov	r0, r4
    8ebc:	ebfffc58 	bl	8024 <PUT32>
    8ec0:	ebffff3e 	bl	8bc0 <dev_barrier>
    8ec4:	e8bd8010 	pop	{r4, pc}
    8ec8:	20215004 	eorcs	r5, r1, r4
    8ecc:	20215060 	eorcs	r5, r1, r0, rrx
    8ed0:	20215044 	eorcs	r5, r1, r4, asr #32
    8ed4:	2021504c 	eorcs	r5, r1, ip, asr #32
    8ed8:	20215050 	eorcs	r5, r1, r0, asr r0
    8edc:	20215048 	eorcs	r5, r1, r8, asr #32
    8ee0:	0000010e 	andeq	r0, r0, lr, lsl #2
    8ee4:	20215068 	eorcs	r5, r1, r8, rrx

00008ee8 <uart_can_getc>:
    8ee8:	e92d4010 	push	{r4, lr}
    8eec:	e59f0008 	ldr	r0, [pc, #8]	; 8efc <uart_can_getc+0x14>
    8ef0:	ebfffc4d 	bl	802c <GET32>
    8ef4:	e2000001 	and	r0, r0, #1, 0
    8ef8:	e8bd8010 	pop	{r4, pc}
    8efc:	20215064 	eorcs	r5, r1, r4, rrx

00008f00 <uart_can_putc>:
    8f00:	e92d4010 	push	{r4, lr}
    8f04:	e59f0010 	ldr	r0, [pc, #16]	; 8f1c <uart_can_putc+0x1c>
    8f08:	ebfffc47 	bl	802c <GET32>
    8f0c:	e3100002 	tst	r0, #2, 0
    8f10:	13a00001 	movne	r0, #1, 0
    8f14:	03a00000 	moveq	r0, #0, 0
    8f18:	e8bd8010 	pop	{r4, pc}
    8f1c:	20215064 	eorcs	r5, r1, r4, rrx

00008f20 <uart_getc>:
    8f20:	e92d4010 	push	{r4, lr}
    8f24:	ebffff25 	bl	8bc0 <dev_barrier>
    8f28:	ebffffee 	bl	8ee8 <uart_can_getc>
    8f2c:	e3500000 	cmp	r0, #0, 0
    8f30:	0afffffc 	beq	8f28 <uart_getc+0x8>
    8f34:	e59f0010 	ldr	r0, [pc, #16]	; 8f4c <uart_getc+0x2c>
    8f38:	ebfffc3b 	bl	802c <GET32>
    8f3c:	e6ef4070 	uxtb	r4, r0
    8f40:	ebffff1e 	bl	8bc0 <dev_barrier>
    8f44:	e1a00004 	mov	r0, r4
    8f48:	e8bd8010 	pop	{r4, pc}
    8f4c:	20215040 	eorcs	r5, r1, r0, asr #32

00008f50 <uart_putc>:
    8f50:	e92d4010 	push	{r4, lr}
    8f54:	e1a04000 	mov	r4, r0
    8f58:	ebffff18 	bl	8bc0 <dev_barrier>
    8f5c:	ebffffe7 	bl	8f00 <uart_can_putc>
    8f60:	e3500000 	cmp	r0, #0, 0
    8f64:	0afffffc 	beq	8f5c <uart_putc+0xc>
    8f68:	e6ef1074 	uxtb	r1, r4
    8f6c:	e59f0008 	ldr	r0, [pc, #8]	; 8f7c <uart_putc+0x2c>
    8f70:	ebfffc2b 	bl	8024 <PUT32>
    8f74:	ebffff11 	bl	8bc0 <dev_barrier>
    8f78:	e8bd8010 	pop	{r4, pc}
    8f7c:	20215040 	eorcs	r5, r1, r0, asr #32

00008f80 <uart_has_data>:
    8f80:	e92d4010 	push	{r4, lr}
    8f84:	ebffff0d 	bl	8bc0 <dev_barrier>
    8f88:	ebffffd6 	bl	8ee8 <uart_can_getc>
    8f8c:	e8bd8010 	pop	{r4, pc}

00008f90 <uart_tx_is_empty>:
    8f90:	e92d4010 	push	{r4, lr}
    8f94:	ebffff09 	bl	8bc0 <dev_barrier>
    8f98:	e59f000c 	ldr	r0, [pc, #12]	; 8fac <uart_tx_is_empty+0x1c>
    8f9c:	ebfffc22 	bl	802c <GET32>
    8fa0:	e1a004a0 	lsr	r0, r0, #9
    8fa4:	e2000001 	and	r0, r0, #1, 0
    8fa8:	e8bd8010 	pop	{r4, pc}
    8fac:	20215064 	eorcs	r5, r1, r4, rrx

00008fb0 <uart_flush_tx>:
    8fb0:	e92d4010 	push	{r4, lr}
    8fb4:	ebfffff5 	bl	8f90 <uart_tx_is_empty>
    8fb8:	e3500000 	cmp	r0, #0, 0
    8fbc:	0afffffc 	beq	8fb4 <uart_flush_tx+0x4>
    8fc0:	e8bd8010 	pop	{r4, pc}

00008fc4 <uart_disable>:
    8fc4:	e92d4010 	push	{r4, lr}
    8fc8:	ebfffff8 	bl	8fb0 <uart_flush_tx>
    8fcc:	ebfffefb 	bl	8bc0 <dev_barrier>
    8fd0:	e3e01001 	mvn	r1, #1, 0
    8fd4:	e59f0008 	ldr	r0, [pc, #8]	; 8fe4 <uart_disable+0x20>
    8fd8:	ebffff86 	bl	8df8 <and_in32>
    8fdc:	ebfffef7 	bl	8bc0 <dev_barrier>
    8fe0:	e8bd8010 	pop	{r4, pc}
    8fe4:	20215004 	eorcs	r5, r1, r4

00008fe8 <internal_putchar>:
    8fe8:	e92d4010 	push	{r4, lr}
    8fec:	e1a04000 	mov	r4, r0
    8ff0:	ebffffd6 	bl	8f50 <uart_putc>
    8ff4:	e1a00004 	mov	r0, r4
    8ff8:	e8bd8010 	pop	{r4, pc}

00008ffc <rpi_reset_putc>:
    8ffc:	e59f3008 	ldr	r3, [pc, #8]	; 900c <rpi_reset_putc+0x10>
    9000:	e59f2008 	ldr	r2, [pc, #8]	; 9010 <rpi_reset_putc+0x14>
    9004:	e5832000 	str	r2, [r3]
    9008:	e12fff1e 	bx	lr
    900c:	00009a08 	andeq	r9, r0, r8, lsl #20
    9010:	00008fe8 	andeq	r8, r0, r8, ror #31

00009014 <rpi_set_putc>:
    9014:	e59f3004 	ldr	r3, [pc, #4]	; 9020 <rpi_set_putc+0xc>
    9018:	e5830000 	str	r0, [r3]
    901c:	e12fff1e 	bx	lr
    9020:	00009a08 	andeq	r9, r0, r8, lsl #20

00009024 <strcat>:
    9024:	e1a02000 	mov	r2, r0
    9028:	e1a03002 	mov	r3, r2
    902c:	e2822001 	add	r2, r2, #1, 0
    9030:	e5d3c000 	ldrb	ip, [r3]
    9034:	e35c0000 	cmp	ip, #0, 0
    9038:	1afffffa 	bne	9028 <strcat+0x4>
    903c:	e2433001 	sub	r3, r3, #1, 0
    9040:	e5d12000 	ldrb	r2, [r1]
    9044:	e2811001 	add	r1, r1, #1, 0
    9048:	e5e32001 	strb	r2, [r3, #1]!
    904c:	e3520000 	cmp	r2, #0, 0
    9050:	1afffffa 	bne	9040 <strcat+0x1c>
    9054:	e12fff1e 	bx	lr

00009058 <strcmp>:
    9058:	e5d03000 	ldrb	r3, [r0]
    905c:	e3530000 	cmp	r3, #0, 0
    9060:	0a000004 	beq	9078 <strcmp+0x20>
    9064:	e5d12000 	ldrb	r2, [r1]
    9068:	e1530002 	cmp	r3, r2
    906c:	02800001 	addeq	r0, r0, #1, 0
    9070:	02811001 	addeq	r1, r1, #1, 0
    9074:	0afffff7 	beq	9058 <strcmp>
    9078:	e5d10000 	ldrb	r0, [r1]
    907c:	e0430000 	sub	r0, r3, r0
    9080:	e12fff1e 	bx	lr

00009084 <strcpy>:
    9084:	e1a0c000 	mov	ip, r0
    9088:	e5d12000 	ldrb	r2, [r1]
    908c:	e2811001 	add	r1, r1, #1, 0
    9090:	e5cc2000 	strb	r2, [ip]
    9094:	e28cc001 	add	ip, ip, #1, 0
    9098:	e3520000 	cmp	r2, #0, 0
    909c:	1afffff9 	bne	9088 <strcpy+0x4>
    90a0:	e12fff1e 	bx	lr

000090a4 <strncmp>:
    90a4:	e3520000 	cmp	r2, #0, 0
    90a8:	e2422001 	sub	r2, r2, #1, 0
    90ac:	0a000005 	beq	90c8 <strncmp+0x24>
    90b0:	e4d03001 	ldrb	r3, [r0], #1
    90b4:	e4d1c001 	ldrb	ip, [r1], #1
    90b8:	e153000c 	cmp	r3, ip
    90bc:	0afffff8 	beq	90a4 <strncmp>
    90c0:	e043000c 	sub	r0, r3, ip
    90c4:	e12fff1e 	bx	lr
    90c8:	e3a00000 	mov	r0, #0, 0
    90cc:	e12fff1e 	bx	lr

000090d0 <reboot_callout>:
    90d0:	e12fff1e 	bx	lr

000090d4 <__code_end__>:
    90d4:	00000000 	andeq	r0, r0, r0

Disassembly of section .rodata:

000090d8 <__FUNCTION__.3985-0xcc>:
    90d8:	73756425 	cmnvc	r5, #620756992	; 0x25000000
    90dc:	72657020 	rsbvc	r7, r5, #32, 0
    90e0:	2d642520 	cfstr64cs	mvdx2, [r4, #-128]!	; 0xffffff80
    90e4:	6e696f70 	mcrvs	15, 3, r6, cr9, cr0, {3}
    90e8:	46462074 			; <UNDEFINED> instruction: 0x46462074
    90ec:	00000a54 	andeq	r0, r0, r4, asr sl
    90f0:	6573552f 	ldrbvs	r5, [r3, #-1327]!	; 0xfffffad1
    90f4:	652f7372 	strvs	r7, [pc, #-882]!	; 8d8a <gpio_set_off+0x16>
    90f8:	62636972 	rsbvs	r6, r3, #1867776	; 0x1c8000
    90fc:	2f726165 	svccs	0x00726165
    9100:	75636f44 	strbvc	r6, [r3, #-3908]!	; 0xfffff0bc
    9104:	746e656d 	strbtvc	r6, [lr], #-1389	; 0xfffffa93
    9108:	53432f73 	movtpl	r2, #16243	; 0x3f73
    910c:	45303431 	ldrmi	r3, [r0, #-1073]!	; 0xfffffbcf
    9110:	3173632f 	cmncc	r3, pc, lsr #6
    9114:	2d453034 	stclcs	0, cr3, [r5, #-208]	; 0xffffff30
    9118:	616e6966 	cmnvs	lr, r6, ror #18
    911c:	72702d6c 	rsbsvc	r2, r0, #108, 26	; 0x1b00
    9120:	63656a6f 	cmnvs	r5, #454656	; 0x6f000
    9124:	696c2f74 	stmdbvs	ip!, {r2, r4, r5, r6, r8, r9, sl, fp, sp}^
    9128:	322d7362 	eorcc	r7, sp, #-2013265919	; 0x88000001
    912c:	786c3034 	stmdavc	ip!, {r2, r4, r5, ip, sp}^
    9130:	62696c2f 	rsbvs	r6, r9, #12032	; 0x2f00
    9134:	6c2f6970 			; <UNDEFINED> instruction: 0x6c2f6970
    9138:	2f636269 	svccs	0x00636269
    913c:	2d746962 			; <UNDEFINED> instruction: 0x2d746962
    9140:	70707573 	rsbsvc	r7, r0, r3, ror r5
    9144:	2e74726f 	cdpcs	2, 7, cr7, cr4, cr15, {3}
    9148:	00000068 	andeq	r0, r0, r8, rrx
    914c:	494e4150 	stmdbmi	lr, {r4, r6, r8, lr}^
    9150:	73253a43 			; <UNDEFINED> instruction: 0x73253a43
    9154:	3a73253a 	bcc	1cd2644 <__bss_end__+0x1cc8834>
    9158:	253a6425 	ldrcs	r6, [sl, #-1061]!	; 0xfffffbdb
    915c:	00000a73 	andeq	r0, r0, r3, ror sl
    9160:	74696228 	strbtvc	r6, [r9], #-552	; 0xfffffdd8
    9164:	616d5f73 	smcvs	54771	; 0xd5f3
    9168:	6e286b73 	vmovvs.16	d8[3], r6
    916c:	20262029 	eorcs	r2, r6, r9, lsr #32
    9170:	3d202976 			; <UNDEFINED> instruction: 0x3d202976
    9174:	0076203d 	rsbseq	r2, r6, sp, lsr r0
    9178:	2e733269 	cdpcs	2, 7, cr3, cr3, cr9, {3}
    917c:	00000063 	andeq	r0, r0, r3, rrx
    9180:	5f746962 	svcpl	0x00746962
    9184:	6f5f7369 	svcvs	0x005f7369
    9188:	47286666 	strmi	r6, [r8, -r6, ror #12]!
    918c:	32335445 	eorscc	r5, r3, #1157627904	; 0x45000000
    9190:	5f534328 	svcpl	0x00534328
    9194:	202c2941 	eorcs	r2, ip, r1, asr #18
    9198:	5f533249 	svcpl	0x00533249
    919c:	455f5343 	ldrbmi	r5, [pc, #-835]	; 8e61 <uart_init+0x29>
    91a0:	0000294e 	andeq	r2, r0, lr, asr #18

000091a4 <__FUNCTION__.3985>:
    91a4:	73746962 	cmnvc	r4, #1605632	; 0x188000
    91a8:	7465735f 	strbtvc	r7, [r5], #-863	; 0xfffffca1
    91ac:	00000000 	andeq	r0, r0, r0

000091b0 <__FUNCTION__.4099>:
    91b0:	5f733269 	svcpl	0x00733269
    91b4:	74696e69 	strbtvc	r6, [r9], #-3689	; 0xfffff197
    91b8:	00000000 	andeq	r0, r0, r0
    91bc:	2e746666 	cdpcs	6, 7, cr6, cr4, cr6, {3}
    91c0:	00000063 	andeq	r0, r0, r3, rrx
    91c4:	494e4150 	stmdbmi	lr, {r4, r6, r8, lr}^
    91c8:	73253a43 			; <UNDEFINED> instruction: 0x73253a43
    91cc:	3a73253a 	bcc	1cd26bc <__bss_end__+0x1cc88ac>
    91d0:	663a6425 	ldrtvs	r6, [sl], -r5, lsr #8
    91d4:	665f7466 	ldrbvs	r7, [pc], -r6, ror #8
    91d8:	64657869 	strbtvs	r7, [r5], #-2153	; 0xfffff797
    91dc:	6666635f 			; <UNDEFINED> instruction: 0x6666635f
    91e0:	46203a74 			; <UNDEFINED> instruction: 0x46203a74
    91e4:	74205446 	strtvc	r5, [r0], #-1094	; 0xfffffbba
    91e8:	6c206f6f 	stcvs	15, cr6, [r0], #-444	; 0xfffffe44
    91ec:	0a676e6f 	beq	19e4bb0 <__bss_end__+0x19dada0>
    91f0:	00000000 	andeq	r0, r0, r0
    91f4:	2e746666 	cdpcs	6, 7, cr6, cr4, cr6, {3}
    91f8:	00000068 	andeq	r0, r0, r8, rrx
    91fc:	494e4150 	stmdbmi	lr, {r4, r6, r8, lr}^
    9200:	73253a43 			; <UNDEFINED> instruction: 0x73253a43
    9204:	3a73253a 	bcc	1cd26f4 <__bss_end__+0x1cc88e4>
    9208:	693a6425 	ldmdbvs	sl!, {r0, r2, r5, sl, sp, lr}
    920c:	656c706d 	strbvs	r7, [ip, #-109]!	; 0xffffff93
    9210:	746e656d 	strbtvc	r6, [lr], #-1389	; 0xfffffa93
    9214:	69687420 	stmdbvs	r8!, {r5, sl, ip, sp, lr}^
    9218:	75662073 	strbvc	r2, [r6, #-115]!	; 0xffffff8d
    921c:	6974636e 	ldmdbvs	r4!, {r1, r2, r3, r5, r6, r8, r9, sp, lr}^
    9220:	0a216e6f 	beq	864be4 <__bss_end__+0x85add4>
    9224:	0000000a 	andeq	r0, r0, sl
    9228:	494e4150 	stmdbmi	lr, {r4, r6, r8, lr}^
    922c:	73253a43 			; <UNDEFINED> instruction: 0x73253a43
    9230:	3a73253a 	bcc	1cd2720 <__bss_end__+0x1cc8910>
    9234:	663a6425 	ldrtvs	r6, [sl], -r5, lsr #8
    9238:	665f7466 	ldrbvs	r7, [pc], -r6, ror #8
    923c:	64657869 	strbtvs	r7, [r5], #-2153	; 0xfffff797
    9240:	6666725f 			; <UNDEFINED> instruction: 0x6666725f
    9244:	73203a74 			; <UNDEFINED> instruction: 0x73203a74
    9248:	736d6565 	cmnvc	sp, #423624704	; 0x19400000
    924c:	6f726220 	svcvs	0x00726220
    9250:	0a6e656b 	beq	1ba2804 <__bss_end__+0x1b989f4>
    9254:	00000000 	andeq	r0, r0, r0

00009258 <__FUNCTION__.3969>:
    9258:	5f746666 	svcpl	0x00746666
    925c:	65786966 	ldrbvs	r6, [r8, #-2406]!	; 0xfffff69a
    9260:	66635f64 	strbtvs	r5, [r3], -r4, ror #30
    9264:	00007466 	andeq	r7, r0, r6, ror #8

00009268 <__FUNCTION__.3942>:
    9268:	5f746666 	svcpl	0x00746666
    926c:	65786966 	ldrbvs	r6, [r8, #-2406]!	; 0xfffff69a
    9270:	756d5f64 	strbvc	r5, [sp, #-3940]!	; 0xfffff09c
    9274:	0000006c 	andeq	r0, r0, ip, rrx

00009278 <__FUNCTION__.4014>:
    9278:	5f746666 	svcpl	0x00746666
    927c:	65786966 	ldrbvs	r6, [r8, #-2406]!	; 0xfffff69a
    9280:	66725f64 	ldrbtvs	r5, [r2], -r4, ror #30
    9284:	00007466 	andeq	r7, r0, r6, ror #8
    9288:	696c2f2e 	stmdbvs	ip!, {r1, r2, r3, r5, r8, r9, sl, fp, sp}^
    928c:	762f6362 	strtvc	r6, [pc], -r2, ror #6
    9290:	72702d61 	rsbsvc	r2, r0, #6208	; 0x1840
    9294:	6b746e69 	blvs	1d24c40 <__bss_end__+0x1d1ae30>
    9298:	0000632e 	andeq	r6, r0, lr, lsr #6
    929c:	00000030 	andeq	r0, r0, r0, lsr r0
    92a0:	33323130 	teqcc	r2, #12
    92a4:	37363534 			; <UNDEFINED> instruction: 0x37363534
    92a8:	00003938 	andeq	r3, r0, r8, lsr r9
    92ac:	33323130 	teqcc	r2, #12
    92b0:	37363534 			; <UNDEFINED> instruction: 0x37363534
    92b4:	62613938 	rsbvs	r3, r1, #56, 18	; 0xe0000
    92b8:	66656463 	strbtvs	r6, [r5], -r3, ror #8
    92bc:	00000000 	andeq	r0, r0, r0
    92c0:	00003130 	andeq	r3, r0, r0, lsr r1
    92c4:	63747570 	cmnvs	r4, #112, 10	; 0x1c000000
    92c8:	0070665f 	rsbseq	r6, r0, pc, asr r6
    92cc:	74646977 	strbtvc	r6, [r4], #-2423	; 0xfffff689
    92d0:	203c2068 	eorscs	r2, ip, r8, rrx
    92d4:	00003233 	andeq	r3, r0, r3, lsr r2
    92d8:	00786c6c 	rsbseq	r6, r8, ip, ror #24
    92dc:	00646c6c 	rsbeq	r6, r4, ip, ror #24
    92e0:	253d3078 	ldrcs	r3, [sp, #-120]!	; 0xffffff88
    92e4:	00000a78 	andeq	r0, r0, r8, ror sl
    92e8:	253d3178 	ldrcs	r3, [sp, #-376]!	; 0xfffffe88
    92ec:	00000a78 	andeq	r0, r0, r8, ror sl
    92f0:	6e727473 	mrcvs	4, 3, r7, cr2, cr3, {3}
    92f4:	28706d63 	ldmdacs	r0!, {r0, r1, r5, r6, r8, sl, fp, sp, lr}^
    92f8:	202c7974 	eorcs	r7, ip, r4, ror r9
    92fc:	786c6c22 	stmdavc	ip!, {r1, r5, sl, fp, sp, lr}^
    9300:	33202c22 			; <UNDEFINED> instruction: 0x33202c22
    9304:	3d3d2029 	ldccc	0, cr2, [sp, #-164]!	; 0xffffff5c
    9308:	7c203020 	stcvc	0, cr3, [r0], #-128	; 0xffffff80
    930c:	7473207c 	ldrbtvc	r2, [r3], #-124	; 0xffffff84
    9310:	6d636e72 	stclvs	14, cr6, [r3, #-456]!	; 0xfffffe38
    9314:	79742870 	ldmdbvc	r4!, {r4, r5, r6, fp, sp}^
    9318:	6c22202c 	stcvs	0, cr2, [r2], #-176	; 0xffffff50
    931c:	2c22646c 	cfstrscs	mvf6, [r2], #-432	; 0xfffffe50
    9320:	20293320 	eorcs	r3, r9, r0, lsr #6
    9324:	30203d3d 	eorcc	r3, r0, sp, lsr sp
    9328:	00000000 	andeq	r0, r0, r0
    932c:	494e4150 	stmdbmi	lr, {r4, r6, r8, lr}^
    9330:	73253a43 			; <UNDEFINED> instruction: 0x73253a43
    9334:	3a73253a 	bcc	1cd2824 <__bss_end__+0x1cc8a14>
    9338:	693a6425 	ldmdbvs	sl!, {r0, r2, r5, sl, sp, lr}
    933c:	736f706d 	cmnvc	pc, #109, 0	; 0x6d
    9340:	6c626973 			; <UNDEFINED> instruction: 0x6c626973
    9344:	66203a65 	strtvs	r3, [r0], -r5, ror #20
    9348:	3c3d746d 	cfldrscc	mvf7, [sp], #-436	; 0xfffffe4c
    934c:	0a3e7325 	beq	fa5fe8 <__bss_end__+0xf9c1d8>
    9350:	0000000a 	andeq	r0, r0, sl
    9354:	494e4150 	stmdbmi	lr, {r4, r6, r8, lr}^
    9358:	73253a43 			; <UNDEFINED> instruction: 0x73253a43
    935c:	3a73253a 	bcc	1cd284c <__bss_end__+0x1cc8a3c>
    9360:	663a6425 	ldrtvs	r6, [sl], -r5, lsr #8
    9364:	74616f6c 	strbtvc	r6, [r1], #-3948	; 0xfffff094
    9368:	746f6e20 	strbtvc	r6, [pc], #-3616	; 9370 <__FUNCTION__.4014+0xf8>
    936c:	616e6520 	cmnvs	lr, r0, lsr #10
    9370:	64656c62 	strbtvs	r6, [r5], #-3170	; 0xfffff39e
    9374:	0a212121 	beq	851800 <__bss_end__+0x8479f0>
    9378:	00000000 	andeq	r0, r0, r0
    937c:	6e697270 	mcrvs	2, 3, r7, cr9, cr0, {3}
    9380:	203a6b74 	eorscs	r6, sl, r4, ror fp
    9384:	20746f6e 	rsbscs	r6, r4, lr, ror #30
    9388:	646e6168 	strbtvs	r6, [lr], #-360	; 0xfffffe98
    938c:	676e696c 	strbvs	r6, [lr, -ip, ror #18]!
    9390:	65707320 	ldrbvs	r7, [r0, #-800]!	; 0xfffffce0
    9394:	69666963 	stmdbvs	r6!, {r0, r1, r5, r6, r8, fp, sp, lr}^
    9398:	27207265 	strcs	r7, [r0, -r5, ror #4]!
    939c:	20276325 	eorcs	r6, r7, r5, lsr #6
    93a0:	63736128 	cmnvs	r3, #10
    93a4:	253d6969 	ldrcs	r6, [sp, #-2409]!	; 0xfffff697
    93a8:	000a2964 	andeq	r2, sl, r4, ror #18
    93ac:	494e4150 	stmdbmi	lr, {r4, r6, r8, lr}^
    93b0:	73253a43 			; <UNDEFINED> instruction: 0x73253a43
    93b4:	3a73253a 	bcc	1cd28a4 <__bss_end__+0x1cc8a94>
    93b8:	703a6425 	eorsvc	r6, sl, r5, lsr #8
    93bc:	746e6972 	strbtvc	r6, [lr], #-2418	; 0xfffff68e
    93c0:	7265206b 	rsbvc	r2, r5, #107, 0	; 0x6b
    93c4:	0a726f72 	beq	1ca5194 <__bss_end__+0x1c9b384>
    93c8:	0000000a 	andeq	r0, r0, sl

000093cc <__FUNCTION__.4008>:
    93cc:	74696d65 	strbtvc	r6, [r9], #-3429	; 0xfffff29b
    93d0:	00000000 	andeq	r0, r0, r0

000093d4 <__FUNCTION__.3956>:
    93d4:	5f697072 	svcpl	0x00697072
    93d8:	5f746573 	svcpl	0x00746573
    93dc:	7074756f 	rsbsvc	r7, r4, pc, ror #10
    93e0:	00007475 	andeq	r7, r0, r5, ror r4

000093e4 <__FUNCTION__.4034>:
    93e4:	705f6176 	subsvc	r6, pc, r6, ror r1	; <UNPREDICTABLE>
    93e8:	746e6972 	strbtvc	r6, [lr], #-2418	; 0xfffff68e
    93ec:	0000006b 	andeq	r0, r0, fp, rrx
    93f0:	454e4f44 	strbmi	r4, [lr, #-3908]	; 0xfffff0bc
    93f4:	0a212121 	beq	851880 <__bss_end__+0x847a70>
	...

Disassembly of section .data:

000093fc <cm_regs>:
    93fc:	20101000 	andscs	r1, r0, r0

00009400 <i2s_regs>:
    9400:	20203000 	eorcs	r3, r0, r0

00009404 <FFT_SINE_LUT>:
    9404:	00c90000 	sbceq	r0, r9, r0
    9408:	025b0192 	subseq	r0, fp, #-2147483612	; 0x80000024
    940c:	03ed0324 	mvneq	r0, #36, 6	; 0x90000000
    9410:	057e04b6 	ldrbeq	r0, [lr, #-1206]!	; 0xfffffb4a
    9414:	07100647 	ldreq	r0, [r0, -r7, asr #12]
    9418:	08a107d9 	stmiaeq	r1!, {r0, r3, r4, r6, r7, r8, r9, sl}
    941c:	0a32096a 	beq	c8b9cc <__bss_end__+0xc81bbc>
    9420:	0bc30afb 	bleq	ff0cc014 <__bss_end__+0xff0c2204>
    9424:	0d530c8b 	ldcleq	12, cr0, [r3, #-556]	; 0xfffffdd4
    9428:	0ee30e1b 	mcreq	14, 7, r0, cr3, cr11, {0}
    942c:	10720fab 	rsbsne	r0, r2, fp, lsr #31
    9430:	12001139 	andne	r1, r0, #1073741838	; 0x4000000e
    9434:	138e12c7 	orrne	r1, lr, #1879048204	; 0x7000000c
    9438:	151b1455 	ldrne	r1, [fp, #-1109]	; 0xfffffbab
    943c:	16a715e1 	strtne	r1, [r7], r1, ror #11
    9440:	1833176d 	ldmdane	r3!, {r0, r2, r3, r5, r6, r8, r9, sl, ip}
    9444:	19bd18f8 	ldmibne	sp!, {r3, r4, r5, r6, r7, fp, ip}
    9448:	1b461a82 	blne	118fe58 <__bss_end__+0x1186048>
    944c:	1ccf1c0b 	stclne	12, cr1, [pc], {11}
    9450:	1e561d93 	mrcne	13, 2, r1, cr6, cr3, {4}
    9454:	1fdc1f19 	svcne	0x00dc1f19
    9458:	2161209f 			; <UNDEFINED> instruction: 0x2161209f
    945c:	22e42223 	rsccs	r2, r4, #805306370	; 0x30000002
    9460:	246723a6 	strbtcs	r2, [r7], #-934	; 0xfffffc5a
    9464:	25e72527 	strbcs	r2, [r7, #1319]!	; 0x527
    9468:	276726a7 	strbcs	r2, [r7, -r7, lsr #13]!
    946c:	28e52826 	stmiacs	r5!, {r1, r2, r5, fp, sp}^
    9470:	2a6129a3 	bcs	1853b04 <__bss_end__+0x1849cf4>
    9474:	2bdb2b1e 	blcs	ff6d40f4 <__bss_end__+0xff6ca2e4>
    9478:	2d542c98 	ldclcs	12, cr2, [r4, #-608]	; 0xfffffda0
    947c:	2ecc2e10 	mcrcs	14, 6, r2, cr12, cr0, {0}
    9480:	30412f86 	subcc	r2, r1, r6, lsl #31
    9484:	31b430fb 	ldrshcc	r3, [r4, fp]!
    9488:	3326326d 			; <UNDEFINED> instruction: 0x3326326d
    948c:	349633de 	ldrcc	r3, [r6], #990	; 0x3de
    9490:	3603354d 	strcc	r3, [r3], -sp, asr #10
    9494:	376f36b9 			; <UNDEFINED> instruction: 0x376f36b9
    9498:	38d83824 	ldmcc	r8, {r2, r5, fp, ip, sp}^
    949c:	3a3f398c 	bcc	fd7ad4 <__bss_end__+0xfcdcc4>
    94a0:	3ba43af2 	blcc	fe918070 <__bss_end__+0xfe90e260>
    94a4:	3d073c56 	stccc	12, cr3, [r7, #-344]	; 0xfffffea8
    94a8:	3e673db7 	mcrcc	13, 3, r3, cr7, cr7, {5}
    94ac:	3fc53f16 	svccc	0x00c53f16
    94b0:	41204073 			; <UNDEFINED> instruction: 0x41204073
    94b4:	427941cd 	rsbsmi	r4, r9, #1073741875	; 0x40000033
    94b8:	43d04325 	bicsmi	r4, r0, #-1811939328	; 0x94000000
    94bc:	4523447a 	strmi	r4, [r3, #-1146]!	; 0xfffffb86
    94c0:	467445cc 	ldrbtmi	r4, [r4], -ip, asr #11
    94c4:	47c3471c 	bfimi	r4, ip, (invalid: 14:3)
    94c8:	490e4869 	stmdbmi	lr, {r0, r3, r5, r6, fp, lr}
    94cc:	4a5749b3 	bmi	15dbba0 <__bss_end__+0x15d1d90>
    94d0:	4b9d4afa 	blmi	fe75c0c0 <__bss_end__+0xfe7522b0>
    94d4:	4ce04c3f 	stclmi	12, cr4, [r0], #252	; 0xfc
    94d8:	4e204d80 	cdpmi	13, 2, cr4, cr0, cr0, {4}
    94dc:	4f5d4ebf 	svcmi	0x005d4ebf
    94e0:	50974ffa 			; <UNDEFINED> instruction: 0x50974ffa
    94e4:	51ce5133 	bicpl	r5, lr, r3, lsr r1
    94e8:	53015268 	movwpl	r5, #4712	; 0x1268
    94ec:	5432539a 	ldrtpl	r5, [r2], #-922	; 0xfffffc66
    94f0:	555f54c9 	ldrbpl	r5, [pc, #-1225]	; 902f <strcat+0xb>
    94f4:	568955f4 			; <UNDEFINED> instruction: 0x568955f4
    94f8:	57b0571d 			; <UNDEFINED> instruction: 0x57b0571d
    94fc:	58d35842 	ldmpl	r3, {r1, r6, fp, ip, lr}^
    9500:	59f35963 	ldmibpl	r3!, {r0, r1, r5, r6, r8, fp, ip, lr}^
    9504:	5b0f5a81 	blpl	3dff10 <__bss_end__+0x3d6100>
    9508:	5c285b9c 			; <UNDEFINED> instruction: 0x5c285b9c
    950c:	5d3d5cb3 	ldcpl	12, cr5, [sp, #-716]!	; 0xfffffd34
    9510:	5e4f5dc6 	cdppl	13, 4, cr5, cr15, cr6, {6}
    9514:	5f5d5ed6 	svcpl	0x005d5ed6
    9518:	60675fe2 	rsbvs	r5, r7, r2, ror #31
    951c:	616e60eb 	cmnvs	lr, fp, ror #1
    9520:	627161f0 	rsbsvs	r6, r1, #60	; 0x3c
    9524:	637062f1 	cmnvs	r0, #268435471	; 0x1000000f
    9528:	646b63ee 	strbtvs	r6, [fp], #-1006	; 0xfffffc12
    952c:	656264e7 	strbvs	r6, [r2, #-1255]!	; 0xfffffb19
    9530:	665665dd 			; <UNDEFINED> instruction: 0x665665dd
    9534:	674566ce 	strbvs	r6, [r5, -lr, asr #13]
    9538:	683167bc 	ldmdavs	r1!, {r2, r3, r4, r5, r7, r8, r9, sl, sp, lr}
    953c:	691968a5 	ldmdbvs	r9, {r0, r2, r5, r7, fp, sp, lr}
    9540:	69fc698b 	ldmibvs	ip!, {r0, r1, r3, r7, r8, fp, sp, lr}^
    9544:	6adb6a6c 	bvs	ff6e3efc <__bss_end__+0xff6da0ec>
    9548:	6bb76b4a 	blvs	fede4278 <__bss_end__+0xfedda468>
    954c:	6c8e6c23 	stcvs	12, cr6, [lr], {35}	; 0x23
    9550:	6d616cf8 	stclvs	12, cr6, [r1, #-992]!	; 0xfffffc20
    9554:	6e306dc9 	cdpvs	13, 3, cr6, cr0, cr9, {6}
    9558:	6efa6e95 	mrcvs	14, 7, r6, cr10, cr5, {4}
    955c:	6fc06f5e 	svcvs	0x00c06f5e
    9560:	70827022 	addvc	r7, r2, r2, lsr #32
    9564:	714070e1 	smlalttvc	r7, r0, r1, r0
    9568:	71f9719d 			; <UNDEFINED> instruction: 0x71f9719d
    956c:	72ae7254 	adcvc	r7, lr, #84, 4	; 0x40000005
    9570:	735e7306 	cmpvc	lr, #402653184	; 0x18000000
    9574:	740a73b5 	strvc	r7, [sl], #-949	; 0xfffffc4b
    9578:	74b1745e 	ldrtvc	r7, [r1], #1118	; 0x45e
    957c:	75547503 	ldrbvc	r7, [r4, #-1283]	; 0xfffffafd
    9580:	75f375a4 	ldrbvc	r7, [r3, #1444]!	; 0x5a4
    9584:	768d7640 	strvc	r7, [sp], r0, asr #12
    9588:	772276d8 			; <UNDEFINED> instruction: 0x772276d8
    958c:	77b3776b 	ldrvc	r7, [r3, fp, ror #14]!
    9590:	783f77f9 	ldmdavc	pc!, {r0, r3, r4, r5, r6, r7, r8, r9, sl, ip, sp, lr}	; <UNPREDICTABLE>
    9594:	78c67883 	stmiavc	r6, {r0, r1, r7, fp, ip, sp, lr}^
    9598:	79497908 	stmdbvc	r9, {r3, r8, fp, ip, sp, lr}^
    959c:	79c77989 	stmibvc	r7, {r0, r3, r7, r8, fp, ip, sp, lr}^
    95a0:	7a417a04 	bvc	1067db8 <__bss_end__+0x105dfa8>
    95a4:	7ab57a7c 	bvc	fed67f9c <__bss_end__+0xfed5e18c>
    95a8:	7b257aee 	blvc	968168 <__bss_end__+0x95e358>
    95ac:	7b917b5c 	blvc	fe468324 <__bss_end__+0xfe45e514>
    95b0:	7bf77bc4 	blvc	ffde84c8 <__bss_end__+0xffdde6b8>
    95b4:	7c597c29 	mrrcvc	12, 2, r7, r9, cr9
    95b8:	7cb67c88 	ldcvc	12, cr7, [r6], #544	; 0x220
    95bc:	7d0e7ce2 	stcvc	12, cr7, [lr, #-904]	; 0xfffffc78
    95c0:	7d617d38 	stclvc	13, cr7, [r1, #-224]!	; 0xffffff20
    95c4:	7db07d89 	ldcvc	13, cr7, [r0, #548]!	; 0x224
    95c8:	7df97dd5 	ldclvc	13, cr7, [r9, #852]!	; 0x354
    95cc:	7e3e7e1c 	mrcvc	14, 1, r7, cr14, cr12, {0}
    95d0:	7e7e7e5e 	mrcvc	14, 3, r7, cr14, cr14, {2}
    95d4:	7eb97e9c 	mrcvc	14, 5, r7, cr9, cr12, {4}
    95d8:	7eef7ed4 	mcrvc	14, 7, r7, cr15, cr4, {6}
    95dc:	7f207f08 	svcvc	0x00207f08
    95e0:	7f4c7f37 	svcvc	0x004c7f37
    95e4:	7f747f61 	svcvc	0x00747f61
    95e8:	7f967f86 	svcvc	0x00967f86
    95ec:	7fb47fa6 	svcvc	0x00b47fa6
    95f0:	7fcd7fc1 	svcvc	0x00cd7fc1
    95f4:	7fe07fd7 	svcvc	0x00e07fd7
    95f8:	7fef7fe8 	svcvc	0x00ef7fe8
    95fc:	7ff97ff5 	svcvc	0x00f97ff5
    9600:	7ffe7ffc 	svcvc	0x00fe7ffc
    9604:	7ffe7fff 	svcvc	0x00fe7fff
    9608:	7ff97ffc 	svcvc	0x00f97ffc
    960c:	7fef7ff5 	svcvc	0x00ef7ff5
    9610:	7fe07fe8 	svcvc	0x00e07fe8
    9614:	7fcd7fd7 	svcvc	0x00cd7fd7
    9618:	7fb47fc1 	svcvc	0x00b47fc1
    961c:	7f967fa6 	svcvc	0x00967fa6
    9620:	7f747f86 	svcvc	0x00747f86
    9624:	7f4c7f61 	svcvc	0x004c7f61
    9628:	7f207f37 	svcvc	0x00207f37
    962c:	7eef7f08 	cdpvc	15, 14, cr7, cr15, cr8, {0}
    9630:	7eb97ed4 	mrcvc	14, 5, r7, cr9, cr4, {6}
    9634:	7e7e7e9c 	mrcvc	14, 3, r7, cr14, cr12, {4}
    9638:	7e3e7e5e 	mrcvc	14, 1, r7, cr14, cr14, {2}
    963c:	7df97e1c 	ldclvc	14, cr7, [r9, #112]!	; 0x70
    9640:	7db07dd5 	ldcvc	13, cr7, [r0, #852]!	; 0x354
    9644:	7d617d89 	stclvc	13, cr7, [r1, #-548]!	; 0xfffffddc
    9648:	7d0e7d38 	stcvc	13, cr7, [lr, #-224]	; 0xffffff20
    964c:	7cb67ce2 	ldcvc	12, cr7, [r6], #904	; 0x388
    9650:	7c597c88 	mrrcvc	12, 8, r7, r9, cr8
    9654:	7bf77c29 	blvc	ffde8700 <__bss_end__+0xffdde8f0>
    9658:	7b917bc4 	blvc	fe468570 <__bss_end__+0xfe45e760>
    965c:	7b257b5c 	blvc	9683d4 <__bss_end__+0x95e5c4>
    9660:	7ab57aee 	bvc	fed68220 <__bss_end__+0xfed5e410>
    9664:	7a417a7c 	bvc	106805c <__bss_end__+0x105e24c>
    9668:	79c77a04 	stmibvc	r7, {r2, r9, fp, ip, sp, lr}^
    966c:	79497989 	stmdbvc	r9, {r0, r3, r7, r8, fp, ip, sp, lr}^
    9670:	78c67908 	stmiavc	r6, {r3, r8, fp, ip, sp, lr}^
    9674:	783f7883 	ldmdavc	pc!, {r0, r1, r7, fp, ip, sp, lr}	; <UNPREDICTABLE>
    9678:	77b377f9 			; <UNDEFINED> instruction: 0x77b377f9
    967c:	7722776b 	strvc	r7, [r2, -fp, ror #14]!
    9680:	768d76d8 	pkhtbvc	r7, sp, r8, asr #13
    9684:	75f37640 	ldrbvc	r7, [r3, #1600]!	; 0x640
    9688:	755475a4 	ldrbvc	r7, [r4, #-1444]	; 0xfffffa5c
    968c:	74b17503 	ldrtvc	r7, [r1], #1283	; 0x503
    9690:	740a745e 	strvc	r7, [sl], #-1118	; 0xfffffba2
    9694:	735e73b5 	cmpvc	lr, #-738197502	; 0xd4000002
    9698:	72ae7306 	adcvc	r7, lr, #402653184	; 0x18000000
    969c:	71f97254 	mvnsvc	r7, r4, asr r2
    96a0:	7140719d 			; <UNDEFINED> instruction: 0x7140719d
    96a4:	708270e1 	addvc	r7, r2, r1, ror #1
    96a8:	6fc07022 	svcvs	0x00c07022
    96ac:	6efa6f5e 	mrcvs	15, 7, r6, cr10, cr14, {2}
    96b0:	6e306e95 	mrcvs	14, 1, r6, cr0, cr5, {4}
    96b4:	6d616dc9 	stclvs	13, cr6, [r1, #-804]!	; 0xfffffcdc
    96b8:	6c8e6cf8 	stcvs	12, cr6, [lr], {248}	; 0xf8
    96bc:	6bb76c23 	blvs	fede4750 <__bss_end__+0xfedda940>
    96c0:	6adb6b4a 	bvs	ff6e43f0 <__bss_end__+0xff6da5e0>
    96c4:	69fc6a6c 	ldmibvs	ip!, {r2, r3, r5, r6, r9, fp, sp, lr}^
    96c8:	6919698b 	ldmdbvs	r9, {r0, r1, r3, r7, r8, fp, sp, lr}
    96cc:	683168a5 	ldmdavs	r1!, {r0, r2, r5, r7, fp, sp, lr}
    96d0:	674567bc 			; <UNDEFINED> instruction: 0x674567bc
    96d4:	665666ce 	ldrbvs	r6, [r6], -lr, asr #13
    96d8:	656265dd 	strbvs	r6, [r2, #-1501]!	; 0xfffffa23
    96dc:	646b64e7 	strbtvs	r6, [fp], #-1255	; 0xfffffb19
    96e0:	637063ee 	cmnvs	r0, #-1207959549	; 0xb8000003
    96e4:	627162f1 	rsbsvs	r6, r1, #268435471	; 0x1000000f
    96e8:	616e61f0 	strdvs	r6, [lr, #-16]!
    96ec:	606760eb 	rsbvs	r6, r7, fp, ror #1
    96f0:	5f5d5fe2 	svcpl	0x005d5fe2
    96f4:	5e4f5ed6 	mcrpl	14, 2, r5, cr15, cr6, {6}
    96f8:	5d3d5dc6 	ldcpl	13, cr5, [sp, #-792]!	; 0xfffffce8
    96fc:	5c285cb3 	stcpl	12, cr5, [r8], #-716	; 0xfffffd34
    9700:	5b0f5b9c 	blpl	3e0578 <__bss_end__+0x3d6768>
    9704:	59f35a81 	ldmibpl	r3!, {r0, r7, r9, fp, ip, lr}^
    9708:	58d35963 	ldmpl	r3, {r0, r1, r5, r6, r8, fp, ip, lr}^
    970c:	57b05842 	ldrpl	r5, [r0, r2, asr #16]!
    9710:	5689571d 	pkhbtpl	r5, r9, sp, lsl #14
    9714:	555f55f4 	ldrbpl	r5, [pc, #-1524]	; 9128 <__code_end__+0x54>
    9718:	543254c9 	ldrtpl	r5, [r2], #-1225	; 0xfffffb37
    971c:	5301539a 	movwpl	r5, #5018	; 0x139a
    9720:	51ce5268 	bicpl	r5, lr, r8, ror #4
    9724:	50975133 	addspl	r5, r7, r3, lsr r1
    9728:	4f5d4ffa 	svcmi	0x005d4ffa
    972c:	4e204ebf 	mcrmi	14, 1, r4, cr0, cr15, {5}
    9730:	4ce04d80 	stclmi	13, cr4, [r0], #512	; 0x200
    9734:	4b9d4c3f 	blmi	fe75c838 <__bss_end__+0xfe752a28>
    9738:	4a574afa 	bmi	15dc328 <__bss_end__+0x15d2518>
    973c:	490e49b3 	stmdbmi	lr, {r0, r1, r4, r5, r7, r8, fp, lr}
    9740:	47c34869 	strbmi	r4, [r3, r9, ror #16]
    9744:	4674471c 			; <UNDEFINED> instruction: 0x4674471c
    9748:	452345cc 	strmi	r4, [r3, #-1484]!	; 0xfffffa34
    974c:	43d0447a 	bicsmi	r4, r0, #2046820352	; 0x7a000000
    9750:	42794325 	rsbsmi	r4, r9, #-1811939328	; 0x94000000
    9754:	412041cd 	smlawtmi	r0, sp, r1, r4
    9758:	3fc54073 	svccc	0x00c54073
    975c:	3e673f16 	mcrcc	15, 3, r3, cr7, cr6, {0}
    9760:	3d073db7 	stccc	13, cr3, [r7, #-732]	; 0xfffffd24
    9764:	3ba43c56 	blcc	fe9188c4 <__bss_end__+0xfe90eab4>
    9768:	3a3f3af2 	bcc	fd8338 <__bss_end__+0xfce528>
    976c:	38d8398c 	ldmcc	r8, {r2, r3, r7, r8, fp, ip, sp}^
    9770:	376f3824 	strbcc	r3, [pc, -r4, lsr #16]!
    9774:	360336b9 			; <UNDEFINED> instruction: 0x360336b9
    9778:	3496354d 	ldrcc	r3, [r6], #1357	; 0x54d
    977c:	332633de 			; <UNDEFINED> instruction: 0x332633de
    9780:	31b4326d 			; <UNDEFINED> instruction: 0x31b4326d
    9784:	304130fb 	strdcc	r3, [r1], #-11
    9788:	2ecc2f86 	cdpcs	15, 12, cr2, cr12, cr6, {4}
    978c:	2d542e10 	ldclcs	14, cr2, [r4, #-64]	; 0xffffffc0
    9790:	2bdb2c98 	blcs	ff6d49f8 <__bss_end__+0xff6cabe8>
    9794:	2a612b1e 	bcs	1854414 <__bss_end__+0x184a604>
    9798:	28e529a3 	stmiacs	r5!, {r0, r1, r5, r7, r8, fp, sp}^
    979c:	27672826 	strbcs	r2, [r7, -r6, lsr #16]!
    97a0:	25e726a7 	strbcs	r2, [r7, #1703]!	; 0x6a7
    97a4:	24672527 	strbtcs	r2, [r7], #-1319	; 0xfffffad9
    97a8:	22e423a6 	rsccs	r2, r4, #-1744830462	; 0x98000002
    97ac:	21612223 	cmncs	r1, r3, lsr #4
    97b0:	1fdc209f 	svcne	0x00dc209f
    97b4:	1e561f19 	mrcne	15, 2, r1, cr6, cr9, {0}
    97b8:	1ccf1d93 	stclne	13, cr1, [pc], {147}	; 0x93
    97bc:	1b461c0b 	blne	11907f0 <__bss_end__+0x11869e0>
    97c0:	19bd1a82 	ldmibne	sp!, {r1, r7, r9, fp, ip}
    97c4:	183318f8 	ldmdane	r3!, {r3, r4, r5, r6, r7, fp, ip}
    97c8:	16a7176d 	strtne	r1, [r7], sp, ror #14
    97cc:	151b15e1 	ldrne	r1, [fp, #-1505]	; 0xfffffa1f
    97d0:	138e1455 	orrne	r1, lr, #1426063360	; 0x55000000
    97d4:	120012c7 	andne	r1, r0, #1879048204	; 0x7000000c
    97d8:	10721139 	rsbsne	r1, r2, r9, lsr r1
    97dc:	0ee30fab 	cdpeq	15, 14, cr0, cr3, cr11, {5}
    97e0:	0d530e1b 	ldcleq	14, cr0, [r3, #-108]	; 0xffffff94
    97e4:	0bc30c8b 	bleq	ff0cca18 <__bss_end__+0xff0c2c08>
    97e8:	0a320afb 	beq	c8c3dc <__bss_end__+0xc825cc>
    97ec:	08a1096a 	stmiaeq	r1!, {r1, r3, r5, r6, r8, fp}
    97f0:	071007d9 			; <UNDEFINED> instruction: 0x071007d9
    97f4:	057e0647 	ldrbeq	r0, [lr, #-1607]!	; 0xfffff9b9
    97f8:	03ed04b6 	mvneq	r0, #-1241513984	; 0xb6000000
    97fc:	025b0324 	subseq	r0, fp, #36, 6	; 0x90000000
    9800:	00c90192 	smulleq	r0, r9, r2, r1
    9804:	ff370000 			; <UNDEFINED> instruction: 0xff370000
    9808:	fda5fe6e 	stc2	14, cr15, [r5, #440]!	; 0x1b8
    980c:	fc13fcdc 	ldc2	12, cr15, [r3], {220}	; 0xdc
    9810:	fa82fb4a 	blx	fe0c8540 <__bss_end__+0xfe0be730>
    9814:	f8f0f9b9 			; <UNDEFINED> instruction: 0xf8f0f9b9
    9818:	f75ff827 	pld	[pc, -r7, lsr #16]
    981c:	f5cef696 			; <UNDEFINED> instruction: 0xf5cef696
    9820:	f43df505 			; <UNDEFINED> instruction: 0xf43df505
    9824:	f2adf375 	vrsra.s32	<illegal reg q7.5>, <illegal reg q10.5>, #19
    9828:	f11df1e5 			; <UNDEFINED> instruction: 0xf11df1e5
    982c:	ef8ef055 	svc	0x008ef055
    9830:	ee00eec7 	cdp	14, 0, cr14, cr0, cr7, {6}
    9834:	ec72ed39 	ldcl	13, cr14, [r2], #-228	; 0xffffff1c
    9838:	eae5ebab 	b	ff9846ec <__bss_end__+0xff97a8dc>
    983c:	e959ea1f 	ldmdb	r9, {r0, r1, r2, r3, r4, r9, fp, sp, lr, pc}^
    9840:	e7cde893 	bfi	lr, r3, (invalid: 17:13)
    9844:	e643e708 	strb	lr, [r3], -r8, lsl #14
    9848:	e4bae57e 	ldrt	lr, [sl], #1406	; 0x57e
    984c:	e331e3f5 	teq	r1, #-738197501	; 0xd4000003
    9850:	e1aae26d 			; <UNDEFINED> instruction: 0xe1aae26d
    9854:	e024e0e7 	eor	lr, r4, r7, ror #1
    9858:	de9fdf61 	cdple	15, 9, cr13, cr15, cr1, {3}
    985c:	dd1cdddd 	ldcle	13, cr13, [ip, #-884]	; 0xfffffc8c
    9860:	db99dc5a 	blle	fe6809d0 <__bss_end__+0xfe676bc0>
    9864:	da19dad9 	ble	6803d0 <__bss_end__+0x6765c0>
    9868:	d899d959 	ldmle	r9, {r0, r3, r4, r6, r8, fp, ip, lr, pc}
    986c:	d71bd7da 			; <UNDEFINED> instruction: 0xd71bd7da
    9870:	d59fd65d 	ldrle	sp, [pc, #1629]	; 9ed5 <__bss_end__+0xc5>
    9874:	d425d4e2 	strtle	sp, [r5], #-1250	; 0xfffffb1e
    9878:	d2acd368 	adcle	sp, ip, #104, 6	; 0xa0000001
    987c:	d134d1f0 	teqle	r4, r0	; <illegal shifter operand>
    9880:	cfbfd07a 	svcgt	0x00bfd07a
    9884:	ce4ccf05 	cdpgt	15, 4, cr12, cr12, cr5, {0}
    9888:	ccdacd93 	ldclgt	13, cr12, [sl], {147}	; 0x93
    988c:	cb6acc22 	blgt	1abc91c <__bss_end__+0x1ab2b0c>
    9890:	c9fdcab3 	ldmibgt	sp!, {r0, r1, r4, r5, r7, r9, fp, lr, pc}^
    9894:	c891c947 	ldmgt	r1, {r0, r1, r2, r6, r8, fp, lr, pc}
    9898:	c728c7dc 			; <UNDEFINED> instruction: 0xc728c7dc
    989c:	c5c1c674 	strbgt	ip, [r1, #1652]	; 0x674
    98a0:	c45cc50e 	ldrbgt	ip, [ip], #-1294	; 0xfffffaf2
    98a4:	c2f9c3aa 	rscsgt	ip, r9, #-1476395006	; 0xa8000002
    98a8:	c199c249 	orrsgt	ip, r9, r9, asr #4
    98ac:	c03bc0ea 	eorsgt	ip, fp, sl, ror #1
    98b0:	bee0bf8d 	cdplt	15, 14, cr11, cr0, cr13, {4}
    98b4:	bd87be33 	stclt	14, cr11, [r7, #204]	; 0xcc
    98b8:	bc30bcdb 	ldclt	12, cr11, [r0], #-876	; 0xfffffc94
    98bc:	baddbb86 	blt	ff7786dc <__bss_end__+0xff76e8cc>
    98c0:	b98cba34 	stmiblt	ip, {r2, r4, r5, r9, fp, ip, sp, pc}
    98c4:	b83db8e4 	ldmdalt	sp!, {r2, r5, r6, r7, fp, ip, sp, pc}
    98c8:	b6f2b797 	usatlt	fp, #18, r7, lsl #15
    98cc:	b5a9b64d 	strlt	fp, [r9, #1613]!	; 0x64d
    98d0:	b463b506 	strbtlt	fp, [r3], #-1286	; 0xfffffafa
    98d4:	b320b3c1 			; <UNDEFINED> instruction: 0xb320b3c1
    98d8:	b1e0b280 	mvnlt	fp, r0, lsl #5
    98dc:	b0a3b141 	adclt	fp, r3, r1, asr #2
    98e0:	af69b006 	svcge	0x0069b006
    98e4:	ae32aecd 	cdpge	14, 3, cr10, cr2, cr13, {6}
    98e8:	acffad98 	ldclge	13, cr10, [pc], #608	; 9b50 <__data_end__+0x144>
    98ec:	abceac66 	blge	ff3b4a8c <__bss_end__+0xff3aac7c>
    98f0:	aaa1ab37 	bge	fe8745d4 <__bss_end__+0xfe86a7c4>
    98f4:	a977aa0c 	ldmdbge	r7!, {r2, r3, r9, fp, sp, pc}^
    98f8:	a850a8e3 	ldmdage	r0, {r0, r1, r5, r6, r7, fp, sp, pc}^
    98fc:	a72da7be 			; <UNDEFINED> instruction: 0xa72da7be
    9900:	a60da69d 			; <UNDEFINED> instruction: 0xa60da69d
    9904:	a4f1a57f 	ldrbtge	sl, [r1], #1407	; 0x57f
    9908:	a3d8a464 	bicsge	sl, r8, #100, 8	; 0x64000000
    990c:	a2c3a34d 	sbcge	sl, r3, #872415233	; 0x34000001
    9910:	a1b1a23a 			; <UNDEFINED> instruction: 0xa1b1a23a
    9914:	a0a3a12a 	adcge	sl, r3, sl, lsr #2
    9918:	9f99a01e 	svcls	0x0099a01e
    991c:	9e929f15 	mrcls	15, 4, r9, cr2, cr5, {0}
    9920:	9d8f9e10 	stcls	14, cr9, [pc, #64]	; 9968 <FFT_SINE_LUT+0x564>
    9924:	9c909d0f 	ldcls	13, cr9, [r0], {15}
    9928:	9b959c12 	blls	fe570978 <__bss_end__+0xfe566b68>
    992c:	9a9e9b19 	bls	fe7b0598 <__bss_end__+0xfe7a6788>
    9930:	99aa9a23 	stmibls	sl!, {r0, r1, r5, r9, fp, ip, pc}
    9934:	98bb9932 	ldmls	fp!, {r1, r4, r5, r8, fp, ip, pc}
    9938:	97cf9844 	strbls	r9, [pc, r4, asr #16]
    993c:	96e7975b 	usatls	r9, #7, fp, asr #14
    9940:	96049675 			; <UNDEFINED> instruction: 0x96049675
    9944:	95259594 	strls	r9, [r5, #-1428]!	; 0xfffffa6c
    9948:	944994b6 	strbls	r9, [r9], #-1206	; 0xfffffb4a
    994c:	937293dd 	cmnls	r2, #1946157059	; 0x74000003
    9950:	929f9308 	addsls	r9, pc, #8, 6	; 0x20000000
    9954:	91d09237 	bicsls	r9, r0, r7, lsr r2
    9958:	9106916b 	tstls	r6, fp, ror #2
    995c:	904090a2 	subls	r9, r0, r2, lsr #1
    9960:	8f7e8fde 	svchi	0x007e8fde
    9964:	8ec08f1f 	mcrhi	15, 6, r8, cr0, cr15, {0}
    9968:	8e078e63 	cdphi	14, 0, cr8, cr7, cr3, {3}
    996c:	8d528dac 	ldclhi	13, cr8, [r2, #-688]	; 0xfffffd50
    9970:	8ca28cfa 	stchi	12, cr8, [r2], #1000	; 0x3e8
    9974:	8bf68c4b 	blhi	ffdacaa8 <__bss_end__+0xffda2c98>
    9978:	8b4f8ba2 	blhi	13ec808 <__bss_end__+0x13e29f8>
    997c:	8aac8afd 	bhi	feb2c578 <__bss_end__+0xfeb22768>
    9980:	8a0d8a5c 	bhi	36c2f8 <__bss_end__+0x3624e8>
    9984:	897389c0 	ldmdbhi	r3!, {r6, r7, r8, fp, pc}^
    9988:	88de8928 	ldmhi	lr, {r3, r5, r8, fp, pc}^
    998c:	884d8895 	stmdahi	sp, {r0, r2, r4, r7, fp, pc}^
    9990:	87c18807 	strbhi	r8, [r1, r7, lsl #16]
    9994:	873a877d 			; <UNDEFINED> instruction: 0x873a877d
    9998:	86b786f8 			; <UNDEFINED> instruction: 0x86b786f8
    999c:	86398677 			; <UNDEFINED> instruction: 0x86398677
    99a0:	85bf85fc 	ldrhi	r8, [pc, #1532]!	; 9fa4 <__bss_end__+0x194>
    99a4:	854b8584 	strbhi	r8, [fp, #-1412]	; 0xfffffa7c
    99a8:	84db8512 	ldrbhi	r8, [fp], #1298	; 0x512
    99ac:	846f84a4 	strbthi	r8, [pc], #-1188	; 99b4 <FFT_SINE_LUT+0x5b0>
    99b0:	8409843c 	strhi	r8, [r9], #-1084	; 0xfffffbc4
    99b4:	83a783d7 			; <UNDEFINED> instruction: 0x83a783d7
    99b8:	834a8378 	movthi	r8, #41848	; 0xa378
    99bc:	82f2831e 	rscshi	r8, r2, #2013265920	; 0x78000000
    99c0:	829f82c8 	addshi	r8, pc, #200, 4	; 0x8000000c
    99c4:	82508277 	subshi	r8, r0, #1879048199	; 0x70000007
    99c8:	8207822b 	andhi	r8, r7, #-1342177278	; 0xb0000002
    99cc:	81c281e4 	bichi	r8, r2, r4, ror #3
    99d0:	818281a2 	orrhi	r8, r2, r2, lsr #3
    99d4:	81478164 	cmphi	r7, r4, ror #2
    99d8:	8111812c 	tsthi	r1, ip, lsr #2
    99dc:	80e080f8 	strdhi	r8, [r0], #8	; <UNPREDICTABLE>
    99e0:	80b480c9 	adcshi	r8, r4, r9, asr #1
    99e4:	808c809f 	umullhi	r8, ip, pc, r0	; <UNPREDICTABLE>
    99e8:	806a807a 	rsbhi	r8, sl, sl, ror r0
    99ec:	804c805a 	subhi	r8, ip, sl, asr r0
    99f0:	8033803f 	eorshi	r8, r3, pc, lsr r0
    99f4:	80208029 	eorhi	r8, r0, r9, lsr #32
    99f8:	80118018 	andshi	r8, r1, r8, lsl r0
    99fc:	8007800b 	andhi	r8, r7, fp
    9a00:	80028004 	andhi	r8, r2, r4

00009a04 <putk>:
    9a04:	000083e0 	andeq	r8, r0, r0, ror #7

00009a08 <rpi_putchar>:
    9a08:	00008fe8 	andeq	r8, r0, r8, ror #31

Disassembly of section .bss:

00009a0c <__bss_start__>:
	...

Disassembly of section .ARM.attributes:

00000000 <.ARM.attributes>:
   0:	00002a41 	andeq	r2, r0, r1, asr #20
   4:	61656100 	cmnvs	r5, r0, lsl #2
   8:	01006962 	tsteq	r0, r2, ror #18
   c:	00000020 	andeq	r0, r0, r0, lsr #32
  10:	4b5a3605 	blmi	168d82c <__bss_end__+0x1683a1c>
  14:	08070600 	stmdaeq	r7, {r9, sl}
  18:	12010901 	andne	r0, r1, #16384	; 0x4000
  1c:	15011404 	strne	r1, [r1, #-1028]	; 0xfffffbfc
  20:	18031701 	stmdane	r3, {r0, r8, r9, sl, ip}
  24:	22011a01 	andcs	r1, r1, #4096	; 0x1000
  28:	Address 0x0000000000000028 is out of bounds.


Disassembly of section .comment:

00000000 <.comment>:
   0:	3a434347 	bcc	10d0d24 <__bss_end__+0x10c6f14>
   4:	4e472820 	cdpmi	8, 4, cr2, cr7, cr0, {1}
   8:	6f542055 	svcvs	0x00542055
   c:	20736c6f 	rsbscs	r6, r3, pc, ror #24
  10:	20726f66 	rsbscs	r6, r2, r6, ror #30
  14:	206d7241 	rsbcs	r7, sp, r1, asr #4
  18:	65626d45 	strbvs	r6, [r2, #-3397]!	; 0xfffff2bb
  1c:	64656464 	strbtvs	r6, [r5], #-1124	; 0xfffffb9c
  20:	6f725020 	svcvs	0x00725020
  24:	73736563 	cmnvc	r3, #415236096	; 0x18c00000
  28:	2073726f 	rsbscs	r7, r3, pc, ror #4
  2c:	30322d39 	eorscc	r2, r2, r9, lsr sp
  30:	712d3931 			; <UNDEFINED> instruction: 0x712d3931
  34:	616d2d34 	cmnvs	sp, r4, lsr sp
  38:	29726f6a 	ldmdbcs	r2!, {r1, r3, r5, r6, r8, r9, sl, fp, sp, lr}^
  3c:	322e3920 	eorcc	r3, lr, #32, 18	; 0x80000
  40:	3220312e 	eorcc	r3, r0, #-2147483637	; 0x8000000b
  44:	31393130 	teqcc	r9, r0, lsr r1
  48:	20353230 	eorscs	r3, r5, r0, lsr r2
  4c:	6c657228 	sfmvs	f7, 2, [r5], #-160	; 0xffffff60
  50:	65736165 	ldrbvs	r6, [r3, #-357]!	; 0xfffffe9b
  54:	415b2029 	cmpmi	fp, r9, lsr #32
  58:	612f4d52 			; <UNDEFINED> instruction: 0x612f4d52
  5c:	392d6d72 	pushcc	{r1, r4, r5, r6, r8, sl, fp, sp, lr}
  60:	6172622d 	cmnvs	r2, sp, lsr #4
  64:	2068636e 	rsbcs	r6, r8, lr, ror #6
  68:	69766572 	ldmdbvs	r6!, {r1, r4, r5, r6, r8, sl, sp, lr}^
  6c:	6e6f6973 			; <UNDEFINED> instruction: 0x6e6f6973
  70:	37373220 	ldrcc	r3, [r7, -r0, lsr #4]!
  74:	5d393935 			; <UNDEFINED> instruction: 0x5d393935
  78:	43434700 	movtmi	r4, #14080	; 0x3700
  7c:	4728203a 			; <UNDEFINED> instruction: 0x4728203a
  80:	4120554e 			; <UNDEFINED> instruction: 0x4120554e
  84:	45206d72 	strmi	r6, [r0, #-3442]!	; 0xfffff28e
  88:	6465626d 	strbtvs	r6, [r5], #-621	; 0xfffffd93
  8c:	20646564 	rsbcs	r6, r4, r4, ror #10
  90:	6c6f6f54 	stclvs	15, cr6, [pc], #-336	; ffffff48 <__bss_end__+0xffff6138>
  94:	69616863 	stmdbvs	r1!, {r0, r1, r5, r6, fp, sp, lr}^
  98:	3031206e 	eorscc	r2, r1, lr, rrx
  9c:	322d332e 	eorcc	r3, sp, #-1207959552	; 0xb8000000
  a0:	2e313230 	mrccs	2, 1, r3, cr1, cr0, {1}
  a4:	20293031 	eorcs	r3, r9, r1, lsr r0
  a8:	332e3031 			; <UNDEFINED> instruction: 0x332e3031
  ac:	3220312e 	eorcc	r3, r0, #-2147483637	; 0x8000000b
  b0:	30313230 	eorscc	r3, r1, r0, lsr r2
  b4:	20343238 	eorscs	r3, r4, r8, lsr r2
  b8:	6c657228 	sfmvs	f7, 2, [r5], #-160	; 0xffffff60
  bc:	65736165 	ldrbvs	r6, [r3, #-357]!	; 0xfffffe9b
  c0:	Address 0x00000000000000c0 is out of bounds.


Disassembly of section .debug_info:

00000000 <.debug_info>:
       0:	00000209 	andeq	r0, r0, r9, lsl #4
       4:	00000004 	andeq	r0, r0, r4
       8:	01040000 	mrseq	r0, (UNDEF: 4)
       c:	000000a8 	andeq	r0, r0, r8, lsr #1
      10:	00015d0c 	andeq	r5, r1, ip, lsl #26
      14:	00000800 	andeq	r0, r0, r0, lsl #16
      18:	00803800 	addeq	r3, r0, r0, lsl #16
      1c:	00007c00 	andeq	r7, r0, r0, lsl #24
      20:	00000000 	andeq	r0, r0, r0
      24:	05040200 	streq	r0, [r4, #-512]	; 0xfffffe00
      28:	00746e69 	rsbseq	r6, r4, r9, ror #28
      2c:	7a070403 	bvc	1c1040 <__bss_end__+0x1b7230>
      30:	03000001 	movweq	r0, #1
      34:	006d0601 	rsbeq	r0, sp, r1, lsl #12
      38:	96040000 	strls	r0, [r4], -r0
      3c:	02000001 	andeq	r0, r0, #1, 0
      40:	00461825 	subeq	r1, r6, r5, lsr #16
      44:	02030000 	andeq	r0, r3, #0, 0
      48:	0001b805 	andeq	fp, r1, r5, lsl #16
      4c:	05040300 	streq	r0, [r4, #-768]	; 0xfffffd00
      50:	000001a3 	andeq	r0, r0, r3, lsr #3
      54:	9e050803 	cdpls	8, 0, cr0, cr5, cr3, {0}
      58:	03000001 	movweq	r0, #1
      5c:	006b0801 	rsbeq	r0, fp, r1, lsl #16
      60:	02030000 	andeq	r0, r3, #0, 0
      64:	00008607 	andeq	r8, r0, r7, lsl #12
      68:	01c20400 	biceq	r0, r2, r0, lsl #8
      6c:	34020000 	strcc	r0, [r2], #-0
      70:	00007519 	andeq	r7, r0, r9, lsl r5
      74:	07040300 	streq	r0, [r4, -r0, lsl #6]
      78:	00000175 	andeq	r0, r0, r5, ror r1
      7c:	70070803 	andvc	r0, r7, r3, lsl #16
      80:	05000001 	streq	r0, [r0, #-1]
      84:	00000025 	andeq	r0, r0, r5, lsr #32
      88:	00000092 	muleq	r0, r2, r0
      8c:	00002506 	andeq	r2, r0, r6, lsl #10
      90:	ac070000 	stcge	0, cr0, [r7], {-0}
      94:	03000001 	movweq	r0, #1
      98:	009e0e1c 	addseq	r0, lr, ip, lsl lr
      9c:	04080000 	streq	r0, [r8], #-0
      a0:	00000083 	andeq	r0, r0, r3, lsl #1
      a4:	00002505 	andeq	r2, r0, r5, lsl #10
      a8:	0000b300 	andeq	fp, r0, r0, lsl #6
      ac:	00b30600 	adcseq	r0, r3, r0, lsl #12
      b0:	08000000 	stmdaeq	r0, {}	; <UNPREDICTABLE>
      b4:	0000c004 	andeq	ip, r0, r4
      b8:	08010300 	stmdaeq	r1, {r8, r9}
      bc:	00000074 	andeq	r0, r0, r4, ror r0
      c0:	0000b909 	andeq	fp, r0, r9, lsl #18
      c4:	07840700 	streq	r0, [r4, r0, lsl #14]
      c8:	21030000 	mrscs	r0, (UNDEF: 3)
      cc:	0000d10e 	andeq	sp, r0, lr, lsl #2
      d0:	a4040800 	strge	r0, [r4], #-2048	; 0xfffff800
      d4:	0a000000 	beq	dc <__code_start__-0x7f24>
      d8:	00000000 	andeq	r0, r0, r0
      dc:	38060d01 	stmdacc	r6, {r0, r8, sl, fp}
      e0:	7c000080 	stcvc	0, cr0, [r0], {128}	; 0x80
      e4:	01000000 	mrseq	r0, (UNDEF: 0)
      e8:	0001cc9c 	muleq	r1, ip, ip
      ec:	05a90b00 	streq	r0, [r9, #2816]!	; 0xb00
      f0:	0f010000 	svceq	0x00010000
      f4:	0001cc0d 	andeq	ip, r1, sp, lsl #24
      f8:	f0910300 			; <UNDEFINED> instruction: 0xf0910300
      fc:	057d0b77 	ldrbeq	r0, [sp, #-2935]!	; 0xfffff489
     100:	10010000 	andne	r0, r1, r0
     104:	0001cc0d 	andeq	ip, r1, sp, lsl #24
     108:	f0910300 			; <UNDEFINED> instruction: 0xf0910300
     10c:	08210c7b 	stmdaeq	r1!, {r0, r1, r3, r4, r5, r6, sl, fp}
     110:	19010000 	stmdbne	r1, {}	; <UNPREDICTABLE>
     114:	0000690e 	andeq	r6, r0, lr, lsl #18
     118:	00000400 	andeq	r0, r0, r0, lsl #8
     11c:	00000000 	andeq	r0, r0, r0
     120:	6e650d00 	cdpvs	13, 6, cr0, cr5, cr0, {0}
     124:	1d010064 	stcne	0, cr0, [r1, #-400]	; 0xfffffe70
     128:	0000690e 	andeq	r6, r0, lr, lsl #18
     12c:	00002400 	andeq	r2, r0, r0, lsl #8
     130:	00002200 	andeq	r2, r0, r0, lsl #4
     134:	00000e00 	andeq	r0, r0, r0, lsl #28
     138:	01510000 	cmpeq	r1, r0
     13c:	690d0000 	stmdbvs	sp, {}	; <UNPREDICTABLE>
     140:	0e130100 	mufeqs	f0, f3, f0
     144:	00000025 	andeq	r0, r0, r5, lsr #32
     148:	00000039 	andeq	r0, r0, r9, lsr r0
     14c:	00000037 	andeq	r0, r0, r7, lsr r0
     150:	80740f00 	rsbshi	r0, r4, r0, lsl #30
     154:	001c0000 	andseq	r0, ip, r0
     158:	01920000 	orrseq	r0, r2, r0
     15c:	690d0000 	stmdbvs	sp, {}	; <UNPREDICTABLE>
     160:	0e1a0100 	mufeqe	f0, f2, f0
     164:	00000025 	andeq	r0, r0, r5, lsr #32
     168:	0000004f 	andeq	r0, r0, pc, asr #32
     16c:	0000004d 	andeq	r0, r0, sp, asr #32
     170:	00808810 	addeq	r8, r0, r0, lsl r8
     174:	0001dc00 	andeq	sp, r1, r0, lsl #24
     178:	50011100 	andpl	r1, r1, r0, lsl #2
     17c:	11007d02 	tstne	r0, r2, lsl #26
     180:	91035101 	tstls	r3, r1, lsl #2
     184:	01117be8 	tsteq	r1, r8, ror #23
     188:	11380152 	teqne	r8, r2, asr r1
     18c:	30015301 	andcc	r5, r1, r1, lsl #6
     190:	6c120000 	ldcvs	0, cr0, [r2], {-0}
     194:	e8000080 	stmda	r0, {r7}
     198:	12000001 	andne	r0, r0, #1, 0
     19c:	00008094 	muleq	r0, r4, r0
     1a0:	000001e8 	andeq	r0, r0, r8, ror #3
     1a4:	0080a813 	addeq	sl, r0, r3, lsl r8
     1a8:	0001f400 	andeq	pc, r1, r0, lsl #8
     1ac:	0001c200 	andeq	ip, r1, r0, lsl #4
     1b0:	50011100 	andpl	r1, r1, r0, lsl #2
     1b4:	90d80305 	sbcsls	r0, r8, r5, lsl #6
     1b8:	01110000 	tsteq	r1, r0
     1bc:	000a0352 	andeq	r0, sl, r2, asr r3
     1c0:	ac120001 	ldcge	0, cr0, [r2], {1}
     1c4:	00000080 	andeq	r0, r0, r0, lsl #1
     1c8:	00000002 	andeq	r0, r0, r2
     1cc:	00003a14 	andeq	r3, r0, r4, lsl sl
     1d0:	0001dc00 	andeq	sp, r1, r0, lsl #24
     1d4:	002c1500 	eoreq	r1, ip, r0, lsl #10
     1d8:	00ff0000 	rscseq	r0, pc, r0
     1dc:	00018716 	andeq	r8, r1, r6, lsl r7
     1e0:	00018700 	andeq	r8, r1, r0, lsl #14
     1e4:	09180400 	ldmdbeq	r8, {sl}
     1e8:	00009916 	andeq	r9, r0, r6, lsl r9
     1ec:	00009900 	andeq	r9, r0, r0, lsl #18
     1f0:	0a5d0300 	beq	1740df8 <__bss_end__+0x1736fe8>
     1f4:	0006ff16 	andeq	pc, r6, r6, lsl pc	; <UNPREDICTABLE>
     1f8:	0006ff00 	andeq	pc, r6, r0, lsl #30
     1fc:	06280300 	strteq	r0, [r8], -r0, lsl #6
     200:	00007916 	andeq	r7, r0, r6, lsl r9
     204:	00007900 	andeq	r7, r0, r0, lsl #18
     208:	066e0300 	strbteq	r0, [lr], -r0, lsl #6
     20c:	000a1800 	andeq	r1, sl, r0, lsl #16
     210:	2b000400 	blcs	1218 <__code_start__-0x6de8>
     214:	04000001 	streq	r0, [r0], #-1
     218:	0000a801 	andeq	sl, r0, r1, lsl #16
     21c:	02860c00 	addeq	r0, r6, #0, 24
     220:	00080000 	andeq	r0, r8, r0
     224:	80b40000 	adcshi	r0, r4, r0
     228:	01d00000 	bicseq	r0, r0, r0
     22c:	019d0000 	orrseq	r0, sp, r0
     230:	04020000 	streq	r0, [r2], #-0
     234:	746e6905 	strbtvc	r6, [lr], #-2309	; 0xfffff6fb
     238:	07040300 	streq	r0, [r4, -r0, lsl #6]
     23c:	0000017a 	andeq	r0, r0, sl, ror r1
     240:	6d060103 	stfvss	f0, [r6, #-12]
     244:	03000000 	movweq	r0, #0
     248:	01b80502 			; <UNDEFINED> instruction: 0x01b80502
     24c:	c3040000 	movwgt	r0, #16384	; 0x4000
     250:	03000001 	movweq	r0, #1
     254:	004d1828 	subeq	r1, sp, r8, lsr #16
     258:	04030000 	streq	r0, [r3], #-0
     25c:	0001a305 	andeq	sl, r1, r5, lsl #6
     260:	05080300 	streq	r0, [r8, #-768]	; 0xfffffd00
     264:	0000019e 	muleq	r0, lr, r1
     268:	6b080103 	blvs	20067c <__bss_end__+0x1f686c>
     26c:	03000000 	movweq	r0, #0
     270:	00860702 	addeq	r0, r6, r2, lsl #14
     274:	c2040000 	andgt	r0, r4, #0, 0
     278:	03000001 	movweq	r0, #1
     27c:	00751934 	rsbseq	r1, r5, r4, lsr r9
     280:	04030000 	streq	r0, [r3], #-0
     284:	00017507 	andeq	r7, r1, r7, lsl #10
     288:	07080300 	streq	r0, [r8, -r0, lsl #6]
     28c:	00000170 	andeq	r0, r0, r0, ror r1
     290:	00002505 	andeq	r2, r0, r5, lsl #10
     294:	00009200 	andeq	r9, r0, r0, lsl #4
     298:	00250600 	eoreq	r0, r5, r0, lsl #12
     29c:	07000000 	streq	r0, [r0, -r0]
     2a0:	000001ac 	andeq	r0, r0, ip, lsr #3
     2a4:	9e0e1c04 	cdpls	12, 0, cr1, cr14, cr4, {0}
     2a8:	08000000 	stmdaeq	r0, {}	; <UNPREDICTABLE>
     2ac:	00008304 	andeq	r8, r0, r4, lsl #6
     2b0:	00250500 	eoreq	r0, r5, r0, lsl #10
     2b4:	00b30000 	adcseq	r0, r3, r0
     2b8:	b3060000 	movwlt	r0, #24576	; 0x6000
     2bc:	00000000 	andeq	r0, r0, r0
     2c0:	00c00408 	sbceq	r0, r0, r8, lsl #8
     2c4:	01030000 	mrseq	r0, (UNDEF: 3)
     2c8:	00007408 	andeq	r7, r0, r8, lsl #8
     2cc:	00b90900 	adcseq	r0, r9, r0, lsl #18
     2d0:	84070000 	strhi	r0, [r7], #-0
     2d4:	04000007 	streq	r0, [r0], #-7
     2d8:	00d10e21 	sbcseq	r0, r1, r1, lsr #28
     2dc:	04080000 	streq	r0, [r8], #-0
     2e0:	000000a4 	andeq	r0, r0, r4, lsr #1
     2e4:	5b01070a 	blpl	41f14 <__bss_end__+0x38104>
     2e8:	06000000 	streq	r0, [r0], -r0
     2ec:	01160e0c 	tsteq	r6, ip, lsl #28
     2f0:	9b0b0000 	blls	2c02f8 <__bss_end__+0x2b64e8>
     2f4:	00000003 	andeq	r0, r0, r3
     2f8:	0002430b 	andeq	r4, r2, fp, lsl #6
     2fc:	6e0b0100 	adfvse	f0, f3, f0
     300:	04000003 	streq	r0, [r0], #-3
     304:	00028c0b 	andeq	r8, r2, fp, lsl #24
     308:	9b0b0500 	blls	2c1710 <__bss_end__+0x2b7900>
     30c:	06000002 	streq	r0, [r0], -r2
     310:	0002aa0b 	andeq	sl, r2, fp, lsl #20
     314:	b90b0700 	stmdblt	fp, {r8, r9, sl}
     318:	03000002 	movweq	r0, #2
     31c:	0002c80b 	andeq	ip, r2, fp, lsl #16
     320:	0c000200 	sfmeq	f0, 4, [r0], {-0}
     324:	09100524 	ldmdbeq	r0, {r2, r5, r8, sl}
     328:	00000194 	muleq	r0, r4, r1
     32c:	0073630d 	rsbseq	r6, r3, sp, lsl #6
     330:	690e1105 	stmdbvs	lr, {r0, r2, r8, ip}
     334:	00000000 	andeq	r0, r0, r0
     338:	0003f40e 	andeq	pc, r3, lr, lsl #8
     33c:	0e120500 	cfmul32eq	mvfx0, mvfx2, mvfx0
     340:	00000069 	andeq	r0, r0, r9, rrx
     344:	026d0e04 	rsbeq	r0, sp, #4, 28	; 0x40
     348:	13050000 	movwne	r0, #20480	; 0x5000
     34c:	0000690e 	andeq	r6, r0, lr, lsl #18
     350:	140e0800 	strne	r0, [lr], #-2048	; 0xfffff800
     354:	05000005 	streq	r0, [r0, #-5]
     358:	00690e14 	rsbeq	r0, r9, r4, lsl lr
     35c:	0e0c0000 	cdpeq	0, 0, cr0, cr12, cr0, {0}
     360:	000004df 	ldrdeq	r0, [r0], -pc	; <UNPREDICTABLE>
     364:	690e1505 	stmdbvs	lr, {r0, r2, r8, sl, ip}
     368:	10000000 	andne	r0, r0, r0
     36c:	0004820e 	andeq	r8, r4, lr, lsl #4
     370:	0e160500 	cfmul32eq	mvfx0, mvfx6, mvfx0
     374:	00000069 	andeq	r0, r0, r9, rrx
     378:	02540e14 	subseq	r0, r4, #20, 28	; 0x140
     37c:	17050000 	strne	r0, [r5, -r0]
     380:	0000690e 	andeq	r6, r0, lr, lsl #18
     384:	030e1800 	movweq	r1, #59392	; 0xe800
     388:	05000002 	streq	r0, [r0, #-2]
     38c:	00690e18 	rsbeq	r0, r9, r8, lsl lr
     390:	0e1c0000 	cdpeq	0, 1, cr0, cr12, cr0, {0}
     394:	00000233 	andeq	r0, r0, r3, lsr r2
     398:	690e1905 	stmdbvs	lr, {r0, r2, r8, fp, ip}
     39c:	20000000 	andcs	r0, r0, r0
     3a0:	02380400 	eorseq	r0, r8, #0, 8
     3a4:	1a050000 	bne	1403ac <__bss_end__+0x13659c>
     3a8:	00011603 	andeq	r1, r1, r3, lsl #12
     3ac:	01940f00 	orrseq	r0, r4, r0, lsl #30
     3b0:	070a0000 	streq	r0, [sl, -r0]
     3b4:	00005b01 	andeq	r5, r0, r1, lsl #22
     3b8:	0e310500 	cfabs32eq	mvfx0, mvfx1
     3bc:	00000202 	andeq	r0, r0, r2, lsl #4
     3c0:	0001e20b 	andeq	lr, r1, fp, lsl #4
     3c4:	c30b0000 	movwgt	r0, #45056	; 0xb000
     3c8:	01000004 	tsteq	r0, r4
     3cc:	0001d50b 	andeq	sp, r1, fp, lsl #10
     3d0:	1d0b0400 	cfstrsne	mvf0, [fp, #-0]
     3d4:	07000004 	streq	r0, [r0, -r4]
     3d8:	0004f20b 	andeq	pc, r4, fp, lsl #4
     3dc:	c70b0800 	strgt	r0, [fp, -r0, lsl #16]
     3e0:	0e000003 	cdpeq	0, 0, cr0, cr0, cr3, {0}
     3e4:	0003510b 	andeq	r5, r3, fp, lsl #2
     3e8:	ab0b1000 	blge	2c43f0 <__bss_end__+0x2ba5e0>
     3ec:	12000003 	andne	r0, r0, #3, 0
     3f0:	0004770b 	andeq	r7, r4, fp, lsl #14
     3f4:	830b1400 	movwhi	r1, #46080	; 0xb400
     3f8:	16000003 	strne	r0, [r0], -r3
     3fc:	0003140b 	andeq	r1, r3, fp, lsl #8
     400:	3b0b1700 	blcc	2c6008 <__bss_end__+0x2bc1f8>
     404:	18000004 	stmdane	r0, {r2}
     408:	0002720b 	andeq	r7, r2, fp, lsl #4
     40c:	0a001900 	beq	6814 <__code_start__-0x17ec>
     410:	005b0107 	subseq	r0, fp, r7, lsl #2
     414:	42050000 	andmi	r0, r5, #0, 0
     418:	0002290e 	andeq	r2, r2, lr, lsl #18
     41c:	03f90b00 	mvnseq	r0, #0, 22
     420:	0b000000 	bleq	428 <__code_start__-0x7bd8>
     424:	00000502 	andeq	r0, r0, r2, lsl #10
     428:	03b60b09 			; <UNDEFINED> instruction: 0x03b60b09
     42c:	0b0a0000 	bleq	280434 <__bss_end__+0x276624>
     430:	00000534 	andeq	r0, r0, r4, lsr r5
     434:	070a0013 	smladeq	sl, r3, r0, r0
     438:	00005b01 	andeq	r5, r0, r1, lsl #22
     43c:	0e4a0500 	cdpeq	5, 4, cr0, cr10, cr0, {0}
     440:	00000280 	andeq	r0, r0, r0, lsl #5
     444:	0004470b 	andeq	r4, r4, fp, lsl #14
     448:	e80b0000 	stmda	fp, {}	; <UNPREDICTABLE>
     44c:	03000002 	movweq	r0, #2
     450:	0004650b 	andeq	r6, r4, fp, lsl #10
     454:	210b0400 	tstcs	fp, r0, lsl #8
     458:	0d000003 	stceq	0, cr0, [r0, #-12]
     45c:	00042d0b 	andeq	r2, r4, fp, lsl #26
     460:	240b0e00 	strcs	r0, [fp], #-3584	; 0xfffff200
     464:	0f000002 	svceq	0x00000002
     468:	00040b0b 	andeq	r0, r4, fp, lsl #22
     46c:	f10b1000 			; <UNDEFINED> instruction: 0xf10b1000
     470:	13000001 	movwne	r0, #1
     474:	0002120b 	andeq	r1, r2, fp, lsl #4
     478:	1b0b1400 	blne	2c5480 <__bss_end__+0x2bb670>
     47c:	1d000005 	stcne	0, cr0, [r0, #-20]	; 0xffffffec
     480:	0003e60b 	andeq	lr, r3, fp, lsl #12
     484:	910b1e00 	tstls	fp, r0, lsl #28
     488:	1f000004 	svcne	0x00000004
     48c:	05a00c00 	streq	r0, [r0, #3072]!	; 0xc00
     490:	02b1096d 	adcseq	r0, r1, #1785856	; 0x1b4000
     494:	b20e0000 	andlt	r0, lr, #0, 0
     498:	05000004 	streq	r0, [r0, #-4]
     49c:	02b10e6e 	adcseq	r0, r1, #1760	; 0x6e0
     4a0:	0e000000 	cdpeq	0, 0, cr0, cr0, cr0, {0}
     4a4:	00000264 	andeq	r0, r0, r4, ror #4
     4a8:	690e6f05 	stmdbvs	lr, {r0, r2, r8, r9, sl, fp, sp, lr}
     4ac:	98000000 	stmdals	r0, {}	; <UNPREDICTABLE>
     4b0:	0003330e 	andeq	r3, r3, lr, lsl #6
     4b4:	0e700500 	cdpeq	5, 7, cr0, cr0, cr0, {0}
     4b8:	00000069 	andeq	r0, r0, r9, rrx
     4bc:	6910009c 	ldmdbvs	r0, {r2, r3, r4, r7}
     4c0:	c1000000 	mrsgt	r0, (UNDEF: 0)
     4c4:	11000002 	tstne	r0, r2
     4c8:	0000002c 	andeq	r0, r0, ip, lsr #32
     4cc:	cb040025 	blgt	100568 <__bss_end__+0xf6758>
     4d0:	05000001 	streq	r0, [r0, #-1]
     4d4:	02800371 	addeq	r0, r0, #-1006632959	; 0xc4000001
     4d8:	c10f0000 	mrsgt	r0, CPSR
     4dc:	12000002 	andne	r0, r0, #2, 0
     4e0:	000002d7 	ldrdeq	r0, [r0], -r7
     4e4:	e4160402 	ldr	r0, [r6], #-1026	; 0xfffffbfe
     4e8:	05000002 	streq	r0, [r0, #-2]
     4ec:	00940003 	addseq	r0, r4, r3
     4f0:	a0040800 	andge	r0, r4, r0, lsl #16
     4f4:	12000001 	andne	r0, r0, #1, 0
     4f8:	000003de 	ldrdeq	r0, [r0], -lr
     4fc:	fc150502 	ldc2	5, cr0, [r5], {2}
     500:	05000002 	streq	r0, [r0, #-2]
     504:	0093fc03 	addseq	pc, r3, r3, lsl #24
     508:	cd040800 	stcgt	8, cr0, [r4, #-0]
     50c:	0a000002 	beq	51c <__code_start__-0x7ae4>
     510:	002c0407 	eoreq	r0, ip, r7, lsl #8
     514:	09020000 	stmdbeq	r2, {}	; <UNPREDICTABLE>
     518:	00034706 	andeq	r4, r3, r6, lsl #14
     51c:	025b1300 	subseq	r1, fp, #0, 6
     520:	10980000 	addsne	r0, r8, r0
     524:	7e132010 	mrcvc	0, 0, r2, cr3, cr0, {0}
     528:	9c000002 	stcls	0, cr0, [r0], {2}
     52c:	13201010 			; <UNDEFINED> instruction: 0x13201010
     530:	0000020b 	andeq	r0, r0, fp, lsl #4
     534:	20203008 	eorcs	r3, r0, r8
     538:	00037d13 	andeq	r7, r3, r3, lsl sp
     53c:	20300c00 	eorscs	r0, r0, r0, lsl #24
     540:	01ec1320 	mvneq	r1, r0, lsr #6
     544:	30000000 	andcc	r0, r0, r0
     548:	2d132020 	ldccs	0, cr2, [r3, #-128]	; 0xffffff80
     54c:	04000005 	streq	r0, [r0], #-5
     550:	00202030 	eoreq	r2, r0, r0, lsr r0
     554:	0004cf14 	andeq	ip, r4, r4, lsl pc
     558:	09650200 	stmdbeq	r5!, {r9}^
     55c:	00000041 	andeq	r0, r0, r1, asr #32
     560:	00008254 	andeq	r8, r0, r4, asr r2
     564:	00000030 	andeq	r0, r0, r0, lsr r0
     568:	03a69c01 			; <UNDEFINED> instruction: 0x03a69c01
     56c:	76150000 	ldrvc	r0, [r5], -r0
     570:	02006c61 	andeq	r6, r0, #24832	; 0x6100
     574:	002c0e67 	eoreq	r0, ip, r7, ror #28
     578:	00670000 	rsbeq	r0, r7, r0
     57c:	00630000 	rsbeq	r0, r3, r0
     580:	5c160000 	ldcpl	0, cr0, [r6], {-0}
     584:	c7000082 	strgt	r0, [r0, -r2, lsl #1]
     588:	17000009 	strne	r0, [r0, -r9]
     58c:	00008268 	andeq	r8, r0, r8, ror #4
     590:	000009d3 	ldrdeq	r0, [r0], -r3
     594:	00000392 	muleq	r0, r2, r3
     598:	02500118 	subseq	r0, r0, #6
     59c:	19000074 	stmdbne	r0, {r2, r4, r5, r6}
     5a0:	0000827c 	andeq	r8, r0, ip, ror r2
     5a4:	000009d3 	ldrdeq	r0, [r0], -r3
     5a8:	05500118 	ldrbeq	r0, [r0, #-280]	; 0xfffffee8
     5ac:	2030040c 	eorscs	r0, r0, ip, lsl #8
     5b0:	1a000020 	bne	638 <__code_start__-0x79c8>
     5b4:	0000033b 	andeq	r0, r0, fp, lsr r3
     5b8:	f4061c02 			; <UNDEFINED> instruction: 0xf4061c02
     5bc:	60000080 	andvs	r0, r0, r0, lsl #1
     5c0:	01000001 	tsteq	r0, r1
     5c4:	0007659c 	muleq	r7, ip, r5
     5c8:	03441b00 	movteq	r1, #19200	; 0x4b00
     5cc:	07750000 	ldrbeq	r0, [r5, -r0]!
     5d0:	03050000 	movweq	r0, #20480	; 0x5000
     5d4:	000091b0 			; <UNDEFINED> instruction: 0x000091b0
     5d8:	6c617615 	stclvs	6, cr7, [r1], #-84	; 0xffffffac
     5dc:	0e2c0200 	cdpeq	2, 2, cr0, cr12, cr0, {0}
     5e0:	0000002c 	andeq	r0, r0, ip, lsr #32
     5e4:	000000b6 	strheq	r0, [r0], -r6
     5e8:	00000086 	andeq	r0, r0, r6, lsl #1
     5ec:	00077a1c 	andeq	r7, r7, ip, lsl sl
     5f0:	00815400 	addeq	r5, r1, r0, lsl #8
     5f4:	20005300 	andcs	r5, r0, r0, lsl #6
     5f8:	02000000 	andeq	r0, r0, #0, 0
     5fc:	04030b2f 	streq	r0, [r3], #-2863	; 0xfffff4d1
     600:	8b1d0000 	blhi	740608 <__bss_end__+0x7367f8>
     604:	58000007 	stmdapl	r0, {r0, r1, r2}
     608:	56000002 	strpl	r0, [r0], -r2
     60c:	00000002 	andeq	r0, r0, r2
     610:	00077a1e 	andeq	r7, r7, lr, lsl sl
     614:	00818000 	addeq	r8, r1, r0
     618:	80000700 	andhi	r0, r0, r0, lsl #14
     61c:	00000081 	andeq	r0, r0, r1, lsl #1
     620:	02000000 	andeq	r0, r0, #0, 0
     624:	042b0b3c 	strteq	r0, [fp], #-2876	; 0xfffff4c4
     628:	8b1d0000 	blhi	740630 <__bss_end__+0x736820>
     62c:	77000007 	strvc	r0, [r0, -r7]
     630:	75000002 	strvc	r0, [r0, #-2]
     634:	00000002 	andeq	r0, r0, r2
     638:	0007981c 	andeq	r9, r7, ip, lsl r8
     63c:	00819c00 	addeq	r9, r1, r0, lsl #24
     640:	38002a00 	stmdacc	r0, {r9, fp, sp}
     644:	02000000 	andeq	r0, r0, #0, 0
     648:	04890b45 	streq	r0, [r9], #2885	; 0xb45
     64c:	c91d0000 	ldmdbgt	sp, {}	; <UNPREDICTABLE>
     650:	90000007 	andls	r0, r0, r7
     654:	8e000002 	cdphi	0, 0, cr0, cr0, cr2, {0}
     658:	1d000002 	stcne	0, cr0, [r0, #-8]
     65c:	000007be 			; <UNDEFINED> instruction: 0x000007be
     660:	000002a7 	andeq	r0, r0, r7, lsr #5
     664:	000002a5 	andeq	r0, r0, r5, lsr #5
     668:	0007b31d 	andeq	fp, r7, sp, lsl r3
     66c:	0002bd00 	andeq	fp, r2, r0, lsl #26
     670:	0002bb00 	andeq	fp, r2, r0, lsl #22
     674:	07a91d00 	streq	r1, [r9, r0, lsl #26]!
     678:	02d30000 	sbcseq	r0, r3, #0, 0
     67c:	02d10000 	sbcseq	r0, r1, #0, 0
     680:	381f0000 	ldmdacc	pc, {}	; <UNPREDICTABLE>
     684:	20000000 	andcs	r0, r0, r0
     688:	000007e2 	andeq	r0, r0, r2, ror #15
     68c:	000002f3 	strdeq	r0, [r0], -r3
     690:	000002f1 	strdeq	r0, [r0], -r1
     694:	cd1c0000 	ldcgt	0, cr0, [ip, #-0]
     698:	bc000008 	stclt	0, cr0, [r0], {8}
     69c:	30000081 	andcc	r0, r0, r1, lsl #1
     6a0:	00005800 	andeq	r5, r0, r0, lsl #16
     6a4:	0b4b0200 	bleq	12c0eac <__bss_end__+0x12b709c>
     6a8:	000004bf 			; <UNDEFINED> instruction: 0x000004bf
     6ac:	0008e81d 	andeq	lr, r8, sp, lsl r8
     6b0:	00030900 	andeq	r0, r3, r0, lsl #18
     6b4:	00030700 	andeq	r0, r3, r0, lsl #14
     6b8:	08de1d00 	ldmeq	lr, {r8, sl, fp, ip}^
     6bc:	031f0000 	tsteq	pc, #0, 0
     6c0:	031d0000 	tsteq	sp, #0, 0
     6c4:	58210000 	stmdapl	r1!, {}	; <UNPREDICTABLE>
     6c8:	00000000 	andeq	r0, r0, r0
     6cc:	0008cd1e 	andeq	ip, r8, lr, lsl sp
     6d0:	0081d800 	addeq	sp, r1, r0, lsl #16
     6d4:	d8001900 	stmdale	r0, {r8, fp, ip}
     6d8:	00000081 	andeq	r0, r0, r1, lsl #1
     6dc:	02000000 	andeq	r0, r0, #0, 0
     6e0:	04f40b57 	ldrbteq	r0, [r4], #2903	; 0xb57
     6e4:	e81d0000 	ldmda	sp, {}	; <UNPREDICTABLE>
     6e8:	41000008 	tstmi	r0, r8
     6ec:	3f000003 	svccc	0x00000003
     6f0:	1d000003 	stcne	0, cr0, [r0, #-12]
     6f4:	000008de 	ldrdeq	r0, [r0], -lr
     6f8:	00000357 	andeq	r0, r0, r7, asr r3
     6fc:	00000355 	andeq	r0, r0, r5, asr r3
     700:	08701c00 	ldmdaeq	r0!, {sl, fp, ip}^
     704:	81f40000 	mvnshi	r0, r0
     708:	00000000 	andeq	r0, r0, r0
     70c:	00000070 	andeq	r0, r0, r0, ror r0
     710:	560b5a02 	strpl	r5, [fp], -r2, lsl #20
     714:	1d000005 	stcne	0, cr0, [r0, #-20]	; 0xffffffec
     718:	0000088b 	andeq	r0, r0, fp, lsl #17
     71c:	00000374 	andeq	r0, r0, r4, ror r3
     720:	00000372 	andeq	r0, r0, r2, ror r3
     724:	0008811d 	andeq	r8, r8, sp, lsl r1
     728:	00038a00 	andeq	r8, r3, r0, lsl #20
     72c:	00038800 	andeq	r8, r3, r0, lsl #16
     730:	08982200 	ldmeq	r8, {r9, sp}
     734:	81f40000 	mvnshi	r0, r0
     738:	00020000 	andeq	r0, r2, r0
     73c:	000081f4 	strdeq	r8, [r0], -r4
     740:	00000000 	andeq	r0, r0, r0
     744:	1d0c2401 	cfstrsne	mvf2, [ip, #-4]
     748:	000008b3 			; <UNDEFINED> instruction: 0x000008b3
     74c:	0000039f 	muleq	r0, pc, r3	; <UNPREDICTABLE>
     750:	0000039d 	muleq	r0, sp, r3
     754:	0008a91d 	andeq	sl, r8, sp, lsl r9
     758:	0003b500 	andeq	fp, r3, r0, lsl #10
     75c:	0003b300 	andeq	fp, r3, r0, lsl #6
     760:	17000000 	strne	r0, [r0, -r0]
     764:	00008104 	andeq	r8, r0, r4, lsl #2
     768:	000009d3 	ldrdeq	r0, [r0], -r3
     76c:	0000056d 	andeq	r0, r0, sp, ror #10
     770:	05500118 	ldrbeq	r0, [r0, #-280]	; 0xfffffee8
     774:	2030000c 	eorscs	r0, r0, ip
     778:	18170020 	ldmdane	r7, {r5}
     77c:	df000081 	svcle	0x00000081
     780:	85000009 	strhi	r0, [r0, #-9]
     784:	18000005 	stmdane	r0, {r0, r2}
     788:	42015001 	andmi	r5, r1, #1, 0
     78c:	01510118 	cmpeq	r1, r8, lsl r1
     790:	24170034 	ldrcs	r0, [r7], #-52	; 0xffffffcc
     794:	df000081 	svcle	0x00000081
     798:	9d000009 	stcls	0, cr0, [r0, #-36]	; 0xffffffdc
     79c:	18000005 	stmdane	r0, {r0, r2}
     7a0:	43015001 	movwmi	r5, #4097	; 0x1001
     7a4:	01510118 	cmpeq	r1, r8, lsl r1
     7a8:	30170034 	andscc	r0, r7, r4, lsr r0
     7ac:	df000081 	svcle	0x00000081
     7b0:	b5000009 	strlt	r0, [r0, #-9]
     7b4:	18000005 	stmdane	r0, {r0, r2}
     7b8:	44015001 	strmi	r5, [r1], #-1
     7bc:	01510118 	cmpeq	r1, r8, lsl r1
     7c0:	38170034 	ldmdacc	r7, {r2, r4, r5}
     7c4:	eb000081 	bl	9d0 <__code_start__-0x7630>
     7c8:	c8000009 	stmdagt	r0, {r0, r3}
     7cc:	18000005 	stmdane	r0, {r0, r2}
     7d0:	42015001 	andmi	r5, r1, #1, 0
     7d4:	81401700 	cmphi	r0, r0, lsl #14
     7d8:	09eb0000 	stmibeq	fp!, {}^	; <UNPREDICTABLE>
     7dc:	05db0000 	ldrbeq	r0, [fp]
     7e0:	01180000 	tsteq	r8, r0
     7e4:	00430150 	subeq	r0, r3, r0, asr r1
     7e8:	00814817 	addeq	r4, r1, r7, lsl r8
     7ec:	0009eb00 	andeq	lr, r9, r0, lsl #22
     7f0:	0005ee00 	andeq	lr, r5, r0, lsl #28
     7f4:	50011800 	andpl	r1, r1, r0, lsl #16
     7f8:	16004401 	strne	r4, [r0], -r1, lsl #8
     7fc:	0000814c 	andeq	r8, r0, ip, asr #2
     800:	000009c7 	andeq	r0, r0, r7, asr #19
     804:	00815417 	addeq	r5, r1, r7, lsl r4
     808:	0009d300 	andeq	sp, r9, r0, lsl #6
     80c:	00060e00 	andeq	r0, r6, r0, lsl #28
     810:	50011800 	andpl	r1, r1, r0, lsl #16
     814:	10980c05 	addsne	r0, r8, r5, lsl #24
     818:	17002010 	smladne	r0, r0, r0, r2
     81c:	0000816c 	andeq	r8, r0, ip, ror #2
     820:	000009f7 	strdeq	r0, [r0], -r7
     824:	00000625 	andeq	r0, r0, r5, lsr #12
     828:	05500118 	ldrbeq	r0, [r0, #-280]	; 0xfffffee8
     82c:	1010980c 	andsne	r9, r0, ip, lsl #16
     830:	78170020 	ldmdavc	r7, {r5}
     834:	f7000081 			; <UNDEFINED> instruction: 0xf7000081
     838:	45000009 	strmi	r0, [r0, #-9]
     83c:	18000006 	stmdane	r0, {r1, r2}
     840:	0c055001 	stceq	0, cr5, [r5], {1}
     844:	2010109c 	mulscs	r0, ip, r0
     848:	05510118 	ldrbeq	r0, [r1, #-280]	; 0xfffffee8
     84c:	006cd80c 	rsbeq	sp, ip, ip, lsl #16
     850:	8017005a 	andshi	r0, r7, sl, asr r0
     854:	d3000081 	movwle	r0, #129	; 0x81
     858:	5c000009 	stcpl	0, cr0, [r0], {9}
     85c:	18000006 	stmdane	r0, {r1, r2}
     860:	0c055001 	stceq	0, cr5, [r5], {1}
     864:	20101098 	mulscs	r0, r8, r0
     868:	81901700 	orrshi	r1, r0, r0, lsl #14
     86c:	09f70000 	ldmibeq	r7!, {}^	; <UNPREDICTABLE>
     870:	06730000 	ldrbteq	r0, [r3], -r0
     874:	01180000 	tsteq	r8, r0
     878:	980c0550 	stmdals	ip, {r4, r6, r8, sl}
     87c:	00201010 	eoreq	r1, r0, r0, lsl r0
     880:	00819416 	addeq	r9, r1, r6, lsl r4
     884:	0009c700 	andeq	ip, r9, r0, lsl #14
     888:	819c1700 	orrshi	r1, ip, r0, lsl #14
     88c:	09d30000 	ldmibeq	r3, {}^	; <UNPREDICTABLE>
     890:	06930000 	ldreq	r0, [r3], r0
     894:	01180000 	tsteq	r8, r0
     898:	080c0550 	stmdaeq	ip, {r4, r6, r8, sl}
     89c:	00202030 	eoreq	r2, r0, r0, lsr r0
     8a0:	0081b417 	addeq	fp, r1, r7, lsl r4
     8a4:	0009f700 	andeq	pc, r9, r0, lsl #14
     8a8:	0006aa00 	andeq	sl, r6, r0, lsl #20
     8ac:	50011800 	andpl	r1, r1, r0, lsl #16
     8b0:	30080c05 	andcc	r0, r8, r5, lsl #24
     8b4:	17002020 	strne	r2, [r0, -r0, lsr #32]
     8b8:	000081bc 			; <UNDEFINED> instruction: 0x000081bc
     8bc:	000009d3 	ldrdeq	r0, [r0], -r3
     8c0:	000006c1 	andeq	r0, r0, r1, asr #13
     8c4:	05500118 	ldrbeq	r0, [r0, #-280]	; 0xfffffee8
     8c8:	20300c0c 	eorscs	r0, r0, ip, lsl #24
     8cc:	d0170020 	andsle	r0, r7, r0, lsr #32
     8d0:	f7000081 			; <UNDEFINED> instruction: 0xf7000081
     8d4:	d8000009 	stmdale	r0, {r0, r3}
     8d8:	18000006 	stmdane	r0, {r1, r2}
     8dc:	0c055001 	stceq	0, cr5, [r5], {1}
     8e0:	2020300c 	eorcs	r3, r0, ip
     8e4:	81d81700 	bicshi	r1, r8, r0, lsl #14
     8e8:	09d30000 	ldmibeq	r3, {}^	; <UNPREDICTABLE>
     8ec:	06ef0000 	strbteq	r0, [pc], r0
     8f0:	01180000 	tsteq	r8, r0
     8f4:	000c0550 	andeq	r0, ip, r0, asr r5
     8f8:	00202030 	eoreq	r2, r0, r0, lsr r0
     8fc:	0081e817 	addeq	lr, r1, r7, lsl r8
     900:	0009f700 	andeq	pc, r9, r0, lsl #14
     904:	00070600 	andeq	r0, r7, r0, lsl #12
     908:	50011800 	andpl	r1, r1, r0, lsl #16
     90c:	30000c05 	andcc	r0, r0, r5, lsl #24
     910:	17002020 	strne	r2, [r0, -r0, lsr #32]
     914:	000081f4 	strdeq	r8, [r0], -r4
     918:	000009d3 	ldrdeq	r0, [r0], -r3
     91c:	0000071a 	andeq	r0, r0, sl, lsl r7
     920:	02500118 	subseq	r0, r0, #6
     924:	23000074 	movwcs	r0, #116	; 0x74
     928:	00008208 	andeq	r8, r0, r8, lsl #4
     92c:	000009c7 	andeq	r0, r0, r7, asr #19
     930:	00822417 	addeq	r2, r2, r7, lsl r4
     934:	000a0300 	andeq	r0, sl, r0, lsl #6
     938:	00075b00 	andeq	r5, r7, r0, lsl #22
     93c:	50011800 	andpl	r1, r1, r0, lsl #16
     940:	914c0305 	cmpls	ip, r5, lsl #6
     944:	01180000 	tsteq	r8, r0
     948:	78030551 	stmdavc	r3, {r0, r4, r6, r8, sl}
     94c:	18000091 	stmdane	r0, {r0, r4, r7}
     950:	03055201 	movweq	r5, #20993	; 0x5201
     954:	000091b0 			; <UNDEFINED> instruction: 0x000091b0
     958:	01530118 	cmpeq	r3, r8, lsl r1
     95c:	7d02184d 	stcvc	8, cr1, [r2, #-308]	; 0xfffffecc
     960:	80030500 	andhi	r0, r3, r0, lsl #10
     964:	00000091 	muleq	r0, r1, r0
     968:	00822816 	addeq	r2, r2, r6, lsl r8
     96c:	000a0f00 	andeq	r0, sl, r0, lsl #30
     970:	c0100000 	andsgt	r0, r0, r0
     974:	75000000 	strvc	r0, [r0, #-0]
     978:	11000007 	tstne	r0, r7
     97c:	0000002c 	andeq	r0, r0, ip, lsr #32
     980:	65090008 	strvs	r0, [r9, #-8]
     984:	24000007 	strcs	r0, [r0], #-7
     988:	0000038e 	andeq	r0, r0, lr, lsl #7
     98c:	690a1502 	stmdbvs	sl, {r1, r8, sl, ip}
     990:	01000000 	mrseq	r0, (UNDEF: 0)
     994:	00000798 	muleq	r0, r8, r7
     998:	6c617625 	stclvs	6, cr7, [r1], #-148	; 0xffffff6c
     99c:	20150200 	andscs	r0, r5, r0, lsl #4
     9a0:	00000069 	andeq	r0, r0, r9, rrx
     9a4:	03d52600 	bicseq	r2, r5, #0, 12
     9a8:	4d010000 	stcmi	0, cr0, [r1, #-0]
     9ac:	00006901 	andeq	r6, r0, r1, lsl #18
     9b0:	07ed0300 	strbeq	r0, [sp, r0, lsl #6]!
     9b4:	78250000 	stmdavc	r5!, {}	; <UNPREDICTABLE>
     9b8:	134d0100 	movtne	r0, #53504	; 0xd100
     9bc:	00000069 	andeq	r0, r0, r9, rrx
     9c0:	00626c25 	rsbeq	r6, r2, r5, lsr #24
     9c4:	2c1f4d01 	ldccs	13, cr4, [pc], {1}
     9c8:	25000000 	strcs	r0, [r0, #-0]
     9cc:	01006275 	tsteq	r0, r5, ror r2
     9d0:	002c2c4d 	eoreq	r2, ip, sp, asr #24
     9d4:	76250000 	strtvc	r0, [r5], -r0
     9d8:	394d0100 	stmdbcc	sp, {r8}^
     9dc:	00000069 	andeq	r0, r0, r9, rrx
     9e0:	0003441b 	andeq	r4, r3, fp, lsl r4
     9e4:	00077500 	andeq	r7, r7, r0, lsl #10
     9e8:	a4030500 	strge	r0, [r3], #-1280	; 0xfffffb00
     9ec:	27000091 			; <UNDEFINED> instruction: 0x27000091
     9f0:	5601006e 	strpl	r0, [r1], -lr, rrx
     9f4:	00002c0e 	andeq	r2, r0, lr, lsl #24
     9f8:	00260000 	eoreq	r0, r6, r0
     9fc:	01000003 	tsteq	r0, r3
     a00:	00690141 	rsbeq	r0, r9, r1, asr #2
     a04:	34030000 	strcc	r0, [r3], #-0
     a08:	25000008 	strcs	r0, [r0, #-8]
     a0c:	41010078 	tstmi	r1, r8, ror r0
     a10:	00006913 	andeq	r6, r0, r3, lsl r9
     a14:	626c2500 	rsbvs	r2, ip, #0, 10
     a18:	1f410100 	svcne	0x00410100
     a1c:	0000002c 	andeq	r0, r0, ip, lsr #32
     a20:	00627525 	rsbeq	r7, r2, r5, lsr #10
     a24:	2c2c4101 	stfcss	f4, [ip], #-4
     a28:	28000000 	stmdacs	r0, {}	; <UNPREDICTABLE>
     a2c:	00000344 	andeq	r0, r0, r4, asr #6
     a30:	00000775 	andeq	r0, r0, r5, ror r7
     a34:	00048c29 	andeq	r8, r4, r9, lsr #24
     a38:	0e450100 	dvfeqs	f0, f5, f0
     a3c:	00000069 	andeq	r0, r0, r9, rrx
     a40:	04872600 	streq	r2, [r7], #1536	; 0x600
     a44:	2f010000 	svccs	0x00010000
     a48:	00006918 	andeq	r6, r0, r8, lsl r9
     a4c:	085b0300 	ldmdaeq	fp, {r8, r9}^
     a50:	fa2a0000 	blx	a80a58 <__bss_end__+0xa76c48>
     a54:	01000002 	tsteq	r0, r2
     a58:	002c2b2f 	eoreq	r2, ip, pc, lsr #22
     a5c:	44280000 	strtmi	r0, [r8], #-0
     a60:	6b000003 	blvs	a74 <__code_start__-0x758c>
     a64:	00000008 	andeq	r0, r0, r8
     a68:	0000c010 	andeq	ip, r0, r0, lsl r0
     a6c:	00086b00 	andeq	r6, r8, r0, lsl #22
     a70:	002c1100 	eoreq	r1, ip, r0, lsl #2
     a74:	00090000 	andeq	r0, r9, r0
     a78:	00085b09 	andeq	r5, r8, r9, lsl #22
     a7c:	03092600 	movweq	r2, #38400	; 0x9600
     a80:	23010000 	movwcs	r0, #4096	; 0x1000
     a84:	00002c01 	andeq	r2, r0, r1, lsl #24
     a88:	08980300 	ldmeq	r8, {r8, r9}
     a8c:	78250000 	stmdavc	r5!, {}	; <UNPREDICTABLE>
     a90:	15230100 	strne	r0, [r3, #-256]!	; 0xffffff00
     a94:	00000069 	andeq	r0, r0, r9, rrx
     a98:	74696225 	strbtvc	r6, [r9], #-549	; 0xfffffddb
     a9c:	21230100 			; <UNDEFINED> instruction: 0x21230100
     aa0:	0000002c 	andeq	r0, r0, ip, lsr #32
     aa4:	03642600 	cmneq	r4, #0, 12
     aa8:	1e010000 	cdpne	0, 0, cr0, cr1, cr0, {0}
     aac:	00002c01 	andeq	r2, r0, r1, lsl #24
     ab0:	08cd0300 	stmiaeq	sp, {r8, r9}^
     ab4:	78250000 	stmdavc	r5!, {}	; <UNPREDICTABLE>
     ab8:	141e0100 	ldrne	r0, [lr], #-256	; 0xffffff00
     abc:	00000069 	andeq	r0, r0, r9, rrx
     ac0:	74696225 	strbtvc	r6, [r9], #-549	; 0xfffffddb
     ac4:	201e0100 	andscs	r0, lr, r0, lsl #2
     ac8:	0000002c 	andeq	r0, r0, ip, lsr #32
     acc:	0003442b 	andeq	r4, r3, fp, lsr #8
     ad0:	00086b00 	andeq	r6, r8, r0, lsl #22
     ad4:	00036400 	andeq	r6, r3, r0, lsl #8
     ad8:	e0260000 	eor	r0, r6, r0
     adc:	01000002 	tsteq	r0, r2
     ae0:	0069010e 	rsbeq	r0, r9, lr, lsl #2
     ae4:	02030000 	andeq	r0, r3, #0, 0
     ae8:	25000009 	strcs	r0, [r0, #-9]
     aec:	0e010078 	mcreq	0, 0, r0, cr1, cr8, {3}
     af0:	00006912 	andeq	r6, r0, r2, lsl r9
     af4:	69622500 	stmdbvs	r2!, {r8, sl, sp}^
     af8:	0e010074 	mcreq	0, 0, r0, cr1, cr4, {3}
     afc:	00002c1e 	andeq	r2, r0, lr, lsl ip
     b00:	03442b00 	movteq	r2, #19200	; 0x4b00
     b04:	09120000 	ldmdbeq	r2, {}	; <UNPREDICTABLE>
     b08:	02e00000 	rsceq	r0, r0, #0, 0
     b0c:	10000000 	andne	r0, r0, r0
     b10:	000000c0 	andeq	r0, r0, r0, asr #1
     b14:	00000912 	andeq	r0, r0, r2, lsl r9
     b18:	00002c11 	andeq	r2, r0, r1, lsl ip
     b1c:	09000700 	stmdbeq	r0, {r8, r9, sl}
     b20:	00000902 	andeq	r0, r0, r2, lsl #18
     b24:	0007982c 	andeq	r9, r7, ip, lsr #16
     b28:	0080b400 	addeq	fp, r0, r0, lsl #8
     b2c:	00003800 	andeq	r3, r0, r0, lsl #16
     b30:	a69c0100 	ldrge	r0, [ip], r0, lsl #2
     b34:	2d000009 	stccs	0, cr0, [r0, #-36]	; 0xffffffdc
     b38:	000007e2 	andeq	r0, r0, r2, ror #15
     b3c:	0007c91d 	andeq	ip, r7, sp, lsl r9
     b40:	0003ca00 	andeq	ip, r3, r0, lsl #20
     b44:	0003c800 	andeq	ip, r3, r0, lsl #16
     b48:	07be1d00 	ldreq	r1, [lr, r0, lsl #26]!
     b4c:	03e40000 	mvneq	r0, #0, 0
     b50:	03e20000 	mvneq	r0, #0, 0
     b54:	b31d0000 	tstlt	sp, #0, 0
     b58:	fe000007 	cdp2	0, 0, cr0, cr0, cr7, {0}
     b5c:	fc000003 	stc2	0, cr0, [r0], {3}
     b60:	1d000003 	stcne	0, cr0, [r0, #-12]
     b64:	000007a9 	andeq	r0, r0, r9, lsr #15
     b68:	00000418 	andeq	r0, r0, r8, lsl r4
     b6c:	00000416 	andeq	r0, r0, r6, lsl r4
     b70:	0080d817 	addeq	sp, r0, r7, lsl r8
     b74:	000a0300 	andeq	r0, sl, r0, lsl #6
     b78:	00099c00 	andeq	r9, r9, r0, lsl #24
     b7c:	50011800 	andpl	r1, r1, r0, lsl #16
     b80:	914c0305 	cmpls	ip, r5, lsl #6
     b84:	01180000 	tsteq	r8, r0
     b88:	f0030551 			; <UNDEFINED> instruction: 0xf0030551
     b8c:	18000090 	stmdane	r0, {r4, r7}
     b90:	03055201 	movweq	r5, #20993	; 0x5201
     b94:	000091a4 	andeq	r9, r0, r4, lsr #3
     b98:	02530118 	subseq	r0, r3, #6
     b9c:	02185808 	andseq	r5, r8, #8, 16	; 0x80000
     ba0:	0305007d 	movweq	r0, #20605	; 0x507d
     ba4:	00009160 	andeq	r9, r0, r0, ror #2
     ba8:	80dc1600 	sbcshi	r1, ip, r0, lsl #12
     bac:	0a0f0000 	beq	3c0bb4 <__bss_end__+0x3b6da4>
     bb0:	2c000000 	stccs	0, cr0, [r0], {-0}
     bb4:	0000077a 	andeq	r0, r0, sl, ror r7
     bb8:	000080ec 	andeq	r8, r0, ip, ror #1
     bbc:	00000008 	andeq	r0, r0, r8
     bc0:	09c79c01 	stmibeq	r7, {r0, sl, fp, ip, pc}^
     bc4:	8b1d0000 	blhi	740bcc <__bss_end__+0x736dbc>
     bc8:	34000007 	strcc	r0, [r0], #-7
     bcc:	30000004 	andcc	r0, r0, r4
     bd0:	00000004 	andeq	r0, r0, r4
     bd4:	0004592e 	andeq	r5, r4, lr, lsr #18
     bd8:	00045900 	andeq	r5, r4, r0, lsl #18
     bdc:	06a10400 	strteq	r0, [r1], r0, lsl #8
     be0:	00035e2e 	andeq	r5, r3, lr, lsr #28
     be4:	00035e00 	andeq	r5, r3, r0, lsl #28
     be8:	0ac70400 	beq	ff1c1bf0 <__bss_end__+0xff1b7de0>
     bec:	0004a02e 	andeq	sl, r4, lr, lsr #32
     bf0:	0004a000 	andeq	sl, r4, r0
     bf4:	06190600 	ldreq	r0, [r9], -r0, lsl #12
     bf8:	0004e62e 	andeq	lr, r4, lr, lsr #12
     bfc:	0004e600 	andeq	lr, r4, r0, lsl #12
     c00:	06270600 	strteq	r0, [r7], -r0, lsl #12
     c04:	0004bd2e 	andeq	fp, r4, lr, lsr #26
     c08:	0004bd00 	andeq	fp, r4, r0, lsl #26
     c0c:	06b20400 	ldrteq	r0, [r2], r0, lsl #8
     c10:	0006ff2e 	andeq	pc, r6, lr, lsr #30
     c14:	0006ff00 	andeq	pc, r6, r0, lsl #30
     c18:	06280400 	strteq	r0, [r8], -r0, lsl #8
     c1c:	0000792e 	andeq	r7, r0, lr, lsr #18
     c20:	00007900 	andeq	r7, r0, r0, lsl #18
     c24:	066e0400 	strbteq	r0, [lr], -r0, lsl #8
     c28:	0005a200 	andeq	sl, r5, r0, lsl #4
     c2c:	cc000400 	cfstrsgt	mvf0, [r0], {-0}
     c30:	04000003 	streq	r0, [r0], #-3
     c34:	0000a801 	andeq	sl, r0, r1, lsl #16
     c38:	059e0c00 	ldreq	r0, [lr, #3072]	; 0xc00
     c3c:	00080000 	andeq	r0, r8, r0
     c40:	82840000 	addhi	r0, r4, #0, 0
     c44:	01040000 	mrseq	r0, (UNDEF: 4)
     c48:	0d1c0000 	ldceq	0, cr0, [ip, #-0]
     c4c:	04020000 	streq	r0, [r2], #-0
     c50:	746e6905 	strbtvc	r6, [lr], #-2309	; 0xfffff6fb
     c54:	07040300 	streq	r0, [r4, -r0, lsl #6]
     c58:	0000017a 	andeq	r0, r0, sl, ror r1
     c5c:	6d060103 	stfvss	f0, [r6, #-12]
     c60:	04000000 	streq	r0, [r0], #-0
     c64:	00000196 	muleq	r0, r6, r1
     c68:	46182503 	ldrmi	r2, [r8], -r3, lsl #10
     c6c:	03000000 	movweq	r0, #0
     c70:	01b80502 			; <UNDEFINED> instruction: 0x01b80502
     c74:	c3040000 	movwgt	r0, #16384	; 0x4000
     c78:	03000001 	movweq	r0, #1
     c7c:	00591828 	subseq	r1, r9, r8, lsr #16
     c80:	04030000 	streq	r0, [r3], #-0
     c84:	0001a305 	andeq	sl, r1, r5, lsl #6
     c88:	05080300 	streq	r0, [r8, #-768]	; 0xfffffd00
     c8c:	0000019e 	muleq	r0, lr, r1
     c90:	6b080103 	blvs	2010a4 <__bss_end__+0x1f7294>
     c94:	03000000 	movweq	r0, #0
     c98:	00860702 	addeq	r0, r6, r2, lsl #14
     c9c:	04030000 	streq	r0, [r3], #-0
     ca0:	00017507 	andeq	r7, r1, r7, lsl #10
     ca4:	07080300 	streq	r0, [r8, -r0, lsl #6]
     ca8:	00000170 	andeq	r0, r0, r0, ror r1
     cac:	00002505 	andeq	r2, r0, r5, lsl #10
     cb0:	00009200 	andeq	r9, r0, r0, lsl #4
     cb4:	00250600 	eoreq	r0, r5, r0, lsl #12
     cb8:	07000000 	streq	r0, [r0, -r0]
     cbc:	000001ac 	andeq	r0, r0, ip, lsr #3
     cc0:	9e0e1c04 	cdpls	12, 0, cr1, cr14, cr4, {0}
     cc4:	08000000 	stmdaeq	r0, {}	; <UNPREDICTABLE>
     cc8:	00008304 	andeq	r8, r0, r4, lsl #6
     ccc:	00250500 	eoreq	r0, r5, r0, lsl #10
     cd0:	00b30000 	adcseq	r0, r3, r0
     cd4:	b3060000 	movwlt	r0, #24576	; 0x6000
     cd8:	00000000 	andeq	r0, r0, r0
     cdc:	00c00408 	sbceq	r0, r0, r8, lsl #8
     ce0:	01030000 	mrseq	r0, (UNDEF: 3)
     ce4:	00007408 	andeq	r7, r0, r8, lsl #8
     ce8:	00b90900 	adcseq	r0, r9, r0, lsl #18
     cec:	84070000 	strhi	r0, [r7], #-0
     cf0:	04000007 	streq	r0, [r0], #-7
     cf4:	00d10e21 	sbcseq	r0, r1, r1, lsr #28
     cf8:	04080000 	streq	r0, [r8], #-0
     cfc:	000000a4 	andeq	r0, r0, r4, lsr #1
     d00:	00003a0a 	andeq	r3, r0, sl, lsl #20
     d04:	0000e800 	andeq	lr, r0, r0, lsl #16
     d08:	002c0b00 	eoreq	r0, ip, r0, lsl #22
     d0c:	02ff0000 	rscseq	r0, pc, #0, 0
     d10:	06020c00 	streq	r0, [r2], -r0, lsl #24
     d14:	0a050000 	beq	140d1c <__bss_end__+0x136f0c>
     d18:	0000d709 	andeq	sp, r0, r9, lsl #14
     d1c:	04030500 	streq	r0, [r3], #-1280	; 0xfffffb00
     d20:	0d000094 	stceq	0, cr0, [r0, #-592]	; 0xfffffdb0
     d24:	000005ba 			; <UNDEFINED> instruction: 0x000005ba
     d28:	4d096901 	vstrmi.16	s12, [r9, #-2]	; <UNPREDICTABLE>
     d2c:	60000000 	andvs	r0, r0, r0
     d30:	28000083 	stmdacs	r0, {r0, r1, r7}
     d34:	01000000 	mrseq	r0, (UNDEF: 0)
     d38:	0001e29c 	muleq	r1, ip, r2
     d3c:	0bc30e00 	bleq	ff0c4544 <__bss_end__+0xff0ba734>
     d40:	69010000 	stmdbvs	r1, {}	; <UNPREDICTABLE>
     d44:	0001e221 	andeq	lr, r1, r1, lsr #4
     d48:	00045900 	andeq	r5, r4, r0, lsl #18
     d4c:	00045500 	andeq	r5, r4, r0, lsl #10
     d50:	055c0e00 	ldrbeq	r0, [ip, #-3584]	; 0xfffff200
     d54:	69010000 	stmdbvs	r1, {}	; <UNPREDICTABLE>
     d58:	00004d2f 	andeq	r4, r0, pc, lsr #26
     d5c:	00047e00 	andeq	r7, r4, r0, lsl #28
     d60:	00047a00 	andeq	r7, r4, r0, lsl #20
     d64:	05820e00 	streq	r0, [r2, #3584]	; 0xe00
     d68:	69010000 	stmdbvs	r1, {}	; <UNPREDICTABLE>
     d6c:	00002c42 	andeq	r2, r0, r2, asr #24
     d70:	0004a300 	andeq	sl, r4, r0, lsl #6
     d74:	00049f00 	andeq	r9, r4, r0, lsl #30
     d78:	03440f00 	movteq	r0, #20224	; 0x4f00
     d7c:	01f80000 	mvnseq	r0, r0
     d80:	03050000 	movweq	r0, #20480	; 0x5000
     d84:	00009278 	andeq	r9, r0, r8, ror r2
     d88:	01006910 	tsteq	r0, r0, lsl r9
     d8c:	004d0d6c 	subeq	r0, sp, ip, ror #26
     d90:	4e100000 	cdpmi	0, 1, cr0, cr0, cr0, {0}
     d94:	0e6d0100 	poweqe	f0, f5, f0
     d98:	0000002c 	andeq	r0, r0, ip, lsr #32
     d9c:	0005b411 	andeq	fp, r5, r1, lsl r4
     da0:	0d6e0100 	stfeqe	f0, [lr, #-0]
     da4:	0000004d 	andeq	r0, r0, sp, asr #32
     da8:	0005a911 	andeq	sl, r5, r1, lsl r9
     dac:	0e6f0100 	poweqe	f0, f7, f0
     db0:	000001e2 	andeq	r0, r0, r2, ror #3
     db4:	00057d11 	andeq	r7, r5, r1, lsl sp
     db8:	0e700100 	rpweqs	f0, f0, f0
     dbc:	000001e2 	andeq	r0, r0, r2, ror #3
     dc0:	0001a912 	andeq	sl, r1, r2, lsl r9
     dc4:	05571100 	ldrbeq	r1, [r7, #-256]	; 0xffffff00
     dc8:	76010000 	strvc	r0, [r1], -r0
     dcc:	00003a11 	andeq	r3, r0, r1, lsl sl
     dd0:	78130000 	ldmdavc	r3, {}	; <UNPREDICTABLE>
     dd4:	8d000083 	stchi	0, cr0, [r0, #-524]	; 0xfffffdf4
     dd8:	d8000005 	stmdale	r0, {r0, r2}
     ddc:	14000001 	strne	r0, [r0], #-1
     de0:	03055001 	movweq	r5, #20481	; 0x5001
     de4:	00009228 	andeq	r9, r0, r8, lsr #4
     de8:	05510114 	ldrbeq	r0, [r1, #-276]	; 0xfffffeec
     dec:	0091bc03 	addseq	fp, r1, r3, lsl #24
     df0:	52011400 	andpl	r1, r1, #0, 8
     df4:	92780305 	rsbsls	r0, r8, #335544320	; 0x14000000
     df8:	01140000 	tsteq	r4, r0
     dfc:	6a080253 	bvs	201750 <__bss_end__+0x1f7940>
     e00:	837c1500 	cmnhi	ip, #0, 10
     e04:	05990000 	ldreq	r0, [r9]
     e08:	08000000 	stmdaeq	r0, {}	; <UNPREDICTABLE>
     e0c:	00003a04 	andeq	r3, r0, r4, lsl #20
     e10:	00c00a00 	sbceq	r0, r0, r0, lsl #20
     e14:	01f80000 	mvnseq	r0, r0
     e18:	2c160000 	ldccs	0, cr0, [r6], {-0}
     e1c:	0e000000 	cdpeq	0, 0, cr0, cr0, cr0, {0}
     e20:	01e80900 	mvneq	r0, r0, lsl #18
     e24:	870d0000 	strhi	r0, [sp, -r0]
     e28:	01000001 	tsteq	r0, r1
     e2c:	004d090a 	subeq	r0, sp, sl, lsl #18
     e30:	82840000 	addhi	r0, r4, #0, 0
     e34:	00dc0000 	sbcseq	r0, ip, r0
     e38:	9c010000 	stcls	0, cr0, [r1], {-0}
     e3c:	00000507 	andeq	r0, r0, r7, lsl #10
     e40:	0005a90e 	andeq	sl, r5, lr, lsl #18
     e44:	210a0100 	mrscs	r0, (UNDEF: 26)
     e48:	000001e2 	andeq	r0, r0, r2, ror #3
     e4c:	000004d0 	ldrdeq	r0, [r0], -r0	; <UNPREDICTABLE>
     e50:	000004c4 	andeq	r0, r0, r4, asr #9
     e54:	00057d0e 	andeq	r7, r5, lr, lsl #26
     e58:	300a0100 	andcc	r0, sl, r0, lsl #2
     e5c:	000001e2 	andeq	r0, r0, r2, ror #3
     e60:	0000052b 	andeq	r0, r0, fp, lsr #10
     e64:	00000523 	andeq	r0, r0, r3, lsr #10
     e68:	00055c0e 	andeq	r5, r5, lr, lsl #24
     e6c:	3e0a0100 	adfcce	f0, f2, f0
     e70:	0000003a 	andeq	r0, r0, sl, lsr r0
     e74:	0000056d 	andeq	r0, r0, sp, ror #10
     e78:	00000565 	andeq	r0, r0, r5, ror #10
     e7c:	0005820e 	andeq	r8, r5, lr, lsl #4
     e80:	510a0100 	mrspl	r0, (UNDEF: 26)
     e84:	0000002c 	andeq	r0, r0, ip, lsr #32
     e88:	000005af 	andeq	r0, r0, pc, lsr #11
     e8c:	000005a7 	andeq	r0, r0, r7, lsr #11
     e90:	01006e17 	tsteq	r0, r7, lsl lr
     e94:	002c0e0c 	eoreq	r0, ip, ip, lsl #28
     e98:	05eb0000 	strbeq	r0, [fp, #0]!
     e9c:	05e90000 	strbeq	r0, [r9, #0]!
     ea0:	440f0000 	strmi	r0, [pc], #-0	; ea8 <__code_start__-0x7158>
     ea4:	f8000003 			; <UNDEFINED> instruction: 0xf8000003
     ea8:	05000001 	streq	r0, [r0, #-1]
     eac:	00925803 	addseq	r5, r2, r3, lsl #16
     eb0:	05b41800 	ldreq	r1, [r4, #2048]!	; 0x800
     eb4:	12010000 	andne	r0, r1, #0, 0
     eb8:	00004d0d 	andeq	r4, r0, sp, lsl #26
     ebc:	00060000 	andeq	r0, r6, r0
     ec0:	0005fe00 	andeq	pc, r5, r0, lsl #28
     ec4:	054e1800 	strbeq	r1, [lr, #-2048]	; 0xfffff800
     ec8:	13010000 	movwne	r0, #4096	; 0x1000
     ecc:	00004d0d 	andeq	r4, r0, sp, lsl #26
     ed0:	00061c00 	andeq	r1, r6, r0, lsl #24
     ed4:	00061400 	andeq	r1, r6, r0, lsl #8
     ed8:	656c1700 	strbvs	r1, [ip, #-1792]!	; 0xfffff900
     edc:	2901006e 	stmdbcs	r1, {r1, r2, r3, r5, r6}
     ee0:	00002c0e 	andeq	r2, r0, lr, lsl #24
     ee4:	00065400 	andeq	r5, r6, r0, lsl #8
     ee8:	00065200 	andeq	r5, r6, r0, lsl #4
     eec:	05e51100 	strbeq	r1, [r5, #256]!	; 0x100
     ef0:	2a010000 	bcs	40ef8 <__bss_end__+0x370e8>
     ef4:	00003a0d 	andeq	r3, r0, sp, lsl #20
     ef8:	00881900 	addeq	r1, r8, r0, lsl #18
     efc:	03340000 	teqeq	r4, #0, 0
     f00:	45180000 	ldrmi	r0, [r8, #-0]
     f04:	01000005 	tsteq	r0, r5
     f08:	002c1316 	eoreq	r1, ip, r6, lsl r3
     f0c:	066e0000 	strbteq	r0, [lr], -r0
     f10:	06680000 	strbteq	r0, [r8], -r0
     f14:	b41a0000 	ldrlt	r0, [sl], #-0
     f18:	48000082 	stmdami	r0, {r1, r7}
     f1c:	17000000 	strne	r0, [r0, -r0]
     f20:	006e656c 	rsbeq	r6, lr, ip, ror #10
     f24:	2c121701 	ldccs	7, cr1, [r2], {1}
     f28:	9d000000 	stcls	0, cr0, [r0, #-0]
     f2c:	99000006 	stmdbls	r0, {r1, r2}
     f30:	18000006 	stmdane	r0, {r1, r2}
     f34:	0000060f 	andeq	r0, r0, pc, lsl #12
     f38:	3a112101 	bcc	449344 <__bss_end__+0x43f534>
     f3c:	c1000000 	mrsgt	r0, (UNDEF: 0)
     f40:	bd000006 	stclt	0, cr0, [r0, #-24]	; 0xffffffe8
     f44:	18000006 	stmdane	r0, {r1, r2}
     f48:	000005c9 	andeq	r0, r0, r9, asr #11
     f4c:	3a112401 	bcc	449f58 <__bss_end__+0x440148>
     f50:	e5000000 	str	r0, [r0, #-0]
     f54:	e3000006 	movw	r0, #6
     f58:	00000006 	andeq	r0, r0, r6
     f5c:	83101b00 	tsthi	r0, #0, 22
     f60:	00180000 	andseq	r0, r8, r0
     f64:	04cf0000 	strbeq	r0, [pc], #0	; f6c <__code_start__-0x7094>
     f68:	98180000 	ldmdals	r8, {}	; <UNPREDICTABLE>
     f6c:	01000005 	tsteq	r0, r5
     f70:	004d112c 	subeq	r1, sp, ip, lsr #2
     f74:	06fa0000 	ldrbteq	r0, [sl], r0
     f78:	06f80000 	ldrbteq	r0, [r8], r0
     f7c:	6f180000 	svcvs	0x00180000
     f80:	01000005 	tsteq	r0, r5
     f84:	002c1242 	eoreq	r1, ip, r2, asr #4
     f88:	07100000 	ldreq	r0, [r0, -r0]
     f8c:	070e0000 	streq	r0, [lr, -r0]
     f90:	85120000 	ldrhi	r0, [r2, #-0]
     f94:	10000003 	andne	r0, r0, r3
     f98:	30010069 	andcc	r0, r1, r9, rrx
     f9c:	00002c1b 	andeq	r2, r0, fp, lsl ip
     fa0:	6a101c00 	bvs	407fa8 <__bss_end__+0x3fe198>
     fa4:	19310100 	ldmdbne	r1!, {r8}
     fa8:	0000003a 	andeq	r0, r0, sl, lsr r0
     fac:	101a0000 	andsne	r0, sl, r0
     fb0:	18000083 	stmdane	r0, {r0, r1, r7}
     fb4:	18000000 	stmdane	r0, {}	; <UNPREDICTABLE>
     fb8:	000005fd 	strdeq	r0, [r0], -sp
     fbc:	2c174301 	ldccs	3, cr4, [r7], {1}
     fc0:	26000000 	strcs	r0, [r0], -r0
     fc4:	24000007 	strcs	r0, [r0], #-7
     fc8:	1a000007 	bne	fec <__code_start__-0x7014>
     fcc:	00008310 	andeq	r8, r0, r0, lsl r3
     fd0:	00000018 	andeq	r0, r0, r8, lsl r0
     fd4:	01006a17 	tsteq	r0, r7, lsl sl
     fd8:	004d1544 	subeq	r1, sp, r4, asr #10
     fdc:	073e0000 	ldreq	r0, [lr, -r0]!
     fe0:	073a0000 	ldreq	r0, [sl, -r0]!
     fe4:	a4180000 	ldrge	r0, [r8], #-0
     fe8:	01000005 	tsteq	r0, r5
     fec:	003a1546 	eorseq	r1, sl, r6, asr #10
     ff0:	07600000 	strbeq	r0, [r0, -r0]!
     ff4:	075e0000 	ldrbeq	r0, [lr, -r0]
     ff8:	78180000 	ldmdavc	r8, {}	; <UNPREDICTABLE>
     ffc:	01000005 	tsteq	r0, r5
    1000:	003a1547 	eorseq	r1, sl, r7, asr #10
    1004:	07790000 	ldrbeq	r0, [r9, -r0]!
    1008:	07770000 	ldrbeq	r0, [r7, -r0]!
    100c:	101a0000 	andsne	r0, sl, r0
    1010:	18000083 	stmdane	r0, {r0, r1, r7}
    1014:	17000000 	strne	r0, [r0, -r0]
    1018:	52010069 	andpl	r0, r1, #105, 0	; 0x69
    101c:	00002c1b 	andeq	r2, r0, fp, lsl ip
    1020:	00079600 	andeq	r9, r7, r0, lsl #12
    1024:	00079400 	andeq	r9, r7, r0, lsl #8
    1028:	83101a00 	tsthi	r0, #0, 20
    102c:	00180000 	andseq	r0, r8, r0
    1030:	65110000 	ldrvs	r0, [r1, #-0]
    1034:	01000005 	tsteq	r0, r5
    1038:	003a1954 	eorseq	r1, sl, r4, asr r9
    103c:	19110000 	ldmdbne	r1, {}	; <UNPREDICTABLE>
    1040:	01000006 	tsteq	r0, r6
    1044:	003a1955 	eorseq	r1, sl, r5, asr r9
    1048:	23110000 	tstcs	r1, #0, 0
    104c:	01000006 	tsteq	r0, r6
    1050:	003a1956 	eorseq	r1, sl, r6, asr r9
    1054:	f3110000 	vhadd.u16	d0, d1, d0
    1058:	01000005 	tsteq	r0, r5
    105c:	003a1957 	eorseq	r1, sl, r7, asr r9
    1060:	071d0000 	ldreq	r0, [sp, -r0]
    1064:	10000005 	andne	r0, r0, r5
    1068:	12000083 	andne	r0, r0, #131, 0	; 0x83
    106c:	00008310 	andeq	r8, r0, r0, lsl r3
    1070:	00000018 	andeq	r0, r0, r8, lsl r0
    1074:	1e255401 	cdpne	4, 2, cr5, cr5, cr1, {0}
    1078:	00000518 	andeq	r0, r0, r8, lsl r5
    107c:	0005221f 	andeq	r2, r5, pc, lsl r2
    1080:	0007ae00 	andeq	sl, r7, r0, lsl #28
    1084:	0007aa00 	andeq	sl, r7, r0, lsl #20
    1088:	052c2000 	streq	r2, [ip, #-0]!
    108c:	36200000 	strtcc	r0, [r0], -r0
    1090:	1d000005 	stcne	0, cr0, [r0, #-20]	; 0xffffffec
    1094:	00000543 	andeq	r0, r0, r3, asr #10
    1098:	00008310 	andeq	r8, r0, r0, lsl r3
    109c:	00831014 	addeq	r1, r3, r4, lsl r0
    10a0:	00001800 	andeq	r1, r0, r0, lsl #16
    10a4:	11120200 	tstne	r2, r0, lsl #4
    10a8:	0005541e 	andeq	r5, r5, lr, lsl r4
    10ac:	055e1f00 	ldrbeq	r1, [lr, #-3840]	; 0xfffff100
    10b0:	07d50000 	ldrbeq	r0, [r5, r0]
    10b4:	07d10000 	ldrbeq	r0, [r1, r0]
    10b8:	24130000 	ldrcs	r0, [r3], #-0
    10bc:	8d000083 	stchi	0, cr0, [r0, #-524]	; 0xfffffdf4
    10c0:	bf000005 	svclt	0x00000005
    10c4:	14000004 	strne	r0, [r0], #-4
    10c8:	03055001 	movweq	r5, #20481	; 0x5001
    10cc:	000091fc 	strdeq	r9, [r0], -ip
    10d0:	05510114 	ldrbeq	r0, [r1, #-276]	; 0xfffffeec
    10d4:	0091f403 	addseq	pc, r1, r3, lsl #8
    10d8:	52011400 	andpl	r1, r1, #0, 8
    10dc:	92680305 	rsbls	r0, r8, #335544320	; 0x14000000
    10e0:	01140000 	tsteq	r4, r0
    10e4:	00380153 	eorseq	r0, r8, r3, asr r1
    10e8:	00832815 	addeq	r2, r3, r5, lsl r8
    10ec:	00059900 	andeq	r9, r5, r0, lsl #18
	...
    10f8:	00834413 	addeq	r4, r3, r3, lsl r4
    10fc:	00058d00 	andeq	r8, r5, r0, lsl #26
    1100:	0004fd00 	andeq	pc, r4, r0, lsl #26
    1104:	50011400 	andpl	r1, r1, r0, lsl #8
    1108:	91c40305 	bicls	r0, r4, r5, lsl #6
    110c:	01140000 	tsteq	r4, r0
    1110:	bc030551 	cfstr32lt	mvfx0, [r3], {81}	; 0x51
    1114:	14000091 	strne	r0, [r0], #-145	; 0xffffff6f
    1118:	03055201 	movweq	r5, #20993	; 0x5201
    111c:	00009258 	andeq	r9, r0, r8, asr r2
    1120:	01530114 	cmpeq	r3, r4, lsl r1
    1124:	4815003f 	ldmdami	r5, {r0, r1, r2, r3, r4, r5}
    1128:	99000083 	stmdbls	r0, {r0, r1, r7}
    112c:	00000005 	andeq	r0, r0, r5
    1130:	0005d321 	andeq	sp, r5, r1, lsr #6
    1134:	10110200 	andsne	r0, r1, r0, lsl #4
    1138:	0000003a 	andeq	r0, r0, sl, lsr r0
    113c:	00054303 	andeq	r4, r5, r3, lsl #6
    1140:	00612200 	rsbeq	r2, r1, r0, lsl #4
    1144:	3a2a1102 	bcc	a85554 <__bss_end__+0xa7b744>
    1148:	22000000 	andcs	r0, r0, #0, 0
    114c:	11020062 	tstne	r2, r2, rrx
    1150:	00003a35 	andeq	r3, r0, r5, lsr sl
    1154:	00631000 	rsbeq	r1, r3, r0
    1158:	4d0d1202 	sfmmi	f1, 4, [sp, #-8]
    115c:	11000000 	mrsne	r0, (UNDEF: 0)
    1160:	000005ae 	andeq	r0, r0, lr, lsr #11
    1164:	4d0d1402 	cfstrsmi	mvf1, [sp, #-8]
    1168:	00000000 	andeq	r0, r0, r0
    116c:	00058a21 	andeq	r8, r5, r1, lsr #20
    1170:	10070200 	andne	r0, r7, r0, lsl #4
    1174:	0000004d 	andeq	r0, r0, sp, asr #32
    1178:	00057803 	andeq	r7, r5, r3, lsl #16
    117c:	00612200 	rsbeq	r2, r1, r0, lsl #4
    1180:	3a260702 	bcc	982d90 <__bss_end__+0x978f80>
    1184:	22000000 	andcs	r0, r0, #0, 0
    1188:	07020062 	streq	r0, [r2, -r2, rrx]
    118c:	00003a31 	andeq	r3, r0, r1, lsr sl
    1190:	03440f00 	movteq	r0, #20224	; 0x4f00
    1194:	05880000 	streq	r0, [r8]
    1198:	03050000 	movweq	r0, #20480	; 0x5000
    119c:	00009268 	andeq	r9, r0, r8, ror #4
    11a0:	00c00a00 	sbceq	r0, r0, r0, lsl #20
    11a4:	05880000 	streq	r0, [r8]
    11a8:	2c160000 	ldccs	0, cr0, [r6], {-0}
    11ac:	0d000000 	stceq	0, cr0, [r0, #-0]
    11b0:	05780900 	ldrbeq	r0, [r8, #-2304]!	; 0xfffff700
    11b4:	ff230000 			; <UNDEFINED> instruction: 0xff230000
    11b8:	ff000006 			; <UNDEFINED> instruction: 0xff000006
    11bc:	04000006 	streq	r0, [r0], #-6
    11c0:	79230628 	stmdbvc	r3!, {r3, r5, r9, sl}
    11c4:	79000000 	stmdbvc	r0, {}	; <UNPREDICTABLE>
    11c8:	04000000 	streq	r0, [r0], #-0
    11cc:	9d00066e 	stcls	6, cr0, [r0, #-440]	; 0xfffffe48
    11d0:	04000001 	streq	r0, [r0], #-1
    11d4:	0005a300 	andeq	sl, r5, r0, lsl #6
    11d8:	2d010400 	cfstrscs	mvf0, [r1, #-0]
    11dc:	0c000006 	stceq	0, cr0, [r0], {6}
    11e0:	00000761 	andeq	r0, r0, r1, ror #14
    11e4:	00000715 	andeq	r0, r0, r5, lsl r7
    11e8:	00008388 	andeq	r8, r0, r8, lsl #7
    11ec:	00000058 	andeq	r0, r0, r8, asr r0
    11f0:	00000f61 	andeq	r0, r0, r1, ror #30
    11f4:	00070602 	andeq	r0, r7, r2, lsl #12
    11f8:	1b280200 	blne	a01a00 <__bss_end__+0x9f7bf0>
    11fc:	00000031 	andeq	r0, r0, r1, lsr r0
    1200:	00077103 	andeq	r7, r7, r3, lsl #2
    1204:	00040400 	andeq	r0, r4, r0, lsl #8
    1208:	00000048 	andeq	r0, r0, r8, asr #32
    120c:	00075c04 	andeq	r5, r7, r4, lsl #24
    1210:	00004800 	andeq	r4, r0, r0, lsl #16
    1214:	05000000 	streq	r0, [r0, #-0]
    1218:	07730204 	ldrbeq	r0, [r3, -r4, lsl #4]!
    121c:	63020000 	movwvs	r0, #8192	; 0x2000
    1220:	00002518 	andeq	r2, r0, r8, lsl r5
    1224:	05040600 	streq	r0, [r4, #-1536]	; 0xfffffa00
    1228:	00746e69 	rsbseq	r6, r4, r9, ror #28
    122c:	7a070407 	bvc	1c2250 <__bss_end__+0x1b8440>
    1230:	07000001 	streq	r0, [r0, -r1]
    1234:	006d0601 	rsbeq	r0, sp, r1, lsl #12
    1238:	02070000 	andeq	r0, r7, #0, 0
    123c:	0001b805 	andeq	fp, r1, r5, lsl #16
    1240:	05040700 	streq	r0, [r4, #-1792]	; 0xfffff900
    1244:	000001a3 	andeq	r0, r0, r3, lsr #3
    1248:	9e050807 	cdpls	8, 0, cr0, cr5, cr7, {0}
    124c:	07000001 	streq	r0, [r0, -r1]
    1250:	006b0801 	rsbeq	r0, fp, r1, lsl #16
    1254:	02070000 	andeq	r0, r7, #0, 0
    1258:	00008607 	andeq	r8, r0, r7, lsl #12
    125c:	07040700 	streq	r0, [r4, -r0, lsl #14]
    1260:	00000175 	andeq	r0, r0, r5, ror r1
    1264:	70070807 	andvc	r0, r7, r7, lsl #16
    1268:	08000001 	stmdaeq	r0, {r0}
    126c:	00000056 	andeq	r0, r0, r6, asr r0
    1270:	000000ab 	andeq	r0, r0, fp, lsr #1
    1274:	00005609 	andeq	r5, r0, r9, lsl #12
    1278:	ac0a0000 	stcge	0, cr0, [sl], {-0}
    127c:	03000001 	movweq	r0, #1
    1280:	00b70e1c 	adcseq	r0, r7, ip, lsl lr
    1284:	040b0000 	streq	r0, [fp], #-0
    1288:	0000009c 	muleq	r0, ip, r0
    128c:	00005608 	andeq	r5, r0, r8, lsl #12
    1290:	0000cc00 	andeq	ip, r0, r0, lsl #24
    1294:	00cc0900 	sbceq	r0, ip, r0, lsl #18
    1298:	0b000000 	bleq	12a0 <__code_start__-0x6d60>
    129c:	0000d904 	andeq	sp, r0, r4, lsl #18
    12a0:	08010700 	stmdaeq	r1, {r8, r9, sl}
    12a4:	00000074 	andeq	r0, r0, r4, ror r0
    12a8:	0000d20c 	andeq	sp, r0, ip, lsl #4
    12ac:	07840a00 	streq	r0, [r4, r0, lsl #20]
    12b0:	21030000 	mrscs	r0, (UNDEF: 3)
    12b4:	0000ea0e 	andeq	lr, r0, lr, lsl #20
    12b8:	bd040b00 	vstrlt	d0, [r4, #-0]
    12bc:	0d000000 	stceq	0, cr0, [r0, #-0]
    12c0:	000006ff 	strdeq	r0, [r0], -pc	; <UNPREDICTABLE>
    12c4:	56050601 	strpl	r0, [r5], -r1, lsl #12
    12c8:	88000000 	stmdahi	r0, {}	; <UNPREDICTABLE>
    12cc:	58000083 	stmdapl	r0, {r0, r1, r7}
    12d0:	01000000 	mrseq	r0, (UNDEF: 0)
    12d4:	0001839c 	muleq	r1, ip, r3
    12d8:	6d660e00 	stclvs	14, cr0, [r6, #-0]
    12dc:	06010074 			; <UNDEFINED> instruction: 0x06010074
    12e0:	0000cc18 	andeq	ip, r0, r8, lsl ip
    12e4:	70910200 	addsvc	r0, r1, r0, lsl #4
    12e8:	7562100f 	strbvc	r1, [r2, #-15]!
    12ec:	08010066 	stmdaeq	r1, {r1, r2, r5, r6}
    12f0:	00018311 	andeq	r8, r1, r1, lsl r3
    12f4:	0c030500 	cfstr32eq	mvfx0, [r3], {-0}
    12f8:	1100009a 	swpne	r0, sl, [r0]	; <UNPREDICTABLE>
    12fc:	000006f7 	strdeq	r0, [r0], -r7
    1300:	4a0d0901 	bmi	34370c <__bss_end__+0x3398fc>
    1304:	02000000 	andeq	r0, r0, #0, 0
    1308:	73125c91 	tstvc	r2, #37120	; 0x9100
    130c:	0c01007a 	stceq	0, cr0, [r1], {122}	; 0x7a
    1310:	0000560d 	andeq	r5, r0, sp, lsl #12
    1314:	0007fe00 	andeq	pc, r7, r0, lsl #28
    1318:	0007f800 	andeq	pc, r7, r0, lsl #16
    131c:	83b01300 	movshi	r1, #0, 6
    1320:	01940000 	orrseq	r0, r4, r0
    1324:	01760000 	cmneq	r6, r0
    1328:	01140000 	tsteq	r4, r0
    132c:	00750250 	rsbseq	r0, r5, r0, asr r2
    1330:	03510114 	cmpeq	r1, #5
    1334:	1404000a 	strne	r0, [r4], #-10
    1338:	91035201 	tstls	r3, r1, lsl #4
    133c:	01140648 	tsteq	r4, r8, asr #12
    1340:	4c910253 	lfmmi	f0, 4, [r1], {83}	; 0x53
    1344:	83c41500 	bichi	r1, r4, #0, 10
    1348:	01140000 	tsteq	r4, r0
    134c:	00750250 	rsbseq	r0, r5, r0, asr r2
    1350:	d2160000 	andsle	r0, r6, #0, 0
    1354:	94000000 	strls	r0, [r0], #-0
    1358:	17000001 	strne	r0, [r0, -r1]
    135c:	0000005d 	andeq	r0, r0, sp, asr r0
    1360:	180003ff 	stmdane	r0, {r0, r1, r2, r3, r4, r5, r6, r7, r8, r9}
    1364:	000006fc 	strdeq	r0, [r0], -ip
    1368:	000006fc 	strdeq	r0, [r0], -ip
    136c:	00050205 	andeq	r0, r5, r5, lsl #4
    1370:	000000f3 	strdeq	r0, [r0], -r3
    1374:	06e50004 	strbteq	r0, [r5], r4
    1378:	01040000 	mrseq	r0, (UNDEF: 4)
    137c:	0000062d 	andeq	r0, r0, sp, lsr #12
    1380:	0007890c 	andeq	r8, r7, ip, lsl #18
    1384:	00071500 	andeq	r1, r7, r0, lsl #10
    1388:	0083e000 	addeq	lr, r3, r0
    138c:	00003400 	andeq	r3, r0, r0, lsl #8
    1390:	00109700 	andseq	r9, r0, r0, lsl #14
    1394:	05040200 	streq	r0, [r4, #-512]	; 0xfffffe00
    1398:	00746e69 	rsbseq	r6, r4, r9, ror #28
    139c:	7a070403 	bvc	1c23b0 <__bss_end__+0x1b85a0>
    13a0:	03000001 	movweq	r0, #1
    13a4:	006d0601 	rsbeq	r0, sp, r1, lsl #12
    13a8:	02030000 	andeq	r0, r3, #0, 0
    13ac:	0001b805 	andeq	fp, r1, r5, lsl #16
    13b0:	05040300 	streq	r0, [r4, #-768]	; 0xfffffd00
    13b4:	000001a3 	andeq	r0, r0, r3, lsr #3
    13b8:	9e050803 	cdpls	8, 0, cr0, cr5, cr3, {0}
    13bc:	03000001 	movweq	r0, #1
    13c0:	006b0801 	rsbeq	r0, fp, r1, lsl #16
    13c4:	02030000 	andeq	r0, r3, #0, 0
    13c8:	00008607 	andeq	r8, r0, r7, lsl #12
    13cc:	07040300 	streq	r0, [r4, -r0, lsl #6]
    13d0:	00000175 	andeq	r0, r0, r5, ror r1
    13d4:	70070803 	andvc	r0, r7, r3, lsl #16
    13d8:	04000001 	streq	r0, [r0], #-1
    13dc:	00000025 	andeq	r0, r0, r5, lsr #32
    13e0:	0000007a 	andeq	r0, r0, sl, ror r0
    13e4:	00002505 	andeq	r2, r0, r5, lsl #10
    13e8:	ac060000 	stcge	0, cr0, [r6], {-0}
    13ec:	02000001 	andeq	r0, r0, #1, 0
    13f0:	00860e1c 	addeq	r0, r6, ip, lsl lr
    13f4:	04070000 	streq	r0, [r7], #-0
    13f8:	0000006b 	andeq	r0, r0, fp, rrx
    13fc:	00002504 	andeq	r2, r0, r4, lsl #10
    1400:	00009b00 	andeq	r9, r0, r0, lsl #22
    1404:	009b0500 	addseq	r0, fp, r0, lsl #10
    1408:	07000000 	streq	r0, [r0, -r0]
    140c:	0000a804 	andeq	sl, r0, r4, lsl #16
    1410:	08010300 	stmdaeq	r1, {r8, r9}
    1414:	00000074 	andeq	r0, r0, r4, ror r0
    1418:	0000a108 	andeq	sl, r0, r8, lsl #2
    141c:	07840600 	streq	r0, [r4, r0, lsl #12]
    1420:	21020000 	mrscs	r0, (UNDEF: 2)
    1424:	0000b90e 	andeq	fp, r0, lr, lsl #18
    1428:	8c040700 	stchi	7, cr0, [r4], {-0}
    142c:	09000000 	stmdbeq	r0, {}	; <UNPREDICTABLE>
    1430:	000000ad 	andeq	r0, r0, sp, lsr #1
    1434:	05070c01 	streq	r0, [r7, #-3073]	; 0xfffff3ff
    1438:	009a0403 	addseq	r0, sl, r3, lsl #8
    143c:	077b0a00 	ldrbeq	r0, [fp, -r0, lsl #20]!
    1440:	04010000 	streq	r0, [r1], #-0
    1444:	00002505 	andeq	r2, r0, r5, lsl #10
    1448:	0083e000 	addeq	lr, r3, r0
    144c:	00003400 	andeq	r3, r0, r0, lsl #8
    1450:	0b9c0100 	bleq	fe701858 <__bss_end__+0xfe6f7a48>
    1454:	04010070 	streq	r0, [r1], #-112	; 0xffffff90
    1458:	00009b1f 	andeq	r9, r0, pc, lsl fp
    145c:	00082b00 	andeq	r2, r8, r0, lsl #22
    1460:	00082700 	andeq	r2, r8, r0, lsl #14
    1464:	d7000000 	strle	r0, [r0, -r0]
    1468:	0400000a 	streq	r0, [r0], #-10
    146c:	00078300 	andeq	r8, r7, r0, lsl #6
    1470:	2d010400 	cfstrscs	mvf0, [r1, #-0]
    1474:	0c000006 	stceq	0, cr0, [r0], {6}
    1478:	000007a8 	andeq	r0, r0, r8, lsr #15
    147c:	00000715 	andeq	r0, r0, r5, lsl r7
    1480:	00008414 	andeq	r8, r0, r4, lsl r4
    1484:	00000740 	andeq	r0, r0, r0, asr #14
    1488:	00001165 	andeq	r1, r0, r5, ror #2
    148c:	69050402 	stmdbvs	r5, {r1, sl}
    1490:	0300746e 	movweq	r7, #1134	; 0x46e
    1494:	017a0704 	cmneq	sl, r4, lsl #14
    1498:	01030000 	mrseq	r0, (UNDEF: 3)
    149c:	00006d06 	andeq	r6, r0, r6, lsl #26
    14a0:	05020300 	streq	r0, [r2, #-768]	; 0xfffffd00
    14a4:	000001b8 			; <UNDEFINED> instruction: 0x000001b8
    14a8:	a3050403 	movwge	r0, #21507	; 0x5403
    14ac:	03000001 	movweq	r0, #1
    14b0:	019e0508 	orrseq	r0, lr, r8, lsl #10
    14b4:	01030000 	mrseq	r0, (UNDEF: 3)
    14b8:	00006b08 	andeq	r6, r0, r8, lsl #22
    14bc:	07020300 	streq	r0, [r2, -r0, lsl #6]
    14c0:	00000086 	andeq	r0, r0, r6, lsl #1
    14c4:	0001c204 	andeq	ip, r1, r4, lsl #4
    14c8:	19340200 	ldmdbne	r4!, {r9}
    14cc:	00000069 	andeq	r0, r0, r9, rrx
    14d0:	75070403 	strvc	r0, [r7, #-1027]	; 0xfffffbfd
    14d4:	04000001 	streq	r0, [r0], #-1
    14d8:	0000079f 	muleq	r0, pc, r7	; <UNPREDICTABLE>
    14dc:	7c193702 	ldcvc	7, cr3, [r9], {2}
    14e0:	03000000 	movweq	r0, #0
    14e4:	01700708 	cmneq	r0, r8, lsl #14
    14e8:	25050000 	strcs	r0, [r5, #-0]
    14ec:	92000000 	andls	r0, r0, #0, 0
    14f0:	06000000 	streq	r0, [r0], -r0
    14f4:	00000025 	andeq	r0, r0, r5, lsr #32
    14f8:	01ac0700 			; <UNDEFINED> instruction: 0x01ac0700
    14fc:	1c030000 	stcne	0, cr0, [r3], {-0}
    1500:	00009e0e 	andeq	r9, r0, lr, lsl #28
    1504:	83040800 	movwhi	r0, #18432	; 0x4800
    1508:	05000000 	streq	r0, [r0, #-0]
    150c:	00000025 	andeq	r0, r0, r5, lsr #32
    1510:	000000b3 	strheq	r0, [r0], -r3
    1514:	0000b306 	andeq	fp, r0, r6, lsl #6
    1518:	04080000 	streq	r0, [r8], #-0
    151c:	000000c0 	andeq	r0, r0, r0, asr #1
    1520:	74080103 	strvc	r0, [r8], #-259	; 0xfffffefd
    1524:	09000000 	stmdbeq	r0, {}	; <UNPREDICTABLE>
    1528:	000000b9 	strheq	r0, [r0], -r9
    152c:	00078407 	andeq	r8, r7, r7, lsl #8
    1530:	0e210300 	cdpeq	3, 2, cr0, cr1, cr0, {0}
    1534:	000000d1 	ldrdeq	r0, [r0], -r1
    1538:	00a40408 	adceq	r0, r4, r8, lsl #8
    153c:	bb070000 	bllt	1c1544 <__bss_end__+0x1b7734>
    1540:	04000007 	streq	r0, [r0], #-7
    1544:	00b90d0b 	adcseq	r0, r9, fp, lsl #26
    1548:	39070000 	stmdbcc	r7, {}	; <UNPREDICTABLE>
    154c:	04000008 	streq	r0, [r0], #-8
    1550:	00b90d0c 	adcseq	r0, r9, ip, lsl #26
    1554:	ca070000 	bgt	1c155c <__bss_end__+0x1b774c>
    1558:	04000007 	streq	r0, [r0], #-7
    155c:	00b90d0d 	adcseq	r0, r9, sp, lsl #26
    1560:	f3070000 	vhadd.u8	d0, d7, d0
    1564:	04000007 	streq	r0, [r0], #-7
    1568:	00b90d0e 	adcseq	r0, r9, lr, lsl #26
    156c:	69070000 	stmdbvs	r7, {}	; <UNPREDICTABLE>
    1570:	04000008 	streq	r0, [r0], #-8
    1574:	00b90d0f 	adcseq	r0, r9, pc, lsl #26
    1578:	de070000 	cdple	0, 0, cr0, cr7, cr0, {0}
    157c:	04000007 	streq	r0, [r0], #-7
    1580:	00b90d10 	adcseq	r0, r9, r0, lsl sp
    1584:	78070000 	stmdavc	r7, {}	; <UNPREDICTABLE>
    1588:	04000008 	streq	r0, [r0], #-8
    158c:	00b90d11 	adcseq	r0, r9, r1, lsl sp
    1590:	ff070000 			; <UNDEFINED> instruction: 0xff070000
    1594:	04000007 	streq	r0, [r0], #-7
    1598:	00b90d12 	adcseq	r0, r9, r2, lsl sp
    159c:	06040000 	streq	r0, [r4], -r0
    15a0:	05000007 	streq	r0, [r0, #-7]
    15a4:	01431b28 	cmpeq	r3, r8, lsr #22
    15a8:	710a0000 	mrsvc	r0, (UNDEF: 10)
    15ac:	04000007 	streq	r0, [r0], #-7
    15b0:	015a0006 	cmpeq	sl, r6
    15b4:	5c0b0000 	stcpl	0, cr0, [fp], {-0}
    15b8:	5a000007 	bpl	15dc <__code_start__-0x6a24>
    15bc:	00000001 	andeq	r0, r0, r1
    15c0:	04040c00 	streq	r0, [r4], #-3072	; 0xfffff400
    15c4:	00000773 	andeq	r0, r0, r3, ror r7
    15c8:	37186305 	ldrcc	r6, [r8, -r5, lsl #6]
    15cc:	0d000001 	stceq	0, cr0, [r0, #-4]
    15d0:	000006fc 	strdeq	r0, [r0], -ip
    15d4:	25058101 	strcs	r8, [r5, #-257]	; 0xfffffeff
    15d8:	9c000000 	stcls	0, cr0, [r0], {-0}
    15dc:	b8000086 	stmdalt	r0, {r1, r2, r7}
    15e0:	01000004 	tsteq	r0, r4
    15e4:	0007179c 	muleq	r7, ip, r7
    15e8:	75620e00 	strbvc	r0, [r2, #-3584]!	; 0xfffff200
    15ec:	81010066 	tsthi	r1, r6, rrx
    15f0:	00071715 	andeq	r1, r7, r5, lsl r7
    15f4:	00084f00 	andeq	r4, r8, r0, lsl #30
    15f8:	00084900 	andeq	r4, r8, r0, lsl #18
    15fc:	006e0e00 	rsbeq	r0, lr, r0, lsl #28
    1600:	251e8101 	ldrcs	r8, [lr, #-257]	; 0xfffffeff
    1604:	81000000 	mrshi	r0, (UNDEF: 0)
    1608:	7b000008 	blvc	1630 <__code_start__-0x69d0>
    160c:	0e000008 	cdpeq	0, 0, cr0, cr0, cr8, {0}
    1610:	00746d66 	rsbseq	r6, r4, r6, ror #26
    1614:	b32d8101 			; <UNDEFINED> instruction: 0xb32d8101
    1618:	bb000000 	bllt	1620 <__code_start__-0x69e0>
    161c:	af000008 	svcge	0x00000008
    1620:	0f000008 	svceq	0x00000008
    1624:	000006f7 	strdeq	r0, [r0], -r7
    1628:	5c3a8101 	ldfpld	f0, [sl], #-4
    162c:	03000001 	movweq	r0, #1
    1630:	107dd491 			; <UNDEFINED> instruction: 0x107dd491
    1634:	82010070 	andhi	r0, r1, #112, 0	; 0x70
    1638:	00071708 	andeq	r1, r7, r8, lsl #14
    163c:	00091900 	andeq	r1, r9, r0, lsl #18
    1640:	00090500 	andeq	r0, r9, r0, lsl #10
    1644:	00651000 	rsbeq	r1, r5, r0
    1648:	17128201 	ldrne	r8, [r2, -r1, lsl #4]
    164c:	9b000007 	blls	1670 <__code_start__-0x6990>
    1650:	97000009 	strls	r0, [r0, -r9]
    1654:	10000009 	andne	r0, r0, r9
    1658:	01003078 	tsteq	r0, r8, ror r0
    165c:	005d0e83 	subseq	r0, sp, r3, lsl #29
    1660:	09c80000 	stmibeq	r8, {}^	; <UNPREDICTABLE>
    1664:	09c20000 	stmibeq	r2, {}^	; <UNPREDICTABLE>
    1668:	78100000 	ldmdavc	r0, {}	; <UNPREDICTABLE>
    166c:	83010031 	movwhi	r0, #4145	; 0x1031
    1670:	00005d11 	andeq	r5, r0, r1, lsl sp
    1674:	0009f500 	andeq	pc, r9, r0, lsl #10
    1678:	0009f100 	andeq	pc, r9, r0, lsl #2
    167c:	081d1100 	ldmdaeq	sp, {r8, ip}
    1680:	86010000 	strhi	r0, [r1], -r0
    1684:	0000b311 	andeq	fp, r0, r1, lsl r3
    1688:	000a1700 	andeq	r1, sl, r0, lsl #14
    168c:	000a1300 	andeq	r1, sl, r0, lsl #6
    1690:	03441200 	movteq	r1, #16896	; 0x4200
    1694:	072d0000 	streq	r0, [sp, -r0]!
    1698:	03050000 	movweq	r0, #20480	; 0x5000
    169c:	000093e4 	andeq	r9, r0, r4, ror #7
    16a0:	00870413 	addeq	r0, r7, r3, lsl r4
    16a4:	00040000 	andeq	r0, r4, r0
    16a8:	00731000 	rsbseq	r1, r3, r0
    16ac:	170a9101 	strne	r9, [sl, -r1, lsl #2]
    16b0:	4d000007 	stcmi	0, cr0, [r0, #-28]	; 0xffffffe4
    16b4:	3700000a 	strcc	r0, [r0, -sl]
    16b8:	1400000a 	strne	r0, [r0], #-10
    16bc:	006d756e 	rsbeq	r7, sp, lr, ror #10
    16c0:	320d9101 	andcc	r9, sp, #1073741824	; 0x40000000
    16c4:	03000007 	movweq	r0, #7
    16c8:	157dd891 	ldrbne	sp, [sp, #-2193]!	; 0xfffff76f
    16cc:	00000834 	andeq	r0, r0, r4, lsr r8
    16d0:	32179101 	andscc	r9, r7, #1073741824	; 0x40000000
    16d4:	03000007 	movweq	r0, #7
    16d8:	117ed891 			; <UNDEFINED> instruction: 0x117ed891
    16dc:	000007d8 	ldrdeq	r0, [r0], -r8
    16e0:	2c0d9201 	sfmcs	f1, 1, [sp], {1}
    16e4:	d4000000 	strle	r0, [r0], #-0
    16e8:	ce00000a 	cdpgt	0, 0, cr0, cr0, cr10, {0}
    16ec:	1600000a 	strne	r0, [r0], -sl
    16f0:	000087cc 	andeq	r8, r0, ip, asr #15
    16f4:	000001a4 	andeq	r0, r0, r4, lsr #3
    16f8:	00000539 	andeq	r0, r0, r9, lsr r5
    16fc:	00797410 	rsbseq	r7, r9, r0, lsl r4
    1700:	b31d9e01 	tstlt	sp, #1, 28
    1704:	08000000 	stmdaeq	r0, {}	; <UNPREDICTABLE>
    1708:	fe00000b 	cdp2	0, 0, cr0, cr0, cr11, {0}
    170c:	1700000a 	strne	r0, [r0, -sl]
    1710:	01007878 	tsteq	r0, r8, ror r8
    1714:	00701aa2 	rsbseq	r1, r0, r2, lsr #21
    1718:	dc180000 	ldcle	0, cr0, [r8], {-0}
    171c:	92000087 	andls	r0, r0, #135, 0	; 0x87
    1720:	d500000a 	strle	r0, [r0, #-10]
    1724:	19000002 	stmdbne	r0, {r1}
    1728:	76025001 	strvc	r5, [r2], -r1
    172c:	51011900 	tstpl	r1, r0, lsl #18
    1730:	92d80305 	sbcsls	r0, r8, #335544320	; 0x14000000
    1734:	01190000 	tsteq	r9, r0
    1738:	00330152 	eorseq	r0, r3, r2, asr r1
    173c:	0087f418 	addeq	pc, r7, r8, lsl r4	; <UNPREDICTABLE>
    1740:	000a9200 	andeq	r9, sl, r0, lsl #4
    1744:	0002f700 	andeq	pc, r2, r0, lsl #14
    1748:	50011900 	andpl	r1, r1, r0, lsl #18
    174c:	19007602 	stmdbne	r0, {r1, r9, sl, ip, sp, lr}
    1750:	03055101 	movweq	r5, #20737	; 0x5101
    1754:	000092dc 	ldrdeq	r9, [r0], -ip
    1758:	01520119 	cmpeq	r2, r9, lsl r1
    175c:	28180033 	ldmdacs	r8, {r0, r1, r4, r5}
    1760:	9e000088 	cdpls	0, 0, cr0, cr0, cr8, {4}
    1764:	1400000a 	strne	r0, [r0], #-10
    1768:	19000003 	stmdbne	r0, {r0, r1}
    176c:	03055001 	movweq	r5, #20481	; 0x5001
    1770:	000092e0 	andeq	r9, r0, r0, ror #5
    1774:	02510119 	subseq	r0, r1, #1073741830	; 0x40000006
    1778:	18000077 	stmdane	r0, {r0, r1, r2, r4, r5, r6}
    177c:	00008834 	andeq	r8, r0, r4, lsr r8
    1780:	00000a9e 	muleq	r0, lr, sl
    1784:	00000331 	andeq	r0, r0, r1, lsr r3
    1788:	05500119 	ldrbeq	r0, [r0, #-281]	; 0xfffffee7
    178c:	0092e803 	addseq	lr, r2, r3, lsl #16
    1790:	51011900 	tstpl	r1, r0, lsl #18
    1794:	00007a02 	andeq	r7, r0, r2, lsl #20
    1798:	00884418 	addeq	r4, r8, r8, lsl r4
    179c:	000a9200 	andeq	r9, sl, r0, lsl #4
    17a0:	00035300 	andeq	r5, r3, r0, lsl #6
    17a4:	50011900 	andpl	r1, r1, r0, lsl #18
    17a8:	19007602 	stmdbne	r0, {r1, r9, sl, ip, sp, lr}
    17ac:	03055101 	movweq	r5, #20737	; 0x5101
    17b0:	000092d8 	ldrdeq	r9, [r0], -r8
    17b4:	01520119 	cmpeq	r2, r9, lsl r1
    17b8:	5c180033 	ldcpl	0, cr0, [r8], {51}	; 0x33
    17bc:	92000088 	andls	r0, r0, #136, 0	; 0x88
    17c0:	7500000a 	strvc	r0, [r0, #-10]
    17c4:	19000003 	stmdbne	r0, {r0, r1}
    17c8:	76025001 	strvc	r5, [r2], -r1
    17cc:	51011900 	tstpl	r1, r0, lsl #18
    17d0:	92dc0305 	sbcsls	r0, ip, #335544320	; 0x14000000
    17d4:	01190000 	tsteq	r9, r0
    17d8:	00330152 	eorseq	r0, r3, r2, asr r1
    17dc:	00888418 	addeq	r8, r8, r8, lsl r4
    17e0:	00074200 	andeq	r4, r7, r0, lsl #4
    17e4:	0003a900 	andeq	sl, r3, r0, lsl #18
    17e8:	50011900 	andpl	r1, r1, r0, lsl #18
    17ec:	01193a01 	tsteq	r9, r1, lsl #20
    17f0:	d0910351 	addsle	r0, r1, r1, asr r3
    17f4:	5201197d 	andpl	r1, r1, #2048000	; 0x1f4000
    17f8:	19800802 	stmibne	r0, {r1, fp}
    17fc:	77025301 	strvc	r5, [r2, -r1, lsl #6]
    1800:	7d021900 	vstrvc.16	s2, [r2, #-0]	; <UNPREDICTABLE>
    1804:	00750200 	rsbseq	r0, r5, r0, lsl #4
    1808:	047d0219 	ldrbteq	r0, [sp], #-537	; 0xfffffde7
    180c:	00007602 	andeq	r7, r0, r2, lsl #12
    1810:	0088a418 	addeq	sl, r8, r8, lsl r4
    1814:	00074200 	andeq	r4, r7, r0, lsl #4
    1818:	0003dd00 	andeq	sp, r3, r0, lsl #26
    181c:	50011900 	andpl	r1, r1, r0, lsl #18
    1820:	01193a01 	tsteq	r9, r1, lsl #20
    1824:	d0910351 	addsle	r0, r1, r1, asr r3
    1828:	5201197e 	andpl	r1, r1, #2064384	; 0x1f8000
    182c:	19800802 	stmibne	r0, {r1, fp}
    1830:	7a025301 	bvc	9643c <__bss_end__+0x8c62c>
    1834:	7d021900 	vstrvc.16	s2, [r2, #-0]	; <UNPREDICTABLE>
    1838:	00750200 	rsbseq	r0, r5, r0, lsl #4
    183c:	047d0219 	ldrbteq	r0, [sp], #-537	; 0xfffffde7
    1840:	00007602 	andeq	r7, r0, r2, lsl #12
    1844:	0088b018 	addeq	fp, r8, r8, lsl r0
    1848:	000aaa00 	andeq	sl, sl, r0, lsl #20
    184c:	0003fb00 	andeq	pc, r3, r0, lsl #22
    1850:	50011900 	andpl	r1, r1, r0, lsl #18
    1854:	7dd09103 	ldfvcp	f1, [r0, #12]
    1858:	05510119 	ldrbeq	r0, [r1, #-281]	; 0xfffffee7
    185c:	00929c03 	addseq	r9, r2, r3, lsl #24
    1860:	c4180000 	ldrgt	r0, [r8], #-0
    1864:	b6000088 	strlt	r0, [r0], -r8, lsl #1
    1868:	1700000a 	strne	r0, [r0, -sl]
    186c:	19000004 	stmdbne	r0, {r2}
    1870:	91035001 	tstls	r3, r1
    1874:	01197dd0 			; <UNDEFINED> instruction: 0x01197dd0
    1878:	d0910351 	addsle	r0, r1, r1, asr r3
    187c:	e818007e 	ldmda	r8, {r1, r2, r3, r4, r5, r6}
    1880:	9e000088 	cdpls	0, 0, cr0, cr0, cr8, {4}
    1884:	5000000a 	andpl	r0, r0, sl
    1888:	19000004 	stmdbne	r0, {r2}
    188c:	03055001 	movweq	r5, #20481	; 0x5001
    1890:	0000914c 	andeq	r9, r0, ip, asr #2
    1894:	05510119 	ldrbeq	r0, [r1, #-281]	; 0xfffffee7
    1898:	00928803 	addseq	r8, r2, r3, lsl #16
    189c:	52011900 	andpl	r1, r1, #0, 18
    18a0:	93e40305 	mvnls	r0, #335544320	; 0x14000000
    18a4:	01190000 	tsteq	r9, r0
    18a8:	9f080253 	svcls	0x00080253
    18ac:	007d0219 	rsbseq	r0, sp, r9, lsl r2
    18b0:	92f00305 	rscsls	r0, r0, #335544320	; 0x14000000
    18b4:	1a000000 	bne	18bc <__code_start__-0x6744>
    18b8:	000088ec 	andeq	r8, r0, ip, ror #17
    18bc:	00000ac2 	andeq	r0, r0, r2, asr #21
    18c0:	00890c18 	addeq	r0, r9, r8, lsl ip
    18c4:	00074200 	andeq	r4, r7, r0, lsl #4
    18c8:	00048d00 	andeq	r8, r4, r0, lsl #26
    18cc:	50011900 	andpl	r1, r1, r0, lsl #18
    18d0:	01194001 	tsteq	r9, r1
    18d4:	d0910351 	addsle	r0, r1, r1, asr r3
    18d8:	5201197d 	andpl	r1, r1, #2048000	; 0x1f4000
    18dc:	19800802 	stmibne	r0, {r1, fp}
    18e0:	77025301 	strvc	r5, [r2, -r1, lsl #6]
    18e4:	7d021900 	vstrvc.16	s2, [r2, #-0]	; <UNPREDICTABLE>
    18e8:	00750200 	rsbseq	r0, r5, r0, lsl #4
    18ec:	047d0219 	ldrbteq	r0, [sp], #-537	; 0xfffffde7
    18f0:	00007602 	andeq	r7, r0, r2, lsl #12
    18f4:	00892c18 	addeq	r2, r9, r8, lsl ip
    18f8:	00074200 	andeq	r4, r7, r0, lsl #4
    18fc:	0004c100 	andeq	ip, r4, r0, lsl #2
    1900:	50011900 	andpl	r1, r1, r0, lsl #18
    1904:	01194001 	tsteq	r9, r1
    1908:	d0910351 	addsle	r0, r1, r1, asr r3
    190c:	5201197e 	andpl	r1, r1, #2064384	; 0x1f8000
    1910:	19800802 	stmibne	r0, {r1, fp}
    1914:	7a025301 	bvc	96520 <__bss_end__+0x8c710>
    1918:	7d021900 	vstrvc.16	s2, [r2, #-0]	; <UNPREDICTABLE>
    191c:	00750200 	rsbseq	r0, r5, r0, lsl #4
    1920:	047d0219 	ldrbteq	r0, [sp], #-537	; 0xfffffde7
    1924:	00007602 	andeq	r7, r0, r2, lsl #12
    1928:	00893818 	addeq	r3, r9, r8, lsl r8
    192c:	000ace00 	andeq	ip, sl, r0, lsl #28
    1930:	0004dd00 	andeq	sp, r4, r0, lsl #26
    1934:	50011900 	andpl	r1, r1, r0, lsl #18
    1938:	7dd09103 	ldfvcp	f1, [r0, #12]
    193c:	03510119 	cmpeq	r1, #1073741830	; 0x40000006
    1940:	007ed291 			; <UNDEFINED> instruction: 0x007ed291
    1944:	00894c18 	addeq	r4, r9, r8, lsl ip
    1948:	000ace00 	andeq	ip, sl, r0, lsl #28
    194c:	0004f900 	andeq	pc, r4, r0, lsl #18
    1950:	50011900 	andpl	r1, r1, r0, lsl #18
    1954:	7dd09103 	ldfvcp	f1, [r0, #12]
    1958:	03510119 	cmpeq	r1, #1073741830	; 0x40000006
    195c:	007ed091 			; <UNDEFINED> instruction: 0x007ed091
    1960:	00896c18 	addeq	r6, r9, r8, lsl ip
    1964:	000a9e00 	andeq	r9, sl, r0, lsl #28
    1968:	00052f00 	andeq	r2, r5, r0, lsl #30
    196c:	50011900 	andpl	r1, r1, r0, lsl #18
    1970:	932c0305 			; <UNDEFINED> instruction: 0x932c0305
    1974:	01190000 	tsteq	r9, r0
    1978:	88030551 	stmdahi	r3, {r0, r4, r6, r8, sl}
    197c:	19000092 	stmdbne	r0, {r1, r4, r7}
    1980:	03055201 	movweq	r5, #20993	; 0x5201
    1984:	000093e4 	andeq	r9, r0, r4, ror #7
    1988:	02530119 	subseq	r0, r3, #1073741830	; 0x40000006
    198c:	0219b608 	andseq	fp, r9, #8, 12	; 0x800000
    1990:	7602007d 			; <UNDEFINED> instruction: 0x7602007d
    1994:	701a0000 	andsvc	r0, sl, r0
    1998:	c2000089 	andgt	r0, r0, #137, 0	; 0x89
    199c:	0000000a 	andeq	r0, r0, sl
    19a0:	00871c18 	addeq	r1, r7, r8, lsl ip
    19a4:	0009c000 	andeq	ip, r9, r0
    19a8:	00054d00 	andeq	r4, r5, r0, lsl #26
    19ac:	50011900 	andpl	r1, r1, r0, lsl #18
    19b0:	00007702 	andeq	r7, r0, r2, lsl #14
    19b4:	0087c818 	addeq	ip, r7, r8, lsl r8
    19b8:	000a9e00 	andeq	r9, sl, r0, lsl #28
    19bc:	00058600 	andeq	r8, r5, r0, lsl #12
    19c0:	50011900 	andpl	r1, r1, r0, lsl #18
    19c4:	914c0305 	cmpls	ip, r5, lsl #6
    19c8:	01190000 	tsteq	r9, r0
    19cc:	88030551 	stmdahi	r3, {r0, r4, r6, r8, sl}
    19d0:	19000092 	stmdbne	r0, {r1, r4, r7}
    19d4:	03055201 	movweq	r5, #20993	; 0x5201
    19d8:	000093e4 	andeq	r9, r0, r4, ror #7
    19dc:	02530119 	subseq	r0, r3, #1073741830	; 0x40000006
    19e0:	02199808 	andseq	r9, r9, #8, 16	; 0x80000
    19e4:	0305007d 	movweq	r0, #20605	; 0x507d
    19e8:	000092cc 	andeq	r9, r0, ip, asr #5
    19ec:	87cc1a00 	strbhi	r1, [ip, r0, lsl #20]
    19f0:	0ac20000 	beq	ff0819f8 <__bss_end__+0xff077be8>
    19f4:	84180000 	ldrhi	r0, [r8], #-0
    19f8:	9e000089 	cdpls	0, 0, cr0, cr0, cr9, {4}
    19fc:	be00000a 	cdplt	0, 0, cr0, cr0, cr10, {0}
    1a00:	19000005 	stmdbne	r0, {r0, r2}
    1a04:	03055001 	movweq	r5, #20481	; 0x5001
    1a08:	00009354 	andeq	r9, r0, r4, asr r3
    1a0c:	05510119 	ldrbeq	r0, [r1, #-281]	; 0xfffffee7
    1a10:	00928803 	addseq	r8, r2, r3, lsl #16
    1a14:	52011900 	andpl	r1, r1, #0, 18
    1a18:	93e40305 	mvnls	r0, #335544320	; 0x14000000
    1a1c:	01190000 	tsteq	r9, r0
    1a20:	be080253 	mcrlt	2, 0, r0, cr8, cr3, {2}
    1a24:	89881a00 	stmibhi	r8, {r9, fp, ip}
    1a28:	0ac20000 	beq	ff081a30 <__bss_end__+0xff077c20>
    1a2c:	b4180000 	ldrlt	r0, [r8], #-0
    1a30:	42000089 	andmi	r0, r0, #137, 0	; 0x89
    1a34:	f4000007 	vst4.8	{d0-d3}, [r0], r7
    1a38:	19000005 	stmdbne	r0, {r0, r2}
    1a3c:	3a015001 	bcc	55a48 <__bss_end__+0x4bc38>
    1a40:	03510119 	cmpeq	r1, #1073741830	; 0x40000006
    1a44:	197dd091 	ldmdbne	sp!, {r0, r4, r7, ip, lr, pc}^
    1a48:	08025201 	stmdaeq	r2, {r0, r9, ip, lr}
    1a4c:	7d021980 	vstrvc.16	s2, [r2, #-256]	; 0xffffff00	; <UNPREDICTABLE>
    1a50:	00750200 	rsbseq	r0, r5, r0, lsl #4
    1a54:	047d0219 	ldrbteq	r0, [sp], #-537	; 0xfffffde7
    1a58:	18003101 	stmdane	r0, {r0, r8, ip, sp}
    1a5c:	000089ec 	andeq	r8, r0, ip, ror #19
    1a60:	00000742 	andeq	r0, r0, r2, asr #14
    1a64:	00000621 	andeq	r0, r0, r1, lsr #12
    1a68:	01500119 	cmpeq	r0, r9, lsl r1
    1a6c:	5101193a 	tstpl	r1, sl, lsr r9
    1a70:	7dd09103 	ldfvcp	f1, [r0, #12]
    1a74:	02520119 	subseq	r0, r2, #1073741830	; 0x40000006
    1a78:	02198008 	andseq	r8, r9, #8, 0
    1a7c:	7502007d 	strvc	r0, [r2, #-125]	; 0xffffff83
    1a80:	7d021900 	vstrvc.16	s2, [r2, #-0]	; <UNPREDICTABLE>
    1a84:	00300104 	eorseq	r0, r0, r4, lsl #2
    1a88:	008a2018 	addeq	r2, sl, r8, lsl r0
    1a8c:	00074200 	andeq	r4, r7, r0, lsl #4
    1a90:	00064e00 	andeq	r4, r6, r0, lsl #28
    1a94:	50011900 	andpl	r1, r1, r0, lsl #18
    1a98:	01194001 	tsteq	r9, r1
    1a9c:	d0910351 	addsle	r0, r1, r1, asr r3
    1aa0:	5201197d 	andpl	r1, r1, #2048000	; 0x1f4000
    1aa4:	19800802 	stmibne	r0, {r1, fp}
    1aa8:	02007d02 	andeq	r7, r0, #128	; 0x80
    1aac:	02190075 	andseq	r0, r9, #117, 0	; 0x75
    1ab0:	3001047d 	andcc	r0, r1, sp, ror r4
    1ab4:	8a541800 	bhi	1507abc <__bss_end__+0x14fdcac>
    1ab8:	07420000 	strbeq	r0, [r2, -r0]
    1abc:	067b0000 	ldrbteq	r0, [fp], -r0
    1ac0:	01190000 	tsteq	r9, r0
    1ac4:	19320150 	ldmdbne	r2!, {r4, r6, r8}
    1ac8:	91035101 	tstls	r3, r1, lsl #2
    1acc:	01197dd0 			; <UNDEFINED> instruction: 0x01197dd0
    1ad0:	80080252 	andhi	r0, r8, r2, asr r2
    1ad4:	007d0219 	rsbseq	r0, sp, r9, lsl r2
    1ad8:	19007502 	stmdbne	r0, {r1, r8, sl, ip, sp, lr}
    1adc:	01047d02 	tsteq	r4, r2, lsl #26
    1ae0:	9c180030 	ldcls	0, cr0, [r8], {48}	; 0x30
    1ae4:	4200008a 	andmi	r0, r0, #138, 0	; 0x8a
    1ae8:	a8000007 	stmdage	r0, {r0, r1, r2}
    1aec:	19000006 	stmdbne	r0, {r1, r2}
    1af0:	38015001 	stmdacc	r1, {r0, ip, lr}
    1af4:	03510119 	cmpeq	r1, #1073741830	; 0x40000006
    1af8:	197dd091 	ldmdbne	sp!, {r0, r4, r7, ip, lr, pc}^
    1afc:	08025201 	stmdaeq	r2, {r0, r9, ip, lr}
    1b00:	7d021980 	vstrvc.16	s2, [r2, #-256]	; 0xffffff00	; <UNPREDICTABLE>
    1b04:	00750200 	rsbseq	r0, r5, r0, lsl #4
    1b08:	047d0219 	ldrbteq	r0, [sp], #-537	; 0xfffffde7
    1b0c:	18003001 	stmdane	r0, {r0, ip, sp}
    1b10:	00008abc 			; <UNDEFINED> instruction: 0x00008abc
    1b14:	00000a9e 	muleq	r0, lr, sl
    1b18:	000006cb 	andeq	r0, r0, fp, asr #13
    1b1c:	05500119 	ldrbeq	r0, [r0, #-281]	; 0xfffffee7
    1b20:	00937c03 	addseq	r7, r3, r3, lsl #24
    1b24:	51011900 	tstpl	r1, r0, lsl #18
    1b28:	19007a02 	stmdbne	r0, {r1, r9, fp, ip, sp, lr}
    1b2c:	7a025201 	bvc	96338 <__bss_end__+0x8c528>
    1b30:	cc1b0000 	ldcgt	0, cr0, [fp], {-0}
    1b34:	dd00008a 	stcle	0, cr0, [r0, #-552]	; 0xfffffdd8
    1b38:	19000006 	stmdbne	r0, {r1, r2}
    1b3c:	91045001 	tstls	r4, r1
    1b40:	00067dc8 	andeq	r7, r6, r8, asr #27
    1b44:	008ae018 	addeq	lr, sl, r8, lsl r0
    1b48:	000a9e00 	andeq	r9, sl, r0, lsl #28
    1b4c:	00070c00 	andeq	r0, r7, r0, lsl #24
    1b50:	50011900 	andpl	r1, r1, r0, lsl #18
    1b54:	93ac0305 			; <UNDEFINED> instruction: 0x93ac0305
    1b58:	01190000 	tsteq	r9, r0
    1b5c:	88030551 	stmdahi	r3, {r0, r4, r6, r8, sl}
    1b60:	19000092 	stmdbne	r0, {r1, r4, r7}
    1b64:	03055201 	movweq	r5, #20993	; 0x5201
    1b68:	000093e4 	andeq	r9, r0, r4, ror #7
    1b6c:	02530119 	subseq	r0, r3, #1073741830	; 0x40000006
    1b70:	1a00e208 	bne	3a398 <__bss_end__+0x30588>
    1b74:	00008ae4 	andeq	r8, r0, r4, ror #21
    1b78:	00000ac2 	andeq	r0, r0, r2, asr #21
    1b7c:	04080000 	streq	r0, [r8], #-0
    1b80:	000000b9 	strheq	r0, [r0], -r9
    1b84:	0000c01c 	andeq	ip, r0, ip, lsl r0
    1b88:	00072d00 	andeq	r2, r7, r0, lsl #26
    1b8c:	002c1d00 	eoreq	r1, ip, r0, lsl #26
    1b90:	00090000 	andeq	r0, r9, r0
    1b94:	00071d09 	andeq	r1, r7, r9, lsl #26
    1b98:	00b91c00 	adcseq	r1, r9, r0, lsl #24
    1b9c:	07420000 	strbeq	r0, [r2, -r0]
    1ba0:	2c1d0000 	ldccs	0, cr0, [sp], {-0}
    1ba4:	7f000000 	svcvc	0x00000000
    1ba8:	08461e00 	stmdaeq	r6, {r9, sl, fp, ip}^
    1bac:	49010000 	stmdbmi	r1, {}	; <UNPREDICTABLE>
    1bb0:	00071701 	andeq	r1, r7, r1, lsl #14
    1bb4:	00848400 	addeq	r8, r4, r0, lsl #8
    1bb8:	0001b400 	andeq	fp, r1, r0, lsl #8
    1bbc:	ab9c0100 	blge	fe701fc4 <__bss_end__+0xfe6f81b4>
    1bc0:	1f000008 	svcne	0x00000008
    1bc4:	0000088d 	andeq	r0, r0, sp, lsl #17
    1bc8:	2c0f4901 			; <UNDEFINED> instruction: 0x2c0f4901
    1bcc:	51000000 	mrspl	r0, (UNDEF: 0)
    1bd0:	4b00000b 	blmi	1c04 <__code_start__-0x63fc>
    1bd4:	0e00000b 	cdpeq	0, 0, cr0, cr0, cr11, {0}
    1bd8:	00747364 	rsbseq	r7, r4, r4, ror #6
    1bdc:	171b4901 	ldrne	r4, [fp, -r1, lsl #18]
    1be0:	8f000007 	svchi	0x00000007
    1be4:	7f00000b 	svcvc	0x0000000b
    1be8:	0e00000b 	cdpeq	0, 0, cr0, cr0, cr11, {0}
    1bec:	4901006e 	stmdbmi	r1, {r1, r2, r3, r5, r6}
    1bf0:	00002524 	andeq	r2, r0, r4, lsr #10
    1bf4:	000bf300 	andeq	pc, fp, r0, lsl #6
    1bf8:	000bef00 	andeq	lr, fp, r0, lsl #30
    1bfc:	61760e00 	cmnvs	r6, r0, lsl #28
    1c00:	4901006c 	stmdbmi	r1, {r2, r3, r5, r6}
    1c04:	0000252b 	andeq	r2, r0, fp, lsr #10
    1c08:	000c1d00 	andeq	r1, ip, r0, lsl #26
    1c0c:	000c1100 	andeq	r1, ip, r0, lsl #2
    1c10:	07d81f00 	ldrbeq	r1, [r8, r0, lsl #30]
    1c14:	49010000 	stmdbmi	r1, {}	; <UNPREDICTABLE>
    1c18:	00002534 	andeq	r2, r0, r4, lsr r5
    1c1c:	000c7300 	andeq	r7, ip, r0, lsl #6
    1c20:	000c6d00 	andeq	r6, ip, r0, lsl #26
    1c24:	08920f00 	ldmeq	r2, {r8, r9, sl, fp}
    1c28:	49010000 	stmdbmi	r1, {}	; <UNPREDICTABLE>
    1c2c:	0000253f 	andeq	r2, r0, pc, lsr r5
    1c30:	04910200 	ldreq	r0, [r1], #512	; 0x200
    1c34:	66756214 			; <UNDEFINED> instruction: 0x66756214
    1c38:	074e0100 	strbeq	r0, [lr, -r0, lsl #2]
    1c3c:	000008ab 	andeq	r0, r0, fp, lsr #17
    1c40:	7fa89103 	svcvc	0x00a89103
    1c44:	01007010 	tsteq	r0, r0, lsl r0
    1c48:	0717114e 	ldreq	r1, [r7, -lr, asr #2]
    1c4c:	0cbd0000 	ldceq	0, cr0, [sp]
    1c50:	0c9d0000 	ldceq	0, cr0, [sp], {0}
    1c54:	75100000 	ldrvc	r0, [r0, #-0]
    1c58:	0b4f0100 	bleq	13c2060 <__bss_end__+0x13b8250>
    1c5c:	0000002c 	andeq	r0, r0, ip, lsr #32
    1c60:	00000da3 	andeq	r0, r0, r3, lsr #27
    1c64:	00000d8f 	andeq	r0, r0, pc, lsl #27
    1c68:	00034412 	andeq	r4, r3, r2, lsl r4
    1c6c:	0008cb00 	andeq	ip, r8, r0, lsl #22
    1c70:	cc030500 	cfstr32gt	mvfx0, [r3], {-0}
    1c74:	16000093 			; <UNDEFINED> instruction: 0x16000093
    1c78:	000084f0 	strdeq	r8, [r0], -r0
    1c7c:	00000078 	andeq	r0, r0, r8, ror r0
    1c80:	00000832 	andeq	r0, r0, r2, lsr r8
    1c84:	00082e11 	andeq	r2, r8, r1, lsl lr
    1c88:	0d540100 	ldfeqe	f0, [r4, #-0]
    1c8c:	0000002c 	andeq	r0, r0, ip, lsr #32
    1c90:	00000e24 	andeq	r0, r0, r4, lsr #28
    1c94:	00000e1c 	andeq	r0, r0, ip, lsl lr
    1c98:	85a81800 	strhi	r1, [r8, #2048]!	; 0x800
    1c9c:	095d0000 	ldmdbeq	sp, {}^	; <UNPREDICTABLE>
    1ca0:	08470000 	stmdaeq	r7, {}^	; <UNPREDICTABLE>
    1ca4:	01190000 	tsteq	r9, r0
    1ca8:	a0910351 	addsge	r0, r1, r1, asr r3
    1cac:	bc18007f 	ldclt	0, cr0, [r8], {127}	; 0x7f
    1cb0:	d0000085 	andle	r0, r0, r5, lsl #1
    1cb4:	68000008 	stmdavs	r0, {r3}
    1cb8:	19000008 	stmdbne	r0, {r3}
    1cbc:	75025001 	strvc	r5, [r2, #-1]
    1cc0:	51011900 	tstpl	r1, r0, lsl #18
    1cc4:	19007402 	stmdbne	r0, {r1, sl, ip, sp, lr}
    1cc8:	91035301 	tstls	r3, r1, lsl #6
    1ccc:	18007fa0 	stmdane	r0, {r5, r7, r8, r9, sl, fp, ip, sp, lr}
    1cd0:	00008614 	andeq	r8, r0, r4, lsl r6
    1cd4:	00000a9e 	muleq	r0, lr, sl
    1cd8:	000008a1 	andeq	r0, r0, r1, lsr #17
    1cdc:	05500119 	ldrbeq	r0, [r0, #-281]	; 0xfffffee7
    1ce0:	00914c03 	addseq	r4, r1, r3, lsl #24
    1ce4:	51011900 	tstpl	r1, r0, lsl #18
    1ce8:	92880305 	addls	r0, r8, #335544320	; 0x14000000
    1cec:	01190000 	tsteq	r9, r0
    1cf0:	cc030552 	cfstr32gt	mvfx0, [r3], {82}	; 0x52
    1cf4:	19000093 	stmdbne	r0, {r0, r1, r4, r7}
    1cf8:	08025301 	stmdaeq	r2, {r0, r8, r9, ip, lr}
    1cfc:	7d021979 	vstrvc.16	s2, [r2, #-242]	; 0xffffff0e	; <UNPREDICTABLE>
    1d00:	9c030500 	cfstr32ls	mvfx0, [r3], {-0}
    1d04:	00000092 	muleq	r0, r2, r0
    1d08:	0086181a 	addeq	r1, r6, sl, lsl r8
    1d0c:	000ac200 	andeq	ip, sl, r0, lsl #4
    1d10:	b91c0000 	ldmdblt	ip, {}	; <UNPREDICTABLE>
    1d14:	bb000000 	bllt	1d1c <__code_start__-0x62e4>
    1d18:	1d000008 	stcne	0, cr0, [r0, #-32]	; 0xffffffe0
    1d1c:	0000002c 	andeq	r0, r0, ip, lsr #32
    1d20:	c01c003f 	andsgt	r0, ip, pc, lsr r0
    1d24:	cb000000 	blgt	1d2c <__code_start__-0x62d4>
    1d28:	1d000008 	stcne	0, cr0, [r0, #-32]	; 0xffffffe0
    1d2c:	0000002c 	andeq	r0, r0, ip, lsr #32
    1d30:	bb090004 	bllt	241d48 <__bss_end__+0x237f38>
    1d34:	1e000008 	cdpne	0, 0, cr0, cr0, cr8, {0}
    1d38:	00000853 	andeq	r0, r0, r3, asr r8
    1d3c:	170e3801 	strne	r3, [lr, -r1, lsl #16]
    1d40:	4c000007 	stcmi	0, cr0, [r0], {7}
    1d44:	38000084 	stmdacc	r0, {r2, r7}
    1d48:	01000000 	mrseq	r0, (UNDEF: 0)
    1d4c:	00095d9c 	muleq	r9, ip, sp
    1d50:	73640e00 	cmnvc	r4, #0, 28
    1d54:	38010074 	stmdacc	r1, {r2, r4, r5, r6}
    1d58:	0007171c 	andeq	r1, r7, ip, lsl r7
    1d5c:	000e6500 	andeq	r6, lr, r0, lsl #10
    1d60:	000e5b00 	andeq	r5, lr, r0, lsl #22
    1d64:	006e0e00 	rsbeq	r0, lr, r0, lsl #28
    1d68:	25253801 	strcs	r3, [r5, #-2049]!	; 0xfffff7ff
    1d6c:	ac000000 	stcge	0, cr0, [r0], {-0}
    1d70:	a800000e 	stmdage	r0, {r1, r2, r3}
    1d74:	0e00000e 	cdpeq	0, 0, cr0, cr0, cr14, {0}
    1d78:	38010070 	stmdacc	r1, {r4, r5, r6}
    1d7c:	0007172e 	andeq	r1, r7, lr, lsr #14
    1d80:	000ed500 	andeq	sp, lr, r0, lsl #10
    1d84:	000ecd00 	andeq	ip, lr, r0, lsl #26
    1d88:	08211f00 	stmdaeq	r1!, {r8, r9, sl, fp, ip}
    1d8c:	38010000 	stmdacc	r1, {}	; <UNPREDICTABLE>
    1d90:	00071737 	andeq	r1, r7, r7, lsr r7
    1d94:	000f0f00 	andeq	r0, pc, r0, lsl #30
    1d98:	000f0b00 	andeq	r0, pc, r0, lsl #22
    1d9c:	656c1000 	strbvs	r1, [ip, #-0]!
    1da0:	3a01006e 	bcc	41f60 <__bss_end__+0x38150>
    1da4:	00002506 	andeq	r2, r0, r6, lsl #10
    1da8:	000f3500 	andeq	r3, pc, r0, lsl #10
    1dac:	000f2d00 	andeq	r2, pc, r0, lsl #26
    1db0:	00731000 	rsbseq	r1, r3, r0
    1db4:	17083e01 	strne	r3, [r8, -r1, lsl #28]
    1db8:	83000007 	movwhi	r0, #7
    1dbc:	8100000f 	tsthi	r0, pc
    1dc0:	0000000f 	andeq	r0, r0, pc
    1dc4:	64617020 	strbtvs	r7, [r1], #-32	; 0xffffffe0
    1dc8:	0e2e0100 	sufeqe	f0, f6, f0
    1dcc:	00000717 	andeq	r0, r0, r7, lsl r7
    1dd0:	00008428 	andeq	r8, r0, r8, lsr #8
    1dd4:	00000024 	andeq	r0, r0, r4, lsr #32
    1dd8:	09c09c01 	stmibeq	r0, {r0, sl, fp, ip, pc}^
    1ddc:	700e0000 	andvc	r0, lr, r0
    1de0:	182e0100 	stmdane	lr!, {r8}
    1de4:	00000717 	andeq	r0, r0, r7, lsl r7
    1de8:	00000f9c 	muleq	r0, ip, pc	; <UNPREDICTABLE>
    1dec:	00000f96 	muleq	r0, r6, pc	; <UNPREDICTABLE>
    1df0:	00088d1f 	andeq	r8, r8, pc, lsl sp
    1df4:	222e0100 	eorcs	r0, lr, #0
    1df8:	00000717 	andeq	r0, r0, r7, lsl r7
    1dfc:	00000fcb 	andeq	r0, r0, fp, asr #31
    1e00:	00000fc7 	andeq	r0, r0, r7, asr #31
    1e04:	0007d80f 	andeq	sp, r7, pc, lsl #16
    1e08:	2c2e0100 	stfcss	f0, [lr], #-0
    1e0c:	00000025 	andeq	r0, r0, r5, lsr #32
    1e10:	6c105201 	lfmvs	f5, 4, [r0], {1}
    1e14:	01006e65 	tsteq	r0, r5, ror #28
    1e18:	0025062f 	eoreq	r0, r5, pc, lsr #12
    1e1c:	0fee0000 	svceq	0x00ee0000
    1e20:	0fec0000 	svceq	0x00ec0000
    1e24:	1e000000 	cdpne	0, 0, cr0, cr0, cr0, {0}
    1e28:	00000797 	muleq	r0, r7, r7
    1e2c:	250c2701 	strcs	r2, [ip, #-1793]	; 0xfffff8ff
    1e30:	14000000 	strne	r0, [r0], #-0
    1e34:	14000084 	strne	r0, [r0], #-132	; 0xffffff7c
    1e38:	01000000 	mrseq	r0, (UNDEF: 0)
    1e3c:	0009ed9c 	muleq	r9, ip, sp
    1e40:	00630e00 	rsbeq	r0, r3, r0, lsl #28
    1e44:	25182701 	ldrcs	r2, [r8, #-1793]	; 0xfffff8ff
    1e48:	07000000 	streq	r0, [r0, -r0]
    1e4c:	01000010 	tsteq	r0, r0, lsl r0
    1e50:	00000010 	andeq	r0, r0, r0, lsl r0
    1e54:	00080e21 	andeq	r0, r8, r1, lsr #28
    1e58:	061f0100 	ldreq	r0, [pc], -r0, lsl #2
    1e5c:	00008638 	andeq	r8, r0, r8, lsr r6
    1e60:	00000064 	andeq	r0, r0, r4, rrx
    1e64:	0a7d9c01 	beq	1f68e70 <__bss_end__+0x1f5f060>
    1e68:	eb1f0000 	bl	7c1e70 <__bss_end__+0x7b8060>
    1e6c:	01000007 	tsteq	r0, r7
    1e70:	009e1b1f 	addseq	r1, lr, pc, lsl fp
    1e74:	10390000 	eorsne	r0, r9, r0
    1e78:	10350000 	eorsne	r0, r5, r0
    1e7c:	4b1f0000 	blmi	7c1e84 <__bss_end__+0x7b8074>
    1e80:	01000008 	tsteq	r0, r8
    1e84:	00d1301f 	sbcseq	r3, r1, pc, lsl r0
    1e88:	105e0000 	subsne	r0, lr, r0
    1e8c:	105a0000 	subsne	r0, sl, r0
    1e90:	44120000 	ldrmi	r0, [r2], #-0
    1e94:	8d000003 	stchi	0, cr0, [r0, #-12]
    1e98:	0500000a 	streq	r0, [r0, #-10]
    1e9c:	0093d403 	addseq	sp, r3, r3, lsl #8
    1ea0:	86801800 	strhi	r1, [r0], r0, lsl #16
    1ea4:	0a9e0000 	beq	fe781eac <__bss_end__+0xfe77809c>
    1ea8:	0a730000 	beq	1cc1eb0 <__bss_end__+0x1cb80a0>
    1eac:	01190000 	tsteq	r9, r0
    1eb0:	4c030550 	cfstr32mi	mvfx0, [r3], {80}	; 0x50
    1eb4:	19000091 	stmdbne	r0, {r0, r4, r7}
    1eb8:	03055101 	movweq	r5, #20737	; 0x5101
    1ebc:	00009288 	andeq	r9, r0, r8, lsl #5
    1ec0:	05520119 	ldrbeq	r0, [r2, #-281]	; 0xfffffee7
    1ec4:	0093d403 	addseq	sp, r3, r3, lsl #8
    1ec8:	53011900 	movwpl	r1, #6400	; 0x1900
    1ecc:	19200802 	stmdbne	r0!, {r1, fp}
    1ed0:	05007d02 	streq	r7, [r0, #-3330]	; 0xfffff2fe
    1ed4:	0092c403 	addseq	ip, r2, r3, lsl #8
    1ed8:	841a0000 	ldrhi	r0, [sl], #-0
    1edc:	c2000086 	andgt	r0, r0, #134, 0	; 0x86
    1ee0:	0000000a 	andeq	r0, r0, sl
    1ee4:	0000c01c 	andeq	ip, r0, ip, lsl r0
    1ee8:	000a8d00 	andeq	r8, sl, r0, lsl #26
    1eec:	002c1d00 	eoreq	r1, ip, r0, lsl #26
    1ef0:	000e0000 	andeq	r0, lr, r0
    1ef4:	000a7d09 	andeq	r7, sl, r9, lsl #26
    1ef8:	08852200 	stmeq	r5, {r9, sp}
    1efc:	08850000 	stmeq	r5, {}	; <UNPREDICTABLE>
    1f00:	f0030000 			; <UNDEFINED> instruction: 0xf0030000
    1f04:	06ff2205 	ldrbteq	r2, [pc], r5, lsl #4
    1f08:	06ff0000 	ldrbteq	r0, [pc], r0
    1f0c:	28030000 	stmdacs	r3, {}	; <UNPREDICTABLE>
    1f10:	08622206 	stmdaeq	r2!, {r1, r2, r9, sp}^
    1f14:	08620000 	stmdaeq	r2!, {}^	; <UNPREDICTABLE>
    1f18:	ef030000 	svc	0x00030000
    1f1c:	08272205 	stmdaeq	r7!, {r0, r2, r9, sp}
    1f20:	08270000 	stmdaeq	r7!, {}	; <UNPREDICTABLE>
    1f24:	f2030000 	vhadd.s8	d0, d3, d0
    1f28:	00792207 	rsbseq	r2, r9, r7, lsl #4
    1f2c:	00790000 	rsbseq	r0, r9, r0
    1f30:	6e030000 	cdpvs	0, 0, cr0, cr3, cr0, {0}
    1f34:	085b2206 	ldmdaeq	fp, {r1, r2, r9, sp}^
    1f38:	085b0000 	ldmdaeq	fp, {}^	; <UNPREDICTABLE>
    1f3c:	f3030000 	vhadd.u8	d0, d3, d0
    1f40:	012f0007 			; <UNDEFINED> instruction: 0x012f0007
    1f44:	00040000 	andeq	r0, r4, r0
    1f48:	0000098d 	andeq	r0, r0, sp, lsl #19
    1f4c:	062d0104 	strteq	r0, [sp], -r4, lsl #2
    1f50:	af0c0000 	svcge	0x000c0000
    1f54:	15000008 	strne	r0, [r0, #-8]
    1f58:	54000007 	strpl	r0, [r0], #-7
    1f5c:	2c00008b 	stccs	0, cr0, [r0], {139}	; 0x8b
    1f60:	85000000 	strhi	r0, [r0, #-0]
    1f64:	02000017 	andeq	r0, r0, #23, 0
    1f68:	6e690504 	cdpvs	5, 6, cr0, cr9, cr4, {0}
    1f6c:	04030074 	streq	r0, [r3], #-116	; 0xffffff8c
    1f70:	00017a07 	andeq	r7, r1, r7, lsl #20
    1f74:	06010300 	streq	r0, [r1], -r0, lsl #6
    1f78:	0000006d 	andeq	r0, r0, sp, rrx
    1f7c:	b8050203 	stmdalt	r5, {r0, r1, r9}
    1f80:	03000001 	movweq	r0, #1
    1f84:	01a30504 			; <UNDEFINED> instruction: 0x01a30504
    1f88:	08030000 	stmdaeq	r3, {}	; <UNPREDICTABLE>
    1f8c:	00019e05 	andeq	r9, r1, r5, lsl #28
    1f90:	08010300 	stmdaeq	r1, {r8, r9}
    1f94:	0000006b 	andeq	r0, r0, fp, rrx
    1f98:	86070203 	strhi	r0, [r7], -r3, lsl #4
    1f9c:	03000000 	movweq	r0, #0
    1fa0:	01750704 	cmneq	r5, r4, lsl #14
    1fa4:	08030000 	stmdaeq	r3, {}	; <UNPREDICTABLE>
    1fa8:	00017007 	andeq	r7, r1, r7
    1fac:	00250400 	eoreq	r0, r5, r0, lsl #8
    1fb0:	007a0000 	rsbseq	r0, sl, r0
    1fb4:	25050000 	strcs	r0, [r5, #-0]
    1fb8:	00000000 	andeq	r0, r0, r0
    1fbc:	0001ac06 	andeq	sl, r1, r6, lsl #24
    1fc0:	0e1c0200 	cdpeq	2, 1, cr0, cr12, cr0, {0}
    1fc4:	00000086 	andeq	r0, r0, r6, lsl #1
    1fc8:	006b0407 	rsbeq	r0, fp, r7, lsl #8
    1fcc:	25040000 	strcs	r0, [r4, #-0]
    1fd0:	9b000000 	blls	1fd8 <__code_start__-0x6028>
    1fd4:	05000000 	streq	r0, [r0, #-0]
    1fd8:	0000009b 	muleq	r0, fp, r0
    1fdc:	a8040700 	stmdage	r4, {r8, r9, sl}
    1fe0:	03000000 	movweq	r0, #0
    1fe4:	00740801 	rsbseq	r0, r4, r1, lsl #16
    1fe8:	a1080000 	mrsge	r0, (UNDEF: 8)
    1fec:	06000000 	streq	r0, [r0], -r0
    1ff0:	00000784 	andeq	r0, r0, r4, lsl #15
    1ff4:	b90e2102 	stmdblt	lr, {r1, r8, sp}
    1ff8:	07000000 	streq	r0, [r0, -r0]
    1ffc:	00008c04 	andeq	r8, r0, r4, lsl #24
    2000:	00790900 	rsbseq	r0, r9, r0, lsl #18
    2004:	04010000 	streq	r0, [r1], #-0
    2008:	008b5406 	addeq	r5, fp, r6, lsl #8
    200c:	00002c00 	andeq	r2, r0, r0, lsl #24
    2010:	0e9c0100 	fmleqe	f0, f4, f0
    2014:	0a000001 	beq	2020 <__code_start__-0x5fe0>
    2018:	00008b68 	andeq	r8, r0, r8, ror #22
    201c:	000000e8 	andeq	r0, r0, r8, ror #1
    2020:	0550010b 	ldrbeq	r0, [r0, #-267]	; 0xfffffef5
    2024:	0093f003 	addseq	pc, r3, r3
    2028:	6c0c0000 	stcvs	0, cr0, [ip], {-0}
    202c:	0e00008b 	cdpeq	0, 0, cr0, cr0, cr11, {4}
    2030:	0d000001 	stceq	0, cr0, [r0, #-4]
    2034:	00008b74 	andeq	r8, r0, r4, ror fp
    2038:	0000011a 	andeq	r0, r0, sl, lsl r1
    203c:	00000104 	andeq	r0, r0, r4, lsl #2
    2040:	0150010b 	cmpeq	r0, fp, lsl #2
    2044:	780c003a 	stmdavc	ip, {r1, r3, r4, r5}
    2048:	2600008b 	strcs	r0, [r0], -fp, lsl #1
    204c:	00000001 	andeq	r0, r0, r1
    2050:	0008ca0e 	andeq	ip, r8, lr, lsl #20
    2054:	0008ca00 	andeq	ip, r8, r0, lsl #20
    2058:	064d0200 	strbeq	r0, [sp], -r0, lsl #4
    205c:	0008a60e 	andeq	sl, r8, lr, lsl #12
    2060:	0008a600 	andeq	sl, r8, r0, lsl #12
    2064:	06580200 	ldrbeq	r0, [r8], -r0, lsl #4
    2068:	00089b0e 	andeq	r9, r8, lr, lsl #22
    206c:	00089b00 	andeq	r9, r8, r0, lsl #22
    2070:	066b0200 	strbteq	r0, [fp], -r0, lsl #4
    2074:	00018900 	andeq	r8, r1, r0, lsl #18
    2078:	4d000400 	cfstrsmi	mvf0, [r0, #-0]
    207c:	0400000a 	streq	r0, [r0], #-10
    2080:	00062d01 	andeq	r2, r6, r1, lsl #26
    2084:	09000c00 	stmdbeq	r0, {sl, fp}
    2088:	07150000 	ldreq	r0, [r5, -r0]
    208c:	8b800000 	blhi	fe002094 <__bss_end__+0xfdff8284>
    2090:	003c0000 	eorseq	r0, ip, r0
    2094:	182d0000 	stmdane	sp!, {}	; <UNPREDICTABLE>
    2098:	04020000 	streq	r0, [r2], #-0
    209c:	746e6905 	strbtvc	r6, [lr], #-2309	; 0xfffff6fb
    20a0:	07040300 	streq	r0, [r4, -r0, lsl #6]
    20a4:	0000017a 	andeq	r0, r0, sl, ror r1
    20a8:	6d060103 	stfvss	f0, [r6, #-12]
    20ac:	03000000 	movweq	r0, #0
    20b0:	01b80502 			; <UNDEFINED> instruction: 0x01b80502
    20b4:	04030000 	streq	r0, [r3], #-0
    20b8:	0001a305 	andeq	sl, r1, r5, lsl #6
    20bc:	05080300 	streq	r0, [r8, #-768]	; 0xfffffd00
    20c0:	0000019e 	muleq	r0, lr, r1
    20c4:	6b080103 	blvs	2024d8 <__bss_end__+0x1f86c8>
    20c8:	03000000 	movweq	r0, #0
    20cc:	00860702 	addeq	r0, r6, r2, lsl #14
    20d0:	04030000 	streq	r0, [r3], #-0
    20d4:	00017507 	andeq	r7, r1, r7, lsl #10
    20d8:	07080300 	streq	r0, [r8, -r0, lsl #6]
    20dc:	00000170 	andeq	r0, r0, r0, ror r1
    20e0:	00002504 	andeq	r2, r0, r4, lsl #10
    20e4:	00007a00 	andeq	r7, r0, r0, lsl #20
    20e8:	00250500 	eoreq	r0, r5, r0, lsl #10
    20ec:	06000000 	streq	r0, [r0], -r0
    20f0:	000001ac 	andeq	r0, r0, ip, lsr #3
    20f4:	860e1c02 	strhi	r1, [lr], -r2, lsl #24
    20f8:	07000000 	streq	r0, [r0, -r0]
    20fc:	00006b04 	andeq	r6, r0, r4, lsl #22
    2100:	00250400 	eoreq	r0, r5, r0, lsl #8
    2104:	009b0000 	addseq	r0, fp, r0
    2108:	9b050000 	blls	142110 <__bss_end__+0x138300>
    210c:	00000000 	andeq	r0, r0, r0
    2110:	00a80407 	adceq	r0, r8, r7, lsl #8
    2114:	01030000 	mrseq	r0, (UNDEF: 3)
    2118:	00007408 	andeq	r7, r0, r8, lsl #8
    211c:	00a10800 	adceq	r0, r1, r0, lsl #16
    2120:	84060000 	strhi	r0, [r6], #-0
    2124:	02000007 	andeq	r0, r0, #7, 0
    2128:	00b90e21 	adcseq	r0, r9, r1, lsr #28
    212c:	04070000 	streq	r0, [r7], #-0
    2130:	0000008c 	andeq	r0, r0, ip, lsl #1
    2134:	0008d809 	andeq	sp, r8, r9, lsl #16
    2138:	06040100 	streq	r0, [r4], -r0, lsl #2
    213c:	00008b80 	andeq	r8, r0, r0, lsl #23
    2140:	0000003c 	andeq	r0, r0, ip, lsr r0
    2144:	01549c01 	cmpeq	r4, r1, lsl #24
    2148:	ca060000 	bgt	182150 <__bss_end__+0x178340>
    214c:	01000007 	tsteq	r0, r7
    2150:	00251005 	eoreq	r1, r5, r5
    2154:	f3060000 	vhadd.u8	d0, d6, d0
    2158:	01000007 	tsteq	r0, r7
    215c:	00251f05 	eoreq	r1, r5, r5, lsl #30
    2160:	000a0000 	andeq	r0, sl, r0
    2164:	01000000 	mrseq	r0, (UNDEF: 0)
    2168:	620b0706 	andvs	r0, fp, #1572864	; 0x180000
    216c:	01007373 	tsteq	r0, r3, ror r3
    2170:	01540a0a 	cmpeq	r4, sl, lsl #20
    2174:	10850000 	addne	r0, r5, r0
    2178:	107f0000 	rsbsne	r0, pc, r0
    217c:	e00c0000 	and	r0, ip, r0
    2180:	01000008 	tsteq	r0, r8
    2184:	01540a0b 	cmpeq	r4, fp, lsl #20
    2188:	a40d0000 	strge	r0, [sp], #-0
    218c:	0800008b 	stmdaeq	r0, {r0, r1, r3, r7}
    2190:	2f000000 	svccs	0x00000000
    2194:	0e000001 	cdpeq	0, 0, cr0, cr0, cr1, {0}
    2198:	01006e69 	tsteq	r0, r9, ror #28
    219c:	002c0514 	eoreq	r0, ip, r4, lsl r5
    21a0:	00010000 	andeq	r0, r1, r0
    21a4:	008b880f 	addeq	r8, fp, pc, lsl #16
    21a8:	00015a00 	andeq	r5, r1, r0, lsl #20
    21ac:	8ba40f00 	blhi	fe905db4 <__bss_end__+0xfe8fbfa4>
    21b0:	01670000 	cmneq	r7, r0
    21b4:	b00f0000 	andlt	r0, pc, r0
    21b8:	7300008b 	movwvc	r0, #139	; 0x8b
    21bc:	0f000001 	svceq	0x00000001
    21c0:	00008bb4 			; <UNDEFINED> instruction: 0x00008bb4
    21c4:	00000180 	andeq	r0, r0, r0, lsl #3
    21c8:	25040700 	strcs	r0, [r4, #-1792]	; 0xfffff900
    21cc:	10000000 	andne	r0, r0, r0
    21d0:	000008f2 	strdeq	r0, [r0], -r2
    21d4:	000008f2 	strdeq	r0, [r0], -r2
    21d8:	06013602 	streq	r3, [r1], -r2, lsl #12
    21dc:	0008e811 	andeq	lr, r8, r1, lsl r8
    21e0:	0008e800 	andeq	lr, r8, r0, lsl #16
    21e4:	063b0200 	ldrteq	r0, [fp], -r0, lsl #4
    21e8:	00000010 	andeq	r0, r0, r0, lsl r0
    21ec:	00000000 	andeq	r0, r0, r0
    21f0:	010a0200 	mrseq	r0, R10_fiq
    21f4:	00791106 	rsbseq	r1, r9, r6, lsl #2
    21f8:	00790000 	rsbseq	r0, r9, r0
    21fc:	6e020000 	cdpvs	0, 0, cr0, cr2, cr0, {0}
    2200:	00ce0006 	sbceq	r0, lr, r6
    2204:	00040000 	andeq	r0, r4, r0
    2208:	00000b49 	andeq	r0, r0, r9, asr #22
    220c:	062d0104 	strteq	r0, [sp], -r4, lsl #2
    2210:	150c0000 	strne	r0, [ip, #-0]
    2214:	15000009 	strne	r0, [r0, #-9]
    2218:	bc000007 	stclt	0, cr0, [r0], {7}
    221c:	0400008b 	streq	r0, [r0], #-139	; 0xffffff75
    2220:	ef000000 	svc	0x00000000
    2224:	02000018 	andeq	r0, r0, #24, 0
    2228:	6e690504 	cdpvs	5, 6, cr0, cr9, cr4, {0}
    222c:	04030074 	streq	r0, [r3], #-116	; 0xffffff8c
    2230:	00017a07 	andeq	r7, r1, r7, lsl #20
    2234:	06010300 	streq	r0, [r1], -r0, lsl #6
    2238:	0000006d 	andeq	r0, r0, sp, rrx
    223c:	b8050203 	stmdalt	r5, {r0, r1, r9}
    2240:	03000001 	movweq	r0, #1
    2244:	01a30504 			; <UNDEFINED> instruction: 0x01a30504
    2248:	08030000 	stmdaeq	r3, {}	; <UNPREDICTABLE>
    224c:	00019e05 	andeq	r9, r1, r5, lsl #28
    2250:	08010300 	stmdaeq	r1, {r8, r9}
    2254:	0000006b 	andeq	r0, r0, fp, rrx
    2258:	86070203 	strhi	r0, [r7], -r3, lsl #4
    225c:	03000000 	movweq	r0, #0
    2260:	01750704 	cmneq	r5, r4, lsl #14
    2264:	08030000 	stmdaeq	r3, {}	; <UNPREDICTABLE>
    2268:	00017007 	andeq	r7, r1, r7
    226c:	00250400 	eoreq	r0, r5, r0, lsl #8
    2270:	007a0000 	rsbseq	r0, sl, r0
    2274:	25050000 	strcs	r0, [r5, #-0]
    2278:	00000000 	andeq	r0, r0, r0
    227c:	0001ac06 	andeq	sl, r1, r6, lsl #24
    2280:	0e1c0200 	cdpeq	2, 1, cr0, cr12, cr0, {0}
    2284:	00000086 	andeq	r0, r0, r6, lsl #1
    2288:	006b0407 	rsbeq	r0, fp, r7, lsl #8
    228c:	25040000 	strcs	r0, [r4, #-0]
    2290:	9b000000 	blls	2298 <__code_start__-0x5d68>
    2294:	05000000 	streq	r0, [r0, #-0]
    2298:	0000009b 	muleq	r0, fp, r0
    229c:	a8040700 	stmdage	r4, {r8, r9, sl}
    22a0:	03000000 	movweq	r0, #0
    22a4:	00740801 	rsbseq	r0, r4, r1, lsl #16
    22a8:	a1080000 	mrsge	r0, (UNDEF: 8)
    22ac:	06000000 	streq	r0, [r0], -r0
    22b0:	00000784 	andeq	r0, r0, r4, lsl #15
    22b4:	b90e2102 	stmdblt	lr, {r1, r8, sp}
    22b8:	07000000 	streq	r0, [r0, -r0]
    22bc:	00008c04 	andeq	r8, r0, r4, lsl #24
    22c0:	08f20900 	ldmeq	r2!, {r8, fp}^
    22c4:	04010000 	streq	r0, [r1], #-0
    22c8:	008bbc06 	addeq	fp, fp, r6, lsl #24
    22cc:	00000400 	andeq	r0, r0, r0, lsl #8
    22d0:	009c0100 	addseq	r0, ip, r0, lsl #2
    22d4:	00000236 	andeq	r0, r0, r6, lsr r2
    22d8:	0bc20004 	bleq	ff0822f0 <__bss_end__+0xff0784e0>
    22dc:	01040000 	mrseq	r0, (UNDEF: 4)
    22e0:	0000062d 	andeq	r0, r0, sp, lsr #12
    22e4:	0009570c 	andeq	r5, r9, ip, lsl #14
    22e8:	00071500 	andeq	r1, r7, r0, lsl #10
    22ec:	0000a800 	andeq	sl, r0, r0, lsl #16
    22f0:	00000000 	andeq	r0, r0, r0
    22f4:	00199500 	andseq	r9, r9, r0, lsl #10
    22f8:	05040200 	streq	r0, [r4, #-512]	; 0xfffffe00
    22fc:	00746e69 	rsbseq	r6, r4, r9, ror #28
    2300:	00002503 	andeq	r2, r0, r3, lsl #10
    2304:	07040400 	streq	r0, [r4, -r0, lsl #8]
    2308:	0000017a 	andeq	r0, r0, sl, ror r1
    230c:	6d060104 	stfvss	f0, [r6, #-16]
    2310:	04000000 	streq	r0, [r0], #-0
    2314:	01b80502 			; <UNDEFINED> instruction: 0x01b80502
    2318:	04040000 	streq	r0, [r4], #-0
    231c:	0001a305 	andeq	sl, r1, r5, lsl #6
    2320:	05080400 	streq	r0, [r8, #-1024]	; 0xfffffc00
    2324:	0000019e 	muleq	r0, lr, r1
    2328:	6b080104 	blvs	202740 <__bss_end__+0x1f8930>
    232c:	04000000 	streq	r0, [r0], #-0
    2330:	00860702 	addeq	r0, r6, r2, lsl #14
    2334:	04040000 	streq	r0, [r4], #-0
    2338:	00017507 	andeq	r7, r1, r7, lsl #10
    233c:	07080400 	streq	r0, [r8, -r0, lsl #8]
    2340:	00000170 	andeq	r0, r0, r0, ror r1
    2344:	00002505 	andeq	r2, r0, r5, lsl #10
    2348:	00007f00 	andeq	r7, r0, r0, lsl #30
    234c:	00250600 	eoreq	r0, r5, r0, lsl #12
    2350:	07000000 	streq	r0, [r0, -r0]
    2354:	000001ac 	andeq	r0, r0, ip, lsr #3
    2358:	8b0e1c02 	blhi	389368 <__bss_end__+0x37f558>
    235c:	08000000 	stmdaeq	r0, {}	; <UNPREDICTABLE>
    2360:	00007004 	andeq	r7, r0, r4
    2364:	00250500 	eoreq	r0, r5, r0, lsl #10
    2368:	00a00000 	adceq	r0, r0, r0
    236c:	a0060000 	andge	r0, r6, r0
    2370:	00000000 	andeq	r0, r0, r0
    2374:	00ad0408 	adceq	r0, sp, r8, lsl #8
    2378:	01040000 	mrseq	r0, (UNDEF: 4)
    237c:	00007408 	andeq	r7, r0, r8, lsl #8
    2380:	00a60300 	adceq	r0, r6, r0, lsl #6
    2384:	84070000 	strhi	r0, [r7], #-0
    2388:	02000007 	andeq	r0, r0, #7, 0
    238c:	00be0e21 	adcseq	r0, lr, r1, lsr #28
    2390:	04080000 	streq	r0, [r8], #-0
    2394:	00000091 	muleq	r0, r1, r0
    2398:	00097b09 	andeq	r7, r9, r9, lsl #22
    239c:	110d0100 	mrsne	r0, (UNDEF: 29)
    23a0:	00000031 	andeq	r0, r0, r1, lsr r0
    23a4:	00089b0a 	andeq	r9, r8, sl, lsl #22
    23a8:	061f0100 	ldreq	r0, [pc], -r0, lsl #2
    23ac:	00008c04 	andeq	r8, r0, r4, lsl #24
    23b0:	00000054 	andeq	r0, r0, r4, asr r0
    23b4:	01ae9c01 			; <UNDEFINED> instruction: 0x01ae9c01
    23b8:	9f0b0000 	svcls	0x000b0000
    23bc:	01000009 	tsteq	r0, r9
    23c0:	002c0f2c 	eoreq	r0, ip, ip, lsr #30
    23c4:	10b20000 	adcsne	r0, r2, r0
    23c8:	10b00000 	adcsne	r0, r0, r0
    23cc:	400b0000 	andmi	r0, fp, r0
    23d0:	01000009 	tsteq	r0, r9
    23d4:	002c0f2d 	eoreq	r0, ip, sp, lsr #30
    23d8:	10cc0000 	sbcne	r0, ip, r0
    23dc:	10ca0000 	sbcne	r0, sl, r0
    23e0:	6c0b0000 	stcvs	0, cr0, [fp], {-0}
    23e4:	01000009 	tsteq	r0, r9
    23e8:	002c0f2e 	eoreq	r0, ip, lr, lsr #30
    23ec:	10e60000 	rscne	r0, r6, r0
    23f0:	10e40000 	rscne	r0, r4, r0
    23f4:	860b0000 	strhi	r0, [fp], -r0
    23f8:	01000009 	tsteq	r0, r9
    23fc:	002c0f2f 	eoreq	r0, ip, pc, lsr #30
    2400:	10ff0000 	rscsne	r0, pc, r0
    2404:	10fd0000 	rscsne	r0, sp, r0
    2408:	0c0c0000 	stceq	0, cr0, [ip], {-0}
    240c:	d900008c 	stmdble	r0, {r2, r3, r7}
    2410:	0c000001 	stceq	0, cr0, [r0], {1}
    2414:	00008c18 	andeq	r8, r0, r8, lsl ip
    2418:	00000208 	andeq	r0, r0, r8, lsl #4
    241c:	008c1c0c 	addeq	r1, ip, ip, lsl #24
    2420:	00021500 	andeq	r1, r2, r0, lsl #10
    2424:	8c240d00 	stchi	13, cr0, [r4], #-0
    2428:	02210000 	eoreq	r0, r1, #0, 0
    242c:	01640000 	cmneq	r4, r0
    2430:	010e0000 	mrseq	r0, (UNDEF: 14)
    2434:	003a0150 	eorseq	r0, sl, r0, asr r1
    2438:	008c300d 	addeq	r3, ip, sp
    243c:	00022d00 	andeq	r2, r2, r0, lsl #26
    2440:	00018400 	andeq	r8, r1, r0, lsl #8
    2444:	50010e00 	andpl	r0, r1, r0, lsl #28
    2448:	00240c05 	eoreq	r0, r4, r5, lsl #24
    244c:	010e2010 	tsteq	lr, r0, lsl r0
    2450:	010c0551 	tsteq	ip, r1, asr r5
    2454:	005a0000 	subseq	r0, sl, r0
    2458:	008c3c0d 	addeq	r3, ip, sp, lsl #24
    245c:	00022d00 	andeq	r2, r2, r0, lsl #26
    2460:	0001a400 	andeq	sl, r1, r0, lsl #8
    2464:	50010e00 	andpl	r0, r1, r0, lsl #28
    2468:	001c0c05 	andseq	r0, ip, r5, lsl #24
    246c:	010e2010 	tsteq	lr, r0, lsl r0
    2470:	200c0551 	andcs	r0, ip, r1, asr r5
    2474:	005a0000 	subseq	r0, sl, r0
    2478:	008c440c 	addeq	r4, ip, ip, lsl #8
    247c:	0001ae00 	andeq	sl, r1, r0, lsl #28
    2480:	480f0000 	stmdami	pc, {}	; <UNPREDICTABLE>
    2484:	01000009 	tsteq	r0, r9
    2488:	8bf00617 	blhi	ffc03cec <__bss_end__+0xffbf9edc>
    248c:	00140000 	andseq	r0, r4, r0
    2490:	9c010000 	stcls	0, cr0, [r1], {-0}
    2494:	000001d9 	ldrdeq	r0, [r0], -r9
    2498:	0009a70b 	andeq	sl, r9, fp, lsl #14
    249c:	0e180100 	mufeqe	f0, f0, f0
    24a0:	00000031 	andeq	r0, r0, r1, lsr r0
    24a4:	0000111a 	andeq	r1, r0, sl, lsl r1
    24a8:	00001114 	andeq	r1, r0, r4, lsl r1
    24ac:	09781000 	ldmdbeq	r8!, {ip}^
    24b0:	0e010000 	cdpeq	0, 0, cr0, cr1, cr0, {0}
    24b4:	00002505 	andeq	r2, r0, r5, lsl #10
    24b8:	008bd800 	addeq	sp, fp, r0, lsl #16
    24bc:	00001800 	andeq	r1, r0, r0, lsl #16
    24c0:	089c0100 	ldmeq	ip, {r8}
    24c4:	0b000002 	bleq	24d4 <__code_start__-0x5b2c>
    24c8:	000009a7 	andeq	r0, r0, r7, lsr #19
    24cc:	310e0f01 	tstcc	lr, r1, lsl #30
    24d0:	48000000 	stmdami	r0, {}	; <UNPREDICTABLE>
    24d4:	44000011 	strmi	r0, [r0], #-17	; 0xffffffef
    24d8:	00000011 	andeq	r0, r0, r1, lsl r0
    24dc:	00093111 	andeq	r3, r9, r1, lsl r1
    24e0:	00093100 	andeq	r3, r9, r0, lsl #2
    24e4:	013b0200 	teqeq	fp, r0, lsl #4
    24e8:	08ca1206 	stmiaeq	sl, {r1, r2, r9, ip}^
    24ec:	08ca0000 	stmiaeq	sl, {}^	; <UNPREDICTABLE>
    24f0:	4d020000 	stcmi	0, cr0, [r2, #-0]
    24f4:	08a61206 	stmiaeq	r6!, {r1, r2, r9, ip}
    24f8:	08a60000 	stmiaeq	r6!, {}	; <UNPREDICTABLE>
    24fc:	58020000 	stmdapl	r2, {}	; <UNPREDICTABLE>
    2500:	04bd1206 	ldrteq	r1, [sp], #518	; 0x206
    2504:	04bd0000 	ldrteq	r0, [sp], #0
    2508:	b2020000 	andlt	r0, r2, #0, 0
    250c:	024d0006 	subeq	r0, sp, #6, 0
    2510:	00040000 	andeq	r0, r4, r0
    2514:	00000ce7 	andeq	r0, r0, r7, ror #25
    2518:	062d0104 	strteq	r0, [sp], -r4, lsl #2
    251c:	b60c0000 	strlt	r0, [ip], -r0
    2520:	15000009 	strne	r0, [r0, #-9]
    2524:	58000007 	stmdapl	r0, {r0, r1, r2}
    2528:	8400008c 	strhi	r0, [r0], #-140	; 0xffffff74
    252c:	8b000000 	blhi	2534 <__code_start__-0x5acc>
    2530:	0200001a 	andeq	r0, r0, #26, 0
    2534:	6e690504 	cdpvs	5, 6, cr0, cr9, cr4, {0}
    2538:	04030074 	streq	r0, [r3], #-116	; 0xffffff8c
    253c:	00017a07 	andeq	r7, r1, r7, lsl #20
    2540:	06010300 	streq	r0, [r1], -r0, lsl #6
    2544:	0000006d 	andeq	r0, r0, sp, rrx
    2548:	b8050203 	stmdalt	r5, {r0, r1, r9}
    254c:	03000001 	movweq	r0, #1
    2550:	01a30504 			; <UNDEFINED> instruction: 0x01a30504
    2554:	08030000 	stmdaeq	r3, {}	; <UNPREDICTABLE>
    2558:	00019e05 	andeq	r9, r1, r5, lsl #28
    255c:	08010300 	stmdaeq	r1, {r8, r9}
    2560:	0000006b 	andeq	r0, r0, fp, rrx
    2564:	86070203 	strhi	r0, [r7], -r3, lsl #4
    2568:	03000000 	movweq	r0, #0
    256c:	01750704 	cmneq	r5, r4, lsl #14
    2570:	08030000 	stmdaeq	r3, {}	; <UNPREDICTABLE>
    2574:	00017007 	andeq	r7, r1, r7
    2578:	00250400 	eoreq	r0, r5, r0, lsl #8
    257c:	007a0000 	rsbseq	r0, sl, r0
    2580:	25050000 	strcs	r0, [r5, #-0]
    2584:	00000000 	andeq	r0, r0, r0
    2588:	0001ac06 	andeq	sl, r1, r6, lsl #24
    258c:	0e1c0200 	cdpeq	2, 1, cr0, cr12, cr0, {0}
    2590:	00000086 	andeq	r0, r0, r6, lsl #1
    2594:	006b0407 	rsbeq	r0, fp, r7, lsl #8
    2598:	25040000 	strcs	r0, [r4, #-0]
    259c:	9b000000 	blls	25a4 <__code_start__-0x5a5c>
    25a0:	05000000 	streq	r0, [r0, #-0]
    25a4:	0000009b 	muleq	r0, fp, r0
    25a8:	a8040700 	stmdage	r4, {r8, r9, sl}
    25ac:	03000000 	movweq	r0, #0
    25b0:	00740801 	rsbseq	r0, r4, r1, lsl #16
    25b4:	a1080000 	mrsge	r0, (UNDEF: 8)
    25b8:	06000000 	streq	r0, [r0], -r0
    25bc:	00000784 	andeq	r0, r0, r4, lsl #15
    25c0:	b90e2102 	stmdblt	lr, {r1, r8, sp}
    25c4:	07000000 	streq	r0, [r0, -r0]
    25c8:	00008c04 	andeq	r8, r0, r4, lsl #24
    25cc:	09ac0900 	stmibeq	ip!, {r8, fp}
    25d0:	1e010000 	cdpne	0, 0, cr0, cr1, cr0, {0}
    25d4:	008cc406 	addeq	ip, ip, r6, lsl #8
    25d8:	00001800 	andeq	r1, r0, r0, lsl #16
    25dc:	099c0100 	ldmibeq	ip, {r8}
    25e0:	0a000001 	beq	25ec <__code_start__-0x5a14>
    25e4:	00636573 	rsbeq	r6, r3, r3, ror r5
    25e8:	2c191e01 	ldccs	14, cr1, [r9], {1}
    25ec:	6b000000 	blvs	25f4 <__code_start__-0x5a0c>
    25f0:	67000011 	smladvs	r0, r1, r0, r0
    25f4:	0b000011 	bleq	2640 <__code_start__-0x59c0>
    25f8:	00008cd8 	ldrdeq	r8, [r0], -r8	; <UNPREDICTABLE>
    25fc:	00000109 	andeq	r0, r0, r9, lsl #2
    2600:	1150010c 	cmpne	r0, ip, lsl #2
    2604:	355001f3 	ldrbcc	r0, [r0, #-499]	; 0xfffffe0d
    2608:	5001f324 	andpl	pc, r1, r4, lsr #6
    260c:	f324321c 	vqsub.u32	d3, d4, d12
    2610:	33225001 			; <UNDEFINED> instruction: 0x33225001
    2614:	09000024 	stmdbeq	r0, {r2, r5}
    2618:	000008a6 	andeq	r0, r0, r6, lsr #17
    261c:	ac061b01 			; <UNDEFINED> instruction: 0xac061b01
    2620:	1800008c 	stmdane	r0, {r2, r3, r7}
    2624:	01000000 	mrseq	r0, (UNDEF: 0)
    2628:	0001529c 	muleq	r1, ip, r2
    262c:	736d0a00 	cmnvc	sp, #0, 20
    2630:	181b0100 	ldmdane	fp, {r8}
    2634:	0000002c 	andeq	r0, r0, ip, lsr #32
    2638:	00001190 	muleq	r0, r0, r1
    263c:	0000118c 	andeq	r1, r0, ip, lsl #3
    2640:	008cc00b 	addeq	ip, ip, fp
    2644:	00015200 	andeq	r5, r1, r0, lsl #4
    2648:	50010c00 	andpl	r0, r1, r0, lsl #24
    264c:	5001f311 	andpl	pc, r1, r1, lsl r3	; <UNPREDICTABLE>
    2650:	01f32435 	mvnseq	r2, r5, lsr r4
    2654:	24321c50 	ldrtcs	r1, [r2], #-3152	; 0xfffff3b0
    2658:	225001f3 	subscs	r0, r0, #-1073741764	; 0xc000003c
    265c:	00002433 	andeq	r2, r0, r3, lsr r4
    2660:	0009ca09 	andeq	ip, r9, r9, lsl #20
    2664:	06120100 	ldreq	r0, [r2], -r0, lsl #2
    2668:	00008c88 	andeq	r8, r0, r8, lsl #25
    266c:	00000024 	andeq	r0, r0, r4, lsr #32
    2670:	01c29c01 	biceq	r9, r2, r1, lsl #24
    2674:	750a0000 	strvc	r0, [sl, #-0]
    2678:	12010073 	andne	r0, r1, #115, 0	; 0x73
    267c:	00002c18 	andeq	r2, r0, r8, lsl ip
    2680:	0011b500 	andseq	fp, r1, r0, lsl #10
    2684:	0011b100 	andseq	fp, r1, r0, lsl #2
    2688:	62720d00 	rsbsvs	r0, r2, #0, 26
    268c:	0e130100 	mufeqs	f0, f3, f0
    2690:	0000002c 	andeq	r0, r0, ip, lsr #32
    2694:	000011d5 	ldrdeq	r1, [r0], -r5
    2698:	000011d3 	ldrdeq	r1, [r0], -r3
    269c:	008c980e 	addeq	r9, ip, lr, lsl #16
    26a0:	00001400 	andeq	r1, r0, r0, lsl #8
    26a4:	0001b800 	andeq	fp, r1, r0, lsl #16
    26a8:	61720d00 	cmnvs	r2, r0, lsl #26
    26ac:	12150100 	andsne	r0, r5, #0
    26b0:	0000002c 	andeq	r0, r0, ip, lsr #32
    26b4:	000011ea 	andeq	r1, r0, sl, ror #3
    26b8:	000011e8 	andeq	r1, r0, r8, ror #3
    26bc:	008c9c0f 	addeq	r9, ip, pc, lsl #24
    26c0:	0001c200 	andeq	ip, r1, r0, lsl #4
    26c4:	940f0000 	strls	r0, [pc], #-0	; 26cc <__code_start__-0x5934>
    26c8:	c200008c 	andgt	r0, r0, #140, 0	; 0x8c
    26cc:	00000001 	andeq	r0, r0, r1
    26d0:	00009910 	andeq	r9, r0, r0, lsl r9
    26d4:	0a090100 	beq	242adc <__bss_end__+0x238ccc>
    26d8:	0000002c 	andeq	r0, r0, ip, lsr #32
    26dc:	00008c6c 	andeq	r8, r0, ip, ror #24
    26e0:	0000001c 	andeq	r0, r0, ip, lsl r0
    26e4:	020a9c01 	andeq	r9, sl, #256	; 0x100
    26e8:	750d0000 	strvc	r0, [sp, #-0]
    26ec:	0e0d0100 	adfeqe	f0, f5, f0
    26f0:	0000002c 	andeq	r0, r0, ip, lsr #32
    26f4:	00001201 	andeq	r1, r0, r1, lsl #4
    26f8:	000011fd 	strdeq	r1, [r0], -sp
    26fc:	008c740f 	addeq	r7, ip, pc, lsl #8
    2700:	00023800 	andeq	r3, r2, r0, lsl #16
    2704:	8c780f00 	ldclhi	15, cr0, [r8], #-0
    2708:	020a0000 	andeq	r0, sl, #0, 0
    270c:	800f0000 	andhi	r0, pc, r0
    2710:	3800008c 	stmdacc	r0, {r2, r3, r7}
    2714:	00000002 	andeq	r0, r0, r2
    2718:	0009d310 	andeq	sp, r9, r0, lsl r3
    271c:	0a040100 	beq	102b24 <__bss_end__+0xf8d14>
    2720:	0000002c 	andeq	r0, r0, ip, lsr #32
    2724:	00008c58 	andeq	r8, r0, r8, asr ip
    2728:	00000014 	andeq	r0, r0, r4, lsl r0
    272c:	02389c01 	eorseq	r9, r8, #256	; 0x100
    2730:	640b0000 	strvs	r0, [fp], #-0
    2734:	4400008c 	strmi	r0, [r0], #-140	; 0xffffff74
    2738:	0c000002 	stceq	0, cr0, [r0], {2}
    273c:	0c055001 	stceq	0, cr5, [r5], {1}
    2740:	20003004 	andcs	r3, r0, r4
    2744:	59110000 	ldmdbpl	r1, {}	; <UNPREDICTABLE>
    2748:	59000004 	stmdbpl	r0, {r2}
    274c:	02000004 	andeq	r0, r0, #4, 0
    2750:	5e1106a1 	cfmsub32pl	mvax5, mvfx0, mvfx1, mvfx1
    2754:	5e000003 	cdppl	0, 0, cr0, cr0, cr3, {0}
    2758:	02000003 	andeq	r0, r0, #3, 0
    275c:	a5000ac7 	strge	r0, [r0, #-2759]	; 0xfffff539
    2760:	04000003 	streq	r0, [r0], #-3
    2764:	000de800 	andeq	lr, sp, r0, lsl #16
    2768:	8b010400 	blhi	43770 <__bss_end__+0x39960>
    276c:	0c00000a 	stceq	0, cr0, [r0], {10}
    2770:	00000b2d 	andeq	r0, r0, sp, lsr #22
    2774:	00000a28 	andeq	r0, r0, r8, lsr #20
    2778:	00008cdc 	ldrdeq	r8, [r0], -ip
    277c:	0000011c 	andeq	r0, r0, ip, lsl r1
    2780:	00001b88 	andeq	r1, r0, r8, lsl #23
    2784:	69050402 	stmdbvs	r5, {r1, sl}
    2788:	0300746e 	movweq	r7, #1134	; 0x46e
    278c:	017a0704 	cmneq	sl, r4, lsl #14
    2790:	2c040000 	stccs	0, cr0, [r4], {-0}
    2794:	03000000 	movweq	r0, #0
    2798:	006d0601 	rsbeq	r0, sp, r1, lsl #12
    279c:	02030000 	andeq	r0, r3, #0, 0
    27a0:	0001b805 	andeq	fp, r1, r5, lsl #16
    27a4:	05040300 	streq	r0, [r4, #-768]	; 0xfffffd00
    27a8:	000001a3 	andeq	r0, r0, r3, lsr #3
    27ac:	9e050803 	cdpls	8, 0, cr0, cr5, cr3, {0}
    27b0:	03000001 	movweq	r0, #1
    27b4:	006b0801 	rsbeq	r0, fp, r1, lsl #16
    27b8:	02030000 	andeq	r0, r3, #0, 0
    27bc:	00008607 	andeq	r8, r0, r7, lsl #12
    27c0:	01c20500 	biceq	r0, r2, r0, lsl #10
    27c4:	34030000 	strcc	r0, [r3], #-0
    27c8:	00006e19 	andeq	r6, r0, r9, lsl lr
    27cc:	07040300 	streq	r0, [r4, -r0, lsl #6]
    27d0:	00000175 	andeq	r0, r0, r5, ror r1
    27d4:	70070803 	andvc	r0, r7, r3, lsl #16
    27d8:	03000001 	movweq	r0, #1
    27dc:	00740801 	rsbseq	r0, r4, r1, lsl #16
    27e0:	07060000 	streq	r0, [r6, -r0]
    27e4:	00005401 	andeq	r5, r0, r1, lsl #8
    27e8:	0e0c0400 	cfcpyseq	mvf0, mvf12
    27ec:	000000c2 	andeq	r0, r0, r2, asr #1
    27f0:	00039b07 	andeq	r9, r3, r7, lsl #22
    27f4:	43070000 	movwmi	r0, #28672	; 0x7000
    27f8:	01000002 	tsteq	r0, r2
    27fc:	00036e07 	andeq	r6, r3, r7, lsl #28
    2800:	8c070400 	cfstrshi	mvf0, [r7], {-0}
    2804:	05000002 	streq	r0, [r0, #-2]
    2808:	00029b07 	andeq	r9, r2, r7, lsl #22
    280c:	aa070600 	bge	1c4014 <__bss_end__+0x1ba204>
    2810:	07000002 	streq	r0, [r0, -r2]
    2814:	0002b907 	andeq	fp, r2, r7, lsl #18
    2818:	c8070300 	stmdagt	r7, {r8, r9}
    281c:	02000002 	andeq	r0, r0, #2, 0
    2820:	0a7f0500 	beq	1fc3c28 <__bss_end__+0x1fb9e18>
    2824:	15040000 	strne	r0, [r4, #-0]
    2828:	00008303 	andeq	r8, r0, r3, lsl #6
    282c:	09f00800 	ldmibeq	r0!, {fp}^
    2830:	1d010000 	stcne	0, cr0, [r1, #-0]
    2834:	00003317 	andeq	r3, r0, r7, lsl r3
    2838:	20001c00 	andcs	r1, r0, r0, lsl #24
    283c:	09e60820 	stmibeq	r6!, {r5, fp}^
    2840:	1e010000 	cdpne	0, 0, cr0, cr1, cr0, {0}
    2844:	00003317 	andeq	r3, r0, r7, lsl r3
    2848:	20002800 	andcs	r2, r0, r0, lsl #16
    284c:	0b1e0820 	bleq	7848d4 <__bss_end__+0x77aac4>
    2850:	1f010000 	svcne	0x00010000
    2854:	00003317 	andeq	r3, r0, r7, lsl r3
    2858:	20003400 	andcs	r3, r0, r0, lsl #8
    285c:	0a0f0920 	beq	3c4ce4 <__bss_end__+0x3baed4>
    2860:	55010000 	strpl	r0, [r1, #-0]
    2864:	00002505 	andeq	r2, r0, r5, lsl #10
    2868:	008dc400 	addeq	ip, sp, r0, lsl #8
    286c:	00003400 	andeq	r3, r0, r0, lsl #8
    2870:	6e9c0100 	fmlvse	f0, f4, f0
    2874:	0a000001 	beq	2880 <__code_start__-0x5780>
    2878:	006e6970 	rsbeq	r6, lr, r0, ror r9
    287c:	2c185501 	cfldr32cs	mvfx5, [r8], {1}
    2880:	27000000 	strcs	r0, [r0, -r0]
    2884:	1f000012 	svcne	0x00000012
    2888:	0b000012 	bleq	28d8 <__code_start__-0x5728>
    288c:	00000b28 	andeq	r0, r0, r8, lsr #22
    2890:	2c0e5801 	stccs	8, cr5, [lr], {1}
    2894:	67000000 	strvs	r0, [r0, -r0]
    2898:	61000012 	tstvs	r0, r2, lsl r0
    289c:	0c000012 	stceq	0, cr0, [r0], {18}
    28a0:	0066666f 	rsbeq	r6, r6, pc, ror #12
    28a4:	2c0e5901 			; <UNDEFINED> instruction: 0x2c0e5901
    28a8:	a7000000 	strge	r0, [r0, -r0]
    28ac:	a5000012 	strge	r0, [r0, #-18]	; 0xffffffee
    28b0:	0d000012 	stceq	0, cr0, [r0, #-72]	; 0xffffffb8
    28b4:	00008de0 	andeq	r8, r0, r0, ror #27
    28b8:	00000390 	muleq	r0, r0, r3
    28bc:	0b50010e 	bleq	1402cfc <__bss_end__+0x13f8eec>
    28c0:	355001f3 	ldrbcc	r0, [r0, #-499]	; 0xfffffe0d
    28c4:	80b42325 	adcshi	r2, r4, r5, lsr #6
    28c8:	00028180 	andeq	r8, r2, r0, lsl #3
    28cc:	09fa0f00 	ldmibeq	sl!, {r8, r9, sl, fp}^
    28d0:	4e010000 	cdpmi	0, 0, cr0, cr1, cr0, {0}
    28d4:	008da806 	addeq	sl, sp, r6, lsl #16
    28d8:	00001c00 	andeq	r1, r0, r0, lsl #24
    28dc:	c99c0100 	ldmibgt	ip, {r8}
    28e0:	0a000001 	beq	28ec <__code_start__-0x5714>
    28e4:	006e6970 	rsbeq	r6, lr, r0, ror r9
    28e8:	2c1a4e01 	ldccs	14, cr4, [sl], {1}
    28ec:	c2000000 	andgt	r0, r0, #0, 0
    28f0:	ba000012 	blt	2940 <__code_start__-0x56c0>
    28f4:	0a000012 	beq	2944 <__code_start__-0x56bc>
    28f8:	4e010076 	mcrmi	0, 0, r0, cr1, cr6, {3}
    28fc:	00002c28 	andeq	r2, r0, r8, lsr #24
    2900:	00130400 	andseq	r0, r3, r0, lsl #8
    2904:	0012fc00 	andseq	pc, r2, r0, lsl #24
    2908:	8db81000 	ldchi	0, cr1, [r8]
    290c:	02510000 	subseq	r0, r1, #0, 0
    2910:	01bf0000 			; <UNDEFINED> instruction: 0x01bf0000
    2914:	010e0000 	mrseq	r0, (UNDEF: 14)
    2918:	01f30350 	mvnseq	r0, r0, asr r3
    291c:	c0110050 	andsgt	r0, r1, r0, asr r0
    2920:	0a00008d 	beq	2b5c <__code_start__-0x54a4>
    2924:	00000002 	andeq	r0, r0, r2
    2928:	000a190f 	andeq	r1, sl, pc, lsl #18
    292c:	06490100 	strbeq	r0, [r9], -r0, lsl #2
    2930:	00008d98 	muleq	r0, r8, sp
    2934:	00000010 	andeq	r0, r0, r0, lsl r0
    2938:	020a9c01 	andeq	r9, sl, #256	; 0x100
    293c:	700a0000 	andvc	r0, sl, r0
    2940:	01006e69 	tsteq	r0, r9, ror #28
    2944:	002c1e49 	eoreq	r1, ip, r9, asr #28
    2948:	13420000 	movtne	r0, #8192	; 0x2000
    294c:	133e0000 	teqne	lr, #0, 0
    2950:	a40d0000 	strge	r0, [sp], #-0
    2954:	d900008d 	stmdble	r0, {r0, r2, r3, r7}
    2958:	0e000002 	cdpeq	0, 0, cr0, cr0, cr2, {0}
    295c:	f3035001 	vhadd.u8	d5, d3, d1
    2960:	010e5001 	tsteq	lr, r1
    2964:	00300151 	eorseq	r0, r0, r1, asr r1
    2968:	0a5d0f00 	beq	1746570 <__bss_end__+0x173c760>
    296c:	42010000 	andmi	r0, r1, #0, 0
    2970:	008d7406 	addeq	r7, sp, r6, lsl #8
    2974:	00002400 	andeq	r2, r0, r0, lsl #8
    2978:	519c0100 	orrspl	r0, ip, r0, lsl #2
    297c:	0a000002 	beq	298c <__code_start__-0x5674>
    2980:	006e6970 	rsbeq	r6, lr, r0, ror r9
    2984:	2c1c4201 	lfmcs	f4, 4, [ip], {1}
    2988:	67000000 	strvs	r0, [r0, -r0]
    298c:	63000013 	movwvs	r0, #19
    2990:	0d000013 	stceq	0, cr0, [r0, #-76]	; 0xffffffb4
    2994:	00008d90 	muleq	r0, r0, sp
    2998:	0000039c 	muleq	r0, ip, r3
    299c:	0550010e 	ldrbeq	r0, [r0, #-270]	; 0xfffffef2
    29a0:	2000280c 	andcs	r2, r0, ip, lsl #16
    29a4:	51010e20 	tstpl	r1, r0, lsr #28
    29a8:	01f33105 	mvnseq	r3, r5, lsl #2
    29ac:	00002450 	andeq	r2, r0, r0, asr r4
    29b0:	0004e60f 	andeq	lr, r4, pc, lsl #12
    29b4:	063b0100 	ldrteq	r0, [fp], -r0, lsl #2
    29b8:	00008d50 	andeq	r8, r0, r0, asr sp
    29bc:	00000024 	andeq	r0, r0, r4, lsr #32
    29c0:	02989c01 	addseq	r9, r8, #256	; 0x100
    29c4:	700a0000 	andvc	r0, sl, r0
    29c8:	01006e69 	tsteq	r0, r9, ror #28
    29cc:	002c1b3b 	eoreq	r1, ip, fp, lsr fp
    29d0:	138c0000 	orrne	r0, ip, #0, 0
    29d4:	13880000 	orrne	r0, r8, #0, 0
    29d8:	6c0d0000 	stcvs	0, cr0, [sp], {-0}
    29dc:	9c00008d 	stcls	0, cr0, [r0], {141}	; 0x8d
    29e0:	0e000003 	cdpeq	0, 0, cr0, cr0, cr3, {0}
    29e4:	0c055001 	stceq	0, cr5, [r5], {1}
    29e8:	2020001c 	eorcs	r0, r0, ip, lsl r0
    29ec:	0551010e 	ldrbeq	r0, [r1, #-270]	; 0xfffffef2
    29f0:	5001f331 	andpl	pc, r1, r1, lsr r3	; <UNPREDICTABLE>
    29f4:	0f000024 	svceq	0x00000024
    29f8:	00000a6a 	andeq	r0, r0, sl, ror #20
    29fc:	40063601 	andmi	r3, r6, r1, lsl #12
    2a00:	1000008d 	andne	r0, r0, sp, lsl #1
    2a04:	01000000 	mrseq	r0, (UNDEF: 0)
    2a08:	0002d99c 	muleq	r2, ip, r9
    2a0c:	69700a00 	ldmdbvs	r0!, {r9, fp}^
    2a10:	3601006e 	strcc	r0, [r1], -lr, rrx
    2a14:	00002c1f 	andeq	r2, r0, pc, lsl ip
    2a18:	0013b100 	andseq	fp, r3, r0, lsl #2
    2a1c:	0013ad00 	andseq	sl, r3, r0, lsl #26
    2a20:	8d4c0d00 	stclhi	13, cr0, [ip, #-0]
    2a24:	02d90000 	sbcseq	r0, r9, #0, 0
    2a28:	010e0000 	mrseq	r0, (UNDEF: 14)
    2a2c:	01f30350 	mvnseq	r0, r0, asr r3
    2a30:	51010e50 	tstpl	r1, r0, asr lr
    2a34:	00003101 	andeq	r3, r0, r1, lsl #2
    2a38:	0004a00f 	andeq	sl, r4, pc
    2a3c:	06280100 	strteq	r0, [r8], -r0, lsl #2
    2a40:	00008cdc 	ldrdeq	r8, [r0], -ip
    2a44:	00000064 	andeq	r0, r0, r4, rrx
    2a48:	03749c01 	cmneq	r4, #256	; 0x100
    2a4c:	700a0000 	andvc	r0, sl, r0
    2a50:	01006e69 	tsteq	r0, r9, ror #28
    2a54:	002c2128 	eoreq	r2, ip, r8, lsr #2
    2a58:	13d60000 	bicsne	r0, r6, #0, 0
    2a5c:	13d20000 	bicsne	r0, r2, #0, 0
    2a60:	7a120000 	bvc	482a68 <__bss_end__+0x478c58>
    2a64:	0100000a 	tsteq	r0, sl
    2a68:	00c23228 	sbceq	r3, r2, r8, lsr #4
    2a6c:	13fb0000 	mvnsne	r0, #0, 0
    2a70:	13f70000 	mvnsne	r0, #0, 0
    2a74:	6f0c0000 	svcvs	0x000c0000
    2a78:	01006666 	tsteq	r0, r6, ror #12
    2a7c:	002c0e2d 	eoreq	r0, ip, sp, lsr #28
    2a80:	141e0000 	ldrne	r0, [lr], #-0
    2a84:	141c0000 	ldrne	r0, [ip], #-0
    2a88:	670c0000 	strvs	r0, [ip, -r0]
    2a8c:	0e2e0100 	sufeqe	f0, f6, f0
    2a90:	0000002c 	andeq	r0, r0, ip, lsr #32
    2a94:	00001433 	andeq	r1, r0, r3, lsr r4
    2a98:	00001431 	andeq	r1, r0, r1, lsr r4
    2a9c:	0100760c 	tsteq	r0, ip, lsl #12
    2aa0:	002c0e30 	eoreq	r0, ip, r0, lsr lr
    2aa4:	144e0000 	strbne	r0, [lr], #-0
    2aa8:	14460000 	strbne	r0, [r6], #-0
    2aac:	24100000 	ldrcs	r0, [r0], #-0
    2ab0:	9000008d 	andls	r0, r0, sp, lsl #1
    2ab4:	63000003 	movwvs	r0, #3
    2ab8:	0e000003 	cdpeq	0, 0, cr0, cr0, cr3, {0}
    2abc:	76025001 	strvc	r5, [r2], -r1
    2ac0:	380d0000 	stmdacc	sp, {}	; <UNPREDICTABLE>
    2ac4:	9c00008d 	stcls	0, cr0, [r0], {141}	; 0x8d
    2ac8:	0e000003 	cdpeq	0, 0, cr0, cr0, cr3, {0}
    2acc:	76025001 	strvc	r5, [r2], -r1
    2ad0:	13000000 	movwne	r0, #0
    2ad4:	00000a05 	andeq	r0, r0, r5, lsl #20
    2ad8:	6218b602 	andsvs	fp, r8, #2097152	; 0x200000
    2adc:	03000000 	movweq	r0, #0
    2ae0:	00000390 	muleq	r0, r0, r3
    2ae4:	02007814 	andeq	r7, r0, #20, 16	; 0x140000
    2ae8:	00622bb6 	strhteq	r2, [r2], #-182	; 0xffffff4a
    2aec:	15000000 	strne	r0, [r0, #-0]
    2af0:	0000035e 	andeq	r0, r0, lr, asr r3
    2af4:	0000035e 	andeq	r0, r0, lr, asr r3
    2af8:	150ac702 	strne	ip, [sl, #-1794]	; 0xfffff8fe
    2afc:	000004bd 			; <UNDEFINED> instruction: 0x000004bd
    2b00:	000004bd 			; <UNDEFINED> instruction: 0x000004bd
    2b04:	0006b202 	andeq	fp, r6, r2, lsl #4
    2b08:	000005cd 	andeq	r0, r0, sp, asr #11
    2b0c:	0f450004 	svceq	0x00450004
    2b10:	01040000 	mrseq	r0, (UNDEF: 4)
    2b14:	00000a8b 	andeq	r0, r0, fp, lsl #21
    2b18:	000b620c 	andeq	r6, fp, ip, lsl #4
    2b1c:	000a2800 	andeq	r2, sl, r0, lsl #16
    2b20:	008df800 	addeq	pc, sp, r0, lsl #16
    2b24:	0001f000 	andeq	pc, r1, r0
    2b28:	001d4700 	andseq	r4, sp, r0, lsl #14
    2b2c:	05040200 	streq	r0, [r4, #-512]	; 0xfffffe00
    2b30:	00746e69 	rsbseq	r6, r4, r9, ror #28
    2b34:	7a070403 	bvc	1c3b48 <__bss_end__+0x1b9d38>
    2b38:	04000001 	streq	r0, [r0], #-1
    2b3c:	0000002c 	andeq	r0, r0, ip, lsr #32
    2b40:	6d060103 	stfvss	f0, [r6, #-12]
    2b44:	03000000 	movweq	r0, #0
    2b48:	01b80502 			; <UNDEFINED> instruction: 0x01b80502
    2b4c:	04030000 	streq	r0, [r3], #-0
    2b50:	0001a305 	andeq	sl, r1, r5, lsl #6
    2b54:	05080300 	streq	r0, [r8, #-768]	; 0xfffffd00
    2b58:	0000019e 	muleq	r0, lr, r1
    2b5c:	6b080103 	blvs	202f70 <__bss_end__+0x1f9160>
    2b60:	03000000 	movweq	r0, #0
    2b64:	00860702 	addeq	r0, r6, r2, lsl #14
    2b68:	c2050000 	andgt	r0, r5, #0, 0
    2b6c:	05000001 	streq	r0, [r0, #-1]
    2b70:	006e1934 	rsbeq	r1, lr, r4, lsr r9
    2b74:	04030000 	streq	r0, [r3], #-0
    2b78:	00017507 	andeq	r7, r1, r7, lsl #10
    2b7c:	07080300 	streq	r0, [r8, -r0, lsl #6]
    2b80:	00000170 	andeq	r0, r0, r0, ror r1
    2b84:	74080103 	strvc	r0, [r8], #-259	; 0xfffffefd
    2b88:	06000000 	streq	r0, [r0], -r0
    2b8c:	00540107 	subseq	r0, r4, r7, lsl #2
    2b90:	0c040000 	stceq	0, cr0, [r4], {-0}
    2b94:	0000c20e 	andeq	ip, r0, lr, lsl #4
    2b98:	039b0700 	orrseq	r0, fp, #0, 14
    2b9c:	07000000 	streq	r0, [r0, -r0]
    2ba0:	00000243 	andeq	r0, r0, r3, asr #4
    2ba4:	036e0701 	cmneq	lr, #262144	; 0x40000
    2ba8:	07040000 	streq	r0, [r4, -r0]
    2bac:	0000028c 	andeq	r0, r0, ip, lsl #5
    2bb0:	029b0705 	addseq	r0, fp, #1310720	; 0x140000
    2bb4:	07060000 	streq	r0, [r6, -r0]
    2bb8:	000002aa 	andeq	r0, r0, sl, lsr #5
    2bbc:	02b90707 	adcseq	r0, r9, #1835008	; 0x1c0000
    2bc0:	07030000 	streq	r0, [r3, -r0]
    2bc4:	000002c8 	andeq	r0, r0, r8, asr #5
    2bc8:	56080002 	strpl	r0, [r8], -r2
    2bcc:	2c00000b 	stccs	0, cr0, [r0], {11}
    2bd0:	5e080602 	cfmadd32pl	mvax0, mvfx0, mvfx8, mvfx2
    2bd4:	09000001 	stmdbeq	r0, {r0}
    2bd8:	02006f69 	andeq	r6, r0, #420	; 0x1a4
    2bdc:	00330909 	eorseq	r0, r3, r9, lsl #18
    2be0:	09000000 	stmdbeq	r0, {}	; <UNPREDICTABLE>
    2be4:	00726569 	rsbseq	r6, r2, r9, ror #10
    2be8:	33090a02 	movwcc	r0, #39426	; 0x9a02
    2bec:	04000000 	streq	r0, [r0], #-0
    2bf0:	72696909 	rsbvc	r6, r9, #147456	; 0x24000
    2bf4:	09110200 	ldmdbeq	r1, {r9}
    2bf8:	00000033 	andeq	r0, r0, r3, lsr r0
    2bfc:	636c0908 	cmnvs	ip, #8, 18	; 0x20000
    2c00:	13020072 	movwne	r0, #8306	; 0x2072
    2c04:	00003309 	andeq	r3, r0, r9, lsl #6
    2c08:	6d090c00 	stcvs	12, cr0, [r9, #-0]
    2c0c:	02007263 	andeq	r7, r0, #805306374	; 0x30000006
    2c10:	00330914 	eorseq	r0, r3, r4, lsl r9
    2c14:	09100000 	ldmdbeq	r0, {}	; <UNPREDICTABLE>
    2c18:	0072736c 	rsbseq	r7, r2, ip, ror #6
    2c1c:	33091502 	movwcc	r1, #38146	; 0x9502
    2c20:	14000000 	strne	r0, [r0], #-0
    2c24:	72736d09 	rsbsvc	r6, r3, #576	; 0x240
    2c28:	09160200 	ldmdbeq	r6, {r9}
    2c2c:	00000033 	andeq	r0, r0, r3, lsr r0
    2c30:	0bd00a18 	bleq	ff405498 <__bss_end__+0xff3fb688>
    2c34:	17020000 	strne	r0, [r2, -r0]
    2c38:	00003309 	andeq	r3, r0, r9, lsl #6
    2c3c:	a80a1c00 	stmdage	sl, {sl, fp, ip}
    2c40:	0200000b 	andeq	r0, r0, #11, 0
    2c44:	0033091b 	eorseq	r0, r3, fp, lsl r9
    2c48:	0a200000 	beq	802c50 <__bss_end__+0x7f8e40>
    2c4c:	00000b43 	andeq	r0, r0, r3, asr #22
    2c50:	33091d02 	movwcc	r1, #40194	; 0x9d02
    2c54:	24000000 	strcs	r0, [r0], #-0
    2c58:	000b8d0a 	andeq	r8, fp, sl, lsl #26
    2c5c:	091e0200 	ldmdbeq	lr, {r9}
    2c60:	00000033 	andeq	r0, r0, r3, lsr r0
    2c64:	920b0028 	andls	r0, fp, #40, 0	; 0x28
    2c68:	0100000b 	tsteq	r0, fp
    2c6c:	01740908 	cmneq	r4, r8, lsl #18
    2c70:	50040000 	andpl	r0, r4, r0
    2c74:	040c2021 	streq	r2, [ip], #-33	; 0xffffffdf
    2c78:	00000033 	andeq	r0, r0, r3, lsr r0
    2c7c:	00016e0d 	andeq	r6, r1, sp, lsl #28
    2c80:	0bd80b00 	bleq	ff605888 <__bss_end__+0xff5fba78>
    2c84:	29010000 	stmdbcs	r1, {}	; <UNPREDICTABLE>
    2c88:	00018f23 	andeq	r8, r1, r3, lsr #30
    2c8c:	21504000 	cmpcs	r0, r0
    2c90:	c2040c20 	andgt	r0, r4, #32, 24	; 0x2000
    2c94:	0d000000 	stceq	0, cr0, [r0, #-0]
    2c98:	00000189 	andeq	r0, r0, r9, lsl #3
    2c9c:	0008ca0e 	andeq	ip, r8, lr, lsl #20
    2ca0:	06cc0100 	strbeq	r0, [ip], r0, lsl #2
    2ca4:	00008fb0 			; <UNDEFINED> instruction: 0x00008fb0
    2ca8:	00000014 	andeq	r0, r0, r4, lsl r0
    2cac:	01b49c01 			; <UNDEFINED> instruction: 0x01b49c01
    2cb0:	b80f0000 	stmdalt	pc, {}	; <UNPREDICTABLE>
    2cb4:	b400008f 	strlt	r0, [r0], #-143	; 0xffffff71
    2cb8:	00000001 	andeq	r0, r0, r1
    2cbc:	000b7c10 	andeq	r7, fp, r0, lsl ip
    2cc0:	05b60100 	ldreq	r0, [r6, #256]!	; 0x100
    2cc4:	00000025 	andeq	r0, r0, r5, lsr #32
    2cc8:	00008f90 	muleq	r0, r0, pc	; <UNPREDICTABLE>
    2ccc:	00000020 	andeq	r0, r0, r0, lsr #32
    2cd0:	01eb9c01 	mvneq	r9, r1, lsl #24
    2cd4:	980f0000 	stmdals	pc, {}	; <UNPREDICTABLE>
    2cd8:	a000008f 	andge	r0, r0, pc, lsl #1
    2cdc:	11000005 	tstne	r0, r5
    2ce0:	00008fa0 	andeq	r8, r0, r0, lsr #31
    2ce4:	000005ac 	andeq	r0, r0, ip, lsr #11
    2ce8:	05500112 	ldrbeq	r0, [r0, #-274]	; 0xfffffeee
    2cec:	2150640c 	cmpcs	r0, ip, lsl #8
    2cf0:	10000020 	andne	r0, r0, r0, lsr #32
    2cf4:	00000bba 			; <UNDEFINED> instruction: 0x00000bba
    2cf8:	2505b301 	strcs	fp, [r5, #-769]	; 0xfffffcff
    2cfc:	80000000 	andhi	r0, r0, r0
    2d00:	1000008f 	andne	r0, r0, pc, lsl #1
    2d04:	01000000 	mrseq	r0, (UNDEF: 0)
    2d08:	0002189c 	muleq	r2, ip, r8
    2d0c:	8f880f00 	svchi	0x00880f00
    2d10:	05a00000 	streq	r0, [r0, #0]!
    2d14:	8c0f0000 	stchi	0, cr0, [pc], {-0}
    2d18:	0900008f 	stmdbeq	r0, {r0, r1, r2, r3, r7}
    2d1c:	00000003 	andeq	r0, r0, r3
    2d20:	000be60e 	andeq	lr, fp, lr, lsl #12
    2d24:	06ab0100 	strteq	r0, [fp], r0, lsl #2
    2d28:	00008f50 	andeq	r8, r0, r0, asr pc
    2d2c:	00000030 	andeq	r0, r0, r0, lsr r0
    2d30:	027c9c01 	rsbseq	r9, ip, #256	; 0x100
    2d34:	63130000 	tstvs	r3, #0, 0
    2d38:	19ab0100 	stmibne	fp!, {r8}
    2d3c:	0000002c 	andeq	r0, r0, ip, lsr #32
    2d40:	0000148e 	andeq	r1, r0, lr, lsl #9
    2d44:	0000148a 	andeq	r1, r0, sl, lsl #9
    2d48:	008f5c0f 	addeq	r5, pc, pc, lsl #24
    2d4c:	0005a000 	andeq	sl, r5, r0
    2d50:	8f600f00 	svchi	0x00600f00
    2d54:	02db0000 	sbcseq	r0, fp, #0, 0
    2d58:	74140000 	ldrvc	r0, [r4], #-0
    2d5c:	b800008f 	stmdalt	r0, {r0, r1, r2, r3, r7}
    2d60:	72000005 	andvc	r0, r0, #5, 0
    2d64:	12000002 	andne	r0, r0, #2, 0
    2d68:	0c055001 	stceq	0, cr5, [r5], {1}
    2d6c:	20215040 	eorcs	r5, r1, r0, asr #32
    2d70:	05510112 	ldrbeq	r0, [r1, #-274]	; 0xfffffeee
    2d74:	ff080074 			; <UNDEFINED> instruction: 0xff080074
    2d78:	780f001a 	stmdavc	pc, {r1, r3, r4}	; <UNPREDICTABLE>
    2d7c:	a000008f 	andge	r0, r0, pc, lsl #1
    2d80:	00000005 	andeq	r0, r0, r5
    2d84:	000b9e10 	andeq	r9, fp, r0, lsl lr
    2d88:	05a30100 	streq	r0, [r3, #256]!	; 0x100
    2d8c:	00000025 	andeq	r0, r0, r5, lsr #32
    2d90:	00008f20 	andeq	r8, r0, r0, lsr #30
    2d94:	00000030 	andeq	r0, r0, r0, lsr r0
    2d98:	02db9c01 	sbcseq	r9, fp, #256	; 0x100
    2d9c:	63150000 	tstvs	r5, #0, 0
    2da0:	09a70100 	stmibeq	r7!, {r8}
    2da4:	00000025 	andeq	r0, r0, r5, lsr #32
    2da8:	000014ae 	andeq	r1, r0, lr, lsr #9
    2dac:	000014ac 	andeq	r1, r0, ip, lsr #9
    2db0:	008f280f 	addeq	r2, pc, pc, lsl #16
    2db4:	0005a000 	andeq	sl, r5, r0
    2db8:	8f2c0f00 	svchi	0x002c0f00
    2dbc:	03090000 	movweq	r0, #36864	; 0x9000
    2dc0:	3c140000 	ldccc	0, cr0, [r4], {-0}
    2dc4:	ac00008f 	stcge	0, cr0, [r0], {143}	; 0x8f
    2dc8:	d1000005 	tstle	r0, r5
    2dcc:	12000002 	andne	r0, r0, #2, 0
    2dd0:	0c055001 	stceq	0, cr5, [r5], {1}
    2dd4:	20215040 	eorcs	r5, r1, r0, asr #32
    2dd8:	8f440f00 	svchi	0x00440f00
    2ddc:	05a00000 	streq	r0, [r0, #0]!
    2de0:	10000000 	andne	r0, r0, r0
    2de4:	00000b69 	andeq	r0, r0, r9, ror #22
    2de8:	25059401 	strcs	r9, [r5, #-1025]	; 0xfffffbff
    2dec:	00000000 	andeq	r0, r0, r0
    2df0:	2000008f 	andcs	r0, r0, pc, lsl #1
    2df4:	01000000 	mrseq	r0, (UNDEF: 0)
    2df8:	0003099c 	muleq	r3, ip, r9
    2dfc:	8f0c1100 	svchi	0x000c1100
    2e00:	05ac0000 	streq	r0, [ip, #0]!
    2e04:	01120000 	tsteq	r2, r0
    2e08:	640c0550 	strvs	r0, [ip], #-1360	; 0xfffffab0
    2e0c:	00202150 	eoreq	r2, r0, r0, asr r1
    2e10:	0b481000 	bleq	1206e18 <__bss_end__+0x11fd008>
    2e14:	8b010000 	blhi	42e1c <__bss_end__+0x3900c>
    2e18:	00002505 	andeq	r2, r0, r5, lsl #10
    2e1c:	008ee800 	addeq	lr, lr, r0, lsl #16
    2e20:	00001800 	andeq	r1, r0, r0, lsl #16
    2e24:	379c0100 	ldrcc	r0, [ip, r0, lsl #2]
    2e28:	11000003 	tstne	r0, r3
    2e2c:	00008ef4 	strdeq	r8, [r0], -r4
    2e30:	000005ac 	andeq	r0, r0, ip, lsr #11
    2e34:	05500112 	ldrbeq	r0, [r0, #-274]	; 0xfffffeee
    2e38:	2150640c 	cmpcs	r0, ip, lsl #8
    2e3c:	0e000020 	cdpeq	0, 0, cr0, cr0, cr0, {1}
    2e40:	000008e8 	andeq	r0, r0, r8, ror #17
    2e44:	38064501 	stmdacc	r6, {r0, r8, sl, lr}
    2e48:	b000008e 	andlt	r0, r0, lr, lsl #1
    2e4c:	01000000 	mrseq	r0, (UNDEF: 0)
    2e50:	0004849c 	muleq	r4, ip, r4
    2e54:	0b3a1600 	bleq	e8865c <__bss_end__+0xe7e84c>
    2e58:	7e010000 	cdpvc	0, 0, cr0, cr1, cr0, {0}
    2e5c:	0000620e 	andeq	r6, r0, lr, lsl #4
    2e60:	14010e00 	strne	r0, [r1], #-3584	; 0xfffff200
    2e64:	00008e48 	andeq	r8, r0, r8, asr #28
    2e68:	000005c4 	andeq	r0, r0, r4, asr #11
    2e6c:	00000373 	andeq	r0, r0, r3, ror r3
    2e70:	01500112 	cmpeq	r0, r2, lsl r1
    2e74:	5101123e 	tstpl	r1, lr, lsr r2
    2e78:	14003201 	strne	r3, [r0], #-513	; 0xfffffdff
    2e7c:	00008e54 	andeq	r8, r0, r4, asr lr
    2e80:	000005c4 	andeq	r0, r0, r4, asr #11
    2e84:	0000038b 	andeq	r0, r0, fp, lsl #7
    2e88:	01500112 	cmpeq	r0, r2, lsl r1
    2e8c:	5101123f 	tstpl	r1, pc, lsr r2
    2e90:	0f003201 	svceq	0x00003201
    2e94:	00008e58 	andeq	r8, r0, r8, asr lr
    2e98:	000005a0 	andeq	r0, r0, r0, lsr #11
    2e9c:	008e6414 	addeq	r6, lr, r4, lsl r4
    2ea0:	00053d00 	andeq	r3, r5, r0, lsl #26
    2ea4:	0003b000 	andeq	fp, r3, r0
    2ea8:	50011200 	andpl	r1, r1, r0, lsl #4
    2eac:	50040c05 	andpl	r0, r4, r5, lsl #24
    2eb0:	01122021 	tsteq	r2, r1, lsr #32
    2eb4:	00310151 	eorseq	r0, r1, r1, asr r1
    2eb8:	008e680f 	addeq	r6, lr, pc, lsl #16
    2ebc:	0005a000 	andeq	sl, r5, r0
    2ec0:	8e781400 	cdphi	4, 7, cr1, cr8, cr0, {0}
    2ec4:	05b80000 	ldreq	r0, [r8, #0]!
    2ec8:	03d20000 	bicseq	r0, r2, #0, 0
    2ecc:	01120000 	tsteq	r2, r0
    2ed0:	00740250 	rsbseq	r0, r4, r0, asr r2
    2ed4:	01510112 	cmpeq	r1, r2, lsl r1
    2ed8:	84140030 	ldrhi	r0, [r4], #-48	; 0xffffffd0
    2edc:	b800008e 	stmdalt	r0, {r1, r2, r3, r7}
    2ee0:	ee000005 	cdp	0, 0, cr0, cr0, cr5, {0}
    2ee4:	12000003 	andne	r0, r0, #3, 0
    2ee8:	0c055001 	stceq	0, cr5, [r5], {1}
    2eec:	20215044 	eorcs	r5, r1, r4, asr #32
    2ef0:	01510112 	cmpeq	r1, r2, lsl r1
    2ef4:	90140030 	andsls	r0, r4, r0, lsr r0
    2ef8:	b800008e 	stmdalt	r0, {r1, r2, r3, r7}
    2efc:	0a000005 	beq	2f18 <__code_start__-0x50e8>
    2f00:	12000004 	andne	r0, r0, #4, 0
    2f04:	0c055001 	stceq	0, cr5, [r5], {1}
    2f08:	2021504c 	eorcs	r5, r1, ip, asr #32
    2f0c:	01510112 	cmpeq	r1, r2, lsl r1
    2f10:	9c140033 	ldcls	0, cr0, [r4], {51}	; 0x33
    2f14:	b800008e 	stmdalt	r0, {r1, r2, r3, r7}
    2f18:	26000005 	strcs	r0, [r0], -r5
    2f1c:	12000004 	andne	r0, r0, #4, 0
    2f20:	0c055001 	stceq	0, cr5, [r5], {1}
    2f24:	20215050 	eorcs	r5, r1, r0, asr r0
    2f28:	01510112 	cmpeq	r1, r2, lsl r1
    2f2c:	a8140030 	ldmdage	r4, {r4, r5}
    2f30:	b800008e 	stmdalt	r0, {r1, r2, r3, r7}
    2f34:	43000005 	movwmi	r0, #5
    2f38:	12000004 	andne	r0, r0, #4, 0
    2f3c:	0c055001 	stceq	0, cr5, [r5], {1}
    2f40:	20215048 	eorcs	r5, r1, r8, asr #32
    2f44:	02510112 	subseq	r0, r1, #-2147483644	; 0x80000004
    2f48:	1400c708 	strne	ip, [r0], #-1800	; 0xfffff8f8
    2f4c:	00008eb4 			; <UNDEFINED> instruction: 0x00008eb4
    2f50:	000005b8 			; <UNDEFINED> instruction: 0x000005b8
    2f54:	00000461 	andeq	r0, r0, r1, ror #8
    2f58:	05500112 	ldrbeq	r0, [r0, #-274]	; 0xfffffeee
    2f5c:	2150680c 	cmpcs	r0, ip, lsl #16
    2f60:	51011220 	tstpl	r1, r0, lsr #4
    2f64:	010e0a03 	tsteq	lr, r3, lsl #20
    2f68:	8ec01400 	cdphi	4, 12, cr1, cr0, cr0, {0}
    2f6c:	05b80000 	ldreq	r0, [r8, #0]!
    2f70:	047a0000 	ldrbteq	r0, [sl], #-0
    2f74:	01120000 	tsteq	r2, r0
    2f78:	00740250 	rsbseq	r0, r4, r0, asr r2
    2f7c:	01510112 	cmpeq	r1, r2, lsl r1
    2f80:	c40f0033 	strgt	r0, [pc], #-51	; 2f88 <__code_start__-0x5078>
    2f84:	a000008e 	andge	r0, r0, lr, lsl #1
    2f88:	00000005 	andeq	r0, r0, r5
    2f8c:	000bad0e 	andeq	sl, fp, lr, lsl #26
    2f90:	06350100 	ldrteq	r0, [r5], -r0, lsl #2
    2f94:	00008fc4 	andeq	r8, r0, r4, asr #31
    2f98:	00000024 	andeq	r0, r0, r4, lsr #32
    2f9c:	04d39c01 	ldrbeq	r9, [r3], #3073	; 0xc01
    2fa0:	cc0f0000 	stcgt	0, cr0, [pc], {-0}
    2fa4:	9400008f 	strls	r0, [r0], #-143	; 0xffffff71
    2fa8:	0f000001 	svceq	0x00000001
    2fac:	00008fd0 	ldrdeq	r8, [r0], -r0
    2fb0:	000005a0 	andeq	r0, r0, r0, lsr #11
    2fb4:	008fdc14 	addeq	sp, pc, r4, lsl ip	; <UNPREDICTABLE>
    2fb8:	0004d300 	andeq	sp, r4, r0, lsl #6
    2fbc:	0004c900 	andeq	ip, r4, r0, lsl #18
    2fc0:	50011200 	andpl	r1, r1, r0, lsl #4
    2fc4:	50040c05 	andpl	r0, r4, r5, lsl #24
    2fc8:	01122021 	tsteq	r2, r1, lsr #32
    2fcc:	fe090251 	mcr2	2, 0, r0, cr9, cr1, {2}
    2fd0:	8fe00f00 	svchi	0x00e00f00
    2fd4:	05a00000 	streq	r0, [r0, #0]!
    2fd8:	17000000 	strne	r0, [r0, -r0]
    2fdc:	00000bdd 	ldrdeq	r0, [r0], -sp
    2fe0:	f80d3101 			; <UNDEFINED> instruction: 0xf80d3101
    2fe4:	2000008d 	andcs	r0, r0, sp, lsl #1
    2fe8:	01000000 	mrseq	r0, (UNDEF: 0)
    2fec:	0005369c 	muleq	r5, ip, r6
    2ff0:	0b771800 	bleq	1dc8ff8 <__bss_end__+0x1dbf1e8>
    2ff4:	31010000 	mrscc	r0, (UNDEF: 1)
    2ff8:	00053625 	andeq	r3, r5, r5, lsr #12
    2ffc:	0014c500 	andseq	ip, r4, r0, lsl #10
    3000:	0014c100 	andseq	ip, r4, r0, lsl #2
    3004:	61761300 	cmnvs	r6, r0, lsl #6
    3008:	3101006c 	tstcc	r1, ip, rrx
    300c:	00002c34 	andeq	r2, r0, r4, lsr ip
    3010:	0014e700 	andseq	lr, r4, r0, lsl #14
    3014:	0014e300 	andseq	lr, r4, r0, lsl #6
    3018:	8e081400 	cfcpyshi	mvf1, mvf8
    301c:	05ac0000 	streq	r0, [ip, #0]!
    3020:	05250000 	streq	r0, [r5, #-0]!
    3024:	01120000 	tsteq	r2, r0
    3028:	00740250 	rsbseq	r0, r4, r0, asr r2
    302c:	8e141100 	mufhis	f1, f4, f0
    3030:	05b80000 	ldreq	r0, [r8, #0]!
    3034:	01120000 	tsteq	r2, r0
    3038:	00740250 	rsbseq	r0, r4, r0, asr r2
    303c:	040c0000 	streq	r0, [ip], #-0
    3040:	0000053c 	andeq	r0, r0, ip, lsr r5
    3044:	0bc81719 	bleq	ff208cb0 <__bss_end__+0xff1feea0>
    3048:	2e010000 	cdpcs	0, 0, cr0, cr1, cr0, {0}
    304c:	008e180d 	addeq	r1, lr, sp, lsl #16
    3050:	00002000 	andeq	r2, r0, r0
    3054:	a09c0100 	addsge	r0, ip, r0, lsl #2
    3058:	18000005 	stmdane	r0, {r0, r2}
    305c:	00000b77 	andeq	r0, r0, r7, ror fp
    3060:	36242e01 	strtcc	r2, [r4], -r1, lsl #28
    3064:	09000005 	stmdbeq	r0, {r0, r2}
    3068:	05000015 	streq	r0, [r0, #-21]	; 0xffffffeb
    306c:	13000015 	movwne	r0, #21
    3070:	006c6176 	rsbeq	r6, ip, r6, ror r1
    3074:	2c332e01 	ldccs	14, cr2, [r3], #-4
    3078:	2b000000 	blcs	3080 <__code_start__-0x4f80>
    307c:	27000015 	smladcs	r0, r5, r0, r0
    3080:	14000015 	strne	r0, [r0], #-21	; 0xffffffeb
    3084:	00008e28 	andeq	r8, r0, r8, lsr #28
    3088:	000005ac 	andeq	r0, r0, ip, lsr #11
    308c:	0000058f 	andeq	r0, r0, pc, lsl #11
    3090:	02500112 	subseq	r0, r0, #-2147483644	; 0x80000004
    3094:	11000074 	tstne	r0, r4, ror r0
    3098:	00008e34 	andeq	r8, r0, r4, lsr lr
    309c:	000005b8 			; <UNDEFINED> instruction: 0x000005b8
    30a0:	02500112 	subseq	r0, r0, #-2147483644	; 0x80000004
    30a4:	00000074 	andeq	r0, r0, r4, ror r0
    30a8:	0004591a 	andeq	r5, r4, sl, lsl r9
    30ac:	00045900 	andeq	r5, r4, r0, lsl #18
    30b0:	06a10300 	strteq	r0, [r1], r0, lsl #6
    30b4:	000bf01a 	andeq	pc, fp, sl, lsl r0	; <UNPREDICTABLE>
    30b8:	000bf000 	andeq	pc, fp, r0
    30bc:	0bc80300 	bleq	ff203cc4 <__bss_end__+0xff1f9eb4>
    30c0:	000b341a 	andeq	r3, fp, sl, lsl r4
    30c4:	000b3400 	andeq	r3, fp, r0, lsl #8
    30c8:	06b30300 	ldrteq	r0, [r3], r0, lsl #6
    30cc:	0004a01a 	andeq	sl, r4, sl, lsl r0
    30d0:	0004a000 	andeq	sl, r4, r0
    30d4:	06190400 	ldreq	r0, [r9], -r0, lsl #8
    30d8:	00014900 	andeq	r4, r1, r0, lsl #18
    30dc:	dd000400 	cfstrsle	mvf0, [r0, #-0]
    30e0:	04000010 	streq	r0, [r0], #-16
    30e4:	00062d01 	andeq	r2, r6, r1, lsl #26
    30e8:	0c140c00 	ldceq	12, cr0, [r4], {-0}
    30ec:	07150000 	ldreq	r0, [r5, -r0]
    30f0:	8fe80000 	svchi	0x00e80000
    30f4:	003c0000 	eorseq	r0, ip, r0
    30f8:	1f500000 	svcne	0x00500000
    30fc:	04020000 	streq	r0, [r2], #-0
    3100:	746e6905 	strbtvc	r6, [lr], #-2309	; 0xfffff6fb
    3104:	07040300 	streq	r0, [r4, -r0, lsl #6]
    3108:	0000017a 	andeq	r0, r0, sl, ror r1
    310c:	6d060103 	stfvss	f0, [r6, #-12]
    3110:	03000000 	movweq	r0, #0
    3114:	01b80502 			; <UNDEFINED> instruction: 0x01b80502
    3118:	04030000 	streq	r0, [r3], #-0
    311c:	0001a305 	andeq	sl, r1, r5, lsl #6
    3120:	05080300 	streq	r0, [r8, #-768]	; 0xfffffd00
    3124:	0000019e 	muleq	r0, lr, r1
    3128:	6b080103 	blvs	20353c <__bss_end__+0x1f972c>
    312c:	03000000 	movweq	r0, #0
    3130:	00860702 	addeq	r0, r6, r2, lsl #14
    3134:	04030000 	streq	r0, [r3], #-0
    3138:	00017507 	andeq	r7, r1, r7, lsl #10
    313c:	07080300 	streq	r0, [r8, -r0, lsl #6]
    3140:	00000170 	andeq	r0, r0, r0, ror r1
    3144:	00002504 	andeq	r2, r0, r4, lsl #10
    3148:	00007a00 	andeq	r7, r0, r0, lsl #20
    314c:	00250500 	eoreq	r0, r5, r0, lsl #10
    3150:	06000000 	streq	r0, [r0], -r0
    3154:	000001ac 	andeq	r0, r0, ip, lsr #3
    3158:	860e1c02 	strhi	r1, [lr], -r2, lsl #24
    315c:	07000000 	streq	r0, [r0, -r0]
    3160:	00006b04 	andeq	r6, r0, r4, lsl #22
    3164:	00250400 	eoreq	r0, r5, r0, lsl #8
    3168:	009b0000 	addseq	r0, fp, r0
    316c:	9b050000 	blls	143174 <__bss_end__+0x139364>
    3170:	00000000 	andeq	r0, r0, r0
    3174:	00a80407 	adceq	r0, r8, r7, lsl #8
    3178:	01030000 	mrseq	r0, (UNDEF: 3)
    317c:	00007408 	andeq	r7, r0, r8, lsl #8
    3180:	00a10800 	adceq	r0, r1, r0, lsl #16
    3184:	84060000 	strhi	r0, [r6], #-0
    3188:	02000007 	andeq	r0, r0, #7, 0
    318c:	00b90e21 	adcseq	r0, r9, r1, lsr #28
    3190:	04070000 	streq	r0, [r7], #-0
    3194:	0000008c 	andeq	r0, r0, ip, lsl #1
    3198:	00007a09 	andeq	r7, r0, r9, lsl #20
    319c:	07060100 	streq	r0, [r6, -r0, lsl #2]
    31a0:	9a080305 	bls	203dbc <__bss_end__+0x1f9fac>
    31a4:	070a0000 	streq	r0, [sl, -r0]
    31a8:	0100000c 	tsteq	r0, ip
    31ac:	9014060b 	andsls	r0, r4, fp, lsl #12
    31b0:	00100000 	andseq	r0, r0, r0
    31b4:	9c010000 	stcls	0, cr0, [r1], {-0}
    31b8:	000000f1 	strdeq	r0, [r0], -r1
    31bc:	0070660b 	rsbseq	r6, r0, fp, lsl #12
    31c0:	86190b01 	ldrhi	r0, [r9], -r1, lsl #22
    31c4:	01000000 	mrseq	r0, (UNDEF: 0)
    31c8:	250c0050 	strcs	r0, [ip, #-80]	; 0xffffffb0
    31cc:	0100000c 	tsteq	r0, ip
    31d0:	8ffc0608 	svchi	0x00fc0608
    31d4:	00180000 	andseq	r0, r8, r0
    31d8:	9c010000 	stcls	0, cr0, [r1], {-0}
    31dc:	000bf60d 	andeq	pc, fp, sp, lsl #12
    31e0:	0c030100 	stfeqs	f0, [r3], {-0}
    31e4:	00000025 	andeq	r0, r0, r5, lsr #32
    31e8:	00008fe8 	andeq	r8, r0, r8, ror #31
    31ec:	00000014 	andeq	r0, r0, r4, lsl r0
    31f0:	01409c01 	cmpeq	r0, r1, lsl #24
    31f4:	630e0000 	movwvs	r0, #57344	; 0xe000
    31f8:	21030100 	mrscs	r0, (UNDEF: 19)
    31fc:	00000025 	andeq	r0, r0, r5, lsr #32
    3200:	0000154d 	andeq	r1, r0, sp, asr #10
    3204:	00001549 	andeq	r1, r0, r9, asr #10
    3208:	008ff40f 	addeq	pc, pc, pc, lsl #8
    320c:	00014000 	andeq	r4, r1, r0
    3210:	50011000 	andpl	r1, r1, r0
    3214:	00007402 	andeq	r7, r0, r2, lsl #8
    3218:	0be61100 	bleq	ff987620 <__bss_end__+0xff97d810>
    321c:	0be60000 	bleq	ff983224 <__bss_end__+0xff979414>
    3220:	42020000 	andmi	r0, r2, #0, 0
    3224:	01370006 	teqeq	r7, r6
    3228:	00040000 	andeq	r0, r4, r0
    322c:	000011ec 	andeq	r1, r0, ip, ror #3
    3230:	062d0104 	strteq	r0, [sp], -r4, lsl #2
    3234:	390c0000 	stmdbcc	ip, {}	; <UNPREDICTABLE>
    3238:	1500000c 	strne	r0, [r0, #-12]
    323c:	24000007 	strcs	r0, [r0], #-7
    3240:	34000090 	strcc	r0, [r0], #-144	; 0xffffff70
    3244:	11000000 	mrsne	r0, (UNDEF: 0)
    3248:	02000020 	andeq	r0, r0, #32, 0
    324c:	6e690504 	cdpvs	5, 6, cr0, cr9, cr4, {0}
    3250:	04030074 	streq	r0, [r3], #-116	; 0xffffff8c
    3254:	00017a07 	andeq	r7, r1, r7, lsl #20
    3258:	06010300 	streq	r0, [r1], -r0, lsl #6
    325c:	0000006d 	andeq	r0, r0, sp, rrx
    3260:	b8050203 	stmdalt	r5, {r0, r1, r9}
    3264:	03000001 	movweq	r0, #1
    3268:	01a30504 			; <UNDEFINED> instruction: 0x01a30504
    326c:	08030000 	stmdaeq	r3, {}	; <UNPREDICTABLE>
    3270:	00019e05 	andeq	r9, r1, r5, lsl #28
    3274:	08010300 	stmdaeq	r1, {r8, r9}
    3278:	0000006b 	andeq	r0, r0, fp, rrx
    327c:	86070203 	strhi	r0, [r7], -r3, lsl #4
    3280:	03000000 	movweq	r0, #0
    3284:	01750704 	cmneq	r5, r4, lsl #14
    3288:	08030000 	stmdaeq	r3, {}	; <UNPREDICTABLE>
    328c:	00017007 	andeq	r7, r1, r7
    3290:	00250400 	eoreq	r0, r5, r0, lsl #8
    3294:	007a0000 	rsbseq	r0, sl, r0
    3298:	25050000 	strcs	r0, [r5, #-0]
    329c:	00000000 	andeq	r0, r0, r0
    32a0:	0001ac06 	andeq	sl, r1, r6, lsl #24
    32a4:	0e1c0200 	cdpeq	2, 1, cr0, cr12, cr0, {0}
    32a8:	00000086 	andeq	r0, r0, r6, lsl #1
    32ac:	006b0407 	rsbeq	r0, fp, r7, lsl #8
    32b0:	25040000 	strcs	r0, [r4, #-0]
    32b4:	9b000000 	blls	32bc <__code_start__-0x4d44>
    32b8:	05000000 	streq	r0, [r0, #-0]
    32bc:	0000009b 	muleq	r0, fp, r0
    32c0:	a8040700 	stmdage	r4, {r8, r9, sl}
    32c4:	03000000 	movweq	r0, #0
    32c8:	00740801 	rsbseq	r0, r4, r1, lsl #16
    32cc:	a1080000 	mrsge	r0, (UNDEF: 8)
    32d0:	06000000 	streq	r0, [r0], -r0
    32d4:	00000784 	andeq	r0, r0, r4, lsl #15
    32d8:	b90e2102 	stmdblt	lr, {r1, r8, sp}
    32dc:	07000000 	streq	r0, [r0, -r0]
    32e0:	00008c04 	andeq	r8, r0, r4, lsl #24
    32e4:	085b0900 	ldmdaeq	fp, {r8, fp}^
    32e8:	04010000 	streq	r0, [r1], #-0
    32ec:	00013407 	andeq	r3, r1, r7, lsl #8
    32f0:	00902400 	addseq	r2, r0, r0, lsl #8
    32f4:	00003400 	andeq	r3, r0, r0, lsl #8
    32f8:	349c0100 	ldrcc	r0, [ip], #256	; 0x100
    32fc:	0a000001 	beq	3308 <__code_start__-0x4cf8>
    3300:	00000c34 	andeq	r0, r0, r4, lsr ip
    3304:	34150401 	ldrcc	r0, [r5], #-1025	; 0xfffffbff
    3308:	01000001 	tsteq	r0, r1
    330c:	72730b50 	rsbsvc	r0, r3, #80, 22	; 0x14000
    3310:	04010063 	streq	r0, [r1], #-99	; 0xffffff9d
    3314:	00009b27 	andeq	r9, r0, r7, lsr #22
    3318:	00156f00 	andseq	r6, r5, r0, lsl #30
    331c:	00156b00 	andseq	r6, r5, r0, lsl #22
    3320:	31730c00 	cmncc	r3, r0, lsl #24
    3324:	0b050100 	bleq	14372c <__bss_end__+0x13991c>
    3328:	00000134 	andeq	r0, r0, r4, lsr r1
    332c:	0000159a 	muleq	r0, sl, r5
    3330:	00001590 	muleq	r0, r0, r5
    3334:	0032730c 	eorseq	r7, r2, ip, lsl #6
    3338:	9b110601 	blls	444b44 <__bss_end__+0x43ad34>
    333c:	df000000 	svcle	0x00000000
    3340:	db000015 	blle	339c <__code_start__-0x4c64>
    3344:	0c000015 	stceq	0, cr0, [r0], {21}
    3348:	07010063 	streq	r0, [r1, -r3, rrx]
    334c:	0000a10a 	andeq	sl, r0, sl, lsl #2
    3350:	00160300 	andseq	r0, r6, r0, lsl #6
    3354:	0015ff00 	andseq	pc, r5, r0, lsl #30
    3358:	04070000 	streq	r0, [r7], #-0
    335c:	000000a1 	andeq	r0, r0, r1, lsr #1
    3360:	0000f700 	andeq	pc, r0, r0, lsl #14
    3364:	a2000400 	andge	r0, r0, #0, 8
    3368:	04000012 	streq	r0, [r0], #-18	; 0xffffffee
    336c:	00062d01 	andeq	r2, r6, r1, lsl #26
    3370:	0c490c00 	mcrreq	12, 0, r0, r9, cr0
    3374:	07150000 	ldreq	r0, [r5, -r0]
    3378:	90580000 	subsls	r0, r8, r0
    337c:	002c0000 	eoreq	r0, ip, r0
    3380:	211e0000 	tstcs	lr, r0
    3384:	04020000 	streq	r0, [r2], #-0
    3388:	746e6905 	strbtvc	r6, [lr], #-2309	; 0xfffff6fb
    338c:	07040300 	streq	r0, [r4, -r0, lsl #6]
    3390:	0000017a 	andeq	r0, r0, sl, ror r1
    3394:	6d060103 	stfvss	f0, [r6, #-12]
    3398:	03000000 	movweq	r0, #0
    339c:	01b80502 			; <UNDEFINED> instruction: 0x01b80502
    33a0:	04030000 	streq	r0, [r3], #-0
    33a4:	0001a305 	andeq	sl, r1, r5, lsl #6
    33a8:	05080300 	streq	r0, [r8, #-768]	; 0xfffffd00
    33ac:	0000019e 	muleq	r0, lr, r1
    33b0:	6b080103 	blvs	2037c4 <__bss_end__+0x1f99b4>
    33b4:	03000000 	movweq	r0, #0
    33b8:	00860702 	addeq	r0, r6, r2, lsl #14
    33bc:	04030000 	streq	r0, [r3], #-0
    33c0:	00017507 	andeq	r7, r1, r7, lsl #10
    33c4:	07080300 	streq	r0, [r8, -r0, lsl #6]
    33c8:	00000170 	andeq	r0, r0, r0, ror r1
    33cc:	00002504 	andeq	r2, r0, r4, lsl #10
    33d0:	00007a00 	andeq	r7, r0, r0, lsl #20
    33d4:	00250500 	eoreq	r0, r5, r0, lsl #10
    33d8:	06000000 	streq	r0, [r0], -r0
    33dc:	000001ac 	andeq	r0, r0, ip, lsr #3
    33e0:	860e1c02 	strhi	r1, [lr], -r2, lsl #24
    33e4:	07000000 	streq	r0, [r0, -r0]
    33e8:	00006b04 	andeq	r6, r0, r4, lsl #22
    33ec:	00250400 	eoreq	r0, r5, r0, lsl #8
    33f0:	009b0000 	addseq	r0, fp, r0
    33f4:	9b050000 	blls	1433fc <__bss_end__+0x1395ec>
    33f8:	00000000 	andeq	r0, r0, r0
    33fc:	00a80407 	adceq	r0, r8, r7, lsl #8
    3400:	01030000 	mrseq	r0, (UNDEF: 3)
    3404:	00007408 	andeq	r7, r0, r8, lsl #8
    3408:	00a10800 	adceq	r0, r1, r0, lsl #16
    340c:	84060000 	strhi	r0, [r6], #-0
    3410:	02000007 	andeq	r0, r0, #7, 0
    3414:	00b90e21 	adcseq	r0, r9, r1, lsr #28
    3418:	04070000 	streq	r0, [r7], #-0
    341c:	0000008c 	andeq	r0, r0, ip, lsl #1
    3420:	00086209 	andeq	r6, r8, r9, lsl #4
    3424:	05030100 	streq	r0, [r3, #-256]	; 0xffffff00
    3428:	00000025 	andeq	r0, r0, r5, lsr #32
    342c:	00009058 	andeq	r9, r0, r8, asr r0
    3430:	0000002c 	andeq	r0, r0, ip, lsr #32
    3434:	610a9c01 	tstvs	sl, r1, lsl #24
    3438:	18030100 	stmdane	r3, {r8}
    343c:	0000009b 	muleq	r0, fp, r0
    3440:	00001625 	andeq	r1, r0, r5, lsr #12
    3444:	00001621 	andeq	r1, r0, r1, lsr #12
    3448:	0100620a 	tsteq	r0, sl, lsl #4
    344c:	009b2703 	addseq	r2, fp, r3, lsl #14
    3450:	16470000 	strbne	r0, [r7], -r0
    3454:	16430000 	strbne	r0, [r3], -r0
    3458:	00000000 	andeq	r0, r0, r0
    345c:	0000010f 	andeq	r0, r0, pc, lsl #2
    3460:	13310004 	teqne	r1, #4, 0
    3464:	01040000 	mrseq	r0, (UNDEF: 4)
    3468:	0000062d 	andeq	r0, r0, sp, lsr #12
    346c:	000c590c 	andeq	r5, ip, ip, lsl #18
    3470:	00071500 	andeq	r1, r7, r0, lsl #10
    3474:	00908400 	addseq	r8, r0, r0, lsl #8
    3478:	00002000 	andeq	r2, r0, r0
    347c:	0021e400 	eoreq	lr, r1, r0, lsl #8
    3480:	05040200 	streq	r0, [r4, #-512]	; 0xfffffe00
    3484:	00746e69 	rsbseq	r6, r4, r9, ror #28
    3488:	7a070403 	bvc	1c449c <__bss_end__+0x1ba68c>
    348c:	03000001 	movweq	r0, #1
    3490:	006d0601 	rsbeq	r0, sp, r1, lsl #12
    3494:	02030000 	andeq	r0, r3, #0, 0
    3498:	0001b805 	andeq	fp, r1, r5, lsl #16
    349c:	05040300 	streq	r0, [r4, #-768]	; 0xfffffd00
    34a0:	000001a3 	andeq	r0, r0, r3, lsr #3
    34a4:	9e050803 	cdpls	8, 0, cr0, cr5, cr3, {0}
    34a8:	03000001 	movweq	r0, #1
    34ac:	006b0801 	rsbeq	r0, fp, r1, lsl #16
    34b0:	02030000 	andeq	r0, r3, #0, 0
    34b4:	00008607 	andeq	r8, r0, r7, lsl #12
    34b8:	07040300 	streq	r0, [r4, -r0, lsl #6]
    34bc:	00000175 	andeq	r0, r0, r5, ror r1
    34c0:	70070803 	andvc	r0, r7, r3, lsl #16
    34c4:	04000001 	streq	r0, [r0], #-1
    34c8:	00000025 	andeq	r0, r0, r5, lsr #32
    34cc:	0000007a 	andeq	r0, r0, sl, ror r0
    34d0:	00002505 	andeq	r2, r0, r5, lsl #10
    34d4:	ac060000 	stcge	0, cr0, [r6], {-0}
    34d8:	02000001 	andeq	r0, r0, #1, 0
    34dc:	00860e1c 	addeq	r0, r6, ip, lsl lr
    34e0:	04070000 	streq	r0, [r7], #-0
    34e4:	0000006b 	andeq	r0, r0, fp, rrx
    34e8:	00002504 	andeq	r2, r0, r4, lsl #10
    34ec:	00009b00 	andeq	r9, r0, r0, lsl #22
    34f0:	009b0500 	addseq	r0, fp, r0, lsl #10
    34f4:	07000000 	streq	r0, [r0, -r0]
    34f8:	0000a804 	andeq	sl, r0, r4, lsl #16
    34fc:	08010300 	stmdaeq	r1, {r8, r9}
    3500:	00000074 	andeq	r0, r0, r4, ror r0
    3504:	0000a108 	andeq	sl, r0, r8, lsl #2
    3508:	07840600 	streq	r0, [r4, r0, lsl #12]
    350c:	21020000 	mrscs	r0, (UNDEF: 2)
    3510:	0000b90e 	andeq	fp, r0, lr, lsl #18
    3514:	8c040700 	stchi	7, cr0, [r4], {-0}
    3518:	09000000 	stmdbeq	r0, {}	; <UNPREDICTABLE>
    351c:	00000827 	andeq	r0, r0, r7, lsr #16
    3520:	0c070301 	stceq	3, cr0, [r7], {1}
    3524:	84000001 	strhi	r0, [r0], #-1
    3528:	20000090 	mulcs	r0, r0, r0
    352c:	01000000 	mrseq	r0, (UNDEF: 0)
    3530:	00010c9c 	muleq	r1, ip, ip
    3534:	31730a00 	cmncc	r3, r0, lsl #20
    3538:	15030100 	strne	r0, [r3, #-256]	; 0xffffff00
    353c:	0000010c 	andeq	r0, r0, ip, lsl #2
    3540:	730b5001 	movwvc	r5, #45057	; 0xb001
    3544:	03010032 	movweq	r0, #4146	; 0x1032
    3548:	00009b26 	andeq	r9, r0, r6, lsr #22
    354c:	00166b00 	andseq	r6, r6, r0, lsl #22
    3550:	00166500 	andseq	r6, r6, r0, lsl #10
    3554:	00730c00 	rsbseq	r0, r3, r0, lsl #24
    3558:	0c140401 	cfldrseq	mvf0, [r4], {1}
    355c:	9c000001 	stcls	0, cr0, [r0], {1}
    3560:	96000016 			; <UNDEFINED> instruction: 0x96000016
    3564:	00000016 	andeq	r0, r0, r6, lsl r0
    3568:	00a10407 	adceq	r0, r1, r7, lsl #8
    356c:	4e000000 	cdpmi	0, 0, cr0, cr0, cr0, {0}
    3570:	04000001 	streq	r0, [r0], #-1
    3574:	0013e700 	andseq	lr, r3, r0, lsl #14
    3578:	2d010400 	cfstrscs	mvf0, [r1, #-0]
    357c:	0c000006 	stceq	0, cr0, [r0], {6}
    3580:	00000c70 	andeq	r0, r0, r0, ror ip
    3584:	00000715 	andeq	r0, r0, r5, lsl r7
    3588:	000000b8 	strheq	r0, [r0], -r8
    358c:	00000000 	andeq	r0, r0, r0
    3590:	000022a8 	andeq	r2, r0, r8, lsr #5
    3594:	69050402 	stmdbvs	r5, {r1, sl}
    3598:	0300746e 	movweq	r7, #1134	; 0x46e
    359c:	00000c69 	andeq	r0, r0, r9, ror #24
    35a0:	3817d103 	ldmdacc	r7, {r0, r1, r8, ip, lr, pc}
    35a4:	04000000 	streq	r0, [r0], #-0
    35a8:	017a0704 	cmneq	sl, r4, lsl #14
    35ac:	01040000 	mrseq	r0, (UNDEF: 4)
    35b0:	00006d06 	andeq	r6, r0, r6, lsl #26
    35b4:	05020400 	streq	r0, [r2, #-1024]	; 0xfffffc00
    35b8:	000001b8 			; <UNDEFINED> instruction: 0x000001b8
    35bc:	a3050404 	movwge	r0, #21508	; 0x5404
    35c0:	04000001 	streq	r0, [r0], #-1
    35c4:	019e0508 	orrseq	r0, lr, r8, lsl #10
    35c8:	01040000 	mrseq	r0, (UNDEF: 4)
    35cc:	00006b08 	andeq	r6, r0, r8, lsl #22
    35d0:	005b0500 	subseq	r0, fp, r0, lsl #10
    35d4:	02040000 	andeq	r0, r4, #0, 0
    35d8:	00008607 	andeq	r8, r0, r7, lsl #12
    35dc:	07040400 	streq	r0, [r4, -r0, lsl #8]
    35e0:	00000175 	andeq	r0, r0, r5, ror r1
    35e4:	70070804 	andvc	r0, r7, r4, lsl #16
    35e8:	06000001 	streq	r0, [r0], -r1
    35ec:	00000025 	andeq	r0, r0, r5, lsr #32
    35f0:	0000008b 	andeq	r0, r0, fp, lsl #1
    35f4:	00002507 	andeq	r2, r0, r7, lsl #10
    35f8:	ac080000 	stcge	0, cr0, [r8], {-0}
    35fc:	02000001 	andeq	r0, r0, #1, 0
    3600:	00970e1c 	addseq	r0, r7, ip, lsl lr
    3604:	04090000 	streq	r0, [r9], #-0
    3608:	0000007c 	andeq	r0, r0, ip, ror r0
    360c:	00002506 	andeq	r2, r0, r6, lsl #10
    3610:	0000ac00 	andeq	sl, r0, r0, lsl #24
    3614:	00ac0700 	adceq	r0, ip, r0, lsl #14
    3618:	09000000 	stmdbeq	r0, {}	; <UNPREDICTABLE>
    361c:	0000b904 	andeq	fp, r0, r4, lsl #18
    3620:	08010400 	stmdaeq	r1, {sl}
    3624:	00000074 	andeq	r0, r0, r4, ror r0
    3628:	0000b205 	andeq	fp, r0, r5, lsl #4
    362c:	07840800 	streq	r0, [r4, r0, lsl #16]
    3630:	21020000 	mrscs	r0, (UNDEF: 2)
    3634:	0000ca0e 	andeq	ip, r0, lr, lsl #20
    3638:	9d040900 	vstrls.16	s0, [r4, #-0]	; <UNPREDICTABLE>
    363c:	0a000000 	beq	3644 <__code_start__-0x49bc>
    3640:	00000885 	andeq	r0, r0, r5, lsl #17
    3644:	25050401 	strcs	r0, [r5, #-1025]	; 0xfffffbff
    3648:	a4000000 	strge	r0, [r0], #-0
    364c:	2c000090 	stccs	0, cr0, [r0], {144}	; 0x90
    3650:	01000000 	mrseq	r0, (UNDEF: 0)
    3654:	00014b9c 	muleq	r1, ip, fp
    3658:	735f0b00 	cmpvc	pc, #0, 22
    365c:	04010031 	streq	r0, [r1], #-49	; 0xffffffcf
    3660:	0000ac19 	andeq	sl, r0, r9, lsl ip
    3664:	0016cb00 	andseq	ip, r6, r0, lsl #22
    3668:	0016c700 	andseq	ip, r6, r0, lsl #14
    366c:	735f0b00 	cmpvc	pc, #0, 22
    3670:	04010032 	streq	r0, [r1], #-50	; 0xffffffce
    3674:	0000ac2a 	andeq	sl, r0, sl, lsr #24
    3678:	0016f000 	andseq	pc, r6, r0
    367c:	0016ec00 	andseq	lr, r6, r0, lsl #24
    3680:	006e0b00 	rsbeq	r0, lr, r0, lsl #22
    3684:	2c360401 	cfldrscs	mvf0, [r6], #-4
    3688:	17000000 	strne	r0, [r0, -r0]
    368c:	11000017 	tstne	r0, r7, lsl r0
    3690:	0c000017 	stceq	0, cr0, [r0], {23}
    3694:	01003173 	tsteq	r0, r3, ror r1
    3698:	014b1a05 	cmpeq	fp, r5, lsl #20
    369c:	174a0000 	strbne	r0, [sl, -r0]
    36a0:	17420000 	strbne	r0, [r2, -r0]
    36a4:	730c0000 	movwvc	r0, #49152	; 0xc000
    36a8:	05010032 	streq	r0, [r1, #-50]	; 0xffffffce
    36ac:	00014b2c 	andeq	r4, r1, ip, lsr #22
    36b0:	00178600 	andseq	r8, r7, r0, lsl #12
    36b4:	00178000 	andseq	r8, r7, r0
    36b8:	04090000 	streq	r0, [r9], #-0
    36bc:	00000062 	andeq	r0, r0, r2, rrx
    36c0:	0000ce00 	andeq	ip, r0, r0, lsl #28
    36c4:	9b000400 	blls	46cc <__code_start__-0x3934>
    36c8:	04000014 	streq	r0, [r0], #-20	; 0xffffffec
    36cc:	00062d01 	andeq	r2, r6, r1, lsl #26
    36d0:	0c810c00 	stceq	12, cr0, [r1], {0}
    36d4:	07150000 	ldreq	r0, [r5, -r0]
    36d8:	90d00000 	sbcsls	r0, r0, r0
    36dc:	00040000 	andeq	r0, r4, r0
    36e0:	23cc0000 	biccs	r0, ip, #0, 0
    36e4:	04020000 	streq	r0, [r2], #-0
    36e8:	746e6905 	strbtvc	r6, [lr], #-2309	; 0xfffff6fb
    36ec:	07040300 	streq	r0, [r4, -r0, lsl #6]
    36f0:	0000017a 	andeq	r0, r0, sl, ror r1
    36f4:	6d060103 	stfvss	f0, [r6, #-12]
    36f8:	03000000 	movweq	r0, #0
    36fc:	01b80502 			; <UNDEFINED> instruction: 0x01b80502
    3700:	04030000 	streq	r0, [r3], #-0
    3704:	0001a305 	andeq	sl, r1, r5, lsl #6
    3708:	05080300 	streq	r0, [r8, #-768]	; 0xfffffd00
    370c:	0000019e 	muleq	r0, lr, r1
    3710:	6b080103 	blvs	203b24 <__bss_end__+0x1f9d14>
    3714:	03000000 	movweq	r0, #0
    3718:	00860702 	addeq	r0, r6, r2, lsl #14
    371c:	04030000 	streq	r0, [r3], #-0
    3720:	00017507 	andeq	r7, r1, r7, lsl #10
    3724:	07080300 	streq	r0, [r8, -r0, lsl #6]
    3728:	00000170 	andeq	r0, r0, r0, ror r1
    372c:	00002504 	andeq	r2, r0, r4, lsl #10
    3730:	00007a00 	andeq	r7, r0, r0, lsl #20
    3734:	00250500 	eoreq	r0, r5, r0, lsl #10
    3738:	06000000 	streq	r0, [r0], -r0
    373c:	000001ac 	andeq	r0, r0, ip, lsr #3
    3740:	860e1c02 	strhi	r1, [lr], -r2, lsl #24
    3744:	07000000 	streq	r0, [r0, -r0]
    3748:	00006b04 	andeq	r6, r0, r4, lsl #22
    374c:	00250400 	eoreq	r0, r5, r0, lsl #8
    3750:	009b0000 	addseq	r0, fp, r0
    3754:	9b050000 	blls	14375c <__bss_end__+0x13994c>
    3758:	00000000 	andeq	r0, r0, r0
    375c:	00a80407 	adceq	r0, r8, r7, lsl #8
    3760:	01030000 	mrseq	r0, (UNDEF: 3)
    3764:	00007408 	andeq	r7, r0, r8, lsl #8
    3768:	00a10800 	adceq	r0, r1, r0, lsl #16
    376c:	84060000 	strhi	r0, [r6], #-0
    3770:	02000007 	andeq	r0, r0, #7, 0
    3774:	00b90e21 	adcseq	r0, r9, r1, lsr #28
    3778:	04070000 	streq	r0, [r7], #-0
    377c:	0000008c 	andeq	r0, r0, ip, lsl #1
    3780:	00093109 	andeq	r3, r9, r9, lsl #2
    3784:	06030100 	streq	r0, [r3], -r0, lsl #2
    3788:	000090d0 	ldrdeq	r9, [r0], -r0
    378c:	00000004 	andeq	r0, r0, r4
    3790:	Address 0x0000000000003790 is out of bounds.


Disassembly of section .debug_abbrev:

00000000 <.debug_abbrev>:
       0:	25011101 	strcs	r1, [r1, #-257]	; 0xfffffeff
       4:	030b130e 	movweq	r1, #45838	; 0xb30e
       8:	110e1b0e 	tstne	lr, lr, lsl #22
       c:	10061201 	andne	r1, r6, r1, lsl #4
      10:	02000017 	andeq	r0, r0, #23, 0
      14:	0b0b0024 	bleq	2c00ac <__bss_end__+0x2b629c>
      18:	08030b3e 	stmdaeq	r3, {r1, r2, r3, r4, r5, r8, r9, fp}
      1c:	24030000 	strcs	r0, [r3], #-0
      20:	3e0b0b00 	vmlacc.f64	d0, d11, d0
      24:	000e030b 	andeq	r0, lr, fp, lsl #6
      28:	00160400 	andseq	r0, r6, r0, lsl #8
      2c:	0b3a0e03 	bleq	e83840 <__bss_end__+0xe79a30>
      30:	0b390b3b 	bleq	e42d24 <__bss_end__+0xe38f14>
      34:	00001349 	andeq	r1, r0, r9, asr #6
      38:	27011505 	strcs	r1, [r1, -r5, lsl #10]
      3c:	01134919 	tsteq	r3, r9, lsl r9
      40:	06000013 			; <UNDEFINED> instruction: 0x06000013
      44:	13490005 	movtne	r0, #36869	; 0x9005
      48:	34070000 	strcc	r0, [r7], #-0
      4c:	3a0e0300 	bcc	380c54 <__bss_end__+0x376e44>
      50:	390b3b0b 	stmdbcc	fp, {r0, r1, r3, r8, r9, fp, ip, sp}
      54:	3f13490b 	svccc	0x0013490b
      58:	00193c19 	andseq	r3, r9, r9, lsl ip
      5c:	000f0800 	andeq	r0, pc, r0, lsl #16
      60:	13490b0b 	movtne	r0, #39691	; 0x9b0b
      64:	26090000 	strcs	r0, [r9], -r0
      68:	00134900 	andseq	r4, r3, r0, lsl #18
      6c:	012e0a00 			; <UNDEFINED> instruction: 0x012e0a00
      70:	0e03193f 			; <UNDEFINED> instruction: 0x0e03193f
      74:	0b3b0b3a 	bleq	ec2d64 <__bss_end__+0xeb8f54>
      78:	19270b39 	stmdbne	r7!, {r0, r3, r4, r5, r8, r9, fp}
      7c:	06120111 			; <UNDEFINED> instruction: 0x06120111
      80:	42971840 	addsmi	r1, r7, #64, 16	; 0x400000
      84:	00130119 	andseq	r0, r3, r9, lsl r1
      88:	00340b00 	eorseq	r0, r4, r0, lsl #22
      8c:	0b3a0e03 	bleq	e838a0 <__bss_end__+0xe79a90>
      90:	0b390b3b 	bleq	e42d84 <__bss_end__+0xe38f74>
      94:	18021349 	stmdane	r2, {r0, r3, r6, r8, r9, ip}
      98:	340c0000 	strcc	r0, [ip], #-0
      9c:	3a0e0300 	bcc	380ca4 <__bss_end__+0x376e94>
      a0:	390b3b0b 	stmdbcc	fp, {r0, r1, r3, r8, r9, fp, ip, sp}
      a4:	0213490b 	andseq	r4, r3, #180224	; 0x2c000
      a8:	1742b717 	smlaldne	fp, r2, r7, r7
      ac:	340d0000 	strcc	r0, [sp], #-0
      b0:	3a080300 	bcc	200cb8 <__bss_end__+0x1f6ea8>
      b4:	390b3b0b 	stmdbcc	fp, {r0, r1, r3, r8, r9, fp, ip, sp}
      b8:	0213490b 	andseq	r4, r3, #180224	; 0x2c000
      bc:	1742b717 	smlaldne	fp, r2, r7, r7
      c0:	0b0e0000 	bleq	3800c8 <__bss_end__+0x3762b8>
      c4:	01175501 	tsteq	r7, r1, lsl #10
      c8:	0f000013 	svceq	0x00000013
      cc:	0111010b 	tsteq	r1, fp, lsl #2
      d0:	13010612 	movwne	r0, #5650	; 0x1612
      d4:	89100000 	ldmdbhi	r0, {}	; <UNPREDICTABLE>
      d8:	11010182 	smlabbne	r1, r2, r1, r0
      dc:	00133101 	andseq	r3, r3, r1, lsl #2
      e0:	828a1100 	addhi	r1, sl, #0
      e4:	18020001 	stmdane	r2, {r0}
      e8:	00184291 	mulseq	r8, r1, r2
      ec:	82891200 	addhi	r1, r9, #0, 4
      f0:	01110001 	tsteq	r1, r1
      f4:	00001331 	andeq	r1, r0, r1, lsr r3
      f8:	01828913 	orreq	r8, r2, r3, lsl r9
      fc:	31011101 	tstcc	r1, r1, lsl #2
     100:	00130113 	andseq	r0, r3, r3, lsl r1
     104:	01011400 	tsteq	r1, r0, lsl #8
     108:	13011349 	movwne	r1, #4937	; 0x1349
     10c:	21150000 	tstcs	r5, r0
     110:	2f134900 	svccs	0x00134900
     114:	1600000b 	strne	r0, [r0], -fp
     118:	193f002e 	ldmdbne	pc!, {r1, r2, r3, r5}	; <UNPREDICTABLE>
     11c:	0e6e193c 			; <UNDEFINED> instruction: 0x0e6e193c
     120:	0b3a0e03 	bleq	e83934 <__bss_end__+0xe79b24>
     124:	0b390b3b 	bleq	e42e18 <__bss_end__+0xe39008>
     128:	01000000 	mrseq	r0, (UNDEF: 0)
     12c:	0e250111 	mcreq	1, 1, r0, cr5, cr1, {0}
     130:	0e030b13 	vmoveq.32	d3[0], r0
     134:	01110e1b 	tsteq	r1, fp, lsl lr
     138:	17100612 			; <UNDEFINED> instruction: 0x17100612
     13c:	24020000 	strcs	r0, [r2], #-0
     140:	3e0b0b00 	vmlacc.f64	d0, d11, d0
     144:	0008030b 	andeq	r0, r8, fp, lsl #6
     148:	00240300 	eoreq	r0, r4, r0, lsl #6
     14c:	0b3e0b0b 	bleq	f82d80 <__bss_end__+0xf78f70>
     150:	00000e03 	andeq	r0, r0, r3, lsl #28
     154:	03001604 	movweq	r1, #1540	; 0x604
     158:	3b0b3a0e 	blcc	2ce998 <__bss_end__+0x2c4b88>
     15c:	490b390b 	stmdbmi	fp, {r0, r1, r3, r8, fp, ip, sp}
     160:	05000013 	streq	r0, [r0, #-19]	; 0xffffffed
     164:	19270115 	stmdbne	r7!, {r0, r2, r4, r8}
     168:	13011349 	movwne	r1, #4937	; 0x1349
     16c:	05060000 	streq	r0, [r6, #-0]
     170:	00134900 	andseq	r4, r3, r0, lsl #18
     174:	00340700 	eorseq	r0, r4, r0, lsl #14
     178:	0b3a0e03 	bleq	e8398c <__bss_end__+0xe79b7c>
     17c:	0b390b3b 	bleq	e42e70 <__bss_end__+0xe39060>
     180:	193f1349 	ldmdbne	pc!, {r0, r3, r6, r8, r9, ip}	; <UNPREDICTABLE>
     184:	0000193c 	andeq	r1, r0, ip, lsr r9
     188:	0b000f08 	bleq	3db0 <__code_start__-0x4250>
     18c:	0013490b 	andseq	r4, r3, fp, lsl #18
     190:	00260900 	eoreq	r0, r6, r0, lsl #18
     194:	00001349 	andeq	r1, r0, r9, asr #6
     198:	3e01040a 	cdpcc	4, 0, cr0, cr1, cr10, {0}
     19c:	490b0b0b 	stmdbmi	fp, {r0, r1, r3, r8, r9, fp}
     1a0:	3b0b3a13 	blcc	2ce9f4 <__bss_end__+0x2c4be4>
     1a4:	010b390b 	tsteq	fp, fp, lsl #18
     1a8:	0b000013 	bleq	1fc <__code_start__-0x7e04>
     1ac:	0e030028 	cdpeq	0, 0, cr0, cr3, cr8, {1}
     1b0:	00000b1c 	andeq	r0, r0, ip, lsl fp
     1b4:	0b01130c 	bleq	44dec <__bss_end__+0x3afdc>
     1b8:	3b0b3a0b 	blcc	2ce9ec <__bss_end__+0x2c4bdc>
     1bc:	010b390b 	tsteq	fp, fp, lsl #18
     1c0:	0d000013 	stceq	0, cr0, [r0, #-76]	; 0xffffffb4
     1c4:	0803000d 	stmdaeq	r3, {r0, r2, r3}
     1c8:	0b3b0b3a 	bleq	ec2eb8 <__bss_end__+0xeb90a8>
     1cc:	13490b39 	movtne	r0, #39737	; 0x9b39
     1d0:	00000b38 	andeq	r0, r0, r8, lsr fp
     1d4:	03000d0e 	movweq	r0, #3342	; 0xd0e
     1d8:	3b0b3a0e 	blcc	2cea18 <__bss_end__+0x2c4c08>
     1dc:	490b390b 	stmdbmi	fp, {r0, r1, r3, r8, fp, ip, sp}
     1e0:	000b3813 	andeq	r3, fp, r3, lsl r8
     1e4:	00350f00 	eorseq	r0, r5, r0, lsl #30
     1e8:	00001349 	andeq	r1, r0, r9, asr #6
     1ec:	49010110 	stmdbmi	r1, {r4, r8}
     1f0:	00130113 	andseq	r0, r3, r3, lsl r1
     1f4:	00211100 	eoreq	r1, r1, r0, lsl #2
     1f8:	0b2f1349 	bleq	bc4f24 <__bss_end__+0xbbb114>
     1fc:	34120000 	ldrcc	r0, [r2], #-0
     200:	3a0e0300 	bcc	380e08 <__bss_end__+0x376ff8>
     204:	390b3b0b 	stmdbcc	fp, {r0, r1, r3, r8, r9, fp, ip, sp}
     208:	3f13490b 	svccc	0x0013490b
     20c:	00180219 	andseq	r0, r8, r9, lsl r2
     210:	00281300 	eoreq	r1, r8, r0, lsl #6
     214:	061c0e03 	ldreq	r0, [ip], -r3, lsl #28
     218:	2e140000 	cdpcs	0, 1, cr0, cr4, cr0, {0}
     21c:	03193f01 	tsteq	r9, #1, 30
     220:	3b0b3a0e 	blcc	2cea60 <__bss_end__+0x2c4c50>
     224:	270b390b 	strcs	r3, [fp, -fp, lsl #18]
     228:	11134919 	tstne	r3, r9, lsl r9
     22c:	40061201 	andmi	r1, r6, r1, lsl #4
     230:	19429718 	stmdbne	r2, {r3, r4, r8, r9, sl, ip, pc}^
     234:	00001301 	andeq	r1, r0, r1, lsl #6
     238:	03003415 	movweq	r3, #1045	; 0x415
     23c:	3b0b3a08 	blcc	2cea64 <__bss_end__+0x2c4c54>
     240:	490b390b 	stmdbmi	fp, {r0, r1, r3, r8, fp, ip, sp}
     244:	b7170213 			; <UNDEFINED> instruction: 0xb7170213
     248:	00001742 	andeq	r1, r0, r2, asr #14
     24c:	01828916 	orreq	r8, r2, r6, lsl r9
     250:	31011100 	mrscc	r1, (UNDEF: 17)
     254:	17000013 	smladne	r0, r3, r0, r0
     258:	01018289 	smlabbeq	r1, r9, r2, r8
     25c:	13310111 	teqne	r1, #1073741828	; 0x40000004
     260:	00001301 	andeq	r1, r0, r1, lsl #6
     264:	01828a18 	orreq	r8, r2, r8, lsl sl
     268:	91180200 	tstls	r8, r0, lsl #4
     26c:	00001842 	andeq	r1, r0, r2, asr #16
     270:	01828919 	orreq	r8, r2, r9, lsl r9
     274:	95011101 	strls	r1, [r1, #-257]	; 0xfffffeff
     278:	13311942 	teqne	r1, #1081344	; 0x108000
     27c:	2e1a0000 	cdpcs	0, 1, cr0, cr10, cr0, {0}
     280:	03193f01 	tsteq	r9, #1, 30
     284:	3b0b3a0e 	blcc	2ceac4 <__bss_end__+0x2c4cb4>
     288:	270b390b 	strcs	r3, [fp, -fp, lsl #18]
     28c:	12011119 	andne	r1, r1, #1073741830	; 0x40000006
     290:	97184006 	ldrls	r4, [r8, -r6]
     294:	13011942 	movwne	r1, #6466	; 0x1942
     298:	341b0000 	ldrcc	r0, [fp], #-0
     29c:	490e0300 	stmdbmi	lr, {r8, r9}
     2a0:	02193413 	andseq	r3, r9, #318767104	; 0x13000000
     2a4:	1c000018 	stcne	0, cr0, [r0], {24}
     2a8:	1331011d 	teqne	r1, #1073741831	; 0x40000007
     2ac:	42b80152 	adcsmi	r0, r8, #-2147483628	; 0x80000014
     2b0:	58175505 	ldmdapl	r7, {r0, r2, r8, sl, ip, lr}
     2b4:	570b590b 	strpl	r5, [fp, -fp, lsl #18]
     2b8:	0013010b 	andseq	r0, r3, fp, lsl #2
     2bc:	00051d00 	andeq	r1, r5, r0, lsl #26
     2c0:	17021331 	smladxne	r2, r1, r3, r1
     2c4:	001742b7 			; <UNDEFINED> instruction: 0x001742b7
     2c8:	011d1e00 	tsteq	sp, r0, lsl #28
     2cc:	01521331 	cmpeq	r2, r1, lsr r3
     2d0:	110542b8 			; <UNDEFINED> instruction: 0x110542b8
     2d4:	58061201 	stmdapl	r6, {r0, r9, ip}
     2d8:	570b590b 	strpl	r5, [fp, -fp, lsl #18]
     2dc:	0013010b 	andseq	r0, r3, fp, lsl #2
     2e0:	010b1f00 	tsteq	fp, r0, lsl #30
     2e4:	00001755 	andeq	r1, r0, r5, asr r7
     2e8:	31003420 	tstcc	r0, r0, lsr #8
     2ec:	b7170213 			; <UNDEFINED> instruction: 0xb7170213
     2f0:	00001742 	andeq	r1, r0, r2, asr #14
     2f4:	55000b21 	strpl	r0, [r0, #-2849]	; 0xfffff4df
     2f8:	22000017 	andcs	r0, r0, #23, 0
     2fc:	1331011d 	teqne	r1, #1073741831	; 0x40000007
     300:	42b80152 	adcsmi	r0, r8, #-2147483628	; 0x80000014
     304:	12011105 	andne	r1, r1, #1073741825	; 0x40000001
     308:	590b5806 	stmdbpl	fp, {r1, r2, fp, ip, lr}
     30c:	000b570b 	andeq	r5, fp, fp, lsl #14
     310:	82892300 	addhi	r2, r9, #0, 6
     314:	01110001 	tsteq	r1, r1
     318:	31194295 			; <UNDEFINED> instruction: 0x31194295
     31c:	24000013 	strcs	r0, [r0], #-19	; 0xffffffed
     320:	193f012e 	ldmdbne	pc!, {r1, r2, r3, r5, r8}	; <UNPREDICTABLE>
     324:	0b3a0e03 	bleq	e83b38 <__bss_end__+0xe79d28>
     328:	0b390b3b 	bleq	e4301c <__bss_end__+0xe3920c>
     32c:	13491927 	movtne	r1, #39207	; 0x9927
     330:	13010b20 	movwne	r0, #6944	; 0x1b20
     334:	05250000 	streq	r0, [r5, #-0]!
     338:	3a080300 	bcc	200f40 <__bss_end__+0x1f7130>
     33c:	390b3b0b 	stmdbcc	fp, {r0, r1, r3, r8, r9, fp, ip, sp}
     340:	0013490b 	andseq	r4, r3, fp, lsl #18
     344:	012e2600 			; <UNDEFINED> instruction: 0x012e2600
     348:	0b3a0e03 	bleq	e83b5c <__bss_end__+0xe79d4c>
     34c:	0b390b3b 	bleq	e43040 <__bss_end__+0xe39230>
     350:	13491927 	movtne	r1, #39207	; 0x9927
     354:	13010b20 	movwne	r0, #6944	; 0x1b20
     358:	34270000 	strtcc	r0, [r7], #-0
     35c:	3a080300 	bcc	200f64 <__bss_end__+0x1f7154>
     360:	390b3b0b 	stmdbcc	fp, {r0, r1, r3, r8, r9, fp, ip, sp}
     364:	0013490b 	andseq	r4, r3, fp, lsl #18
     368:	00342800 	eorseq	r2, r4, r0, lsl #16
     36c:	13490e03 	movtne	r0, #40451	; 0x9e03
     370:	00001934 	andeq	r1, r0, r4, lsr r9
     374:	03003429 	movweq	r3, #1065	; 0x429
     378:	3b0b3a0e 	blcc	2cebb8 <__bss_end__+0x2c4da8>
     37c:	490b390b 	stmdbmi	fp, {r0, r1, r3, r8, fp, ip, sp}
     380:	2a000013 	bcs	3d4 <__code_start__-0x7c2c>
     384:	0e030005 	cdpeq	0, 0, cr0, cr3, cr5, {0}
     388:	0b3b0b3a 	bleq	ec3078 <__bss_end__+0xeb9268>
     38c:	13490b39 	movtne	r0, #39737	; 0x9b39
     390:	342b0000 	strtcc	r0, [fp], #-0
     394:	490e0300 	stmdbmi	lr, {r8, r9}
     398:	1c193413 	cfldrsne	mvf3, [r9], {19}
     39c:	2c00000e 	stccs	0, cr0, [r0], {14}
     3a0:	1331012e 	teqne	r1, #-2147483637	; 0x8000000b
     3a4:	06120111 			; <UNDEFINED> instruction: 0x06120111
     3a8:	42971840 	addsmi	r1, r7, #64, 16	; 0x400000
     3ac:	00130119 	andseq	r0, r3, r9, lsl r1
     3b0:	00342d00 	eorseq	r2, r4, r0, lsl #26
     3b4:	00001331 	andeq	r1, r0, r1, lsr r3
     3b8:	3f002e2e 	svccc	0x00002e2e
     3bc:	6e193c19 	mrcvs	12, 0, r3, cr9, cr9, {0}
     3c0:	3a0e030e 	bcc	381000 <__bss_end__+0x3771f0>
     3c4:	390b3b0b 	stmdbcc	fp, {r0, r1, r3, r8, r9, fp, ip, sp}
     3c8:	0000000b 	andeq	r0, r0, fp
     3cc:	25011101 	strcs	r1, [r1, #-257]	; 0xfffffeff
     3d0:	030b130e 	movweq	r1, #45838	; 0xb30e
     3d4:	110e1b0e 	tstne	lr, lr, lsl #22
     3d8:	10061201 	andne	r1, r6, r1, lsl #4
     3dc:	02000017 	andeq	r0, r0, #23, 0
     3e0:	0b0b0024 	bleq	2c0478 <__bss_end__+0x2b6668>
     3e4:	08030b3e 	stmdaeq	r3, {r1, r2, r3, r4, r5, r8, r9, fp}
     3e8:	24030000 	strcs	r0, [r3], #-0
     3ec:	3e0b0b00 	vmlacc.f64	d0, d11, d0
     3f0:	000e030b 	andeq	r0, lr, fp, lsl #6
     3f4:	00160400 	andseq	r0, r6, r0, lsl #8
     3f8:	0b3a0e03 	bleq	e83c0c <__bss_end__+0xe79dfc>
     3fc:	0b390b3b 	bleq	e430f0 <__bss_end__+0xe392e0>
     400:	00001349 	andeq	r1, r0, r9, asr #6
     404:	27011505 	strcs	r1, [r1, -r5, lsl #10]
     408:	01134919 	tsteq	r3, r9, lsl r9
     40c:	06000013 			; <UNDEFINED> instruction: 0x06000013
     410:	13490005 	movtne	r0, #36869	; 0x9005
     414:	34070000 	strcc	r0, [r7], #-0
     418:	3a0e0300 	bcc	381020 <__bss_end__+0x377210>
     41c:	390b3b0b 	stmdbcc	fp, {r0, r1, r3, r8, r9, fp, ip, sp}
     420:	3f13490b 	svccc	0x0013490b
     424:	00193c19 	andseq	r3, r9, r9, lsl ip
     428:	000f0800 	andeq	r0, pc, r0, lsl #16
     42c:	13490b0b 	movtne	r0, #39691	; 0x9b0b
     430:	26090000 	strcs	r0, [r9], -r0
     434:	00134900 	andseq	r4, r3, r0, lsl #18
     438:	01010a00 	tsteq	r1, r0, lsl #20
     43c:	13011349 	movwne	r1, #4937	; 0x1349
     440:	210b0000 	mrscs	r0, (UNDEF: 11)
     444:	2f134900 	svccs	0x00134900
     448:	0c000005 	stceq	0, cr0, [r0], {5}
     44c:	0e030034 	mcreq	0, 0, r0, cr3, cr4, {1}
     450:	0b3b0b3a 	bleq	ec3140 <__bss_end__+0xeb9330>
     454:	13490b39 	movtne	r0, #39737	; 0x9b39
     458:	1802193f 	stmdane	r2, {r0, r1, r2, r3, r4, r5, r8, fp, ip}
     45c:	2e0d0000 	cdpcs	0, 0, cr0, cr13, cr0, {0}
     460:	03193f01 	tsteq	r9, #1, 30
     464:	3b0b3a0e 	blcc	2ceca4 <__bss_end__+0x2c4e94>
     468:	270b390b 	strcs	r3, [fp, -fp, lsl #18]
     46c:	11134919 	tstne	r3, r9, lsl r9
     470:	40061201 	andmi	r1, r6, r1, lsl #4
     474:	19429718 	stmdbne	r2, {r3, r4, r8, r9, sl, ip, pc}^
     478:	00001301 	andeq	r1, r0, r1, lsl #6
     47c:	0300050e 	movweq	r0, #1294	; 0x50e
     480:	3b0b3a0e 	blcc	2cecc0 <__bss_end__+0x2c4eb0>
     484:	490b390b 	stmdbmi	fp, {r0, r1, r3, r8, fp, ip, sp}
     488:	b7170213 			; <UNDEFINED> instruction: 0xb7170213
     48c:	00001742 	andeq	r1, r0, r2, asr #14
     490:	0300340f 	movweq	r3, #1039	; 0x40f
     494:	3413490e 	ldrcc	r4, [r3], #-2318	; 0xfffff6f2
     498:	00180219 	andseq	r0, r8, r9, lsl r2
     49c:	00341000 	eorseq	r1, r4, r0
     4a0:	0b3a0803 	bleq	e824b4 <__bss_end__+0xe786a4>
     4a4:	0b390b3b 	bleq	e43198 <__bss_end__+0xe39388>
     4a8:	00001349 	andeq	r1, r0, r9, asr #6
     4ac:	03003411 	movweq	r3, #1041	; 0x411
     4b0:	3b0b3a0e 	blcc	2cecf0 <__bss_end__+0x2c4ee0>
     4b4:	490b390b 	stmdbmi	fp, {r0, r1, r3, r8, fp, ip, sp}
     4b8:	12000013 	andne	r0, r0, #19, 0
     4bc:	1301010b 	movwne	r0, #4363	; 0x110b
     4c0:	89130000 	ldmdbhi	r3, {}	; <UNPREDICTABLE>
     4c4:	11010182 	smlabbne	r1, r2, r1, r0
     4c8:	01133101 	tsteq	r3, r1, lsl #2
     4cc:	14000013 	strne	r0, [r0], #-19	; 0xffffffed
     4d0:	0001828a 	andeq	r8, r1, sl, lsl #5
     4d4:	42911802 	addsmi	r1, r1, #131072	; 0x20000
     4d8:	15000018 	strne	r0, [r0, #-24]	; 0xffffffe8
     4dc:	00018289 	andeq	r8, r1, r9, lsl #5
     4e0:	13310111 	teqne	r1, #1073741828	; 0x40000004
     4e4:	21160000 	tstcs	r6, r0
     4e8:	2f134900 	svccs	0x00134900
     4ec:	1700000b 	strne	r0, [r0, -fp]
     4f0:	08030034 	stmdaeq	r3, {r2, r4, r5}
     4f4:	0b3b0b3a 	bleq	ec31e4 <__bss_end__+0xeb93d4>
     4f8:	13490b39 	movtne	r0, #39737	; 0x9b39
     4fc:	42b71702 	adcsmi	r1, r7, #524288	; 0x80000
     500:	18000017 	stmdane	r0, {r0, r1, r2, r4}
     504:	0e030034 	mcreq	0, 0, r0, cr3, cr4, {1}
     508:	0b3b0b3a 	bleq	ec31f8 <__bss_end__+0xeb93e8>
     50c:	13490b39 	movtne	r0, #39737	; 0x9b39
     510:	42b71702 	adcsmi	r1, r7, #524288	; 0x80000
     514:	19000017 	stmdbne	r0, {r0, r1, r2, r4}
     518:	1755010b 	ldrbne	r0, [r5, -fp, lsl #2]
     51c:	00001301 	andeq	r1, r0, r1, lsl #6
     520:	11010b1a 	tstne	r1, sl, lsl fp
     524:	00061201 	andeq	r1, r6, r1, lsl #4
     528:	010b1b00 	tsteq	fp, r0, lsl #22
     52c:	06120111 			; <UNDEFINED> instruction: 0x06120111
     530:	00001301 	andeq	r1, r0, r1, lsl #6
     534:	00010b1c 	andeq	r0, r1, ip, lsl fp
     538:	011d1d00 	tsteq	sp, r0, lsl #26
     53c:	01521331 	cmpeq	r2, r1, lsr r3
     540:	110b42b8 			; <UNDEFINED> instruction: 0x110b42b8
     544:	58061201 	stmdapl	r6, {r0, r9, ip}
     548:	570b590b 	strpl	r5, [fp, -fp, lsl #18]
     54c:	1e00000b 	cdpne	0, 0, cr0, cr0, cr11, {0}
     550:	13310005 	teqne	r1, #5, 0
     554:	051f0000 	ldreq	r0, [pc, #-0]	; 55c <__code_start__-0x7aa4>
     558:	02133100 	andseq	r3, r3, #0
     55c:	1742b717 	smlaldne	fp, r2, r7, r7
     560:	34200000 	strtcc	r0, [r0], #-0
     564:	00133100 	andseq	r3, r3, r0, lsl #2
     568:	012e2100 			; <UNDEFINED> instruction: 0x012e2100
     56c:	0e03193f 			; <UNDEFINED> instruction: 0x0e03193f
     570:	0b3b0b3a 	bleq	ec3260 <__bss_end__+0xeb9450>
     574:	19270b39 	stmdbne	r7!, {r0, r3, r4, r5, r8, r9, fp}
     578:	0b201349 	bleq	8052a4 <__bss_end__+0x7fb494>
     57c:	00001301 	andeq	r1, r0, r1, lsl #6
     580:	03000522 	movweq	r0, #1314	; 0x522
     584:	3b0b3a08 	blcc	2cedac <__bss_end__+0x2c4f9c>
     588:	490b390b 	stmdbmi	fp, {r0, r1, r3, r8, fp, ip, sp}
     58c:	23000013 	movwcs	r0, #19
     590:	193f002e 	ldmdbne	pc!, {r1, r2, r3, r5}	; <UNPREDICTABLE>
     594:	0e6e193c 			; <UNDEFINED> instruction: 0x0e6e193c
     598:	0b3a0e03 	bleq	e83dac <__bss_end__+0xe79f9c>
     59c:	0b390b3b 	bleq	e43290 <__bss_end__+0xe39480>
     5a0:	01000000 	mrseq	r0, (UNDEF: 0)
     5a4:	0e250111 	mcreq	1, 1, r0, cr5, cr1, {0}
     5a8:	0e030b13 	vmoveq.32	d3[0], r0
     5ac:	01110e1b 	tsteq	r1, fp, lsl lr
     5b0:	17100612 			; <UNDEFINED> instruction: 0x17100612
     5b4:	16020000 	strne	r0, [r2], -r0
     5b8:	3a0e0300 	bcc	3811c0 <__bss_end__+0x3773b0>
     5bc:	390b3b0b 	stmdbcc	fp, {r0, r1, r3, r8, r9, fp, ip, sp}
     5c0:	0013490b 	andseq	r4, r3, fp, lsl #18
     5c4:	01130300 	tsteq	r3, r0, lsl #6
     5c8:	0b0b0e03 	bleq	2c3ddc <__bss_end__+0x2b9fcc>
     5cc:	0b3b0b3a 	bleq	ec32bc <__bss_end__+0xeb94ac>
     5d0:	00001301 	andeq	r1, r0, r1, lsl #6
     5d4:	03000d04 	movweq	r0, #3332	; 0xd04
     5d8:	3813490e 	ldmdacc	r3, {r1, r2, r3, r8, fp, lr}
     5dc:	0019340b 	andseq	r3, r9, fp, lsl #8
     5e0:	000f0500 	andeq	r0, pc, r0, lsl #10
     5e4:	00000b0b 	andeq	r0, r0, fp, lsl #22
     5e8:	0b002406 	bleq	9608 <FFT_SINE_LUT+0x204>
     5ec:	030b3e0b 	movweq	r3, #48651	; 0xbe0b
     5f0:	07000008 	streq	r0, [r0, -r8]
     5f4:	0b0b0024 	bleq	2c068c <__bss_end__+0x2b687c>
     5f8:	0e030b3e 	vmoveq.16	d3[0], r0
     5fc:	15080000 	strne	r0, [r8, #-0]
     600:	49192701 	ldmdbmi	r9, {r0, r8, r9, sl, sp}
     604:	00130113 	andseq	r0, r3, r3, lsl r1
     608:	00050900 	andeq	r0, r5, r0, lsl #18
     60c:	00001349 	andeq	r1, r0, r9, asr #6
     610:	0300340a 	movweq	r3, #1034	; 0x40a
     614:	3b0b3a0e 	blcc	2cee54 <__bss_end__+0x2c5044>
     618:	490b390b 	stmdbmi	fp, {r0, r1, r3, r8, fp, ip, sp}
     61c:	3c193f13 	ldccc	15, cr3, [r9], {19}
     620:	0b000019 	bleq	68c <__code_start__-0x7974>
     624:	0b0b000f 	bleq	2c0668 <__bss_end__+0x2b6858>
     628:	00001349 	andeq	r1, r0, r9, asr #6
     62c:	4900260c 	stmdbmi	r0, {r2, r3, r9, sl, sp}
     630:	0d000013 	stceq	0, cr0, [r0, #-76]	; 0xffffffb4
     634:	193f012e 	ldmdbne	pc!, {r1, r2, r3, r5, r8}	; <UNPREDICTABLE>
     638:	0b3a0e03 	bleq	e83e4c <__bss_end__+0xe7a03c>
     63c:	0b390b3b 	bleq	e43330 <__bss_end__+0xe39520>
     640:	13491927 	movtne	r1, #39207	; 0x9927
     644:	06120111 			; <UNDEFINED> instruction: 0x06120111
     648:	42971840 	addsmi	r1, r7, #64, 16	; 0x400000
     64c:	00130119 	andseq	r0, r3, r9, lsl r1
     650:	00050e00 	andeq	r0, r5, r0, lsl #28
     654:	0b3a0803 	bleq	e82668 <__bss_end__+0xe78858>
     658:	0b390b3b 	bleq	e4334c <__bss_end__+0xe3953c>
     65c:	18021349 	stmdane	r2, {r0, r3, r6, r8, r9, ip}
     660:	180f0000 	stmdane	pc, {}	; <UNPREDICTABLE>
     664:	10000000 	andne	r0, r0, r0
     668:	08030034 	stmdaeq	r3, {r2, r4, r5}
     66c:	0b3b0b3a 	bleq	ec335c <__bss_end__+0xeb954c>
     670:	13490b39 	movtne	r0, #39737	; 0x9b39
     674:	00001802 	andeq	r1, r0, r2, lsl #16
     678:	03003411 	movweq	r3, #1041	; 0x411
     67c:	3b0b3a0e 	blcc	2ceebc <__bss_end__+0x2c50ac>
     680:	490b390b 	stmdbmi	fp, {r0, r1, r3, r8, fp, ip, sp}
     684:	00180213 	andseq	r0, r8, r3, lsl r2
     688:	00341200 	eorseq	r1, r4, r0, lsl #4
     68c:	0b3a0803 	bleq	e826a0 <__bss_end__+0xe78890>
     690:	0b390b3b 	bleq	e43384 <__bss_end__+0xe39574>
     694:	17021349 	strne	r1, [r2, -r9, asr #6]
     698:	001742b7 			; <UNDEFINED> instruction: 0x001742b7
     69c:	82891300 	addhi	r1, r9, #0, 6
     6a0:	01110101 	tsteq	r1, r1, lsl #2
     6a4:	13011331 	movwne	r1, #4913	; 0x1331
     6a8:	8a140000 	bhi	5006b0 <__bss_end__+0x4f68a0>
     6ac:	02000182 	andeq	r0, r0, #-2147483616	; 0x80000020
     6b0:	18429118 	stmdane	r2, {r3, r4, r8, ip, pc}^
     6b4:	89150000 	ldmdbhi	r5, {}	; <UNPREDICTABLE>
     6b8:	11010182 	smlabbne	r1, r2, r1, r0
     6bc:	16000001 	strne	r0, [r0], -r1
     6c0:	13490101 	movtne	r0, #37121	; 0x9101
     6c4:	00001301 	andeq	r1, r0, r1, lsl #6
     6c8:	49002117 	stmdbmi	r0, {r0, r1, r2, r4, r8, sp}
     6cc:	00052f13 	andeq	r2, r5, r3, lsl pc
     6d0:	002e1800 	eoreq	r1, lr, r0, lsl #16
     6d4:	193c193f 	ldmdbne	ip!, {r0, r1, r2, r3, r4, r5, r8, fp, ip}
     6d8:	0e030e6e 	cdpeq	14, 0, cr0, cr3, cr14, {3}
     6dc:	0b3b0b3a 	bleq	ec33cc <__bss_end__+0xeb95bc>
     6e0:	00000b39 	andeq	r0, r0, r9, lsr fp
     6e4:	01110100 	tsteq	r1, r0, lsl #2
     6e8:	0b130e25 	bleq	4c3f84 <__bss_end__+0x4ba174>
     6ec:	0e1b0e03 	cdpeq	14, 1, cr0, cr11, cr3, {0}
     6f0:	06120111 			; <UNDEFINED> instruction: 0x06120111
     6f4:	00001710 	andeq	r1, r0, r0, lsl r7
     6f8:	0b002402 	bleq	9708 <FFT_SINE_LUT+0x304>
     6fc:	030b3e0b 	movweq	r3, #48651	; 0xbe0b
     700:	03000008 	movweq	r0, #8
     704:	0b0b0024 	bleq	2c079c <__bss_end__+0x2b698c>
     708:	0e030b3e 	vmoveq.16	d3[0], r0
     70c:	15040000 	strne	r0, [r4, #-0]
     710:	49192701 	ldmdbmi	r9, {r0, r8, r9, sl, sp}
     714:	00130113 	andseq	r0, r3, r3, lsl r1
     718:	00050500 	andeq	r0, r5, r0, lsl #10
     71c:	00001349 	andeq	r1, r0, r9, asr #6
     720:	03003406 	movweq	r3, #1030	; 0x406
     724:	3b0b3a0e 	blcc	2cef64 <__bss_end__+0x2c5154>
     728:	490b390b 	stmdbmi	fp, {r0, r1, r3, r8, fp, ip, sp}
     72c:	3c193f13 	ldccc	15, cr3, [r9], {19}
     730:	07000019 	smladeq	r0, r9, r0, r0
     734:	0b0b000f 	bleq	2c0778 <__bss_end__+0x2b6968>
     738:	00001349 	andeq	r1, r0, r9, asr #6
     73c:	49002608 	stmdbmi	r0, {r3, r9, sl, sp}
     740:	09000013 	stmdbeq	r0, {r0, r1, r4}
     744:	13470034 	movtne	r0, #28724	; 0x7034
     748:	0b3b0b3a 	bleq	ec3438 <__bss_end__+0xeb9628>
     74c:	18020b39 	stmdane	r2, {r0, r3, r4, r5, r8, r9, fp}
     750:	2e0a0000 	cdpcs	0, 0, cr0, cr10, cr0, {0}
     754:	03193f01 	tsteq	r9, #1, 30
     758:	3b0b3a0e 	blcc	2cef98 <__bss_end__+0x2c5188>
     75c:	270b390b 	strcs	r3, [fp, -fp, lsl #18]
     760:	11134919 	tstne	r3, r9, lsl r9
     764:	40061201 	andmi	r1, r6, r1, lsl #4
     768:	19429618 	stmdbne	r2, {r3, r4, r9, sl, ip, pc}^
     76c:	050b0000 	streq	r0, [fp, #-0]
     770:	3a080300 	bcc	201378 <__bss_end__+0x1f7568>
     774:	390b3b0b 	stmdbcc	fp, {r0, r1, r3, r8, r9, fp, ip, sp}
     778:	0213490b 	andseq	r4, r3, #180224	; 0x2c000
     77c:	1742b717 	smlaldne	fp, r2, r7, r7
     780:	01000000 	mrseq	r0, (UNDEF: 0)
     784:	0e250111 	mcreq	1, 1, r0, cr5, cr1, {0}
     788:	0e030b13 	vmoveq.32	d3[0], r0
     78c:	01110e1b 	tsteq	r1, fp, lsl lr
     790:	17100612 			; <UNDEFINED> instruction: 0x17100612
     794:	24020000 	strcs	r0, [r2], #-0
     798:	3e0b0b00 	vmlacc.f64	d0, d11, d0
     79c:	0008030b 	andeq	r0, r8, fp, lsl #6
     7a0:	00240300 	eoreq	r0, r4, r0, lsl #6
     7a4:	0b3e0b0b 	bleq	f833d8 <__bss_end__+0xf795c8>
     7a8:	00000e03 	andeq	r0, r0, r3, lsl #28
     7ac:	03001604 	movweq	r1, #1540	; 0x604
     7b0:	3b0b3a0e 	blcc	2ceff0 <__bss_end__+0x2c51e0>
     7b4:	490b390b 	stmdbmi	fp, {r0, r1, r3, r8, fp, ip, sp}
     7b8:	05000013 	streq	r0, [r0, #-19]	; 0xffffffed
     7bc:	19270115 	stmdbne	r7!, {r0, r2, r4, r8}
     7c0:	13011349 	movwne	r1, #4937	; 0x1349
     7c4:	05060000 	streq	r0, [r6, #-0]
     7c8:	00134900 	andseq	r4, r3, r0, lsl #18
     7cc:	00340700 	eorseq	r0, r4, r0, lsl #14
     7d0:	0b3a0e03 	bleq	e83fe4 <__bss_end__+0xe7a1d4>
     7d4:	0b390b3b 	bleq	e434c8 <__bss_end__+0xe396b8>
     7d8:	193f1349 	ldmdbne	pc!, {r0, r3, r6, r8, r9, ip}	; <UNPREDICTABLE>
     7dc:	0000193c 	andeq	r1, r0, ip, lsr r9
     7e0:	0b000f08 	bleq	4408 <__code_start__-0x3bf8>
     7e4:	0013490b 	andseq	r4, r3, fp, lsl #18
     7e8:	00260900 	eoreq	r0, r6, r0, lsl #18
     7ec:	00001349 	andeq	r1, r0, r9, asr #6
     7f0:	0301130a 	movweq	r1, #4874	; 0x130a
     7f4:	3a0b0b0e 	bcc	2c3434 <__bss_end__+0x2b9624>
     7f8:	010b3b0b 	tsteq	fp, fp, lsl #22
     7fc:	0b000013 	bleq	850 <__code_start__-0x77b0>
     800:	0e03000d 	cdpeq	0, 0, cr0, cr3, cr13, {0}
     804:	0b381349 	bleq	e05530 <__bss_end__+0xdfb720>
     808:	00001934 	andeq	r1, r0, r4, lsr r9
     80c:	0b000f0c 	bleq	4444 <__code_start__-0x3bbc>
     810:	0d00000b 	stceq	0, cr0, [r0, #-44]	; 0xffffffd4
     814:	193f012e 	ldmdbne	pc!, {r1, r2, r3, r5, r8}	; <UNPREDICTABLE>
     818:	0b3a0e03 	bleq	e8402c <__bss_end__+0xe7a21c>
     81c:	0b390b3b 	bleq	e43510 <__bss_end__+0xe39700>
     820:	13491927 	movtne	r1, #39207	; 0x9927
     824:	06120111 			; <UNDEFINED> instruction: 0x06120111
     828:	42971840 	addsmi	r1, r7, #64, 16	; 0x400000
     82c:	00130119 	andseq	r0, r3, r9, lsl r1
     830:	00050e00 	andeq	r0, r5, r0, lsl #28
     834:	0b3a0803 	bleq	e82848 <__bss_end__+0xe78a38>
     838:	0b390b3b 	bleq	e4352c <__bss_end__+0xe3971c>
     83c:	17021349 	strne	r1, [r2, -r9, asr #6]
     840:	001742b7 			; <UNDEFINED> instruction: 0x001742b7
     844:	00050f00 	andeq	r0, r5, r0, lsl #30
     848:	0b3a0e03 	bleq	e8405c <__bss_end__+0xe7a24c>
     84c:	0b390b3b 	bleq	e43540 <__bss_end__+0xe39730>
     850:	18021349 	stmdane	r2, {r0, r3, r6, r8, r9, ip}
     854:	34100000 	ldrcc	r0, [r0], #-0
     858:	3a080300 	bcc	201460 <__bss_end__+0x1f7650>
     85c:	390b3b0b 	stmdbcc	fp, {r0, r1, r3, r8, r9, fp, ip, sp}
     860:	0213490b 	andseq	r4, r3, #180224	; 0x2c000
     864:	1742b717 	smlaldne	fp, r2, r7, r7
     868:	34110000 	ldrcc	r0, [r1], #-0
     86c:	3a0e0300 	bcc	381474 <__bss_end__+0x377664>
     870:	390b3b0b 	stmdbcc	fp, {r0, r1, r3, r8, r9, fp, ip, sp}
     874:	0213490b 	andseq	r4, r3, #180224	; 0x2c000
     878:	1742b717 	smlaldne	fp, r2, r7, r7
     87c:	34120000 	ldrcc	r0, [r2], #-0
     880:	490e0300 	stmdbmi	lr, {r8, r9}
     884:	02193413 	andseq	r3, r9, #318767104	; 0x13000000
     888:	13000018 	movwne	r0, #24
     88c:	0111010b 	tsteq	r1, fp, lsl #2
     890:	00000612 	andeq	r0, r0, r2, lsl r6
     894:	03003414 	movweq	r3, #1044	; 0x414
     898:	3b0b3a08 	blcc	2cf0c0 <__bss_end__+0x2c52b0>
     89c:	490b390b 	stmdbmi	fp, {r0, r1, r3, r8, fp, ip, sp}
     8a0:	00180213 	andseq	r0, r8, r3, lsl r2
     8a4:	00341500 	eorseq	r1, r4, r0, lsl #10
     8a8:	0b3a0e03 	bleq	e840bc <__bss_end__+0xe7a2ac>
     8ac:	0b390b3b 	bleq	e435a0 <__bss_end__+0xe39790>
     8b0:	18021349 	stmdane	r2, {r0, r3, r6, r8, r9, ip}
     8b4:	0b160000 	bleq	5808bc <__bss_end__+0x576aac>
     8b8:	12011101 	andne	r1, r1, #1073741824	; 0x40000000
     8bc:	00130106 	andseq	r0, r3, r6, lsl #2
     8c0:	00341700 	eorseq	r1, r4, r0, lsl #14
     8c4:	0b3a0803 	bleq	e828d8 <__bss_end__+0xe78ac8>
     8c8:	0b390b3b 	bleq	e435bc <__bss_end__+0xe397ac>
     8cc:	00001349 	andeq	r1, r0, r9, asr #6
     8d0:	01828918 	orreq	r8, r2, r8, lsl r9
     8d4:	31011101 	tstcc	r1, r1, lsl #2
     8d8:	00130113 	andseq	r0, r3, r3, lsl r1
     8dc:	828a1900 	addhi	r1, sl, #0, 18
     8e0:	18020001 	stmdane	r2, {r0}
     8e4:	00184291 	mulseq	r8, r1, r2
     8e8:	82891a00 	addhi	r1, r9, #0, 20
     8ec:	01110001 	tsteq	r1, r1
     8f0:	00001331 	andeq	r1, r0, r1, lsr r3
     8f4:	0182891b 	orreq	r8, r2, fp, lsl r9
     8f8:	01011101 	tsteq	r1, r1, lsl #2
     8fc:	1c000013 	stcne	0, cr0, [r0], {19}
     900:	13490101 	movtne	r0, #37121	; 0x9101
     904:	00001301 	andeq	r1, r0, r1, lsl #6
     908:	4900211d 	stmdbmi	r0, {r0, r2, r3, r4, r8, sp}
     90c:	000b2f13 	andeq	r2, fp, r3, lsl pc
     910:	012e1e00 			; <UNDEFINED> instruction: 0x012e1e00
     914:	0b3a0e03 	bleq	e84128 <__bss_end__+0xe7a318>
     918:	0b390b3b 	bleq	e4360c <__bss_end__+0xe397fc>
     91c:	13491927 	movtne	r1, #39207	; 0x9927
     920:	06120111 			; <UNDEFINED> instruction: 0x06120111
     924:	42971840 	addsmi	r1, r7, #64, 16	; 0x400000
     928:	00130119 	andseq	r0, r3, r9, lsl r1
     92c:	00051f00 	andeq	r1, r5, r0, lsl #30
     930:	0b3a0e03 	bleq	e84144 <__bss_end__+0xe7a334>
     934:	0b390b3b 	bleq	e43628 <__bss_end__+0xe39818>
     938:	17021349 	strne	r1, [r2, -r9, asr #6]
     93c:	001742b7 			; <UNDEFINED> instruction: 0x001742b7
     940:	012e2000 			; <UNDEFINED> instruction: 0x012e2000
     944:	0b3a0803 	bleq	e82958 <__bss_end__+0xe78b48>
     948:	0b390b3b 	bleq	e4363c <__bss_end__+0xe3982c>
     94c:	13491927 	movtne	r1, #39207	; 0x9927
     950:	06120111 			; <UNDEFINED> instruction: 0x06120111
     954:	42971840 	addsmi	r1, r7, #64, 16	; 0x400000
     958:	00130119 	andseq	r0, r3, r9, lsl r1
     95c:	012e2100 			; <UNDEFINED> instruction: 0x012e2100
     960:	0e03193f 			; <UNDEFINED> instruction: 0x0e03193f
     964:	0b3b0b3a 	bleq	ec3654 <__bss_end__+0xeb9844>
     968:	19270b39 	stmdbne	r7!, {r0, r3, r4, r5, r8, r9, fp}
     96c:	06120111 			; <UNDEFINED> instruction: 0x06120111
     970:	42971840 	addsmi	r1, r7, #64, 16	; 0x400000
     974:	00130119 	andseq	r0, r3, r9, lsl r1
     978:	002e2200 	eoreq	r2, lr, r0, lsl #4
     97c:	193c193f 	ldmdbne	ip!, {r0, r1, r2, r3, r4, r5, r8, fp, ip}
     980:	0e030e6e 	cdpeq	14, 0, cr0, cr3, cr14, {3}
     984:	0b3b0b3a 	bleq	ec3674 <__bss_end__+0xeb9864>
     988:	00000b39 	andeq	r0, r0, r9, lsr fp
     98c:	01110100 	tsteq	r1, r0, lsl #2
     990:	0b130e25 	bleq	4c422c <__bss_end__+0x4ba41c>
     994:	0e1b0e03 	cdpeq	14, 1, cr0, cr11, cr3, {0}
     998:	06120111 			; <UNDEFINED> instruction: 0x06120111
     99c:	00001710 	andeq	r1, r0, r0, lsl r7
     9a0:	0b002402 	bleq	99b0 <FFT_SINE_LUT+0x5ac>
     9a4:	030b3e0b 	movweq	r3, #48651	; 0xbe0b
     9a8:	03000008 	movweq	r0, #8
     9ac:	0b0b0024 	bleq	2c0a44 <__bss_end__+0x2b6c34>
     9b0:	0e030b3e 	vmoveq.16	d3[0], r0
     9b4:	15040000 	strne	r0, [r4, #-0]
     9b8:	49192701 	ldmdbmi	r9, {r0, r8, r9, sl, sp}
     9bc:	00130113 	andseq	r0, r3, r3, lsl r1
     9c0:	00050500 	andeq	r0, r5, r0, lsl #10
     9c4:	00001349 	andeq	r1, r0, r9, asr #6
     9c8:	03003406 	movweq	r3, #1030	; 0x406
     9cc:	3b0b3a0e 	blcc	2cf20c <__bss_end__+0x2c53fc>
     9d0:	490b390b 	stmdbmi	fp, {r0, r1, r3, r8, fp, ip, sp}
     9d4:	3c193f13 	ldccc	15, cr3, [r9], {19}
     9d8:	07000019 	smladeq	r0, r9, r0, r0
     9dc:	0b0b000f 	bleq	2c0a20 <__bss_end__+0x2b6c10>
     9e0:	00001349 	andeq	r1, r0, r9, asr #6
     9e4:	49002608 	stmdbmi	r0, {r3, r9, sl, sp}
     9e8:	09000013 	stmdbeq	r0, {r0, r1, r4}
     9ec:	193f012e 	ldmdbne	pc!, {r1, r2, r3, r5, r8}	; <UNPREDICTABLE>
     9f0:	0b3a0e03 	bleq	e84204 <__bss_end__+0xe7a3f4>
     9f4:	0b390b3b 	bleq	e436e8 <__bss_end__+0xe398d8>
     9f8:	01871927 	orreq	r1, r7, r7, lsr #18
     9fc:	12011119 	andne	r1, r1, #1073741830	; 0x40000006
     a00:	97184006 	ldrls	r4, [r8, -r6]
     a04:	13011942 	movwne	r1, #6466	; 0x1942
     a08:	890a0000 	stmdbhi	sl, {}	; <UNPREDICTABLE>
     a0c:	11010182 	smlabbne	r1, r2, r1, r0
     a10:	00130101 	andseq	r0, r3, r1, lsl #2
     a14:	828a0b00 	addhi	r0, sl, #0, 22
     a18:	18020001 	stmdane	r2, {r0}
     a1c:	00184291 	mulseq	r8, r1, r2
     a20:	82890c00 	addhi	r0, r9, #0, 24
     a24:	01110001 	tsteq	r1, r1
     a28:	00001331 	andeq	r1, r0, r1, lsr r3
     a2c:	0182890d 	orreq	r8, r2, sp, lsl #18
     a30:	31011101 	tstcc	r1, r1, lsl #2
     a34:	00130113 	andseq	r0, r3, r3, lsl r1
     a38:	002e0e00 	eoreq	r0, lr, r0, lsl #28
     a3c:	193c193f 	ldmdbne	ip!, {r0, r1, r2, r3, r4, r5, r8, fp, ip}
     a40:	0e030e6e 	cdpeq	14, 0, cr0, cr3, cr14, {3}
     a44:	0b3b0b3a 	bleq	ec3734 <__bss_end__+0xeb9924>
     a48:	00000b39 	andeq	r0, r0, r9, lsr fp
     a4c:	01110100 	tsteq	r1, r0, lsl #2
     a50:	0b130e25 	bleq	4c42ec <__bss_end__+0x4ba4dc>
     a54:	0e1b0e03 	cdpeq	14, 1, cr0, cr11, cr3, {0}
     a58:	06120111 			; <UNDEFINED> instruction: 0x06120111
     a5c:	00001710 	andeq	r1, r0, r0, lsl r7
     a60:	0b002402 	bleq	9a70 <__data_end__+0x64>
     a64:	030b3e0b 	movweq	r3, #48651	; 0xbe0b
     a68:	03000008 	movweq	r0, #8
     a6c:	0b0b0024 	bleq	2c0b04 <__bss_end__+0x2b6cf4>
     a70:	0e030b3e 	vmoveq.16	d3[0], r0
     a74:	15040000 	strne	r0, [r4, #-0]
     a78:	49192701 	ldmdbmi	r9, {r0, r8, r9, sl, sp}
     a7c:	00130113 	andseq	r0, r3, r3, lsl r1
     a80:	00050500 	andeq	r0, r5, r0, lsl #10
     a84:	00001349 	andeq	r1, r0, r9, asr #6
     a88:	03003406 	movweq	r3, #1030	; 0x406
     a8c:	3b0b3a0e 	blcc	2cf2cc <__bss_end__+0x2c54bc>
     a90:	490b390b 	stmdbmi	fp, {r0, r1, r3, r8, fp, ip, sp}
     a94:	3c193f13 	ldccc	15, cr3, [r9], {19}
     a98:	07000019 	smladeq	r0, r9, r0, r0
     a9c:	0b0b000f 	bleq	2c0ae0 <__bss_end__+0x2b6cd0>
     aa0:	00001349 	andeq	r1, r0, r9, asr #6
     aa4:	49002608 	stmdbmi	r0, {r3, r9, sl, sp}
     aa8:	09000013 	stmdbeq	r0, {r0, r1, r4}
     aac:	193f012e 	ldmdbne	pc!, {r1, r2, r3, r5, r8}	; <UNPREDICTABLE>
     ab0:	0b3a0e03 	bleq	e842c4 <__bss_end__+0xe7a4b4>
     ab4:	0b390b3b 	bleq	e437a8 <__bss_end__+0xe39998>
     ab8:	06120111 			; <UNDEFINED> instruction: 0x06120111
     abc:	42971840 	addsmi	r1, r7, #64, 16	; 0x400000
     ac0:	00130119 	andseq	r0, r3, r9, lsl r1
     ac4:	002e0a00 	eoreq	r0, lr, r0, lsl #20
     ac8:	0e03193f 			; <UNDEFINED> instruction: 0x0e03193f
     acc:	0b3b0b3a 	bleq	ec37bc <__bss_end__+0xeb99ac>
     ad0:	19270b39 	stmdbne	r7!, {r0, r3, r4, r5, r8, r9, fp}
     ad4:	0000193c 	andeq	r1, r0, ip, lsr r9
     ad8:	0300340b 	movweq	r3, #1035	; 0x40b
     adc:	3b0b3a08 	blcc	2cf304 <__bss_end__+0x2c54f4>
     ae0:	490b390b 	stmdbmi	fp, {r0, r1, r3, r8, fp, ip, sp}
     ae4:	b7170213 			; <UNDEFINED> instruction: 0xb7170213
     ae8:	00001742 	andeq	r1, r0, r2, asr #14
     aec:	0300340c 	movweq	r3, #1036	; 0x40c
     af0:	3b0b3a0e 	blcc	2cf330 <__bss_end__+0x2c5520>
     af4:	490b390b 	stmdbmi	fp, {r0, r1, r3, r8, fp, ip, sp}
     af8:	0d000013 	stceq	0, cr0, [r0, #-76]	; 0xffffffb4
     afc:	0111010b 	tsteq	r1, fp, lsl #2
     b00:	13010612 	movwne	r0, #5650	; 0x1612
     b04:	340e0000 	strcc	r0, [lr], #-0
     b08:	3a080300 	bcc	201710 <__bss_end__+0x1f7900>
     b0c:	390b3b0b 	stmdbcc	fp, {r0, r1, r3, r8, r9, fp, ip, sp}
     b10:	1c13490b 			; <UNDEFINED> instruction: 0x1c13490b
     b14:	0f00000b 	svceq	0x0000000b
     b18:	00018289 	andeq	r8, r1, r9, lsl #5
     b1c:	13310111 	teqne	r1, #1073741828	; 0x40000004
     b20:	2e100000 	cdpcs	0, 1, cr0, cr0, cr0, {0}
     b24:	3c193f00 	ldccc	15, cr3, [r9], {-0}
     b28:	030e6e19 	movweq	r6, #60953	; 0xee19
     b2c:	3b0b3a0e 	blcc	2cf36c <__bss_end__+0x2c555c>
     b30:	000b3905 	andeq	r3, fp, r5, lsl #18
     b34:	002e1100 	eoreq	r1, lr, r0, lsl #2
     b38:	193c193f 	ldmdbne	ip!, {r0, r1, r2, r3, r4, r5, r8, fp, ip}
     b3c:	0e030e6e 	cdpeq	14, 0, cr0, cr3, cr14, {3}
     b40:	0b3b0b3a 	bleq	ec3830 <__bss_end__+0xeb9a20>
     b44:	00000b39 	andeq	r0, r0, r9, lsr fp
     b48:	01110100 	tsteq	r1, r0, lsl #2
     b4c:	0b130e25 	bleq	4c43e8 <__bss_end__+0x4ba5d8>
     b50:	0e1b0e03 	cdpeq	14, 1, cr0, cr11, cr3, {0}
     b54:	06120111 			; <UNDEFINED> instruction: 0x06120111
     b58:	00001710 	andeq	r1, r0, r0, lsl r7
     b5c:	0b002402 	bleq	9b6c <__data_end__+0x160>
     b60:	030b3e0b 	movweq	r3, #48651	; 0xbe0b
     b64:	03000008 	movweq	r0, #8
     b68:	0b0b0024 	bleq	2c0c00 <__bss_end__+0x2b6df0>
     b6c:	0e030b3e 	vmoveq.16	d3[0], r0
     b70:	15040000 	strne	r0, [r4, #-0]
     b74:	49192701 	ldmdbmi	r9, {r0, r8, r9, sl, sp}
     b78:	00130113 	andseq	r0, r3, r3, lsl r1
     b7c:	00050500 	andeq	r0, r5, r0, lsl #10
     b80:	00001349 	andeq	r1, r0, r9, asr #6
     b84:	03003406 	movweq	r3, #1030	; 0x406
     b88:	3b0b3a0e 	blcc	2cf3c8 <__bss_end__+0x2c55b8>
     b8c:	490b390b 	stmdbmi	fp, {r0, r1, r3, r8, fp, ip, sp}
     b90:	3c193f13 	ldccc	15, cr3, [r9], {19}
     b94:	07000019 	smladeq	r0, r9, r0, r0
     b98:	0b0b000f 	bleq	2c0bdc <__bss_end__+0x2b6dcc>
     b9c:	00001349 	andeq	r1, r0, r9, asr #6
     ba0:	49002608 	stmdbmi	r0, {r3, r9, sl, sp}
     ba4:	09000013 	stmdbeq	r0, {r0, r1, r4}
     ba8:	193f002e 	ldmdbne	pc!, {r1, r2, r3, r5}	; <UNPREDICTABLE>
     bac:	0b3a0e03 	bleq	e843c0 <__bss_end__+0xe7a5b0>
     bb0:	0b390b3b 	bleq	e438a4 <__bss_end__+0xe39a94>
     bb4:	01111927 	tsteq	r1, r7, lsr #18
     bb8:	18400612 	stmdane	r0, {r1, r4, r9, sl}^
     bbc:	00194297 	mulseq	r9, r7, r2
     bc0:	11010000 	mrsne	r0, (UNDEF: 1)
     bc4:	130e2501 	movwne	r2, #58625	; 0xe501
     bc8:	1b0e030b 	blne	3817fc <__bss_end__+0x3779ec>
     bcc:	1117550e 	tstne	r7, lr, lsl #10
     bd0:	00171001 	andseq	r1, r7, r1
     bd4:	00240200 	eoreq	r0, r4, r0, lsl #4
     bd8:	0b3e0b0b 	bleq	f8380c <__bss_end__+0xf799fc>
     bdc:	00000803 	andeq	r0, r0, r3, lsl #16
     be0:	49002603 	stmdbmi	r0, {r0, r1, r9, sl, sp}
     be4:	04000013 	streq	r0, [r0], #-19	; 0xffffffed
     be8:	0b0b0024 	bleq	2c0c80 <__bss_end__+0x2b6e70>
     bec:	0e030b3e 	vmoveq.16	d3[0], r0
     bf0:	15050000 	strne	r0, [r5, #-0]
     bf4:	49192701 	ldmdbmi	r9, {r0, r8, r9, sl, sp}
     bf8:	00130113 	andseq	r0, r3, r3, lsl r1
     bfc:	00050600 	andeq	r0, r5, r0, lsl #12
     c00:	00001349 	andeq	r1, r0, r9, asr #6
     c04:	03003407 	movweq	r3, #1031	; 0x407
     c08:	3b0b3a0e 	blcc	2cf448 <__bss_end__+0x2c5638>
     c0c:	490b390b 	stmdbmi	fp, {r0, r1, r3, r8, fp, ip, sp}
     c10:	3c193f13 	ldccc	15, cr3, [r9], {19}
     c14:	08000019 	stmdaeq	r0, {r0, r3, r4}
     c18:	0b0b000f 	bleq	2c0c5c <__bss_end__+0x2b6e4c>
     c1c:	00001349 	andeq	r1, r0, r9, asr #6
     c20:	03003409 	movweq	r3, #1033	; 0x409
     c24:	3b0b3a0e 	blcc	2cf464 <__bss_end__+0x2c5654>
     c28:	490b390b 	stmdbmi	fp, {r0, r1, r3, r8, fp, ip, sp}
     c2c:	0a000013 	beq	c80 <__code_start__-0x7380>
     c30:	193f012e 	ldmdbne	pc!, {r1, r2, r3, r5, r8}	; <UNPREDICTABLE>
     c34:	0b3a0e03 	bleq	e84448 <__bss_end__+0xe7a638>
     c38:	0b390b3b 	bleq	e4392c <__bss_end__+0xe39b1c>
     c3c:	01871927 	orreq	r1, r7, r7, lsr #18
     c40:	12011119 	andne	r1, r1, #1073741830	; 0x40000006
     c44:	97184006 	ldrls	r4, [r8, -r6]
     c48:	13011942 	movwne	r1, #6466	; 0x1942
     c4c:	340b0000 	strcc	r0, [fp], #-0
     c50:	3a0e0300 	bcc	381858 <__bss_end__+0x377a48>
     c54:	390b3b0b 	stmdbcc	fp, {r0, r1, r3, r8, r9, fp, ip, sp}
     c58:	0213490b 	andseq	r4, r3, #180224	; 0x2c000
     c5c:	1742b717 	smlaldne	fp, r2, r7, r7
     c60:	890c0000 	stmdbhi	ip, {}	; <UNPREDICTABLE>
     c64:	11000182 	smlabbne	r0, r2, r1, r0
     c68:	00133101 	andseq	r3, r3, r1, lsl #2
     c6c:	82890d00 	addhi	r0, r9, #0, 26
     c70:	01110101 	tsteq	r1, r1, lsl #2
     c74:	13011331 	movwne	r1, #4913	; 0x1331
     c78:	8a0e0000 	bhi	380c80 <__bss_end__+0x376e70>
     c7c:	02000182 	andeq	r0, r0, #-2147483616	; 0x80000020
     c80:	18429118 	stmdane	r2, {r3, r4, r8, ip, pc}^
     c84:	2e0f0000 	cdpcs	0, 0, cr0, cr15, cr0, {0}
     c88:	03193f01 	tsteq	r9, #1, 30
     c8c:	3b0b3a0e 	blcc	2cf4cc <__bss_end__+0x2c56bc>
     c90:	270b390b 	strcs	r3, [fp, -fp, lsl #18]
     c94:	12011119 	andne	r1, r1, #1073741830	; 0x40000006
     c98:	97184006 	ldrls	r4, [r8, -r6]
     c9c:	13011942 	movwne	r1, #6466	; 0x1942
     ca0:	2e100000 	cdpcs	0, 1, cr0, cr0, cr0, {0}
     ca4:	03193f01 	tsteq	r9, #1, 30
     ca8:	3b0b3a0e 	blcc	2cf4e8 <__bss_end__+0x2c56d8>
     cac:	270b390b 	strcs	r3, [fp, -fp, lsl #18]
     cb0:	11134919 	tstne	r3, r9, lsl r9
     cb4:	40061201 	andmi	r1, r6, r1, lsl #4
     cb8:	19429718 	stmdbne	r2, {r3, r4, r8, r9, sl, ip, pc}^
     cbc:	00001301 	andeq	r1, r0, r1, lsl #6
     cc0:	3f002e11 	svccc	0x00002e11
     cc4:	6e193c19 	mrcvs	12, 0, r3, cr9, cr9, {0}
     cc8:	3a0e030e 	bcc	381908 <__bss_end__+0x377af8>
     ccc:	39053b0b 	stmdbcc	r5, {r0, r1, r3, r8, r9, fp, ip, sp}
     cd0:	1200000b 	andne	r0, r0, #11, 0
     cd4:	193f002e 	ldmdbne	pc!, {r1, r2, r3, r5}	; <UNPREDICTABLE>
     cd8:	0e6e193c 			; <UNDEFINED> instruction: 0x0e6e193c
     cdc:	0b3a0e03 	bleq	e844f0 <__bss_end__+0xe7a6e0>
     ce0:	0b390b3b 	bleq	e439d4 <__bss_end__+0xe39bc4>
     ce4:	01000000 	mrseq	r0, (UNDEF: 0)
     ce8:	0e250111 	mcreq	1, 1, r0, cr5, cr1, {0}
     cec:	0e030b13 	vmoveq.32	d3[0], r0
     cf0:	01110e1b 	tsteq	r1, fp, lsl lr
     cf4:	17100612 			; <UNDEFINED> instruction: 0x17100612
     cf8:	24020000 	strcs	r0, [r2], #-0
     cfc:	3e0b0b00 	vmlacc.f64	d0, d11, d0
     d00:	0008030b 	andeq	r0, r8, fp, lsl #6
     d04:	00240300 	eoreq	r0, r4, r0, lsl #6
     d08:	0b3e0b0b 	bleq	f8393c <__bss_end__+0xf79b2c>
     d0c:	00000e03 	andeq	r0, r0, r3, lsl #28
     d10:	27011504 	strcs	r1, [r1, -r4, lsl #10]
     d14:	01134919 	tsteq	r3, r9, lsl r9
     d18:	05000013 	streq	r0, [r0, #-19]	; 0xffffffed
     d1c:	13490005 	movtne	r0, #36869	; 0x9005
     d20:	34060000 	strcc	r0, [r6], #-0
     d24:	3a0e0300 	bcc	38192c <__bss_end__+0x377b1c>
     d28:	390b3b0b 	stmdbcc	fp, {r0, r1, r3, r8, r9, fp, ip, sp}
     d2c:	3f13490b 	svccc	0x0013490b
     d30:	00193c19 	andseq	r3, r9, r9, lsl ip
     d34:	000f0700 	andeq	r0, pc, r0, lsl #14
     d38:	13490b0b 	movtne	r0, #39691	; 0x9b0b
     d3c:	26080000 	strcs	r0, [r8], -r0
     d40:	00134900 	andseq	r4, r3, r0, lsl #18
     d44:	012e0900 			; <UNDEFINED> instruction: 0x012e0900
     d48:	0e03193f 			; <UNDEFINED> instruction: 0x0e03193f
     d4c:	0b3b0b3a 	bleq	ec3a3c <__bss_end__+0xeb9c2c>
     d50:	19270b39 	stmdbne	r7!, {r0, r3, r4, r5, r8, r9, fp}
     d54:	06120111 			; <UNDEFINED> instruction: 0x06120111
     d58:	42971840 	addsmi	r1, r7, #64, 16	; 0x400000
     d5c:	00130119 	andseq	r0, r3, r9, lsl r1
     d60:	00050a00 	andeq	r0, r5, r0, lsl #20
     d64:	0b3a0803 	bleq	e82d78 <__bss_end__+0xe78f68>
     d68:	0b390b3b 	bleq	e43a5c <__bss_end__+0xe39c4c>
     d6c:	17021349 	strne	r1, [r2, -r9, asr #6]
     d70:	001742b7 			; <UNDEFINED> instruction: 0x001742b7
     d74:	82890b00 	addhi	r0, r9, #0, 22
     d78:	01110101 	tsteq	r1, r1, lsl #2
     d7c:	00001331 	andeq	r1, r0, r1, lsr r3
     d80:	01828a0c 	orreq	r8, r2, ip, lsl #20
     d84:	91180200 	tstls	r8, r0, lsl #4
     d88:	00001842 	andeq	r1, r0, r2, asr #16
     d8c:	0300340d 	movweq	r3, #1037	; 0x40d
     d90:	3b0b3a08 	blcc	2cf5b8 <__bss_end__+0x2c57a8>
     d94:	490b390b 	stmdbmi	fp, {r0, r1, r3, r8, fp, ip, sp}
     d98:	b7170213 			; <UNDEFINED> instruction: 0xb7170213
     d9c:	00001742 	andeq	r1, r0, r2, asr #14
     da0:	11010b0e 	tstne	r1, lr, lsl #22
     da4:	01061201 	tsteq	r6, r1, lsl #4
     da8:	0f000013 	svceq	0x00000013
     dac:	00018289 	andeq	r8, r1, r9, lsl #5
     db0:	13310111 	teqne	r1, #1073741828	; 0x40000004
     db4:	2e100000 	cdpcs	0, 1, cr0, cr0, cr0, {0}
     db8:	03193f01 	tsteq	r9, #1, 30
     dbc:	3b0b3a0e 	blcc	2cf5fc <__bss_end__+0x2c57ec>
     dc0:	270b390b 	strcs	r3, [fp, -fp, lsl #18]
     dc4:	11134919 	tstne	r3, r9, lsl r9
     dc8:	40061201 	andmi	r1, r6, r1, lsl #4
     dcc:	19429718 	stmdbne	r2, {r3, r4, r8, r9, sl, ip, pc}^
     dd0:	00001301 	andeq	r1, r0, r1, lsl #6
     dd4:	3f002e11 	svccc	0x00002e11
     dd8:	6e193c19 	mrcvs	12, 0, r3, cr9, cr9, {0}
     ddc:	3a0e030e 	bcc	381a1c <__bss_end__+0x377c0c>
     de0:	390b3b0b 	stmdbcc	fp, {r0, r1, r3, r8, r9, fp, ip, sp}
     de4:	0000000b 	andeq	r0, r0, fp
     de8:	25011101 	strcs	r1, [r1, #-257]	; 0xfffffeff
     dec:	030b130e 	movweq	r1, #45838	; 0xb30e
     df0:	110e1b0e 	tstne	lr, lr, lsl #22
     df4:	10061201 	andne	r1, r6, r1, lsl #4
     df8:	02000017 	andeq	r0, r0, #23, 0
     dfc:	0b0b0024 	bleq	2c0e94 <__bss_end__+0x2b7084>
     e00:	08030b3e 	stmdaeq	r3, {r1, r2, r3, r4, r5, r8, r9, fp}
     e04:	24030000 	strcs	r0, [r3], #-0
     e08:	3e0b0b00 	vmlacc.f64	d0, d11, d0
     e0c:	000e030b 	andeq	r0, lr, fp, lsl #6
     e10:	00260400 	eoreq	r0, r6, r0, lsl #8
     e14:	00001349 	andeq	r1, r0, r9, asr #6
     e18:	03001605 	movweq	r1, #1541	; 0x605
     e1c:	3b0b3a0e 	blcc	2cf65c <__bss_end__+0x2c584c>
     e20:	490b390b 	stmdbmi	fp, {r0, r1, r3, r8, fp, ip, sp}
     e24:	06000013 			; <UNDEFINED> instruction: 0x06000013
     e28:	0b3e0104 	bleq	f81240 <__bss_end__+0xf77430>
     e2c:	13490b0b 	movtne	r0, #39691	; 0x9b0b
     e30:	0b3b0b3a 	bleq	ec3b20 <__bss_end__+0xeb9d10>
     e34:	13010b39 	movwne	r0, #6969	; 0x1b39
     e38:	28070000 	stmdacs	r7, {}	; <UNPREDICTABLE>
     e3c:	1c0e0300 	stcne	3, cr0, [lr], {-0}
     e40:	0800000b 	stmdaeq	r0, {r0, r1, r3}
     e44:	0e030034 	mcreq	0, 0, r0, cr3, cr4, {1}
     e48:	0b3b0b3a 	bleq	ec3b38 <__bss_end__+0xeb9d28>
     e4c:	13490b39 	movtne	r0, #39737	; 0x9b39
     e50:	0000061c 	andeq	r0, r0, ip, lsl r6
     e54:	3f012e09 	svccc	0x00012e09
     e58:	3a0e0319 	bcc	381ac4 <__bss_end__+0x377cb4>
     e5c:	390b3b0b 	stmdbcc	fp, {r0, r1, r3, r8, r9, fp, ip, sp}
     e60:	4919270b 	ldmdbmi	r9, {r0, r1, r3, r8, r9, sl, sp}
     e64:	12011113 	andne	r1, r1, #-1073741820	; 0xc0000004
     e68:	97184006 	ldrls	r4, [r8, -r6]
     e6c:	13011942 	movwne	r1, #6466	; 0x1942
     e70:	050a0000 	streq	r0, [sl, #-0]
     e74:	3a080300 	bcc	201a7c <__bss_end__+0x1f7c6c>
     e78:	390b3b0b 	stmdbcc	fp, {r0, r1, r3, r8, r9, fp, ip, sp}
     e7c:	0213490b 	andseq	r4, r3, #180224	; 0x2c000
     e80:	1742b717 	smlaldne	fp, r2, r7, r7
     e84:	340b0000 	strcc	r0, [fp], #-0
     e88:	3a0e0300 	bcc	381a90 <__bss_end__+0x377c80>
     e8c:	390b3b0b 	stmdbcc	fp, {r0, r1, r3, r8, r9, fp, ip, sp}
     e90:	0213490b 	andseq	r4, r3, #180224	; 0x2c000
     e94:	1742b717 	smlaldne	fp, r2, r7, r7
     e98:	340c0000 	strcc	r0, [ip], #-0
     e9c:	3a080300 	bcc	201aa4 <__bss_end__+0x1f7c94>
     ea0:	390b3b0b 	stmdbcc	fp, {r0, r1, r3, r8, r9, fp, ip, sp}
     ea4:	0213490b 	andseq	r4, r3, #180224	; 0x2c000
     ea8:	1742b717 	smlaldne	fp, r2, r7, r7
     eac:	890d0000 	stmdbhi	sp, {}	; <UNPREDICTABLE>
     eb0:	11010182 	smlabbne	r1, r2, r1, r0
     eb4:	00133101 	andseq	r3, r3, r1, lsl #2
     eb8:	828a0e00 	addhi	r0, sl, #0, 28
     ebc:	18020001 	stmdane	r2, {r0}
     ec0:	00184291 	mulseq	r8, r1, r2
     ec4:	012e0f00 			; <UNDEFINED> instruction: 0x012e0f00
     ec8:	0e03193f 			; <UNDEFINED> instruction: 0x0e03193f
     ecc:	0b3b0b3a 	bleq	ec3bbc <__bss_end__+0xeb9dac>
     ed0:	19270b39 	stmdbne	r7!, {r0, r3, r4, r5, r8, r9, fp}
     ed4:	06120111 			; <UNDEFINED> instruction: 0x06120111
     ed8:	42971840 	addsmi	r1, r7, #64, 16	; 0x400000
     edc:	00130119 	andseq	r0, r3, r9, lsl r1
     ee0:	82891000 	addhi	r1, r9, #0, 0
     ee4:	01110101 	tsteq	r1, r1, lsl #2
     ee8:	13011331 	movwne	r1, #4913	; 0x1331
     eec:	89110000 	ldmdbhi	r1, {}	; <UNPREDICTABLE>
     ef0:	11000182 	smlabbne	r0, r2, r1, r0
     ef4:	00133101 	andseq	r3, r3, r1, lsl #2
     ef8:	00051200 	andeq	r1, r5, r0, lsl #4
     efc:	0b3a0e03 	bleq	e84710 <__bss_end__+0xe7a900>
     f00:	0b390b3b 	bleq	e43bf4 <__bss_end__+0xe39de4>
     f04:	17021349 	strne	r1, [r2, -r9, asr #6]
     f08:	001742b7 			; <UNDEFINED> instruction: 0x001742b7
     f0c:	012e1300 			; <UNDEFINED> instruction: 0x012e1300
     f10:	0b3a0e03 	bleq	e84724 <__bss_end__+0xe7a914>
     f14:	0b390b3b 	bleq	e43c08 <__bss_end__+0xe39df8>
     f18:	13491927 	movtne	r1, #39207	; 0x9927
     f1c:	13010b20 	movwne	r0, #6944	; 0x1b20
     f20:	05140000 	ldreq	r0, [r4, #-0]
     f24:	3a080300 	bcc	201b2c <__bss_end__+0x1f7d1c>
     f28:	390b3b0b 	stmdbcc	fp, {r0, r1, r3, r8, r9, fp, ip, sp}
     f2c:	0013490b 	andseq	r4, r3, fp, lsl #18
     f30:	002e1500 	eoreq	r1, lr, r0, lsl #10
     f34:	193c193f 	ldmdbne	ip!, {r0, r1, r2, r3, r4, r5, r8, fp, ip}
     f38:	0e030e6e 	cdpeq	14, 0, cr0, cr3, cr14, {3}
     f3c:	0b3b0b3a 	bleq	ec3c2c <__bss_end__+0xeb9e1c>
     f40:	00000b39 	andeq	r0, r0, r9, lsr fp
     f44:	01110100 	tsteq	r1, r0, lsl #2
     f48:	0b130e25 	bleq	4c47e4 <__bss_end__+0x4ba9d4>
     f4c:	0e1b0e03 	cdpeq	14, 1, cr0, cr11, cr3, {0}
     f50:	06120111 			; <UNDEFINED> instruction: 0x06120111
     f54:	00001710 	andeq	r1, r0, r0, lsl r7
     f58:	0b002402 	bleq	9f68 <__bss_end__+0x158>
     f5c:	030b3e0b 	movweq	r3, #48651	; 0xbe0b
     f60:	03000008 	movweq	r0, #8
     f64:	0b0b0024 	bleq	2c0ffc <__bss_end__+0x2b71ec>
     f68:	0e030b3e 	vmoveq.16	d3[0], r0
     f6c:	35040000 	strcc	r0, [r4, #-0]
     f70:	00134900 	andseq	r4, r3, r0, lsl #18
     f74:	00160500 	andseq	r0, r6, r0, lsl #10
     f78:	0b3a0e03 	bleq	e8478c <__bss_end__+0xe7a97c>
     f7c:	0b390b3b 	bleq	e43c70 <__bss_end__+0xe39e60>
     f80:	00001349 	andeq	r1, r0, r9, asr #6
     f84:	3e010406 	cdpcc	4, 0, cr0, cr1, cr6, {0}
     f88:	490b0b0b 	stmdbmi	fp, {r0, r1, r3, r8, r9, fp}
     f8c:	3b0b3a13 	blcc	2cf7e0 <__bss_end__+0x2c59d0>
     f90:	010b390b 	tsteq	fp, fp, lsl #18
     f94:	07000013 	smladeq	r0, r3, r0, r0
     f98:	0e030028 	cdpeq	0, 0, cr0, cr3, cr8, {1}
     f9c:	00000b1c 	andeq	r0, r0, ip, lsl fp
     fa0:	03011308 	movweq	r1, #4872	; 0x1308
     fa4:	3a0b0b0e 	bcc	2c3be4 <__bss_end__+0x2b9dd4>
     fa8:	390b3b0b 	stmdbcc	fp, {r0, r1, r3, r8, r9, fp, ip, sp}
     fac:	0013010b 	andseq	r0, r3, fp, lsl #2
     fb0:	000d0900 	andeq	r0, sp, r0, lsl #18
     fb4:	0b3a0803 	bleq	e82fc8 <__bss_end__+0xe791b8>
     fb8:	0b390b3b 	bleq	e43cac <__bss_end__+0xe39e9c>
     fbc:	0b381349 	bleq	e05ce8 <__bss_end__+0xdfbed8>
     fc0:	0d0a0000 	stceq	0, cr0, [sl, #-0]
     fc4:	3a0e0300 	bcc	381bcc <__bss_end__+0x377dbc>
     fc8:	390b3b0b 	stmdbcc	fp, {r0, r1, r3, r8, r9, fp, ip, sp}
     fcc:	3813490b 	ldmdacc	r3, {r0, r1, r3, r8, fp, lr}
     fd0:	0b00000b 	bleq	1004 <__code_start__-0x6ffc>
     fd4:	0e030034 	mcreq	0, 0, r0, cr3, cr4, {1}
     fd8:	0b3b0b3a 	bleq	ec3cc8 <__bss_end__+0xeb9eb8>
     fdc:	13490b39 	movtne	r0, #39737	; 0x9b39
     fe0:	0000061c 	andeq	r0, r0, ip, lsl r6
     fe4:	0b000f0c 	bleq	4c1c <__code_start__-0x33e4>
     fe8:	0013490b 	andseq	r4, r3, fp, lsl #18
     fec:	00260d00 	eoreq	r0, r6, r0, lsl #26
     ff0:	00001349 	andeq	r1, r0, r9, asr #6
     ff4:	3f012e0e 	svccc	0x00012e0e
     ff8:	3a0e0319 	bcc	381c64 <__bss_end__+0x377e54>
     ffc:	390b3b0b 	stmdbcc	fp, {r0, r1, r3, r8, r9, fp, ip, sp}
    1000:	1119270b 	tstne	r9, fp, lsl #14
    1004:	40061201 	andmi	r1, r6, r1, lsl #4
    1008:	19429718 	stmdbne	r2, {r3, r4, r8, r9, sl, ip, pc}^
    100c:	00001301 	andeq	r1, r0, r1, lsl #6
    1010:	0182890f 	orreq	r8, r2, pc, lsl #18
    1014:	31011100 	mrscc	r1, (UNDEF: 17)
    1018:	10000013 	andne	r0, r0, r3, lsl r0
    101c:	193f012e 	ldmdbne	pc!, {r1, r2, r3, r5, r8}	; <UNPREDICTABLE>
    1020:	0b3a0e03 	bleq	e84834 <__bss_end__+0xe7aa24>
    1024:	0b390b3b 	bleq	e43d18 <__bss_end__+0xe39f08>
    1028:	13491927 	movtne	r1, #39207	; 0x9927
    102c:	06120111 			; <UNDEFINED> instruction: 0x06120111
    1030:	42971840 	addsmi	r1, r7, #64, 16	; 0x400000
    1034:	00130119 	andseq	r0, r3, r9, lsl r1
    1038:	82891100 	addhi	r1, r9, #0
    103c:	01110101 	tsteq	r1, r1, lsl #2
    1040:	00001331 	andeq	r1, r0, r1, lsr r3
    1044:	01828a12 	orreq	r8, r2, r2, lsl sl
    1048:	91180200 	tstls	r8, r0, lsl #4
    104c:	00001842 	andeq	r1, r0, r2, asr #16
    1050:	03000513 	movweq	r0, #1299	; 0x513
    1054:	3b0b3a08 	blcc	2cf87c <__bss_end__+0x2c5a6c>
    1058:	490b390b 	stmdbmi	fp, {r0, r1, r3, r8, fp, ip, sp}
    105c:	b7170213 			; <UNDEFINED> instruction: 0xb7170213
    1060:	00001742 	andeq	r1, r0, r2, asr #14
    1064:	01828914 	orreq	r8, r2, r4, lsl r9
    1068:	31011101 	tstcc	r1, r1, lsl #2
    106c:	00130113 	andseq	r0, r3, r3, lsl r1
    1070:	00341500 	eorseq	r1, r4, r0, lsl #10
    1074:	0b3a0803 	bleq	e83088 <__bss_end__+0xe79278>
    1078:	0b390b3b 	bleq	e43d6c <__bss_end__+0xe39f5c>
    107c:	17021349 	strne	r1, [r2, -r9, asr #6]
    1080:	001742b7 			; <UNDEFINED> instruction: 0x001742b7
    1084:	00341600 	eorseq	r1, r4, r0, lsl #12
    1088:	0b3a0e03 	bleq	e8489c <__bss_end__+0xe7aa8c>
    108c:	0b390b3b 	bleq	e43d80 <__bss_end__+0xe39f70>
    1090:	051c1349 	ldreq	r1, [ip, #-841]	; 0xfffffcb7
    1094:	2e170000 	cdpcs	0, 1, cr0, cr7, cr0, {0}
    1098:	3a0e0301 	bcc	381ca4 <__bss_end__+0x377e94>
    109c:	390b3b0b 	stmdbcc	fp, {r0, r1, r3, r8, r9, fp, ip, sp}
    10a0:	1119270b 	tstne	r9, fp, lsl #14
    10a4:	40061201 	andmi	r1, r6, r1, lsl #4
    10a8:	19429718 	stmdbne	r2, {r3, r4, r8, r9, sl, ip, pc}^
    10ac:	00001301 	andeq	r1, r0, r1, lsl #6
    10b0:	03000518 	movweq	r0, #1304	; 0x518
    10b4:	3b0b3a0e 	blcc	2cf8f4 <__bss_end__+0x2c5ae4>
    10b8:	490b390b 	stmdbmi	fp, {r0, r1, r3, r8, fp, ip, sp}
    10bc:	b7170213 			; <UNDEFINED> instruction: 0xb7170213
    10c0:	00001742 	andeq	r1, r0, r2, asr #14
    10c4:	00003519 	andeq	r3, r0, r9, lsl r5
    10c8:	002e1a00 	eoreq	r1, lr, r0, lsl #20
    10cc:	193c193f 	ldmdbne	ip!, {r0, r1, r2, r3, r4, r5, r8, fp, ip}
    10d0:	0e030e6e 	cdpeq	14, 0, cr0, cr3, cr14, {3}
    10d4:	0b3b0b3a 	bleq	ec3dc4 <__bss_end__+0xeb9fb4>
    10d8:	00000b39 	andeq	r0, r0, r9, lsr fp
    10dc:	01110100 	tsteq	r1, r0, lsl #2
    10e0:	0b130e25 	bleq	4c497c <__bss_end__+0x4bab6c>
    10e4:	0e1b0e03 	cdpeq	14, 1, cr0, cr11, cr3, {0}
    10e8:	06120111 			; <UNDEFINED> instruction: 0x06120111
    10ec:	00001710 	andeq	r1, r0, r0, lsl r7
    10f0:	0b002402 	bleq	a100 <__bss_end__+0x2f0>
    10f4:	030b3e0b 	movweq	r3, #48651	; 0xbe0b
    10f8:	03000008 	movweq	r0, #8
    10fc:	0b0b0024 	bleq	2c1194 <__bss_end__+0x2b7384>
    1100:	0e030b3e 	vmoveq.16	d3[0], r0
    1104:	15040000 	strne	r0, [r4, #-0]
    1108:	49192701 	ldmdbmi	r9, {r0, r8, r9, sl, sp}
    110c:	00130113 	andseq	r0, r3, r3, lsl r1
    1110:	00050500 	andeq	r0, r5, r0, lsl #10
    1114:	00001349 	andeq	r1, r0, r9, asr #6
    1118:	03003406 	movweq	r3, #1030	; 0x406
    111c:	3b0b3a0e 	blcc	2cf95c <__bss_end__+0x2c5b4c>
    1120:	490b390b 	stmdbmi	fp, {r0, r1, r3, r8, fp, ip, sp}
    1124:	3c193f13 	ldccc	15, cr3, [r9], {19}
    1128:	07000019 	smladeq	r0, r9, r0, r0
    112c:	0b0b000f 	bleq	2c1170 <__bss_end__+0x2b7360>
    1130:	00001349 	andeq	r1, r0, r9, asr #6
    1134:	49002608 	stmdbmi	r0, {r3, r9, sl, sp}
    1138:	09000013 	stmdbeq	r0, {r0, r1, r4}
    113c:	13470034 	movtne	r0, #28724	; 0x7034
    1140:	0b3b0b3a 	bleq	ec3e30 <__bss_end__+0xeba020>
    1144:	18020b39 	stmdane	r2, {r0, r3, r4, r5, r8, r9, fp}
    1148:	2e0a0000 	cdpcs	0, 0, cr0, cr10, cr0, {0}
    114c:	03193f01 	tsteq	r9, #1, 30
    1150:	3b0b3a0e 	blcc	2cf990 <__bss_end__+0x2c5b80>
    1154:	270b390b 	strcs	r3, [fp, -fp, lsl #18]
    1158:	12011119 	andne	r1, r1, #1073741830	; 0x40000006
    115c:	97184006 	ldrls	r4, [r8, -r6]
    1160:	13011942 	movwne	r1, #6466	; 0x1942
    1164:	050b0000 	streq	r0, [fp, #-0]
    1168:	3a080300 	bcc	201d70 <__bss_end__+0x1f7f60>
    116c:	390b3b0b 	stmdbcc	fp, {r0, r1, r3, r8, r9, fp, ip, sp}
    1170:	0213490b 	andseq	r4, r3, #180224	; 0x2c000
    1174:	0c000018 	stceq	0, cr0, [r0], {24}
    1178:	193f002e 	ldmdbne	pc!, {r1, r2, r3, r5}	; <UNPREDICTABLE>
    117c:	0b3a0e03 	bleq	e84990 <__bss_end__+0xe7ab80>
    1180:	0b390b3b 	bleq	e43e74 <__bss_end__+0xe3a064>
    1184:	01111927 	tsteq	r1, r7, lsr #18
    1188:	18400612 	stmdane	r0, {r1, r4, r9, sl}^
    118c:	00194297 	mulseq	r9, r7, r2
    1190:	012e0d00 			; <UNDEFINED> instruction: 0x012e0d00
    1194:	0b3a0e03 	bleq	e849a8 <__bss_end__+0xe7ab98>
    1198:	0b390b3b 	bleq	e43e8c <__bss_end__+0xe3a07c>
    119c:	13491927 	movtne	r1, #39207	; 0x9927
    11a0:	06120111 			; <UNDEFINED> instruction: 0x06120111
    11a4:	42971840 	addsmi	r1, r7, #64, 16	; 0x400000
    11a8:	00130119 	andseq	r0, r3, r9, lsl r1
    11ac:	00050e00 	andeq	r0, r5, r0, lsl #28
    11b0:	0b3a0803 	bleq	e831c4 <__bss_end__+0xe793b4>
    11b4:	0b390b3b 	bleq	e43ea8 <__bss_end__+0xe3a098>
    11b8:	17021349 	strne	r1, [r2, -r9, asr #6]
    11bc:	001742b7 			; <UNDEFINED> instruction: 0x001742b7
    11c0:	82890f00 	addhi	r0, r9, #0, 30
    11c4:	01110101 	tsteq	r1, r1, lsl #2
    11c8:	00001331 	andeq	r1, r0, r1, lsr r3
    11cc:	01828a10 	orreq	r8, r2, r0, lsl sl
    11d0:	91180200 	tstls	r8, r0, lsl #4
    11d4:	00001842 	andeq	r1, r0, r2, asr #16
    11d8:	3f002e11 	svccc	0x00002e11
    11dc:	6e193c19 	mrcvs	12, 0, r3, cr9, cr9, {0}
    11e0:	3a0e030e 	bcc	381e20 <__bss_end__+0x378010>
    11e4:	390b3b0b 	stmdbcc	fp, {r0, r1, r3, r8, r9, fp, ip, sp}
    11e8:	0000000b 	andeq	r0, r0, fp
    11ec:	25011101 	strcs	r1, [r1, #-257]	; 0xfffffeff
    11f0:	030b130e 	movweq	r1, #45838	; 0xb30e
    11f4:	110e1b0e 	tstne	lr, lr, lsl #22
    11f8:	10061201 	andne	r1, r6, r1, lsl #4
    11fc:	02000017 	andeq	r0, r0, #23, 0
    1200:	0b0b0024 	bleq	2c1298 <__bss_end__+0x2b7488>
    1204:	08030b3e 	stmdaeq	r3, {r1, r2, r3, r4, r5, r8, r9, fp}
    1208:	24030000 	strcs	r0, [r3], #-0
    120c:	3e0b0b00 	vmlacc.f64	d0, d11, d0
    1210:	000e030b 	andeq	r0, lr, fp, lsl #6
    1214:	01150400 	tsteq	r5, r0, lsl #8
    1218:	13491927 	movtne	r1, #39207	; 0x9927
    121c:	00001301 	andeq	r1, r0, r1, lsl #6
    1220:	49000505 	stmdbmi	r0, {r0, r2, r8, sl}
    1224:	06000013 			; <UNDEFINED> instruction: 0x06000013
    1228:	0e030034 	mcreq	0, 0, r0, cr3, cr4, {1}
    122c:	0b3b0b3a 	bleq	ec3f1c <__bss_end__+0xeba10c>
    1230:	13490b39 	movtne	r0, #39737	; 0x9b39
    1234:	193c193f 	ldmdbne	ip!, {r0, r1, r2, r3, r4, r5, r8, fp, ip}
    1238:	0f070000 	svceq	0x00070000
    123c:	490b0b00 	stmdbmi	fp, {r8, r9, fp}
    1240:	08000013 	stmdaeq	r0, {r0, r1, r4}
    1244:	13490026 	movtne	r0, #36902	; 0x9026
    1248:	2e090000 	cdpcs	0, 0, cr0, cr9, cr0, {0}
    124c:	03193f01 	tsteq	r9, #1, 30
    1250:	3b0b3a0e 	blcc	2cfa90 <__bss_end__+0x2c5c80>
    1254:	270b390b 	strcs	r3, [fp, -fp, lsl #18]
    1258:	11134919 	tstne	r3, r9, lsl r9
    125c:	40061201 	andmi	r1, r6, r1, lsl #4
    1260:	19429718 	stmdbne	r2, {r3, r4, r8, r9, sl, ip, pc}^
    1264:	00001301 	andeq	r1, r0, r1, lsl #6
    1268:	0300050a 	movweq	r0, #1290	; 0x50a
    126c:	3b0b3a0e 	blcc	2cfaac <__bss_end__+0x2c5c9c>
    1270:	490b390b 	stmdbmi	fp, {r0, r1, r3, r8, fp, ip, sp}
    1274:	00180213 	andseq	r0, r8, r3, lsl r2
    1278:	00050b00 	andeq	r0, r5, r0, lsl #22
    127c:	0b3a0803 	bleq	e83290 <__bss_end__+0xe79480>
    1280:	0b390b3b 	bleq	e43f74 <__bss_end__+0xe3a164>
    1284:	17021349 	strne	r1, [r2, -r9, asr #6]
    1288:	001742b7 			; <UNDEFINED> instruction: 0x001742b7
    128c:	00340c00 	eorseq	r0, r4, r0, lsl #24
    1290:	0b3a0803 	bleq	e832a4 <__bss_end__+0xe79494>
    1294:	0b390b3b 	bleq	e43f88 <__bss_end__+0xe3a178>
    1298:	17021349 	strne	r1, [r2, -r9, asr #6]
    129c:	001742b7 			; <UNDEFINED> instruction: 0x001742b7
    12a0:	11010000 	mrsne	r0, (UNDEF: 1)
    12a4:	130e2501 	movwne	r2, #58625	; 0xe501
    12a8:	1b0e030b 	blne	381edc <__bss_end__+0x3780cc>
    12ac:	1201110e 	andne	r1, r1, #-2147483645	; 0x80000003
    12b0:	00171006 	andseq	r1, r7, r6
    12b4:	00240200 	eoreq	r0, r4, r0, lsl #4
    12b8:	0b3e0b0b 	bleq	f83eec <__bss_end__+0xf7a0dc>
    12bc:	00000803 	andeq	r0, r0, r3, lsl #16
    12c0:	0b002403 	bleq	a2d4 <__bss_end__+0x4c4>
    12c4:	030b3e0b 	movweq	r3, #48651	; 0xbe0b
    12c8:	0400000e 	streq	r0, [r0], #-14
    12cc:	19270115 	stmdbne	r7!, {r0, r2, r4, r8}
    12d0:	13011349 	movwne	r1, #4937	; 0x1349
    12d4:	05050000 	streq	r0, [r5, #-0]
    12d8:	00134900 	andseq	r4, r3, r0, lsl #18
    12dc:	00340600 	eorseq	r0, r4, r0, lsl #12
    12e0:	0b3a0e03 	bleq	e84af4 <__bss_end__+0xe7ace4>
    12e4:	0b390b3b 	bleq	e43fd8 <__bss_end__+0xe3a1c8>
    12e8:	193f1349 	ldmdbne	pc!, {r0, r3, r6, r8, r9, ip}	; <UNPREDICTABLE>
    12ec:	0000193c 	andeq	r1, r0, ip, lsr r9
    12f0:	0b000f07 	bleq	4f14 <__code_start__-0x30ec>
    12f4:	0013490b 	andseq	r4, r3, fp, lsl #18
    12f8:	00260800 	eoreq	r0, r6, r0, lsl #16
    12fc:	00001349 	andeq	r1, r0, r9, asr #6
    1300:	3f012e09 	svccc	0x00012e09
    1304:	3a0e0319 	bcc	381f70 <__bss_end__+0x378160>
    1308:	390b3b0b 	stmdbcc	fp, {r0, r1, r3, r8, r9, fp, ip, sp}
    130c:	4919270b 	ldmdbmi	r9, {r0, r1, r3, r8, r9, sl, sp}
    1310:	12011113 	andne	r1, r1, #-1073741820	; 0xc0000004
    1314:	97184006 	ldrls	r4, [r8, -r6]
    1318:	00001942 	andeq	r1, r0, r2, asr #18
    131c:	0300050a 	movweq	r0, #1290	; 0x50a
    1320:	3b0b3a08 	blcc	2cfb48 <__bss_end__+0x2c5d38>
    1324:	490b390b 	stmdbmi	fp, {r0, r1, r3, r8, fp, ip, sp}
    1328:	b7170213 			; <UNDEFINED> instruction: 0xb7170213
    132c:	00001742 	andeq	r1, r0, r2, asr #14
    1330:	01110100 	tsteq	r1, r0, lsl #2
    1334:	0b130e25 	bleq	4c4bd0 <__bss_end__+0x4badc0>
    1338:	0e1b0e03 	cdpeq	14, 1, cr0, cr11, cr3, {0}
    133c:	06120111 			; <UNDEFINED> instruction: 0x06120111
    1340:	00001710 	andeq	r1, r0, r0, lsl r7
    1344:	0b002402 	bleq	a354 <__bss_end__+0x544>
    1348:	030b3e0b 	movweq	r3, #48651	; 0xbe0b
    134c:	03000008 	movweq	r0, #8
    1350:	0b0b0024 	bleq	2c13e8 <__bss_end__+0x2b75d8>
    1354:	0e030b3e 	vmoveq.16	d3[0], r0
    1358:	15040000 	strne	r0, [r4, #-0]
    135c:	49192701 	ldmdbmi	r9, {r0, r8, r9, sl, sp}
    1360:	00130113 	andseq	r0, r3, r3, lsl r1
    1364:	00050500 	andeq	r0, r5, r0, lsl #10
    1368:	00001349 	andeq	r1, r0, r9, asr #6
    136c:	03003406 	movweq	r3, #1030	; 0x406
    1370:	3b0b3a0e 	blcc	2cfbb0 <__bss_end__+0x2c5da0>
    1374:	490b390b 	stmdbmi	fp, {r0, r1, r3, r8, fp, ip, sp}
    1378:	3c193f13 	ldccc	15, cr3, [r9], {19}
    137c:	07000019 	smladeq	r0, r9, r0, r0
    1380:	0b0b000f 	bleq	2c13c4 <__bss_end__+0x2b75b4>
    1384:	00001349 	andeq	r1, r0, r9, asr #6
    1388:	49002608 	stmdbmi	r0, {r3, r9, sl, sp}
    138c:	09000013 	stmdbeq	r0, {r0, r1, r4}
    1390:	193f012e 	ldmdbne	pc!, {r1, r2, r3, r5, r8}	; <UNPREDICTABLE>
    1394:	0b3a0e03 	bleq	e84ba8 <__bss_end__+0xe7ad98>
    1398:	0b390b3b 	bleq	e4408c <__bss_end__+0xe3a27c>
    139c:	13491927 	movtne	r1, #39207	; 0x9927
    13a0:	06120111 			; <UNDEFINED> instruction: 0x06120111
    13a4:	42971840 	addsmi	r1, r7, #64, 16	; 0x400000
    13a8:	00130119 	andseq	r0, r3, r9, lsl r1
    13ac:	00050a00 	andeq	r0, r5, r0, lsl #20
    13b0:	0b3a0803 	bleq	e833c4 <__bss_end__+0xe795b4>
    13b4:	0b390b3b 	bleq	e440a8 <__bss_end__+0xe3a298>
    13b8:	18021349 	stmdane	r2, {r0, r3, r6, r8, r9, ip}
    13bc:	050b0000 	streq	r0, [fp, #-0]
    13c0:	3a080300 	bcc	201fc8 <__bss_end__+0x1f81b8>
    13c4:	390b3b0b 	stmdbcc	fp, {r0, r1, r3, r8, r9, fp, ip, sp}
    13c8:	0213490b 	andseq	r4, r3, #180224	; 0x2c000
    13cc:	1742b717 	smlaldne	fp, r2, r7, r7
    13d0:	340c0000 	strcc	r0, [ip], #-0
    13d4:	3a080300 	bcc	201fdc <__bss_end__+0x1f81cc>
    13d8:	390b3b0b 	stmdbcc	fp, {r0, r1, r3, r8, r9, fp, ip, sp}
    13dc:	0213490b 	andseq	r4, r3, #180224	; 0x2c000
    13e0:	1742b717 	smlaldne	fp, r2, r7, r7
    13e4:	01000000 	mrseq	r0, (UNDEF: 0)
    13e8:	0e250111 	mcreq	1, 1, r0, cr5, cr1, {0}
    13ec:	0e030b13 	vmoveq.32	d3[0], r0
    13f0:	17550e1b 	smmlane	r5, fp, lr, r0
    13f4:	17100111 			; <UNDEFINED> instruction: 0x17100111
    13f8:	24020000 	strcs	r0, [r2], #-0
    13fc:	3e0b0b00 	vmlacc.f64	d0, d11, d0
    1400:	0008030b 	andeq	r0, r8, fp, lsl #6
    1404:	00160300 	andseq	r0, r6, r0, lsl #6
    1408:	0b3a0e03 	bleq	e84c1c <__bss_end__+0xe7ae0c>
    140c:	0b390b3b 	bleq	e44100 <__bss_end__+0xe3a2f0>
    1410:	00001349 	andeq	r1, r0, r9, asr #6
    1414:	0b002404 	bleq	a42c <__bss_end__+0x61c>
    1418:	030b3e0b 	movweq	r3, #48651	; 0xbe0b
    141c:	0500000e 	streq	r0, [r0, #-14]
    1420:	13490026 	movtne	r0, #36902	; 0x9026
    1424:	15060000 	strne	r0, [r6, #-0]
    1428:	49192701 	ldmdbmi	r9, {r0, r8, r9, sl, sp}
    142c:	00130113 	andseq	r0, r3, r3, lsl r1
    1430:	00050700 	andeq	r0, r5, r0, lsl #14
    1434:	00001349 	andeq	r1, r0, r9, asr #6
    1438:	03003408 	movweq	r3, #1032	; 0x408
    143c:	3b0b3a0e 	blcc	2cfc7c <__bss_end__+0x2c5e6c>
    1440:	490b390b 	stmdbmi	fp, {r0, r1, r3, r8, fp, ip, sp}
    1444:	3c193f13 	ldccc	15, cr3, [r9], {19}
    1448:	09000019 	stmdbeq	r0, {r0, r3, r4}
    144c:	0b0b000f 	bleq	2c1490 <__bss_end__+0x2b7680>
    1450:	00001349 	andeq	r1, r0, r9, asr #6
    1454:	3f012e0a 	svccc	0x00012e0a
    1458:	3a0e0319 	bcc	3820c4 <__bss_end__+0x3782b4>
    145c:	390b3b0b 	stmdbcc	fp, {r0, r1, r3, r8, r9, fp, ip, sp}
    1460:	4919270b 	ldmdbmi	r9, {r0, r1, r3, r8, r9, sl, sp}
    1464:	12011113 	andne	r1, r1, #-1073741820	; 0xc0000004
    1468:	97184006 	ldrls	r4, [r8, -r6]
    146c:	13011942 	movwne	r1, #6466	; 0x1942
    1470:	050b0000 	streq	r0, [fp, #-0]
    1474:	3a080300 	bcc	20207c <__bss_end__+0x1f826c>
    1478:	390b3b0b 	stmdbcc	fp, {r0, r1, r3, r8, r9, fp, ip, sp}
    147c:	0213490b 	andseq	r4, r3, #180224	; 0x2c000
    1480:	1742b717 	smlaldne	fp, r2, r7, r7
    1484:	340c0000 	strcc	r0, [ip], #-0
    1488:	3a080300 	bcc	202090 <__bss_end__+0x1f8280>
    148c:	390b3b0b 	stmdbcc	fp, {r0, r1, r3, r8, r9, fp, ip, sp}
    1490:	0213490b 	andseq	r4, r3, #180224	; 0x2c000
    1494:	1742b717 	smlaldne	fp, r2, r7, r7
    1498:	01000000 	mrseq	r0, (UNDEF: 0)
    149c:	0e250111 	mcreq	1, 1, r0, cr5, cr1, {0}
    14a0:	0e030b13 	vmoveq.32	d3[0], r0
    14a4:	01110e1b 	tsteq	r1, fp, lsl lr
    14a8:	17100612 			; <UNDEFINED> instruction: 0x17100612
    14ac:	24020000 	strcs	r0, [r2], #-0
    14b0:	3e0b0b00 	vmlacc.f64	d0, d11, d0
    14b4:	0008030b 	andeq	r0, r8, fp, lsl #6
    14b8:	00240300 	eoreq	r0, r4, r0, lsl #6
    14bc:	0b3e0b0b 	bleq	f840f0 <__bss_end__+0xf7a2e0>
    14c0:	00000e03 	andeq	r0, r0, r3, lsl #28
    14c4:	27011504 	strcs	r1, [r1, -r4, lsl #10]
    14c8:	01134919 	tsteq	r3, r9, lsl r9
    14cc:	05000013 	streq	r0, [r0, #-19]	; 0xffffffed
    14d0:	13490005 	movtne	r0, #36869	; 0x9005
    14d4:	34060000 	strcc	r0, [r6], #-0
    14d8:	3a0e0300 	bcc	3820e0 <__bss_end__+0x3782d0>
    14dc:	390b3b0b 	stmdbcc	fp, {r0, r1, r3, r8, r9, fp, ip, sp}
    14e0:	3f13490b 	svccc	0x0013490b
    14e4:	00193c19 	andseq	r3, r9, r9, lsl ip
    14e8:	000f0700 	andeq	r0, pc, r0, lsl #14
    14ec:	13490b0b 	movtne	r0, #39691	; 0x9b0b
    14f0:	26080000 	strcs	r0, [r8], -r0
    14f4:	00134900 	andseq	r4, r3, r0, lsl #18
    14f8:	002e0900 	eoreq	r0, lr, r0, lsl #18
    14fc:	0e03193f 			; <UNDEFINED> instruction: 0x0e03193f
    1500:	0b3b0b3a 	bleq	ec41f0 <__bss_end__+0xeba3e0>
    1504:	19270b39 	stmdbne	r7!, {r0, r3, r4, r5, r8, r9, fp}
    1508:	06120111 			; <UNDEFINED> instruction: 0x06120111
    150c:	42971840 	addsmi	r1, r7, #64, 16	; 0x400000
    1510:	00000019 	andeq	r0, r0, r9, lsl r0

Disassembly of section .debug_loc:

00000000 <.debug_loc>:
       0:	00030300 	andeq	r0, r3, r0, lsl #6
       4:	0000003c 	andeq	r0, r0, ip, lsr r0
       8:	0000003c 	andeq	r0, r0, ip, lsr r0
       c:	3c500001 	mrrccc	0, 0, r0, r0, cr1	; <UNPREDICTABLE>
      10:	7c000000 	stcvc	0, cr0, [r0], {-0}
      14:	01000000 	mrseq	r0, (UNDEF: 0)
      18:	00005500 	andeq	r5, r0, r0, lsl #10
	...
      24:	0000005c 	andeq	r0, r0, ip, asr r0
      28:	0000006c 	andeq	r0, r0, ip, rrx
      2c:	00500001 	subseq	r0, r0, r1
      30:	00000000 	andeq	r0, r0, r0
      34:	05000000 	streq	r0, [r0, #-0]
      38:	00000000 	andeq	r0, r0, r0
      3c:	00001c00 	andeq	r1, r0, r0, lsl #24
      40:	30000200 	andcc	r0, r0, r0, lsl #4
      44:	0000009f 	muleq	r0, pc, r0	; <UNPREDICTABLE>
      48:	00000000 	andeq	r0, r0, r0
      4c:	3c030200 	sfmcc	f0, 4, [r3], {-0}
      50:	3c000000 	stccc	0, cr0, [r0], {-0}
      54:	02000000 	andeq	r0, r0, #0, 0
      58:	009f3000 	addseq	r3, pc, r0
      5c:	00000000 	andeq	r0, r0, r0
      60:	01000000 	mrseq	r0, (UNDEF: 0)
      64:	a8000000 	stmdage	r0, {}	; <UNPREDICTABLE>
      68:	ac000001 	stcge	0, cr0, [r0], {1}
      6c:	02000001 	andeq	r0, r0, #1, 0
      70:	b49f3000 	ldrlt	r3, [pc], #0	; 78 <__code_start__-0x7f88>
      74:	c4000001 	strgt	r0, [r0], #-1
      78:	01000001 	tsteq	r0, r1
      7c:	00005000 	andeq	r5, r0, r0
      80:	00000000 	andeq	r0, r0, r0
      84:	29000000 	stmdbcs	r0, {}	; <UNPREDICTABLE>
      88:	55525229 	ldrbpl	r5, [r2, #-553]	; 0xfffffdd7
      8c:	2a010055 	bcs	401e8 <__bss_end__+0x363d8>
      90:	5553532a 	ldrbpl	r5, [r3, #-810]	; 0xfffffcd6
      94:	06000055 			; <UNDEFINED> instruction: 0x06000055
      98:	00090906 	andeq	r0, r9, r6, lsl #18
      9c:	55292900 	strpl	r2, [r9, #-2304]!	; 0xfffff700
      a0:	06000055 			; <UNDEFINED> instruction: 0x06000055
      a4:	362f2f06 	strtcc	r2, [pc], -r6, lsl #30
      a8:	06000036 			; <UNDEFINED> instruction: 0x06000036
      ac:	120c0c06 	andne	r0, ip, #1536	; 0x600
      b0:	1f181812 	svcne	0x00181812
      b4:	00a0001f 	adceq	r0, r0, pc, lsl r0
      b8:	00a00000 	adceq	r0, r0, r0
      bc:	00010000 	andeq	r0, r1, r0
      c0:	0000a050 	andeq	sl, r0, r0, asr r0
      c4:	0000a000 	andeq	sl, r0, r0
      c8:	70000800 	andvc	r0, r0, r0, lsl #16
      cc:	1af00900 	bne	ffc024d4 <__bss_end__+0xffbf86c4>
      d0:	a09f2131 	addsge	r2, pc, r1, lsr r1	; <UNPREDICTABLE>
      d4:	a0000000 	andge	r0, r0, r0
      d8:	0b000000 	bleq	e0 <__code_start__-0x7f20>
      dc:	0b007000 	bleq	1c0e4 <__bss_end__+0x122d4>
      e0:	0a1af9f0 	beq	6be8a8 <__bss_end__+0x6b4a98>
      e4:	9f210601 	svcls	0x00210601
      e8:	000000a0 	andeq	r0, r0, r0, lsr #1
      ec:	000000a8 	andeq	r0, r0, r8, lsr #1
      f0:	0070000d 	rsbseq	r0, r0, sp
      f4:	1af9f00b 	bne	ffe7c128 <__bss_end__+0xffe72318>
      f8:	0006010c 	andeq	r0, r6, ip, lsl #2
      fc:	b89f215a 	ldmlt	pc, {r1, r3, r4, r6, r8, sp}	; <UNPREDICTABLE>
     100:	b8000000 	stmdalt	r0, {}	; <UNPREDICTABLE>
     104:	02000000 	andeq	r0, r0, #0, 0
     108:	b89f3000 	ldmlt	pc, {ip, sp}	; <UNPREDICTABLE>
     10c:	b8000000 	stmdalt	r0, {}	; <UNPREDICTABLE>
     110:	04000000 	streq	r0, [r0], #-0
     114:	60000a00 	andvs	r0, r0, r0, lsl #20
     118:	0000b89f 	muleq	r0, pc, r8	; <UNPREDICTABLE>
     11c:	0000b800 	andeq	fp, r0, r0, lsl #16
     120:	0a000400 	beq	1128 <__code_start__-0x6ed8>
     124:	b89f6cd8 	ldmlt	pc, {r3, r4, r6, r7, sl, fp, sp, lr}	; <UNPREDICTABLE>
     128:	cc000000 	stcgt	0, cr0, [r0], {-0}
     12c:	06000000 	streq	r0, [r0], -r0
     130:	6cd80c00 	ldclvs	12, cr0, [r8], {0}
     134:	cc9f5a00 	vldmiagt	pc, {s10-s9}
     138:	cc000000 	stcgt	0, cr0, [r0], {-0}
     13c:	01000000 	mrseq	r0, (UNDEF: 0)
     140:	00cc5000 	sbceq	r5, ip, r0
     144:	00cc0000 	sbceq	r0, ip, r0
     148:	00050000 	andeq	r0, r5, r0
     14c:	21400070 	hvccs	0
     150:	0000cc9f 	muleq	r0, pc, ip	; <UNPREDICTABLE>
     154:	0000d800 	andeq	sp, r0, r0, lsl #16
     158:	70000900 	andvc	r0, r0, r0, lsl #18
     15c:	00100c00 	andseq	r0, r0, r0, lsl #24
     160:	9f215a00 	svcls	0x00215a00
     164:	000000e8 	andeq	r0, r0, r8, ror #1
     168:	000000e8 	andeq	r0, r0, r8, ror #1
     16c:	e8500001 	ldmda	r0, {r0}^
     170:	e8000000 	stmda	r0, {}	; <UNPREDICTABLE>
     174:	0c000000 	stceq	0, cr0, [r0], {-0}
     178:	11007000 	mrsne	r7, (UNDEF: 0)
     17c:	1a4087ff 	bne	1022180 <__bss_end__+0x1018370>
     180:	21fc000a 	mvnscs	r0, sl
     184:	0000e89f 	muleq	r0, pc, r8	; <UNPREDICTABLE>
     188:	0000fc00 	andeq	pc, r0, r0, lsl #24
     18c:	70000c00 	andvc	r0, r0, r0, lsl #24
     190:	80801100 	addhi	r1, r0, r0, lsl #2
     194:	200a1a40 	andcs	r1, sl, r0, asr #20
     198:	089f21fc 	ldmeq	pc, {r2, r3, r4, r5, r6, r7, r8, sp}	; <UNPREDICTABLE>
     19c:	08000001 	stmdaeq	r0, {r0}
     1a0:	01000001 	tsteq	r0, r1
     1a4:	01085000 	mrseq	r5, (UNDEF: 8)
     1a8:	01080000 	mrseq	r0, (UNDEF: 8)
     1ac:	00070000 	andeq	r0, r7, r0
     1b0:	4a400070 	bmi	1000378 <__bss_end__+0xff6568>
     1b4:	089f2124 	ldmeq	pc, {r2, r5, r8, sp}	; <UNPREDICTABLE>
     1b8:	08000001 	stmdaeq	r0, {r0}
     1bc:	0e000001 	cdpeq	0, 0, cr0, cr0, cr1, {0}
     1c0:	11007000 	mrsne	r7, (UNDEF: 0)
     1c4:	1a43ffff 	bne	11001c8 <__bss_end__+0x10f63b8>
     1c8:	0800000c 	stmdaeq	r0, {r2, r3}
     1cc:	089f2140 	ldmeq	pc, {r6, r8, sp}	; <UNPREDICTABLE>
     1d0:	18000001 	stmdane	r0, {r0}
     1d4:	0f000001 	svceq	0x00000001
     1d8:	11007000 	mrsne	r7, (UNDEF: 0)
     1dc:	1a43ffff 	bne	11001e0 <__bss_end__+0x10f63d0>
     1e0:	a0808011 	addge	r8, r0, r1, lsl r0
     1e4:	9f217c80 	svcls	0x00217c80
     1e8:	00000124 	andeq	r0, r0, r4, lsr #2
     1ec:	00000124 	andeq	r0, r0, r4, lsr #2
     1f0:	24500001 	ldrbcs	r0, [r0], #-1
     1f4:	24000001 	strcs	r0, [r0], #-1
     1f8:	05000001 	streq	r0, [r0, #-1]
     1fc:	31007000 	mrscc	r7, (UNDEF: 0)
     200:	01249f21 			; <UNDEFINED> instruction: 0x01249f21
     204:	01240000 			; <UNDEFINED> instruction: 0x01240000
     208:	00090000 	andeq	r0, r9, r0
     20c:	010c0070 	tsteq	ip, r0, ror r0
     210:	21020000 	mrscs	r0, (UNDEF: 2)
     214:	0001249f 	muleq	r1, pc, r4	; <UNPREDICTABLE>
     218:	00012400 	andeq	r2, r1, r0, lsl #8
     21c:	70000900 	andvc	r0, r0, r0, lsl #18
     220:	00110c00 	andseq	r0, r1, r0, lsl #24
     224:	9f210200 	svcls	0x00210200
     228:	00000124 	andeq	r0, r0, r4, lsr #2
     22c:	00000124 	andeq	r0, r0, r4, lsr #2
     230:	00700009 	rsbseq	r0, r0, r9
     234:	0000130c 	andeq	r1, r0, ip, lsl #6
     238:	249f2102 	ldrcs	r2, [pc], #258	; 240 <__code_start__-0x7dc0>
     23c:	30000001 	andcc	r0, r0, r1
     240:	09000001 	stmdbeq	r0, {r0}
     244:	0c007000 	stceq	0, cr7, [r0], {-0}
     248:	03000013 	movweq	r0, #19
     24c:	00009f21 	andeq	r9, r0, r1, lsr #30
     250:	00000000 	andeq	r0, r0, r0
     254:	55530000 	ldrbpl	r0, [r3, #-0]
     258:	000000a0 	andeq	r0, r0, r0, lsr #1
     25c:	000000a0 	andeq	r0, r0, r0, lsr #1
     260:	0070000b 	rsbseq	r0, r0, fp
     264:	1af9f00b 	bne	ffe7c298 <__bss_end__+0xffe72488>
     268:	2106010a 	tstcs	r6, sl, lsl #2
     26c:	0000009f 	muleq	r0, pc, r0	; <UNPREDICTABLE>
     270:	00000000 	andeq	r0, r0, r0
     274:	cc090700 	stcgt	7, cr0, [r9], {-0}
     278:	cc000000 	stcgt	0, cr0, [r0], {-0}
     27c:	05000000 	streq	r0, [r0, #-0]
     280:	40007000 	andmi	r7, r0, r0
     284:	00009f21 	andeq	r9, r0, r1, lsr #30
     288:	00000000 	andeq	r0, r0, r0
     28c:	552a0000 	strpl	r0, [sl, #-0]!
     290:	000000e8 	andeq	r0, r0, r8, ror #1
     294:	000000e8 	andeq	r0, r0, r8, ror #1
     298:	20080003 	andcs	r0, r8, r3
     29c:	0000009f 	muleq	r0, pc, r0	; <UNPREDICTABLE>
     2a0:	00000000 	andeq	r0, r0, r0
     2a4:	e8552a00 	ldmda	r5, {r9, fp, sp}^
     2a8:	e8000000 	stmda	r0, {}	; <UNPREDICTABLE>
     2ac:	02000000 	andeq	r0, r0, #0, 0
     2b0:	009f3900 	addseq	r3, pc, r0, lsl #18
     2b4:	00000000 	andeq	r0, r0, r0
     2b8:	2a000000 	bcs	2c0 <__code_start__-0x7d40>
     2bc:	0000e855 	andeq	lr, r0, r5, asr r8
     2c0:	0000e800 	andeq	lr, r0, r0, lsl #16
     2c4:	30000200 	andcc	r0, r0, r0, lsl #4
     2c8:	0000009f 	muleq	r0, pc, r0	; <UNPREDICTABLE>
     2cc:	00000000 	andeq	r0, r0, r0
     2d0:	e8552a00 	ldmda	r5, {r9, fp, sp}^
     2d4:	e8000000 	stmda	r0, {}	; <UNPREDICTABLE>
     2d8:	0c000000 	stceq	0, cr0, [r0], {-0}
     2dc:	11007000 	mrsne	r7, (UNDEF: 0)
     2e0:	1a4087ff 	bne	10222e4 <__bss_end__+0x10184d4>
     2e4:	21fc000a 	mvnscs	r0, sl
     2e8:	0000009f 	muleq	r0, pc, r0	; <UNPREDICTABLE>
     2ec:	00000000 	andeq	r0, r0, r0
     2f0:	e8553400 	ldmda	r5, {sl, ip, sp}^
     2f4:	e8000000 	stmda	r0, {}	; <UNPREDICTABLE>
     2f8:	02000000 	andeq	r0, r0, #0, 0
     2fc:	009f3a00 	addseq	r3, pc, r0, lsl #20
     300:	00000000 	andeq	r0, r0, r0
     304:	30000000 	andcc	r0, r0, r0
     308:	00010836 	andeq	r0, r1, r6, lsr r8
     30c:	00010800 	andeq	r0, r1, r0, lsl #16
     310:	4f000200 	svcmi	0x00000200
     314:	0000009f 	muleq	r0, pc, r0	; <UNPREDICTABLE>
     318:	00000000 	andeq	r0, r0, r0
     31c:	08363000 	ldmdaeq	r6!, {ip, sp}
     320:	08000001 	stmdaeq	r0, {r0}
     324:	0e000001 	cdpeq	0, 0, cr0, cr0, cr1, {0}
     328:	11007000 	mrsne	r7, (UNDEF: 0)
     32c:	1a43ffff 	bne	1100330 <__bss_end__+0x10f6520>
     330:	0800000c 	stmdaeq	r0, {r2, r3}
     334:	009f2140 	addseq	r2, pc, r0, asr #2
     338:	00000000 	andeq	r0, r0, r0
     33c:	19000000 	stmdbne	r0, {}	; <UNPREDICTABLE>
     340:	0001241f 	andeq	r2, r1, pc, lsl r4
     344:	00012400 	andeq	r2, r1, r0, lsl #8
     348:	48000200 	stmdami	r0, {r9}
     34c:	0000009f 	muleq	r0, pc, r0	; <UNPREDICTABLE>
     350:	00000000 	andeq	r0, r0, r0
     354:	241f1900 	ldrcs	r1, [pc], #-2304	; 35c <__code_start__-0x7ca4>
     358:	24000001 	strcs	r0, [r0], #-1
     35c:	09000001 	stmdbeq	r0, {r0}
     360:	0c007000 	stceq	0, cr7, [r0], {-0}
     364:	02000013 	andeq	r0, r0, #19, 0
     368:	00009f21 	andeq	r9, r0, r1, lsr #30
     36c:	00000000 	andeq	r0, r0, r0
     370:	08000000 	stmdaeq	r0, {}	; <UNPREDICTABLE>
     374:	00000140 	andeq	r0, r0, r0, asr #2
     378:	00000140 	andeq	r0, r0, r0, asr #2
     37c:	9f480002 	svcls	0x00480002
	...
     388:	01400800 	cmpeq	r0, r0, lsl #16
     38c:	01400000 	mrseq	r0, (UNDEF: 64)
     390:	00010000 	andeq	r0, r1, r0
     394:	00000050 	andeq	r0, r0, r0, asr r0
     398:	00000000 	andeq	r0, r0, r0
     39c:	40080200 	andmi	r0, r8, r0, lsl #4
     3a0:	40000001 	andmi	r0, r0, r1
     3a4:	02000001 	andeq	r0, r0, #1, 0
     3a8:	009f4800 	addseq	r4, pc, r0, lsl #16
     3ac:	00000000 	andeq	r0, r0, r0
     3b0:	02000000 	andeq	r0, r0, #0, 0
     3b4:	00014008 	andeq	r4, r1, r8
     3b8:	00014000 	andeq	r4, r1, r0
     3bc:	50000100 	andpl	r0, r0, r0, lsl #2
	...
     3c8:	00000001 	andeq	r0, r0, r1
     3cc:	00380000 	eorseq	r0, r8, r0
     3d0:	00060000 	andeq	r0, r6, r0
     3d4:	0007c9fa 	strdeq	ip, [r7], -sl
     3d8:	00009f00 	andeq	r9, r0, r0, lsl #30
     3dc:	00000000 	andeq	r0, r0, r0
     3e0:	00010000 	andeq	r0, r1, r0
     3e4:	00000000 	andeq	r0, r0, r0
     3e8:	00000038 	andeq	r0, r0, r8, lsr r0
     3ec:	befa0006 	cdplt	0, 15, cr0, cr10, cr6, {0}
     3f0:	9f000007 	svcls	0x00000007
	...
     3fc:	00000001 	andeq	r0, r0, r1
     400:	00380000 	eorseq	r0, r8, r0
     404:	00060000 	andeq	r0, r6, r0
     408:	0007b3fa 	strdeq	fp, [r7], -sl
     40c:	00009f00 	andeq	r9, r0, r0, lsl #30
     410:	00000000 	andeq	r0, r0, r0
     414:	00010000 	andeq	r0, r1, r0
     418:	00000000 	andeq	r0, r0, r0
     41c:	00000038 	andeq	r0, r0, r8, lsr r0
     420:	a9fa0006 	ldmibge	sl!, {r1, r2}^
     424:	9f000007 	svcls	0x00000007
	...
     434:	00000038 	andeq	r0, r0, r8, lsr r0
     438:	0000003c 	andeq	r0, r0, ip, lsr r0
     43c:	3c500001 	mrrccc	0, 0, r0, r0, cr1	; <UNPREDICTABLE>
     440:	40000000 	andmi	r0, r0, r0
     444:	04000000 	streq	r0, [r0], #-0
     448:	5001f300 	andpl	pc, r1, r0, lsl #6
     44c:	0000009f 	muleq	r0, pc, r0	; <UNPREDICTABLE>
	...
     458:	0000dc00 	andeq	sp, r0, r0, lsl #24
     45c:	0000f000 	andeq	pc, r0, r0
     460:	50000100 	andpl	r0, r0, r0, lsl #2
     464:	000000f0 	strdeq	r0, [r0], -r0	; <UNPREDICTABLE>
     468:	00000104 	andeq	r0, r0, r4, lsl #2
     46c:	01f30004 	mvnseq	r0, r4
     470:	00009f50 	andeq	r9, r0, r0, asr pc
	...
     47c:	00dc0000 	sbcseq	r0, ip, r0
     480:	00ec0000 	rsceq	r0, ip, r0
     484:	00010000 	andeq	r0, r1, r0
     488:	0000ec51 	andeq	lr, r0, r1, asr ip
     48c:	00010400 	andeq	r0, r1, r0, lsl #8
     490:	f3000400 	vshl.u8	d0, d0, d0
     494:	009f5101 	addseq	r5, pc, r1, lsl #2
	...
     4a0:	dc000000 	stcle	0, cr0, [r0], {-0}
     4a4:	e8000000 	stmda	r0, {}	; <UNPREDICTABLE>
     4a8:	01000000 	mrseq	r0, (UNDEF: 0)
     4ac:	00e85200 	rsceq	r5, r8, r0, lsl #4
     4b0:	01040000 	mrseq	r0, (UNDEF: 4)
     4b4:	00040000 	andeq	r0, r4, r0
     4b8:	9f5201f3 	svcls	0x005201f3
	...
     4d4:	0000009c 	muleq	r0, ip, r0
     4d8:	9c500001 	mrrcls	0, 0, r0, r0, cr1	; <UNPREDICTABLE>
     4dc:	a4000000 	strge	r0, [r0], #-0
     4e0:	04000000 	streq	r0, [r0], #-0
     4e4:	5001f300 	andpl	pc, r1, r0, lsl #6
     4e8:	0000a49f 	muleq	r0, pc, r4	; <UNPREDICTABLE>
     4ec:	0000a800 	andeq	sl, r0, r0, lsl #16
     4f0:	50000100 	andpl	r0, r0, r0, lsl #2
     4f4:	000000a8 	andeq	r0, r0, r8, lsr #1
     4f8:	000000ac 	andeq	r0, r0, ip, lsr #1
     4fc:	01f30004 	mvnseq	r0, r4
     500:	00ac9f50 	adceq	r9, ip, r0, asr pc
     504:	00bc0000 	adcseq	r0, ip, r0
     508:	00010000 	andeq	r0, r1, r0
     50c:	0000bc50 	andeq	fp, r0, r0, asr ip
     510:	0000dc00 	andeq	sp, r0, r0, lsl #24
     514:	f3000400 	vshl.u8	d0, d0, d0
     518:	009f5001 	addseq	r5, pc, r1
	...
     52c:	98000000 	stmdals	r0, {}	; <UNPREDICTABLE>
     530:	01000000 	mrseq	r0, (UNDEF: 0)
     534:	00985100 	addseq	r5, r8, r0, lsl #2
     538:	00a40000 	adceq	r0, r4, r0
     53c:	00040000 	andeq	r0, r4, r0
     540:	9f5101f3 	svcls	0x005101f3
     544:	000000a4 	andeq	r0, r0, r4, lsr #1
     548:	000000b8 	strheq	r0, [r0], -r8
     54c:	b8510001 	ldmdalt	r1, {r0}^
     550:	dc000000 	stcle	0, cr0, [r0], {-0}
     554:	04000000 	streq	r0, [r0], #-0
     558:	5101f300 	mrspl	pc, SP_irq	; <UNPREDICTABLE>
     55c:	0000009f 	muleq	r0, pc, r0	; <UNPREDICTABLE>
	...
     570:	00002c00 	andeq	r2, r0, r0, lsl #24
     574:	52000100 	andpl	r0, r0, #0
     578:	0000002c 	andeq	r0, r0, ip, lsr #32
     57c:	000000a4 	andeq	r0, r0, r4, lsr #1
     580:	01f30004 	mvnseq	r0, r4
     584:	00a49f52 	adceq	r9, r4, r2, asr pc
     588:	00b40000 	adcseq	r0, r4, r0
     58c:	00010000 	andeq	r0, r1, r0
     590:	0000b452 	andeq	fp, r0, r2, asr r4
     594:	0000dc00 	andeq	sp, r0, r0, lsl #24
     598:	f3000400 	vshl.u8	d0, d0, d0
     59c:	009f5201 	addseq	r5, pc, r1, lsl #4
	...
     5b0:	2c000000 	stccs	0, cr0, [r0], {-0}
     5b4:	01000000 	mrseq	r0, (UNDEF: 0)
     5b8:	002c5300 	eoreq	r5, ip, r0, lsl #6
     5bc:	00a40000 	adceq	r0, r4, r0
     5c0:	00040000 	andeq	r0, r4, r0
     5c4:	9f5301f3 	svcls	0x005301f3
     5c8:	000000a4 	andeq	r0, r0, r4, lsr #1
     5cc:	000000b0 	strheq	r0, [r0], -r0	; <UNPREDICTABLE>
     5d0:	b0530001 	subslt	r0, r3, r1
     5d4:	dc000000 	stcle	0, cr0, [r0], {-0}
     5d8:	04000000 	streq	r0, [r0], #-0
     5dc:	5301f300 	movwpl	pc, #4864	; 0x1300	; <UNPREDICTABLE>
     5e0:	0000009f 	muleq	r0, pc, r0	; <UNPREDICTABLE>
     5e4:	00000000 	andeq	r0, r0, r0
     5e8:	0c000000 	stceq	0, cr0, [r0], {-0}
     5ec:	dc000000 	stcle	0, cr0, [r0], {-0}
     5f0:	01000000 	mrseq	r0, (UNDEF: 0)
     5f4:	00005700 	andeq	r5, r0, r0, lsl #14
	...
     600:	0000008c 	andeq	r0, r0, ip, lsl #1
     604:	000000a4 	andeq	r0, r0, r4, lsr #1
     608:	9f300002 	svcls	0x00300002
	...
     61c:	00000014 	andeq	r0, r0, r4, lsl r0
     620:	0000002c 	andeq	r0, r0, ip, lsr #32
     624:	9f300002 	svcls	0x00300002
     628:	0000002c 	andeq	r0, r0, ip, lsr #32
     62c:	00000048 	andeq	r0, r0, r8, asr #32
     630:	4c5c0001 	mrrcmi	0, 0, r0, ip, cr1
     634:	9f000000 	svcls	0x00000000
     638:	01000000 	mrseq	r0, (UNDEF: 0)
     63c:	00a45c00 	adceq	r5, r4, r0, lsl #24
     640:	00ac0000 	adceq	r0, ip, r0
     644:	00020000 	andeq	r0, r2, r0
     648:	00009f30 	andeq	r9, r0, r0, lsr pc
	...
     654:	0000008c 	andeq	r0, r0, ip, lsl #1
     658:	000000a4 	andeq	r0, r0, r4, lsr #1
     65c:	9f310002 	svcls	0x00310002
	...
     66c:	00140000 	andseq	r0, r4, r0
     670:	002c0000 	eoreq	r0, ip, r0
     674:	00020000 	andeq	r0, r2, r0
     678:	002c9f31 	eoreq	r9, ip, r1, lsr pc
     67c:	00a40000 	adceq	r0, r4, r0
     680:	00010000 	andeq	r0, r1, r0
     684:	0000a454 	andeq	sl, r0, r4, asr r4
     688:	0000ac00 	andeq	sl, r0, r0, lsl #24
     68c:	31000200 	mrscc	r0, R8_usr
     690:	0000009f 	muleq	r0, pc, r0	; <UNPREDICTABLE>
	...
     69c:	00003000 	andeq	r3, r0, r0
     6a0:	00005800 	andeq	r5, r0, r0, lsl #16
     6a4:	53000100 	movwpl	r0, #256	; 0x100
     6a8:	00000058 	andeq	r0, r0, r8, asr r0
     6ac:	00000060 	andeq	r0, r0, r0, rrx
     6b0:	01720003 	cmneq	r2, r3
     6b4:	0000009f 	muleq	r0, pc, r0	; <UNPREDICTABLE>
	...
     6c0:	00006000 	andeq	r6, r0, r0
     6c4:	00006c00 	andeq	r6, r0, r0, lsl #24
     6c8:	52000100 	andpl	r0, r0, #0
     6cc:	0000006c 	andeq	r0, r0, ip, rrx
     6d0:	00000074 	andeq	r0, r0, r4, ror r0
     6d4:	00700005 	rsbseq	r0, r0, r5
     6d8:	00220073 	eoreq	r0, r2, r3, ror r0
	...
     6e4:	00006c00 	andeq	r6, r0, r0, lsl #24
     6e8:	00007800 	andeq	r7, r0, r0, lsl #16
     6ec:	52000100 	andpl	r0, r0, #0
	...
     6f8:	008c0403 	addeq	r0, ip, r3, lsl #8
     6fc:	008c0000 	addeq	r0, ip, r0
     700:	00020000 	andeq	r0, r2, r0
     704:	00009f31 	andeq	r9, r0, r1, lsr pc
     708:	00000000 	andeq	r0, r0, r0
     70c:	00050000 	andeq	r0, r5, r0
     710:	0000008c 	andeq	r0, r0, ip, lsl #1
     714:	000000a4 	andeq	r0, r0, r4, lsr #1
     718:	9f320002 	svcls	0x00320002
	...
     724:	008c0007 	addeq	r0, ip, r7
     728:	00a40000 	adceq	r0, r4, r0
     72c:	00020000 	andeq	r0, r2, r0
     730:	00009f30 	andeq	r9, r0, r0, lsr pc
     734:	00000000 	andeq	r0, r0, r0
     738:	11090000 	mrsne	r0, (UNDEF: 9)
     73c:	008c0011 	addeq	r0, ip, r1, lsl r0
     740:	008c0000 	addeq	r0, ip, r0
     744:	00020000 	andeq	r0, r2, r0
     748:	008c9f30 	addeq	r9, ip, r0, lsr pc
     74c:	00a40000 	adceq	r0, r4, r0
     750:	00020000 	andeq	r0, r2, r0
     754:	00009f31 	andeq	r9, r0, r1, lsr pc
     758:	00000000 	andeq	r0, r0, r0
     75c:	0d0a0000 	stceq	0, cr0, [sl, #-0]
     760:	0000008c 	andeq	r0, r0, ip, lsl #1
     764:	0000008c 	andeq	r0, r0, ip, lsl #1
     768:	04030005 	streq	r0, [r3], #-5
     76c:	00000096 	muleq	r0, r6, r0
     770:	00000000 	andeq	r0, r0, r0
     774:	0b000000 	bleq	77c <__code_start__-0x7884>
     778:	00008c0c 	andeq	r8, r0, ip, lsl #24
     77c:	00008c00 	andeq	r8, r0, r0, lsl #24
     780:	03000900 	movweq	r0, #2304	; 0x900
     784:	00009404 	andeq	r9, r0, r4, lsl #8
     788:	9f1f0294 	svcls	0x001f0294
	...
     794:	008c000f 	addeq	r0, ip, pc
     798:	00a40000 	adceq	r0, r4, r0
     79c:	00020000 	andeq	r0, r2, r0
     7a0:	00009f30 	andeq	r9, r0, r0, lsr pc
     7a4:	00000000 	andeq	r0, r0, r0
     7a8:	00130000 	andseq	r0, r3, r0
     7ac:	008c0000 	addeq	r0, ip, r0
     7b0:	009c0000 	addseq	r0, ip, r0
     7b4:	00020000 	andeq	r0, r2, r0
     7b8:	009c0270 	addseq	r0, ip, r0, ror r2
     7bc:	009f0000 	addseq	r0, pc, r0
     7c0:	00050000 	andeq	r0, r5, r0
     7c4:	235001f3 	cmpcs	r0, #-1073741764	; 0xc000003c
     7c8:	00000002 	andeq	r0, r0, r2
     7cc:	00000000 	andeq	r0, r0, r0
     7d0:	00001500 	andeq	r1, r0, r0, lsl #10
     7d4:	00008c00 	andeq	r8, r0, r0, lsl #24
     7d8:	00009c00 	andeq	r9, r0, r0, lsl #24
     7dc:	70000200 	andvc	r0, r0, r0, lsl #4
     7e0:	00009c02 	andeq	r9, r0, r2, lsl #24
     7e4:	00009f00 	andeq	r9, r0, r0, lsl #30
     7e8:	f3000500 	vrshl.u8	d0, d0, d0
     7ec:	02235001 	eoreq	r5, r3, #1, 0
	...
     7fc:	002c0000 	eoreq	r0, ip, r0
     800:	00380000 	eorseq	r0, r8, r0
     804:	00010000 	andeq	r0, r1, r0
     808:	00003850 	andeq	r3, r0, r0, asr r8
     80c:	00004800 	andeq	r4, r0, r0, lsl #16
     810:	54000100 	strpl	r0, [r0], #-256	; 0xffffff00
     814:	00000048 	andeq	r0, r0, r8, asr #32
     818:	00000058 	andeq	r0, r0, r8, asr r0
     81c:	00500001 	subseq	r0, r0, r1
	...
     828:	00000101 	andeq	r0, r0, r1, lsl #2
     82c:	08000000 	stmdaeq	r0, {}	; <UNPREDICTABLE>
     830:	01000000 	mrseq	r0, (UNDEF: 0)
     834:	00085000 	andeq	r5, r8, r0
     838:	00340000 	eorseq	r0, r4, r0
     83c:	00010000 	andeq	r0, r1, r0
     840:	00000054 	andeq	r0, r0, r4, asr r0
	...
     84c:	88000000 	stmdahi	r0, {}	; <UNPREDICTABLE>
     850:	b8000002 	stmdalt	r0, {r1}
     854:	01000002 	tsteq	r0, r2
     858:	02b85000 	adcseq	r5, r8, #0, 0
     85c:	07040000 	streq	r0, [r4, -r0]
     860:	00010000 	andeq	r0, r1, r0
     864:	00070459 	andeq	r0, r7, r9, asr r4
     868:	00074000 	andeq	r4, r7, r0
     86c:	f3000400 	vshl.u8	d0, d0, d0
     870:	009f5001 	addseq	r5, pc, r1
	...
     880:	00028800 	andeq	r8, r2, r0, lsl #16
     884:	0002a000 	andeq	sl, r2, r0
     888:	51000100 	mrspl	r0, (UNDEF: 16)
     88c:	000002a0 	andeq	r0, r0, r0, lsr #5
     890:	000002b8 			; <UNDEFINED> instruction: 0x000002b8
     894:	01710003 	cmneq	r1, r3
     898:	0002b89f 	muleq	r2, pc, r8	; <UNPREDICTABLE>
     89c:	00074000 	andeq	r4, r7, r0
     8a0:	f3000400 	vshl.u8	d0, d0, d0
     8a4:	009f5101 	addseq	r5, pc, r1, lsl #2
	...
     8b8:	88000000 	stmdahi	r0, {}	; <UNPREDICTABLE>
     8bc:	b8000002 	stmdalt	r0, {r1}
     8c0:	01000002 	tsteq	r0, r2
     8c4:	02b85200 	adcseq	r5, r8, #0, 4
     8c8:	03ec0000 	mvneq	r0, #0, 0
     8cc:	00010000 	andeq	r0, r1, r0
     8d0:	0003ec56 	andeq	lr, r3, r6, asr ip
     8d4:	0004b800 	andeq	fp, r4, r0, lsl #16
     8d8:	5b000100 	blpl	ce0 <__code_start__-0x7320>
     8dc:	000004b8 			; <UNDEFINED> instruction: 0x000004b8
     8e0:	000004d8 	ldrdeq	r0, [r0], -r8
     8e4:	d8560001 	ldmdale	r6, {r0}^
     8e8:	5c000004 	stcpl	0, cr0, [r0], {4}
     8ec:	01000005 	tsteq	r0, r5
     8f0:	055c5b00 	ldrbeq	r5, [ip, #-2816]	; 0xfffff500
     8f4:	07040000 	streq	r0, [r4, -r0]
     8f8:	00010000 	andeq	r0, r1, r0
     8fc:	00000056 	andeq	r0, r0, r6, asr r0
     900:	00000000 	andeq	r0, r0, r0
     904:	00000100 	andeq	r0, r0, r0, lsl #2
     908:	00000000 	andeq	r0, r0, r0
     90c:	00000101 	andeq	r0, r0, r1, lsl #2
     910:	00000000 	andeq	r0, r0, r0
     914:	00000202 	andeq	r0, r0, r2, lsl #4
     918:	00029c00 	andeq	r9, r2, r0, lsl #24
     91c:	0002b800 	andeq	fp, r2, r0, lsl #16
     920:	50000100 	andpl	r0, r0, r0, lsl #2
     924:	000002b8 			; <UNDEFINED> instruction: 0x000002b8
     928:	000002bc 			; <UNDEFINED> instruction: 0x000002bc
     92c:	bc540001 	mrrclt	0, 0, r0, r4, cr1
     930:	c0000002 	andgt	r0, r0, r2
     934:	03000002 	movweq	r0, #2
     938:	9f017400 	svcls	0x00017400
     93c:	000002c0 	andeq	r0, r0, r0, asr #5
     940:	000002e4 	andeq	r0, r0, r4, ror #5
     944:	e4540001 	ldrb	r0, [r4], #-1
     948:	e8000002 	stmda	r0, {r1}
     94c:	03000002 	movweq	r0, #2
     950:	9f017400 	svcls	0x00017400
     954:	000002e8 	andeq	r0, r0, r8, ror #5
     958:	000006d4 	ldrdeq	r0, [r0], -r4
     95c:	d4540001 	ldrble	r0, [r4], #-1
     960:	d8000006 	stmdale	r0, {r1, r2}
     964:	03000006 	movweq	r0, #6
     968:	9f017400 	svcls	0x00017400
     96c:	000006d8 	ldrdeq	r0, [r0], -r8
     970:	000006f0 	strdeq	r0, [r0], -r0	; <UNPREDICTABLE>
     974:	f0540001 			; <UNDEFINED> instruction: 0xf0540001
     978:	f8000006 			; <UNDEFINED> instruction: 0xf8000006
     97c:	03000006 	movweq	r0, #6
     980:	9f017400 	svcls	0x00017400
     984:	000006f8 	strdeq	r0, [r0], -r8
     988:	00000704 	andeq	r0, r0, r4, lsl #14
     98c:	00540001 	subseq	r0, r4, r1
	...
     998:	a4000000 	strge	r0, [r0], #-0
     99c:	04000002 	streq	r0, [r0], #-2
     9a0:	01000007 	tsteq	r0, r7
     9a4:	07045800 	streq	r5, [r4, -r0, lsl #16]
     9a8:	07400000 	strbeq	r0, [r0, -r0]
     9ac:	000a0000 	andeq	r0, sl, r0
     9b0:	f35101f3 	vbsl	q8, <illegal reg q8.5>, <illegal reg q9.5>
     9b4:	31225001 			; <UNDEFINED> instruction: 0x31225001
     9b8:	00009f1c 	andeq	r9, r0, ip, lsl pc
     9bc:	00000000 	andeq	r0, r0, r0
     9c0:	00010000 	andeq	r0, r1, r0
     9c4:	00000000 	andeq	r0, r0, r0
     9c8:	00000408 	andeq	r0, r0, r8, lsl #8
     9cc:	00000474 	andeq	r0, r0, r4, ror r4
     9d0:	d8570001 	ldmdale	r7, {r0}^
     9d4:	fc000004 	stc2	0, cr0, [r0], {4}
     9d8:	01000004 	tsteq	r0, r4
     9dc:	05405700 	strbeq	r5, [r0, #-1792]	; 0xfffff900
     9e0:	055c0000 	ldrbeq	r0, [ip, #-0]
     9e4:	00010000 	andeq	r0, r1, r0
     9e8:	00000057 	andeq	r0, r0, r7, asr r0
     9ec:	00000000 	andeq	r0, r0, r0
     9f0:	00000200 	andeq	r0, r0, r0, lsl #4
     9f4:	00040800 	andeq	r0, r4, r0, lsl #16
     9f8:	0004b800 	andeq	fp, r4, r0, lsl #16
     9fc:	5a000100 	bpl	e04 <__code_start__-0x71fc>
     a00:	000004d8 	ldrdeq	r0, [r0], -r8
     a04:	0000055c 	andeq	r0, r0, ip, asr r5
     a08:	005a0001 	subseq	r0, sl, r1
     a0c:	00000000 	andeq	r0, r0, r0
     a10:	01000000 	mrseq	r0, (UNDEF: 0)
     a14:	ac000000 	stcge	0, cr0, [r0], {-0}
     a18:	b8000002 	stmdalt	r0, {r1}
     a1c:	01000002 	tsteq	r0, r2
     a20:	02b85200 	adcseq	r5, r8, #0, 4
     a24:	07400000 	strbeq	r0, [r0, -r0]
     a28:	00030000 	andeq	r0, r3, r0
     a2c:	007dc891 			; <UNDEFINED> instruction: 0x007dc891
	...
     a40:	00000101 	andeq	r0, r0, r1, lsl #2
	...
     a4c:	00047400 	andeq	r7, r4, r0, lsl #8
     a50:	00048c00 	andeq	r8, r4, r0, lsl #24
     a54:	50000100 	andpl	r0, r0, r0, lsl #2
     a58:	0000048c 	andeq	r0, r0, ip, lsl #9
     a5c:	000004b8 			; <UNDEFINED> instruction: 0x000004b8
     a60:	fc570001 	mrrc2	0, 0, r0, r7, cr1
     a64:	14000004 	strne	r0, [r0], #-4
     a68:	01000005 	tsteq	r0, r5
     a6c:	05145000 	ldreq	r5, [r4, #-0]
     a70:	05400000 	strbeq	r0, [r0, #-0]
     a74:	00010000 	andeq	r0, r1, r0
     a78:	0005a457 	andeq	sl, r5, r7, asr r4
     a7c:	0005a400 	andeq	sl, r5, r0, lsl #8
     a80:	50000100 	andpl	r0, r0, r0, lsl #2
     a84:	000005a4 	andeq	r0, r0, r4, lsr #11
     a88:	000005ac 	andeq	r0, r0, ip, lsr #11
     a8c:	dc570001 	mrrcle	0, 0, r0, r7, cr1
     a90:	e0000005 	and	r0, r0, r5
     a94:	01000005 	tsteq	r0, r5
     a98:	06105000 	ldreq	r5, [r0], -r0
     a9c:	06140000 	ldreq	r0, [r4], -r0
     aa0:	00010000 	andeq	r0, r1, r0
     aa4:	00064450 	andeq	r4, r6, r0, asr r4
     aa8:	00064800 	andeq	r4, r6, r0, lsl #16
     aac:	50000100 	andpl	r0, r0, r0, lsl #2
     ab0:	0000068c 	andeq	r0, r0, ip, lsl #13
     ab4:	00000690 	muleq	r0, r0, r6
     ab8:	d0500001 	subsle	r0, r0, r1
     abc:	f0000006 			; <UNDEFINED> instruction: 0xf0000006
     ac0:	01000006 	tsteq	r0, r6
     ac4:	00005700 	andeq	r5, r0, r0, lsl #14
     ac8:	00000000 	andeq	r0, r0, r0
     acc:	00020000 	andeq	r0, r2, r0
     ad0:	00000000 	andeq	r0, r0, r0
     ad4:	000002f4 	strdeq	r0, [r0], -r4
     ad8:	000002f8 	strdeq	r0, [r0], -r8
     adc:	9f300002 	svcls	0x00300002
     ae0:	000002f8 	strdeq	r0, [r0], -r8
     ae4:	00000314 	andeq	r0, r0, r4, lsl r3
     ae8:	1c550001 	mrrcne	0, 0, r0, r5, cr1
     aec:	f0000003 			; <UNDEFINED> instruction: 0xf0000003
     af0:	01000006 	tsteq	r0, r6
     af4:	00005500 	andeq	r5, r0, r0, lsl #10
     af8:	00000000 	andeq	r0, r0, r0
     afc:	00010000 	andeq	r0, r1, r0
	...
     b08:	000003b8 			; <UNDEFINED> instruction: 0x000003b8
     b0c:	00000454 	andeq	r0, r0, r4, asr r4
     b10:	54560001 	ldrbpl	r0, [r6], #-1
     b14:	b8000004 	stmdalt	r0, {r2}
     b18:	03000004 	movweq	r0, #4
     b1c:	9f7e7b00 	svcls	0x007e7b00
     b20:	000004b8 			; <UNDEFINED> instruction: 0x000004b8
     b24:	000004dc 	ldrdeq	r0, [r0], -ip
     b28:	dc560001 	mrrcle	0, 0, r0, r6, cr1
     b2c:	40000004 	andmi	r0, r0, r4
     b30:	03000005 	movweq	r0, #5
     b34:	9f7e7b00 	svcls	0x007e7b00
     b38:	00000540 	andeq	r0, r0, r0, asr #10
     b3c:	0000055c 	andeq	r0, r0, ip, asr r5
     b40:	00560001 	subseq	r0, r6, r1
	...
     b50:	00007000 	andeq	r7, r0, r0
     b54:	00009400 	andeq	r9, r0, r0, lsl #8
     b58:	50000100 	andpl	r0, r0, r0, lsl #2
     b5c:	00000094 	muleq	r0, r4, r0
     b60:	000000fc 	strdeq	r0, [r0], -ip
     b64:	02700003 	rsbseq	r0, r0, #3, 0
     b68:	0000fc9f 	muleq	r0, pc, ip	; <UNPREDICTABLE>
     b6c:	00022400 	andeq	r2, r2, r0, lsl #8
     b70:	f3000400 	vshl.u8	d0, d0, d0
     b74:	009f5001 	addseq	r5, pc, r1
	...
     b8c:	70000000 	andvc	r0, r0, r0
     b90:	e0000000 	and	r0, r0, r0
     b94:	01000000 	mrseq	r0, (UNDEF: 0)
     b98:	00e05100 	rsceq	r5, r0, r0, lsl #2
     b9c:	01540000 	cmpeq	r4, r0
     ba0:	00010000 	andeq	r0, r1, r0
     ba4:	00015455 	andeq	r5, r1, r5, asr r4
     ba8:	00015800 	andeq	r5, r1, r0, lsl #16
     bac:	51000100 	mrspl	r0, (UNDEF: 16)
     bb0:	00000158 	andeq	r0, r0, r8, asr r1
     bb4:	000001b0 			; <UNDEFINED> instruction: 0x000001b0
     bb8:	b0550001 	subslt	r0, r5, r1
     bbc:	c0000001 	andgt	r0, r0, r1
     bc0:	01000001 	tsteq	r0, r1
     bc4:	01c05100 	biceq	r5, r0, r0, lsl #2
     bc8:	01e40000 	mvneq	r0, r0
     bcc:	00010000 	andeq	r0, r1, r0
     bd0:	0001e455 	andeq	lr, r1, r5, asr r4
     bd4:	0001f800 	andeq	pc, r1, r0, lsl #16
     bd8:	51000100 	mrspl	r0, (UNDEF: 16)
     bdc:	000001f8 	strdeq	r0, [r0], -r8
     be0:	00000224 	andeq	r0, r0, r4, lsr #4
     be4:	00550001 	subseq	r0, r5, r1
	...
     bf0:	70000000 	andvc	r0, r0, r0
     bf4:	84000000 	strhi	r0, [r0], #-0
     bf8:	01000000 	mrseq	r0, (UNDEF: 0)
     bfc:	00845200 	addeq	r5, r4, r0, lsl #4
     c00:	02240000 	eoreq	r0, r4, #0, 0
     c04:	00010000 	andeq	r0, r1, r0
     c08:	00000054 	andeq	r0, r0, r4, asr r0
	...
     c14:	00010000 	andeq	r0, r1, r0
     c18:	00000000 	andeq	r0, r0, r0
     c1c:	00007000 	andeq	r7, r0, r0
     c20:	0000f400 	andeq	pc, r0, r0, lsl #8
     c24:	53000100 	movwpl	r0, #256	; 0x100
     c28:	0000014c 	andeq	r0, r0, ip, asr #2
     c2c:	00000180 	andeq	r0, r0, r0, lsl #3
     c30:	80530001 	subshi	r0, r3, r1
     c34:	8c000001 	stchi	0, cr0, [r0], {1}
     c38:	04000001 	streq	r0, [r0], #-1
     c3c:	5301f300 	movwpl	pc, #4864	; 0x1300	; <UNPREDICTABLE>
     c40:	0001b09f 	muleq	r1, pc, r0	; <UNPREDICTABLE>
     c44:	0001e800 	andeq	lr, r1, r0, lsl #16
     c48:	53000100 	movwpl	r0, #256	; 0x100
     c4c:	000001e8 	andeq	r0, r0, r8, ror #3
     c50:	000001ff 	strdeq	r0, [r0], -pc	; <UNPREDICTABLE>
     c54:	ff5c0001 			; <UNDEFINED> instruction: 0xff5c0001
     c58:	24000001 	strcs	r0, [r0], #-1
     c5c:	04000002 	streq	r0, [r0], #-2
     c60:	5301f300 	movwpl	pc, #4864	; 0x1300	; <UNPREDICTABLE>
     c64:	0000009f 	muleq	r0, pc, r0	; <UNPREDICTABLE>
	...
     c70:	70000000 	andvc	r0, r0, r0
     c74:	8c000000 	stchi	0, cr0, [r0], {-0}
     c78:	02000000 	andeq	r0, r0, #0, 0
     c7c:	8c009100 	stfhid	f1, [r0], {-0}
     c80:	93000000 	movwls	r0, #0
     c84:	01000001 	tsteq	r0, r1
     c88:	01b05200 	lslseq	r5, r0, #4
     c8c:	01f40000 	mvnseq	r0, r0
     c90:	00010000 	andeq	r0, r1, r0
     c94:	00000052 	andeq	r0, r0, r2, asr r0
     c98:	00000000 	andeq	r0, r0, r0
     c9c:	00000100 	andeq	r0, r0, r0, lsl #2
     ca0:	00000101 	andeq	r0, r0, r1, lsl #2
     ca4:	00000000 	andeq	r0, r0, r0
     ca8:	01010000 	mrseq	r0, (UNDEF: 1)
     cac:	00000101 	andeq	r0, r0, r1, lsl #2
     cb0:	00000101 	andeq	r0, r0, r1, lsl #2
	...
     cbc:	00008c00 	andeq	r8, r0, r0, lsl #24
     cc0:	0000fc00 	andeq	pc, r0, r0, lsl #24
     cc4:	91000400 	tstls	r0, r0, lsl #8
     cc8:	fc9f7fa0 	ldc2	15, cr7, [pc], {160}	; 0xa0
     ccc:	3c000000 	stccc	0, cr0, [r0], {-0}
     cd0:	01000001 	tsteq	r0, r1
     cd4:	013c5000 	teqeq	ip, r0
     cd8:	01480000 	mrseq	r0, (UNDEF: 72)
     cdc:	00030000 	andeq	r0, r3, r0
     ce0:	489f0271 	ldmmi	pc, {r0, r4, r5, r6, r9}	; <UNPREDICTABLE>
     ce4:	4c000001 	stcmi	0, cr0, [r0], {1}
     ce8:	01000001 	tsteq	r0, r1
     cec:	014c5000 	mrseq	r5, (UNDEF: 76)
     cf0:	01580000 	cmpeq	r8, r0
     cf4:	00040000 	andeq	r0, r4, r0
     cf8:	9f7fa091 	svcls	0x007fa091
     cfc:	00000158 	andeq	r0, r0, r8, asr r1
     d00:	0000016c 	andeq	r0, r0, ip, ror #2
     d04:	6c510001 	mrrcvs	0, 0, r0, r1, cr1
     d08:	78000001 	stmdavc	r0, {r0}
     d0c:	03000001 	movweq	r0, #1
     d10:	9f7f7100 	svcls	0x007f7100
     d14:	00000178 	andeq	r0, r0, r8, ror r1
     d18:	00000184 	andeq	r0, r0, r4, lsl #3
     d1c:	01710003 	cmneq	r1, r3
     d20:	0001849f 	muleq	r1, pc, r4	; <UNPREDICTABLE>
     d24:	00019300 	andeq	r9, r1, r0, lsl #6
     d28:	50000100 	andpl	r0, r0, r0, lsl #2
     d2c:	000001b0 			; <UNDEFINED> instruction: 0x000001b0
     d30:	000001b0 			; <UNDEFINED> instruction: 0x000001b0
     d34:	a0910004 	addsge	r0, r1, r4
     d38:	01b09f7f 	rorseq	r9, pc, pc
     d3c:	01b80000 			; <UNDEFINED> instruction: 0x01b80000
     d40:	00040000 	andeq	r0, r4, r0
     d44:	9f7fa191 	svcls	0x007fa191
     d48:	000001b8 			; <UNDEFINED> instruction: 0x000001b8
     d4c:	000001bc 			; <UNDEFINED> instruction: 0x000001bc
     d50:	bc500001 	mrrclt	0, 0, r0, r0, cr1	; <UNPREDICTABLE>
     d54:	c0000001 	andgt	r0, r0, r1
     d58:	04000001 	streq	r0, [r0], #-1
     d5c:	7fa09100 	svcvc	0x00a09100
     d60:	0001c09f 	muleq	r1, pc, r0	; <UNPREDICTABLE>
     d64:	0001d400 	andeq	sp, r1, r0, lsl #8
     d68:	50000100 	andpl	r0, r0, r0, lsl #2
     d6c:	000001d4 	ldrdeq	r0, [r0], -r4
     d70:	000001e4 	andeq	r0, r0, r4, ror #3
     d74:	7f700003 	svcvc	0x00700003
     d78:	0001e49f 	muleq	r1, pc, r4	; <UNPREDICTABLE>
     d7c:	00022400 	andeq	r2, r2, r0, lsl #8
     d80:	91000400 	tstls	r0, r0, lsl #8
     d84:	009f7fa0 	addseq	r7, pc, r0, lsr #31
	...
     d90:	01010000 	mrseq	r0, (UNDEF: 1)
	...
     da0:	90000000 	andls	r0, r0, r0
     da4:	dc000000 	stcle	0, cr0, [r0], {-0}
     da8:	01000000 	mrseq	r0, (UNDEF: 0)
     dac:	00dc5c00 	sbcseq	r5, ip, r0, lsl #24
     db0:	00f40000 	rscseq	r0, r4, r0
     db4:	00010000 	andeq	r0, r1, r0
     db8:	0000f453 	andeq	pc, r0, r3, asr r4	; <UNPREDICTABLE>
     dbc:	00014c00 	andeq	r4, r1, r0, lsl #24
     dc0:	5c000100 	stfpls	f0, [r0], {-0}
     dc4:	0000014c 	andeq	r0, r0, ip, asr #2
     dc8:	00000158 	andeq	r0, r0, r8, asr r1
     dcc:	58530001 	ldmdapl	r3, {r0}^
     dd0:	74000001 	strvc	r0, [r0], #-1
     dd4:	01000001 	tsteq	r0, r1
     dd8:	01b05c00 	lslseq	r5, r0, #24
     ddc:	01c00000 	biceq	r0, r0, r0
     de0:	00010000 	andeq	r0, r1, r0
     de4:	0001c053 	andeq	ip, r1, r3, asr r0
     de8:	0001dc00 	andeq	sp, r1, r0, lsl #24
     dec:	5c000100 	stfpls	f0, [r0], {-0}
     df0:	000001e4 	andeq	r0, r0, r4, ror #3
     df4:	000001e8 	andeq	r0, r0, r8, ror #3
     df8:	e8530001 	ldmda	r3, {r0}^
     dfc:	ff000001 			; <UNDEFINED> instruction: 0xff000001
     e00:	01000001 	tsteq	r0, r1
     e04:	01ff5c00 	mvnseq	r5, r0, lsl #24
     e08:	02240000 	eoreq	r0, r4, #0, 0
     e0c:	00040000 	andeq	r0, r4, r0
     e10:	9f5301f3 	svcls	0x005301f3
	...
     e1c:	00010101 	andeq	r0, r1, r1, lsl #2
     e20:	00000000 	andeq	r0, r0, r0
     e24:	000000dc 	ldrdeq	r0, [r0], -ip
     e28:	000000f0 	strdeq	r0, [r0], -r0	; <UNPREDICTABLE>
     e2c:	9f300002 	svcls	0x00300002
     e30:	000000f0 	strdeq	r0, [r0], -r0	; <UNPREDICTABLE>
     e34:	000000f8 	strdeq	r0, [r0], -r8
     e38:	9f310002 	svcls	0x00310002
     e3c:	000000fc 	strdeq	r0, [r0], -ip
     e40:	0000014c 	andeq	r0, r0, ip, asr #2
     e44:	4c560001 	mrrcmi	0, 0, r0, r6, cr1
     e48:	54000001 	strpl	r0, [r0], #-1
     e4c:	02000001 	andeq	r0, r0, #1, 0
     e50:	009f3000 	addseq	r3, pc, r0
	...
     e5c:	01010000 	mrseq	r0, (UNDEF: 1)
     e60:	01010000 	mrseq	r0, (UNDEF: 1)
     e64:	00003800 	andeq	r3, r0, r0, lsl #16
     e68:	00005400 	andeq	r5, r0, r0, lsl #8
     e6c:	50000100 	andpl	r0, r0, r0, lsl #2
     e70:	00000054 	andeq	r0, r0, r4, asr r0
     e74:	00000058 	andeq	r0, r0, r8, asr r0
     e78:	58520001 	ldmdapl	r2, {r0}^
     e7c:	60000000 	andvs	r0, r0, r0
     e80:	03000000 	movweq	r0, #0
     e84:	9f017200 	svcls	0x00017200
     e88:	00000060 	andeq	r0, r0, r0, rrx
     e8c:	00000064 	andeq	r0, r0, r4, rrx
     e90:	64520001 	ldrbvs	r0, [r2], #-1
     e94:	70000000 	andvc	r0, r0, r0
     e98:	03000000 	movweq	r0, #0
     e9c:	9f017200 	svcls	0x00017200
	...
     eac:	00000038 	andeq	r0, r0, r8, lsr r0
     eb0:	00000050 	andeq	r0, r0, r0, asr r0
     eb4:	50510001 	subspl	r0, r1, r1
     eb8:	70000000 	andvc	r0, r0, r0
     ebc:	04000000 	streq	r0, [r0], #-0
     ec0:	5101f300 	mrspl	pc, SP_irq	; <UNPREDICTABLE>
     ec4:	0000009f 	muleq	r0, pc, r0	; <UNPREDICTABLE>
	...
     ed0:	01010000 	mrseq	r0, (UNDEF: 1)
     ed4:	00003800 	andeq	r3, r0, r0, lsl #16
     ed8:	00005000 	andeq	r5, r0, r0
     edc:	52000100 	andpl	r0, r0, #0
     ee0:	00000050 	andeq	r0, r0, r0, asr r0
     ee4:	0000005c 	andeq	r0, r0, ip, asr r0
     ee8:	5c510001 	mrrcpl	0, 0, r0, r1, cr1
     eec:	60000000 	andvs	r0, r0, r0
     ef0:	03000000 	movweq	r0, #0
     ef4:	9f017100 	svcls	0x00017100
     ef8:	00000060 	andeq	r0, r0, r0, rrx
     efc:	00000070 	andeq	r0, r0, r0, ror r0
     f00:	00510001 	subseq	r0, r1, r1
	...
     f0c:	38000000 	stmdacc	r0, {}	; <UNPREDICTABLE>
     f10:	4c000000 	stcmi	0, cr0, [r0], {-0}
     f14:	01000000 	mrseq	r0, (UNDEF: 0)
     f18:	004c5300 	subeq	r5, ip, r0, lsl #6
     f1c:	00680000 	rsbeq	r0, r8, r0
     f20:	00010000 	andeq	r0, r1, r0
     f24:	00000053 	andeq	r0, r0, r3, asr r0
	...
     f34:	00004000 	andeq	r4, r0, r0
     f38:	00004800 	andeq	r4, r0, r0, lsl #16
     f3c:	5c000100 	stfpls	f0, [r0], {-0}
     f40:	00000048 	andeq	r0, r0, r8, asr #32
     f44:	0000004c 	andeq	r0, r0, ip, asr #32
     f48:	00720008 	rsbseq	r0, r2, r8
     f4c:	231c0073 	tstcs	ip, #115, 0	; 0x73
     f50:	004c9f01 	subeq	r9, ip, r1, lsl #30
     f54:	00540000 	subseq	r0, r4, r0
     f58:	00090000 	andeq	r0, r9, r0
     f5c:	01f30072 	mvnseq	r0, r2, ror r0
     f60:	01231c53 			; <UNDEFINED> instruction: 0x01231c53
     f64:	0000549f 	muleq	r0, pc, r4	; <UNPREDICTABLE>
     f68:	00007000 	andeq	r7, r0, r0
     f6c:	f3000a00 	vpmax.u8	d0, d0, d0
     f70:	01f35201 	mvnseq	r5, r1, lsl #4
     f74:	01231c53 			; <UNDEFINED> instruction: 0x01231c53
     f78:	0000009f 	muleq	r0, pc, r0	; <UNPREDICTABLE>
     f7c:	00000000 	andeq	r0, r0, r0
     f80:	4c000100 	stfmis	f0, [r0], {-0}
     f84:	70000000 	andvc	r0, r0, r0
     f88:	01000000 	mrseq	r0, (UNDEF: 0)
     f8c:	00005000 	andeq	r5, r0, r0
     f90:	00000000 	andeq	r0, r0, r0
     f94:	01000000 	mrseq	r0, (UNDEF: 0)
     f98:	00000001 	andeq	r0, r0, r1
     f9c:	00000014 	andeq	r0, r0, r4, lsl r0
     fa0:	0000001c 	andeq	r0, r0, ip, lsl r0
     fa4:	1c500001 	mrrcne	0, 0, r0, r0, cr1	; <UNPREDICTABLE>
     fa8:	24000000 	strcs	r0, [r0], #-0
     fac:	03000000 	movweq	r0, #0
     fb0:	9f017000 	svcls	0x00017000
     fb4:	00000024 	andeq	r0, r0, r4, lsr #32
     fb8:	00000038 	andeq	r0, r0, r8, lsr r0
     fbc:	00500001 	subseq	r0, r0, r1
	...
     fc8:	14000000 	strne	r0, [r0], #-0
     fcc:	18000000 	stmdane	r0, {}	; <UNPREDICTABLE>
     fd0:	01000000 	mrseq	r0, (UNDEF: 0)
     fd4:	00185100 	andseq	r5, r8, r0, lsl #2
     fd8:	00380000 	eorseq	r0, r8, r0
     fdc:	00040000 	andeq	r0, r4, r0
     fe0:	9f5101f3 	svcls	0x005101f3
	...
     fec:	00180000 	andseq	r0, r8, r0
     ff0:	00380000 	eorseq	r0, r8, r0
     ff4:	00010000 	andeq	r0, r1, r0
     ff8:	00000051 	andeq	r0, r0, r1, asr r0
	...
    1008:	04000000 	streq	r0, [r0], #-0
    100c:	01000000 	mrseq	r0, (UNDEF: 0)
    1010:	00045000 	andeq	r5, r4, r0
    1014:	000c0000 	andeq	r0, ip, r0
    1018:	00030000 	andeq	r0, r3, r0
    101c:	0c9f3070 	ldceq	0, cr3, [pc], {112}	; 0x70
    1020:	14000000 	strne	r0, [r0], #-0
    1024:	04000000 	streq	r0, [r0], #-0
    1028:	5001f300 	andpl	pc, r1, r0, lsl #6
    102c:	0000009f 	muleq	r0, pc, r0	; <UNPREDICTABLE>
	...
    1038:	00022400 	andeq	r2, r2, r0, lsl #8
    103c:	00026800 	andeq	r6, r2, r0, lsl #16
    1040:	50000100 	andpl	r0, r0, r0, lsl #2
    1044:	00000268 	andeq	r0, r0, r8, ror #4
    1048:	00000288 	andeq	r0, r0, r8, lsl #5
    104c:	01f30004 	mvnseq	r0, r4
    1050:	00009f50 	andeq	r9, r0, r0, asr pc
	...
    105c:	02240000 	eoreq	r0, r4, #0, 0
    1060:	02640000 	rsbeq	r0, r4, #0, 0
    1064:	00010000 	andeq	r0, r1, r0
    1068:	00026451 	andeq	r6, r2, r1, asr r4
    106c:	00028800 	andeq	r8, r2, r0, lsl #16
    1070:	f3000400 	vshl.u8	d0, d0, d0
    1074:	009f5101 	addseq	r5, pc, r1, lsl #2
	...
    1080:	00000101 	andeq	r0, r0, r1, lsl #2
    1084:	00000c00 	andeq	r0, r0, r0, lsl #24
    1088:	00001400 	andeq	r1, r0, r0, lsl #8
    108c:	53000100 	movwpl	r0, #256	; 0x100
    1090:	00000014 	andeq	r0, r0, r4, lsl r0
    1094:	0000001c 	andeq	r0, r0, ip, lsl r0
    1098:	04730003 	ldrbteq	r0, [r3], #-3
    109c:	00001c9f 	muleq	r0, pc, ip	; <UNPREDICTABLE>
    10a0:	00002300 	andeq	r2, r0, r0, lsl #6
    10a4:	53000100 	movwpl	r0, #256	; 0x100
	...
    10b0:	8c240001 	stchi	0, cr0, [r4], #-4
    10b4:	8c400000 	marhi	acc0, r0, r0
    10b8:	00060000 	andeq	r0, r6, r0
    10bc:	10001c0c 	andne	r1, r0, ip, lsl #24
    10c0:	00009f20 	andeq	r9, r0, r0, lsr #30
    10c4:	00000000 	andeq	r0, r0, r0
    10c8:	00020000 	andeq	r0, r2, r0
    10cc:	00008c24 	andeq	r8, r0, r4, lsr #24
    10d0:	00008c40 	andeq	r8, r0, r0, asr #24
    10d4:	240c0006 	strcs	r0, [ip], #-6
    10d8:	9f201000 	svcls	0x00201000
	...
    10e4:	8c240003 	stchi	0, cr0, [r4], #-12
    10e8:	8c400000 	marhi	acc0, r0, r0
    10ec:	00050000 	andeq	r0, r5, r0
    10f0:	2447b408 	strbcs	fp, [r7], #-1032	; 0xfffffbf8
    10f4:	0000009f 	muleq	r0, pc, r0	; <UNPREDICTABLE>
    10f8:	00000000 	andeq	r0, r0, r0
    10fc:	24000400 	strcs	r0, [r0], #-1024	; 0xfffffc00
    1100:	4000008c 	andmi	r0, r0, ip, lsl #1
    1104:	0300008c 	movweq	r0, #140	; 0x8c
    1108:	9f200800 	svcls	0x00200800
	...
    1114:	00000002 	andeq	r0, r0, r2
    1118:	8bf00000 	blhi	ffc01120 <__bss_end__+0xffbf7310>
    111c:	8bf40000 	blhi	ffd01124 <__bss_end__+0xffcf7314>
    1120:	00020000 	andeq	r0, r2, r0
    1124:	8bf49f30 	blhi	ffd28dec <__bss_end__+0xffd1efdc>
    1128:	8bf80000 	blhi	ffe01130 <__bss_end__+0xffdf7320>
    112c:	00010000 	andeq	r0, r1, r0
    1130:	008bfc53 	addeq	pc, fp, r3, asr ip	; <UNPREDICTABLE>
    1134:	008c0400 	addeq	r0, ip, r0, lsl #8
    1138:	53000100 	movwpl	r0, #256	; 0x100
	...
    1144:	00000002 	andeq	r0, r0, r2
    1148:	00008bd8 	ldrdeq	r8, [r0], -r8	; <UNPREDICTABLE>
    114c:	00008bdc 	ldrdeq	r8, [r0], -ip
    1150:	9f300002 	svcls	0x00300002
    1154:	00008bdc 	ldrdeq	r8, [r0], -ip
    1158:	00008be0 	andeq	r8, r0, r0, ror #23
    115c:	00500001 	subseq	r0, r0, r1
	...
    1168:	6c000000 	stcvs	0, cr0, [r0], {-0}
    116c:	78000000 	stmdavc	r0, {}	; <UNPREDICTABLE>
    1170:	01000000 	mrseq	r0, (UNDEF: 0)
    1174:	00785000 	rsbseq	r5, r8, r0
    1178:	00840000 	addeq	r0, r4, r0
    117c:	00040000 	andeq	r0, r4, r0
    1180:	9f5001f3 	svcls	0x005001f3
	...
    1190:	00000054 	andeq	r0, r0, r4, asr r0
    1194:	00000060 	andeq	r0, r0, r0, rrx
    1198:	60500001 	subsvs	r0, r0, r1
    119c:	6c000000 	stcvs	0, cr0, [r0], {-0}
    11a0:	04000000 	streq	r0, [r0], #-0
    11a4:	5001f300 	andpl	pc, r1, r0, lsl #6
    11a8:	0000009f 	muleq	r0, pc, r0	; <UNPREDICTABLE>
	...
    11b4:	00003000 	andeq	r3, r0, r0
    11b8:	00003b00 	andeq	r3, r0, r0, lsl #22
    11bc:	50000100 	andpl	r0, r0, r0, lsl #2
    11c0:	0000003b 	andeq	r0, r0, fp, lsr r0
    11c4:	00000054 	andeq	r0, r0, r4, asr r0
    11c8:	00550001 	subseq	r0, r5, r1
	...
    11d4:	00004000 	andeq	r4, r0, r0
    11d8:	00005400 	andeq	r5, r0, r0, lsl #8
    11dc:	54000100 	strpl	r0, [r0], #-256	; 0xffffff00
	...
    11e8:	00440000 	subeq	r0, r4, r0
    11ec:	00480000 	subeq	r0, r8, r0
    11f0:	00010000 	andeq	r0, r1, r0
    11f4:	00000050 	andeq	r0, r0, r0, asr r0
	...
    1200:	00002400 	andeq	r2, r0, r0, lsl #8
    1204:	00002700 	andeq	r2, r0, r0, lsl #14
    1208:	50000100 	andpl	r0, r0, r0, lsl #2
    120c:	00000027 	andeq	r0, r0, r7, lsr #32
    1210:	00000030 	andeq	r0, r0, r0, lsr r0
    1214:	00540001 	subseq	r0, r4, r1
	...
    1224:	e8000000 	stmda	r0, {}	; <UNPREDICTABLE>
    1228:	00000000 	andeq	r0, r0, r0
    122c:	01000001 	tsteq	r0, r1
    1230:	01005000 	mrseq	r5, (UNDEF: 0)
    1234:	01100000 	tsteq	r0, r0
    1238:	00040000 	andeq	r0, r4, r0
    123c:	9f5001f3 	svcls	0x005001f3
    1240:	00000110 	andeq	r0, r0, r0, lsl r1
    1244:	00000114 	andeq	r0, r0, r4, lsl r1
    1248:	14500001 	ldrbne	r0, [r0], #-1
    124c:	1c000001 	stcne	0, cr0, [r0], {1}
    1250:	04000001 	streq	r0, [r0], #-1
    1254:	5001f300 	andpl	pc, r1, r0, lsl #6
    1258:	0000009f 	muleq	r0, pc, r0	; <UNPREDICTABLE>
    125c:	00000000 	andeq	r0, r0, r0
    1260:	00000100 	andeq	r0, r0, r0, lsl #2
    1264:	f4000000 	vst4.8	{d0-d3}, [r0], r0
    1268:	00000000 	andeq	r0, r0, r0
    126c:	0b000001 	bleq	1278 <__code_start__-0x6d88>
    1270:	35007000 	strcc	r7, [r0, #-0]
    1274:	80b42325 	adcshi	r2, r4, r5, lsr #6
    1278:	9f028180 	svcls	0x00028180
    127c:	00000100 	andeq	r0, r0, r0, lsl #2
    1280:	00000103 	andeq	r0, r0, r3, lsl #2
    1284:	03500001 	cmpeq	r0, #1, 0
    1288:	10000001 	andne	r0, r0, r1
    128c:	0c000001 	stceq	0, cr0, [r0], {1}
    1290:	5001f300 	andpl	pc, r1, r0, lsl #6
    1294:	b4232535 	strtlt	r2, [r3], #-1333	; 0xfffffacb
    1298:	02818080 	addeq	r8, r1, #128, 0	; 0x80
    129c:	0000009f 	muleq	r0, pc, r0	; <UNPREDICTABLE>
    12a0:	00000000 	andeq	r0, r0, r0
    12a4:	f8000000 			; <UNDEFINED> instruction: 0xf8000000
    12a8:	10000000 	andne	r0, r0, r0
    12ac:	01000001 	tsteq	r0, r1
    12b0:	00005400 	andeq	r5, r0, r0, lsl #8
	...
    12c0:	00cc0000 	sbceq	r0, ip, r0
    12c4:	00db0000 	sbcseq	r0, fp, r0
    12c8:	00010000 	andeq	r0, r1, r0
    12cc:	0000db50 	andeq	sp, r0, r0, asr fp
    12d0:	0000e000 	andeq	lr, r0, r0
    12d4:	f3000400 	vshl.u8	d0, d0, d0
    12d8:	e09f5001 	adds	r5, pc, r1
    12dc:	e3000000 	movw	r0, #0
    12e0:	01000000 	mrseq	r0, (UNDEF: 0)
    12e4:	00e35000 	rsceq	r5, r3, r0
    12e8:	00e80000 	rsceq	r0, r8, r0
    12ec:	00040000 	andeq	r0, r4, r0
    12f0:	9f5001f3 	svcls	0x005001f3
	...
    1304:	000000cc 	andeq	r0, r0, ip, asr #1
    1308:	000000db 	ldrdeq	r0, [r0], -fp
    130c:	db510001 	blle	1441318 <__bss_end__+0x1437508>
    1310:	e0000000 	and	r0, r0, r0
    1314:	04000000 	streq	r0, [r0], #-0
    1318:	5101f300 	mrspl	pc, SP_irq	; <UNPREDICTABLE>
    131c:	0000e09f 	muleq	r0, pc, r0	; <UNPREDICTABLE>
    1320:	0000e300 	andeq	lr, r0, r0, lsl #6
    1324:	51000100 	mrspl	r0, (UNDEF: 16)
    1328:	000000e3 	andeq	r0, r0, r3, ror #1
    132c:	000000e8 	andeq	r0, r0, r8, ror #1
    1330:	01f30004 	mvnseq	r0, r4
    1334:	00009f51 	andeq	r9, r0, r1, asr pc
	...
    1340:	00bc0000 	adcseq	r0, ip, r0
    1344:	00c70000 	sbceq	r0, r7, r0
    1348:	00010000 	andeq	r0, r1, r0
    134c:	0000c750 	andeq	ip, r0, r0, asr r7
    1350:	0000cc00 	andeq	ip, r0, r0, lsl #24
    1354:	f3000400 	vshl.u8	d0, d0, d0
    1358:	009f5001 	addseq	r5, pc, r1
	...
    1364:	98000000 	stmdals	r0, {}	; <UNPREDICTABLE>
    1368:	b0000000 	andlt	r0, r0, r0
    136c:	01000000 	mrseq	r0, (UNDEF: 0)
    1370:	00b05000 	adcseq	r5, r0, r0
    1374:	00bc0000 	adcseq	r0, ip, r0
    1378:	00040000 	andeq	r0, r4, r0
    137c:	9f5001f3 	svcls	0x005001f3
	...
    138c:	00000074 	andeq	r0, r0, r4, ror r0
    1390:	0000008c 	andeq	r0, r0, ip, lsl #1
    1394:	8c500001 	mrrchi	0, 0, r0, r0, cr1	; <UNPREDICTABLE>
    1398:	98000000 	stmdals	r0, {}	; <UNPREDICTABLE>
    139c:	04000000 	streq	r0, [r0], #-0
    13a0:	5001f300 	andpl	pc, r1, r0, lsl #6
    13a4:	0000009f 	muleq	r0, pc, r0	; <UNPREDICTABLE>
	...
    13b0:	00006400 	andeq	r6, r0, r0, lsl #8
    13b4:	00006f00 	andeq	r6, r0, r0, lsl #30
    13b8:	50000100 	andpl	r0, r0, r0, lsl #2
    13bc:	0000006f 	andeq	r0, r0, pc, rrx
    13c0:	00000074 	andeq	r0, r0, r4, ror r0
    13c4:	01f30004 	mvnseq	r0, r4
    13c8:	00009f50 	andeq	r9, r0, r0, asr pc
	...
    13d8:	00380000 	eorseq	r0, r8, r0
    13dc:	00010000 	andeq	r0, r1, r0
    13e0:	00003850 	andeq	r3, r0, r0, asr r8
    13e4:	00006400 	andeq	r6, r0, r0, lsl #8
    13e8:	f3000400 	vshl.u8	d0, d0, d0
    13ec:	009f5001 	addseq	r5, pc, r1
	...
    13fc:	47000000 	strmi	r0, [r0, -r0]
    1400:	01000000 	mrseq	r0, (UNDEF: 0)
    1404:	00475100 	subeq	r5, r7, r0, lsl #2
    1408:	00640000 	rsbeq	r0, r4, r0
    140c:	00040000 	andeq	r0, r4, r0
    1410:	9f5101f3 	svcls	0x005101f3
	...
    141c:	00340000 	eorseq	r0, r4, r0
    1420:	00640000 	rsbeq	r0, r4, r0
    1424:	00010000 	andeq	r0, r1, r0
    1428:	00000054 	andeq	r0, r0, r4, asr r0
    142c:	00000000 	andeq	r0, r0, r0
    1430:	40000000 	andmi	r0, r0, r0
    1434:	64000000 	strvs	r0, [r0], #-0
    1438:	01000000 	mrseq	r0, (UNDEF: 0)
    143c:	00005600 	andeq	r5, r0, r0, lsl #12
	...
    1448:	00010100 	andeq	r0, r1, r0, lsl #2
    144c:	00480000 	subeq	r0, r8, r0
    1450:	00500000 	subseq	r0, r0, r0
    1454:	00010000 	andeq	r0, r1, r0
    1458:	00005050 	andeq	r5, r0, r0, asr r0
    145c:	00005000 	andeq	r5, r0, r0
    1460:	51000100 	mrspl	r0, (UNDEF: 16)
    1464:	00000050 	andeq	r0, r0, r0, asr r0
    1468:	00000054 	andeq	r0, r0, r4, asr r0
    146c:	00750009 	rsbseq	r0, r5, r9
    1470:	71240074 			; <UNDEFINED> instruction: 0x71240074
    1474:	549f2100 	ldrpl	r2, [pc], #256	; 147c <__code_start__-0x6b84>
    1478:	5b000000 	blpl	1480 <__code_start__-0x6b80>
    147c:	01000000 	mrseq	r0, (UNDEF: 0)
    1480:	00005100 	andeq	r5, r0, r0, lsl #2
	...
    148c:	01580000 	cmpeq	r8, r0
    1490:	01630000 	cmneq	r3, r0
    1494:	00010000 	andeq	r0, r1, r0
    1498:	00016350 	andeq	r6, r1, r0, asr r3
    149c:	00018800 	andeq	r8, r1, r0, lsl #16
    14a0:	54000100 	strpl	r0, [r0], #-256	; 0xffffff00
	...
    14ac:	01480000 	mrseq	r0, (UNDEF: 72)
    14b0:	01580000 	cmpeq	r8, r0
    14b4:	00010000 	andeq	r0, r1, r0
    14b8:	00000054 	andeq	r0, r0, r4, asr r0
	...
    14c8:	00000f00 	andeq	r0, r0, r0, lsl #30
    14cc:	50000100 	andpl	r0, r0, r0, lsl #2
    14d0:	0000000f 	andeq	r0, r0, pc
    14d4:	00000020 	andeq	r0, r0, r0, lsr #32
    14d8:	00540001 	subseq	r0, r4, r1
	...
    14e8:	0f000000 	svceq	0x00000000
    14ec:	01000000 	mrseq	r0, (UNDEF: 0)
    14f0:	000f5100 	andeq	r5, pc, r0, lsl #2
    14f4:	00200000 	eoreq	r0, r0, r0
    14f8:	00010000 	andeq	r0, r1, r0
    14fc:	00000055 	andeq	r0, r0, r5, asr r0
	...
    1508:	00002000 	andeq	r2, r0, r0
    150c:	00002f00 	andeq	r2, r0, r0, lsl #30
    1510:	50000100 	andpl	r0, r0, r0, lsl #2
    1514:	0000002f 	andeq	r0, r0, pc, lsr #32
    1518:	00000040 	andeq	r0, r0, r0, asr #32
    151c:	00540001 	subseq	r0, r4, r1
	...
    1528:	20000000 	andcs	r0, r0, r0
    152c:	2f000000 	svccs	0x00000000
    1530:	01000000 	mrseq	r0, (UNDEF: 0)
    1534:	002f5100 	eoreq	r5, pc, r0, lsl #2
    1538:	00400000 	subeq	r0, r0, r0
    153c:	00010000 	andeq	r0, r1, r0
    1540:	00000055 	andeq	r0, r0, r5, asr r0
	...
    1550:	00000b00 	andeq	r0, r0, r0, lsl #22
    1554:	50000100 	andpl	r0, r0, r0, lsl #2
    1558:	0000000b 	andeq	r0, r0, fp
    155c:	00000014 	andeq	r0, r0, r4, lsl r0
    1560:	00540001 	subseq	r0, r4, r1
	...
    1570:	1c000000 	stcne	0, cr0, [r0], {-0}
    1574:	01000000 	mrseq	r0, (UNDEF: 0)
    1578:	001c5100 	andseq	r5, ip, r0, lsl #2
    157c:	00340000 	eorseq	r0, r4, r0
    1580:	00040000 	andeq	r0, r4, r0
    1584:	9f5101f3 	svcls	0x005101f3
	...
    1590:	00000002 	andeq	r0, r0, r2
    1594:	00010100 	andeq	r0, r1, r0, lsl #2
    1598:	00000000 	andeq	r0, r0, r0
    159c:	00040000 	andeq	r0, r4, r0
    15a0:	00010000 	andeq	r0, r1, r0
    15a4:	00000450 	andeq	r0, r0, r0, asr r4
    15a8:	00001c00 	andeq	r1, r0, r0, lsl #24
    15ac:	52000100 	andpl	r0, r0, #0
    15b0:	0000001c 	andeq	r0, r0, ip, lsl r0
    15b4:	00000024 	andeq	r0, r0, r4, lsr #32
    15b8:	24530001 	ldrbcs	r0, [r3], #-1
    15bc:	28000000 	stmdacs	r0, {}	; <UNPREDICTABLE>
    15c0:	03000000 	movweq	r0, #0
    15c4:	9f017300 	svcls	0x00017300
    15c8:	00000028 	andeq	r0, r0, r8, lsr #32
    15cc:	00000034 	andeq	r0, r0, r4, lsr r0
    15d0:	00530001 	subseq	r0, r3, r1
    15d4:	00000000 	andeq	r0, r0, r0
    15d8:	03000000 	movweq	r0, #0
    15dc:	00000000 	andeq	r0, r0, r0
    15e0:	24000000 	strcs	r0, [r0], #-0
    15e4:	01000000 	mrseq	r0, (UNDEF: 0)
    15e8:	00245100 	eoreq	r5, r4, r0, lsl #2
    15ec:	00340000 	eorseq	r0, r4, r0
    15f0:	00030000 	andeq	r0, r3, r0
    15f4:	009f7f71 	addseq	r7, pc, r1, ror pc	; <UNPREDICTABLE>
	...
    1600:	10000000 	andne	r0, r0, r0
    1604:	1c000000 	stcne	0, cr0, [r0], {-0}
    1608:	01000000 	mrseq	r0, (UNDEF: 0)
    160c:	00245c00 	eoreq	r5, r4, r0, lsl #24
    1610:	00340000 	eorseq	r0, r4, r0
    1614:	00010000 	andeq	r0, r1, r0
    1618:	00000052 	andeq	r0, r0, r2, asr r0
	...
    1628:	00001800 	andeq	r1, r0, r0, lsl #16
    162c:	50000100 	andpl	r0, r0, r0, lsl #2
    1630:	00000018 	andeq	r0, r0, r8, lsl r0
    1634:	00000024 	andeq	r0, r0, r4, lsr #32
    1638:	00500001 	subseq	r0, r0, r1
	...
    1648:	1c000000 	stcne	0, cr0, [r0], {-0}
    164c:	01000000 	mrseq	r0, (UNDEF: 0)
    1650:	001c5100 	andseq	r5, ip, r0, lsl #2
    1654:	002c0000 	eoreq	r0, ip, r0
    1658:	00010000 	andeq	r0, r1, r0
    165c:	00000051 	andeq	r0, r0, r1, asr r0
	...
    166c:	04000000 	streq	r0, [r0], #-0
    1670:	01000000 	mrseq	r0, (UNDEF: 0)
    1674:	00045100 	andeq	r5, r4, r0, lsl #2
    1678:	000c0000 	andeq	r0, ip, r0
    167c:	00010000 	andeq	r0, r1, r0
    1680:	00000c51 	andeq	r0, r0, r1, asr ip
    1684:	00002000 	andeq	r2, r0, r0
    1688:	71000300 	mrsvc	r0, LR_irq
    168c:	00009f7f 	andeq	r9, r0, pc, ror pc
    1690:	00000000 	andeq	r0, r0, r0
    1694:	00020000 	andeq	r0, r2, r0
	...
    16a0:	00000004 	andeq	r0, r0, r4
    16a4:	04500001 	ldrbeq	r0, [r0], #-1
    16a8:	14000000 	strne	r0, [r0], #-0
    16ac:	01000000 	mrseq	r0, (UNDEF: 0)
    16b0:	00145c00 	andseq	r5, r4, r0, lsl #24
    16b4:	00200000 	eoreq	r0, r0, r0
    16b8:	00030000 	andeq	r0, r3, r0
    16bc:	009f7f7c 	addseq	r7, pc, ip, ror pc	; <UNPREDICTABLE>
	...
    16c8:	a4000303 	strge	r0, [r0], #-771	; 0xfffffcfd
    16cc:	a4000090 	strge	r0, [r0], #-144	; 0xffffff70
    16d0:	01000090 	swpeq	r0, r0, [r0]	; <UNPREDICTABLE>
    16d4:	90a45000 	adcls	r5, r4, r0
    16d8:	90d00000 	sbcsls	r0, r0, r0
    16dc:	00040000 	andeq	r0, r4, r0
    16e0:	9f5001f3 	svcls	0x005001f3
	...
    16ec:	00030300 	andeq	r0, r3, r0, lsl #6
    16f0:	000090a4 	andeq	r9, r0, r4, lsr #1
    16f4:	000090a4 	andeq	r9, r0, r4, lsr #1
    16f8:	a4510001 	ldrbge	r0, [r1], #-1
    16fc:	d0000090 	mulle	r0, r0, r0
    1700:	04000090 	streq	r0, [r0], #-144	; 0xffffff70
    1704:	5101f300 	mrspl	pc, SP_irq	; <UNPREDICTABLE>
    1708:	0000009f 	muleq	r0, pc, r0	; <UNPREDICTABLE>
    170c:	00000000 	andeq	r0, r0, r0
    1710:	03030000 	movweq	r0, #12288	; 0x3000
    1714:	a4000000 	strge	r0, [r0], #-0
    1718:	a4000090 	strge	r0, [r0], #-144	; 0xffffff70
    171c:	01000090 	swpeq	r0, r0, [r0]	; <UNPREDICTABLE>
    1720:	90a45200 	adcls	r5, r4, r0, lsl #4
    1724:	90ac0000 	adcls	r0, ip, r0
    1728:	00010000 	andeq	r0, r1, r0
    172c:	0090ac52 	addseq	sl, r0, r2, asr ip
    1730:	0090d000 	addseq	sp, r0, r0
    1734:	72000300 	andvc	r0, r0, #0, 6
    1738:	00009f01 	andeq	r9, r0, r1, lsl #30
    173c:	00000000 	andeq	r0, r0, r0
    1740:	01020000 	mrseq	r0, (UNDEF: 2)
    1744:	00000001 	andeq	r0, r0, r1
    1748:	90a40000 	adcls	r0, r4, r0
    174c:	90b00000 	adcsls	r0, r0, r0
    1750:	00010000 	andeq	r0, r1, r0
    1754:	0090b050 	addseq	fp, r0, r0, asr r0
    1758:	0090b400 	addseq	fp, r0, r0, lsl #8
    175c:	70000300 	andvc	r0, r0, r0, lsl #6
    1760:	90b49f01 	adcsls	r9, r4, r1, lsl #30
    1764:	90c40000 	sbcls	r0, r4, r0
    1768:	00010000 	andeq	r0, r1, r0
    176c:	0090c850 	addseq	ip, r0, r0, asr r8
    1770:	0090cc00 	addseq	ip, r0, r0, lsl #24
    1774:	50000100 	andpl	r0, r0, r0, lsl #2
	...
    1780:	00000002 	andeq	r0, r0, r2
    1784:	90a40000 	adcls	r0, r4, r0
    1788:	90b40000 	adcsls	r0, r4, r0
    178c:	00010000 	andeq	r0, r1, r0
    1790:	0090b451 	addseq	fp, r0, r1, asr r4
    1794:	0090b800 	addseq	fp, r0, r0, lsl #16
    1798:	71000300 	mrsvc	r0, LR_irq
    179c:	90b89f01 	adcsls	r9, r8, r1, lsl #30
    17a0:	90d00000 	sbcsls	r0, r0, r0
    17a4:	00010000 	andeq	r0, r1, r0
    17a8:	00000051 	andeq	r0, r0, r1, asr r0
    17ac:	00000000 	andeq	r0, r0, r0
	...

Disassembly of section .debug_aranges:

00000000 <.debug_aranges>:
   0:	0000001c 	andeq	r0, r0, ip, lsl r0
   4:	00000002 	andeq	r0, r0, r2
   8:	00040000 	andeq	r0, r4, r0
   c:	00000000 	andeq	r0, r0, r0
  10:	00008038 	andeq	r8, r0, r8, lsr r0
  14:	0000007c 	andeq	r0, r0, ip, ror r0
	...
  20:	0000001c 	andeq	r0, r0, ip, lsl r0
  24:	020d0002 	andeq	r0, sp, #2, 0
  28:	00040000 	andeq	r0, r4, r0
  2c:	00000000 	andeq	r0, r0, r0
  30:	000080b4 	strheq	r8, [r0], -r4
  34:	000001d0 	ldrdeq	r0, [r0], -r0	; <UNPREDICTABLE>
	...
  40:	0000001c 	andeq	r0, r0, ip, lsl r0
  44:	0c290002 	stceq	0, cr0, [r9], #-8
  48:	00040000 	andeq	r0, r4, r0
  4c:	00000000 	andeq	r0, r0, r0
  50:	00008284 	andeq	r8, r0, r4, lsl #5
  54:	00000104 	andeq	r0, r0, r4, lsl #2
	...
  60:	0000001c 	andeq	r0, r0, ip, lsl r0
  64:	11cf0002 	bicne	r0, pc, r2
  68:	00040000 	andeq	r0, r4, r0
  6c:	00000000 	andeq	r0, r0, r0
  70:	00008388 	andeq	r8, r0, r8, lsl #7
  74:	00000058 	andeq	r0, r0, r8, asr r0
	...
  80:	0000001c 	andeq	r0, r0, ip, lsl r0
  84:	13700002 	cmnne	r0, #2, 0
  88:	00040000 	andeq	r0, r4, r0
  8c:	00000000 	andeq	r0, r0, r0
  90:	000083e0 	andeq	r8, r0, r0, ror #7
  94:	00000034 	andeq	r0, r0, r4, lsr r0
	...
  a0:	0000001c 	andeq	r0, r0, ip, lsl r0
  a4:	14670002 	strbtne	r0, [r7], #-2
  a8:	00040000 	andeq	r0, r4, r0
  ac:	00000000 	andeq	r0, r0, r0
  b0:	00008414 	andeq	r8, r0, r4, lsl r4
  b4:	00000740 	andeq	r0, r0, r0, asr #14
	...
  c0:	0000001c 	andeq	r0, r0, ip, lsl r0
  c4:	1f420002 	svcne	0x00420002
  c8:	00040000 	andeq	r0, r4, r0
  cc:	00000000 	andeq	r0, r0, r0
  d0:	00008b54 	andeq	r8, r0, r4, asr fp
  d4:	0000002c 	andeq	r0, r0, ip, lsr #32
	...
  e0:	0000001c 	andeq	r0, r0, ip, lsl r0
  e4:	20750002 	rsbscs	r0, r5, r2
  e8:	00040000 	andeq	r0, r4, r0
  ec:	00000000 	andeq	r0, r0, r0
  f0:	00008b80 	andeq	r8, r0, r0, lsl #23
  f4:	0000003c 	andeq	r0, r0, ip, lsr r0
	...
 100:	0000001c 	andeq	r0, r0, ip, lsl r0
 104:	22020002 	andcs	r0, r2, #2, 0
 108:	00040000 	andeq	r0, r4, r0
 10c:	00000000 	andeq	r0, r0, r0
 110:	00008bbc 			; <UNDEFINED> instruction: 0x00008bbc
 114:	00000004 	andeq	r0, r0, r4
	...
 120:	0000001c 	andeq	r0, r0, ip, lsl r0
 124:	22d40002 	sbcscs	r0, r4, #2, 0
 128:	00040000 	andeq	r0, r4, r0
 12c:	00000000 	andeq	r0, r0, r0
 130:	00008bd8 	ldrdeq	r8, [r0], -r8	; <UNPREDICTABLE>
 134:	00000080 	andeq	r0, r0, r0, lsl #1
	...
 140:	0000001c 	andeq	r0, r0, ip, lsl r0
 144:	250e0002 	strcs	r0, [lr, #-2]
 148:	00040000 	andeq	r0, r4, r0
 14c:	00000000 	andeq	r0, r0, r0
 150:	00008c58 	andeq	r8, r0, r8, asr ip
 154:	00000084 	andeq	r0, r0, r4, lsl #1
	...
 160:	0000001c 	andeq	r0, r0, ip, lsl r0
 164:	275f0002 	ldrbcs	r0, [pc, -r2]
 168:	00040000 	andeq	r0, r4, r0
 16c:	00000000 	andeq	r0, r0, r0
 170:	00008cdc 	ldrdeq	r8, [r0], -ip
 174:	0000011c 	andeq	r0, r0, ip, lsl r1
	...
 180:	0000001c 	andeq	r0, r0, ip, lsl r0
 184:	2b080002 	blcs	200194 <__bss_end__+0x1f6384>
 188:	00040000 	andeq	r0, r4, r0
 18c:	00000000 	andeq	r0, r0, r0
 190:	00008df8 	strdeq	r8, [r0], -r8	; <UNPREDICTABLE>
 194:	000001f0 	strdeq	r0, [r0], -r0	; <UNPREDICTABLE>
	...
 1a0:	0000001c 	andeq	r0, r0, ip, lsl r0
 1a4:	30d90002 	sbcscc	r0, r9, r2
 1a8:	00040000 	andeq	r0, r4, r0
 1ac:	00000000 	andeq	r0, r0, r0
 1b0:	00008fe8 	andeq	r8, r0, r8, ror #31
 1b4:	0000003c 	andeq	r0, r0, ip, lsr r0
	...
 1c0:	0000001c 	andeq	r0, r0, ip, lsl r0
 1c4:	32260002 	eorcc	r0, r6, #2, 0
 1c8:	00040000 	andeq	r0, r4, r0
 1cc:	00000000 	andeq	r0, r0, r0
 1d0:	00009024 	andeq	r9, r0, r4, lsr #32
 1d4:	00000034 	andeq	r0, r0, r4, lsr r0
	...
 1e0:	0000001c 	andeq	r0, r0, ip, lsl r0
 1e4:	33610002 	cmncc	r1, #2, 0
 1e8:	00040000 	andeq	r0, r4, r0
 1ec:	00000000 	andeq	r0, r0, r0
 1f0:	00009058 	andeq	r9, r0, r8, asr r0
 1f4:	0000002c 	andeq	r0, r0, ip, lsr #32
	...
 200:	0000001c 	andeq	r0, r0, ip, lsl r0
 204:	345c0002 	ldrbcc	r0, [ip], #-2
 208:	00040000 	andeq	r0, r4, r0
 20c:	00000000 	andeq	r0, r0, r0
 210:	00009084 	andeq	r9, r0, r4, lsl #1
 214:	00000020 	andeq	r0, r0, r0, lsr #32
	...
 220:	0000001c 	andeq	r0, r0, ip, lsl r0
 224:	356f0002 	strbcc	r0, [pc, #-2]!	; 22a <__code_start__-0x7dd6>
 228:	00040000 	andeq	r0, r4, r0
 22c:	00000000 	andeq	r0, r0, r0
 230:	000090a4 	andeq	r9, r0, r4, lsr #1
 234:	0000002c 	andeq	r0, r0, ip, lsr #32
	...
 240:	0000001c 	andeq	r0, r0, ip, lsl r0
 244:	36c10002 	strbcc	r0, [r1], r2
 248:	00040000 	andeq	r0, r4, r0
 24c:	00000000 	andeq	r0, r0, r0
 250:	000090d0 	ldrdeq	r9, [r0], -r0
 254:	00000004 	andeq	r0, r0, r4
	...

Disassembly of section .debug_ranges:

00000000 <.debug_ranges>:
   0:	00000000 	andeq	r0, r0, r0
   4:	00000004 	andeq	r0, r0, r4
   8:	00000010 	andeq	r0, r0, r0, lsl r0
   c:	00000014 	andeq	r0, r0, r4, lsl r0
  10:	0000001c 	andeq	r0, r0, ip, lsl r0
  14:	00000030 	andeq	r0, r0, r0, lsr r0
	...
  20:	000000a0 	andeq	r0, r0, r0, lsr #1
  24:	000000a0 	andeq	r0, r0, r0, lsr #1
  28:	000000a4 	andeq	r0, r0, r4, lsr #1
  2c:	000000ac 	andeq	r0, r0, ip, lsr #1
	...
  38:	000000e8 	andeq	r0, r0, r8, ror #1
  3c:	000000e8 	andeq	r0, r0, r8, ror #1
  40:	000000e8 	andeq	r0, r0, r8, ror #1
  44:	000000e8 	andeq	r0, r0, r8, ror #1
  48:	000000e8 	andeq	r0, r0, r8, ror #1
  4c:	000000f0 	strdeq	r0, [r0], -r0	; <UNPREDICTABLE>
	...
  58:	00000108 	andeq	r0, r0, r8, lsl #2
  5c:	00000108 	andeq	r0, r0, r8, lsl #2
  60:	00000108 	andeq	r0, r0, r8, lsl #2
  64:	0000010c 	andeq	r0, r0, ip, lsl #2
	...
  70:	00000140 	andeq	r0, r0, r0, asr #2
  74:	00000140 	andeq	r0, r0, r0, asr #2
  78:	00000140 	andeq	r0, r0, r0, asr #2
  7c:	00000140 	andeq	r0, r0, r0, asr #2
	...
  88:	00000014 	andeq	r0, r0, r4, lsl r0
  8c:	00000018 	andeq	r0, r0, r8, lsl r0
  90:	00000028 	andeq	r0, r0, r8, lsr #32
  94:	0000002c 	andeq	r0, r0, ip, lsr #32
  98:	00000030 	andeq	r0, r0, r0, lsr r0
  9c:	0000008c 	andeq	r0, r0, ip, lsl #1
	...
  a8:	00008bd8 	ldrdeq	r8, [r0], -r8	; <UNPREDICTABLE>
  ac:	00008c58 	andeq	r8, r0, r8, asr ip
	...
  b8:	000090a4 	andeq	r9, r0, r4, lsr #1
  bc:	000090d0 	ldrdeq	r9, [r0], -r0
	...

Disassembly of section .debug_line:

00000000 <.debug_line>:
       0:	00000199 	muleq	r0, r9, r1
       4:	00f50003 	rscseq	r0, r5, r3
       8:	01020000 	mrseq	r0, (UNDEF: 2)
       c:	000d0efb 	strdeq	r0, [sp], -fp
      10:	01010101 	tsteq	r1, r1, lsl #2
      14:	01000000 	mrseq	r0, (UNDEF: 0)
      18:	74010000 	strvc	r0, [r1], #-0
      1c:	73747365 	cmnvc	r4, #-1811939327	; 0x94000001
      20:	73752f00 	cmnvc	r5, #0, 30
      24:	6f6c2f72 	svcvs	0x006c2f72
      28:	2f6c6163 	svccs	0x006c6163
      2c:	6c6c6543 	cfstr64vs	mvdx6, [ip], #-268	; 0xfffffef4
      30:	612f7261 			; <UNDEFINED> instruction: 0x612f7261
      34:	6e2d6d72 	mcrvs	13, 1, r6, cr13, cr2, {3}
      38:	2d656e6f 	stclcs	14, cr6, [r5, #-444]!	; 0xfffffe44
      3c:	69626165 	stmdbvs	r2!, {r0, r2, r5, r6, r8, sp, lr}^
      40:	7365742d 	cmnvc	r5, #754974720	; 0x2d000000
      44:	2d392f74 	ldccs	15, cr2, [r9, #-464]!	; 0xfffffe30
      48:	39313032 	ldmdbcc	r1!, {r1, r4, r5, ip, sp}
      4c:	632d3471 			; <UNDEFINED> instruction: 0x632d3471
      50:	37303173 			; <UNDEFINED> instruction: 0x37303173
      54:	696c2f65 	stmdbvs	ip!, {r0, r2, r5, r6, r8, r9, sl, fp, sp}^
      58:	63672f62 	cmnvs	r7, #392	; 0x188
      5c:	72612f63 	rsbvc	r2, r1, #396	; 0x18c
      60:	6f6e2d6d 	svcvs	0x006e2d6d
      64:	652d656e 	strvs	r6, [sp, #-1390]!	; 0xfffffa92
      68:	2f696261 	svccs	0x00696261
      6c:	2e322e39 	mrccs	14, 1, r2, cr2, cr9, {1}
      70:	6e692f31 	mcrvs	15, 3, r2, cr9, cr1, {1}
      74:	64756c63 	ldrbtvs	r6, [r5], #-3171	; 0xfffff39d
      78:	552f0065 	strpl	r0, [pc, #-101]!	; 1b <__code_start__-0x7fe5>
      7c:	73726573 	cmnvc	r2, #482344960	; 0x1cc00000
      80:	6972652f 	ldmdbvs	r2!, {r0, r1, r2, r3, r5, r8, sl, sp, lr}^
      84:	61656263 	cmnvs	r5, r3, ror #4
      88:	6f442f72 	svcvs	0x00442f72
      8c:	656d7563 	strbvs	r7, [sp, #-1379]!	; 0xfffffa9d
      90:	2f73746e 	svccs	0x0073746e
      94:	34315343 	ldrtcc	r5, [r1], #-835	; 0xfffffcbd
      98:	632f4530 			; <UNDEFINED> instruction: 0x632f4530
      9c:	30343173 	eorscc	r3, r4, r3, ror r1
      a0:	69662d45 	stmdbvs	r6!, {r0, r2, r6, r8, sl, fp, sp}^
      a4:	2d6c616e 	stfcse	f6, [ip, #-440]!	; 0xfffffe48
      a8:	6a6f7270 	bvs	1bdca70 <__bss_end__+0x1bd2c60>
      ac:	2f746365 	svccs	0x00746365
      b0:	7362696c 	cmnvc	r2, #108, 18	; 0x1b0000
      b4:	3034322d 	eorscc	r3, r4, sp, lsr #4
      b8:	6c2f786c 	stcvs	8, cr7, [pc], #-432	; ffffff10 <__bss_end__+0xffff6100>
      bc:	69706269 	ldmdbvs	r0!, {r0, r3, r5, r6, r9, sp, lr}^
      c0:	636e692f 	cmnvs	lr, #770048	; 0xbc000
      c4:	6564756c 	strbvs	r7, [r4, #-1388]!	; 0xfffffa94
      c8:	00002e00 	andeq	r2, r0, r0, lsl #28
      cc:	66662d35 			; <UNDEFINED> instruction: 0x66662d35
      d0:	69742d74 	ldmdbvs	r4!, {r2, r4, r5, r6, r8, sl, fp, sp}^
      d4:	632e656d 			; <UNDEFINED> instruction: 0x632e656d
      d8:	00000100 	andeq	r0, r0, r0, lsl #2
      dc:	69647473 	stmdbvs	r4!, {r0, r1, r4, r5, r6, sl, ip, sp, lr}^
      e0:	672d746e 	strvs	r7, [sp, -lr, ror #8]!
      e4:	682e6363 	stmdavs	lr!, {r0, r1, r5, r6, r8, r9, sp, lr}
      e8:	00000200 	andeq	r0, r0, r0, lsl #4
      ec:	2e697072 	mcrcs	0, 3, r7, cr9, cr2, {3}
      f0:	00030068 	andeq	r0, r3, r8, rrx
      f4:	74666600 	strbtvc	r6, [r6], #-1536	; 0xfffffa00
      f8:	0400682e 	streq	r6, [r0], #-2094	; 0xfffff7d2
      fc:	05000000 	streq	r0, [r0, #-0]
     100:	02050014 	andeq	r0, r5, #20, 0
     104:	00008038 	andeq	r8, r0, r8, lsr r0
     108:	05010c03 	streq	r0, [r1, #-3075]	; 0xfffff3fd
     10c:	15131405 	ldrne	r1, [r3, #-1029]	; 0xfffffbfb
     110:	05010a05 	streq	r0, [r1, #-2565]	; 0xfffff5fb
     114:	11050115 	tstne	r5, r5, lsl r1
     118:	14051406 	strne	r1, [r5], #-1030	; 0xfffffbfa
     11c:	052e7803 	streq	r7, [lr, #-2051]!	; 0xfffff7fd
     120:	14056d11 	strne	r6, [r5], #-3345	; 0xfffff2ef
     124:	052e7903 	streq	r7, [lr, #-2307]!	; 0xfffff6fd
     128:	04020009 	streq	r0, [r2], #-9
     12c:	05510603 	ldrbeq	r0, [r1, #-1539]	; 0xfffff9fd
     130:	04020011 	streq	r0, [r2], #-17	; 0xffffffef
     134:	05010603 	streq	r0, [r1, #-1539]	; 0xfffff9fd
     138:	04020009 	streq	r0, [r2], #-9
     13c:	052f0603 	streq	r0, [pc, #-1539]!	; fffffb41 <__bss_end__+0xffff5d31>
     140:	04020011 	streq	r0, [r2], #-17	; 0xffffffef
     144:	052e0603 	streq	r0, [lr, #-1539]!	; 0xfffff9fd
     148:	0402001c 	streq	r0, [r2], #-28	; 0xffffffe4
     14c:	052c0603 	streq	r0, [ip, #-1539]!	; 0xfffff9fd
     150:	04020015 	streq	r0, [r2], #-21	; 0xffffffeb
     154:	05050103 	streq	r0, [r5, #-259]	; 0xfffffefd
     158:	06160550 			; <UNDEFINED> instruction: 0x06160550
     15c:	06050501 	streq	r0, [r5], -r1, lsl #10
     160:	010a0567 	tsteq	sl, r7, ror #10
     164:	05011505 	streq	r1, [r1, #-1285]	; 0xfffffafb
     168:	04020009 	streq	r0, [r2], #-9
     16c:	25051303 	strcs	r1, [r5, #-771]	; 0xfffffcfd
     170:	03040200 	movweq	r0, #16896	; 0x4200
     174:	0015059d 	mulseq	r5, sp, r5
     178:	01030402 	tsteq	r3, r2, lsl #8
     17c:	02000505 	andeq	r0, r0, #20971520	; 0x1400000
     180:	01060304 	tsteq	r6, r4, lsl #6
     184:	14054d06 	strne	r4, [r5], #-3334	; 0xfffff2fa
     188:	05050106 	streq	r0, [r5, #-262]	; 0xfffffefa
     18c:	2c053006 	stccs	0, cr3, [r5], {6}
     190:	05050106 	streq	r0, [r5, #-262]	; 0xfffffefa
     194:	3006662e 	andcc	r6, r6, lr, lsr #12
     198:	01000602 	tsteq	r0, r2, lsl #12
     19c:	000b7b01 	andeq	r7, fp, r1, lsl #22
     1a0:	4d000300 	stcmi	3, cr0, [r0, #-0]
     1a4:	02000001 	andeq	r0, r0, #1, 0
     1a8:	0d0efb01 	vstreq	d15, [lr, #-4]
     1ac:	01010100 	mrseq	r0, (UNDEF: 17)
     1b0:	00000001 	andeq	r0, r0, r1
     1b4:	01000001 	tsteq	r0, r1
     1b8:	6573552f 	ldrbvs	r5, [r3, #-1327]!	; 0xfffffad1
     1bc:	652f7372 	strvs	r7, [pc, #-882]!	; fffffe52 <__bss_end__+0xffff6042>
     1c0:	62636972 	rsbvs	r6, r3, #1867776	; 0x1c8000
     1c4:	2f726165 	svccs	0x00726165
     1c8:	75636f44 	strbvc	r6, [r3, #-3908]!	; 0xfffff0bc
     1cc:	746e656d 	strbtvc	r6, [lr], #-1389	; 0xfffffa93
     1d0:	53432f73 	movtpl	r2, #16243	; 0x3f73
     1d4:	45303431 	ldrmi	r3, [r0, #-1073]!	; 0xfffffbcf
     1d8:	3173632f 	cmncc	r3, pc, lsr #6
     1dc:	2d453034 	stclcs	0, cr3, [r5, #-208]	; 0xffffff30
     1e0:	616e6966 	cmnvs	lr, r6, ror #18
     1e4:	72702d6c 	rsbsvc	r2, r0, #108, 26	; 0x1b00
     1e8:	63656a6f 	cmnvs	r5, #454656	; 0x6f000
     1ec:	696c2f74 	stmdbvs	ip!, {r2, r4, r5, r6, r8, r9, sl, fp, sp}^
     1f0:	322d7362 	eorcc	r7, sp, #-2013265919	; 0x88000001
     1f4:	786c3034 	stmdavc	ip!, {r2, r4, r5, ip, sp}^
     1f8:	62696c2f 	rsbvs	r6, r9, #12032	; 0x2f00
     1fc:	6c2f6970 			; <UNDEFINED> instruction: 0x6c2f6970
     200:	00636269 	rsbeq	r6, r3, r9, ror #4
     204:	7273752f 	rsbsvc	r7, r3, #197132288	; 0xbc00000
     208:	636f6c2f 	cmnvs	pc, #12032	; 0x2f00
     20c:	432f6c61 			; <UNDEFINED> instruction: 0x432f6c61
     210:	616c6c65 	cmnvs	ip, r5, ror #24
     214:	72612f72 	rsbvc	r2, r1, #456	; 0x1c8
     218:	6f6e2d6d 	svcvs	0x006e2d6d
     21c:	652d656e 	strvs	r6, [sp, #-1390]!	; 0xfffffa92
     220:	2d696261 	sfmcs	f6, 2, [r9, #-388]!	; 0xfffffe7c
     224:	74736574 	ldrbtvc	r6, [r3], #-1396	; 0xfffffa8c
     228:	322d392f 	eorcc	r3, sp, #770048	; 0xbc000
     22c:	71393130 	teqvc	r9, r0, lsr r1
     230:	73632d34 	cmnvc	r3, #52, 26	; 0xd00
     234:	65373031 	ldrvs	r3, [r7, #-49]!	; 0xffffffcf
     238:	62696c2f 	rsbvs	r6, r9, #12032	; 0x2f00
     23c:	6363672f 	cmnvs	r3, #12320768	; 0xbc0000
     240:	6d72612f 	ldfvse	f6, [r2, #-188]!	; 0xffffff44
     244:	6e6f6e2d 	cdpvs	14, 6, cr6, cr15, cr13, {1}
     248:	61652d65 	cmnvs	r5, r5, ror #26
     24c:	392f6962 	stmdbcc	pc!, {r1, r5, r6, r8, fp, sp, lr}	; <UNPREDICTABLE>
     250:	312e322e 			; <UNDEFINED> instruction: 0x312e322e
     254:	636e692f 	cmnvs	lr, #770048	; 0xbc000
     258:	6564756c 	strbvs	r7, [r4, #-1388]!	; 0xfffffa94
     25c:	73552f00 	cmpvc	r5, #0, 30
     260:	2f737265 	svccs	0x00737265
     264:	63697265 	cmnvs	r9, #1342177286	; 0x50000006
     268:	72616562 	rsbvc	r6, r1, #411041792	; 0x18800000
     26c:	636f442f 	cmnvs	pc, #788529152	; 0x2f000000
     270:	6e656d75 	mcrvs	13, 3, r6, cr5, cr5, {3}
     274:	432f7374 			; <UNDEFINED> instruction: 0x432f7374
     278:	30343153 	eorscc	r3, r4, r3, asr r1
     27c:	73632f45 	cmnvc	r3, #276	; 0x114
     280:	45303431 	ldrmi	r3, [r0, #-1073]!	; 0xfffffbcf
     284:	6e69662d 	cdpvs	6, 6, cr6, cr9, cr13, {1}
     288:	702d6c61 	eorvc	r6, sp, r1, ror #24
     28c:	656a6f72 	strbvs	r6, [sl, #-3954]!	; 0xfffff08e
     290:	6c2f7463 	cfstrsvs	mvf7, [pc], #-396	; 10c <__code_start__-0x7ef4>
     294:	2d736269 	lfmcs	f6, 2, [r3, #-420]!	; 0xfffffe5c
     298:	6c303432 	cfldrsvs	mvf3, [r0], #-200	; 0xffffff38
     29c:	696c2f78 	stmdbvs	ip!, {r3, r4, r5, r6, r8, r9, sl, fp, sp}^
     2a0:	2f697062 	svccs	0x00697062
     2a4:	6c636e69 	stclvs	14, cr6, [r3], #-420	; 0xfffffe5c
     2a8:	00656475 	rsbeq	r6, r5, r5, ror r4
     2ac:	74696200 	strbtvc	r6, [r9], #-512	; 0xfffffe00
     2b0:	7075732d 	rsbsvc	r7, r5, sp, lsr #6
     2b4:	74726f70 	ldrbtvc	r6, [r2], #-3952	; 0xfffff090
     2b8:	0100682e 	tsteq	r0, lr, lsr #16
     2bc:	32690000 	rsbcc	r0, r9, #0, 0
     2c0:	00632e73 	rsbeq	r2, r3, r3, ror lr
     2c4:	73000000 	movwvc	r0, #0
     2c8:	6e696474 	mcrvs	4, 3, r6, cr9, cr4, {3}
     2cc:	63672d74 	cmnvs	r7, #116, 26	; 0x1d00
     2d0:	00682e63 	rsbeq	r2, r8, r3, ror #28
     2d4:	72000002 	andvc	r0, r0, #2, 0
     2d8:	682e6970 	stmdavs	lr!, {r4, r5, r6, r8, fp, sp, lr}
     2dc:	00000300 	andeq	r0, r0, r0, lsl #6
     2e0:	2e733269 	cdpcs	2, 7, cr3, cr3, cr9, {3}
     2e4:	00000068 	andeq	r0, r0, r8, rrx
     2e8:	69706700 	ldmdbvs	r0!, {r8, r9, sl, sp, lr}^
     2ec:	00682e6f 	rsbeq	r2, r8, pc, ror #28
     2f0:	00000003 	andeq	r0, r0, r3
     2f4:	05000105 	streq	r0, [r0, #-261]	; 0xfffffefb
     2f8:	0080b402 	addeq	fp, r0, r2, lsl #8
     2fc:	00cc0300 	sbceq	r0, ip, r0, lsl #6
     300:	03050501 	movweq	r0, #21761	; 0x5501
     304:	0501010b 	streq	r0, [r1, #-267]	; 0xfffffef5
     308:	75030601 	strvc	r0, [r3, #-1537]	; 0xfffff9ff
     30c:	03050501 	movweq	r0, #21761	; 0x5501
     310:	01052e0b 	tsteq	r5, fp, lsl #28
     314:	052e7503 	streq	r7, [lr, #-1283]!	; 0xfffffafd
     318:	2e0b0305 	cdpcs	3, 0, cr0, cr11, cr5, {0}
     31c:	0204ba06 	andeq	fp, r4, #24576	; 0x6000
     320:	bd032505 	cfstr32lt	mvfx2, [r3, #-20]	; 0xffffffec
     324:	05059e7f 	streq	r9, [r5, #-3711]	; 0xfffff181
     328:	06010516 			; <UNDEFINED> instruction: 0x06010516
     32c:	15052e13 	strne	r2, [r5, #-3603]	; 0xfffff1ed
     330:	05053006 	streq	r3, [r5, #-6]
     334:	15050113 	strne	r0, [r5, #-275]	; 0xfffffeed
     338:	05051106 	streq	r1, [r5, #-262]	; 0xfffffefa
     33c:	2d15052f 	cfldr32cs	mvfx0, [r5, #-188]	; 0xffffff44
     340:	042f0505 	strteq	r0, [pc], #-1285	; 348 <__code_start__-0x7cb8>
     344:	0d350601 	ldceq	6, cr0, [r5, #-4]!
     348:	13010101 	movwne	r0, #4353	; 0x1101
     34c:	0f060204 	svceq	0x00060204
     350:	02040200 	andeq	r0, r4, #0, 4
     354:	02004a06 	andeq	r4, r0, #24576	; 0x6000
     358:	00010204 	andeq	r0, r1, r4, lsl #4
     35c:	16020402 	strne	r0, [r2], -r2, lsl #8
     360:	02040200 	andeq	r0, r4, #0, 4
     364:	04020067 	streq	r0, [r2], #-103	; 0xffffff99
     368:	02006702 	andeq	r6, r0, #524288	; 0x80000
     36c:	00680204 	rsbeq	r0, r8, r4, lsl #4
     370:	4b020402 	blmi	81380 <__bss_end__+0x77570>
     374:	02040200 	andeq	r0, r4, #0, 4
     378:	0402004b 	streq	r0, [r2], #-75	; 0xffffffb5
     37c:	02004c02 	andeq	r4, r0, #512	; 0x200
     380:	05310204 	ldreq	r0, [r1, #-516]!	; 0xfffffdfc
     384:	04020014 	streq	r0, [r2], #-20	; 0xffffffec
     388:	05010602 	streq	r0, [r1, #-1538]	; 0xfffff9fe
     38c:	04020005 	streq	r0, [r2], #-5
     390:	044b0602 	strbeq	r0, [fp], #-1538	; 0xfffff9fe
     394:	04020001 	streq	r0, [r2], #-1
     398:	01210302 			; <UNDEFINED> instruction: 0x01210302
     39c:	02040200 	andeq	r0, r4, #0, 4
     3a0:	04020001 	streq	r0, [r2], #-1
     3a4:	02000102 	andeq	r0, r0, #-2147483648	; 0x80000000
     3a8:	00010204 	andeq	r0, r1, r4, lsl #4
     3ac:	13020402 	movwne	r0, #9218	; 0x2402
     3b0:	02040200 	andeq	r0, r4, #0, 4
     3b4:	04020001 	streq	r0, [r2], #-1
     3b8:	02000102 	andeq	r0, r0, #-2147483648	; 0x80000000
     3bc:	00010204 	andeq	r0, r1, r4, lsl #4
     3c0:	19020402 	stmdbne	r2, {r1, sl}
     3c4:	02040200 	andeq	r0, r4, #0, 4
     3c8:	04020013 	streq	r0, [r2], #-19	; 0xffffffed
     3cc:	02000102 	andeq	r0, r0, #-2147483648	; 0x80000000
     3d0:	00010204 	andeq	r0, r1, r4, lsl #4
     3d4:	01020402 	tsteq	r2, r2, lsl #8
     3d8:	02040200 	andeq	r0, r4, #0, 4
     3dc:	04020013 	streq	r0, [r2], #-19	; 0xffffffed
     3e0:	02000102 	andeq	r0, r0, #-2147483648	; 0x80000000
     3e4:	59030204 	stmdbpl	r3, {r2, r9}
     3e8:	04020001 	streq	r0, [r2], #-1
     3ec:	02001402 	andeq	r1, r0, #33554432	; 0x2000000
     3f0:	00010204 	andeq	r0, r1, r4, lsl #4
     3f4:	01020402 	tsteq	r2, r2, lsl #8
     3f8:	02040200 	andeq	r0, r4, #0, 4
     3fc:	04020001 	streq	r0, [r2], #-1
     400:	02001302 	andeq	r1, r0, #134217728	; 0x8000000
     404:	24030204 	strcs	r0, [r3], #-516	; 0xfffffdfc
     408:	04020001 	streq	r0, [r2], #-1
     40c:	02000102 	andeq	r0, r0, #-2147483648	; 0x80000000
     410:	00140204 	andseq	r0, r4, r4, lsl #4
     414:	03020402 	movweq	r0, #9218	; 0x2402
     418:	02000168 	andeq	r0, r0, #26
     41c:	00010204 	andeq	r0, r1, r4, lsl #4
     420:	01020402 	tsteq	r2, r2, lsl #8
     424:	02040200 	andeq	r0, r4, #0, 4
     428:	04020001 	streq	r0, [r2], #-1
     42c:	02001302 	andeq	r1, r0, #134217728	; 0x8000000
     430:	00010204 	andeq	r0, r1, r4, lsl #4
     434:	01020402 	tsteq	r2, r2, lsl #8
     438:	02040200 	andeq	r0, r4, #0, 4
     43c:	04020001 	streq	r0, [r2], #-1
     440:	02001402 	andeq	r1, r0, #33554432	; 0x2000000
     444:	6c030204 	sfmvs	f0, 4, [r3], {4}
     448:	04020001 	streq	r0, [r2], #-1
     44c:	02001402 	andeq	r1, r0, #33554432	; 0x2000000
     450:	00010204 	andeq	r0, r1, r4, lsl #4
     454:	01020402 	tsteq	r2, r2, lsl #8
     458:	02040200 	andeq	r0, r4, #0, 4
     45c:	04020001 	streq	r0, [r2], #-1
     460:	02001302 	andeq	r1, r0, #134217728	; 0x8000000
     464:	14030204 	strne	r0, [r3], #-516	; 0xfffffdfc
     468:	00020401 	andeq	r0, r2, r1, lsl #8
     46c:	03020402 	movweq	r0, #9218	; 0x2402
     470:	01040166 	tsteq	r4, r6, ror #2
     474:	02040200 	andeq	r0, r4, #0, 4
     478:	00012003 	andeq	r2, r1, r3
     47c:	01020402 	tsteq	r2, r2, lsl #8
     480:	02040200 	andeq	r0, r4, #0, 4
     484:	04020001 	streq	r0, [r2], #-1
     488:	02000102 	andeq	r0, r0, #-2147483648	; 0x80000000
     48c:	00130204 	andseq	r0, r3, r4, lsl #4
     490:	01020402 	tsteq	r2, r2, lsl #8
     494:	02040200 	andeq	r0, r4, #0, 4
     498:	04020001 	streq	r0, [r2], #-1
     49c:	02000102 	andeq	r0, r0, #-2147483648	; 0x80000000
     4a0:	00190204 	andseq	r0, r9, r4, lsl #4
     4a4:	13020402 	movwne	r0, #9218	; 0x2402
     4a8:	02040200 	andeq	r0, r4, #0, 4
     4ac:	04020001 	streq	r0, [r2], #-1
     4b0:	02000102 	andeq	r0, r0, #-2147483648	; 0x80000000
     4b4:	00010204 	andeq	r0, r1, r4, lsl #4
     4b8:	13020402 	movwne	r0, #9218	; 0x2402
     4bc:	02040200 	andeq	r0, r4, #0, 4
     4c0:	04020001 	streq	r0, [r2], #-1
     4c4:	01590302 	cmpeq	r9, r2, lsl #6
     4c8:	02040200 	andeq	r0, r4, #0, 4
     4cc:	04020014 	streq	r0, [r2], #-20	; 0xffffffec
     4d0:	02000102 	andeq	r0, r0, #-2147483648	; 0x80000000
     4d4:	00010204 	andeq	r0, r1, r4, lsl #4
     4d8:	01020402 	tsteq	r2, r2, lsl #8
     4dc:	02040200 	andeq	r0, r4, #0, 4
     4e0:	04020013 	streq	r0, [r2], #-19	; 0xffffffed
     4e4:	01240302 			; <UNDEFINED> instruction: 0x01240302
     4e8:	02040200 	andeq	r0, r4, #0, 4
     4ec:	04020001 	streq	r0, [r2], #-1
     4f0:	02001402 	andeq	r1, r0, #33554432	; 0x2000000
     4f4:	68030204 	stmdavs	r3, {r2, r9}
     4f8:	04020001 	streq	r0, [r2], #-1
     4fc:	02000102 	andeq	r0, r0, #-2147483648	; 0x80000000
     500:	00010204 	andeq	r0, r1, r4, lsl #4
     504:	01020402 	tsteq	r2, r2, lsl #8
     508:	02040200 	andeq	r0, r4, #0, 4
     50c:	04020013 	streq	r0, [r2], #-19	; 0xffffffed
     510:	02000102 	andeq	r0, r0, #-2147483648	; 0x80000000
     514:	00010204 	andeq	r0, r1, r4, lsl #4
     518:	01020402 	tsteq	r2, r2, lsl #8
     51c:	02040200 	andeq	r0, r4, #0, 4
     520:	04020014 	streq	r0, [r2], #-20	; 0xffffffec
     524:	016c0302 	cmneq	ip, r2, lsl #6
     528:	02040200 	andeq	r0, r4, #0, 4
     52c:	04020014 	streq	r0, [r2], #-20	; 0xffffffec
     530:	02000102 	andeq	r0, r0, #-2147483648	; 0x80000000
     534:	00010204 	andeq	r0, r1, r4, lsl #4
     538:	01020402 	tsteq	r2, r2, lsl #8
     53c:	02040200 	andeq	r0, r4, #0, 4
     540:	04020013 	streq	r0, [r2], #-19	; 0xffffffed
     544:	01140302 	tsteq	r4, r2, lsl #6
     548:	02000204 	andeq	r0, r0, #4, 4	; 0x40000000
     54c:	67030204 	strvs	r0, [r3, -r4, lsl #4]
     550:	000a0501 	andeq	r0, sl, r1, lsl #10
     554:	03020402 	movweq	r0, #9218	; 0x2402
     558:	05050166 	streq	r0, [r5, #-358]	; 0xfffffe9a
     55c:	02040200 	andeq	r0, r4, #0, 4
     560:	04020016 	streq	r0, [r2], #-22	; 0xffffffea
     564:	00010602 	andeq	r0, r1, r2, lsl #12
     568:	06020402 	streq	r0, [r2], -r2, lsl #8
     56c:	05011703 	streq	r1, [r1, #-1795]	; 0xfffff8fd
     570:	04020010 	streq	r0, [r2], #-16
     574:	69030602 	stmdbvs	r3, {r1, r9, sl}
     578:	0402002e 	streq	r0, [r2], #-46	; 0xffffffd2
     57c:	05052e02 	streq	r2, [r5, #-3586]	; 0xfffff1fe
     580:	02040200 	andeq	r0, r4, #0, 4
     584:	002e1703 	eoreq	r1, lr, r3, lsl #14
     588:	06020402 	streq	r0, [r2], -r2, lsl #8
     58c:	04020069 	streq	r0, [r2], #-105	; 0xffffff97
     590:	01041302 	tsteq	r4, r2, lsl #6
     594:	02040200 	andeq	r0, r4, #0, 4
     598:	00011a03 	andeq	r1, r1, r3, lsl #20
     59c:	01020402 	tsteq	r2, r2, lsl #8
     5a0:	02040200 	andeq	r0, r4, #0, 4
     5a4:	04020001 	streq	r0, [r2], #-1
     5a8:	02000102 	andeq	r0, r0, #-2147483648	; 0x80000000
     5ac:	00130204 	andseq	r0, r3, r4, lsl #4
     5b0:	01020402 	tsteq	r2, r2, lsl #8
     5b4:	02040200 	andeq	r0, r4, #0, 4
     5b8:	04020001 	streq	r0, [r2], #-1
     5bc:	02000102 	andeq	r0, r0, #-2147483648	; 0x80000000
     5c0:	00190204 	andseq	r0, r9, r4, lsl #4
     5c4:	13020402 	movwne	r0, #9218	; 0x2402
     5c8:	02040200 	andeq	r0, r4, #0, 4
     5cc:	04020001 	streq	r0, [r2], #-1
     5d0:	02000102 	andeq	r0, r0, #-2147483648	; 0x80000000
     5d4:	00010204 	andeq	r0, r1, r4, lsl #4
     5d8:	13020402 	movwne	r0, #9218	; 0x2402
     5dc:	02040200 	andeq	r0, r4, #0, 4
     5e0:	04020001 	streq	r0, [r2], #-1
     5e4:	01590302 	cmpeq	r9, r2, lsl #6
     5e8:	02040200 	andeq	r0, r4, #0, 4
     5ec:	04020014 	streq	r0, [r2], #-20	; 0xffffffec
     5f0:	02000102 	andeq	r0, r0, #-2147483648	; 0x80000000
     5f4:	00010204 	andeq	r0, r1, r4, lsl #4
     5f8:	01020402 	tsteq	r2, r2, lsl #8
     5fc:	02040200 	andeq	r0, r4, #0, 4
     600:	04020013 	streq	r0, [r2], #-19	; 0xffffffed
     604:	01240302 			; <UNDEFINED> instruction: 0x01240302
     608:	02040200 	andeq	r0, r4, #0, 4
     60c:	04020001 	streq	r0, [r2], #-1
     610:	02001402 	andeq	r1, r0, #33554432	; 0x2000000
     614:	68030204 	stmdavs	r3, {r2, r9}
     618:	04020001 	streq	r0, [r2], #-1
     61c:	02000102 	andeq	r0, r0, #-2147483648	; 0x80000000
     620:	00010204 	andeq	r0, r1, r4, lsl #4
     624:	01020402 	tsteq	r2, r2, lsl #8
     628:	02040200 	andeq	r0, r4, #0, 4
     62c:	04020013 	streq	r0, [r2], #-19	; 0xffffffed
     630:	02000102 	andeq	r0, r0, #-2147483648	; 0x80000000
     634:	00010204 	andeq	r0, r1, r4, lsl #4
     638:	01020402 	tsteq	r2, r2, lsl #8
     63c:	02040200 	andeq	r0, r4, #0, 4
     640:	04020014 	streq	r0, [r2], #-20	; 0xffffffec
     644:	016c0302 	cmneq	ip, r2, lsl #6
     648:	02040200 	andeq	r0, r4, #0, 4
     64c:	04020014 	streq	r0, [r2], #-20	; 0xffffffec
     650:	02000102 	andeq	r0, r0, #-2147483648	; 0x80000000
     654:	00010204 	andeq	r0, r1, r4, lsl #4
     658:	01020402 	tsteq	r2, r2, lsl #8
     65c:	02040200 	andeq	r0, r4, #0, 4
     660:	04020013 	streq	r0, [r2], #-19	; 0xffffffed
     664:	01140302 	tsteq	r4, r2, lsl #6
     668:	02000204 	andeq	r0, r0, #4, 4	; 0x40000000
     66c:	6d030204 	sfmvs	f0, 4, [r3, #-16]
     670:	00010401 	andeq	r0, r1, r1, lsl #8
     674:	03020402 	movweq	r0, #9218	; 0x2402
     678:	02000119 	andeq	r0, r0, #1073741830	; 0x40000006
     67c:	00010204 	andeq	r0, r1, r4, lsl #4
     680:	01020402 	tsteq	r2, r2, lsl #8
     684:	02040200 	andeq	r0, r4, #0, 4
     688:	04020001 	streq	r0, [r2], #-1
     68c:	02001302 	andeq	r1, r0, #134217728	; 0x8000000
     690:	00010204 	andeq	r0, r1, r4, lsl #4
     694:	01020402 	tsteq	r2, r2, lsl #8
     698:	02040200 	andeq	r0, r4, #0, 4
     69c:	04020001 	streq	r0, [r2], #-1
     6a0:	02001902 	andeq	r1, r0, #32768	; 0x8000
     6a4:	00130204 	andseq	r0, r3, r4, lsl #4
     6a8:	01020402 	tsteq	r2, r2, lsl #8
     6ac:	02040200 	andeq	r0, r4, #0, 4
     6b0:	04020001 	streq	r0, [r2], #-1
     6b4:	02000102 	andeq	r0, r0, #-2147483648	; 0x80000000
     6b8:	00130204 	andseq	r0, r3, r4, lsl #4
     6bc:	01020402 	tsteq	r2, r2, lsl #8
     6c0:	02040200 	andeq	r0, r4, #0, 4
     6c4:	00015903 	andeq	r5, r1, r3, lsl #18
     6c8:	14020402 	strne	r0, [r2], #-1026	; 0xfffffbfe
     6cc:	02040200 	andeq	r0, r4, #0, 4
     6d0:	04020001 	streq	r0, [r2], #-1
     6d4:	02000102 	andeq	r0, r0, #-2147483648	; 0x80000000
     6d8:	00010204 	andeq	r0, r1, r4, lsl #4
     6dc:	13020402 	movwne	r0, #9218	; 0x2402
     6e0:	02040200 	andeq	r0, r4, #0, 4
     6e4:	00012403 	andeq	r2, r1, r3, lsl #8
     6e8:	01020402 	tsteq	r2, r2, lsl #8
     6ec:	02040200 	andeq	r0, r4, #0, 4
     6f0:	04020014 	streq	r0, [r2], #-20	; 0xffffffec
     6f4:	01680302 	cmneq	r8, r2, lsl #6
     6f8:	02040200 	andeq	r0, r4, #0, 4
     6fc:	04020001 	streq	r0, [r2], #-1
     700:	02000102 	andeq	r0, r0, #-2147483648	; 0x80000000
     704:	00010204 	andeq	r0, r1, r4, lsl #4
     708:	13020402 	movwne	r0, #9218	; 0x2402
     70c:	02040200 	andeq	r0, r4, #0, 4
     710:	04020001 	streq	r0, [r2], #-1
     714:	02000102 	andeq	r0, r0, #-2147483648	; 0x80000000
     718:	00010204 	andeq	r0, r1, r4, lsl #4
     71c:	14020402 	strne	r0, [r2], #-1026	; 0xfffffbfe
     720:	02040200 	andeq	r0, r4, #0, 4
     724:	00016c03 	andeq	r6, r1, r3, lsl #24
     728:	14020402 	strne	r0, [r2], #-1026	; 0xfffffbfe
     72c:	02040200 	andeq	r0, r4, #0, 4
     730:	04020001 	streq	r0, [r2], #-1
     734:	02000102 	andeq	r0, r0, #-2147483648	; 0x80000000
     738:	00010204 	andeq	r0, r1, r4, lsl #4
     73c:	13020402 	movwne	r0, #9218	; 0x2402
     740:	02040200 	andeq	r0, r4, #0, 4
     744:	04011403 	streq	r1, [r1], #-1027	; 0xfffffbfd
     748:	04020002 	streq	r0, [r2], #-2
     74c:	016e0302 	cmneq	lr, r2, lsl #6
     750:	02040200 	andeq	r0, r4, #0, 4
     754:	00016303 	andeq	r6, r1, r3, lsl #6
     758:	03020402 	movweq	r0, #9218	; 0x2402
     75c:	0200011e 	andeq	r0, r0, #-2147483641	; 0x80000007
     760:	05690204 	strbeq	r0, [r9, #-516]!	; 0xfffffdfc
     764:	0402000b 	streq	r0, [r2], #-11
     768:	05010602 	streq	r0, [r1, #-1538]	; 0xfffff9fe
     76c:	04020005 	streq	r0, [r2], #-5
     770:	044b0602 	strbeq	r0, [fp], #-1538	; 0xfffff9fe
     774:	04020001 	streq	r0, [r2], #-1
     778:	01540302 	cmpeq	r4, r2, lsl #6
     77c:	02040200 	andeq	r0, r4, #0, 4
     780:	04020001 	streq	r0, [r2], #-1
     784:	02000102 	andeq	r0, r0, #-2147483648	; 0x80000000
     788:	00010204 	andeq	r0, r1, r4, lsl #4
     78c:	13020402 	movwne	r0, #9218	; 0x2402
     790:	02000204 	andeq	r0, r0, #4, 4	; 0x40000000
     794:	2c030204 	sfmcs	f0, 4, [r3], {4}
     798:	000a0501 	andeq	r0, sl, r1, lsl #10
     79c:	03020402 	movweq	r0, #9218	; 0x2402
     7a0:	05050159 	streq	r0, [r5, #-345]	; 0xfffffea7
     7a4:	02040200 	andeq	r0, r4, #0, 4
     7a8:	04020016 	streq	r0, [r2], #-22	; 0xffffffea
     7ac:	00010602 	andeq	r0, r1, r2, lsl #12
     7b0:	06020402 	streq	r0, [r2], -r2, lsl #8
     7b4:	00012403 	andeq	r2, r1, r3, lsl #8
     7b8:	06020402 	streq	r0, [r2], -r2, lsl #8
     7bc:	04020066 	streq	r0, [r2], #-102	; 0xffffff9a
     7c0:	00300602 	eorseq	r0, r0, r2, lsl #12
     7c4:	32020402 	andcc	r0, r2, #33554432	; 0x2000000
     7c8:	02000b05 	andeq	r0, r0, #5120	; 0x1400
     7cc:	01060204 	tsteq	r6, r4, lsl #4
     7d0:	02000505 	andeq	r0, r0, #20971520	; 0x1400000
     7d4:	4b060204 	blmi	180fec <__bss_end__+0x1771dc>
     7d8:	02000104 	andeq	r0, r0, #1
     7dc:	0a030204 	beq	c0ff4 <__bss_end__+0xb71e4>
     7e0:	04020001 	streq	r0, [r2], #-1
     7e4:	02000102 	andeq	r0, r0, #-2147483648	; 0x80000000
     7e8:	00010204 	andeq	r0, r1, r4, lsl #4
     7ec:	01020402 	tsteq	r2, r2, lsl #8
     7f0:	02040200 	andeq	r0, r4, #0, 4
     7f4:	04020013 	streq	r0, [r2], #-19	; 0xffffffed
     7f8:	02000102 	andeq	r0, r0, #-2147483648	; 0x80000000
     7fc:	00010204 	andeq	r0, r1, r4, lsl #4
     800:	01020402 	tsteq	r2, r2, lsl #8
     804:	02040200 	andeq	r0, r4, #0, 4
     808:	04020019 	streq	r0, [r2], #-25	; 0xffffffe7
     80c:	02001302 	andeq	r1, r0, #134217728	; 0x8000000
     810:	00010204 	andeq	r0, r1, r4, lsl #4
     814:	01020402 	tsteq	r2, r2, lsl #8
     818:	02040200 	andeq	r0, r4, #0, 4
     81c:	04020001 	streq	r0, [r2], #-1
     820:	02001302 	andeq	r1, r0, #134217728	; 0x8000000
     824:	00010204 	andeq	r0, r1, r4, lsl #4
     828:	03020402 	movweq	r0, #9218	; 0x2402
     82c:	02000159 	andeq	r0, r0, #1073741846	; 0x40000016
     830:	00140204 	andseq	r0, r4, r4, lsl #4
     834:	01020402 	tsteq	r2, r2, lsl #8
     838:	02040200 	andeq	r0, r4, #0, 4
     83c:	04020001 	streq	r0, [r2], #-1
     840:	02000102 	andeq	r0, r0, #-2147483648	; 0x80000000
     844:	00130204 	andseq	r0, r3, r4, lsl #4
     848:	03020402 	movweq	r0, #9218	; 0x2402
     84c:	02000124 	andeq	r0, r0, #9
     850:	00010204 	andeq	r0, r1, r4, lsl #4
     854:	14020402 	strne	r0, [r2], #-1026	; 0xfffffbfe
     858:	02040200 	andeq	r0, r4, #0, 4
     85c:	00016803 	andeq	r6, r1, r3, lsl #16
     860:	01020402 	tsteq	r2, r2, lsl #8
     864:	02040200 	andeq	r0, r4, #0, 4
     868:	04020001 	streq	r0, [r2], #-1
     86c:	02000102 	andeq	r0, r0, #-2147483648	; 0x80000000
     870:	00130204 	andseq	r0, r3, r4, lsl #4
     874:	01020402 	tsteq	r2, r2, lsl #8
     878:	02040200 	andeq	r0, r4, #0, 4
     87c:	04020001 	streq	r0, [r2], #-1
     880:	02000102 	andeq	r0, r0, #-2147483648	; 0x80000000
     884:	00140204 	andseq	r0, r4, r4, lsl #4
     888:	03020402 	movweq	r0, #9218	; 0x2402
     88c:	0200016c 	andeq	r0, r0, #27
     890:	00140204 	andseq	r0, r4, r4, lsl #4
     894:	01020402 	tsteq	r2, r2, lsl #8
     898:	02040200 	andeq	r0, r4, #0, 4
     89c:	04020001 	streq	r0, [r2], #-1
     8a0:	02000102 	andeq	r0, r0, #-2147483648	; 0x80000000
     8a4:	00130204 	andseq	r0, r3, r4, lsl #4
     8a8:	03020402 	movweq	r0, #9218	; 0x2402
     8ac:	02040114 	andeq	r0, r4, #5
     8b0:	02040200 	andeq	r0, r4, #0, 4
     8b4:	0501040f 	streq	r0, [r1, #-1039]	; 0xfffffbf1
     8b8:	04020001 	streq	r0, [r2], #-1
     8bc:	05051a02 	streq	r1, [r5, #-2562]	; 0xfffff5fe
     8c0:	02040200 	andeq	r0, r4, #0, 4
     8c4:	04020013 	streq	r0, [r2], #-19	; 0xffffffed
     8c8:	02000102 	andeq	r0, r0, #-2147483648	; 0x80000000
     8cc:	00010204 	andeq	r0, r1, r4, lsl #4
     8d0:	01020402 	tsteq	r2, r2, lsl #8
     8d4:	02040200 	andeq	r0, r4, #0, 4
     8d8:	04020013 	streq	r0, [r2], #-19	; 0xffffffed
     8dc:	02000102 	andeq	r0, r0, #-2147483648	; 0x80000000
     8e0:	00010204 	andeq	r0, r1, r4, lsl #4
     8e4:	01020402 	tsteq	r2, r2, lsl #8
     8e8:	02040200 	andeq	r0, r4, #0, 4
     8ec:	04020019 	streq	r0, [r2], #-25	; 0xffffffe7
     8f0:	02001302 	andeq	r1, r0, #134217728	; 0x8000000
     8f4:	00010204 	andeq	r0, r1, r4, lsl #4
     8f8:	01020402 	tsteq	r2, r2, lsl #8
     8fc:	02040200 	andeq	r0, r4, #0, 4
     900:	04020001 	streq	r0, [r2], #-1
     904:	02001302 	andeq	r1, r0, #134217728	; 0x8000000
     908:	00010204 	andeq	r0, r1, r4, lsl #4
     90c:	06020402 	streq	r0, [r2], -r2, lsl #8
     910:	04020001 	streq	r0, [r2], #-1
     914:	59030602 	stmdbpl	r3, {r1, r9, sl}
     918:	04020001 	streq	r0, [r2], #-1
     91c:	02001402 	andeq	r1, r0, #33554432	; 0x2000000
     920:	00010204 	andeq	r0, r1, r4, lsl #4
     924:	01020402 	tsteq	r2, r2, lsl #8
     928:	02040200 	andeq	r0, r4, #0, 4
     92c:	04020001 	streq	r0, [r2], #-1
     930:	02001302 	andeq	r1, r0, #134217728	; 0x8000000
     934:	24030204 	strcs	r0, [r3], #-516	; 0xfffffdfc
     938:	04020001 	streq	r0, [r2], #-1
     93c:	02000102 	andeq	r0, r0, #-2147483648	; 0x80000000
     940:	00140204 	andseq	r0, r4, r4, lsl #4
     944:	06020402 	streq	r0, [r2], -r2, lsl #8
     948:	04020001 	streq	r0, [r2], #-1
     94c:	68030602 	stmdavs	r3, {r1, r9, sl}
     950:	04020001 	streq	r0, [r2], #-1
     954:	02000102 	andeq	r0, r0, #-2147483648	; 0x80000000
     958:	00010204 	andeq	r0, r1, r4, lsl #4
     95c:	01020402 	tsteq	r2, r2, lsl #8
     960:	02040200 	andeq	r0, r4, #0, 4
     964:	04020013 	streq	r0, [r2], #-19	; 0xffffffed
     968:	02000102 	andeq	r0, r0, #-2147483648	; 0x80000000
     96c:	00010204 	andeq	r0, r1, r4, lsl #4
     970:	01020402 	tsteq	r2, r2, lsl #8
     974:	02040200 	andeq	r0, r4, #0, 4
     978:	04020014 	streq	r0, [r2], #-20	; 0xffffffec
     97c:	016c0302 	cmneq	ip, r2, lsl #6
     980:	02040200 	andeq	r0, r4, #0, 4
     984:	04020014 	streq	r0, [r2], #-20	; 0xffffffec
     988:	02000102 	andeq	r0, r0, #-2147483648	; 0x80000000
     98c:	00010204 	andeq	r0, r1, r4, lsl #4
     990:	01020402 	tsteq	r2, r2, lsl #8
     994:	02040200 	andeq	r0, r4, #0, 4
     998:	04020013 	streq	r0, [r2], #-19	; 0xffffffed
     99c:	01140302 	tsteq	r4, r2, lsl #6
     9a0:	02000204 	andeq	r0, r0, #4, 4	; 0x40000000
     9a4:	04100204 	ldreq	r0, [r0], #-516	; 0xfffffdfc
     9a8:	00200501 	eoreq	r0, r0, r1, lsl #10
     9ac:	06020402 	streq	r0, [r2], -r2, lsl #8
     9b0:	04011403 	streq	r1, [r1], #-1027	; 0xfffffbfd
     9b4:	00050502 	andeq	r0, r5, r2, lsl #10
     9b8:	03020402 	movweq	r0, #9218	; 0x2402
     9bc:	02004a6c 	andeq	r4, r0, #108, 20	; 0x6c000
     9c0:	00660204 	rsbeq	r0, r6, r4, lsl #4
     9c4:	06020402 	streq	r0, [r2], -r2, lsl #8
     9c8:	000b0530 	andeq	r0, fp, r0, lsr r5
     9cc:	06020402 	streq	r0, [r2], -r2, lsl #8
     9d0:	00050501 	andeq	r0, r5, r1, lsl #10
     9d4:	06020402 	streq	r0, [r2], -r2, lsl #8
     9d8:	0001044b 	andeq	r0, r1, fp, asr #8
     9dc:	03020402 	movweq	r0, #9218	; 0x2402
     9e0:	02000146 	andeq	r0, r0, #-2147483631	; 0x80000011
     9e4:	00010204 	andeq	r0, r1, r4, lsl #4
     9e8:	01020402 	tsteq	r2, r2, lsl #8
     9ec:	02040200 	andeq	r0, r4, #0, 4
     9f0:	04020001 	streq	r0, [r2], #-1
     9f4:	02041302 	andeq	r1, r4, #134217728	; 0x8000000
     9f8:	02040200 	andeq	r0, r4, #0, 4
     9fc:	04013a03 	streq	r3, [r1], #-2563	; 0xfffff5fd
     a00:	04020001 	streq	r0, [r2], #-1
     a04:	02001602 	andeq	r1, r0, #2097152	; 0x200000
     a08:	00010204 	andeq	r0, r1, r4, lsl #4
     a0c:	01020402 	tsteq	r2, r2, lsl #8
     a10:	02040200 	andeq	r0, r4, #0, 4
     a14:	04020001 	streq	r0, [r2], #-1
     a18:	02001302 	andeq	r1, r0, #134217728	; 0x8000000
     a1c:	00010204 	andeq	r0, r1, r4, lsl #4
     a20:	01020402 	tsteq	r2, r2, lsl #8
     a24:	02040200 	andeq	r0, r4, #0, 4
     a28:	04020001 	streq	r0, [r2], #-1
     a2c:	02001902 	andeq	r1, r0, #32768	; 0x8000
     a30:	00130204 	andseq	r0, r3, r4, lsl #4
     a34:	01020402 	tsteq	r2, r2, lsl #8
     a38:	02040200 	andeq	r0, r4, #0, 4
     a3c:	04020001 	streq	r0, [r2], #-1
     a40:	02000102 	andeq	r0, r0, #-2147483648	; 0x80000000
     a44:	00130204 	andseq	r0, r3, r4, lsl #4
     a48:	01020402 	tsteq	r2, r2, lsl #8
     a4c:	02040200 	andeq	r0, r4, #0, 4
     a50:	00015903 	andeq	r5, r1, r3, lsl #18
     a54:	14020402 	strne	r0, [r2], #-1026	; 0xfffffbfe
     a58:	02040200 	andeq	r0, r4, #0, 4
     a5c:	04020001 	streq	r0, [r2], #-1
     a60:	02000102 	andeq	r0, r0, #-2147483648	; 0x80000000
     a64:	00010204 	andeq	r0, r1, r4, lsl #4
     a68:	13020402 	movwne	r0, #9218	; 0x2402
     a6c:	02040200 	andeq	r0, r4, #0, 4
     a70:	00012403 	andeq	r2, r1, r3, lsl #8
     a74:	01020402 	tsteq	r2, r2, lsl #8
     a78:	02040200 	andeq	r0, r4, #0, 4
     a7c:	04020014 	streq	r0, [r2], #-20	; 0xffffffec
     a80:	01680302 	cmneq	r8, r2, lsl #6
     a84:	02040200 	andeq	r0, r4, #0, 4
     a88:	04020001 	streq	r0, [r2], #-1
     a8c:	02000102 	andeq	r0, r0, #-2147483648	; 0x80000000
     a90:	00010204 	andeq	r0, r1, r4, lsl #4
     a94:	13020402 	movwne	r0, #9218	; 0x2402
     a98:	02040200 	andeq	r0, r4, #0, 4
     a9c:	04020001 	streq	r0, [r2], #-1
     aa0:	02000102 	andeq	r0, r0, #-2147483648	; 0x80000000
     aa4:	00010204 	andeq	r0, r1, r4, lsl #4
     aa8:	14020402 	strne	r0, [r2], #-1026	; 0xfffffbfe
     aac:	02040200 	andeq	r0, r4, #0, 4
     ab0:	00016c03 	andeq	r6, r1, r3, lsl #24
     ab4:	14020402 	strne	r0, [r2], #-1026	; 0xfffffbfe
     ab8:	02040200 	andeq	r0, r4, #0, 4
     abc:	04020001 	streq	r0, [r2], #-1
     ac0:	02000102 	andeq	r0, r0, #-2147483648	; 0x80000000
     ac4:	00010204 	andeq	r0, r1, r4, lsl #4
     ac8:	13020402 	movwne	r0, #9218	; 0x2402
     acc:	02040200 	andeq	r0, r4, #0, 4
     ad0:	04011403 	streq	r1, [r1], #-1027	; 0xfffffbfd
     ad4:	04020002 	streq	r0, [r2], #-2
     ad8:	01041502 	tsteq	r4, r2, lsl #10
     adc:	02000105 	andeq	r0, r0, #1073741825	; 0x40000001
     ae0:	43030204 	movwmi	r0, #12804	; 0x3204
     ae4:	00050501 	andeq	r0, r5, r1, lsl #10
     ae8:	13020402 	movwne	r0, #9218	; 0x2402
     aec:	02040200 	andeq	r0, r4, #0, 4
     af0:	04020001 	streq	r0, [r2], #-1
     af4:	02000102 	andeq	r0, r0, #-2147483648	; 0x80000000
     af8:	00010204 	andeq	r0, r1, r4, lsl #4
     afc:	13020402 	movwne	r0, #9218	; 0x2402
     b00:	02040200 	andeq	r0, r4, #0, 4
     b04:	02040106 	andeq	r0, r4, #-2147483647	; 0x80000001
     b08:	02040200 	andeq	r0, r4, #0, 4
     b0c:	00c00306 	sbceq	r0, r0, r6, lsl #6
     b10:	05010401 	streq	r0, [r1, #-1025]	; 0xfffffbff
     b14:	0402000e 	streq	r0, [r2], #-14
     b18:	40030602 	andmi	r0, r3, r2, lsl #12
     b1c:	05020401 	streq	r0, [r2, #-1025]	; 0xfffffbff
     b20:	04020005 	streq	r0, [r2], #-5
     b24:	00c00302 	sbceq	r0, r0, r2, lsl #6
     b28:	0402002e 	streq	r0, [r2], #-46	; 0xffffffd2
     b2c:	02006602 	andeq	r6, r0, #2097152	; 0x200000
     b30:	30060204 	andcc	r0, r6, r4, lsl #4
     b34:	02000b05 	andeq	r0, r0, #5120	; 0x1400
     b38:	01060204 	tsteq	r6, r4, lsl #4
     b3c:	02000505 	andeq	r0, r0, #20971520	; 0x1400000
     b40:	4b060204 	blmi	181358 <__bss_end__+0x177548>
     b44:	02000104 	andeq	r0, r0, #1
     b48:	bc030204 	sfmlt	f0, 4, [r3], {4}
     b4c:	0200017f 	andeq	r0, r0, #-1073741793	; 0xc000001f
     b50:	00010204 	andeq	r0, r1, r4, lsl #4
     b54:	01020402 	tsteq	r2, r2, lsl #8
     b58:	02040200 	andeq	r0, r4, #0, 4
     b5c:	04020001 	streq	r0, [r2], #-1
     b60:	02041302 	andeq	r1, r4, #134217728	; 0x8000000
     b64:	02040200 	andeq	r0, r4, #0, 4
     b68:	0100c403 	tsteq	r0, r3, lsl #8
     b6c:	02000104 	andeq	r0, r0, #1
     b70:	bb030204 	bllt	c1388 <__bss_end__+0xb7578>
     b74:	0200017f 	andeq	r0, r0, #-1073741793	; 0xc000001f
     b78:	00010204 	andeq	r0, r1, r4, lsl #4
     b7c:	01020402 	tsteq	r2, r2, lsl #8
     b80:	02040200 	andeq	r0, r4, #0, 4
     b84:	04020001 	streq	r0, [r2], #-1
     b88:	02041302 	andeq	r1, r4, #134217728	; 0x8000000
     b8c:	02040200 	andeq	r0, r4, #0, 4
     b90:	0100c503 	tsteq	r0, r3, lsl #10
     b94:	02000104 	andeq	r0, r0, #1
     b98:	ba030204 	blt	c13b0 <__bss_end__+0xb75a0>
     b9c:	0200017f 	andeq	r0, r0, #-1073741793	; 0xc000001f
     ba0:	00010204 	andeq	r0, r1, r4, lsl #4
     ba4:	01020402 	tsteq	r2, r2, lsl #8
     ba8:	02040200 	andeq	r0, r4, #0, 4
     bac:	04020001 	streq	r0, [r2], #-1
     bb0:	02041302 	andeq	r1, r4, #134217728	; 0x8000000
     bb4:	02040200 	andeq	r0, r4, #0, 4
     bb8:	0100c603 	tsteq	r0, r3, lsl #12
     bbc:	02000104 	andeq	r0, r0, #1
     bc0:	b9030204 	stmdblt	r3, {r2, r9}
     bc4:	0200017f 	andeq	r0, r0, #-1073741793	; 0xc000001f
     bc8:	00010204 	andeq	r0, r1, r4, lsl #4
     bcc:	01020402 	tsteq	r2, r2, lsl #8
     bd0:	02040200 	andeq	r0, r4, #0, 4
     bd4:	04020001 	streq	r0, [r2], #-1
     bd8:	02041302 	andeq	r1, r4, #134217728	; 0x8000000
     bdc:	02040200 	andeq	r0, r4, #0, 4
     be0:	0100c703 	tsteq	r0, r3, lsl #14
     be4:	01050104 	tsteq	r5, r4, lsl #2
     be8:	02040200 	andeq	r0, r4, #0, 4
     bec:	017fb703 	cmneq	pc, r3, lsl #14
     bf0:	02000505 	andeq	r0, r0, #20971520	; 0x1400000
     bf4:	00130204 	andseq	r0, r3, r4, lsl #4
     bf8:	01020402 	tsteq	r2, r2, lsl #8
     bfc:	02040200 	andeq	r0, r4, #0, 4
     c00:	04020001 	streq	r0, [r2], #-1
     c04:	02000102 	andeq	r0, r0, #-2147483648	; 0x80000000
     c08:	00130204 	andseq	r0, r3, r4, lsl #4
     c0c:	06020402 	streq	r0, [r2], -r2, lsl #8
     c10:	00020401 	andeq	r0, r2, r1, lsl #8
     c14:	06020402 	streq	r0, [r2], -r2, lsl #8
     c18:	0100c803 	tsteq	r0, r3, lsl #16
     c1c:	02040200 	andeq	r0, r4, #0, 4
     c20:	02006606 	andeq	r6, r0, #6291456	; 0x600000
     c24:	30060204 	andcc	r0, r6, r4, lsl #4
     c28:	02001605 	andeq	r1, r0, #5242880	; 0x500000
     c2c:	01060204 	tsteq	r6, r4, lsl #4
     c30:	02003005 	andeq	r3, r0, #5, 0
     c34:	2e060104 	adfcss	f0, f6, f4
     c38:	02000a05 	andeq	r0, r0, #20480	; 0x5000
     c3c:	05010104 	streq	r0, [r1, #-260]	; 0xfffffefc
     c40:	04020016 	streq	r0, [r2], #-22	; 0xffffffea
     c44:	04010601 	streq	r0, [r1], #-1537	; 0xfffff9ff
     c48:	00010501 	andeq	r0, r1, r1, lsl #10
     c4c:	06010402 	streq	r0, [r1], -r2, lsl #8
     c50:	054a4903 	strbeq	r4, [sl, #-2307]	; 0xfffff6fd
     c54:	04020005 	streq	r0, [r2], #-5
     c58:	01051301 	tsteq	r5, r1, lsl #6
     c5c:	01040200 	mrseq	r0, R12_usr
     c60:	05017a03 	streq	r7, [r1, #-2563]	; 0xfffff5fd
     c64:	04020005 	streq	r0, [r2], #-5
     c68:	02001301 	andeq	r1, r0, #67108864	; 0x4000000
     c6c:	00010104 	andeq	r0, r1, r4, lsl #2
     c70:	01010402 	tsteq	r1, r2, lsl #8
     c74:	01040200 	mrseq	r0, R12_usr
     c78:	04020001 	streq	r0, [r2], #-1
     c7c:	02001301 	andeq	r1, r0, #67108864	; 0x4000000
     c80:	01060104 	tsteq	r6, r4, lsl #2
     c84:	0a050204 	beq	14149c <__bss_end__+0x13768c>
     c88:	01040200 	mrseq	r0, R12_usr
     c8c:	05013a03 	streq	r3, [r1, #-2563]	; 0xfffff5fd
     c90:	054c0605 	strbeq	r0, [ip, #-1541]	; 0xfffff9fb
     c94:	05190601 	ldreq	r0, [r9, #-1537]	; 0xfffff9ff
     c98:	4a790305 	bmi	1e418b4 <__bss_end__+0x1e37aa4>
     c9c:	01040200 	mrseq	r0, R12_usr
     ca0:	2e410306 	cdpcs	3, 4, cr0, cr1, cr6, {0}
     ca4:	01040200 	mrseq	r0, R12_usr
     ca8:	04020001 	streq	r0, [r2], #-1
     cac:	1f05d601 	svcne	0x0005d601
     cb0:	0800c803 	stmdaeq	r0, {r0, r1, fp, lr, pc}
     cb4:	13050574 	movwne	r0, #21876	; 0x5574
     cb8:	11061f05 	tstne	r6, r5, lsl #30
     cbc:	062f0505 	strteq	r0, [pc], -r5, lsl #10
     cc0:	1a05142f 	bne	145d84 <__bss_end__+0x13bf74>
     cc4:	73050106 	movwvc	r0, #20742	; 0x5106
     cc8:	01040200 	mrseq	r0, R12_usr
     ccc:	0a052e06 	beq	14c4ec <__bss_end__+0x1426dc>
     cd0:	01040200 	mrseq	r0, R12_usr
     cd4:	001a0501 	andseq	r0, sl, r1, lsl #10
     cd8:	06010402 	streq	r0, [r1], -r2, lsl #8
     cdc:	05010401 	streq	r0, [r1, #-1025]	; 0xfffffbff
     ce0:	04020005 	streq	r0, [r2], #-5
     ce4:	b6030601 	strlt	r0, [r3], -r1, lsl #12
     ce8:	02004a7f 	andeq	r4, r0, #520192	; 0x7f000
     cec:	00010104 	andeq	r0, r1, r4, lsl #2
     cf0:	01010402 	tsteq	r1, r2, lsl #8
     cf4:	01040200 	mrseq	r0, R12_usr
     cf8:	04020001 	streq	r0, [r2], #-1
     cfc:	02041301 	andeq	r1, r4, #67108864	; 0x4000000
     d00:	02000a05 	andeq	r0, r0, #20480	; 0x5000
     d04:	03060104 	movweq	r0, #24836	; 0x6104
     d08:	050100c9 	streq	r0, [r1, #-201]	; 0xffffff37
     d0c:	05500605 	ldrbeq	r0, [r0, #-1541]	; 0xfffff9fb
     d10:	05130601 	ldreq	r0, [r3, #-1537]	; 0xfffff9ff
     d14:	022e2d0c 	eoreq	r2, lr, #12, 26	; 0x300
     d18:	01010006 	tsteq	r1, r6
     d1c:	00000241 	andeq	r0, r0, r1, asr #4
     d20:	00f80003 	rscseq	r0, r8, r3
     d24:	01020000 	mrseq	r0, (UNDEF: 2)
     d28:	000d0efb 	strdeq	r0, [sp], -fp
     d2c:	01010101 	tsteq	r1, r1, lsl #2
     d30:	01000000 	mrseq	r0, (UNDEF: 0)
     d34:	2f010000 	svccs	0x00010000
     d38:	2f727375 	svccs	0x00727375
     d3c:	61636f6c 	cmnvs	r3, ip, ror #30
     d40:	65432f6c 	strbvs	r2, [r3, #-3948]	; 0xfffff094
     d44:	72616c6c 	rsbvc	r6, r1, #108, 24	; 0x6c00
     d48:	6d72612f 	ldfvse	f6, [r2, #-188]!	; 0xffffff44
     d4c:	6e6f6e2d 	cdpvs	14, 6, cr6, cr15, cr13, {1}
     d50:	61652d65 	cmnvs	r5, r5, ror #26
     d54:	742d6962 	strtvc	r6, [sp], #-2402	; 0xfffff69e
     d58:	2f747365 	svccs	0x00747365
     d5c:	30322d39 	eorscc	r2, r2, r9, lsr sp
     d60:	34713931 	ldrbtcc	r3, [r1], #-2353	; 0xfffff6cf
     d64:	3173632d 	cmncc	r3, sp, lsr #6
     d68:	2f653730 	svccs	0x00653730
     d6c:	2f62696c 	svccs	0x0062696c
     d70:	2f636367 	svccs	0x00636367
     d74:	2d6d7261 	sfmcs	f7, 2, [sp, #-388]!	; 0xfffffe7c
     d78:	656e6f6e 	strbvs	r6, [lr, #-3950]!	; 0xfffff092
     d7c:	6261652d 	rsbvs	r6, r1, #188743680	; 0xb400000
     d80:	2e392f69 	cdpcs	15, 3, cr2, cr9, cr9, {3}
     d84:	2f312e32 	svccs	0x00312e32
     d88:	6c636e69 	stclvs	14, cr6, [r3], #-420	; 0xfffffe5c
     d8c:	00656475 	rsbeq	r6, r5, r5, ror r4
     d90:	6573552f 	ldrbvs	r5, [r3, #-1327]!	; 0xfffffad1
     d94:	652f7372 	strvs	r7, [pc, #-882]!	; a2a <__code_start__-0x75d6>
     d98:	62636972 	rsbvs	r6, r3, #1867776	; 0x1c8000
     d9c:	2f726165 	svccs	0x00726165
     da0:	75636f44 	strbvc	r6, [r3, #-3908]!	; 0xfffff0bc
     da4:	746e656d 	strbtvc	r6, [lr], #-1389	; 0xfffffa93
     da8:	53432f73 	movtpl	r2, #16243	; 0x3f73
     dac:	45303431 	ldrmi	r3, [r0, #-1073]!	; 0xfffffbcf
     db0:	3173632f 	cmncc	r3, pc, lsr #6
     db4:	2d453034 	stclcs	0, cr3, [r5, #-208]	; 0xffffff30
     db8:	616e6966 	cmnvs	lr, r6, ror #18
     dbc:	72702d6c 	rsbsvc	r2, r0, #108, 26	; 0x1b00
     dc0:	63656a6f 	cmnvs	r5, #454656	; 0x6f000
     dc4:	696c2f74 	stmdbvs	ip!, {r2, r4, r5, r6, r8, r9, sl, fp, sp}^
     dc8:	322d7362 	eorcc	r7, sp, #-2013265919	; 0x88000001
     dcc:	786c3034 	stmdavc	ip!, {r2, r4, r5, ip, sp}^
     dd0:	62696c2f 	rsbvs	r6, r9, #12032	; 0x2f00
     dd4:	692f6970 	stmdbvs	pc!, {r4, r5, r6, r8, fp, sp, lr}	; <UNPREDICTABLE>
     dd8:	756c636e 	strbvc	r6, [ip, #-878]!	; 0xfffffc92
     ddc:	00006564 	andeq	r6, r0, r4, ror #10
     de0:	2e746666 	cdpcs	6, 7, cr6, cr4, cr6, {3}
     de4:	00000063 	andeq	r0, r0, r3, rrx
     de8:	74666600 	strbtvc	r6, [r6], #-1536	; 0xfffffa00
     dec:	0000682e 	andeq	r6, r0, lr, lsr #16
     df0:	74730000 	ldrbtvc	r0, [r3], #-0
     df4:	746e6964 	strbtvc	r6, [lr], #-2404	; 0xfffff69c
     df8:	6363672d 	cmnvs	r3, #11796480	; 0xb40000
     dfc:	0100682e 	tsteq	r0, lr, lsr #16
     e00:	70720000 	rsbsvc	r0, r2, r0
     e04:	00682e69 	rsbeq	r2, r8, r9, ror #28
     e08:	66000002 	strvs	r0, [r0], -r2
     e0c:	735f7466 	cmpvc	pc, #1711276032	; 0x66000000
     e10:	5f656e69 	svcpl	0x00656e69
     e14:	2e74756c 	cdpcs	5, 7, cr7, cr4, cr12, {3}
     e18:	00000068 	andeq	r0, r0, r8, rrx
     e1c:	5a050000 	bpl	140e24 <__bss_end__+0x137014>
     e20:	84020500 	strhi	r0, [r2], #-1280	; 0xfffffb00
     e24:	03000082 	movweq	r0, #130	; 0x82
     e28:	05050109 	streq	r0, [r5, #-265]	; 0xfffffef7
     e2c:	065a0514 			; <UNDEFINED> instruction: 0x065a0514
     e30:	30140510 	andscc	r0, r4, r0, lsl r5
     e34:	4c060505 	cfstr32mi	mvfx0, [r6], {5}
     e38:	01060805 	tsteq	r6, r5, lsl #16
     e3c:	52062105 	andpl	r2, r6, #1073741825	; 0x40000001
     e40:	01060505 	tsteq	r6, r5, lsl #10
     e44:	052b0d05 	streq	r0, [fp, #-3333]!	; 0xfffff2fb
     e48:	052e8505 	streq	r8, [lr, #-1285]!	; 0xfffffafb
     e4c:	09050f0d 	stmdbeq	r5, {r0, r2, r3, r8, r9, sl, fp}
     e50:	01040200 	mrseq	r0, R12_usr
     e54:	0d053306 	stceq	3, cr3, [r5, #-24]	; 0xffffffe8
     e58:	01040200 	mrseq	r0, R12_usr
     e5c:	00110513 	andseq	r0, r1, r3, lsl r5
     e60:	06010402 	streq	r0, [r1], -r2, lsl #8
     e64:	04020001 	streq	r0, [r2], #-1
     e68:	052f0601 	streq	r0, [pc, #-1537]!	; 86f <__code_start__-0x7791>
     e6c:	0402001b 	streq	r0, [r2], #-27	; 0xffffffe5
     e70:	05010601 	streq	r0, [r1, #-1537]	; 0xfffff9ff
     e74:	04020009 	streq	r0, [r2], #-9
     e78:	4c062e01 	stcmi	14, cr2, [r6], {1}
     e7c:	01062505 	tsteq	r6, r5, lsl #10
     e80:	052e1e05 	streq	r1, [lr, #-3589]!	; 0xfffff1fb
     e84:	09052e2b 	stmdbeq	r5, {r0, r1, r3, r5, r9, sl, fp, sp}
     e88:	0c052f06 	stceq	15, cr2, [r5], {6}
     e8c:	09050106 	stmdbeq	r5, {r1, r2, r8}
     e90:	1e054e06 	cdpne	14, 0, cr4, cr5, cr6, {0}
     e94:	052e1306 	streq	r1, [lr, #-774]!	; 0xfffffcfa
     e98:	09052d11 	stmdbeq	r5, {r0, r4, r8, sl, fp, sp}
     e9c:	18052f06 	stmdane	r5, {r1, r2, r8, r9, sl, fp, sp}
     ea0:	09050106 	stmdbeq	r5, {r1, r2, r8}
     ea4:	18052f06 	stmdane	r5, {r1, r2, r8, r9, sl, fp, sp}
     ea8:	09050106 	stmdbeq	r5, {r1, r2, r8}
     eac:	11052f06 	tstne	r5, r6, lsl #30
     eb0:	09050106 	stmdbeq	r5, {r1, r2, r8}
     eb4:	1e052f06 	cdpne	15, 0, cr2, cr5, cr6, {0}
     eb8:	18050106 	stmdane	r5, {r1, r2, r8}
     ebc:	0609052e 	streq	r0, [r9], -lr, lsr #10
     ec0:	0618052f 	ldreq	r0, [r8], -pc, lsr #10
     ec4:	2f052e01 	svccs	0x00052e01
     ec8:	02040200 	andeq	r0, r4, #0, 4
     ecc:	01700306 	cmneq	r0, r6, lsl #6
     ed0:	02003705 	andeq	r3, r0, #1310720	; 0x140000
     ed4:	01060204 	tsteq	r6, r4, lsl #4
     ed8:	02002105 	andeq	r2, r0, #1073741825	; 0x40000001
     edc:	2e060204 	cdpcs	2, 0, cr0, cr6, cr4, {0}
     ee0:	02000505 	andeq	r0, r0, #20971520	; 0x1400000
     ee4:	01060204 	tsteq	r6, r4, lsl #4
     ee8:	02040200 	andeq	r0, r4, #0, 4
     eec:	060b0582 	streq	r0, [fp], -r2, lsl #11
     ef0:	05011503 	streq	r1, [r1, #-1283]	; 0xfffffafd
     ef4:	03131309 	tsteq	r3, #603979776	; 0x24000000
     ef8:	05130115 	ldreq	r0, [r3, #-277]	; 0xfffffeeb
     efc:	2105010e 	tstcs	r5, lr, lsl #2
     f00:	130d0501 	movwne	r0, #54529	; 0xd501
     f04:	16151314 			; <UNDEFINED> instruction: 0x16151314
     f08:	01120516 	tsteq	r2, r6, lsl r5
     f0c:	05012505 	streq	r2, [r1, #-1285]	; 0xfffffafb
     f10:	04131311 	ldreq	r1, [r3], #-785	; 0xfffffcef
     f14:	03100502 	tsteq	r0, #8388608	; 0x800000
     f18:	05017fbd 	streq	r7, [r1, #-4029]	; 0xfffff043
     f1c:	10051305 	andne	r1, r5, r5, lsl #6
     f20:	05017503 	streq	r7, [r1, #-1283]	; 0xfffffafd
     f24:	06011305 	streq	r1, [r1], -r5, lsl #6
     f28:	2e062e66 	cdpcs	14, 0, cr2, cr6, cr6, {3}
     f2c:	01042e06 	tsteq	r4, r6, lsl #28
     f30:	de030105 	adfles	f0, f3, f5
     f34:	052e0100 	streq	r0, [lr, #-256]!	; 0xffffff00
     f38:	a9030609 	stmdbge	r3, {r0, r3, r9, sl}
     f3c:	06012e7f 			; <UNDEFINED> instruction: 0x06012e7f
     f40:	2e2e2e2e 	cdpcs	14, 2, cr2, cr14, cr14, {1}
     f44:	4b052e06 	blmi	14c764 <__bss_end__+0x142954>
     f48:	d600da03 	strle	sp, [r0], -r3, lsl #20
     f4c:	01130505 	tsteq	r3, r5, lsl #10
     f50:	2d064b05 	vstrcs	d4, [r6, #-20]	; 0xffffffec
     f54:	2e2f0505 	cfsh64cs	mvdx0, mvdx15, #5
     f58:	2e062e2e 	cdpcs	14, 0, cr2, cr6, cr14, {1}
     f5c:	01000802 	tsteq	r0, r2, lsl #16
     f60:	00013201 	andeq	r3, r1, r1, lsl #4
     f64:	00000300 	andeq	r0, r0, r0, lsl #6
     f68:	02000001 	andeq	r0, r0, #1, 0
     f6c:	0d0efb01 	vstreq	d15, [lr, #-4]
     f70:	01010100 	mrseq	r0, (UNDEF: 17)
     f74:	00000001 	andeq	r0, r0, r1
     f78:	01000001 	tsteq	r0, r1
     f7c:	696c2f2e 	stmdbvs	ip!, {r1, r2, r3, r5, r8, r9, sl, fp, sp}^
     f80:	2f006362 	svccs	0x00006362
     f84:	2f727375 	svccs	0x00727375
     f88:	61636f6c 	cmnvs	r3, ip, ror #30
     f8c:	65432f6c 	strbvs	r2, [r3, #-3948]	; 0xfffff094
     f90:	72616c6c 	rsbvc	r6, r1, #108, 24	; 0x6c00
     f94:	6d72612f 	ldfvse	f6, [r2, #-188]!	; 0xffffff44
     f98:	6e6f6e2d 	cdpvs	14, 6, cr6, cr15, cr13, {1}
     f9c:	61652d65 	cmnvs	r5, r5, ror #26
     fa0:	742d6962 	strtvc	r6, [sp], #-2402	; 0xfffff69e
     fa4:	2f747365 	svccs	0x00747365
     fa8:	30322d39 	eorscc	r2, r2, r9, lsr sp
     fac:	34713931 	ldrbtcc	r3, [r1], #-2353	; 0xfffff6cf
     fb0:	3173632d 	cmncc	r3, sp, lsr #6
     fb4:	2f653730 	svccs	0x00653730
     fb8:	2f62696c 	svccs	0x0062696c
     fbc:	2f636367 	svccs	0x00636367
     fc0:	2d6d7261 	sfmcs	f7, 2, [sp, #-388]!	; 0xfffffe7c
     fc4:	656e6f6e 	strbvs	r6, [lr, #-3950]!	; 0xfffff092
     fc8:	6261652d 	rsbvs	r6, r1, #188743680	; 0xb400000
     fcc:	2e392f69 	cdpcs	15, 3, cr2, cr9, cr9, {3}
     fd0:	2f312e32 	svccs	0x00312e32
     fd4:	6c636e69 	stclvs	14, cr6, [r3], #-420	; 0xfffffe5c
     fd8:	00656475 	rsbeq	r6, r5, r5, ror r4
     fdc:	6573552f 	ldrbvs	r5, [r3, #-1327]!	; 0xfffffad1
     fe0:	652f7372 	strvs	r7, [pc, #-882]!	; c76 <__code_start__-0x738a>
     fe4:	62636972 	rsbvs	r6, r3, #1867776	; 0x1c8000
     fe8:	2f726165 	svccs	0x00726165
     fec:	75636f44 	strbvc	r6, [r3, #-3908]!	; 0xfffff0bc
     ff0:	746e656d 	strbtvc	r6, [lr], #-1389	; 0xfffffa93
     ff4:	53432f73 	movtpl	r2, #16243	; 0x3f73
     ff8:	45303431 	ldrmi	r3, [r0, #-1073]!	; 0xfffffbcf
     ffc:	3173632f 	cmncc	r3, pc, lsr #6
    1000:	2d453034 	stclcs	0, cr3, [r5, #-208]	; 0xffffff30
    1004:	616e6966 	cmnvs	lr, r6, ror #18
    1008:	72702d6c 	rsbsvc	r2, r0, #108, 26	; 0x1b00
    100c:	63656a6f 	cmnvs	r5, #454656	; 0x6f000
    1010:	696c2f74 	stmdbvs	ip!, {r2, r4, r5, r6, r8, r9, sl, fp, sp}^
    1014:	322d7362 	eorcc	r7, sp, #-2013265919	; 0x88000001
    1018:	786c3034 	stmdavc	ip!, {r2, r4, r5, ip, sp}^
    101c:	62696c2f 	rsbvs	r6, r9, #12032	; 0x2f00
    1020:	692f6970 	stmdbvs	pc!, {r4, r5, r6, r8, fp, sp, lr}	; <UNPREDICTABLE>
    1024:	756c636e 	strbvc	r6, [ip, #-878]!	; 0xfffffc92
    1028:	00006564 	andeq	r6, r0, r4, ror #10
    102c:	6e697270 	mcrvs	2, 3, r7, cr9, cr0, {3}
    1030:	632e6b74 			; <UNDEFINED> instruction: 0x632e6b74
    1034:	00000100 	andeq	r0, r0, r0, lsl #2
    1038:	61647473 	smcvs	18243	; 0x4743
    103c:	682e6772 	stmdavs	lr!, {r1, r4, r5, r6, r8, r9, sl, sp, lr}
    1040:	00000200 	andeq	r0, r0, r0, lsl #4
    1044:	2e697072 	mcrcs	0, 3, r7, cr9, cr2, {3}
    1048:	00030068 	andeq	r0, r3, r8, rrx
    104c:	75623c00 	strbvc	r3, [r2, #-3072]!	; 0xfffff400
    1050:	2d746c69 	ldclcs	12, cr6, [r4, #-420]!	; 0xfffffe5c
    1054:	003e6e69 	eorseq	r6, lr, r9, ror #28
    1058:	76000000 	strvc	r0, [r0], -r0
    105c:	72702d61 	rsbsvc	r2, r0, #6208	; 0x1840
    1060:	6b746e69 	blvs	1d1ca0c <__bss_end__+0x1d12bfc>
    1064:	0100682e 	tsteq	r0, lr, lsr #16
    1068:	05000000 	streq	r0, [r0, #-0]
    106c:	02050022 	andeq	r0, r5, #34, 0	; 0x22
    1070:	00008388 	andeq	r8, r0, r8, lsl #7
    1074:	05010617 	streq	r0, [r1, #-1559]	; 0xfffff9e9
    1078:	13680605 	cmnne	r8, #5242880	; 0x500000
    107c:	4b090514 	blmi	2424d4 <__bss_end__+0x2386c4>
    1080:	01061205 	tsteq	r6, r5, lsl #4
    1084:	bb060505 	bllt	1824a0 <__bss_end__+0x178690>
    1088:	06660616 			; <UNDEFINED> instruction: 0x06660616
    108c:	06010534 			; <UNDEFINED> instruction: 0x06010534
    1090:	08026613 	stmdaeq	r2, {r0, r1, r4, r9, sl, sp, lr}
    1094:	ca010100 	bgt	4149c <__bss_end__+0x3768c>
    1098:	03000000 	movweq	r0, #0
    109c:	00007c00 	andeq	r7, r0, r0, lsl #24
    10a0:	fb010200 	blx	418aa <__bss_end__+0x37a9a>
    10a4:	01000d0e 	tsteq	r0, lr, lsl #26
    10a8:	00010101 	andeq	r0, r1, r1, lsl #2
    10ac:	00010000 	andeq	r0, r1, r0
    10b0:	2f2e0100 	svccs	0x002e0100
    10b4:	6362696c 	cmnvs	r2, #108, 18	; 0x1b0000
    10b8:	73552f00 	cmpvc	r5, #0, 30
    10bc:	2f737265 	svccs	0x00737265
    10c0:	63697265 	cmnvs	r9, #1342177286	; 0x50000006
    10c4:	72616562 	rsbvc	r6, r1, #411041792	; 0x18800000
    10c8:	636f442f 	cmnvs	pc, #788529152	; 0x2f000000
    10cc:	6e656d75 	mcrvs	13, 3, r6, cr5, cr5, {3}
    10d0:	432f7374 			; <UNDEFINED> instruction: 0x432f7374
    10d4:	30343153 	eorscc	r3, r4, r3, asr r1
    10d8:	73632f45 	cmnvc	r3, #276	; 0x114
    10dc:	45303431 	ldrmi	r3, [r0, #-1073]!	; 0xfffffbcf
    10e0:	6e69662d 	cdpvs	6, 6, cr6, cr9, cr13, {1}
    10e4:	702d6c61 	eorvc	r6, sp, r1, ror #24
    10e8:	656a6f72 	strbvs	r6, [sl, #-3954]!	; 0xfffff08e
    10ec:	6c2f7463 	cfstrsvs	mvf7, [pc], #-396	; f68 <__code_start__-0x7098>
    10f0:	2d736269 	lfmcs	f6, 2, [r3, #-420]!	; 0xfffffe5c
    10f4:	6c303432 	cfldrsvs	mvf3, [r0], #-200	; 0xffffff38
    10f8:	696c2f78 	stmdbvs	ip!, {r3, r4, r5, r6, r8, r9, sl, fp, sp}^
    10fc:	2f697062 	svccs	0x00697062
    1100:	6c636e69 	stclvs	14, cr6, [r3], #-420	; 0xfffffe5c
    1104:	00656475 	rsbeq	r6, r5, r5, ror r4
    1108:	74757000 	ldrbtvc	r7, [r5], #-0
    110c:	00632e6b 	rsbeq	r2, r3, fp, ror #28
    1110:	72000001 	andvc	r0, r0, #1, 0
    1114:	682e6970 	stmdavs	lr!, {r4, r5, r6, r8, fp, sp, lr}
    1118:	00000200 	andeq	r0, r0, r0, lsl #4
    111c:	00220500 	eoreq	r0, r2, r0, lsl #10
    1120:	83e00205 	mvnhi	r0, #1342177280	; 0x50000000
    1124:	06150000 	ldreq	r0, [r5], -r0
    1128:	06050501 	streq	r0, [r5], -r1, lsl #10
    112c:	000b054b 	andeq	r0, fp, fp, asr #10
    1130:	01010402 	tsteq	r1, r2, lsl #8
    1134:	02000505 	andeq	r0, r0, #20971520	; 0x1400000
    1138:	2e060104 	adfcss	f0, f6, f4
    113c:	02000905 	andeq	r0, r0, #81920	; 0x14000
    1140:	4b060204 	blmi	181958 <__bss_end__+0x177b48>
    1144:	02000f05 	andeq	r0, r0, #5, 30
    1148:	05650204 	strbeq	r0, [r5, #-516]!	; 0xfffffdfc
    114c:	04020010 	streq	r0, [r2], #-16
    1150:	00010602 	andeq	r0, r1, r2, lsl #12
    1154:	2e020402 	cdpcs	4, 0, cr0, cr2, cr2, {0}
    1158:	32060505 	andcc	r0, r6, #20971520	; 0x1400000
    115c:	13060105 	movwne	r0, #24837	; 0x6105
    1160:	01000602 	tsteq	r0, r2, lsl #12
    1164:	00061c01 	andeq	r1, r6, r1, lsl #24
    1168:	16000300 	strne	r0, [r0], -r0, lsl #6
    116c:	02000001 	andeq	r0, r0, #1, 0
    1170:	0d0efb01 	vstreq	d15, [lr, #-4]
    1174:	01010100 	mrseq	r0, (UNDEF: 17)
    1178:	00000001 	andeq	r0, r0, r1
    117c:	01000001 	tsteq	r0, r1
    1180:	696c2f2e 	stmdbvs	ip!, {r1, r2, r3, r5, r8, r9, sl, fp, sp}^
    1184:	2f006362 	svccs	0x00006362
    1188:	2f727375 	svccs	0x00727375
    118c:	61636f6c 	cmnvs	r3, ip, ror #30
    1190:	65432f6c 	strbvs	r2, [r3, #-3948]	; 0xfffff094
    1194:	72616c6c 	rsbvc	r6, r1, #108, 24	; 0x6c00
    1198:	6d72612f 	ldfvse	f6, [r2, #-188]!	; 0xffffff44
    119c:	6e6f6e2d 	cdpvs	14, 6, cr6, cr15, cr13, {1}
    11a0:	61652d65 	cmnvs	r5, r5, ror #26
    11a4:	742d6962 	strtvc	r6, [sp], #-2402	; 0xfffff69e
    11a8:	2f747365 	svccs	0x00747365
    11ac:	30322d39 	eorscc	r2, r2, r9, lsr sp
    11b0:	34713931 	ldrbtcc	r3, [r1], #-2353	; 0xfffff6cf
    11b4:	3173632d 	cmncc	r3, sp, lsr #6
    11b8:	2f653730 	svccs	0x00653730
    11bc:	2f62696c 	svccs	0x0062696c
    11c0:	2f636367 	svccs	0x00636367
    11c4:	2d6d7261 	sfmcs	f7, 2, [sp, #-388]!	; 0xfffffe7c
    11c8:	656e6f6e 	strbvs	r6, [lr, #-3950]!	; 0xfffff092
    11cc:	6261652d 	rsbvs	r6, r1, #188743680	; 0xb400000
    11d0:	2e392f69 	cdpcs	15, 3, cr2, cr9, cr9, {3}
    11d4:	2f312e32 	svccs	0x00312e32
    11d8:	6c636e69 	stclvs	14, cr6, [r3], #-420	; 0xfffffe5c
    11dc:	00656475 	rsbeq	r6, r5, r5, ror r4
    11e0:	6573552f 	ldrbvs	r5, [r3, #-1327]!	; 0xfffffad1
    11e4:	652f7372 	strvs	r7, [pc, #-882]!	; e7a <__code_start__-0x7186>
    11e8:	62636972 	rsbvs	r6, r3, #1867776	; 0x1c8000
    11ec:	2f726165 	svccs	0x00726165
    11f0:	75636f44 	strbvc	r6, [r3, #-3908]!	; 0xfffff0bc
    11f4:	746e656d 	strbtvc	r6, [lr], #-1389	; 0xfffffa93
    11f8:	53432f73 	movtpl	r2, #16243	; 0x3f73
    11fc:	45303431 	ldrmi	r3, [r0, #-1073]!	; 0xfffffbcf
    1200:	3173632f 	cmncc	r3, pc, lsr #6
    1204:	2d453034 	stclcs	0, cr3, [r5, #-208]	; 0xffffff30
    1208:	616e6966 	cmnvs	lr, r6, ror #18
    120c:	72702d6c 	rsbsvc	r2, r0, #108, 26	; 0x1b00
    1210:	63656a6f 	cmnvs	r5, #454656	; 0x6f000
    1214:	696c2f74 	stmdbvs	ip!, {r2, r4, r5, r6, r8, r9, sl, fp, sp}^
    1218:	322d7362 	eorcc	r7, sp, #-2013265919	; 0x88000001
    121c:	786c3034 	stmdavc	ip!, {r2, r4, r5, ip, sp}^
    1220:	62696c2f 	rsbvs	r6, r9, #12032	; 0x2f00
    1224:	692f6970 	stmdbvs	pc!, {r4, r5, r6, r8, fp, sp, lr}	; <UNPREDICTABLE>
    1228:	756c636e 	strbvc	r6, [ip, #-878]!	; 0xfffffc92
    122c:	00006564 	andeq	r6, r0, r4, ror #10
    1230:	702d6176 	eorvc	r6, sp, r6, ror r1
    1234:	746e6972 	strbtvc	r6, [lr], #-2418	; 0xfffff68e
    1238:	00632e6b 	rsbeq	r2, r3, fp, ror #28
    123c:	73000001 	movwvc	r0, #1
    1240:	6e696474 	mcrvs	4, 3, r6, cr9, cr4, {3}
    1244:	63672d74 	cmnvs	r7, #116, 26	; 0x1d00
    1248:	00682e63 	rsbeq	r2, r8, r3, ror #28
    124c:	72000002 	andvc	r0, r0, #2, 0
    1250:	682e6970 	stmdavs	lr!, {r4, r5, r6, r8, fp, sp, lr}
    1254:	00000300 	andeq	r0, r0, r0, lsl #6
    1258:	2d697072 	stclcs	0, cr7, [r9, #-456]!	; 0xfffffe38
    125c:	65746e69 	ldrbvs	r6, [r4, #-3689]!	; 0xfffff197
    1260:	6c616e72 	stclvs	14, cr6, [r1], #-456	; 0xfffffe38
    1264:	0300682e 	movweq	r6, #2094	; 0x82e
    1268:	74730000 	ldrbtvc	r0, [r3], #-0
    126c:	67726164 	ldrbvs	r6, [r2, -r4, ror #2]!
    1270:	0200682e 	andeq	r6, r0, #3014656	; 0x2e0000
    1274:	623c0000 	eorsvs	r0, ip, #0, 0
    1278:	746c6975 	strbtvc	r6, [ip], #-2421	; 0xfffff68b
    127c:	3e6e692d 	vmulcc.f16	s13, s28, s27	; <UNPREDICTABLE>
    1280:	00000000 	andeq	r0, r0, r0
    1284:	001b0500 	andseq	r0, fp, r0, lsl #10
    1288:	84140205 	ldrhi	r0, [r4], #-517	; 0xfffffdfb
    128c:	26030000 	strcs	r0, [r3], -r0
    1290:	011d0501 	tsteq	sp, r1, lsl #10
    1294:	01062d05 	tsteq	r6, r5, lsl #26
    1298:	4a2e0105 	bmi	b816b4 <__bss_end__+0xb778a4>
    129c:	51063305 	tstpl	r6, r5, lsl #6
    12a0:	05130205 	ldreq	r0, [r3, #-517]	; 0xfffffdfb
    12a4:	05010606 	streq	r0, [r1, #-1542]	; 0xfffff9fa
    12a8:	05300602 	ldreq	r0, [r0, #-1538]!	; 0xfffff9fe
    12ac:	04020008 	streq	r0, [r2], #-8
    12b0:	02050101 	andeq	r0, r5, #1073741824	; 0x40000000
    12b4:	01040200 	mrseq	r0, R12_usr
    12b8:	03050106 	movweq	r0, #20742	; 0x5106
    12bc:	02040200 	andeq	r0, r4, #0, 4
    12c0:	08052f06 	stmdaeq	r5, {r1, r2, r8, r9, sl, fp, sp}
    12c4:	02040200 	andeq	r0, r4, #0, 4
    12c8:	15050106 	strne	r0, [r5, #-262]	; 0xfffffefa
    12cc:	02040200 	andeq	r0, r4, #0, 4
    12d0:	18054906 	stmdane	r5, {r1, r2, r8, fp, lr}
    12d4:	02040200 	andeq	r0, r4, #0, 4
    12d8:	02000106 	andeq	r0, r0, #-2147483647	; 0x80000001
    12dc:	052e0204 	streq	r0, [lr, #-516]!	; 0xfffffdfc
    12e0:	05300602 	ldreq	r0, [r0, #-1538]!	; 0xfffff9fe
    12e4:	05010605 	streq	r0, [r1, #-1541]	; 0xfffff9fb
    12e8:	054b0602 	strbeq	r0, [fp, #-1538]	; 0xfffff9fe
    12ec:	05130601 	ldreq	r0, [r3, #-1537]	; 0xfffff9ff
    12f0:	0531063e 	ldreq	r0, [r1, #-1598]!	; 0xfffff9c2
    12f4:	0e051402 	cdpeq	4, 0, cr1, cr5, cr2, {0}
    12f8:	06050106 	streq	r0, [r5], -r6, lsl #2
    12fc:	0602052e 	streq	r0, [r2], -lr, lsr #10
    1300:	0604052f 	streq	r0, [r4], -pc, lsr #10
    1304:	06030501 	streq	r0, [r3], -r1, lsl #10
    1308:	0611052f 	ldreq	r0, [r1], -pc, lsr #10
    130c:	2e090501 	cfsh32cs	mvfx0, mvfx9, #1
    1310:	30060205 	andcc	r0, r6, r5, lsl #4
    1314:	06070515 			; <UNDEFINED> instruction: 0x06070515
    1318:	2e020501 	cfsh32cs	mvfx0, mvfx2, #1
    131c:	02000b05 	andeq	r0, r0, #5120	; 0x1400
    1320:	2e060104 	adfcss	f0, f6, f4
    1324:	02000205 	andeq	r0, r0, #1342177280	; 0x50000000
    1328:	01060104 	tsteq	r6, r4, lsl #2
    132c:	02000305 	andeq	r0, r0, #335544320	; 0x14000000
    1330:	2f060304 	svccs	0x00060304
    1334:	02000c05 	andeq	r0, r0, #1280	; 0x500
    1338:	01060304 	tsteq	r6, r4, lsl #6
    133c:	02000a05 	andeq	r0, r0, #20480	; 0x5000
    1340:	052e0304 	streq	r0, [lr, #-772]!	; 0xfffffcfc
    1344:	04020017 	streq	r0, [r2], #-23	; 0xffffffe9
    1348:	002d0603 	eoreq	r0, sp, r3, lsl #12
    134c:	06030402 	streq	r0, [r3], -r2, lsl #8
    1350:	06020501 	streq	r0, [r2], -r1, lsl #10
    1354:	06090530 			; <UNDEFINED> instruction: 0x06090530
    1358:	02052e01 	andeq	r2, r5, #1, 28
    135c:	01053006 	tsteq	r5, r6
    1360:	49051306 	stmdbmi	r5, {r1, r2, r8, r9, ip}
    1364:	01063106 	tsteq	r6, r6, lsl #2
    1368:	a0060205 	andge	r0, r6, r5, lsl #4
    136c:	01060405 	tsteq	r6, r5, lsl #8
    1370:	2f060305 	svccs	0x00060305
    1374:	01060905 	tsteq	r6, r5, lsl #18
    1378:	30060205 	andcc	r0, r6, r5, lsl #4
    137c:	060b0513 			; <UNDEFINED> instruction: 0x060b0513
    1380:	06020501 	streq	r0, [r2], -r1, lsl #10
    1384:	052e0630 	streq	r0, [lr, #-1584]!	; 0xfffff9d0
    1388:	24020604 	strcs	r0, [r2], #-1540	; 0xfffff9fc
    138c:	0f051315 	svceq	0x00051315
    1390:	052e0106 	streq	r0, [lr, #-262]!	; 0xfffffefa
    1394:	05054a06 	streq	r4, [r5, #-2566]	; 0xfffff5fa
    1398:	05134b06 	ldreq	r4, [r3, #-2822]	; 0xfffff4fa
    139c:	05010609 	streq	r0, [r1, #-1545]	; 0xfffff9f7
    13a0:	052f0605 	streq	r0, [pc, #-1541]!	; da3 <__code_start__-0x725d>
    13a4:	0510060b 	ldreq	r0, [r0, #-1547]	; 0xfffff9f5
    13a8:	0402000d 	streq	r0, [r2], #-13
    13ac:	04052c01 	streq	r2, [r5], #-3073	; 0xfffff3ff
    13b0:	01040200 	mrseq	r0, R12_usr
    13b4:	05053406 	streq	r3, [r5, #-1030]	; 0xfffffbfa
    13b8:	01040200 	mrseq	r0, R12_usr
    13bc:	001b0513 	andseq	r0, fp, r3, lsl r5
    13c0:	06010402 	streq	r0, [r1], -r2, lsl #8
    13c4:	00070501 	andeq	r0, r7, r1, lsl #10
    13c8:	d6010402 	strle	r0, [r1], -r2, lsl #8
    13cc:	02001805 	andeq	r1, r0, #327680	; 0x50000
    13d0:	052e0104 	streq	r0, [lr, #-260]!	; 0xfffffefc
    13d4:	0402000a 	streq	r0, [r2], #-10
    13d8:	0b054a01 	bleq	153be4 <__bss_end__+0x149dd4>
    13dc:	01040200 	mrseq	r0, R12_usr
    13e0:	0e052f06 	cdpeq	15, 0, cr2, cr5, cr6, {0}
    13e4:	01040200 	mrseq	r0, R12_usr
    13e8:	04052e06 	streq	r2, [r5], #-3590	; 0xfffff1fa
    13ec:	01040200 	mrseq	r0, R12_usr
    13f0:	054b062e 	strbeq	r0, [fp, #-1582]	; 0xfffff9d2
    13f4:	05010606 	streq	r0, [r1, #-1542]	; 0xfffff9fa
    13f8:	052f0605 	streq	r0, [pc, #-1541]!	; dfb <__code_start__-0x7205>
    13fc:	0501060a 	streq	r0, [r1, #-1546]	; 0xfffff9f6
    1400:	052e4a07 	streq	r4, [lr, #-2567]!	; 0xfffff5f9
    1404:	2e76030d 	cdpcs	3, 7, cr0, cr6, cr13, {0}
    1408:	0d0b054a 	cfstr32eq	mvfx0, [fp, #-296]	; 0xfffffed8
    140c:	02000d05 	andeq	r0, r0, #320	; 0x140
    1410:	03060104 	movweq	r0, #24836	; 0x6104
    1414:	11052e14 	tstne	r5, r4, lsl lr
    1418:	01040200 	mrseq	r0, R12_usr
    141c:	002d0513 	eoreq	r0, sp, r3, lsl r5
    1420:	06010402 	streq	r0, [r1], -r2, lsl #8
    1424:	002a0501 	eoreq	r0, sl, r1, lsl #10
    1428:	2e010402 	cdpcs	4, 0, cr0, cr1, cr2, {0}
    142c:	02001605 	andeq	r1, r0, #5242880	; 0x500000
    1430:	054a0104 	strbeq	r0, [sl, #-260]	; 0xfffffefc
    1434:	04020014 	streq	r0, [r2], #-20	; 0xffffffec
    1438:	054b0601 	strbeq	r0, [fp, #-1537]	; 0xfffff9ff
    143c:	0402000d 	streq	r0, [r2], #-13
    1440:	00010601 	andeq	r0, r1, r1, lsl #12
    1444:	4a010402 	bmi	42454 <__bss_end__+0x38644>
    1448:	12052f06 	andne	r2, r5, #6, 30
    144c:	054a0106 	strbeq	r0, [sl, #-262]	; 0xfffffefa
    1450:	052f060d 	streq	r0, [pc, #-1549]!	; e4b <__code_start__-0x71b5>
    1454:	05010612 	streq	r0, [r1, #-1554]	; 0xfffff9ee
    1458:	054b0619 	strbeq	r0, [fp, #-1561]	; 0xfffff9e7
    145c:	04020004 	streq	r0, [r2], #-4
    1460:	01110302 	tsteq	r1, r2, lsl #6
    1464:	02040200 	andeq	r0, r4, #0, 4
    1468:	00020501 	andeq	r0, r2, r1, lsl #10
    146c:	15020402 	strne	r0, [r2, #-1026]	; 0xfffffbfe
    1470:	02000905 	andeq	r0, r0, #81920	; 0x14000
    1474:	01060204 	tsteq	r6, r4, lsl #4
    1478:	02040200 	andeq	r0, r4, #0, 4
    147c:	0001054a 	andeq	r0, r1, sl, asr #10
    1480:	9f020402 	svcls	0x00020402
    1484:	03060405 	movweq	r0, #25605	; 0x6405
    1488:	09054a6e 	stmdbeq	r5, {r1, r2, r3, r5, r6, r9, fp, lr}
    148c:	04050106 	streq	r0, [r5], #-262	; 0xfffffefa
    1490:	06052f06 	streq	r2, [r5], -r6, lsl #30
    1494:	04051106 	streq	r1, [r5], #-262	; 0xfffffefa
    1498:	030b052f 	movweq	r0, #46383	; 0xb52f
    149c:	19052e63 	stmdbne	r5, {r0, r1, r5, r6, r9, sl, fp, sp}
    14a0:	01040200 	mrseq	r0, R12_usr
    14a4:	2e240306 	cdpcs	3, 2, cr0, cr4, cr6, {0}
    14a8:	02001a05 	andeq	r1, r0, #20480	; 0x5000
    14ac:	05130104 	ldreq	r0, [r3, #-260]	; 0xfffffefc
    14b0:	04020028 	streq	r0, [r2], #-40	; 0xffffffd8
    14b4:	05010601 	streq	r0, [r1, #-1537]	; 0xfffff9ff
    14b8:	04020025 	streq	r0, [r2], #-37	; 0xffffffdb
    14bc:	1f052e01 	svcne	0x00052e01
    14c0:	01040200 	mrseq	r0, R12_usr
    14c4:	000b054a 	andeq	r0, fp, sl, asr #10
    14c8:	06010402 	streq	r0, [r1], -r2, lsl #8
    14cc:	0004054b 	andeq	r0, r4, fp, asr #10
    14d0:	06010402 	streq	r0, [r1], -r2, lsl #8
    14d4:	04020001 	streq	r0, [r2], #-1
    14d8:	02004a01 	andeq	r4, r0, #4096	; 0x1000
    14dc:	4e060104 	adfmis	f0, f6, f4
    14e0:	01040200 	mrseq	r0, R12_usr
    14e4:	04020001 	streq	r0, [r2], #-1
    14e8:	02000101 	andeq	r0, r0, #1073741824	; 0x40000000
    14ec:	00010104 	andeq	r0, r1, r4, lsl #2
    14f0:	06010402 	streq	r0, [r1], -r2, lsl #8
    14f4:	0402002e 	streq	r0, [r2], #-46	; 0xffffffd2
    14f8:	02006601 	andeq	r6, r0, #1048576	; 0x100000
    14fc:	002e0104 	eoreq	r0, lr, r4, lsl #2
    1500:	06010402 	streq	r0, [r1], -r2, lsl #8
    1504:	0348054a 	movteq	r0, #34122	; 0x854a
    1508:	20087fa6 	andcs	r7, r8, r6, lsr #31
    150c:	01130505 	tsteq	r3, r5, lsl #10
    1510:	02002e06 	andeq	r2, r0, #96	; 0x60
    1514:	2e060204 	cdpcs	2, 0, cr0, cr6, cr4, {0}
    1518:	02040200 	andeq	r0, r4, #0, 4
    151c:	04020001 	streq	r0, [r2], #-1
    1520:	11051302 	tstne	r5, r2, lsl #6
    1524:	02040200 	andeq	r0, r4, #0, 4
    1528:	05050106 	streq	r0, [r5, #-262]	; 0xfffffefa
    152c:	02040200 	andeq	r0, r4, #0, 4
    1530:	07054b06 	streq	r4, [r5, -r6, lsl #22]
    1534:	02040200 	andeq	r0, r4, #0, 4
    1538:	09050106 	stmdbeq	r5, {r1, r2, r8}
    153c:	0e054b06 	vmlaeq.f64	d4, d5, d6
    1540:	48050106 	stmdami	r5, {r1, r2, r8}
    1544:	01040200 	mrseq	r0, R12_usr
    1548:	00050562 	andeq	r0, r5, r2, ror #10
    154c:	06010402 	streq	r0, [r1], -r2, lsl #8
    1550:	0402004b 	streq	r0, [r2], #-75	; 0xffffffb5
    1554:	02000101 	andeq	r0, r0, #1073741824	; 0x40000000
    1558:	9e060104 	adflss	f0, f6, f4
    155c:	01040200 	mrseq	r0, R12_usr
    1560:	0402002e 	streq	r0, [r2], #-46	; 0xffffffd2
    1564:	052e0601 	streq	r0, [lr, #-1537]!	; 0xfffff9ff
    1568:	00e10340 	rsceq	r0, r1, r0, asr #6
    156c:	050106d6 	streq	r0, [r1, #-1750]	; 0xfffff92a
    1570:	059f0602 	ldreq	r0, [pc, #1538]	; 1b7a <__code_start__-0x6486>
    1574:	0501061e 	streq	r0, [r1, #-1566]	; 0xfffff9e2
    1578:	05052e12 	streq	r2, [r5, #-3602]	; 0xfffff1ee
    157c:	02052f06 	andeq	r2, r5, #6, 30
    1580:	06090514 			; <UNDEFINED> instruction: 0x06090514
    1584:	06050501 	streq	r0, [r5], -r1, lsl #10
    1588:	1302054b 	movwne	r0, #9547	; 0x254b
    158c:	0d060805 	stceq	8, cr0, [r6, #-20]	; 0xffffffec
    1590:	05330205 	ldreq	r0, [r3, #-517]!	; 0xfffffdfb
    1594:	054c0604 	strbeq	r0, [ip, #-1540]	; 0xfffff9fc
    1598:	0501060f 	streq	r0, [r1, #-1551]	; 0xfffff9f1
    159c:	08052e09 	stmdaeq	r5, {r0, r3, r9, sl, fp, sp}
    15a0:	02052c06 	andeq	r2, r5, #1536	; 0x600
    15a4:	0d052e06 	stceq	14, cr2, [r5, #-24]	; 0xffffffe8
    15a8:	01040200 	mrseq	r0, R12_usr
    15ac:	0603054a 	streq	r0, [r3], -sl, asr #10
    15b0:	0605054b 	streq	r0, [r5], -fp, asr #10
    15b4:	06080501 	streq	r0, [r8], -r1, lsl #10
    15b8:	060e054d 	streq	r0, [lr], -sp, asr #10
    15bc:	2e0a0501 	cfsh32cs	mvfx0, mvfx10, #1
    15c0:	2f060405 	svccs	0x00060405
    15c4:	01060905 	tsteq	r6, r5, lsl #18
    15c8:	2f060405 	svccs	0x00060405
    15cc:	01060705 	tsteq	r6, r5, lsl #14
    15d0:	0604052e 	streq	r0, [r4], -lr, lsr #10
    15d4:	06070530 			; <UNDEFINED> instruction: 0x06070530
    15d8:	06040501 	streq	r0, [r4], -r1, lsl #10
    15dc:	05141330 	ldreq	r1, [r4, #-816]	; 0xfffffcd0
    15e0:	0510060d 	ldreq	r0, [r0, #-1549]	; 0xfffff9f3
    15e4:	05300609 	ldreq	r0, [r0, #-1545]!	; 0xfffff9f7
    15e8:	05010612 	streq	r0, [r1, #-1554]	; 0xfffff9ee
    15ec:	09052e0a 	stmdbeq	r5, {r1, r3, r9, sl, fp, sp}
    15f0:	06050566 	streq	r0, [r5], -r6, ror #10
    15f4:	0612054b 	ldreq	r0, [r2], -fp, asr #10
    15f8:	2e160501 	cfmul32cs	mvfx0, mvfx6, mvfx1
    15fc:	052e0b05 	streq	r0, [lr, #-2821]!	; 0xfffff4fb
    1600:	052f0605 	streq	r0, [pc, #-1541]!	; 1003 <__code_start__-0x6ffd>
    1604:	2e010608 	cfmadd32cs	mvax0, mvfx0, mvfx1, mvfx8
    1608:	30060405 	andcc	r0, r6, r5, lsl #8
    160c:	15014a01 	strne	r4, [r1, #-2561]	; 0xfffff5ff
    1610:	01040200 	mrseq	r0, R12_usr
    1614:	000f3602 	andeq	r3, pc, r2, lsl #12
    1618:	01010402 	tsteq	r1, r2, lsl #8
    161c:	01040200 	mrseq	r0, R12_usr
    1620:	341105d6 	ldrcc	r0, [r1], #-1494	; 0xfffffa2a
    1624:	02000113 	andeq	r0, r0, #-1073741820	; 0xc0000004
    1628:	ba060204 	blt	181e40 <__bss_end__+0x178030>
    162c:	03040200 	movweq	r0, #16896	; 0x4200
    1630:	0200ba06 	andeq	fp, r0, #24576	; 0x6000
    1634:	00010304 	andeq	r0, r1, r4, lsl #6
    1638:	14030402 	strne	r0, [r3], #-1026	; 0xfffffbfe
    163c:	02001505 	andeq	r1, r0, #20971520	; 0x1400000
    1640:	01060304 	tsteq	r6, r4, lsl #6
    1644:	02001105 	andeq	r1, r0, #1073741825	; 0x40000001
    1648:	2f060304 	svccs	0x00060304
    164c:	02001a05 	andeq	r1, r0, #20480	; 0x5000
    1650:	01060304 	tsteq	r6, r4, lsl #6
    1654:	02001105 	andeq	r1, r0, #1073741825	; 0x40000001
    1658:	d7060304 	strle	r0, [r6, -r4, lsl #6]
    165c:	03040200 	movweq	r0, #16896	; 0x4200
    1660:	04020013 	streq	r0, [r2], #-19	; 0xffffffed
    1664:	02001403 	andeq	r1, r0, #50331648	; 0x3000000
    1668:	00670304 	rsbeq	r0, r7, r4, lsl #6
    166c:	68030402 	stmdavs	r3, {r1, sl}
    1670:	02001405 	andeq	r1, r0, #83886080	; 0x5000000
    1674:	01060304 	tsteq	r6, r4, lsl #6
    1678:	02001305 	andeq	r1, r0, #335544320	; 0x14000000
    167c:	05820304 	streq	r0, [r2, #772]	; 0x304
    1680:	054e0618 	strbeq	r0, [lr, #-1560]	; 0xfffff9e8
    1684:	0501061b 	streq	r0, [r1, #-1563]	; 0xfffff9e5
    1688:	0905821a 	stmdbeq	r5, {r1, r3, r4, r9, pc}
    168c:	0d054b06 	vstreq	d4, [r5, #-24]	; 0xffffffe8
    1690:	052e0106 	streq	r0, [lr, #-262]!	; 0xfffffefa
    1694:	06f30609 	ldrbteq	r0, [r3], r9, lsl #12
    1698:	061505ba 			; <UNDEFINED> instruction: 0x061505ba
    169c:	06180530 			; <UNDEFINED> instruction: 0x06180530
    16a0:	66170501 	ldrvs	r0, [r7], -r1, lsl #10
    16a4:	4b061905 	blmi	187ac0 <__bss_end__+0x17dcb0>
    16a8:	03061505 	movweq	r1, #25861	; 0x6505
    16ac:	1105666f 	tstne	r5, pc, ror #12
    16b0:	d6014806 	strle	r4, [r1], -r6, lsl #16
    16b4:	0b030905 	bleq	c3ad0 <__bss_end__+0xb9cc0>
    16b8:	060d052e 	streq	r0, [sp], -lr, lsr #10
    16bc:	09052e01 	stmdbeq	r5, {r0, r9, sl, fp, sp}
    16c0:	ba06f306 	blt	1be2e0 <__bss_end__+0x1b44d0>
    16c4:	2f061505 	svccs	0x00061505
    16c8:	66750306 	ldrbtvs	r0, [r5], -r6, lsl #6
    16cc:	03061905 	movweq	r1, #26885	; 0x6905
    16d0:	15054a13 	strne	r4, [r5, #-2579]	; 0xfffff5ed
    16d4:	666d0306 	strbtvs	r0, [sp], -r6, lsl #6
    16d8:	4a150306 	bmi	5422f8 <__bss_end__+0x5384e8>
    16dc:	2e06ba01 	vmlacs.f32	s22, s12, s2
    16e0:	1a060505 	bne	182afc <__bss_end__+0x178cec>
    16e4:	032e9e01 			; <UNDEFINED> instruction: 0x032e9e01
    16e8:	0905010e 	stmdbeq	r5, {r1, r2, r3, r8}
    16ec:	05050106 	streq	r0, [r5, #-262]	; 0xfffffefa
    16f0:	05750806 	ldrbeq	r0, [r5, #-2054]!	; 0xfffff7fa
    16f4:	01180304 	tsteq	r8, r4, lsl #6
    16f8:	01060705 	tsteq	r6, r5, lsl #14
    16fc:	31060405 	tstcc	r6, r5, lsl #8
    1700:	67030505 	strvs	r0, [r3, -r5, lsl #10]
    1704:	061c052e 	ldreq	r0, [ip], -lr, lsr #10
    1708:	82090501 	andhi	r0, r9, #4194304	; 0x400000
    170c:	f3060505 	vrshl.u8	d0, d5, d6
    1710:	061c0531 			; <UNDEFINED> instruction: 0x061c0531
    1714:	82090501 	andhi	r0, r9, #4194304	; 0x400000
    1718:	f3060505 	vrshl.u8	d0, d5, d6
    171c:	061b0530 			; <UNDEFINED> instruction: 0x061b0530
    1720:	82090501 	andhi	r0, r9, #4194304	; 0x400000
    1724:	f3060505 	vrshl.u8	d0, d5, d6
    1728:	06070530 			; <UNDEFINED> instruction: 0x06070530
    172c:	06050501 	streq	r0, [r5], -r1, lsl #10
    1730:	09053083 	stmdbeq	r5, {r0, r1, r7, ip, sp}
    1734:	05050106 	streq	r0, [r5, #-262]	; 0xfffffefa
    1738:	05750806 	ldrbeq	r0, [r5, #-2054]!	; 0xfffff7fa
    173c:	22053011 	andcs	r3, r5, #17, 0
    1740:	05050106 	streq	r0, [r5, #-262]	; 0xfffffefa
    1744:	11054b06 	tstne	r5, r6, lsl #22
    1748:	83050583 	movwhi	r0, #21891	; 0x5583
    174c:	05359e01 	ldreq	r9, [r5, #-3585]!	; 0xfffff1ff
    1750:	0501060e 	streq	r0, [r1, #-1550]	; 0xfffff9f2
    1754:	2d062e0a 	stccs	14, cr2, [r6, #-40]	; 0xffffffd8
    1758:	01060405 	tsteq	r6, r5, lsl #8
    175c:	02001305 	andeq	r1, r0, #335544320	; 0x14000000
    1760:	054a0104 	strbeq	r0, [sl, #-260]	; 0xfffffefc
    1764:	04020010 	streq	r0, [r2], #-16
    1768:	02002e01 	andeq	r2, r0, #1, 28
    176c:	05660104 	strbeq	r0, [r6, #-260]!	; 0xfffffefc
    1770:	05160602 	ldreq	r0, [r6, #-1538]	; 0xfffff9fe
    1774:	05010607 	streq	r0, [r1, #-1543]	; 0xfffff9f9
    1778:	054b0602 	strbeq	r0, [fp, #-1538]	; 0xfffff9fe
    177c:	66130601 	ldrvs	r0, [r3], -r1, lsl #12
    1780:	01001e02 	tsteq	r0, r2, lsl #28
    1784:	0000a401 	andeq	sl, r0, r1, lsl #8
    1788:	89000300 	stmdbhi	r0, {r8, r9}
    178c:	02000000 	andeq	r0, r0, #0, 0
    1790:	0d0efb01 	vstreq	d15, [lr, #-4]
    1794:	01010100 	mrseq	r0, (UNDEF: 17)
    1798:	00000001 	andeq	r0, r0, r1
    179c:	01000001 	tsteq	r0, r1
    17a0:	74732f2e 	ldrbtvc	r2, [r3], #-3886	; 0xfffff0d2
    17a4:	2d666661 	stclcs	6, cr6, [r6, #-388]!	; 0xfffffe7c
    17a8:	00637273 	rsbeq	r7, r3, r3, ror r2
    17ac:	6573552f 	ldrbvs	r5, [r3, #-1327]!	; 0xfffffad1
    17b0:	652f7372 	strvs	r7, [pc, #-882]!	; 1446 <__code_start__-0x6bba>
    17b4:	62636972 	rsbvs	r6, r3, #1867776	; 0x1c8000
    17b8:	2f726165 	svccs	0x00726165
    17bc:	75636f44 	strbvc	r6, [r3, #-3908]!	; 0xfffff0bc
    17c0:	746e656d 	strbtvc	r6, [lr], #-1389	; 0xfffffa93
    17c4:	53432f73 	movtpl	r2, #16243	; 0x3f73
    17c8:	45303431 	ldrmi	r3, [r0, #-1073]!	; 0xfffffbcf
    17cc:	3173632f 	cmncc	r3, pc, lsr #6
    17d0:	2d453034 	stclcs	0, cr3, [r5, #-208]	; 0xffffff30
    17d4:	616e6966 	cmnvs	lr, r6, ror #18
    17d8:	72702d6c 	rsbsvc	r2, r0, #108, 26	; 0x1b00
    17dc:	63656a6f 	cmnvs	r5, #454656	; 0x6f000
    17e0:	696c2f74 	stmdbvs	ip!, {r2, r4, r5, r6, r8, r9, sl, fp, sp}^
    17e4:	322d7362 	eorcc	r7, sp, #-2013265919	; 0x88000001
    17e8:	786c3034 	stmdavc	ip!, {r2, r4, r5, ip, sp}^
    17ec:	62696c2f 	rsbvs	r6, r9, #12032	; 0x2f00
    17f0:	692f6970 	stmdbvs	pc!, {r4, r5, r6, r8, fp, sp, lr}	; <UNPREDICTABLE>
    17f4:	756c636e 	strbvc	r6, [ip, #-878]!	; 0xfffffc92
    17f8:	00006564 	andeq	r6, r0, r4, ror #10
    17fc:	61656c63 	cmnvs	r5, r3, ror #24
    1800:	65722d6e 	ldrbvs	r2, [r2, #-3438]!	; 0xfffff292
    1804:	746f6f62 	strbtvc	r6, [pc], #-3938	; 180c <__code_start__-0x67f4>
    1808:	0100632e 	tsteq	r0, lr, lsr #6
    180c:	70720000 	rsbsvc	r0, r2, r0
    1810:	00682e69 	rsbeq	r2, r8, r9, ror #28
    1814:	00000002 	andeq	r0, r0, r2
    1818:	05001905 	streq	r1, [r0, #-2309]	; 0xfffff6fb
    181c:	008b5402 	addeq	r5, fp, r2, lsl #8
    1820:	05051500 	streq	r1, [r5, #-1280]	; 0xfffffb00
    1824:	4b2f832f 	blmi	be24e8 <__bss_end__+0xbd86d8>
    1828:	01000602 	tsteq	r0, r2, lsl #12
    182c:	0000be01 	andeq	fp, r0, r1, lsl #28
    1830:	83000300 	movwhi	r0, #768	; 0x300
    1834:	02000000 	andeq	r0, r0, #0, 0
    1838:	0d0efb01 	vstreq	d15, [lr, #-4]
    183c:	01010100 	mrseq	r0, (UNDEF: 17)
    1840:	00000001 	andeq	r0, r0, r1
    1844:	01000001 	tsteq	r0, r1
    1848:	74732f2e 	ldrbtvc	r2, [r3], #-3886	; 0xfffff0d2
    184c:	2d666661 	stclcs	6, cr6, [r6, #-388]!	; 0xfffffe7c
    1850:	00637273 	rsbeq	r7, r3, r3, ror r2
    1854:	6573552f 	ldrbvs	r5, [r3, #-1327]!	; 0xfffffad1
    1858:	652f7372 	strvs	r7, [pc, #-882]!	; 14ee <__code_start__-0x6b12>
    185c:	62636972 	rsbvs	r6, r3, #1867776	; 0x1c8000
    1860:	2f726165 	svccs	0x00726165
    1864:	75636f44 	strbvc	r6, [r3, #-3908]!	; 0xfffff0bc
    1868:	746e656d 	strbtvc	r6, [lr], #-1389	; 0xfffffa93
    186c:	53432f73 	movtpl	r2, #16243	; 0x3f73
    1870:	45303431 	ldrmi	r3, [r0, #-1073]!	; 0xfffffbcf
    1874:	3173632f 	cmncc	r3, pc, lsr #6
    1878:	2d453034 	stclcs	0, cr3, [r5, #-208]	; 0xffffff30
    187c:	616e6966 	cmnvs	lr, r6, ror #18
    1880:	72702d6c 	rsbsvc	r2, r0, #108, 26	; 0x1b00
    1884:	63656a6f 	cmnvs	r5, #454656	; 0x6f000
    1888:	696c2f74 	stmdbvs	ip!, {r2, r4, r5, r6, r8, r9, sl, fp, sp}^
    188c:	322d7362 	eorcc	r7, sp, #-2013265919	; 0x88000001
    1890:	786c3034 	stmdavc	ip!, {r2, r4, r5, ip, sp}^
    1894:	62696c2f 	rsbvs	r6, r9, #12032	; 0x2f00
    1898:	692f6970 	stmdbvs	pc!, {r4, r5, r6, r8, fp, sp, lr}	; <UNPREDICTABLE>
    189c:	756c636e 	strbvc	r6, [ip, #-878]!	; 0xfffffc92
    18a0:	00006564 	andeq	r6, r0, r4, ror #10
    18a4:	61747363 	cmnvs	r4, r3, ror #6
    18a8:	632e7472 			; <UNDEFINED> instruction: 0x632e7472
    18ac:	00000100 	andeq	r0, r0, r0, lsl #2
    18b0:	2e697072 	mcrcs	0, 3, r7, cr9, cr2, {3}
    18b4:	00020068 	andeq	r0, r2, r8, rrx
    18b8:	10050000 	andne	r0, r5, r0
    18bc:	80020500 	andhi	r0, r2, r0, lsl #10
    18c0:	1500008b 	strne	r0, [r0, #-139]	; 0xffffff75
    18c4:	052f0505 	streq	r0, [pc, #-1285]!	; 13c7 <__code_start__-0x6c39>
    18c8:	05051302 	streq	r1, [r5, #-770]	; 0xfffffcfe
    18cc:	14133014 	ldrne	r3, [r3], #-20	; 0xffffffec
    18d0:	0f060a05 	svceq	0x00060a05
    18d4:	09053106 	stmdbeq	r5, {r1, r2, r8, ip, sp}
    18d8:	0610054b 	ldreq	r0, [r0], -fp, asr #10
    18dc:	05054a01 	streq	r4, [r5, #-2561]	; 0xfffff5ff
    18e0:	01323006 	teqeq	r2, r6
    18e4:	05144a01 	ldreq	r4, [r4, #-2561]	; 0xfffff5ff
    18e8:	06022f02 	streq	r2, [r2], -r2, lsl #30
    18ec:	a2010100 	andge	r0, r1, #0
    18f0:	03000000 	movweq	r0, #0
    18f4:	00008a00 	andeq	r8, r0, r0, lsl #20
    18f8:	fb010200 	blx	42102 <__bss_end__+0x382f2>
    18fc:	01000d0e 	tsteq	r0, lr, lsl #26
    1900:	00010101 	andeq	r0, r1, r1, lsl #2
    1904:	00010000 	andeq	r0, r1, r0
    1908:	2f2e0100 	svccs	0x002e0100
    190c:	66617473 			; <UNDEFINED> instruction: 0x66617473
    1910:	72732d66 	rsbsvc	r2, r3, #6528	; 0x1980
    1914:	552f0063 	strpl	r0, [pc, #-99]!	; 18b9 <__code_start__-0x6747>
    1918:	73726573 	cmnvc	r2, #482344960	; 0x1cc00000
    191c:	6972652f 	ldmdbvs	r2!, {r0, r1, r2, r3, r5, r8, sl, sp, lr}^
    1920:	61656263 	cmnvs	r5, r3, ror #4
    1924:	6f442f72 	svcvs	0x00442f72
    1928:	656d7563 	strbvs	r7, [sp, #-1379]!	; 0xfffffa9d
    192c:	2f73746e 	svccs	0x0073746e
    1930:	34315343 	ldrtcc	r5, [r1], #-835	; 0xfffffcbd
    1934:	632f4530 			; <UNDEFINED> instruction: 0x632f4530
    1938:	30343173 	eorscc	r3, r4, r3, ror r1
    193c:	69662d45 	stmdbvs	r6!, {r0, r2, r6, r8, sl, fp, sp}^
    1940:	2d6c616e 	stfcse	f6, [ip, #-440]!	; 0xfffffe48
    1944:	6a6f7270 	bvs	1bde30c <__bss_end__+0x1bd44fc>
    1948:	2f746365 	svccs	0x00746365
    194c:	7362696c 	cmnvc	r2, #108, 18	; 0x1b0000
    1950:	3034322d 	eorscc	r3, r4, sp, lsr #4
    1954:	6c2f786c 	stcvs	8, cr7, [pc], #-432	; 17ac <__code_start__-0x6854>
    1958:	69706269 	ldmdbvs	r0!, {r0, r3, r5, r6, r9, sp, lr}^
    195c:	636e692f 	cmnvs	lr, #770048	; 0xbc000
    1960:	6564756c 	strbvs	r7, [r4, #-1388]!	; 0xfffffa94
    1964:	75630000 	strbvc	r0, [r3, #-0]!
    1968:	6d6f7473 	cfstrdvs	mvd7, [pc, #-460]!	; 17a4 <__code_start__-0x685c>
    196c:	616f6c2d 	cmnvs	pc, sp, lsr #24
    1970:	2e726564 	cdpcs	5, 7, cr6, cr2, cr4, {3}
    1974:	00010063 	andeq	r0, r1, r3, rrx
    1978:	69707200 	ldmdbvs	r0!, {r9, ip, sp, lr}^
    197c:	0200682e 	andeq	r6, r0, #3014656	; 0x2e0000
    1980:	05000000 	streq	r0, [r0, #-0]
    1984:	0205001a 	andeq	r0, r5, #26, 0
    1988:	00008bbc 			; <UNDEFINED> instruction: 0x00008bbc
    198c:	14010515 	strne	r0, [r1], #-1301	; 0xfffffaeb
    1990:	01000202 	tsteq	r0, r2, lsl #4
    1994:	0000f201 	andeq	pc, r0, r1, lsl #4
    1998:	83000300 	movwhi	r0, #768	; 0x300
    199c:	02000000 	andeq	r0, r0, #0, 0
    19a0:	0d0efb01 	vstreq	d15, [lr, #-4]
    19a4:	01010100 	mrseq	r0, (UNDEF: 17)
    19a8:	00000001 	andeq	r0, r0, r1
    19ac:	01000001 	tsteq	r0, r1
    19b0:	74732f2e 	ldrbtvc	r2, [r3], #-3886	; 0xfffff0d2
    19b4:	2d666661 	stclcs	6, cr6, [r6, #-388]!	; 0xfffffe7c
    19b8:	00637273 	rsbeq	r7, r3, r3, ror r2
    19bc:	6573552f 	ldrbvs	r5, [r3, #-1327]!	; 0xfffffad1
    19c0:	652f7372 	strvs	r7, [pc, #-882]!	; 1656 <__code_start__-0x69aa>
    19c4:	62636972 	rsbvs	r6, r3, #1867776	; 0x1c8000
    19c8:	2f726165 	svccs	0x00726165
    19cc:	75636f44 	strbvc	r6, [r3, #-3908]!	; 0xfffff0bc
    19d0:	746e656d 	strbtvc	r6, [lr], #-1389	; 0xfffffa93
    19d4:	53432f73 	movtpl	r2, #16243	; 0x3f73
    19d8:	45303431 	ldrmi	r3, [r0, #-1073]!	; 0xfffffbcf
    19dc:	3173632f 	cmncc	r3, pc, lsr #6
    19e0:	2d453034 	stclcs	0, cr3, [r5, #-208]	; 0xffffff30
    19e4:	616e6966 	cmnvs	lr, r6, ror #18
    19e8:	72702d6c 	rsbsvc	r2, r0, #108, 26	; 0x1b00
    19ec:	63656a6f 	cmnvs	r5, #454656	; 0x6f000
    19f0:	696c2f74 	stmdbvs	ip!, {r2, r4, r5, r6, r8, r9, sl, fp, sp}^
    19f4:	322d7362 	eorcc	r7, sp, #-2013265919	; 0x88000001
    19f8:	786c3034 	stmdavc	ip!, {r2, r4, r5, ip, sp}^
    19fc:	62696c2f 	rsbvs	r6, r9, #12032	; 0x2f00
    1a00:	692f6970 	stmdbvs	pc!, {r4, r5, r6, r8, fp, sp, lr}	; <UNPREDICTABLE>
    1a04:	756c636e 	strbvc	r6, [ip, #-878]!	; 0xfffffc92
    1a08:	00006564 	andeq	r6, r0, r4, ror #10
    1a0c:	6f626572 	svcvs	0x00626572
    1a10:	632e746f 			; <UNDEFINED> instruction: 0x632e746f
    1a14:	00000100 	andeq	r0, r0, r0, lsl #2
    1a18:	2e697072 	mcrcs	0, 3, r7, cr9, cr2, {3}
    1a1c:	00020068 	andeq	r0, r2, r8, rrx
    1a20:	19050000 	stmdbne	r5, {}	; <UNPREDICTABLE>
    1a24:	d8020500 	stmdale	r2, {r8, sl}
    1a28:	0300008b 	movweq	r0, #139	; 0x8b
    1a2c:	0505010d 	streq	r0, [r5, #-269]	; 0xfffffef3
    1a30:	05311313 	ldreq	r1, [r1, #-787]!	; 0xfffffced
    1a34:	05010613 	streq	r0, [r1, #-1555]	; 0xfffff9ed
    1a38:	1b052f01 	blne	14d644 <__bss_end__+0x143834>
    1a3c:	05058506 	streq	r8, [r5, #-1286]	; 0xfffffafa
    1a40:	09051413 	stmdbeq	r5, {r0, r1, r4, sl, ip}
    1a44:	0616052f 	ldreq	r0, [r6], -pc, lsr #10
    1a48:	2e0e0501 	cfsh32cs	mvfx0, mvfx14, #1
    1a4c:	2f060505 	svccs	0x00060505
    1a50:	2f060105 	svccs	0x00060105
    1a54:	30061705 	andcc	r1, r6, r5, lsl #14
    1a58:	052f0505 	streq	r0, [pc, #-1285]!	; 155b <__code_start__-0x6aa5>
    1a5c:	05010608 	streq	r0, [r1, #-1544]	; 0xfffff9f8
    1a60:	05052e07 	streq	r2, [r5, #-3591]	; 0xfffff1f9
    1a64:	2f305006 	svccs	0x00305006
    1a68:	1313134d 	tstne	r3, #872415233	; 0x34000001
    1a6c:	02006715 	andeq	r6, r0, #5505024	; 0x540000
    1a70:	05670104 	strbeq	r0, [r7, #-260]!	; 0xfffffefc
    1a74:	0402000d 	streq	r0, [r2], #-13
    1a78:	0a050101 	beq	141e84 <__bss_end__+0x138074>
    1a7c:	01040200 	mrseq	r0, R12_usr
    1a80:	03090501 	movweq	r0, #38145	; 0x9501
    1a84:	0c022e6d 	stceq	14, cr2, [r2], {109}	; 0x6d
    1a88:	f9010100 			; <UNDEFINED> instruction: 0xf9010100
    1a8c:	03000000 	movweq	r0, #0
    1a90:	00008200 	andeq	r8, r0, r0, lsl #4
    1a94:	fb010200 	blx	4229e <__bss_end__+0x3848e>
    1a98:	01000d0e 	tsteq	r0, lr, lsl #26
    1a9c:	00010101 	andeq	r0, r1, r1, lsl #2
    1aa0:	00010000 	andeq	r0, r1, r0
    1aa4:	2f2e0100 	svccs	0x002e0100
    1aa8:	66617473 			; <UNDEFINED> instruction: 0x66617473
    1aac:	72732d66 	rsbsvc	r2, r3, #6528	; 0x1980
    1ab0:	552f0063 	strpl	r0, [pc, #-99]!	; 1a55 <__code_start__-0x65ab>
    1ab4:	73726573 	cmnvc	r2, #482344960	; 0x1cc00000
    1ab8:	6972652f 	ldmdbvs	r2!, {r0, r1, r2, r3, r5, r8, sl, sp, lr}^
    1abc:	61656263 	cmnvs	r5, r3, ror #4
    1ac0:	6f442f72 	svcvs	0x00442f72
    1ac4:	656d7563 	strbvs	r7, [sp, #-1379]!	; 0xfffffa9d
    1ac8:	2f73746e 	svccs	0x0073746e
    1acc:	34315343 	ldrtcc	r5, [r1], #-835	; 0xfffffcbd
    1ad0:	632f4530 			; <UNDEFINED> instruction: 0x632f4530
    1ad4:	30343173 	eorscc	r3, r4, r3, ror r1
    1ad8:	69662d45 	stmdbvs	r6!, {r0, r2, r6, r8, sl, fp, sp}^
    1adc:	2d6c616e 	stfcse	f6, [ip, #-440]!	; 0xfffffe48
    1ae0:	6a6f7270 	bvs	1bde4a8 <__bss_end__+0x1bd4698>
    1ae4:	2f746365 	svccs	0x00746365
    1ae8:	7362696c 	cmnvc	r2, #108, 18	; 0x1b0000
    1aec:	3034322d 	eorscc	r3, r4, sp, lsr #4
    1af0:	6c2f786c 	stcvs	8, cr7, [pc], #-432	; 1948 <__code_start__-0x66b8>
    1af4:	69706269 	ldmdbvs	r0!, {r0, r3, r5, r6, r9, sp, lr}^
    1af8:	636e692f 	cmnvs	lr, #770048	; 0xbc000
    1afc:	6564756c 	strbvs	r7, [r4, #-1388]!	; 0xfffffa94
    1b00:	69740000 	ldmdbvs	r4!, {}^	; <UNPREDICTABLE>
    1b04:	2e72656d 	cdpcs	5, 7, cr6, cr2, cr13, {3}
    1b08:	00010063 	andeq	r0, r1, r3, rrx
    1b0c:	69707200 	ldmdbvs	r0!, {r9, ip, sp, lr}^
    1b10:	0200682e 	andeq	r6, r0, #3014656	; 0x2e0000
    1b14:	05000000 	streq	r0, [r0, #-0]
    1b18:	02050023 	andeq	r0, r5, #35, 0	; 0x23
    1b1c:	00008c58 	andeq	r8, r0, r8, asr ip
    1b20:	2f050515 	svccs	0x00050515
    1b24:	01060c05 	tsteq	r6, r5, lsl #24
    1b28:	054b0105 	strbeq	r0, [fp, #-261]	; 0xfffffefb
    1b2c:	054d061f 	strbeq	r0, [sp, #-1567]	; 0xfffff9e1
    1b30:	052f3105 	streq	r3, [pc, #-261]!	; 1a33 <__code_start__-0x65cd>
    1b34:	05010612 	streq	r0, [r1, #-1554]	; 0xfffff9ee
    1b38:	2f4b0605 	svccs	0x004b0605
    1b3c:	13060105 	movwne	r0, #24837	; 0x6105
    1b40:	4c061c05 	stcmi	12, cr1, [r6], {5}
    1b44:	05050106 	streq	r0, [r5, #-262]	; 0xfffffefa
    1b48:	13054b06 	movwne	r4, #23302	; 0x5b06
    1b4c:	052e0106 	streq	r0, [lr, #-262]!	; 0xfffffefa
    1b50:	052f0605 	streq	r0, [pc, #-1541]!	; 1553 <__code_start__-0x6aad>
    1b54:	17051309 	strne	r1, [r5, -r9, lsl #6]
    1b58:	09050106 	stmdbeq	r5, {r1, r2, r8}
    1b5c:	11052f06 	tstne	r5, r6, lsl #30
    1b60:	0c050106 	stfeqs	f0, [r5], {6}
    1b64:	061c052e 	ldreq	r0, [ip], -lr, lsr #10
    1b68:	0501066b 	streq	r0, [r1, #-1643]	; 0xfffff995
    1b6c:	062f0605 	strteq	r0, [pc], -r5, lsl #12
    1b70:	4b01054a 	blmi	430a0 <__bss_end__+0x39290>
    1b74:	2f061e05 	svccs	0x00061e05
    1b78:	05050106 	streq	r0, [r5, #-262]	; 0xfffffefa
    1b7c:	4a062f06 	bmi	18d79c <__bss_end__+0x18398c>
    1b80:	024b0105 	subeq	r0, fp, #1073741825	; 0x40000001
    1b84:	01010002 	tsteq	r1, r2
    1b88:	000001bb 			; <UNDEFINED> instruction: 0x000001bb
    1b8c:	00bf0003 	adcseq	r0, pc, r3
    1b90:	01020000 	mrseq	r0, (UNDEF: 2)
    1b94:	000d0efb 	strdeq	r0, [sp], -fp
    1b98:	01010101 	tsteq	r1, r1, lsl #2
    1b9c:	01000000 	mrseq	r0, (UNDEF: 0)
    1ba0:	2f010000 	svccs	0x00010000
    1ba4:	656d6f68 	strbvs	r6, [sp, #-3944]!	; 0xfffff098
    1ba8:	676e652f 	strbvs	r6, [lr, -pc, lsr #10]!
    1bac:	2f72656c 	svccs	0x0072656c
    1bb0:	73616c63 	cmnvc	r1, #25344	; 0x6300
    1bb4:	73632f73 	cmnvc	r3, #460	; 0x1cc
    1bb8:	6c303432 	cfldrsvs	mvf3, [r0], #-200	; 0xffffff38
    1bbc:	32322d78 	eorscc	r2, r2, #120, 26	; 0x1e00
    1bc0:	2f727073 	svccs	0x00727073
    1bc4:	62696c2f 	rsbvs	r6, r9, #12032	; 0x2f00
    1bc8:	692f6970 	stmdbvs	pc!, {r4, r5, r6, r8, fp, sp, lr}	; <UNPREDICTABLE>
    1bcc:	756c636e 	strbvc	r6, [ip, #-878]!	; 0xfffffc92
    1bd0:	2f006564 	svccs	0x00006564
    1bd4:	2f727375 	svccs	0x00727375
    1bd8:	72616873 	rsbvc	r6, r1, #7536640	; 0x730000
    1bdc:	63672f65 	cmnvs	r7, #404	; 0x194
    1be0:	72612d63 	rsbvc	r2, r1, #6336	; 0x18c0
    1be4:	6f6e2d6d 	svcvs	0x006e2d6d
    1be8:	652d656e 	strvs	r6, [sp, #-1390]!	; 0xfffffa92
    1bec:	2d696261 	sfmcs	f6, 2, [r9, #-388]!	; 0xfffffe7c
    1bf0:	332e3031 			; <UNDEFINED> instruction: 0x332e3031
    1bf4:	3230322d 	eorscc	r3, r0, #-805306366	; 0xd0000002
    1bf8:	30312e31 	eorscc	r2, r1, r1, lsr lr
    1bfc:	62696c2f 	rsbvs	r6, r9, #12032	; 0x2f00
    1c00:	6363672f 	cmnvs	r3, #12320768	; 0xbc0000
    1c04:	6d72612f 	ldfvse	f6, [r2, #-188]!	; 0xffffff44
    1c08:	6e6f6e2d 	cdpvs	14, 6, cr6, cr15, cr13, {1}
    1c0c:	61652d65 	cmnvs	r5, r5, ror #26
    1c10:	312f6962 			; <UNDEFINED> instruction: 0x312f6962
    1c14:	2e332e30 	mrccs	14, 1, r2, cr3, cr0, {1}
    1c18:	6e692f31 	mcrvs	15, 3, r2, cr9, cr1, {1}
    1c1c:	64756c63 	ldrbtvs	r6, [r5], #-3171	; 0xfffff39d
    1c20:	67000065 	strvs	r0, [r0, -r5, rrx]
    1c24:	2e6f6970 			; <UNDEFINED> instruction: 0x2e6f6970
    1c28:	00000063 	andeq	r0, r0, r3, rrx
    1c2c:	69707200 	ldmdbvs	r0!, {r9, ip, sp, lr}^
    1c30:	0100682e 	tsteq	r0, lr, lsr #16
    1c34:	74730000 	ldrbtvc	r0, [r3], #-0
    1c38:	746e6964 	strbtvc	r6, [lr], #-2404	; 0xfffff69c
    1c3c:	6363672d 	cmnvs	r3, #11796480	; 0xb40000
    1c40:	0200682e 	andeq	r6, r0, #3014656	; 0x2e0000
    1c44:	70670000 	rsbvc	r0, r7, r0
    1c48:	682e6f69 	stmdavs	lr!, {r0, r3, r5, r6, r8, r9, sl, fp, sp, lr}
    1c4c:	00000100 	andeq	r0, r0, r0, lsl #2
    1c50:	00380500 	eorseq	r0, r8, r0, lsl #10
    1c54:	8cdc0205 	lfmhi	f0, 2, [ip], {5}
    1c58:	27030000 	strcs	r0, [r3, -r0]
    1c5c:	13050501 	movwne	r0, #21761	; 0x5501
    1c60:	01060705 	tsteq	r6, r5, lsl #14
    1c64:	05493805 	strbeq	r3, [r9, #-2053]	; 0xfffff7fb
    1c68:	054d0605 	strbeq	r0, [sp, #-1541]	; 0xfffff9fb
    1c6c:	05010607 	streq	r0, [r1, #-1543]	; 0xfffff9f9
    1c70:	054c0605 	strbeq	r0, [ip, #-1541]	; 0xfffff9fb
    1c74:	05010618 	streq	r0, [r1, #-1560]	; 0xfffff9e8
    1c78:	0505ba0e 	streq	fp, [r5, #-2574]	; 0xfffff5f2
    1c7c:	1c052f06 	stcne	15, cr2, [r5], {6}
    1c80:	052e0106 	streq	r0, [lr, #-262]!	; 0xfffffefa
    1c84:	05052e0e 	streq	r2, [r5, #-3598]	; 0xfffff1f2
    1c88:	12053006 	andne	r3, r5, #6, 0
    1c8c:	05050106 	streq	r0, [r5, #-262]	; 0xfffffefa
    1c90:	07054b06 	streq	r4, [r5, -r6, lsl #22]
    1c94:	05050106 	streq	r0, [r5, #-262]	; 0xfffffefa
    1c98:	06134b06 	ldreq	r4, [r3], -r6, lsl #22
    1c9c:	4b01052e 	blmi	4315c <__bss_end__+0x3934c>
    1ca0:	4c062405 	cfstrsmi	mvf2, [r6], {5}
    1ca4:	05050106 	streq	r0, [r5, #-262]	; 0xfffffefa
    1ca8:	01052f06 	tsteq	r5, r6, lsl #30
    1cac:	20054b06 	andcs	r4, r5, r6, lsl #22
    1cb0:	05053106 	streq	r3, [r5, #-262]	; 0xfffffefa
    1cb4:	06070513 			; <UNDEFINED> instruction: 0x06070513
    1cb8:	49200501 	stmdbmi	r0!, {r0, r8, sl}
    1cbc:	31060505 	tstcc	r6, r5, lsl #10
    1cc0:	01056606 	tsteq	r5, r6, lsl #12
    1cc4:	0621052f 	strteq	r0, [r1], -pc, lsr #10
    1cc8:	1305054d 	movwne	r0, #21837	; 0x554d
    1ccc:	01060705 	tsteq	r6, r5, lsl #14
    1cd0:	05492105 	strbeq	r2, [r9, #-261]	; 0xfffffefb
    1cd4:	06310605 	ldrteq	r0, [r1], -r5, lsl #12
    1cd8:	2f010566 	svccs	0x00010566
    1cdc:	4d062305 	stcmi	3, cr2, [r6, #-20]	; 0xffffffec
    1ce0:	05050106 	streq	r0, [r5, #-262]	; 0xfffffefa
    1ce4:	01052f06 	tsteq	r5, r6, lsl #30
    1ce8:	2b054b06 	blcs	154908 <__bss_end__+0x14aaf8>
    1cec:	01063106 	tsteq	r6, r6, lsl #2
    1cf0:	2f060505 	svccs	0x00060505
    1cf4:	01060705 	tsteq	r6, r5, lsl #14
    1cf8:	4b060905 	blmi	184114 <__bss_end__+0x17a304>
    1cfc:	30062e06 	andcc	r2, r6, r6, lsl #28
    1d00:	2f060105 	svccs	0x00060105
    1d04:	30061d05 	andcc	r1, r6, r5, lsl #26
    1d08:	05130505 	ldreq	r0, [r3, #-1285]	; 0xfffffafb
    1d0c:	05010607 	streq	r0, [r1, #-1543]	; 0xfffff9f9
    1d10:	0505491d 	streq	r4, [r5, #-2333]	; 0xfffff6e3
    1d14:	05133106 	ldreq	r3, [r3, #-262]	; 0xfffffefa
    1d18:	0501060e 	streq	r0, [r1, #-1550]	; 0xfffff9f2
    1d1c:	052f0605 	streq	r0, [pc, #-1541]!	; 171f <__code_start__-0x68e1>
    1d20:	4a010617 	bmi	43584 <__bss_end__+0x39774>
    1d24:	042e2305 	strteq	r2, [lr], #-773	; 0xfffffcfb
    1d28:	06300502 	ldrteq	r0, [r0], -r2, lsl #10
    1d2c:	2e00dc03 	cdpcs	12, 0, cr13, cr0, cr3, {0}
    1d30:	0c050104 	stfeqs	f0, [r5], {4}
    1d34:	7fa40306 	svcvc	0x00a40306
    1d38:	2f010501 	svccs	0x00010501
    1d3c:	052a1005 	streq	r1, [sl, #-5]!
    1d40:	04023201 	streq	r3, [r2], #-513	; 0xfffffdff
    1d44:	05010100 	streq	r0, [r1, #-256]	; 0xffffff00
    1d48:	03000002 	movweq	r0, #2
    1d4c:	0000c900 	andeq	ip, r0, r0, lsl #18
    1d50:	fb010200 	blx	4255a <__bss_end__+0x3874a>
    1d54:	01000d0e 	tsteq	r0, lr, lsl #26
    1d58:	00010101 	andeq	r0, r1, r1, lsl #2
    1d5c:	00010000 	andeq	r0, r1, r0
    1d60:	682f0100 	stmdavs	pc!, {r8}	; <UNPREDICTABLE>
    1d64:	2f656d6f 	svccs	0x00656d6f
    1d68:	6c676e65 	stclvs	14, cr6, [r7], #-404	; 0xfffffe6c
    1d6c:	632f7265 			; <UNDEFINED> instruction: 0x632f7265
    1d70:	7373616c 	cmnvc	r3, #27
    1d74:	3273632f 	rsbscc	r6, r3, #-1140850688	; 0xbc000000
    1d78:	786c3034 	stmdavc	ip!, {r2, r4, r5, ip, sp}^
    1d7c:	7332322d 	teqvc	r2, #-805306366	; 0xd0000002
    1d80:	2f2f7270 	svccs	0x002f7270
    1d84:	7062696c 	rsbvc	r6, r2, ip, ror #18
    1d88:	6e692f69 	cdpvs	15, 6, cr2, cr9, cr9, {3}
    1d8c:	64756c63 	ldrbtvs	r6, [r5], #-3171	; 0xfffff39d
    1d90:	752f0065 	strvc	r0, [pc, #-101]!	; 1d33 <__code_start__-0x62cd>
    1d94:	732f7273 			; <UNDEFINED> instruction: 0x732f7273
    1d98:	65726168 	ldrbvs	r6, [r2, #-360]!	; 0xfffffe98
    1d9c:	6363672f 	cmnvs	r3, #12320768	; 0xbc0000
    1da0:	6d72612d 	ldfvse	f6, [r2, #-180]!	; 0xffffff4c
    1da4:	6e6f6e2d 	cdpvs	14, 6, cr6, cr15, cr13, {1}
    1da8:	61652d65 	cmnvs	r5, r5, ror #26
    1dac:	312d6962 			; <UNDEFINED> instruction: 0x312d6962
    1db0:	2d332e30 	ldccs	14, cr2, [r3, #-192]!	; 0xffffff40
    1db4:	31323032 	teqcc	r2, r2, lsr r0
    1db8:	2f30312e 	svccs	0x0030312e
    1dbc:	2f62696c 	svccs	0x0062696c
    1dc0:	2f636367 	svccs	0x00636367
    1dc4:	2d6d7261 	sfmcs	f7, 2, [sp, #-388]!	; 0xfffffe7c
    1dc8:	656e6f6e 	strbvs	r6, [lr, #-3950]!	; 0xfffff092
    1dcc:	6261652d 	rsbvs	r6, r1, #188743680	; 0xb400000
    1dd0:	30312f69 	eorscc	r2, r1, r9, ror #30
    1dd4:	312e332e 			; <UNDEFINED> instruction: 0x312e332e
    1dd8:	636e692f 	cmnvs	lr, #770048	; 0xbc000
    1ddc:	6564756c 	strbvs	r7, [r4, #-1388]!	; 0xfffffa94
    1de0:	61750000 	cmnvs	r5, r0
    1de4:	632e7472 			; <UNDEFINED> instruction: 0x632e7472
    1de8:	00000000 	andeq	r0, r0, r0
    1dec:	74726175 	ldrbtvc	r6, [r2], #-373	; 0xfffffe8b
    1df0:	0100682e 	tsteq	r0, lr, lsr #16
    1df4:	70720000 	rsbsvc	r0, r2, r0
    1df8:	00682e69 	rsbeq	r2, r8, r9, ror #28
    1dfc:	67000001 	strvs	r0, [r0, -r1]
    1e00:	2e6f6970 			; <UNDEFINED> instruction: 0x2e6f6970
    1e04:	00010068 	andeq	r0, r1, r8, rrx
    1e08:	64747300 	ldrbtvs	r7, [r4], #-768	; 0xfffffd00
    1e0c:	2d746e69 	ldclcs	14, cr6, [r4, #-420]!	; 0xfffffe5c
    1e10:	2e636367 	cdpcs	3, 6, cr6, cr3, cr7, {3}
    1e14:	00020068 	andeq	r0, r2, r8, rrx
    1e18:	39050000 	stmdbcc	r5, {}	; <UNPREDICTABLE>
    1e1c:	f8020500 			; <UNDEFINED> instruction: 0xf8020500
    1e20:	0300008d 	movweq	r0, #141	; 0x8d
    1e24:	01060130 	tsteq	r6, r0, lsr r1
    1e28:	67060505 	strvs	r0, [r6, -r5, lsl #10]
    1e2c:	01061105 	tsteq	r6, r5, lsl #2
    1e30:	052e0505 	streq	r0, [lr, #-1285]!	; 0xfffffafb
    1e34:	38056701 	stmdacc	r5, {r0, r8, r9, sl, sp, lr}
    1e38:	01062906 	tsteq	r6, r6, lsl #18
    1e3c:	67060505 	strvs	r0, [r6, -r5, lsl #10]
    1e40:	01061105 	tsteq	r6, r5, lsl #2
    1e44:	052e0505 	streq	r0, [lr, #-1285]!	; 0xfffffafb
    1e48:	16056701 	strne	r6, [r5], -r1, lsl #14
    1e4c:	2e150306 	cdpcs	3, 1, cr0, cr5, cr6, {0}
    1e50:	67350505 	ldrvs	r0, [r5, -r5, lsl #10]!
    1e54:	03683568 	cmneq	r8, #104, 10	; 0x1a000000
    1e58:	6b852e0c 	blvs	fe14d690 <__bss_end__+0xfe143880>
    1e5c:	0c036969 			; <UNDEFINED> instruction: 0x0c036969
    1e60:	676b1366 	strbvs	r1, [fp, -r6, ror #6]!
    1e64:	2f060105 	svccs	0x00060105
    1e68:	08061905 	stmdaeq	r6, {r0, r2, r8, fp, ip}
    1e6c:	34050525 	strcc	r0, [r5], #-1317	; 0xfffffadb
    1e70:	01060d05 	tsteq	r6, r5, lsl #26
    1e74:	054c0105 	strbeq	r0, [ip, #-261]	; 0xfffffefb
    1e78:	05670619 	strbeq	r0, [r7, #-1561]!	; 0xfffff9e7
    1e7c:	0d053605 	stceq	6, cr3, [r5, #-20]	; 0xffffffec
    1e80:	28050106 	stmdacs	r5, {r1, r2, r8}
    1e84:	3001054a 	andcc	r0, r1, sl, asr #10
    1e88:	87061505 	strhi	r1, [r6, -r5, lsl #10]
    1e8c:	2f2f0505 	svccs	0x002f0505
    1e90:	02000905 	andeq	r0, r0, #81920	; 0x14000
    1e94:	05130104 	ldreq	r0, [r3, #-260]	; 0xfffffefc
    1e98:	0402000a 	streq	r0, [r2], #-10
    1e9c:	0c051101 	stfeqs	f1, [r5], {1}
    1ea0:	01040200 	mrseq	r0, R12_usr
    1ea4:	0a050106 	beq	1422c4 <__bss_end__+0x1384b4>
    1ea8:	01040200 	mrseq	r0, R12_usr
    1eac:	0605052e 	streq	r0, [r5], -lr, lsr #10
    1eb0:	060e054c 	streq	r0, [lr], -ip, asr #10
    1eb4:	4a090501 	bmi	2432c0 <__bss_end__+0x2394b0>
    1eb8:	2f060505 	svccs	0x00060505
    1ebc:	0601052f 	streq	r0, [r1], -pc, lsr #10
    1ec0:	061c0513 			; <UNDEFINED> instruction: 0x061c0513
    1ec4:	05010667 	streq	r0, [r1, #-1639]	; 0xfffff999
    1ec8:	2f4b0605 	svccs	0x004b0605
    1ecc:	02000905 	andeq	r0, r0, #81920	; 0x14000
    1ed0:	05130104 	ldreq	r0, [r3, #-260]	; 0xfffffefc
    1ed4:	0402000a 	streq	r0, [r2], #-10
    1ed8:	0c051101 	stfeqs	f1, [r5], {1}
    1edc:	01040200 	mrseq	r0, R12_usr
    1ee0:	0a050106 	beq	142300 <__bss_end__+0x1384f0>
    1ee4:	01040200 	mrseq	r0, R12_usr
    1ee8:	0605052e 	streq	r0, [r5], -lr, lsr #10
    1eec:	0105674c 	tsteq	r5, ip, asr #14
    1ef0:	19052f06 	stmdbne	r5, {r1, r2, r8, r9, sl, fp, sp}
    1ef4:	1b054c06 	blne	154f14 <__bss_end__+0x14b104>
    1ef8:	2e2a052e 	cfsh64cs	mvdx0, mvdx10, #30
    1efc:	01063105 	tsteq	r6, r5, lsl #2
    1f00:	052e4205 	streq	r4, [lr, #-517]!	; 0xfffffdfb
    1f04:	0531061c 	ldreq	r0, [r1, #-1564]!	; 0xfffff9e4
    1f08:	09032f05 	stmdbeq	r3, {r0, r2, r8, r9, sl, fp, sp}
    1f0c:	060e052e 	streq	r0, [lr], -lr, lsr #10
    1f10:	4a210501 	bmi	84331c <__bss_end__+0x83950c>
    1f14:	0a030105 	beq	c2330 <__bss_end__+0xb8520>
    1f18:	061a052e 	ldreq	r0, [sl], -lr, lsr #10
    1f1c:	00090568 	andeq	r0, r9, r8, ror #10
    1f20:	30010402 	andcc	r0, r1, r2, lsl #8
    1f24:	02000a05 	andeq	r0, r0, #20480	; 0x5000
    1f28:	05110104 	ldreq	r0, [r1, #-260]	; 0xfffffefc
    1f2c:	0402000c 	streq	r0, [r2], #-12
    1f30:	05010601 	streq	r0, [r1, #-1537]	; 0xfffff9ff
    1f34:	0402000a 	streq	r0, [r2], #-10
    1f38:	19052e01 	stmdbne	r5, {r0, r9, sl, fp, sp}
    1f3c:	7ee80306 	cdpvc	3, 14, cr0, cr8, cr6, {0}
    1f40:	2f050566 	svccs	0x00050566
    1f44:	05672f2f 	strbeq	r2, [r7, #-3887]!	; 0xfffff0d1
    1f48:	022f0601 	eoreq	r0, pc, #1048576	; 0x100000
    1f4c:	01010004 	tsteq	r1, r4
    1f50:	000000bd 	strheq	r0, [r0], -sp
    1f54:	007f0003 	rsbseq	r0, pc, r3
    1f58:	01020000 	mrseq	r0, (UNDEF: 2)
    1f5c:	000d0efb 	strdeq	r0, [sp], -fp
    1f60:	01010101 	tsteq	r1, r1, lsl #2
    1f64:	01000000 	mrseq	r0, (UNDEF: 0)
    1f68:	2e010000 	cdpcs	0, 0, cr0, cr1, cr0, {0}
    1f6c:	62696c2f 	rsbvs	r6, r9, #12032	; 0x2f00
    1f70:	552f0063 	strpl	r0, [pc, #-99]!	; 1f15 <__code_start__-0x60eb>
    1f74:	73726573 	cmnvc	r2, #482344960	; 0x1cc00000
    1f78:	6972652f 	ldmdbvs	r2!, {r0, r1, r2, r3, r5, r8, sl, sp, lr}^
    1f7c:	61656263 	cmnvs	r5, r3, ror #4
    1f80:	6f442f72 	svcvs	0x00442f72
    1f84:	656d7563 	strbvs	r7, [sp, #-1379]!	; 0xfffffa9d
    1f88:	2f73746e 	svccs	0x0073746e
    1f8c:	34315343 	ldrtcc	r5, [r1], #-835	; 0xfffffcbd
    1f90:	632f4530 			; <UNDEFINED> instruction: 0x632f4530
    1f94:	30343173 	eorscc	r3, r4, r3, ror r1
    1f98:	69662d45 	stmdbvs	r6!, {r0, r2, r6, r8, sl, fp, sp}^
    1f9c:	2d6c616e 	stfcse	f6, [ip, #-440]!	; 0xfffffe48
    1fa0:	6a6f7270 	bvs	1bde968 <__bss_end__+0x1bd4b58>
    1fa4:	2f746365 	svccs	0x00746365
    1fa8:	7362696c 	cmnvc	r2, #108, 18	; 0x1b0000
    1fac:	3034322d 	eorscc	r3, r4, sp, lsr #4
    1fb0:	6c2f786c 	stcvs	8, cr7, [pc], #-432	; 1e08 <__code_start__-0x61f8>
    1fb4:	69706269 	ldmdbvs	r0!, {r0, r3, r5, r6, r9, sp, lr}^
    1fb8:	636e692f 	cmnvs	lr, #770048	; 0xbc000
    1fbc:	6564756c 	strbvs	r7, [r4, #-1388]!	; 0xfffffa94
    1fc0:	75700000 	ldrbvc	r0, [r0, #-0]!
    1fc4:	61686374 	smcvs	34356	; 0x8634
    1fc8:	00632e72 	rsbeq	r2, r3, r2, ror lr
    1fcc:	72000001 	andvc	r0, r0, #1, 0
    1fd0:	682e6970 	stmdavs	lr!, {r4, r5, r6, r8, fp, sp, lr}
    1fd4:	00000200 	andeq	r0, r0, r0, lsl #4
    1fd8:	00240500 	eoreq	r0, r4, r0, lsl #10
    1fdc:	8fe80205 	svchi	0x00e80205
    1fe0:	06140000 	ldreq	r0, [r4], -r0
    1fe4:	06260501 	strteq	r0, [r6], -r1, lsl #10
    1fe8:	2e34054a 	cdpcs	5, 3, cr0, cr4, cr10, {2}
    1fec:	01060105 	tsteq	r6, r5, lsl #2
    1ff0:	4f061b05 	svcmi	0x00061b05
    1ff4:	05130505 	ldreq	r0, [r3, #-1285]	; 0xfffffafb
    1ff8:	05010611 	streq	r0, [r1, #-1553]	; 0xfffff9ef
    1ffc:	23056701 	movwcs	r6, #22273	; 0x5701
    2000:	05056706 	streq	r6, [r5, #-1798]	; 0xfffff8fa
    2004:	06110513 			; <UNDEFINED> instruction: 0x06110513
    2008:	4b010501 	blmi	43414 <__bss_end__+0x39604>
    200c:	01000402 	tsteq	r0, r2, lsl #8
    2010:	00010901 	andeq	r0, r1, r1, lsl #18
    2014:	7e000300 	cdpvc	3, 0, cr0, cr0, cr0, {0}
    2018:	02000000 	andeq	r0, r0, #0, 0
    201c:	0d0efb01 	vstreq	d15, [lr, #-4]
    2020:	01010100 	mrseq	r0, (UNDEF: 17)
    2024:	00000001 	andeq	r0, r0, r1
    2028:	01000001 	tsteq	r0, r1
    202c:	696c2f2e 	stmdbvs	ip!, {r1, r2, r3, r5, r8, r9, sl, fp, sp}^
    2030:	2f006362 	svccs	0x00006362
    2034:	72657355 	rsbvc	r7, r5, #1409286145	; 0x54000001
    2038:	72652f73 	rsbvc	r2, r5, #460	; 0x1cc
    203c:	65626369 	strbvs	r6, [r2, #-873]!	; 0xfffffc97
    2040:	442f7261 	strtmi	r7, [pc], #-609	; 2048 <__code_start__-0x5fb8>
    2044:	6d75636f 	ldclvs	3, cr6, [r5, #-444]!	; 0xfffffe44
    2048:	73746e65 	cmnvc	r4, #1616	; 0x650
    204c:	3153432f 	cmpcc	r3, pc, lsr #6
    2050:	2f453034 	svccs	0x00453034
    2054:	34317363 	ldrtcc	r7, [r1], #-867	; 0xfffffc9d
    2058:	662d4530 			; <UNDEFINED> instruction: 0x662d4530
    205c:	6c616e69 	stclvs	14, cr6, [r1], #-420	; 0xfffffe5c
    2060:	6f72702d 	svcvs	0x0072702d
    2064:	7463656a 	strbtvc	r6, [r3], #-1386	; 0xfffffa96
    2068:	62696c2f 	rsbvs	r6, r9, #12032	; 0x2f00
    206c:	34322d73 	ldrtcc	r2, [r2], #-3443	; 0xfffff28d
    2070:	2f786c30 	svccs	0x00786c30
    2074:	7062696c 	rsbvc	r6, r2, ip, ror #18
    2078:	6e692f69 	cdpvs	15, 6, cr2, cr9, cr9, {3}
    207c:	64756c63 	ldrbtvs	r6, [r5], #-3171	; 0xfffff39d
    2080:	73000065 	movwvc	r0, #101	; 0x65
    2084:	61637274 	smcvs	14116	; 0x3724
    2088:	00632e74 	rsbeq	r2, r3, r4, ror lr
    208c:	72000001 	andvc	r0, r0, #1, 0
    2090:	682e6970 	stmdavs	lr!, {r4, r5, r6, r8, fp, sp, lr}
    2094:	00000200 	andeq	r0, r0, r0, lsl #4
    2098:	002c0500 	eoreq	r0, ip, r0, lsl #10
    209c:	90240205 	eorls	r0, r4, r5, lsl #4
    20a0:	05150000 	ldreq	r0, [r5, #-0]
    20a4:	05131305 	ldreq	r1, [r3, #-773]	; 0xfffffcfb
    20a8:	0511060b 	ldreq	r0, [r1, #-1547]	; 0xfffff9f5
    20ac:	04020005 	streq	r0, [r2], #-5
    20b0:	00300601 	eorseq	r0, r0, r1, lsl #12
    20b4:	15010402 	strne	r0, [r1, #-1026]	; 0xfffffbfe
    20b8:	02000905 	andeq	r0, r0, #81920	; 0x14000
    20bc:	05130104 	ldreq	r0, [r3, #-260]	; 0xfffffefc
    20c0:	04020010 	streq	r0, [r2], #-16
    20c4:	052e0601 	streq	r0, [lr, #-1537]!	; 0xfffff9ff
    20c8:	0402000b 	streq	r0, [r2], #-11
    20cc:	02002e01 	andeq	r2, r0, #1, 28
    20d0:	2f060104 	svccs	0x00060104
    20d4:	02000505 	andeq	r0, r0, #20971520	; 0x1400000
    20d8:	01060104 	tsteq	r6, r4, lsl #2
    20dc:	08054e06 	stmdaeq	r5, {r1, r2, r9, sl, fp, lr}
    20e0:	05050106 	streq	r0, [r5, #-262]	; 0xfffffefa
    20e4:	01040200 	mrseq	r0, R12_usr
    20e8:	09052f06 	stmdbeq	r5, {r1, r2, r8, r9, sl, fp, sp}
    20ec:	01040200 	mrseq	r0, R12_usr
    20f0:	000b0513 	andeq	r0, fp, r3, lsl r5
    20f4:	06010402 	streq	r0, [r1], -r2, lsl #8
    20f8:	00090501 	andeq	r0, r9, r1, lsl #10
    20fc:	06010402 	streq	r0, [r1], -r2, lsl #8
    2100:	000f054b 	andeq	r0, pc, fp, asr #10
    2104:	06010402 	streq	r0, [r1], -r2, lsl #8
    2108:	000d0501 	andeq	r0, sp, r1, lsl #10
    210c:	06010402 	streq	r0, [r1], -r2, lsl #8
    2110:	0005052f 	andeq	r0, r5, pc, lsr #10
    2114:	06010402 	streq	r0, [r1], -r2, lsl #8
    2118:	00060201 	andeq	r0, r6, r1, lsl #4
    211c:	00c20101 	sbceq	r0, r2, r1, lsl #2
    2120:	00030000 	andeq	r0, r3, r0
    2124:	0000007e 	andeq	r0, r0, lr, ror r0
    2128:	0efb0102 	cdpeq	1, 15, cr0, cr11, cr2, {0}
    212c:	0101000d 	tsteq	r1, sp
    2130:	00000101 	andeq	r0, r0, r1, lsl #2
    2134:	00000100 	andeq	r0, r0, r0, lsl #2
    2138:	6c2f2e01 	stcvs	14, cr2, [pc], #-4	; 213c <__code_start__-0x5ec4>
    213c:	00636269 	rsbeq	r6, r3, r9, ror #4
    2140:	6573552f 	ldrbvs	r5, [r3, #-1327]!	; 0xfffffad1
    2144:	652f7372 	strvs	r7, [pc, #-882]!	; 1dda <__code_start__-0x6226>
    2148:	62636972 	rsbvs	r6, r3, #1867776	; 0x1c8000
    214c:	2f726165 	svccs	0x00726165
    2150:	75636f44 	strbvc	r6, [r3, #-3908]!	; 0xfffff0bc
    2154:	746e656d 	strbtvc	r6, [lr], #-1389	; 0xfffffa93
    2158:	53432f73 	movtpl	r2, #16243	; 0x3f73
    215c:	45303431 	ldrmi	r3, [r0, #-1073]!	; 0xfffffbcf
    2160:	3173632f 	cmncc	r3, pc, lsr #6
    2164:	2d453034 	stclcs	0, cr3, [r5, #-208]	; 0xffffff30
    2168:	616e6966 	cmnvs	lr, r6, ror #18
    216c:	72702d6c 	rsbsvc	r2, r0, #108, 26	; 0x1b00
    2170:	63656a6f 	cmnvs	r5, #454656	; 0x6f000
    2174:	696c2f74 	stmdbvs	ip!, {r2, r4, r5, r6, r8, r9, sl, fp, sp}^
    2178:	322d7362 	eorcc	r7, sp, #-2013265919	; 0x88000001
    217c:	786c3034 	stmdavc	ip!, {r2, r4, r5, ip, sp}^
    2180:	62696c2f 	rsbvs	r6, r9, #12032	; 0x2f00
    2184:	692f6970 	stmdbvs	pc!, {r4, r5, r6, r8, fp, sp, lr}	; <UNPREDICTABLE>
    2188:	756c636e 	strbvc	r6, [ip, #-878]!	; 0xfffffc92
    218c:	00006564 	andeq	r6, r0, r4, ror #10
    2190:	63727473 	cmnvs	r2, #1929379840	; 0x73000000
    2194:	632e706d 			; <UNDEFINED> instruction: 0x632e706d
    2198:	00000100 	andeq	r0, r0, r0, lsl #2
    219c:	2e697072 	mcrcs	0, 3, r7, cr9, cr2, {3}
    21a0:	00020068 	andeq	r0, r2, r8, rrx
    21a4:	2a050000 	bcs	1421ac <__bss_end__+0x13839c>
    21a8:	58020500 	stmdapl	r2, {r8, sl}
    21ac:	14000090 	strne	r0, [r0], #-144	; 0xffffff70
    21b0:	05130905 	ldreq	r0, [r3, #-2309]	; 0xfffff6fb
    21b4:	1005010f 	andne	r0, r5, pc, lsl #2
    21b8:	0f050106 	svceq	0x00050106
    21bc:	001c052e 	andseq	r0, ip, lr, lsr #10
    21c0:	4a010402 	bmi	431d0 <__bss_end__+0x393c0>
    21c4:	02001305 	andeq	r1, r0, #335544320	; 0x14000000
    21c8:	052e0104 	streq	r0, [lr, #-260]!	; 0xfffffefc
    21cc:	052f0611 	streq	r0, [pc, #-1553]!	; 1bc3 <__code_start__-0x643d>
    21d0:	2e2e0616 	mcrcs	6, 1, r0, cr14, cr6, {0}
    21d4:	2f060905 	svccs	0x00060905
    21d8:	01061505 	tsteq	r6, r5, lsl #10
    21dc:	022f0105 	eoreq	r0, pc, #1073741825	; 0x40000001
    21e0:	01010004 	tsteq	r1, r4
    21e4:	000000c0 	andeq	r0, r0, r0, asr #1
    21e8:	007e0003 	rsbseq	r0, lr, r3
    21ec:	01020000 	mrseq	r0, (UNDEF: 2)
    21f0:	000d0efb 	strdeq	r0, [sp], -fp
    21f4:	01010101 	tsteq	r1, r1, lsl #2
    21f8:	01000000 	mrseq	r0, (UNDEF: 0)
    21fc:	2e010000 	cdpcs	0, 0, cr0, cr1, cr0, {0}
    2200:	62696c2f 	rsbvs	r6, r9, #12032	; 0x2f00
    2204:	552f0063 	strpl	r0, [pc, #-99]!	; 21a9 <__code_start__-0x5e57>
    2208:	73726573 	cmnvc	r2, #482344960	; 0x1cc00000
    220c:	6972652f 	ldmdbvs	r2!, {r0, r1, r2, r3, r5, r8, sl, sp, lr}^
    2210:	61656263 	cmnvs	r5, r3, ror #4
    2214:	6f442f72 	svcvs	0x00442f72
    2218:	656d7563 	strbvs	r7, [sp, #-1379]!	; 0xfffffa9d
    221c:	2f73746e 	svccs	0x0073746e
    2220:	34315343 	ldrtcc	r5, [r1], #-835	; 0xfffffcbd
    2224:	632f4530 			; <UNDEFINED> instruction: 0x632f4530
    2228:	30343173 	eorscc	r3, r4, r3, ror r1
    222c:	69662d45 	stmdbvs	r6!, {r0, r2, r6, r8, sl, fp, sp}^
    2230:	2d6c616e 	stfcse	f6, [ip, #-440]!	; 0xfffffe48
    2234:	6a6f7270 	bvs	1bdebfc <__bss_end__+0x1bd4dec>
    2238:	2f746365 	svccs	0x00746365
    223c:	7362696c 	cmnvc	r2, #108, 18	; 0x1b0000
    2240:	3034322d 	eorscc	r3, r4, sp, lsr #4
    2244:	6c2f786c 	stcvs	8, cr7, [pc], #-432	; 209c <__code_start__-0x5f64>
    2248:	69706269 	ldmdbvs	r0!, {r0, r3, r5, r6, r9, sp, lr}^
    224c:	636e692f 	cmnvs	lr, #770048	; 0xbc000
    2250:	6564756c 	strbvs	r7, [r4, #-1388]!	; 0xfffffa94
    2254:	74730000 	ldrbtvc	r0, [r3], #-0
    2258:	79706372 	ldmdbvc	r0!, {r1, r4, r5, r6, r8, r9, sp, lr}^
    225c:	0100632e 	tsteq	r0, lr, lsr #6
    2260:	70720000 	rsbsvc	r0, r2, r0
    2264:	00682e69 	rsbeq	r2, r8, r9, ror #28
    2268:	00000002 	andeq	r0, r0, r2
    226c:	05002a05 	streq	r2, [r0, #-2565]	; 0xfffff5fb
    2270:	00908402 	addseq	r8, r0, r2, lsl #8
    2274:	05051400 	streq	r1, [r5, #-1024]	; 0xfffffc00
    2278:	14051313 	strne	r1, [r5], #-787	; 0xfffffced
    227c:	22051106 	andcs	r1, r5, #-2147483647	; 0x80000001
    2280:	01040200 	mrseq	r0, R12_usr
    2284:	0b052f06 	bleq	14dea4 <__bss_end__+0x144094>
    2288:	01040200 	mrseq	r0, R12_usr
    228c:	00150501 	andseq	r0, r5, r1, lsl #10
    2290:	06010402 	streq	r0, [r1], -r2, lsl #8
    2294:	00130501 	andseq	r0, r3, r1, lsl #10
    2298:	4a010402 	bmi	432a8 <__bss_end__+0x39498>
    229c:	02000b05 	andeq	r0, r0, #5120	; 0x1400
    22a0:	024a0104 	subeq	r0, sl, #1
    22a4:	01010006 	tsteq	r1, r6
    22a8:	00000120 	andeq	r0, r0, r0, lsr #2
    22ac:	00e40003 	rsceq	r0, r4, r3
    22b0:	01020000 	mrseq	r0, (UNDEF: 2)
    22b4:	000d0efb 	strdeq	r0, [sp], -fp
    22b8:	01010101 	tsteq	r1, r1, lsl #2
    22bc:	01000000 	mrseq	r0, (UNDEF: 0)
    22c0:	2e010000 	cdpcs	0, 0, cr0, cr1, cr0, {0}
    22c4:	62696c2f 	rsbvs	r6, r9, #12032	; 0x2f00
    22c8:	552f0063 	strpl	r0, [pc, #-99]!	; 226d <__code_start__-0x5d93>
    22cc:	73726573 	cmnvc	r2, #482344960	; 0x1cc00000
    22d0:	6972652f 	ldmdbvs	r2!, {r0, r1, r2, r3, r5, r8, sl, sp, lr}^
    22d4:	61656263 	cmnvs	r5, r3, ror #4
    22d8:	6f442f72 	svcvs	0x00442f72
    22dc:	656d7563 	strbvs	r7, [sp, #-1379]!	; 0xfffffa9d
    22e0:	2f73746e 	svccs	0x0073746e
    22e4:	34315343 	ldrtcc	r5, [r1], #-835	; 0xfffffcbd
    22e8:	632f4530 			; <UNDEFINED> instruction: 0x632f4530
    22ec:	30343173 	eorscc	r3, r4, r3, ror r1
    22f0:	69662d45 	stmdbvs	r6!, {r0, r2, r6, r8, sl, fp, sp}^
    22f4:	2d6c616e 	stfcse	f6, [ip, #-440]!	; 0xfffffe48
    22f8:	6a6f7270 	bvs	1bdecc0 <__bss_end__+0x1bd4eb0>
    22fc:	2f746365 	svccs	0x00746365
    2300:	7362696c 	cmnvc	r2, #108, 18	; 0x1b0000
    2304:	3034322d 	eorscc	r3, r4, sp, lsr #4
    2308:	6c2f786c 	stcvs	8, cr7, [pc], #-432	; 2160 <__code_start__-0x5ea0>
    230c:	69706269 	ldmdbvs	r0!, {r0, r3, r5, r6, r9, sp, lr}^
    2310:	636e692f 	cmnvs	lr, #770048	; 0xbc000
    2314:	6564756c 	strbvs	r7, [r4, #-1388]!	; 0xfffffa94
    2318:	73752f00 	cmnvc	r5, #0, 30
    231c:	6f6c2f72 	svcvs	0x006c2f72
    2320:	2f6c6163 	svccs	0x006c6163
    2324:	6c6c6543 	cfstr64vs	mvdx6, [ip], #-268	; 0xfffffef4
    2328:	612f7261 			; <UNDEFINED> instruction: 0x612f7261
    232c:	6e2d6d72 	mcrvs	13, 1, r6, cr13, cr2, {3}
    2330:	2d656e6f 	stclcs	14, cr6, [r5, #-444]!	; 0xfffffe44
    2334:	69626165 	stmdbvs	r2!, {r0, r2, r5, r6, r8, sp, lr}^
    2338:	7365742d 	cmnvc	r5, #754974720	; 0x2d000000
    233c:	2d392f74 	ldccs	15, cr2, [r9, #-464]!	; 0xfffffe30
    2340:	39313032 	ldmdbcc	r1!, {r1, r4, r5, ip, sp}
    2344:	632d3471 			; <UNDEFINED> instruction: 0x632d3471
    2348:	37303173 			; <UNDEFINED> instruction: 0x37303173
    234c:	696c2f65 	stmdbvs	ip!, {r0, r2, r5, r6, r8, r9, sl, fp, sp}^
    2350:	63672f62 	cmnvs	r7, #392	; 0x188
    2354:	72612f63 	rsbvc	r2, r1, #396	; 0x18c
    2358:	6f6e2d6d 	svcvs	0x006e2d6d
    235c:	652d656e 	strvs	r6, [sp, #-1390]!	; 0xfffffa92
    2360:	2f696261 	svccs	0x00696261
    2364:	2e322e39 	mrccs	14, 1, r2, cr2, cr9, {1}
    2368:	6e692f31 	mcrvs	15, 3, r2, cr9, cr1, {1}
    236c:	64756c63 	ldrbtvs	r6, [r5], #-3171	; 0xfffff39d
    2370:	73000065 	movwvc	r0, #101	; 0x65
    2374:	636e7274 	cmnvs	lr, #116, 4	; 0x40000007
    2378:	632e706d 			; <UNDEFINED> instruction: 0x632e706d
    237c:	00000100 	andeq	r0, r0, r0, lsl #2
    2380:	2e697072 	mcrcs	0, 3, r7, cr9, cr2, {3}
    2384:	00020068 	andeq	r0, r2, r8, rrx
    2388:	64747300 	ldrbtvs	r7, [r4], #-768	; 0xfffffd00
    238c:	2e666564 	cdpcs	5, 6, cr6, cr6, cr4, {3}
    2390:	00030068 	andeq	r0, r3, r8, rrx
    2394:	39050000 	stmdbcc	r5, {}	; <UNPREDICTABLE>
    2398:	a4020500 	strge	r0, [r2], #-1280	; 0xfffffb00
    239c:	15000090 	strne	r0, [r0, #-144]	; 0xffffff70
    23a0:	13130505 	tstne	r3, #20971520	; 0x1400000
    23a4:	06010a05 	streq	r0, [r1], -r5, lsl #20
    23a8:	09054a01 	stmdbeq	r5, {r0, r9, fp, lr}
    23ac:	0c052f06 	stceq	15, cr2, [r5], {6}
    23b0:	13050106 	movwne	r0, #20742	; 0x5106
    23b4:	2e0b052e 	cfsh32cs	mvfx0, mvfx11, #30
    23b8:	4b060d05 	blmi	1857d4 <__bss_end__+0x17b9c4>
    23bc:	01061b05 	tsteq	r6, r5, lsl #22
    23c0:	300c052e 	andcc	r0, ip, lr, lsr #10
    23c4:	022f0105 	eoreq	r0, pc, #1073741825	; 0x40000001
    23c8:	01010002 	tsteq	r1, r2
    23cc:	000000af 	andeq	r0, r0, pc, lsr #1
    23d0:	00930003 	addseq	r0, r3, r3
    23d4:	01020000 	mrseq	r0, (UNDEF: 2)
    23d8:	000d0efb 	strdeq	r0, [sp], -fp
    23dc:	01010101 	tsteq	r1, r1, lsl #2
    23e0:	01000000 	mrseq	r0, (UNDEF: 0)
    23e4:	2e010000 	cdpcs	0, 0, cr0, cr1, cr0, {0}
    23e8:	6174732f 	cmnvs	r4, pc, lsr #6
    23ec:	732d6666 			; <UNDEFINED> instruction: 0x732d6666
    23f0:	2f006372 	svccs	0x00006372
    23f4:	72657355 	rsbvc	r7, r5, #1409286145	; 0x54000001
    23f8:	72652f73 	rsbvc	r2, r5, #460	; 0x1cc
    23fc:	65626369 	strbvs	r6, [r2, #-873]!	; 0xfffffc97
    2400:	442f7261 	strtmi	r7, [pc], #-609	; 2408 <__code_start__-0x5bf8>
    2404:	6d75636f 	ldclvs	3, cr6, [r5, #-444]!	; 0xfffffe44
    2408:	73746e65 	cmnvc	r4, #1616	; 0x650
    240c:	3153432f 	cmpcc	r3, pc, lsr #6
    2410:	2f453034 	svccs	0x00453034
    2414:	34317363 	ldrtcc	r7, [r1], #-867	; 0xfffffc9d
    2418:	662d4530 			; <UNDEFINED> instruction: 0x662d4530
    241c:	6c616e69 	stclvs	14, cr6, [r1], #-420	; 0xfffffe5c
    2420:	6f72702d 	svcvs	0x0072702d
    2424:	7463656a 	strbtvc	r6, [r3], #-1386	; 0xfffffa96
    2428:	62696c2f 	rsbvs	r6, r9, #12032	; 0x2f00
    242c:	34322d73 	ldrtcc	r2, [r2], #-3443	; 0xfffff28d
    2430:	2f786c30 	svccs	0x00786c30
    2434:	7062696c 	rsbvc	r6, r2, ip, ror #18
    2438:	6e692f69 	cdpvs	15, 6, cr2, cr9, cr9, {3}
    243c:	64756c63 	ldrbtvs	r6, [r5], #-3171	; 0xfffff39d
    2440:	64000065 	strvs	r0, [r0], #-101	; 0xffffff9b
    2444:	75616665 	strbvc	r6, [r1, #-1637]!	; 0xfffff99b
    2448:	722d746c 	eorvc	r7, sp, #108, 8	; 0x6c000000
    244c:	6f6f6265 	svcvs	0x006f6265
    2450:	61632d74 	smcvs	13012	; 0x32d4
    2454:	756f6c6c 	strbvc	r6, [pc, #-3180]!	; 17f0 <__code_start__-0x6810>
    2458:	00632e74 	rsbeq	r2, r3, r4, ror lr
    245c:	72000001 	andvc	r0, r0, #1, 0
    2460:	682e6970 	stmdavs	lr!, {r4, r5, r6, r8, fp, sp, lr}
    2464:	00000200 	andeq	r0, r0, r0, lsl #4
    2468:	001b0500 	andseq	r0, fp, r0, lsl #10
    246c:	90d00205 	sbcsls	r0, r0, r5, lsl #4
    2470:	05140000 	ldreq	r0, [r4, #-0]
    2474:	0105011c 	tsteq	r5, ip, lsl r1
    2478:	02020106 	andeq	r0, r2, #-2147483647	; 0x80000001
    247c:	Address 0x000000000000247c is out of bounds.


Disassembly of section .debug_str:

00000000 <.debug_str>:
   0:	6d746f6e 	ldclvs	15, cr6, [r4, #-440]!	; 0xfffffe48
   4:	006e6961 	rsbeq	r6, lr, r1, ror #18
   8:	6573552f 	ldrbvs	r5, [r3, #-1327]!	; 0xfffffad1
   c:	652f7372 	strvs	r7, [pc, #-882]!	; fffffca2 <__bss_end__+0xffff5e92>
  10:	62636972 	rsbvs	r6, r3, #1867776	; 0x1c8000
  14:	2f726165 	svccs	0x00726165
  18:	75636f44 	strbvc	r6, [r3, #-3908]!	; 0xfffff0bc
  1c:	746e656d 	strbtvc	r6, [lr], #-1389	; 0xfffffa93
  20:	53432f73 	movtpl	r2, #16243	; 0x3f73
  24:	45303431 	ldrmi	r3, [r0, #-1073]!	; 0xfffffbcf
  28:	3173632f 	cmncc	r3, pc, lsr #6
  2c:	2d453034 	stclcs	0, cr3, [r5, #-208]	; 0xffffff30
  30:	616e6966 	cmnvs	lr, r6, ror #18
  34:	72702d6c 	rsbsvc	r2, r0, #108, 26	; 0x1b00
  38:	63656a6f 	cmnvs	r5, #454656	; 0x6f000
  3c:	65722f74 	ldrbvs	r2, [r2, #-3956]!	; 0xfffff08c
  40:	6176656c 	cmnvs	r6, ip, ror #10
  44:	6c2d746e 	cfstrsvs	mvf7, [sp], #-440	; 0xfffffe48
  48:	2f736261 	svccs	0x00736261
  4c:	7263696d 	rsbvc	r6, r3, #1785856	; 0x1b4000
  50:	6f68706f 	svcvs	0x0068706f
  54:	632d656e 			; <UNDEFINED> instruction: 0x632d656e
  58:	30343273 	eorscc	r3, r4, r3, ror r2
  5c:	312d786c 			; <UNDEFINED> instruction: 0x312d786c
  60:	32692d37 	rsbcc	r2, r9, #3520	; 0xdc0
  64:	6f632f73 	svcvs	0x00632f73
  68:	75006564 	strvc	r6, [r0, #-1380]	; 0xfffffa9c
  6c:	6769736e 	strbvs	r7, [r9, -lr, ror #6]!
  70:	2064656e 	rsbcs	r6, r4, lr, ror #10
  74:	72616863 	rsbvc	r6, r1, #6488064	; 0x630000
  78:	656c6300 	strbvs	r6, [ip, #-768]!	; 0xfffffd00
  7c:	725f6e61 	subsvc	r6, pc, #1552	; 0x610
  80:	6f6f6265 	svcvs	0x006f6265
  84:	68730074 	ldmdavs	r3!, {r2, r4, r5, r6}^
  88:	2074726f 	rsbscs	r7, r4, pc, ror #4
  8c:	69736e75 	ldmdbvs	r3!, {r0, r2, r4, r5, r6, r9, sl, fp, sp, lr}^
  90:	64656e67 	strbtvs	r6, [r5], #-3687	; 0xfffff199
  94:	746e6920 	strbtvc	r6, [lr], #-2336	; 0xfffff6e0
  98:	6d697400 	cfstrdvs	mvd7, [r9, #-0]
  9c:	675f7265 	ldrbvs	r7, [pc, -r5, ror #4]
  a0:	755f7465 	ldrbvc	r7, [pc, #-1125]	; fffffc43 <__bss_end__+0xffff5e33>
  a4:	00636573 	rsbeq	r6, r3, r3, ror r5
  a8:	20554e47 	subscs	r4, r5, r7, asr #28
  ac:	20393943 	eorscs	r3, r9, r3, asr #18
  b0:	2e322e39 	mrccs	14, 1, r2, cr2, cr9, {1}
  b4:	30322031 	eorscc	r2, r2, r1, lsr r0
  b8:	30313931 	eorscc	r3, r1, r1, lsr r9
  bc:	28203532 	stmdacs	r0!, {r1, r4, r5, r8, sl, ip, sp}
  c0:	656c6572 	strbvs	r6, [ip, #-1394]!	; 0xfffffa8e
  c4:	29657361 	stmdbcs	r5!, {r0, r5, r6, r8, r9, ip, sp, lr}^
  c8:	52415b20 	subpl	r5, r1, #32, 22	; 0x8000
  cc:	72612f4d 	rsbvc	r2, r1, #308	; 0x134
  d0:	2d392d6d 	ldccs	13, cr2, [r9, #-436]!	; 0xfffffe4c
  d4:	6e617262 	cdpvs	2, 6, cr7, cr1, cr2, {3}
  d8:	72206863 	eorvc	r6, r0, #6488064	; 0x630000
  dc:	73697665 	cmnvc	r9, #105906176	; 0x6500000
  e0:	206e6f69 	rsbcs	r6, lr, r9, ror #30
  e4:	35373732 	ldrcc	r3, [r7, #-1842]!	; 0xfffff8ce
  e8:	205d3939 	subscs	r3, sp, r9, lsr r9
  ec:	70636d2d 	rsbvc	r6, r3, sp, lsr #26
  f0:	72613d75 	rsbvc	r3, r1, #7488	; 0x1d40
  f4:	3731316d 	ldrcc	r3, [r1, -sp, ror #2]!
  f8:	667a6a36 			; <UNDEFINED> instruction: 0x667a6a36
  fc:	2d20732d 	stccs	3, cr7, [r0, #-180]!	; 0xffffff4c
 100:	6e75746d 	cdpvs	4, 7, cr7, cr5, cr13, {3}
 104:	72613d65 	rsbvc	r3, r1, #6464	; 0x1940
 108:	3731316d 	ldrcc	r3, [r1, -sp, ror #2]!
 10c:	667a6a36 			; <UNDEFINED> instruction: 0x667a6a36
 110:	2d20732d 	stccs	3, cr7, [r0, #-180]!	; 0xffffff4c
 114:	6f6c666d 	svcvs	0x006c666d
 118:	612d7461 			; <UNDEFINED> instruction: 0x612d7461
 11c:	733d6962 	teqvc	sp, #1605632	; 0x188000
 120:	2074666f 	rsbscs	r6, r4, pc, ror #12
 124:	72616d2d 	rsbvc	r6, r1, #2880	; 0xb40
 128:	6d2d206d 	stcvs	0, cr2, [sp, #-436]!	; 0xfffffe4c
 12c:	68637261 	stmdavs	r3!, {r0, r5, r6, r9, ip, sp, lr}^
 130:	6d72613d 	ldfvse	f6, [r2, #-244]!	; 0xffffff0c
 134:	7a6b3676 	bvc	1acdb14 <__bss_end__+0x1ac3d04>
 138:	67672d20 	strbvs	r2, [r7, -r0, lsr #26]!
 13c:	2d206264 	sfmcs	f6, 4, [r0, #-400]!	; 0xfffffe70
 140:	2d20334f 	stccs	3, cr3, [r0, #-316]!	; 0xfffffec4
 144:	3d647473 	cfstrdcc	mvd7, [r4, #-460]!	; 0xfffffe34
 148:	39756e67 	ldmdbcc	r5!, {r0, r1, r2, r5, r6, r9, sl, fp, sp, lr}^
 14c:	662d2039 			; <UNDEFINED> instruction: 0x662d2039
 150:	65657266 	strbvs	r7, [r5, #-614]!	; 0xfffffd9a
 154:	6e617473 	mcrvs	4, 3, r7, cr1, cr3, {3}
 158:	676e6964 	strbvs	r6, [lr, -r4, ror #18]!
 15c:	73657400 	cmnvc	r5, #0, 8
 160:	352f7374 	strcc	r7, [pc, #-884]!	; fffffdf4 <__bss_end__+0xffff5fe4>
 164:	7466662d 	strbtvc	r6, [r6], #-1581	; 0xfffff9d3
 168:	6d69742d 	cfstrdvs	mvd7, [r9, #-180]!	; 0xffffff4c
 16c:	00632e65 	rsbeq	r2, r3, r5, ror #28
 170:	676e6f6c 	strbvs	r6, [lr, -ip, ror #30]!
 174:	6e6f6c20 	cdpvs	12, 6, cr6, cr15, cr0, {1}
 178:	6e752067 	cdpvs	0, 7, cr2, cr5, cr7, {3}
 17c:	6e676973 			; <UNDEFINED> instruction: 0x6e676973
 180:	69206465 	stmdbvs	r0!, {r0, r2, r5, r6, sl, sp, lr}
 184:	6600746e 	strvs	r7, [r0], -lr, ror #8
 188:	665f7466 	ldrbvs	r7, [pc], -r6, ror #8
 18c:	64657869 	strbtvs	r7, [r5], #-2153	; 0xfffff797
 190:	6666635f 			; <UNDEFINED> instruction: 0x6666635f
 194:	6e690074 	mcrvs	0, 3, r0, cr9, cr4, {3}
 198:	5f363174 	svcpl	0x00363174
 19c:	6f6c0074 	svcvs	0x006c0074
 1a0:	6c20676e 	stcvs	7, cr6, [r0], #-440	; 0xfffffe48
 1a4:	20676e6f 	rsbcs	r6, r7, pc, ror #28
 1a8:	00746e69 	rsbseq	r6, r4, r9, ror #28
 1ac:	5f697072 	svcpl	0x00697072
 1b0:	63747570 	cmnvs	r4, #112, 10	; 0x1c000000
 1b4:	00726168 	rsbseq	r6, r2, r8, ror #2
 1b8:	726f6873 	rsbvc	r6, pc, #7536640	; 0x730000
 1bc:	6e692074 	mcrvs	0, 3, r2, cr9, cr4, {3}
 1c0:	69750074 	ldmdbvs	r5!, {r2, r4, r5, r6}^
 1c4:	3233746e 	eorscc	r7, r3, #1845493760	; 0x6e000000
 1c8:	6300745f 	movwvs	r7, #1119	; 0x45f
 1cc:	65725f6d 	ldrbvs	r5, [r2, #-3949]!	; 0xfffff093
 1d0:	745f7367 	ldrbvc	r7, [pc], #-871	; 1d8 <__code_start__-0x7e28>
 1d4:	53324900 	teqpl	r2, #0, 18
 1d8:	5f53435f 	svcpl	0x0053435f
 1dc:	4c435852 	mcrrmi	8, 5, r5, r3, cr2
 1e0:	32490052 	subcc	r0, r9, #82, 0	; 0x52
 1e4:	53435f53 	movtpl	r5, #16211	; 0x3f53
 1e8:	004e455f 	subeq	r4, lr, pc, asr r5
 1ec:	415f5343 	cmpmi	pc, r3, asr #6
 1f0:	53324900 	teqpl	r2, #0, 18
 1f4:	4358525f 	cmpmi	r8, #-268435451	; 0xf0000005
 1f8:	3148435f 	cmpcc	r8, pc, asr r3
 1fc:	5f444957 	svcpl	0x00444957
 200:	69004255 	stmdbvs	r0, {r0, r2, r4, r6, r9, lr}
 204:	735f746e 	cmpvc	pc, #1845493760	; 0x6e000000
 208:	4d006374 	stcmi	3, cr6, [r0, #-464]	; 0xfffffe30
 20c:	5f45444f 	svcpl	0x0045444f
 210:	32490041 	subcc	r0, r9, #65, 0	; 0x41
 214:	58525f53 	ldmdapl	r2, {r0, r1, r4, r6, r8, r9, sl, fp, ip, lr}^
 218:	48435f43 	stmdami	r3, {r0, r1, r6, r8, r9, sl, fp, ip, lr}^
 21c:	534f5031 	movtpl	r5, #61489	; 0xf031
 220:	00424c5f 	subeq	r4, r2, pc, asr ip
 224:	5f533249 	svcpl	0x00533249
 228:	5f435852 	svcpl	0x00435852
 22c:	57324843 	ldrpl	r4, [r2, -r3, asr #16]!
 230:	67005845 	strvs	r5, [r0, -r5, asr #16]
 234:	00796172 	rsbseq	r6, r9, r2, ror r1
 238:	5f733269 	svcpl	0x00733269
 23c:	73676572 	cmnvc	r7, #478150656	; 0x1c800000
 240:	4700745f 	smlsdmi	r0, pc, r4, r7	; <UNPREDICTABLE>
 244:	5f4f4950 	svcpl	0x004f4950
 248:	434e5546 	movtmi	r5, #58694	; 0xe546
 24c:	54554f5f 	ldrbpl	r4, [r5], #-3935	; 0xfffff0a1
 250:	00545550 	subseq	r5, r4, r0, asr r5
 254:	5f746e69 	svcpl	0x00746e69
 258:	50006e65 	andpl	r6, r0, r5, ror #28
 25c:	435f4d43 	cmpmi	pc, #4288	; 0x10c0
 260:	004c5254 	subeq	r5, ip, r4, asr r2
 264:	5f6d6370 	svcpl	0x006d6370
 268:	6c727463 	cfldrdvs	mvd7, [r2], #-396	; 0xfffffe74
 26c:	646f6d00 	strbtvs	r6, [pc], #-3328	; 274 <__code_start__-0x7d8c>
 270:	32490065 	subcc	r0, r9, #101, 0	; 0x65
 274:	53435f53 	movtpl	r5, #16211	; 0x3f53
 278:	4254535f 	subsmi	r5, r4, #2080374785	; 0x7c000001
 27c:	43500059 	cmpmi	r0, #89, 0	; 0x59
 280:	49445f4d 	stmdbmi	r4, {r0, r2, r3, r6, r8, r9, sl, fp, ip, lr}^
 284:	32690056 	rsbcc	r0, r9, #86, 0	; 0x56
 288:	00632e73 	rsbeq	r2, r3, r3, ror lr
 28c:	4f495047 	svcmi	0x00495047
 290:	4e55465f 	mrcmi	6, 2, r4, cr5, cr15, {2}
 294:	4c415f43 	mcrrmi	15, 4, r5, r1, cr3
 298:	47003154 	smlsdmi	r0, r4, r1, r3
 29c:	5f4f4950 	svcpl	0x004f4950
 2a0:	434e5546 	movtmi	r5, #58694	; 0xe546
 2a4:	544c415f 	strbpl	r4, [ip], #-351	; 0xfffffea1
 2a8:	50470032 	subpl	r0, r7, r2, lsr r0
 2ac:	465f4f49 	ldrbmi	r4, [pc], -r9, asr #30
 2b0:	5f434e55 	svcpl	0x00434e55
 2b4:	33544c41 	cmpcc	r4, #16640	; 0x4100
 2b8:	49504700 	ldmdbmi	r0, {r8, r9, sl, lr}^
 2bc:	55465f4f 	strbpl	r5, [r6, #-3919]	; 0xfffff0b1
 2c0:	415f434e 	cmpmi	pc, lr, asr #6
 2c4:	0034544c 	eorseq	r5, r4, ip, asr #8
 2c8:	4f495047 	svcmi	0x00495047
 2cc:	4e55465f 	mrcmi	6, 2, r4, cr5, cr15, {2}
 2d0:	4c415f43 	mcrrmi	15, 4, r5, r1, cr3
 2d4:	69003554 	stmdbvs	r0, {r2, r4, r6, r8, sl, ip, sp}
 2d8:	725f7332 	subsvc	r7, pc, #-939524096	; 0xc8000000
 2dc:	00736765 	rsbseq	r6, r3, r5, ror #14
 2e0:	5f746962 	svcpl	0x00746962
 2e4:	00746573 	rsbseq	r6, r4, r3, ror r5
 2e8:	5f533249 	svcpl	0x00533249
 2ec:	5f435852 	svcpl	0x00435852
 2f0:	57324843 	ldrpl	r4, [r2, -r3, asr #16]!
 2f4:	555f4449 	ldrbpl	r4, [pc, #-1097]	; fffffeb3 <__bss_end__+0xffff60a3>
 2f8:	626e0042 	rsbvs	r0, lr, #66, 0	; 0x42
 2fc:	00737469 	rsbseq	r7, r3, r9, ror #8
 300:	73746962 	cmnvc	r4, #1605632	; 0x188000
 304:	726c635f 	rsbvc	r6, ip, #2080374785	; 0x7c000001
 308:	74696200 	strbtvc	r6, [r9], #-512	; 0xfffffe00
 30c:	5f73695f 	svcpl	0x0073695f
 310:	0066666f 	rsbeq	r6, r6, pc, ror #12
 314:	5f533249 	svcpl	0x00533249
 318:	525f5343 	subspl	r5, pc, #201326593	; 0xc000001
 31c:	58455358 	stmdapl	r5, {r3, r4, r6, r8, r9, ip, lr}^
 320:	53324900 	teqpl	r2, #0, 18
 324:	4358525f 	cmpmi	r8, #-268435451	; 0xf0000005
 328:	3248435f 	subcc	r4, r8, #2080374785	; 0x7c000001
 32c:	5f534f50 	svcpl	0x00534f50
 330:	70004255 	andvc	r4, r0, r5, asr r2
 334:	645f6d63 	ldrbvs	r6, [pc], #-3427	; 33c <__code_start__-0x7cc4>
 338:	69007669 	stmdbvs	r0, {r0, r3, r5, r6, r9, sl, ip, sp, lr}
 33c:	695f7332 	ldmdbvs	pc, {r1, r4, r5, r8, r9, ip, sp, lr}^	; <UNPREDICTABLE>
 340:	0074696e 	rsbseq	r6, r4, lr, ror #18
 344:	55465f5f 	strbpl	r5, [r6, #-3935]	; 0xfffff0a1
 348:	4954434e 	ldmdbmi	r4, {r1, r2, r3, r6, r8, r9, lr}^
 34c:	5f5f4e4f 	svcpl	0x005f4e4f
 350:	53324900 	teqpl	r2, #0, 18
 354:	5f53435f 	svcpl	0x0053435f
 358:	52455852 	subpl	r5, r5, #5373952	; 0x520000
 35c:	45470052 	strbmi	r0, [r7, #-82]	; 0xffffffae
 360:	00323354 	eorseq	r3, r2, r4, asr r3
 364:	5f746962 	svcpl	0x00746962
 368:	6f5f7369 	svcvs	0x005f7369
 36c:	5047006e 	subpl	r0, r7, lr, rrx
 370:	465f4f49 	ldrbmi	r4, [pc], -r9, asr #30
 374:	5f434e55 	svcpl	0x00434e55
 378:	30544c41 	subscc	r4, r4, r1, asr #24
 37c:	43585200 	cmpmi	r8, #0, 4
 380:	4900415f 	stmdbmi	r0, {r0, r1, r2, r3, r4, r6, r8, lr}
 384:	435f5332 	cmpmi	pc, #-939524096	; 0xc8000000
 388:	58525f53 	ldmdapl	r2, {r0, r1, r4, r6, r8, r9, sl, fp, ip, lr}^
 38c:	4d430046 	stclmi	0, cr0, [r3, #-280]	; 0xfffffee8
 390:	6765725f 			; <UNDEFINED> instruction: 0x6765725f
 394:	6c61765f 	stclvs	6, cr7, [r1], #-380	; 0xfffffe84
 398:	47006575 	smlsdxmi	r0, r5, r5, r6
 39c:	5f4f4950 	svcpl	0x004f4950
 3a0:	434e5546 	movtmi	r5, #58694	; 0xe546
 3a4:	504e495f 	subpl	r4, lr, pc, asr r9
 3a8:	49005455 	stmdbmi	r0, {r0, r2, r4, r6, sl, ip, lr}
 3ac:	435f5332 	cmpmi	pc, #-939524096	; 0xc8000000
 3b0:	58525f53 	ldmdapl	r2, {r0, r1, r4, r6, r8, r9, sl, fp, ip, lr}^
 3b4:	32490052 	subcc	r0, r9, #82, 0	; 0x52
 3b8:	4f4d5f53 	svcmi	0x004d5f53
 3bc:	465f4544 	ldrbmi	r4, [pc], -r4, asr #10
 3c0:	5f4e454c 	svcpl	0x004e454c
 3c4:	4900424c 	stmdbmi	r0, {r2, r3, r6, r9, lr}
 3c8:	435f5332 	cmpmi	pc, #-939524096	; 0xc8000000
 3cc:	58525f53 	ldmdapl	r2, {r0, r1, r4, r6, r8, r9, sl, fp, ip, lr}^
 3d0:	434e5953 	movtmi	r5, #59731	; 0xe953
 3d4:	74696200 	strbtvc	r6, [r9], #-512	; 0xfffffe00
 3d8:	65735f73 	ldrbvs	r5, [r3, #-3955]!	; 0xfffff08d
 3dc:	6d630074 	stclvs	0, cr0, [r3, #-464]!	; 0xfffffe30
 3e0:	6765725f 			; <UNDEFINED> instruction: 0x6765725f
 3e4:	32490073 	subcc	r0, r9, #115, 0	; 0x73
 3e8:	58525f53 	ldmdapl	r2, {r0, r1, r4, r6, r8, r9, sl, fp, ip, lr}^
 3ec:	48435f43 	stmdami	r3, {r0, r1, r6, r8, r9, sl, fp, ip, lr}^
 3f0:	004e4531 	subeq	r4, lr, r1, lsr r5
 3f4:	6f666966 	svcvs	0x00666966
 3f8:	53324900 	teqpl	r2, #0, 18
 3fc:	444f4d5f 	strbmi	r4, [pc], #-3423	; 404 <__code_start__-0x7bfc>
 400:	53465f45 	movtpl	r5, #28485	; 0x6f45
 404:	5f4e454c 	svcpl	0x004e454c
 408:	4900424c 	stmdbmi	r0, {r2, r3, r6, r9, lr}
 40c:	525f5332 	subspl	r5, pc, #-939524096	; 0xc8000000
 410:	435f4358 	cmpmi	pc, #88, 6	; 0x60000001
 414:	49573148 	ldmdbmi	r7, {r3, r6, r8, ip, sp}^
 418:	424c5f44 	submi	r5, ip, #68, 30	; 0x110
 41c:	53324900 	teqpl	r2, #0, 18
 420:	5f53435f 	svcpl	0x0053435f
 424:	48545852 	ldmdami	r4, {r1, r4, r6, fp, ip, lr}^
 428:	424c5f52 	submi	r5, ip, #328	; 0x148
 42c:	53324900 	teqpl	r2, #0, 18
 430:	4358525f 	cmpmi	r8, #-268435451	; 0xf0000005
 434:	3248435f 	subcc	r4, r8, #2080374785	; 0x7c000001
 438:	49004e45 	stmdbmi	r0, {r0, r2, r6, r9, sl, fp, lr}
 43c:	435f5332 	cmpmi	pc, #-939524096	; 0xc8000000
 440:	59535f53 	ldmdbpl	r3, {r0, r1, r4, r6, r8, r9, sl, fp, ip, lr}^
 444:	4900434e 	stmdbmi	r0, {r1, r2, r3, r6, r8, r9, lr}
 448:	525f5332 	subspl	r5, pc, #-939524096	; 0xc8000000
 44c:	435f4358 	cmpmi	pc, #88, 6	; 0x60000001
 450:	49573248 	ldmdbmi	r7, {r3, r6, r9, ip, sp}^
 454:	424c5f44 	submi	r5, ip, #68, 30	; 0x110
 458:	76656400 	strbtvc	r6, [r5], -r0, lsl #8
 45c:	7261625f 	rsbvc	r6, r1, #-268435451	; 0xf0000005
 460:	72656972 	rsbvc	r6, r5, #1867776	; 0x1c8000
 464:	53324900 	teqpl	r2, #0, 18
 468:	4358525f 	cmpmi	r8, #-268435451	; 0xf0000005
 46c:	3248435f 	subcc	r4, r8, #2080374785	; 0x7c000001
 470:	5f534f50 	svcpl	0x00534f50
 474:	4900424c 	stmdbmi	r0, {r2, r3, r6, r9, lr}
 478:	435f5332 	cmpmi	pc, #-939524096	; 0xc8000000
 47c:	58525f53 	ldmdapl	r2, {r0, r1, r4, r6, r8, r9, sl, fp, ip, lr}^
 480:	72640044 	rsbvc	r0, r4, #68, 0	; 0x44
 484:	62007165 	andvs	r7, r0, #1073741849	; 0x40000019
 488:	5f737469 	svcpl	0x00737469
 48c:	6b73616d 	blvs	1cd8a48 <__bss_end__+0x1ccec38>
 490:	53324900 	teqpl	r2, #0, 18
 494:	4358525f 	cmpmi	r8, #-268435451	; 0xf0000005
 498:	3148435f 	cmpcc	r8, pc, asr r3
 49c:	00584557 	subseq	r4, r8, r7, asr r5
 4a0:	6f697067 	svcvs	0x00697067
 4a4:	7465735f 	strbtvc	r7, [r5], #-863	; 0xfffffca1
 4a8:	6e75665f 	mrcvs	6, 3, r6, cr5, cr15, {2}
 4ac:	6f697463 	svcvs	0x00697463
 4b0:	746f006e 	strbtvc	r0, [pc], #-110	; 4b8 <__code_start__-0x7b48>
 4b4:	5f726568 	svcpl	0x00726568
 4b8:	73676572 	cmnvc	r7, #478150656	; 0x1c800000
 4bc:	54555000 	ldrbpl	r5, [r5], #-0
 4c0:	49003233 	stmdbmi	r0, {r0, r1, r4, r5, r9, ip, sp}
 4c4:	435f5332 	cmpmi	pc, #-939524096	; 0xc8000000
 4c8:	58525f53 	ldmdapl	r2, {r0, r1, r4, r6, r8, r9, sl, fp, ip, lr}^
 4cc:	69004e4f 	stmdbvs	r0, {r0, r1, r2, r3, r6, r9, sl, fp, lr}
 4d0:	725f7332 	subsvc	r7, pc, #-939524096	; 0xc8000000
 4d4:	5f646165 	svcpl	0x00646165
 4d8:	706d6173 	rsbvc	r6, sp, r3, ror r1
 4dc:	7400656c 	strvc	r6, [r0], #-1388	; 0xfffffa94
 4e0:	66635f78 	uqsub16vs	r5, r3, r8
 4e4:	70670067 	rsbvc	r0, r7, r7, rrx
 4e8:	735f6f69 	cmpvc	pc, #420	; 0x1a4
 4ec:	6f5f7465 	svcvs	0x005f7465
 4f0:	3249006e 	subcc	r0, r9, #110, 0	; 0x6e
 4f4:	53435f53 	movtpl	r5, #16211	; 0x3f53
 4f8:	5458525f 	ldrbpl	r5, [r8], #-607	; 0xfffffda1
 4fc:	555f5248 	ldrbpl	r5, [pc, #-584]	; 2bc <__code_start__-0x7d44>
 500:	32490042 	subcc	r0, r9, #66, 0	; 0x42
 504:	4f4d5f53 	svcmi	0x004d5f53
 508:	465f4544 	ldrbmi	r4, [pc], -r4, asr #10
 50c:	4e454c53 	mcrmi	12, 2, r4, cr5, cr3, {2}
 510:	0042555f 	subeq	r5, r2, pc, asr r5
 514:	635f7872 	cmpvs	pc, #7471104	; 0x720000
 518:	49006766 	stmdbmi	r0, {r1, r2, r5, r6, r8, r9, sl, sp, lr}
 51c:	525f5332 	subspl	r5, pc, #-939524096	; 0xc8000000
 520:	435f4358 	cmpmi	pc, #88, 6	; 0x60000001
 524:	4f503148 	svcmi	0x00503148
 528:	42555f53 	subsmi	r5, r5, #332	; 0x14c
 52c:	46494600 	strbmi	r4, [r9], -r0, lsl #12
 530:	00415f4f 	subeq	r5, r1, pc, asr #30
 534:	5f533249 	svcpl	0x00533249
 538:	45444f4d 	strbmi	r4, [r4, #-3917]	; 0xfffff0b3
 53c:	454c465f 	strbmi	r4, [ip, #-1631]	; 0xfffff9a1
 540:	42555f4e 	subsmi	r5, r5, #312	; 0x138
 544:	72756300 	rsbsvc	r6, r5, #0, 6
 548:	64695f72 	strbtvs	r5, [r9], #-3954	; 0xfffff08e
 54c:	77730078 			; <UNDEFINED> instruction: 0x77730078
 550:	695f7061 	ldmdbvs	pc, {r0, r5, r6, ip, sp, lr}^	; <UNPREDICTABLE>
 554:	74007864 	strvc	r7, [r0], #-2148	; 0xfffff79c
 558:	00706d65 	rsbseq	r6, r0, r5, ror #26
 55c:	32676f6c 	rsbcc	r6, r7, #108, 30	; 0x1b0
 560:	6e656c5f 	mcrvs	12, 3, r6, cr5, cr15, {2}
 564:	73616200 	cmnvc	r1, #0, 4
 568:	65725f65 	ldrbvs	r5, [r2, #-3941]!	; 0xfffff09b
 56c:	69006c61 	stmdbvs	r0, {r0, r5, r6, sl, fp, sp, lr}
 570:	7274735f 	rsbsvc	r7, r4, #2080374785	; 0x7c000001
 574:	00656469 	rsbeq	r6, r5, r9, ror #8
 578:	64697774 	strbtvs	r7, [r9], #-1908	; 0xfffff88c
 57c:	616d695f 	cmnvs	sp, pc, asr r9
 580:	6e690067 	cdpvs	0, 6, cr0, cr9, cr7, {3}
 584:	73726576 	cmnvc	r2, #494927872	; 0x1d800000
 588:	66660065 	strbtvs	r0, [r6], -r5, rrx
 58c:	69665f74 	stmdbvs	r6!, {r2, r4, r5, r6, r8, r9, sl, fp, ip, lr}^
 590:	5f646578 	svcpl	0x00646578
 594:	006c756d 	rsbeq	r7, ip, sp, ror #10
 598:	66696873 			; <UNDEFINED> instruction: 0x66696873
 59c:	66660074 			; <UNDEFINED> instruction: 0x66660074
 5a0:	00632e74 	rsbeq	r2, r3, r4, ror lr
 5a4:	64697774 	strbtvs	r7, [r9], #-1908	; 0xfffff88c
 5a8:	6165725f 	cmnvs	r5, pc, asr r2
 5ac:	6f72006c 	svcvs	0x0072006c
 5b0:	00646e75 	rsbeq	r6, r4, r5, ror lr
 5b4:	6c616373 	stclvs	3, cr6, [r1], #-460	; 0xfffffe34
 5b8:	66660065 	strbtvs	r0, [r6], -r5, rrx
 5bc:	69665f74 	stmdbvs	r6!, {r2, r4, r5, r6, r8, r9, sl, fp, ip, lr}^
 5c0:	5f646578 	svcpl	0x00646578
 5c4:	74666672 	strbtvc	r6, [r6], #-1650	; 0xfffff98e
 5c8:	6d657400 	cfstrdvs	mvd7, [r5, #-0]
 5cc:	6d695f70 	stclvs	15, cr5, [r9, #-448]!	; 0xfffffe40
 5d0:	66006761 	strvs	r6, [r0], -r1, ror #14
 5d4:	665f7466 	ldrbvs	r7, [pc], -r6, ror #8
 5d8:	64657869 	strbtvs	r7, [r5], #-2153	; 0xfffff797
 5dc:	6c756d5f 	ldclvs	13, cr6, [r5], #-380	; 0xfffffe84
 5e0:	3531715f 	ldrcc	r7, [r1, #-351]!	; 0xfffffea1
 5e4:	676f6c00 	strbvs	r6, [pc, -r0, lsl #24]!
 5e8:	5f6a5f32 	svcpl	0x006a5f32
 5ec:	69727473 	ldmdbvs	r2!, {r0, r1, r4, r5, r6, sl, ip, sp, lr}^
 5f0:	63006564 	movwvs	r6, #1380	; 0x564
 5f4:	5f727275 	svcpl	0x00727275
 5f8:	67616d69 	strbvs	r6, [r1, -r9, ror #26]!
 5fc:	72756300 	rsbsvc	r6, r5, #0, 6
 600:	46460072 			; <UNDEFINED> instruction: 0x46460072
 604:	49535f54 	ldmdbmi	r3, {r2, r4, r6, r8, r9, sl, fp, ip, lr}^
 608:	4c5f454e 	cfldr64mi	mvdx4, [pc], {78}	; 0x4e
 60c:	74005455 	strvc	r5, [r0], #-1109	; 0xfffffbab
 610:	5f706d65 	svcpl	0x00706d65
 614:	6c616572 	cfstr64vs	mvdx6, [r1], #-456	; 0xfffffe38
 618:	73616200 	cmnvc	r1, #0, 4
 61c:	6d695f65 	stclvs	15, cr5, [r9, #-404]!	; 0xfffffe6c
 620:	63006761 	movwvs	r6, #1889	; 0x761
 624:	5f727275 	svcpl	0x00727275
 628:	6c616572 	cfstr64vs	mvdx6, [r1], #-456	; 0xfffffe38
 62c:	554e4700 	strbpl	r4, [lr, #-1792]	; 0xfffff900
 630:	39394320 	ldmdbcc	r9!, {r5, r8, r9, lr}
 634:	322e3920 	eorcc	r3, lr, #32, 18	; 0x80000
 638:	3220312e 	eorcc	r3, r0, #-2147483637	; 0x8000000b
 63c:	31393130 	teqcc	r9, r0, lsr r1
 640:	20353230 	eorscs	r3, r5, r0, lsr r2
 644:	6c657228 	sfmvs	f7, 2, [r5], #-160	; 0xffffff60
 648:	65736165 	ldrbvs	r6, [r3, #-357]!	; 0xfffffe9b
 64c:	415b2029 	cmpmi	fp, r9, lsr #32
 650:	612f4d52 			; <UNDEFINED> instruction: 0x612f4d52
 654:	392d6d72 	pushcc	{r1, r4, r5, r6, r8, sl, fp, sp, lr}
 658:	6172622d 	cmnvs	r2, sp, lsr #4
 65c:	2068636e 	rsbcs	r6, r8, lr, ror #6
 660:	69766572 	ldmdbvs	r6!, {r1, r4, r5, r6, r8, sl, sp, lr}^
 664:	6e6f6973 			; <UNDEFINED> instruction: 0x6e6f6973
 668:	37373220 	ldrcc	r3, [r7, -r0, lsr #4]!
 66c:	5d393935 			; <UNDEFINED> instruction: 0x5d393935
 670:	636d2d20 	cmnvs	sp, #32, 26	; 0x800
 674:	613d7570 	teqvs	sp, r0, ror r5
 678:	31316d72 	teqcc	r1, r2, ror sp
 67c:	7a6a3637 	bvc	1a8df60 <__bss_end__+0x1a84150>
 680:	20732d66 	rsbscs	r2, r3, r6, ror #26
 684:	75746d2d 	ldrbvc	r6, [r4, #-3373]!	; 0xfffff2d3
 688:	613d656e 	teqvs	sp, lr, ror #10
 68c:	31316d72 	teqcc	r1, r2, ror sp
 690:	7a6a3637 	bvc	1a8df74 <__bss_end__+0x1a84164>
 694:	20732d66 	rsbscs	r2, r3, r6, ror #26
 698:	6c666d2d 	stclvs	13, cr6, [r6], #-180	; 0xffffff4c
 69c:	2d74616f 	ldfcse	f6, [r4, #-444]!	; 0xfffffe44
 6a0:	3d696261 	sfmcc	f6, 2, [r9, #-388]!	; 0xfffffe7c
 6a4:	74666f73 	strbtvc	r6, [r6], #-3955	; 0xfffff08d
 6a8:	616d2d20 	cmnvs	sp, r0, lsr #26
 6ac:	2d206d72 	stccs	13, cr6, [r0, #-456]!	; 0xfffffe38
 6b0:	6372616d 	cmnvs	r2, #1073741851	; 0x4000001b
 6b4:	72613d68 	rsbvc	r3, r1, #104, 26	; 0x1a00
 6b8:	6b36766d 	blvs	d9e074 <__bss_end__+0xd94264>
 6bc:	672d207a 			; <UNDEFINED> instruction: 0x672d207a
 6c0:	20626467 	rsbcs	r6, r2, r7, ror #8
 6c4:	6467672d 	strbtvs	r6, [r7], #-1837	; 0xfffff8d3
 6c8:	4f2d2062 	svcmi	0x002d2062
 6cc:	4f2d2067 	svcmi	0x002d2067
 6d0:	732d2067 			; <UNDEFINED> instruction: 0x732d2067
 6d4:	673d6474 			; <UNDEFINED> instruction: 0x673d6474
 6d8:	3939756e 	ldmdbcc	r9!, {r1, r2, r3, r5, r6, r8, sl, ip, sp, lr}
 6dc:	74732d20 	ldrbtvc	r2, [r3], #-3360	; 0xfffff2e0
 6e0:	6e673d64 	cdpvs	13, 6, cr3, cr7, cr4, {3}
 6e4:	20393975 	eorscs	r3, r9, r5, ror r9
 6e8:	7266662d 	rsbvc	r6, r6, #47185920	; 0x2d00000
 6ec:	74736565 	ldrbtvc	r6, [r3], #-1381	; 0xfffffa9b
 6f0:	69646e61 	stmdbvs	r4!, {r0, r5, r6, r9, sl, fp, sp, lr}^
 6f4:	6100676e 	tstvs	r0, lr, ror #14
 6f8:	00736772 	rsbseq	r6, r3, r2, ror r7
 6fc:	705f6176 	subsvc	r6, pc, r6, ror r1	; <UNPREDICTABLE>
 700:	746e6972 	strbtvc	r6, [lr], #-2418	; 0xfffff68e
 704:	5f5f006b 	svcpl	0x005f006b
 708:	63756e67 	cmnvs	r5, #1648	; 0x670
 70c:	5f61765f 	svcpl	0x0061765f
 710:	7473696c 	ldrbtvc	r6, [r3], #-2412	; 0xfffff694
 714:	73552f00 	cmpvc	r5, #0, 30
 718:	2f737265 	svccs	0x00737265
 71c:	63697265 	cmnvs	r9, #1342177286	; 0x50000006
 720:	72616562 	rsbvc	r6, r1, #411041792	; 0x18800000
 724:	636f442f 	cmnvs	pc, #788529152	; 0x2f000000
 728:	6e656d75 	mcrvs	13, 3, r6, cr5, cr5, {3}
 72c:	432f7374 			; <UNDEFINED> instruction: 0x432f7374
 730:	30343153 	eorscc	r3, r4, r3, asr r1
 734:	73632f45 	cmnvc	r3, #276	; 0x114
 738:	45303431 	ldrmi	r3, [r0, #-1073]!	; 0xfffffbcf
 73c:	6e69662d 	cdpvs	6, 6, cr6, cr9, cr13, {1}
 740:	702d6c61 	eorvc	r6, sp, r1, ror #24
 744:	656a6f72 	strbvs	r6, [sl, #-3954]!	; 0xfffff08e
 748:	6c2f7463 	cfstrsvs	mvf7, [pc], #-396	; 5c4 <__code_start__-0x7a3c>
 74c:	2d736269 	lfmcs	f6, 2, [r3, #-420]!	; 0xfffffe5c
 750:	6c303432 	cfldrsvs	mvf3, [r0], #-200	; 0xffffff38
 754:	696c2f78 	stmdbvs	ip!, {r3, r4, r5, r6, r8, r9, sl, fp, sp}^
 758:	00697062 	rsbeq	r7, r9, r2, rrx
 75c:	70615f5f 	rsbvc	r5, r1, pc, asr pc
 760:	6c2f2e00 	stcvs	14, cr2, [pc], #-0	; 768 <__code_start__-0x7898>
 764:	2f636269 	svccs	0x00636269
 768:	6e697270 	mcrvs	2, 3, r7, cr9, cr0, {3}
 76c:	632e6b74 			; <UNDEFINED> instruction: 0x632e6b74
 770:	765f5f00 	ldrbvc	r5, [pc], -r0, lsl #30
 774:	696c5f61 	stmdbvs	ip!, {r0, r5, r6, r8, r9, sl, fp, ip, lr}^
 778:	69007473 	stmdbvs	r0, {r0, r1, r4, r5, r6, sl, ip, sp, lr}
 77c:	7265746e 	rsbvc	r7, r5, #1845493760	; 0x6e000000
 780:	5f6c616e 	svcpl	0x006c616e
 784:	6b747570 	blvs	1d1dd4c <__bss_end__+0x1d13f3c>
 788:	6c2f2e00 	stcvs	14, cr2, [pc], #-0	; 790 <__code_start__-0x7870>
 78c:	2f636269 	svccs	0x00636269
 790:	6b747570 	blvs	1d1dd58 <__bss_end__+0x1d13f48>
 794:	6900632e 	stmdbvs	r0, {r1, r2, r3, r5, r8, r9, sp, lr}
 798:	67696473 			; <UNDEFINED> instruction: 0x67696473
 79c:	75007469 	strvc	r7, [r0, #-1129]	; 0xfffffb97
 7a0:	36746e69 	ldrbtcc	r6, [r4], -r9, ror #28
 7a4:	00745f34 	rsbseq	r5, r4, r4, lsr pc
 7a8:	696c2f2e 	stmdbvs	ip!, {r1, r2, r3, r5, r8, r9, sl, fp, sp}^
 7ac:	762f6362 	strtvc	r6, [pc], -r2, ror #6
 7b0:	72702d61 	rsbsvc	r2, r0, #6208	; 0x1840
 7b4:	6b746e69 	blvs	1d1c160 <__bss_end__+0x1d12350>
 7b8:	5f00632e 	svcpl	0x0000632e
 7bc:	646f635f 	strbtvs	r6, [pc], #-863	; 7c4 <__code_start__-0x783c>
 7c0:	74735f65 	ldrbtvc	r5, [r3], #-3941	; 0xfffff09b
 7c4:	5f747261 	svcpl	0x00747261
 7c8:	5f5f005f 	svcpl	0x005f005f
 7cc:	5f737362 	svcpl	0x00737362
 7d0:	72617473 	rsbvc	r7, r1, #1929379840	; 0x73000000
 7d4:	005f5f74 	subseq	r5, pc, r4, ror pc	; <UNPREDICTABLE>
 7d8:	74646977 	strbtvc	r6, [r4], #-2423	; 0xfffff689
 7dc:	5f5f0068 	svcpl	0x005f0068
 7e0:	61746164 	cmnvs	r4, r4, ror #2
 7e4:	646e655f 	strbtvs	r6, [lr], #-1375	; 0xfffffaa1
 7e8:	70005f5f 	andvc	r5, r0, pc, asr pc
 7ec:	5f637475 	svcpl	0x00637475
 7f0:	5f007066 	svcpl	0x00007066
 7f4:	7373625f 	cmnvc	r3, #-268435451	; 0xf0000005
 7f8:	646e655f 	strbtvs	r6, [lr], #-1375	; 0xfffffaa1
 7fc:	5f005f5f 	svcpl	0x00005f5f
 800:	6165685f 	cmnvs	r5, pc, asr r8
 804:	74735f70 	ldrbtvc	r5, [r3], #-3952	; 0xfffff090
 808:	5f747261 	svcpl	0x00747261
 80c:	7072005f 	rsbsvc	r0, r2, pc, asr r0
 810:	65735f69 	ldrbvs	r5, [r3, #-3945]!	; 0xfffff097
 814:	756f5f74 	strbvc	r5, [pc, #-3956]!	; fffff8a8 <__bss_end__+0xffff5a98>
 818:	74757074 	ldrbtvc	r7, [r5], #-116	; 0xffffff8c
 81c:	746d6600 	strbtvc	r6, [sp], #-1536	; 0xfffffa00
 820:	6174735f 	cmnvs	r4, pc, asr r3
 824:	73007472 	movwvc	r7, #1138	; 0x472
 828:	70637274 	rsbvc	r7, r3, r4, ror r2
 82c:	656e0079 	strbvs	r0, [lr, #-121]!	; 0xffffff87
 830:	00705f67 	rsbseq	r5, r0, r7, ror #30
 834:	316d756e 	cmncc	sp, lr, ror #10
 838:	635f5f00 	cmpvs	pc, #0, 30
 83c:	5f65646f 	svcpl	0x0065646f
 840:	5f646e65 	svcpl	0x00646e65
 844:	6d65005f 	stclvs	0, cr0, [r5, #-380]!	; 0xfffffe84
 848:	70007469 	andvc	r7, r0, r9, ror #8
 84c:	5f737475 	svcpl	0x00737475
 850:	72007066 	andvc	r7, r0, #102, 0	; 0x66
 854:	72657665 	rsbvc	r7, r5, #105906176	; 0x6500000
 858:	73006573 	movwvc	r6, #1395	; 0x573
 85c:	61637274 	smcvs	14116	; 0x3724
 860:	74730074 	ldrbtvc	r0, [r3], #-116	; 0xffffff8c
 864:	706d6372 	rsbvc	r6, sp, r2, ror r3
 868:	645f5f00 	ldrbvs	r5, [pc], #-3840	; 870 <__code_start__-0x7790>
 86c:	5f617461 	svcpl	0x00617461
 870:	72617473 	rsbvc	r7, r1, #1929379840	; 0x73000000
 874:	005f5f74 	subseq	r5, pc, r4, ror pc	; <UNPREDICTABLE>
 878:	72705f5f 	rsbsvc	r5, r0, #380	; 0x17c
 87c:	655f676f 	ldrbvs	r6, [pc, #-1903]	; 115 <__code_start__-0x7eeb>
 880:	5f5f646e 	svcpl	0x005f646e
 884:	72747300 	rsbsvc	r7, r4, #0, 6
 888:	706d636e 	rsbvc	r6, sp, lr, ror #6
 88c:	73616200 	cmnvc	r1, #0, 4
 890:	69730065 	ldmdbvs	r3!, {r0, r2, r5, r6}^
 894:	64656e67 	strbtvs	r6, [r5], #-3687	; 0xfffff199
 898:	7200705f 	andvc	r7, r0, #95, 0	; 0x5f
 89c:	725f6970 	subsvc	r6, pc, #112, 18	; 0x1c0000
 8a0:	6f6f6265 	svcvs	0x006f6265
 8a4:	65640074 	strbvs	r0, [r4, #-116]!	; 0xffffff8c
 8a8:	5f79616c 	svcpl	0x0079616c
 8ac:	2e00736d 	cdpcs	3, 0, cr7, cr0, cr13, {3}
 8b0:	6174732f 	cmnvs	r4, pc, lsr #6
 8b4:	732d6666 			; <UNDEFINED> instruction: 0x732d6666
 8b8:	632f6372 			; <UNDEFINED> instruction: 0x632f6372
 8bc:	6e61656c 	cdpvs	5, 6, cr6, cr1, cr12, {3}
 8c0:	6265722d 	rsbvs	r7, r5, #-805306366	; 0xd0000002
 8c4:	2e746f6f 	cdpcs	15, 7, cr6, cr4, cr15, {3}
 8c8:	61750063 	cmnvs	r5, r3, rrx
 8cc:	665f7472 			; <UNDEFINED> instruction: 0x665f7472
 8d0:	6873756c 	ldmdavs	r3!, {r2, r3, r5, r6, r8, sl, ip, sp, lr}^
 8d4:	0078745f 	rsbseq	r7, r8, pc, asr r4
 8d8:	7473635f 	ldrbtvc	r6, [r3], #-863	; 0xfffffca1
 8dc:	00747261 	rsbseq	r7, r4, r1, ror #4
 8e0:	5f737362 	svcpl	0x00737362
 8e4:	00646e65 	rsbeq	r6, r4, r5, ror #28
 8e8:	74726175 	ldrbtvc	r6, [r2], #-373	; 0xfffffe8b
 8ec:	696e695f 	stmdbvs	lr!, {r0, r1, r2, r3, r4, r6, r8, fp, sp, lr}^
 8f0:	75630074 	strbvc	r0, [r3, #-116]!	; 0xffffff8c
 8f4:	6d6f7473 	cfstrdvs	mvd7, [pc, #-460]!	; 730 <__code_start__-0x78d0>
 8f8:	616f6c5f 	cmnvs	pc, pc, asr ip	; <UNPREDICTABLE>
 8fc:	00726564 	rsbseq	r6, r2, r4, ror #10
 900:	74732f2e 	ldrbtvc	r2, [r3], #-3886	; 0xfffff0d2
 904:	2d666661 	stclcs	6, cr6, [r6, #-388]!	; 0xfffffe7c
 908:	2f637273 	svccs	0x00637273
 90c:	61747363 	cmnvs	r4, r3, ror #6
 910:	632e7472 			; <UNDEFINED> instruction: 0x632e7472
 914:	732f2e00 			; <UNDEFINED> instruction: 0x732f2e00
 918:	66666174 			; <UNDEFINED> instruction: 0x66666174
 91c:	6372732d 	cmnvs	r2, #-1275068416	; 0xb4000000
 920:	7375632f 	cmnvc	r5, #-1140850688	; 0xbc000000
 924:	2d6d6f74 	stclcs	15, cr6, [sp, #-464]!	; 0xfffffe30
 928:	64616f6c 	strbtvs	r6, [r1], #-3948	; 0xfffff094
 92c:	632e7265 			; <UNDEFINED> instruction: 0x632e7265
 930:	62657200 	rsbvs	r7, r5, #0, 4
 934:	5f746f6f 	svcpl	0x00746f6f
 938:	6c6c6163 	stfvse	f6, [ip], #-396	; 0xfffffe74
 93c:	0074756f 	rsbseq	r7, r4, pc, ror #10
 940:	575f4d50 			; <UNDEFINED> instruction: 0x575f4d50
 944:	00474f44 	subeq	r4, r7, r4, asr #30
 948:	5f746573 	svcpl	0x00746573
 94c:	72657375 	rsbvc	r7, r5, #-738197503	; 0xd4000001
 950:	76656c5f 			; <UNDEFINED> instruction: 0x76656c5f
 954:	2e006c65 	cdpcs	12, 0, cr6, cr0, cr5, {3}
 958:	6174732f 	cmnvs	r4, pc, lsr #6
 95c:	732d6666 			; <UNDEFINED> instruction: 0x732d6666
 960:	722f6372 	eorvc	r6, pc, #-939524095	; 0xc8000001
 964:	6f6f6265 	svcvs	0x006f6265
 968:	00632e74 	rsbeq	r2, r3, r4, ror lr
 96c:	505f4d50 	subspl	r4, pc, r0, asr sp	; <UNPREDICTABLE>
 970:	57535341 	ldrbpl	r5, [r3, -r1, asr #6]
 974:	0044524f 	subeq	r5, r4, pc, asr #4
 978:	755f7461 	ldrbvc	r7, [pc, #-1121]	; 51f <__code_start__-0x7ae1>
 97c:	5f726573 	svcpl	0x00726573
 980:	6576656c 	ldrbvs	r6, [r6, #-1388]!	; 0xfffffa94
 984:	4d50006c 	ldclmi	0, cr0, [r0, #-432]	; 0xfffffe50
 988:	5453525f 	ldrbpl	r5, [r3], #-607	; 0xfffffda1
 98c:	52575f43 	subspl	r5, r7, #268	; 0x10c
 990:	5f474643 	svcpl	0x00474643
 994:	4c4c5546 	cfstr64mi	mvdx5, [ip], {70}	; 0x46
 998:	5345525f 	movtpl	r5, #21087	; 0x525f
 99c:	50005445 	andpl	r5, r0, r5, asr #8
 9a0:	53525f4d 	cmppl	r2, #308	; 0x134
 9a4:	63004354 	movwvs	r4, #852	; 0x354
 9a8:	00727370 	rsbseq	r7, r2, r0, ror r3
 9ac:	616c6564 	cmnvs	ip, r4, ror #10
 9b0:	65735f79 	ldrbvs	r5, [r3, #-3961]!	; 0xfffff087
 9b4:	2f2e0063 	svccs	0x002e0063
 9b8:	66617473 			; <UNDEFINED> instruction: 0x66617473
 9bc:	72732d66 	rsbsvc	r2, r3, #6528	; 0x1980
 9c0:	69742f63 	ldmdbvs	r4!, {r0, r1, r5, r6, r8, r9, sl, fp, sp}^
 9c4:	2e72656d 	cdpcs	5, 7, cr6, cr2, cr13, {3}
 9c8:	65640063 	strbvs	r0, [r4, #-99]!	; 0xffffff9d
 9cc:	5f79616c 	svcpl	0x0079616c
 9d0:	74007375 	strvc	r7, [r0], #-885	; 0xfffffc8b
 9d4:	72656d69 	rsbvc	r6, r5, #6720	; 0x1a40
 9d8:	7465675f 	strbtvc	r6, [r5], #-1887	; 0xfffff8a1
 9dc:	6573755f 	ldrbvs	r7, [r3, #-1375]!	; 0xfffffaa1
 9e0:	61725f63 	cmnvs	r2, r3, ror #30
 9e4:	70670077 	rsbvc	r0, r7, r7, ror r0
 9e8:	635f6f69 	cmpvs	pc, #420	; 0x1a4
 9ec:	0030726c 	eorseq	r7, r0, ip, ror #4
 9f0:	6f697067 	svcvs	0x00697067
 9f4:	7465735f 	strbtvc	r7, [r5], #-863	; 0xfffffca1
 9f8:	70670030 	rsbvc	r0, r7, r0, lsr r0
 9fc:	775f6f69 	ldrbvc	r6, [pc, -r9, ror #30]
 a00:	65746972 	ldrbvs	r6, [r4, #-2418]!	; 0xfffff68e
 a04:	56454400 	strbpl	r4, [r5], -r0, lsl #8
 a08:	4c41565f 	mcrrmi	6, 5, r5, r1, cr15
 a0c:	67003233 	smladxvs	r0, r3, r2, r3
 a10:	5f6f6970 	svcpl	0x006f6970
 a14:	64616572 	strbtvs	r6, [r1], #-1394	; 0xfffffa8e
 a18:	69706700 	ldmdbvs	r0!, {r8, r9, sl, sp, lr}^
 a1c:	65735f6f 	ldrbvs	r5, [r3, #-3951]!	; 0xfffff091
 a20:	6e695f74 	mcrvs	15, 3, r5, cr9, cr4, {3}
 a24:	00747570 	rsbseq	r7, r4, r0, ror r5
 a28:	6d6f682f 	stclvs	8, cr6, [pc, #-188]!	; 974 <__code_start__-0x768c>
 a2c:	6e652f65 	cdpvs	15, 6, cr2, cr5, cr5, {3}
 a30:	72656c67 	rsbvc	r6, r5, #26368	; 0x6700
 a34:	616c632f 	cmnvs	ip, pc, lsr #6
 a38:	632f7373 			; <UNDEFINED> instruction: 0x632f7373
 a3c:	30343273 	eorscc	r3, r4, r3, ror r2
 a40:	322d786c 	eorcc	r7, sp, #108, 16	; 0x6c0000
 a44:	72707332 	rsbsvc	r7, r0, #-939524096	; 0xc8000000
 a48:	62696c2f 	rsbvs	r6, r9, #12032	; 0x2f00
 a4c:	732f6970 			; <UNDEFINED> instruction: 0x732f6970
 a50:	66666174 			; <UNDEFINED> instruction: 0x66666174
 a54:	6972702d 	ldmdbvs	r2!, {r0, r2, r3, r5, ip, sp, lr}^
 a58:	65746176 	ldrbvs	r6, [r4, #-374]!	; 0xfffffe8a
 a5c:	69706700 	ldmdbvs	r0!, {r8, r9, sl, sp, lr}^
 a60:	65735f6f 	ldrbvs	r5, [r3, #-3951]!	; 0xfffff091
 a64:	666f5f74 	uqsub16vs	r5, pc, r4	; <UNPREDICTABLE>
 a68:	70670066 	rsbvc	r0, r7, r6, rrx
 a6c:	735f6f69 	cmpvc	pc, #420	; 0x1a4
 a70:	6f5f7465 	svcvs	0x005f7465
 a74:	75707475 	ldrbvc	r7, [r0, #-1141]!	; 0xfffffb8b
 a78:	75660074 	strbvc	r0, [r6, #-116]!	; 0xffffff8c
 a7c:	6700636e 	strvs	r6, [r0, -lr, ror #6]
 a80:	5f6f6970 	svcpl	0x006f6970
 a84:	636e7566 	cmnvs	lr, #427819008	; 0x19800000
 a88:	4700745f 	smlsdmi	r0, pc, r4, r7	; <UNPREDICTABLE>
 a8c:	4320554e 			; <UNDEFINED> instruction: 0x4320554e
 a90:	31203939 			; <UNDEFINED> instruction: 0x31203939
 a94:	2e332e30 	mrccs	14, 1, r2, cr3, cr0, {1}
 a98:	30322031 	eorscc	r2, r2, r1, lsr r0
 a9c:	38303132 	ldmdacc	r0!, {r1, r4, r5, r8, ip, sp}
 aa0:	28203432 	stmdacs	r0!, {r1, r4, r5, sl, ip, sp}
 aa4:	656c6572 	strbvs	r6, [ip, #-1394]!	; 0xfffffa8e
 aa8:	29657361 	stmdbcs	r5!, {r0, r5, r6, r8, r9, ip, sp, lr}^
 aac:	636d2d20 	cmnvs	sp, #32, 26	; 0x800
 ab0:	613d7570 	teqvs	sp, r0, ror r5
 ab4:	31316d72 	teqcc	r1, r2, ror sp
 ab8:	7a6a3637 	bvc	1a8e39c <__bss_end__+0x1a8458c>
 abc:	20732d66 	rsbscs	r2, r3, r6, ror #26
 ac0:	75746d2d 	ldrbvc	r6, [r4, #-3373]!	; 0xfffff2d3
 ac4:	613d656e 	teqvs	sp, lr, ror #10
 ac8:	31316d72 	teqcc	r1, r2, ror sp
 acc:	7a6a3637 	bvc	1a8e3b0 <__bss_end__+0x1a845a0>
 ad0:	20732d66 	rsbscs	r2, r3, r6, ror #26
 ad4:	6c666d2d 	stclvs	13, cr6, [r6], #-180	; 0xffffff4c
 ad8:	2d74616f 	ldfcse	f6, [r4, #-444]!	; 0xfffffe44
 adc:	3d696261 	sfmcc	f6, 2, [r9, #-388]!	; 0xfffffe7c
 ae0:	74666f73 	strbtvc	r6, [r6], #-3955	; 0xfffff08d
 ae4:	616d2d20 	cmnvs	sp, r0, lsr #26
 ae8:	2d206d72 	stccs	13, cr6, [r0, #-456]!	; 0xfffffe38
 aec:	6372616d 	cmnvs	r2, #1073741851	; 0x4000001b
 af0:	72613d68 	rsbvc	r3, r1, #104, 26	; 0x1a00
 af4:	6b36766d 	blvs	d9e4b0 <__bss_end__+0xd946a0>
 af8:	672d207a 			; <UNDEFINED> instruction: 0x672d207a
 afc:	20626467 	rsbcs	r6, r2, r7, ror #8
 b00:	20674f2d 	rsbcs	r4, r7, sp, lsr #30
 b04:	6474732d 	ldrbtvs	r7, [r4], #-813	; 0xfffffcd3
 b08:	756e673d 	strbvc	r6, [lr, #-1853]!	; 0xfffff8c3
 b0c:	2d203939 			; <UNDEFINED> instruction: 0x2d203939
 b10:	65726666 	ldrbvs	r6, [r2, #-1638]!	; 0xfffff99a
 b14:	61747365 	cmnvs	r4, r5, ror #6
 b18:	6e69646e 	cdpvs	4, 6, cr6, cr9, cr14, {3}
 b1c:	70670067 	rsbvc	r0, r7, r7, rrx
 b20:	6c5f6f69 	mrrcvs	15, 6, r6, pc, cr9	; <UNPREDICTABLE>
 b24:	00307665 	eorseq	r7, r0, r5, ror #12
 b28:	6b6e6162 	blvs	1b990b8 <__bss_end__+0x1b8f2a8>
 b2c:	69706700 	ldmdbvs	r0!, {r8, r9, sl, sp, lr}^
 b30:	00632e6f 	rsbeq	r2, r3, pc, ror #28
 b34:	33747570 	cmncc	r4, #112, 10	; 0x1c000000
 b38:	61620032 	cmnvs	r2, r2, lsr r0
 b3c:	765f6475 			; <UNDEFINED> instruction: 0x765f6475
 b40:	73006c61 	movwvc	r6, #3169	; 0xc61
 b44:	00746174 	rsbseq	r6, r4, r4, ror r1
 b48:	74726175 	ldrbtvc	r6, [r2], #-373	; 0xfffffe8b
 b4c:	6e61635f 	mcrvs	3, 3, r6, cr1, cr15, {2}
 b50:	7465675f 	strbtvc	r6, [r5], #-1887	; 0xfffff8a1
 b54:	75610063 	strbvc	r0, [r1, #-99]!	; 0xffffff9d
 b58:	65705f78 	ldrbvs	r5, [r0, #-3960]!	; 0xfffff088
 b5c:	68706972 	ldmdavs	r0!, {r1, r4, r5, r6, r8, fp, sp, lr}^
 b60:	61750073 	cmnvs	r5, r3, ror r0
 b64:	632e7472 			; <UNDEFINED> instruction: 0x632e7472
 b68:	72617500 	rsbvc	r7, r1, #0, 10
 b6c:	61635f74 	smcvs	13812	; 0x35f4
 b70:	75705f6e 	ldrbvc	r5, [r0, #-3950]!	; 0xfffff092
 b74:	61006374 	tstvs	r0, r4, ror r3
 b78:	00726464 	rsbseq	r6, r2, r4, ror #8
 b7c:	74726175 	ldrbtvc	r6, [r2], #-373	; 0xfffffe8b
 b80:	5f78745f 	svcpl	0x0078745f
 b84:	655f7369 	ldrbvs	r7, [pc, #-873]	; 823 <__code_start__-0x77dd>
 b88:	7974706d 	ldmdbvc	r4!, {r0, r2, r3, r5, r6, ip, sp, lr}^
 b8c:	75616200 	strbvc	r6, [r1, #-512]!	; 0xfffffe00
 b90:	75610064 	strbvc	r0, [r1, #-100]!	; 0xffffff9c
 b94:	6e655f78 	mcrvs	15, 3, r5, cr5, cr8, {3}
 b98:	656c6261 	strbvs	r6, [ip, #-609]!	; 0xfffffd9f
 b9c:	61750073 	cmnvs	r5, r3, ror r0
 ba0:	675f7472 			; <UNDEFINED> instruction: 0x675f7472
 ba4:	00637465 	rsbeq	r7, r3, r5, ror #8
 ba8:	6c746e63 	ldclvs	14, cr6, [r4], #-396	; 0xfffffe74
 bac:	72617500 	rsbvc	r7, r1, #0, 10
 bb0:	69645f74 	stmdbvs	r4!, {r2, r4, r5, r6, r8, r9, sl, fp, ip, lr}^
 bb4:	6c626173 	stfvse	f6, [r2], #-460	; 0xfffffe34
 bb8:	61750065 	cmnvs	r5, r5, rrx
 bbc:	685f7472 	ldmdavs	pc, {r1, r4, r5, r6, sl, ip, sp, lr}^	; <UNPREDICTABLE>
 bc0:	645f7361 	ldrbvs	r7, [pc], #-865	; bc8 <__code_start__-0x7438>
 bc4:	00617461 	rsbeq	r7, r1, r1, ror #8
 bc8:	695f726f 	ldmdbvs	pc, {r0, r1, r2, r3, r5, r6, r9, ip, sp, lr}^	; <UNPREDICTABLE>
 bcc:	0032336e 	eorseq	r3, r2, lr, ror #6
 bd0:	61726373 	cmnvs	r2, r3, ror r3
 bd4:	00686374 	rsbeq	r6, r8, r4, ror r3
 bd8:	74726175 	ldrbtvc	r6, [r2], #-373	; 0xfffffe8b
 bdc:	646e6100 	strbtvs	r6, [lr], #-256	; 0xffffff00
 be0:	336e695f 	cmncc	lr, #1556480	; 0x17c000
 be4:	61750032 	cmnvs	r5, r2, lsr r0
 be8:	705f7472 	subsvc	r7, pc, r2, ror r4	; <UNPREDICTABLE>
 bec:	00637475 	rsbeq	r7, r3, r5, ror r4
 bf0:	33746567 	cmncc	r4, #432013312	; 0x19c00000
 bf4:	6e690032 	mcrvs	0, 3, r0, cr9, cr2, {1}
 bf8:	6e726574 	mrcvs	5, 3, r6, cr2, cr4, {3}
 bfc:	705f6c61 	subsvc	r6, pc, r1, ror #24
 c00:	68637475 	stmdavs	r3!, {r0, r2, r4, r5, r6, sl, ip, sp, lr}^
 c04:	72007261 	andvc	r7, r0, #268435462	; 0x10000006
 c08:	735f6970 	cmpvc	pc, #112, 18	; 0x1c0000
 c0c:	705f7465 	subsvc	r7, pc, r5, ror #8
 c10:	00637475 	rsbeq	r7, r3, r5, ror r4
 c14:	696c2f2e 	stmdbvs	ip!, {r1, r2, r3, r5, r8, r9, sl, fp, sp}^
 c18:	702f6362 	eorvc	r6, pc, r2, ror #6
 c1c:	68637475 	stmdavs	r3!, {r0, r2, r4, r5, r6, sl, ip, sp, lr}^
 c20:	632e7261 			; <UNDEFINED> instruction: 0x632e7261
 c24:	69707200 	ldmdbvs	r0!, {r9, ip, sp, lr}^
 c28:	7365725f 	cmnvc	r5, #-268435451	; 0xf0000005
 c2c:	705f7465 	subsvc	r7, pc, r5, ror #8
 c30:	00637475 	rsbeq	r7, r3, r5, ror r4
 c34:	74736564 	ldrbtvc	r6, [r3], #-1380	; 0xfffffa9c
 c38:	6c2f2e00 	stcvs	14, cr2, [pc], #-0	; c40 <__code_start__-0x73c0>
 c3c:	2f636269 	svccs	0x00636269
 c40:	63727473 	cmnvs	r2, #1929379840	; 0x73000000
 c44:	632e7461 			; <UNDEFINED> instruction: 0x632e7461
 c48:	6c2f2e00 	stcvs	14, cr2, [pc], #-0	; c50 <__code_start__-0x73b0>
 c4c:	2f636269 	svccs	0x00636269
 c50:	63727473 	cmnvs	r2, #1929379840	; 0x73000000
 c54:	632e706d 			; <UNDEFINED> instruction: 0x632e706d
 c58:	6c2f2e00 	stcvs	14, cr2, [pc], #-0	; c60 <__code_start__-0x73a0>
 c5c:	2f636269 	svccs	0x00636269
 c60:	63727473 	cmnvs	r2, #1929379840	; 0x73000000
 c64:	632e7970 			; <UNDEFINED> instruction: 0x632e7970
 c68:	7a697300 	bvc	1a5d870 <__bss_end__+0x1a53a60>
 c6c:	00745f65 	rsbseq	r5, r4, r5, ror #30
 c70:	696c2f2e 	stmdbvs	ip!, {r1, r2, r3, r5, r8, r9, sl, fp, sp}^
 c74:	732f6362 			; <UNDEFINED> instruction: 0x732f6362
 c78:	636e7274 	cmnvs	lr, #116, 4	; 0x40000007
 c7c:	632e706d 			; <UNDEFINED> instruction: 0x632e706d
 c80:	732f2e00 			; <UNDEFINED> instruction: 0x732f2e00
 c84:	66666174 			; <UNDEFINED> instruction: 0x66666174
 c88:	6372732d 	cmnvs	r2, #-1275068416	; 0xb4000000
 c8c:	6665642f 	strbtvs	r6, [r5], -pc, lsr #8
 c90:	746c7561 	strbtvc	r7, [ip], #-1377	; 0xfffffa9f
 c94:	6265722d 	rsbvs	r7, r5, #-805306366	; 0xd0000002
 c98:	2d746f6f 	ldclcs	15, cr6, [r4, #-444]!	; 0xfffffe44
 c9c:	6c6c6163 	stfvse	f6, [ip], #-396	; 0xfffffe74
 ca0:	2e74756f 	cdpcs	5, 7, cr7, cr4, cr15, {3}
 ca4:	Address 0x0000000000000ca4 is out of bounds.


Disassembly of section .debug_frame:

00000000 <.debug_frame>:
   0:	0000000c 	andeq	r0, r0, ip
   4:	ffffffff 			; <UNDEFINED> instruction: 0xffffffff
   8:	7c020001 	stcvc	0, cr0, [r2], {1}
   c:	000d0c0e 	andeq	r0, sp, lr, lsl #24
  10:	00000020 	andeq	r0, r0, r0, lsr #32
  14:	00000000 	andeq	r0, r0, r0
  18:	00008038 	andeq	r8, r0, r8, lsr r0
  1c:	0000007c 	andeq	r0, r0, ip, ror r0
  20:	840c0e44 	strhi	r0, [ip], #-3652	; 0xfffff1bc
  24:	8e028503 	cfsh32hi	mvfx8, mvfx2, #3
  28:	8c0e4201 	sfmhi	f4, 4, [lr], {1}
  2c:	900e4208 	andls	r4, lr, r8, lsl #4
  30:	00000008 	andeq	r0, r0, r8
  34:	0000000c 	andeq	r0, r0, ip
  38:	ffffffff 			; <UNDEFINED> instruction: 0xffffffff
  3c:	7c020001 	stcvc	0, cr0, [r2], {1}
  40:	000d0c0e 	andeq	r0, sp, lr, lsl #24
  44:	00000014 	andeq	r0, r0, r4, lsl r0
  48:	00000034 	andeq	r0, r0, r4, lsr r0
  4c:	000080b4 	strheq	r8, [r0], -r4
  50:	00000038 	andeq	r0, r0, r8, lsr r0
  54:	8e040e42 	cdphi	14, 0, cr0, cr4, cr2, {2}
  58:	100e4401 	andne	r4, lr, r1, lsl #8
  5c:	0000000c 	andeq	r0, r0, ip
  60:	00000034 	andeq	r0, r0, r4, lsr r0
  64:	000080ec 	andeq	r8, r0, ip, ror #1
  68:	00000008 	andeq	r0, r0, r8
  6c:	00000024 	andeq	r0, r0, r4, lsr #32
  70:	00000034 	andeq	r0, r0, r4, lsr r0
  74:	000080f4 	strdeq	r8, [r0], -r4
  78:	00000160 	andeq	r0, r0, r0, ror #2
  7c:	84080e42 	strhi	r0, [r8], #-3650	; 0xfffff1be
  80:	44018e02 	strmi	r8, [r1], #-3586	; 0xfffff1fe
  84:	8002100e 	andhi	r1, r2, lr
  88:	42080e0a 	andmi	r0, r8, #160	; 0xa0
  8c:	000ec4ce 	andeq	ip, lr, lr, asr #9
  90:	00000b42 	andeq	r0, r0, r2, asr #22
  94:	00000018 	andeq	r0, r0, r8, lsl r0
  98:	00000034 	andeq	r0, r0, r4, lsr r0
  9c:	00008254 	andeq	r8, r0, r4, asr r2
  a0:	00000030 	andeq	r0, r0, r0, lsr r0
  a4:	84080e42 	strhi	r0, [r8], #-3650	; 0xfffff1be
  a8:	4e018e02 	cdpmi	14, 0, cr8, cr1, cr2, {0}
  ac:	000ec4ce 	andeq	ip, lr, lr, asr #9
  b0:	0000000c 	andeq	r0, r0, ip
  b4:	ffffffff 			; <UNDEFINED> instruction: 0xffffffff
  b8:	7c020001 	stcvc	0, cr0, [r2], {1}
  bc:	000d0c0e 	andeq	r0, sp, lr, lsl #24
  c0:	0000001c 	andeq	r0, r0, ip, lsl r0
  c4:	000000b0 	strheq	r0, [r0], -r0	; <UNPREDICTABLE>
  c8:	00008284 	andeq	r8, r0, r4, lsl #5
  cc:	000000dc 	ldrdeq	r0, [r0], -ip
  d0:	84180e42 	ldrhi	r0, [r8], #-3650	; 0xfffff1be
  d4:	86058506 	strhi	r8, [r5], -r6, lsl #10
  d8:	88038704 	stmdahi	r3, {r2, r8, r9, sl, pc}
  dc:	00018e02 	andeq	r8, r1, r2, lsl #28
  e0:	00000014 	andeq	r0, r0, r4, lsl r0
  e4:	000000b0 	strheq	r0, [r0], -r0	; <UNPREDICTABLE>
  e8:	00008360 	andeq	r8, r0, r0, ror #6
  ec:	00000028 	andeq	r0, r0, r8, lsr #32
  f0:	84080e44 	strhi	r0, [r8], #-3652	; 0xfffff1bc
  f4:	00018e02 	andeq	r8, r1, r2, lsl #28
  f8:	0000000c 	andeq	r0, r0, ip
  fc:	ffffffff 			; <UNDEFINED> instruction: 0xffffffff
 100:	7c020001 	stcvc	0, cr0, [r2], {1}
 104:	000d0c0e 	andeq	r0, sp, lr, lsl #24
 108:	00000034 	andeq	r0, r0, r4, lsr r0
 10c:	000000f8 	strdeq	r0, [r0], -r8
 110:	00008388 	andeq	r8, r0, r8, lsl #7
 114:	00000058 	andeq	r0, r0, r8, asr r0
 118:	80100e42 	andshi	r0, r0, r2, asr #28
 11c:	82038104 	andhi	r8, r3, #1
 120:	42018302 	andmi	r8, r1, #134217728	; 0x8000000
 124:	07841c0e 	streq	r1, [r4, lr, lsl #24]
 128:	058e0685 	streq	r0, [lr, #1669]	; 0x685
 12c:	5c280e42 	stcpl	14, cr0, [r8], #-264	; 0xfffffef8
 130:	ce421c0e 	cdpgt	12, 4, cr1, cr2, cr14, {0}
 134:	100ec4c5 	andne	ip, lr, r5, asr #9
 138:	c1c2c342 	bicgt	ip, r2, r2, asr #6
 13c:	00000ec0 	andeq	r0, r0, r0, asr #29
 140:	0000000c 	andeq	r0, r0, ip
 144:	ffffffff 			; <UNDEFINED> instruction: 0xffffffff
 148:	7c020001 	stcvc	0, cr0, [r2], {1}
 14c:	000d0c0e 	andeq	r0, sp, lr, lsl #24
 150:	00000014 	andeq	r0, r0, r4, lsl r0
 154:	00000140 	andeq	r0, r0, r0, asr #2
 158:	000083e0 	andeq	r8, r0, r0, ror #7
 15c:	00000034 	andeq	r0, r0, r4, lsr r0
 160:	84080e42 	strhi	r0, [r8], #-3650	; 0xfffff1be
 164:	00018e02 	andeq	r8, r1, r2, lsl #28
 168:	0000000c 	andeq	r0, r0, ip
 16c:	ffffffff 			; <UNDEFINED> instruction: 0xffffffff
 170:	7c020001 	stcvc	0, cr0, [r2], {1}
 174:	000d0c0e 	andeq	r0, sp, lr, lsl #24
 178:	0000000c 	andeq	r0, r0, ip
 17c:	00000168 	andeq	r0, r0, r8, ror #2
 180:	00008414 	andeq	r8, r0, r4, lsl r4
 184:	00000014 	andeq	r0, r0, r4, lsl r0
 188:	0000000c 	andeq	r0, r0, ip
 18c:	00000168 	andeq	r0, r0, r8, ror #2
 190:	00008428 	andeq	r8, r0, r8, lsr #8
 194:	00000024 	andeq	r0, r0, r4, lsr #32
 198:	0000000c 	andeq	r0, r0, ip
 19c:	00000168 	andeq	r0, r0, r8, ror #2
 1a0:	0000844c 	andeq	r8, r0, ip, asr #8
 1a4:	00000038 	andeq	r0, r0, r8, lsr r0
 1a8:	00000024 	andeq	r0, r0, r4, lsr #32
 1ac:	00000168 	andeq	r0, r0, r8, ror #2
 1b0:	00008484 	andeq	r8, r0, r4, lsl #9
 1b4:	000001b4 			; <UNDEFINED> instruction: 0x000001b4
 1b8:	84140e42 	ldrhi	r0, [r4], #-3650	; 0xfffff1be
 1bc:	86048505 	strhi	r8, [r4], -r5, lsl #10
 1c0:	8e028703 	cdphi	7, 0, cr8, cr2, cr3, {0}
 1c4:	600e4201 	andvs	r4, lr, r1, lsl #4
 1c8:	0e0a9a02 	vmlaeq.f32	s18, s20, s4
 1cc:	000b4214 	andeq	r4, fp, r4, lsl r2
 1d0:	00000014 	andeq	r0, r0, r4, lsl r0
 1d4:	00000168 	andeq	r0, r0, r8, ror #2
 1d8:	00008638 	andeq	r8, r0, r8, lsr r6
 1dc:	00000064 	andeq	r0, r0, r4, rrx
 1e0:	8e040e54 	mcrhi	14, 0, r0, cr4, cr4, {2}
 1e4:	100e4201 	andne	r4, lr, r1, lsl #4
 1e8:	0000002c 	andeq	r0, r0, ip, lsr #32
 1ec:	00000168 	andeq	r0, r0, r8, ror #2
 1f0:	0000869c 	muleq	r0, ip, r6
 1f4:	000004b8 			; <UNDEFINED> instruction: 0x000004b8
 1f8:	84240e42 	strthi	r0, [r4], #-3650	; 0xfffff1be
 1fc:	86088509 	strhi	r8, [r8], -r9, lsl #10
 200:	88068707 	stmdahi	r6, {r0, r1, r2, r8, r9, sl, pc}
 204:	8a048905 	bhi	122620 <__bss_end__+0x118810>
 208:	8e028b03 	vmlahi.f64	d8, d2, d3
 20c:	b80e4201 	stmdalt	lr, {r0, r9, lr}
 210:	02380302 	eorseq	r0, r8, #134217728	; 0x8000000
 214:	0000240e 	andeq	r2, r0, lr, lsl #8
 218:	0000000c 	andeq	r0, r0, ip
 21c:	ffffffff 			; <UNDEFINED> instruction: 0xffffffff
 220:	7c020001 	stcvc	0, cr0, [r2], {1}
 224:	000d0c0e 	andeq	r0, sp, lr, lsl #24
 228:	00000014 	andeq	r0, r0, r4, lsl r0
 22c:	00000218 	andeq	r0, r0, r8, lsl r2
 230:	00008b54 	andeq	r8, r0, r4, asr fp
 234:	0000002c 	andeq	r0, r0, ip, lsr #32
 238:	84080e42 	strhi	r0, [r8], #-3650	; 0xfffff1be
 23c:	00018e02 	andeq	r8, r1, r2, lsl #28
 240:	0000000c 	andeq	r0, r0, ip
 244:	ffffffff 			; <UNDEFINED> instruction: 0xffffffff
 248:	7c020001 	stcvc	0, cr0, [r2], {1}
 24c:	000d0c0e 	andeq	r0, sp, lr, lsl #24
 250:	00000014 	andeq	r0, r0, r4, lsl r0
 254:	00000240 	andeq	r0, r0, r0, asr #4
 258:	00008b80 	andeq	r8, r0, r0, lsl #23
 25c:	0000003c 	andeq	r0, r0, ip, lsr r0
 260:	84080e42 	strhi	r0, [r8], #-3650	; 0xfffff1be
 264:	00018e02 	andeq	r8, r1, r2, lsl #28
 268:	0000000c 	andeq	r0, r0, ip
 26c:	ffffffff 			; <UNDEFINED> instruction: 0xffffffff
 270:	7c020001 	stcvc	0, cr0, [r2], {1}
 274:	000d0c0e 	andeq	r0, sp, lr, lsl #24
 278:	0000000c 	andeq	r0, r0, ip
 27c:	00000268 	andeq	r0, r0, r8, ror #4
 280:	00008bbc 			; <UNDEFINED> instruction: 0x00008bbc
 284:	00000004 	andeq	r0, r0, r4
 288:	0000000c 	andeq	r0, r0, ip
 28c:	ffffffff 			; <UNDEFINED> instruction: 0xffffffff
 290:	7c020001 	stcvc	0, cr0, [r2], {1}
 294:	000d0c0e 	andeq	r0, sp, lr, lsl #24
 298:	0000000c 	andeq	r0, r0, ip
 29c:	00000288 	andeq	r0, r0, r8, lsl #5
 2a0:	00008bd8 	ldrdeq	r8, [r0], -r8	; <UNPREDICTABLE>
 2a4:	00000018 	andeq	r0, r0, r8, lsl r0
 2a8:	0000000c 	andeq	r0, r0, ip
 2ac:	00000288 	andeq	r0, r0, r8, lsl #5
 2b0:	00008bf0 	strdeq	r8, [r0], -r0
 2b4:	00000014 	andeq	r0, r0, r4, lsl r0
 2b8:	00000014 	andeq	r0, r0, r4, lsl r0
 2bc:	00000288 	andeq	r0, r0, r8, lsl #5
 2c0:	00008c04 	andeq	r8, r0, r4, lsl #24
 2c4:	00000054 	andeq	r0, r0, r4, asr r0
 2c8:	84080e42 	strhi	r0, [r8], #-3650	; 0xfffff1be
 2cc:	00018e02 	andeq	r8, r1, r2, lsl #28
 2d0:	0000000c 	andeq	r0, r0, ip
 2d4:	ffffffff 			; <UNDEFINED> instruction: 0xffffffff
 2d8:	7c020001 	stcvc	0, cr0, [r2], {1}
 2dc:	000d0c0e 	andeq	r0, sp, lr, lsl #24
 2e0:	00000014 	andeq	r0, r0, r4, lsl r0
 2e4:	000002d0 	ldrdeq	r0, [r0], -r0	; <UNPREDICTABLE>
 2e8:	00008c58 	andeq	r8, r0, r8, asr ip
 2ec:	00000014 	andeq	r0, r0, r4, lsl r0
 2f0:	84080e42 	strhi	r0, [r8], #-3650	; 0xfffff1be
 2f4:	00018e02 	andeq	r8, r1, r2, lsl #28
 2f8:	00000014 	andeq	r0, r0, r4, lsl r0
 2fc:	000002d0 	ldrdeq	r0, [r0], -r0	; <UNPREDICTABLE>
 300:	00008c6c 	andeq	r8, r0, ip, ror #24
 304:	0000001c 	andeq	r0, r0, ip, lsl r0
 308:	84080e42 	strhi	r0, [r8], #-3650	; 0xfffff1be
 30c:	00018e02 	andeq	r8, r1, r2, lsl #28
 310:	00000018 	andeq	r0, r0, r8, lsl r0
 314:	000002d0 	ldrdeq	r0, [r0], -r0	; <UNPREDICTABLE>
 318:	00008c88 	andeq	r8, r0, r8, lsl #25
 31c:	00000024 	andeq	r0, r0, r4, lsr #32
 320:	84100e42 	ldrhi	r0, [r0], #-3650	; 0xfffff1be
 324:	86038504 	strhi	r8, [r3], -r4, lsl #10
 328:	00018e02 	andeq	r8, r1, r2, lsl #28
 32c:	00000014 	andeq	r0, r0, r4, lsl r0
 330:	000002d0 	ldrdeq	r0, [r0], -r0	; <UNPREDICTABLE>
 334:	00008cac 	andeq	r8, r0, ip, lsr #25
 338:	00000018 	andeq	r0, r0, r8, lsl r0
 33c:	84080e42 	strhi	r0, [r8], #-3650	; 0xfffff1be
 340:	00018e02 	andeq	r8, r1, r2, lsl #28
 344:	00000014 	andeq	r0, r0, r4, lsl r0
 348:	000002d0 	ldrdeq	r0, [r0], -r0	; <UNPREDICTABLE>
 34c:	00008cc4 	andeq	r8, r0, r4, asr #25
 350:	00000018 	andeq	r0, r0, r8, lsl r0
 354:	84080e42 	strhi	r0, [r8], #-3650	; 0xfffff1be
 358:	00018e02 	andeq	r8, r1, r2, lsl #28
 35c:	0000000c 	andeq	r0, r0, ip
 360:	ffffffff 			; <UNDEFINED> instruction: 0xffffffff
 364:	7c020001 	stcvc	0, cr0, [r2], {1}
 368:	000d0c0e 	andeq	r0, sp, lr, lsl #24
 36c:	00000018 	andeq	r0, r0, r8, lsl r0
 370:	0000035c 	andeq	r0, r0, ip, asr r3
 374:	00008cdc 	ldrdeq	r8, [r0], -ip
 378:	00000064 	andeq	r0, r0, r4, rrx
 37c:	84100e46 	ldrhi	r0, [r0], #-3654	; 0xfffff1ba
 380:	86038504 	strhi	r8, [r3], -r4, lsl #10
 384:	00018e02 	andeq	r8, r1, r2, lsl #28
 388:	00000014 	andeq	r0, r0, r4, lsl r0
 38c:	0000035c 	andeq	r0, r0, ip, asr r3
 390:	00008d40 	andeq	r8, r0, r0, asr #26
 394:	00000010 	andeq	r0, r0, r0, lsl r0
 398:	84080e42 	strhi	r0, [r8], #-3650	; 0xfffff1be
 39c:	00018e02 	andeq	r8, r1, r2, lsl #28
 3a0:	00000014 	andeq	r0, r0, r4, lsl r0
 3a4:	0000035c 	andeq	r0, r0, ip, asr r3
 3a8:	00008d50 	andeq	r8, r0, r0, asr sp
 3ac:	00000024 	andeq	r0, r0, r4, lsr #32
 3b0:	84080e46 	strhi	r0, [r8], #-3654	; 0xfffff1ba
 3b4:	00018e02 	andeq	r8, r1, r2, lsl #28
 3b8:	00000014 	andeq	r0, r0, r4, lsl r0
 3bc:	0000035c 	andeq	r0, r0, ip, asr r3
 3c0:	00008d74 	andeq	r8, r0, r4, ror sp
 3c4:	00000024 	andeq	r0, r0, r4, lsr #32
 3c8:	84080e46 	strhi	r0, [r8], #-3654	; 0xfffff1ba
 3cc:	00018e02 	andeq	r8, r1, r2, lsl #28
 3d0:	00000014 	andeq	r0, r0, r4, lsl r0
 3d4:	0000035c 	andeq	r0, r0, ip, asr r3
 3d8:	00008d98 	muleq	r0, r8, sp
 3dc:	00000010 	andeq	r0, r0, r0, lsl r0
 3e0:	84080e42 	strhi	r0, [r8], #-3650	; 0xfffff1be
 3e4:	00018e02 	andeq	r8, r1, r2, lsl #28
 3e8:	00000014 	andeq	r0, r0, r4, lsl r0
 3ec:	0000035c 	andeq	r0, r0, ip, asr r3
 3f0:	00008da8 	andeq	r8, r0, r8, lsr #27
 3f4:	0000001c 	andeq	r0, r0, ip, lsl r0
 3f8:	84080e42 	strhi	r0, [r8], #-3650	; 0xfffff1be
 3fc:	00018e02 	andeq	r8, r1, r2, lsl #28
 400:	00000018 	andeq	r0, r0, r8, lsl r0
 404:	0000035c 	andeq	r0, r0, ip, asr r3
 408:	00008dc4 	andeq	r8, r0, r4, asr #27
 40c:	00000034 	andeq	r0, r0, r4, lsr r0
 410:	84080e46 	strhi	r0, [r8], #-3654	; 0xfffff1ba
 414:	4e018e02 	cdpmi	14, 0, cr8, cr1, cr2, {0}
 418:	cec4000e 	cdpgt	0, 12, cr0, cr4, cr14, {0}
 41c:	0000000c 	andeq	r0, r0, ip
 420:	ffffffff 			; <UNDEFINED> instruction: 0xffffffff
 424:	7c020001 	stcvc	0, cr0, [r2], {1}
 428:	000d0c0e 	andeq	r0, sp, lr, lsl #24
 42c:	00000018 	andeq	r0, r0, r8, lsl r0
 430:	0000041c 	andeq	r0, r0, ip, lsl r4
 434:	00008df8 	strdeq	r8, [r0], -r8	; <UNPREDICTABLE>
 438:	00000020 	andeq	r0, r0, r0, lsr #32
 43c:	84100e42 	ldrhi	r0, [r0], #-3650	; 0xfffff1be
 440:	86038504 	strhi	r8, [r3], -r4, lsl #10
 444:	00018e02 	andeq	r8, r1, r2, lsl #28
 448:	00000018 	andeq	r0, r0, r8, lsl r0
 44c:	0000041c 	andeq	r0, r0, ip, lsl r4
 450:	00008e18 	andeq	r8, r0, r8, lsl lr
 454:	00000020 	andeq	r0, r0, r0, lsr #32
 458:	84100e42 	ldrhi	r0, [r0], #-3650	; 0xfffff1be
 45c:	86038504 	strhi	r8, [r3], -r4, lsl #10
 460:	00018e02 	andeq	r8, r1, r2, lsl #28
 464:	00000014 	andeq	r0, r0, r4, lsl r0
 468:	0000041c 	andeq	r0, r0, ip, lsl r4
 46c:	00008e38 	andeq	r8, r0, r8, lsr lr
 470:	000000b0 	strheq	r0, [r0], -r0	; <UNPREDICTABLE>
 474:	84080e42 	strhi	r0, [r8], #-3650	; 0xfffff1be
 478:	00018e02 	andeq	r8, r1, r2, lsl #28
 47c:	00000014 	andeq	r0, r0, r4, lsl r0
 480:	0000041c 	andeq	r0, r0, ip, lsl r4
 484:	00008ee8 	andeq	r8, r0, r8, ror #29
 488:	00000018 	andeq	r0, r0, r8, lsl r0
 48c:	84080e42 	strhi	r0, [r8], #-3650	; 0xfffff1be
 490:	00018e02 	andeq	r8, r1, r2, lsl #28
 494:	00000014 	andeq	r0, r0, r4, lsl r0
 498:	0000041c 	andeq	r0, r0, ip, lsl r4
 49c:	00008f00 	andeq	r8, r0, r0, lsl #30
 4a0:	00000020 	andeq	r0, r0, r0, lsr #32
 4a4:	84080e42 	strhi	r0, [r8], #-3650	; 0xfffff1be
 4a8:	00018e02 	andeq	r8, r1, r2, lsl #28
 4ac:	00000014 	andeq	r0, r0, r4, lsl r0
 4b0:	0000041c 	andeq	r0, r0, ip, lsl r4
 4b4:	00008f20 	andeq	r8, r0, r0, lsr #30
 4b8:	00000030 	andeq	r0, r0, r0, lsr r0
 4bc:	84080e42 	strhi	r0, [r8], #-3650	; 0xfffff1be
 4c0:	00018e02 	andeq	r8, r1, r2, lsl #28
 4c4:	00000014 	andeq	r0, r0, r4, lsl r0
 4c8:	0000041c 	andeq	r0, r0, ip, lsl r4
 4cc:	00008f50 	andeq	r8, r0, r0, asr pc
 4d0:	00000030 	andeq	r0, r0, r0, lsr r0
 4d4:	84080e42 	strhi	r0, [r8], #-3650	; 0xfffff1be
 4d8:	00018e02 	andeq	r8, r1, r2, lsl #28
 4dc:	00000014 	andeq	r0, r0, r4, lsl r0
 4e0:	0000041c 	andeq	r0, r0, ip, lsl r4
 4e4:	00008f80 	andeq	r8, r0, r0, lsl #31
 4e8:	00000010 	andeq	r0, r0, r0, lsl r0
 4ec:	84080e42 	strhi	r0, [r8], #-3650	; 0xfffff1be
 4f0:	00018e02 	andeq	r8, r1, r2, lsl #28
 4f4:	00000014 	andeq	r0, r0, r4, lsl r0
 4f8:	0000041c 	andeq	r0, r0, ip, lsl r4
 4fc:	00008f90 	muleq	r0, r0, pc	; <UNPREDICTABLE>
 500:	00000020 	andeq	r0, r0, r0, lsr #32
 504:	84080e42 	strhi	r0, [r8], #-3650	; 0xfffff1be
 508:	00018e02 	andeq	r8, r1, r2, lsl #28
 50c:	00000014 	andeq	r0, r0, r4, lsl r0
 510:	0000041c 	andeq	r0, r0, ip, lsl r4
 514:	00008fb0 			; <UNDEFINED> instruction: 0x00008fb0
 518:	00000014 	andeq	r0, r0, r4, lsl r0
 51c:	84080e42 	strhi	r0, [r8], #-3650	; 0xfffff1be
 520:	00018e02 	andeq	r8, r1, r2, lsl #28
 524:	00000014 	andeq	r0, r0, r4, lsl r0
 528:	0000041c 	andeq	r0, r0, ip, lsl r4
 52c:	00008fc4 	andeq	r8, r0, r4, asr #31
 530:	00000024 	andeq	r0, r0, r4, lsr #32
 534:	84080e42 	strhi	r0, [r8], #-3650	; 0xfffff1be
 538:	00018e02 	andeq	r8, r1, r2, lsl #28
 53c:	0000000c 	andeq	r0, r0, ip
 540:	ffffffff 			; <UNDEFINED> instruction: 0xffffffff
 544:	7c020001 	stcvc	0, cr0, [r2], {1}
 548:	000d0c0e 	andeq	r0, sp, lr, lsl #24
 54c:	00000014 	andeq	r0, r0, r4, lsl r0
 550:	0000053c 	andeq	r0, r0, ip, lsr r5
 554:	00008fe8 	andeq	r8, r0, r8, ror #31
 558:	00000014 	andeq	r0, r0, r4, lsl r0
 55c:	84080e42 	strhi	r0, [r8], #-3650	; 0xfffff1be
 560:	00018e02 	andeq	r8, r1, r2, lsl #28
 564:	0000000c 	andeq	r0, r0, ip
 568:	0000053c 	andeq	r0, r0, ip, lsr r5
 56c:	00008ffc 	strdeq	r8, [r0], -ip
 570:	00000018 	andeq	r0, r0, r8, lsl r0
 574:	0000000c 	andeq	r0, r0, ip
 578:	0000053c 	andeq	r0, r0, ip, lsr r5
 57c:	00009014 	andeq	r9, r0, r4, lsl r0
 580:	00000010 	andeq	r0, r0, r0, lsl r0
 584:	0000000c 	andeq	r0, r0, ip
 588:	ffffffff 			; <UNDEFINED> instruction: 0xffffffff
 58c:	7c020001 	stcvc	0, cr0, [r2], {1}
 590:	000d0c0e 	andeq	r0, sp, lr, lsl #24
 594:	0000000c 	andeq	r0, r0, ip
 598:	00000584 	andeq	r0, r0, r4, lsl #11
 59c:	00009024 	andeq	r9, r0, r4, lsr #32
 5a0:	00000034 	andeq	r0, r0, r4, lsr r0
 5a4:	0000000c 	andeq	r0, r0, ip
 5a8:	ffffffff 			; <UNDEFINED> instruction: 0xffffffff
 5ac:	7c020001 	stcvc	0, cr0, [r2], {1}
 5b0:	000d0c0e 	andeq	r0, sp, lr, lsl #24
 5b4:	0000000c 	andeq	r0, r0, ip
 5b8:	000005a4 	andeq	r0, r0, r4, lsr #11
 5bc:	00009058 	andeq	r9, r0, r8, asr r0
 5c0:	0000002c 	andeq	r0, r0, ip, lsr #32
 5c4:	0000000c 	andeq	r0, r0, ip
 5c8:	ffffffff 			; <UNDEFINED> instruction: 0xffffffff
 5cc:	7c020001 	stcvc	0, cr0, [r2], {1}
 5d0:	000d0c0e 	andeq	r0, sp, lr, lsl #24
 5d4:	0000000c 	andeq	r0, r0, ip
 5d8:	000005c4 	andeq	r0, r0, r4, asr #11
 5dc:	00009084 	andeq	r9, r0, r4, lsl #1
 5e0:	00000020 	andeq	r0, r0, r0, lsr #32
 5e4:	0000000c 	andeq	r0, r0, ip
 5e8:	ffffffff 			; <UNDEFINED> instruction: 0xffffffff
 5ec:	7c020001 	stcvc	0, cr0, [r2], {1}
 5f0:	000d0c0e 	andeq	r0, sp, lr, lsl #24
 5f4:	0000000c 	andeq	r0, r0, ip
 5f8:	000005e4 	andeq	r0, r0, r4, ror #11
 5fc:	000090a4 	andeq	r9, r0, r4, lsr #1
 600:	0000002c 	andeq	r0, r0, ip, lsr #32
 604:	0000000c 	andeq	r0, r0, ip
 608:	ffffffff 			; <UNDEFINED> instruction: 0xffffffff
 60c:	7c020001 	stcvc	0, cr0, [r2], {1}
 610:	000d0c0e 	andeq	r0, sp, lr, lsl #24
 614:	0000000c 	andeq	r0, r0, ip
 618:	00000604 	andeq	r0, r0, r4, lsl #12
 61c:	000090d0 	ldrdeq	r9, [r0], -r0
 620:	00000004 	andeq	r0, r0, r4
