
float.elf:     file format elf32-littlearm


Disassembly of section .text:

00008000 <__code_start__>:
    8000:	ee110f50 	mrc	15, 0, r0, cr1, cr0, {2}
    8004:	e3800603 	orr	r0, r0, #3145728	; 0x300000
    8008:	e3800503 	orr	r0, r0, #12582912	; 0xc00000
    800c:	ee010f50 	mcr	15, 0, r0, cr1, cr0, {2}
    8010:	e3a00101 	mov	r0, #1073741824	; 0x40000000
    8014:	eee80a10 	vmsr	fpexc, r0
    8018:	e3a000db 	mov	r0, #219, 0	; 0xdb
    801c:	e121f000 	msr	CPSR_c, r0
    8020:	e3a0d601 	mov	sp, #1048576	; 0x100000
    8024:	e3a000d3 	mov	r0, #211, 0	; 0xd3
    8028:	e121f000 	msr	CPSR_c, r0
    802c:	e3a00013 	mov	r0, #19, 0
    8030:	e3800080 	orr	r0, r0, #128, 0	; 0x80
    8034:	e129f000 	msr	CPSR_fc, r0
    8038:	e3a01000 	mov	r1, #0, 0
    803c:	ee071f95 	mcr	15, 0, r1, cr7, cr5, {4}
    8040:	ee110f50 	mrc	15, 0, r0, cr1, cr0, {2}
    8044:	e3800603 	orr	r0, r0, #3145728	; 0x300000
    8048:	e3800503 	orr	r0, r0, #12582912	; 0xc00000
    804c:	ee010f50 	mcr	15, 0, r0, cr1, cr0, {2}
    8050:	e3a00101 	mov	r0, #1073741824	; 0x40000000
    8054:	eee80a10 	vmsr	fpexc, r0
    8058:	e3a000db 	mov	r0, #219, 0	; 0xdb
    805c:	e121f000 	msr	CPSR_c, r0
    8060:	e3a000d3 	mov	r0, #211, 0	; 0xd3
    8064:	e121f000 	msr	CPSR_c, r0
    8068:	e3a0d302 	mov	sp, #134217728	; 0x8000000
    806c:	e3a0b000 	mov	fp, #0, 0
    8070:	eb000715 	bl	9ccc <_cstart>
    8074:	eb00072f 	bl	9d38 <rpi_reboot>

00008078 <PUT32>:
    8078:	e5801000 	str	r1, [r0]
    807c:	e12fff1e 	bx	lr

00008080 <GET32>:
    8080:	e5900000 	ldr	r0, [r0]
    8084:	e12fff1e 	bx	lr

00008088 <BRANCHTO>:
    8088:	e12fff10 	bx	r0

0000808c <m4add>:
    808c:	ee000a10 	vmov	s0, r0
    8090:	ee001a90 	vmov	s1, r1
    8094:	ee012a10 	vmov	s2, r2
    8098:	ee013a90 	vmov	s3, r3
    809c:	ee302a20 	vadd.f32	s4, s0, s1
    80a0:	ee712a21 	vadd.f32	s5, s2, s3
    80a4:	ee120a90 	vmov	r0, s5
    80a8:	e12fff1e 	bx	lr

000080ac <m4add2>:
    80ac:	ee000a10 	vmov	s0, r0
    80b0:	ee001a90 	vmov	s1, r1
    80b4:	ee012a10 	vmov	s2, r2
    80b8:	ee013a90 	vmov	s3, r3
    80bc:	ee302a20 	vadd.f32	s4, s0, s1
    80c0:	ee712a21 	vadd.f32	s5, s2, s3
    80c4:	ee120a10 	vmov	r0, s4
    80c8:	e12fff1e 	bx	lr

000080cc <m4vmov>:
    80cc:	ee020a10 	vmov	s4, r0
    80d0:	ee020a90 	vmov	s5, r0
    80d4:	e12fff1e 	bx	lr

000080d8 <notmain>:
    80d8:	e92d4030 	push	{r4, r5, lr}
    80dc:	e24dd00c 	sub	sp, sp, #12, 0
    80e0:	e59f0060 	ldr	r0, [pc, #96]	; 8148 <notmain+0x70>
    80e4:	eb000498 	bl	934c <printk>
    80e8:	e3a00f7d 	mov	r0, #500	; 0x1f4
    80ec:	eb00073b 	bl	9de0 <delay_ms>
    80f0:	e59f4054 	ldr	r4, [pc, #84]	; 814c <notmain+0x74>
    80f4:	e59f5054 	ldr	r5, [pc, #84]	; 8150 <notmain+0x78>
    80f8:	e1a02004 	mov	r2, r4
    80fc:	e1a03005 	mov	r3, r5
    8100:	e59f004c 	ldr	r0, [pc, #76]	; 8154 <notmain+0x7c>
    8104:	eb000490 	bl	934c <printk>
    8108:	ec454b10 	vmov	d0, r4, r5
    810c:	eb000013 	bl	8160 <cos>
    8110:	ed8d0b00 	vstr	d0, [sp]
    8114:	e1a02004 	mov	r2, r4
    8118:	e1a03005 	mov	r3, r5
    811c:	e59f0034 	ldr	r0, [pc, #52]	; 8158 <notmain+0x80>
    8120:	eb000489 	bl	934c <printk>
    8124:	ec454b10 	vmov	d0, r4, r5
    8128:	eb00044e 	bl	9268 <sin>
    812c:	ed8d0b00 	vstr	d0, [sp]
    8130:	e1a02004 	mov	r2, r4
    8134:	e1a03005 	mov	r3, r5
    8138:	e59f001c 	ldr	r0, [pc, #28]	; 815c <notmain+0x84>
    813c:	eb000482 	bl	934c <printk>
    8140:	e28dd00c 	add	sp, sp, #12, 0
    8144:	e8bd8030 	pop	{r4, r5, pc}
    8148:	0000a220 	andeq	sl, r0, r0, lsr #4
    814c:	54442d18 	strbpl	r2, [r4], #-3352	; 0xfffff2e8
    8150:	400921fb 	strdmi	r2, [r9], -fp
    8154:	0000a228 	andeq	sl, r0, r8, lsr #4
    8158:	0000a234 	andeq	sl, r0, r4, lsr r2
    815c:	0000a240 	andeq	sl, r0, r0, asr #4

00008160 <cos>:
    8160:	e52de004 	push	{lr}		; (str lr, [sp, #-4]!)
    8164:	e24dd014 	sub	sp, sp, #20, 0
    8168:	ee103a90 	vmov	r3, s1
    816c:	e3c33102 	bic	r3, r3, #-2147483648	; 0x80000000
    8170:	e59f20d0 	ldr	r2, [pc, #208]	; 8248 <cos+0xe8>
    8174:	e1530002 	cmp	r3, r2
    8178:	ca00000a 	bgt	81a8 <cos+0x48>
    817c:	e59f20c8 	ldr	r2, [pc, #200]	; 824c <cos+0xec>
    8180:	e1530002 	cmp	r3, r2
    8184:	ca000003 	bgt	8198 <cos+0x38>
    8188:	eefd7bc0 	vcvt.s32.f64	s15, d0
    818c:	ee173a90 	vmov	r3, s15
    8190:	e3530000 	cmp	r3, #0, 0
    8194:	0a000024 	beq	822c <cos+0xcc>
    8198:	ed9f1b26 	vldr	d1, [pc, #152]	; 8238 <cos+0xd8>
    819c:	eb00002d 	bl	8258 <__kernel_cos>
    81a0:	e28dd014 	add	sp, sp, #20, 0
    81a4:	e49df004 	pop	{pc}		; (ldr pc, [sp], #4)
    81a8:	e59f20a0 	ldr	r2, [pc, #160]	; 8250 <cos+0xf0>
    81ac:	e1530002 	cmp	r3, r2
    81b0:	ce300b40 	vsubgt.f64	d0, d0, d0
    81b4:	cafffff9 	bgt	81a0 <cos+0x40>
    81b8:	e1a0000d 	mov	r0, sp
    81bc:	eb000079 	bl	83a8 <__ieee754_rem_pio2>
    81c0:	e2000003 	and	r0, r0, #3, 0
    81c4:	e3500001 	cmp	r0, #1, 0
    81c8:	0a00000c 	beq	8200 <cos+0xa0>
    81cc:	e3500002 	cmp	r0, #2, 0
    81d0:	0a000010 	beq	8218 <cos+0xb8>
    81d4:	e3500000 	cmp	r0, #0, 0
    81d8:	0a000004 	beq	81f0 <cos+0x90>
    81dc:	e3a00001 	mov	r0, #1, 0
    81e0:	ed9d1b02 	vldr	d1, [sp, #8]
    81e4:	ed9d0b00 	vldr	d0, [sp]
    81e8:	eb000044 	bl	8300 <__kernel_sin>
    81ec:	eaffffeb 	b	81a0 <cos+0x40>
    81f0:	ed9d1b02 	vldr	d1, [sp, #8]
    81f4:	ed9d0b00 	vldr	d0, [sp]
    81f8:	eb000016 	bl	8258 <__kernel_cos>
    81fc:	eaffffe7 	b	81a0 <cos+0x40>
    8200:	e3a00001 	mov	r0, #1, 0
    8204:	ed9d1b02 	vldr	d1, [sp, #8]
    8208:	ed9d0b00 	vldr	d0, [sp]
    820c:	eb00003b 	bl	8300 <__kernel_sin>
    8210:	eeb10b40 	vneg.f64	d0, d0
    8214:	eaffffe1 	b	81a0 <cos+0x40>
    8218:	ed9d1b02 	vldr	d1, [sp, #8]
    821c:	ed9d0b00 	vldr	d0, [sp]
    8220:	eb00000c 	bl	8258 <__kernel_cos>
    8224:	eeb10b40 	vneg.f64	d0, d0
    8228:	eaffffdc 	b	81a0 <cos+0x40>
    822c:	ed9f0b03 	vldr	d0, [pc, #12]	; 8240 <cos+0xe0>
    8230:	eaffffda 	b	81a0 <cos+0x40>
    8234:	e320f000 	nop	{0}
	...
    8244:	3ff00000 	svccc	0x00f00000	; IMB
    8248:	3fe921fb 	svccc	0x00e921fb
    824c:	3e46a09d 	mcrcc	0, 2, sl, cr6, cr13, {4}
    8250:	7fefffff 	svcvc	0x00efffff
    8254:	00000000 	andeq	r0, r0, r0

00008258 <__kernel_cos>:
    8258:	ee204b00 	vmul.f64	d4, d0, d0
    825c:	ee246b04 	vmul.f64	d6, d4, d4
    8260:	ed9f7b16 	vldr	d7, [pc, #88]	; 82c0 <__kernel_cos+0x68>
    8264:	ed9f5b17 	vldr	d5, [pc, #92]	; 82c8 <__kernel_cos+0x70>
    8268:	ee145b07 	vnmls.f64	d5, d4, d7
    826c:	ed9f7b17 	vldr	d7, [pc, #92]	; 82d0 <__kernel_cos+0x78>
    8270:	ee057b04 	vmla.f64	d7, d5, d4
    8274:	ee265b06 	vmul.f64	d5, d6, d6
    8278:	ed9f6b16 	vldr	d6, [pc, #88]	; 82d8 <__kernel_cos+0x80>
    827c:	ed9f3b17 	vldr	d3, [pc, #92]	; 82e0 <__kernel_cos+0x88>
    8280:	ee043b06 	vmla.f64	d3, d4, d6
    8284:	ed9f6b17 	vldr	d6, [pc, #92]	; 82e8 <__kernel_cos+0x90>
    8288:	ee136b04 	vnmls.f64	d6, d3, d4
    828c:	ee256b06 	vmul.f64	d6, d5, d6
    8290:	ee076b04 	vmla.f64	d6, d7, d4
    8294:	ed9f3b15 	vldr	d3, [pc, #84]	; 82f0 <__kernel_cos+0x98>
    8298:	ee243b03 	vmul.f64	d3, d4, d3
    829c:	ed9f7b15 	vldr	d7, [pc, #84]	; 82f8 <__kernel_cos+0xa0>
    82a0:	ee375b43 	vsub.f64	d5, d7, d3
    82a4:	ee377b45 	vsub.f64	d7, d7, d5
    82a8:	ee377b43 	vsub.f64	d7, d7, d3
    82ac:	ee200b01 	vmul.f64	d0, d0, d1
    82b0:	ee140b06 	vnmls.f64	d0, d4, d6
    82b4:	ee370b00 	vadd.f64	d0, d7, d0
    82b8:	ee300b05 	vadd.f64	d0, d0, d5
    82bc:	e12fff1e 	bx	lr
    82c0:	19cb1590 	stmibne	fp, {r4, r7, r8, sl, ip}^
    82c4:	3efa01a0 	cdpcc	1, 15, cr0, cr10, cr0, {5}
    82c8:	16c15177 			; <UNDEFINED> instruction: 0x16c15177
    82cc:	3f56c16c 	svccc	0x0056c16c
    82d0:	5555554c 	ldrbpl	r5, [r5, #-1356]	; 0xfffffab4
    82d4:	3fa55555 	svccc	0x00a55555
    82d8:	be8838d4 	mcrlt	8, 4, r3, cr8, cr4, {6}
    82dc:	bda8fae9 			; <UNDEFINED> instruction: 0xbda8fae9
    82e0:	bdb4b1c4 	ldfltd	f3, [r4, #784]!	; 0x310
    82e4:	3e21ee9e 	mcrcc	14, 1, lr, cr1, cr14, {4}
    82e8:	809c52ad 	addshi	r5, ip, sp, lsr #5
    82ec:	3e927e4f 	cdpcc	14, 9, cr7, cr2, cr15, {2}
    82f0:	00000000 	andeq	r0, r0, r0
    82f4:	3fe00000 	svccc	0x00e00000
    82f8:	00000000 	andeq	r0, r0, r0
    82fc:	3ff00000 	svccc	0x00f00000	; IMB

00008300 <__kernel_sin>:
    8300:	ee207b00 	vmul.f64	d7, d0, d0
    8304:	ee274b07 	vmul.f64	d4, d7, d7
    8308:	ed9f6b18 	vldr	d6, [pc, #96]	; 8370 <__kernel_sin+0x70>
    830c:	ed9f5b19 	vldr	d5, [pc, #100]	; 8378 <__kernel_sin+0x78>
    8310:	ee175b06 	vnmls.f64	d5, d7, d6
    8314:	ed9f6b19 	vldr	d6, [pc, #100]	; 8380 <__kernel_sin+0x80>
    8318:	ee056b07 	vmla.f64	d6, d5, d7
    831c:	ee274b04 	vmul.f64	d4, d7, d4
    8320:	ed9f3b18 	vldr	d3, [pc, #96]	; 8388 <__kernel_sin+0x88>
    8324:	ed9f5b19 	vldr	d5, [pc, #100]	; 8390 <__kernel_sin+0x90>
    8328:	ee175b03 	vnmls.f64	d5, d7, d3
    832c:	ee046b05 	vmla.f64	d6, d4, d5
    8330:	ee205b07 	vmul.f64	d5, d0, d7
    8334:	e3500000 	cmp	r0, #0, 0
    8338:	1a000003 	bne	834c <__kernel_sin+0x4c>
    833c:	ed9f4b15 	vldr	d4, [pc, #84]	; 8398 <__kernel_sin+0x98>
    8340:	ee174b06 	vnmls.f64	d4, d7, d6
    8344:	ee040b05 	vmla.f64	d0, d4, d5
    8348:	e12fff1e 	bx	lr
    834c:	ee266b05 	vmul.f64	d6, d6, d5
    8350:	ed9f4b12 	vldr	d4, [pc, #72]	; 83a0 <__kernel_sin+0xa0>
    8354:	ee116b04 	vnmls.f64	d6, d1, d4
    8358:	ee161b07 	vnmls.f64	d1, d6, d7
    835c:	ed9f7b0d 	vldr	d7, [pc, #52]	; 8398 <__kernel_sin+0x98>
    8360:	ee051b07 	vmla.f64	d1, d5, d7
    8364:	ee300b41 	vsub.f64	d0, d0, d1
    8368:	e12fff1e 	bx	lr
    836c:	e320f000 	nop	{0}
    8370:	57b1fe7d 			; <UNDEFINED> instruction: 0x57b1fe7d
    8374:	3ec71de3 	cdpcc	13, 12, cr1, cr7, cr3, {7}
    8378:	19c161d5 	stmibne	r1, {r0, r2, r4, r6, r7, r8, sp, lr}^
    837c:	3f2a01a0 	svccc	0x002a01a0
    8380:	1110f8a6 	tstne	r0, r6, lsr #17	; <UNPREDICTABLE>
    8384:	3f811111 	svccc	0x00811111
    8388:	5acfd57c 	bpl	ff3fd980 <__bss_end__+0xff3f3068>
    838c:	3de5d93a 			; <UNDEFINED> instruction: 0x3de5d93a
    8390:	8a2b9ceb 	bhi	aef744 <__bss_end__+0xae4e2c>
    8394:	3e5ae5e6 	cdpcc	5, 5, cr14, cr10, cr6, {7}
    8398:	55555549 	ldrbpl	r5, [r5, #-1353]	; 0xfffffab7
    839c:	3fc55555 	svccc	0x00c55555
    83a0:	00000000 	andeq	r0, r0, r0
    83a4:	3fe00000 	svccc	0x00e00000

000083a8 <__ieee754_rem_pio2>:
    83a8:	e92d4030 	push	{r4, r5, lr}
    83ac:	e24dd034 	sub	sp, sp, #52, 0	; 0x34
    83b0:	e1a04000 	mov	r4, r0
    83b4:	ee105a90 	vmov	r5, s1
    83b8:	e3c53102 	bic	r3, r5, #-2147483648	; 0x80000000
    83bc:	e59f23fc 	ldr	r2, [pc, #1020]	; 87c0 <__ieee754_rem_pio2+0x418>
    83c0:	e1530002 	cmp	r3, r2
    83c4:	ca000034 	bgt	849c <__ieee754_rem_pio2+0xf4>
    83c8:	e3c524ff 	bic	r2, r5, #-16777216	; 0xff000000
    83cc:	e3c2260f 	bic	r2, r2, #15728640	; 0xf00000
    83d0:	e59f13ec 	ldr	r1, [pc, #1004]	; 87c4 <__ieee754_rem_pio2+0x41c>
    83d4:	e1520001 	cmp	r2, r1
    83d8:	0a000076 	beq	85b8 <__ieee754_rem_pio2+0x210>
    83dc:	e59f23e4 	ldr	r2, [pc, #996]	; 87c8 <__ieee754_rem_pio2+0x420>
    83e0:	e1530002 	cmp	r3, r2
    83e4:	ca000016 	bgt	8444 <__ieee754_rem_pio2+0x9c>
    83e8:	e3550000 	cmp	r5, #0, 0
    83ec:	da00000a 	ble	841c <__ieee754_rem_pio2+0x74>
    83f0:	ed9f7bd4 	vldr	d7, [pc, #848]	; 8748 <__ieee754_rem_pio2+0x3a0>
    83f4:	ee300b47 	vsub.f64	d0, d0, d7
    83f8:	ed9f7bd4 	vldr	d7, [pc, #848]	; 8750 <__ieee754_rem_pio2+0x3a8>
    83fc:	ee306b47 	vsub.f64	d6, d0, d7
    8400:	ed806b00 	vstr	d6, [r0]
    8404:	ee300b46 	vsub.f64	d0, d0, d6
    8408:	ee300b47 	vsub.f64	d0, d0, d7
    840c:	ed800b02 	vstr	d0, [r0, #8]
    8410:	e3a00001 	mov	r0, #1, 0
    8414:	e28dd034 	add	sp, sp, #52, 0	; 0x34
    8418:	e8bd8030 	pop	{r4, r5, pc}
    841c:	ed9f7bc9 	vldr	d7, [pc, #804]	; 8748 <__ieee754_rem_pio2+0x3a0>
    8420:	ee300b07 	vadd.f64	d0, d0, d7
    8424:	ed9f7bc9 	vldr	d7, [pc, #804]	; 8750 <__ieee754_rem_pio2+0x3a8>
    8428:	ee306b07 	vadd.f64	d6, d0, d7
    842c:	ed806b00 	vstr	d6, [r0]
    8430:	ee300b46 	vsub.f64	d0, d0, d6
    8434:	ee307b07 	vadd.f64	d7, d0, d7
    8438:	ed807b02 	vstr	d7, [r0, #8]
    843c:	e3e00000 	mvn	r0, #0, 0
    8440:	eafffff3 	b	8414 <__ieee754_rem_pio2+0x6c>
    8444:	e3550000 	cmp	r5, #0, 0
    8448:	da000009 	ble	8474 <__ieee754_rem_pio2+0xcc>
    844c:	ed9f7bc1 	vldr	d7, [pc, #772]	; 8758 <__ieee754_rem_pio2+0x3b0>
    8450:	ee300b47 	vsub.f64	d0, d0, d7
    8454:	ed9f7bc1 	vldr	d7, [pc, #772]	; 8760 <__ieee754_rem_pio2+0x3b8>
    8458:	ee306b47 	vsub.f64	d6, d0, d7
    845c:	ed806b00 	vstr	d6, [r0]
    8460:	ee300b46 	vsub.f64	d0, d0, d6
    8464:	ee300b47 	vsub.f64	d0, d0, d7
    8468:	ed800b02 	vstr	d0, [r0, #8]
    846c:	e3a00002 	mov	r0, #2, 0
    8470:	eaffffe7 	b	8414 <__ieee754_rem_pio2+0x6c>
    8474:	ed9f7bb7 	vldr	d7, [pc, #732]	; 8758 <__ieee754_rem_pio2+0x3b0>
    8478:	ee300b07 	vadd.f64	d0, d0, d7
    847c:	ed9f7bb7 	vldr	d7, [pc, #732]	; 8760 <__ieee754_rem_pio2+0x3b8>
    8480:	ee306b07 	vadd.f64	d6, d0, d7
    8484:	ed806b00 	vstr	d6, [r0]
    8488:	ee300b46 	vsub.f64	d0, d0, d6
    848c:	ee307b07 	vadd.f64	d7, d0, d7
    8490:	ed807b02 	vstr	d7, [r0, #8]
    8494:	e3e00001 	mvn	r0, #1, 0
    8498:	eaffffdd 	b	8414 <__ieee754_rem_pio2+0x6c>
    849c:	e59f2328 	ldr	r2, [pc, #808]	; 87cc <__ieee754_rem_pio2+0x424>
    84a0:	e1530002 	cmp	r3, r2
    84a4:	ca000035 	bgt	8580 <__ieee754_rem_pio2+0x1d8>
    84a8:	e59f2320 	ldr	r2, [pc, #800]	; 87d0 <__ieee754_rem_pio2+0x428>
    84ac:	e1530002 	cmp	r3, r2
    84b0:	ca000019 	bgt	851c <__ieee754_rem_pio2+0x174>
    84b4:	e2422bc9 	sub	r2, r2, #205824	; 0x32400
    84b8:	e2422040 	sub	r2, r2, #64, 0	; 0x40
    84bc:	e1530002 	cmp	r3, r2
    84c0:	0a00003c 	beq	85b8 <__ieee754_rem_pio2+0x210>
    84c4:	e3550000 	cmp	r5, #0, 0
    84c8:	da000009 	ble	84f4 <__ieee754_rem_pio2+0x14c>
    84cc:	ed9f7ba5 	vldr	d7, [pc, #660]	; 8768 <__ieee754_rem_pio2+0x3c0>
    84d0:	ee300b47 	vsub.f64	d0, d0, d7
    84d4:	ed9f7ba5 	vldr	d7, [pc, #660]	; 8770 <__ieee754_rem_pio2+0x3c8>
    84d8:	ee306b47 	vsub.f64	d6, d0, d7
    84dc:	ed806b00 	vstr	d6, [r0]
    84e0:	ee300b46 	vsub.f64	d0, d0, d6
    84e4:	ee300b47 	vsub.f64	d0, d0, d7
    84e8:	ed800b02 	vstr	d0, [r0, #8]
    84ec:	e3a00003 	mov	r0, #3, 0
    84f0:	eaffffc7 	b	8414 <__ieee754_rem_pio2+0x6c>
    84f4:	ed9f7b9b 	vldr	d7, [pc, #620]	; 8768 <__ieee754_rem_pio2+0x3c0>
    84f8:	ee300b07 	vadd.f64	d0, d0, d7
    84fc:	ed9f7b9b 	vldr	d7, [pc, #620]	; 8770 <__ieee754_rem_pio2+0x3c8>
    8500:	ee306b07 	vadd.f64	d6, d0, d7
    8504:	ed806b00 	vstr	d6, [r0]
    8508:	ee300b46 	vsub.f64	d0, d0, d6
    850c:	ee307b07 	vadd.f64	d7, d0, d7
    8510:	ed807b02 	vstr	d7, [r0, #8]
    8514:	e3e00002 	mvn	r0, #2, 0
    8518:	eaffffbd 	b	8414 <__ieee754_rem_pio2+0x6c>
    851c:	e59f22b0 	ldr	r2, [pc, #688]	; 87d4 <__ieee754_rem_pio2+0x42c>
    8520:	e1530002 	cmp	r3, r2
    8524:	0a000023 	beq	85b8 <__ieee754_rem_pio2+0x210>
    8528:	e3550000 	cmp	r5, #0, 0
    852c:	da000009 	ble	8558 <__ieee754_rem_pio2+0x1b0>
    8530:	ed9f7b90 	vldr	d7, [pc, #576]	; 8778 <__ieee754_rem_pio2+0x3d0>
    8534:	ee300b47 	vsub.f64	d0, d0, d7
    8538:	ed9f7b90 	vldr	d7, [pc, #576]	; 8780 <__ieee754_rem_pio2+0x3d8>
    853c:	ee306b47 	vsub.f64	d6, d0, d7
    8540:	ed806b00 	vstr	d6, [r0]
    8544:	ee300b46 	vsub.f64	d0, d0, d6
    8548:	ee300b47 	vsub.f64	d0, d0, d7
    854c:	ed800b02 	vstr	d0, [r0, #8]
    8550:	e3a00004 	mov	r0, #4, 0
    8554:	eaffffae 	b	8414 <__ieee754_rem_pio2+0x6c>
    8558:	ed9f7b86 	vldr	d7, [pc, #536]	; 8778 <__ieee754_rem_pio2+0x3d0>
    855c:	ee300b07 	vadd.f64	d0, d0, d7
    8560:	ed9f7b86 	vldr	d7, [pc, #536]	; 8780 <__ieee754_rem_pio2+0x3d8>
    8564:	ee306b07 	vadd.f64	d6, d0, d7
    8568:	ed806b00 	vstr	d6, [r0]
    856c:	ee300b46 	vsub.f64	d0, d0, d6
    8570:	ee307b07 	vadd.f64	d7, d0, d7
    8574:	ed807b02 	vstr	d7, [r0, #8]
    8578:	e3e00003 	mvn	r0, #3, 0
    857c:	eaffffa4 	b	8414 <__ieee754_rem_pio2+0x6c>
    8580:	e59f2250 	ldr	r2, [pc, #592]	; 87d8 <__ieee754_rem_pio2+0x430>
    8584:	e1530002 	cmp	r3, r2
    8588:	da00000a 	ble	85b8 <__ieee754_rem_pio2+0x210>
    858c:	e59f2248 	ldr	r2, [pc, #584]	; 87dc <__ieee754_rem_pio2+0x434>
    8590:	e1530002 	cmp	r3, r2
    8594:	ca00003c 	bgt	868c <__ieee754_rem_pio2+0x2e4>
    8598:	e1a02a43 	asr	r2, r3, #20
    859c:	e2422e41 	sub	r2, r2, #1040	; 0x410
    85a0:	e2422006 	sub	r2, r2, #6, 0
    85a4:	e0431a02 	sub	r1, r3, r2, lsl #20
    85a8:	ee100a10 	vmov	r0, s0
    85ac:	ec410b17 	vmov	d7, r0, r1
    85b0:	e3a03000 	mov	r3, #0, 0
    85b4:	ea000042 	b	86c4 <__ieee754_rem_pio2+0x31c>
    85b8:	ed9f7b72 	vldr	d7, [pc, #456]	; 8788 <__ieee754_rem_pio2+0x3e0>
    85bc:	ed9f6b73 	vldr	d6, [pc, #460]	; 8790 <__ieee754_rem_pio2+0x3e8>
    85c0:	eeb05b47 	vmov.f64	d5, d7
    85c4:	ee005b06 	vmla.f64	d5, d0, d6
    85c8:	ee355b47 	vsub.f64	d5, d5, d7
    85cc:	eefd7bc5 	vcvt.s32.f64	s15, d5
    85d0:	ee170a90 	vmov	r0, s15
    85d4:	ed9f7b5b 	vldr	d7, [pc, #364]	; 8748 <__ieee754_rem_pio2+0x3a0>
    85d8:	ee050b47 	vmls.f64	d0, d5, d7
    85dc:	ed9f7b5b 	vldr	d7, [pc, #364]	; 8750 <__ieee754_rem_pio2+0x3a8>
    85e0:	ee257b07 	vmul.f64	d7, d5, d7
    85e4:	e1a01a43 	asr	r1, r3, #20
    85e8:	ee306b47 	vsub.f64	d6, d0, d7
    85ec:	ed846b00 	vstr	d6, [r4]
    85f0:	ee162a90 	vmov	r2, s13
    85f4:	e1a02a22 	lsr	r2, r2, #20
    85f8:	e1a02a82 	lsl	r2, r2, #21
    85fc:	e1a02aa2 	lsr	r2, r2, #21
    8600:	e0623a43 	rsb	r3, r2, r3, asr #20
    8604:	e3530010 	cmp	r3, #16, 0
    8608:	da000018 	ble	8670 <__ieee754_rem_pio2+0x2c8>
    860c:	ed9f6b61 	vldr	d6, [pc, #388]	; 8798 <__ieee754_rem_pio2+0x3f0>
    8610:	ee256b06 	vmul.f64	d6, d5, d6
    8614:	ee304b46 	vsub.f64	d4, d0, d6
    8618:	ee307b44 	vsub.f64	d7, d0, d4
    861c:	ee377b46 	vsub.f64	d7, d7, d6
    8620:	ed9f6b5e 	vldr	d6, [pc, #376]	; 87a0 <__ieee754_rem_pio2+0x3f8>
    8624:	ee157b06 	vnmls.f64	d7, d5, d6
    8628:	ee346b47 	vsub.f64	d6, d4, d7
    862c:	ed846b00 	vstr	d6, [r4]
    8630:	ee163a90 	vmov	r3, s13
    8634:	e1a03a23 	lsr	r3, r3, #20
    8638:	e1a03a83 	lsl	r3, r3, #21
    863c:	e1a03aa3 	lsr	r3, r3, #21
    8640:	e0413003 	sub	r3, r1, r3
    8644:	e3530031 	cmp	r3, #49, 0	; 0x31
    8648:	da00000d 	ble	8684 <__ieee754_rem_pio2+0x2dc>
    864c:	ed9f6b55 	vldr	d6, [pc, #340]	; 87a8 <__ieee754_rem_pio2+0x400>
    8650:	ee256b06 	vmul.f64	d6, d5, d6
    8654:	ee340b46 	vsub.f64	d0, d4, d6
    8658:	ee347b40 	vsub.f64	d7, d4, d0
    865c:	ee377b46 	vsub.f64	d7, d7, d6
    8660:	ed9f6b52 	vldr	d6, [pc, #328]	; 87b0 <__ieee754_rem_pio2+0x408>
    8664:	ee157b06 	vnmls.f64	d7, d5, d6
    8668:	ee306b47 	vsub.f64	d6, d0, d7
    866c:	ed846b00 	vstr	d6, [r4]
    8670:	ed946b00 	vldr	d6, [r4]
    8674:	ee300b46 	vsub.f64	d0, d0, d6
    8678:	ee307b47 	vsub.f64	d7, d0, d7
    867c:	ed847b02 	vstr	d7, [r4, #8]
    8680:	eaffff63 	b	8414 <__ieee754_rem_pio2+0x6c>
    8684:	eeb00b44 	vmov.f64	d0, d4
    8688:	eafffff8 	b	8670 <__ieee754_rem_pio2+0x2c8>
    868c:	ee300b40 	vsub.f64	d0, d0, d0
    8690:	ed800b02 	vstr	d0, [r0, #8]
    8694:	ed800b00 	vstr	d0, [r0]
    8698:	e3a00000 	mov	r0, #0, 0
    869c:	eaffff5c 	b	8414 <__ieee754_rem_pio2+0x6c>
    86a0:	eebd6bc7 	vcvt.s32.f64	s12, d7
    86a4:	eeb86bc6 	vcvt.f64.s32	d6, s12
    86a8:	e28d1030 	add	r1, sp, #48, 0	; 0x30
    86ac:	e0811183 	add	r1, r1, r3, lsl #3
    86b0:	ed016b06 	vstr	d6, [r1, #-24]	; 0xffffffe8
    86b4:	ee377b46 	vsub.f64	d7, d7, d6
    86b8:	ed9f6b3e 	vldr	d6, [pc, #248]	; 87b8 <__ieee754_rem_pio2+0x410>
    86bc:	ee277b06 	vmul.f64	d7, d7, d6
    86c0:	e2833001 	add	r3, r3, #1, 0
    86c4:	e3530001 	cmp	r3, #1, 0
    86c8:	dafffff4 	ble	86a0 <__ieee754_rem_pio2+0x2f8>
    86cc:	ed8d7b0a 	vstr	d7, [sp, #40]	; 0x28
    86d0:	e3a01003 	mov	r1, #3, 0
    86d4:	e1a03001 	mov	r3, r1
    86d8:	e2411001 	sub	r1, r1, #1, 0
    86dc:	e28d0030 	add	r0, sp, #48, 0	; 0x30
    86e0:	e0800181 	add	r0, r0, r1, lsl #3
    86e4:	ed107b06 	vldr	d7, [r0, #-24]	; 0xffffffe8
    86e8:	eeb57b40 	vcmp.f64	d7, #0.0
    86ec:	eef1fa10 	vmrs	APSR_nzcv, fpscr
    86f0:	0afffff7 	beq	86d4 <__ieee754_rem_pio2+0x32c>
    86f4:	e3a01001 	mov	r1, #1, 0
    86f8:	e58d1000 	str	r1, [sp]
    86fc:	e28d1008 	add	r1, sp, #8, 0
    8700:	e28d0018 	add	r0, sp, #24, 0
    8704:	eb000035 	bl	87e0 <__kernel_rem_pio2>
    8708:	e3550000 	cmp	r5, #0, 0
    870c:	ba000004 	blt	8724 <__ieee754_rem_pio2+0x37c>
    8710:	e1cd20d8 	ldrd	r2, [sp, #8]
    8714:	e1c420f0 	strd	r2, [r4]
    8718:	e1cd21d0 	ldrd	r2, [sp, #16]
    871c:	e1c420f8 	strd	r2, [r4, #8]
    8720:	eaffff3b 	b	8414 <__ieee754_rem_pio2+0x6c>
    8724:	ed9d7b02 	vldr	d7, [sp, #8]
    8728:	eeb17b47 	vneg.f64	d7, d7
    872c:	ed847b00 	vstr	d7, [r4]
    8730:	ed9d7b04 	vldr	d7, [sp, #16]
    8734:	eeb17b47 	vneg.f64	d7, d7
    8738:	ed847b02 	vstr	d7, [r4, #8]
    873c:	e2600000 	rsb	r0, r0, #0, 0
    8740:	eaffff33 	b	8414 <__ieee754_rem_pio2+0x6c>
    8744:	e320f000 	nop	{0}
    8748:	54400000 	strbpl	r0, [r0], #-0
    874c:	3ff921fb 	svccc	0x00f921fb
    8750:	1a626331 	bne	18a141c <__bss_end__+0x1896b04>
    8754:	3dd0b461 	cfldrdcc	mvd11, [r0, #388]	; 0x184
    8758:	54400000 	strbpl	r0, [r0], #-0
    875c:	400921fb 	strdmi	r2, [r9], -fp
    8760:	1a626331 	bne	18a142c <__bss_end__+0x1896b14>
    8764:	3de0b461 	cfstrdcc	mvd11, [r0, #388]!	; 0x184
    8768:	7f300000 	svcvc	0x00300000
    876c:	4012d97c 	andsmi	sp, r2, ip, ror r9
    8770:	a79394ca 	ldrge	r9, [r3, sl, asr #9]
    8774:	3de90e91 	stclcc	14, cr0, [r9, #580]!	; 0x244
    8778:	54400000 	strbpl	r0, [r0], #-0
    877c:	401921fb 			; <UNDEFINED> instruction: 0x401921fb
    8780:	1a626331 	bne	18a144c <__bss_end__+0x1896b34>
    8784:	3df0b461 	cfldrdcc	mvd11, [r0, #388]!	; 0x184
    8788:	00000000 	andeq	r0, r0, r0
    878c:	43380000 	teqmi	r8, #0, 0
    8790:	6dc9c883 	stclvs	8, cr12, [r9, #524]	; 0x20c
    8794:	3fe45f30 	svccc	0x00e45f30
    8798:	1a600000 	bne	18087a0 <__bss_end__+0x17fde88>
    879c:	3dd0b461 	cfldrdcc	mvd11, [r0, #388]	; 0x184
    87a0:	2e037073 	mcrcs	0, 0, r7, cr3, cr3, {3}
    87a4:	3ba3198a 	blcc	fe8cedd4 <__bss_end__+0xfe8c44bc>
    87a8:	2e000000 	cdpcs	0, 0, cr0, cr0, cr0, {0}
    87ac:	3ba3198a 	blcc	fe8ceddc <__bss_end__+0xfe8c44c4>
    87b0:	252049c1 	strcs	r4, [r0, #-2497]!	; 0xfffff63f
    87b4:	397b839a 	ldmdbcc	fp!, {r1, r3, r4, r7, r8, r9, pc}^
    87b8:	00000000 	andeq	r0, r0, r0
    87bc:	41700000 	cmnmi	r0, r0
    87c0:	400f6a7a 	andmi	r6, pc, sl, ror sl	; <UNPREDICTABLE>
    87c4:	000921fb 	strdeq	r2, [r9], -fp
    87c8:	4002d97c 	andmi	sp, r2, ip, ror r9
    87cc:	401c463b 	andsmi	r4, ip, fp, lsr r6
    87d0:	4015fdbc 			; <UNDEFINED> instruction: 0x4015fdbc
    87d4:	401921fb 			; <UNDEFINED> instruction: 0x401921fb
    87d8:	413921fa 	teqmi	r9, sl	; <illegal shifter operand>
    87dc:	7fefffff 	svcvc	0x00efffff

000087e0 <__kernel_rem_pio2>:
    87e0:	e92d4ff0 	push	{r4, r5, r6, r7, r8, r9, sl, fp, lr}
    87e4:	ed2d8b04 	vpush	{d8-d9}
    87e8:	e24ddf8d 	sub	sp, sp, #564	; 0x234
    87ec:	e1a05000 	mov	r5, r0
    87f0:	e1a0b001 	mov	fp, r1
    87f4:	e1a0a002 	mov	sl, r2
    87f8:	e59f2438 	ldr	r2, [pc, #1080]	; 8c38 <__kernel_rem_pio2+0x458>
    87fc:	e59d1268 	ldr	r1, [sp, #616]	; 0x268
    8800:	e7927101 	ldr	r7, [r2, r1, lsl #2]
    8804:	e2434001 	sub	r4, r3, #1, 0
    8808:	e24a3003 	sub	r3, sl, #3, 0
    880c:	e59f8428 	ldr	r8, [pc, #1064]	; 8c3c <__kernel_rem_pio2+0x45c>
    8810:	e0c82398 	smull	r2, r8, r8, r3
    8814:	e1a03fc3 	asr	r3, r3, #31
    8818:	e0638148 	rsb	r8, r3, r8, asr #2
    881c:	e37a0014 	cmn	sl, #20, 0
    8820:	b3a08000 	movlt	r8, #0, 0
    8824:	e2883001 	add	r3, r8, #1, 0
    8828:	e0433103 	sub	r3, r3, r3, lsl #2
    882c:	e08aa183 	add	sl, sl, r3, lsl #3
    8830:	e0482004 	sub	r2, r8, r4
    8834:	e0870004 	add	r0, r7, r4
    8838:	e3a03000 	mov	r3, #0, 0
    883c:	ea000005 	b	8858 <__kernel_rem_pio2+0x78>
    8840:	ed9f7bee 	vldr	d7, [pc, #952]	; 8c00 <__kernel_rem_pio2+0x420>
    8844:	e28d1e23 	add	r1, sp, #560	; 0x230
    8848:	e0811183 	add	r1, r1, r3, lsl #3
    884c:	ed017b3c 	vstr	d7, [r1, #-240]	; 0xffffff10
    8850:	e2833001 	add	r3, r3, #1, 0
    8854:	e2822001 	add	r2, r2, #1, 0
    8858:	e1530000 	cmp	r3, r0
    885c:	ca000006 	bgt	887c <__kernel_rem_pio2+0x9c>
    8860:	e3520000 	cmp	r2, #0, 0
    8864:	bafffff5 	blt	8840 <__kernel_rem_pio2+0x60>
    8868:	e59f13c8 	ldr	r1, [pc, #968]	; 8c38 <__kernel_rem_pio2+0x458>
    886c:	e0811102 	add	r1, r1, r2, lsl #2
    8870:	ed917a04 	vldr	s14, [r1, #16]
    8874:	eeb87bc7 	vcvt.f64.s32	d7, s14
    8878:	eafffff1 	b	8844 <__kernel_rem_pio2+0x64>
    887c:	e3a01000 	mov	r1, #0, 0
    8880:	ea00000e 	b	88c0 <__kernel_rem_pio2+0xe0>
    8884:	e0853182 	add	r3, r5, r2, lsl #3
    8888:	ed935b00 	vldr	d5, [r3]
    888c:	e0813004 	add	r3, r1, r4
    8890:	e0433002 	sub	r3, r3, r2
    8894:	e28d0e23 	add	r0, sp, #560	; 0x230
    8898:	e0803183 	add	r3, r0, r3, lsl #3
    889c:	ed136b3c 	vldr	d6, [r3, #-240]	; 0xffffff10
    88a0:	ee057b06 	vmla.f64	d7, d5, d6
    88a4:	e2822001 	add	r2, r2, #1, 0
    88a8:	e1520004 	cmp	r2, r4
    88ac:	dafffff4 	ble	8884 <__kernel_rem_pio2+0xa4>
    88b0:	e28d3e23 	add	r3, sp, #560	; 0x230
    88b4:	e0833181 	add	r3, r3, r1, lsl #3
    88b8:	ed037b8c 	vstr	d7, [r3, #-560]	; 0xfffffdd0
    88bc:	e2811001 	add	r1, r1, #1, 0
    88c0:	e1510007 	cmp	r1, r7
    88c4:	dd9f7bcd 	vldrle	d7, [pc, #820]	; 8c00 <__kernel_rem_pio2+0x420>
    88c8:	d3a02000 	movle	r2, #0, 0
    88cc:	dafffff5 	ble	88a8 <__kernel_rem_pio2+0xc8>
    88d0:	e1a06007 	mov	r6, r7
    88d4:	ea0000b0 	b	8b9c <__kernel_rem_pio2+0x3bc>
    88d8:	ed9f7bca 	vldr	d7, [pc, #808]	; 8c08 <__kernel_rem_pio2+0x428>
    88dc:	ee207b07 	vmul.f64	d7, d0, d7
    88e0:	eebd7bc7 	vcvt.s32.f64	s14, d7
    88e4:	eeb87bc7 	vcvt.f64.s32	d7, s14
    88e8:	ed9f6bc8 	vldr	d6, [pc, #800]	; 8c10 <__kernel_rem_pio2+0x430>
    88ec:	ee070b46 	vmls.f64	d0, d7, d6
    88f0:	eebd0bc0 	vcvt.s32.f64	s0, d0
    88f4:	e28d1e23 	add	r1, sp, #560	; 0x230
    88f8:	e0811102 	add	r1, r1, r2, lsl #2
    88fc:	ed010a14 	vstr	s0, [r1, #-80]	; 0xffffffb0
    8900:	e2433001 	sub	r3, r3, #1, 0
    8904:	e28d1e23 	add	r1, sp, #560	; 0x230
    8908:	e0811183 	add	r1, r1, r3, lsl #3
    890c:	ed110b8c 	vldr	d0, [r1, #-560]	; 0xfffffdd0
    8910:	ee300b07 	vadd.f64	d0, d0, d7
    8914:	e2822001 	add	r2, r2, #1, 0
    8918:	e3530000 	cmp	r3, #0, 0
    891c:	caffffed 	bgt	88d8 <__kernel_rem_pio2+0xf8>
    8920:	e1a0000a 	mov	r0, sl
    8924:	eb000185 	bl	8f40 <scalbn>
    8928:	eeb08b40 	vmov.f64	d8, d0
    892c:	ed9f0bb9 	vldr	d0, [pc, #740]	; 8c18 <__kernel_rem_pio2+0x438>
    8930:	ee280b00 	vmul.f64	d0, d8, d0
    8934:	eb0001df 	bl	90b8 <floor>
    8938:	ed9f7bb8 	vldr	d7, [pc, #736]	; 8c20 <__kernel_rem_pio2+0x440>
    893c:	ee008b47 	vmls.f64	d8, d0, d7
    8940:	eebd9bc8 	vcvt.s32.f64	s18, d8
    8944:	eeb87bc9 	vcvt.f64.s32	d7, s18
    8948:	ee388b47 	vsub.f64	d8, d8, d7
    894c:	e35a0000 	cmp	sl, #0, 0
    8950:	da000014 	ble	89a8 <__kernel_rem_pio2+0x1c8>
    8954:	e2463001 	sub	r3, r6, #1, 0
    8958:	e28d2e23 	add	r2, sp, #560	; 0x230
    895c:	e0823103 	add	r3, r2, r3, lsl #2
    8960:	e5139050 	ldr	r9, [r3, #-80]	; 0xffffffb0
    8964:	e26a2018 	rsb	r2, sl, #24, 0
    8968:	e1a01259 	asr	r1, r9, r2
    896c:	ee190a10 	vmov	r0, s18
    8970:	e0800001 	add	r0, r0, r1
    8974:	ee090a10 	vmov	s18, r0
    8978:	e0499211 	sub	r9, r9, r1, lsl r2
    897c:	e5039050 	str	r9, [r3, #-80]	; 0xffffffb0
    8980:	e26a3017 	rsb	r3, sl, #23, 0
    8984:	e1a09359 	asr	r9, r9, r3
    8988:	e3590000 	cmp	r9, #0, 0
    898c:	ca000013 	bgt	89e0 <__kernel_rem_pio2+0x200>
    8990:	eeb58b40 	vcmp.f64	d8, #0.0
    8994:	eef1fa10 	vmrs	APSR_nzcv, fpscr
    8998:	1a000085 	bne	8bb4 <__kernel_rem_pio2+0x3d4>
    899c:	e2463001 	sub	r3, r6, #1, 0
    89a0:	e3a0e000 	mov	lr, #0, 0
    89a4:	ea00004f 	b	8ae8 <__kernel_rem_pio2+0x308>
    89a8:	e35a0000 	cmp	sl, #0, 0
    89ac:	1a000005 	bne	89c8 <__kernel_rem_pio2+0x1e8>
    89b0:	e2463001 	sub	r3, r6, #1, 0
    89b4:	e28d2e23 	add	r2, sp, #560	; 0x230
    89b8:	e0823103 	add	r3, r2, r3, lsl #2
    89bc:	e5139050 	ldr	r9, [r3, #-80]	; 0xffffffb0
    89c0:	e1a09bc9 	asr	r9, r9, #23
    89c4:	eaffffef 	b	8988 <__kernel_rem_pio2+0x1a8>
    89c8:	ed9f7b96 	vldr	d7, [pc, #600]	; 8c28 <__kernel_rem_pio2+0x448>
    89cc:	eeb48bc7 	vcmpe.f64	d8, d7
    89d0:	eef1fa10 	vmrs	APSR_nzcv, fpscr
    89d4:	b3a09000 	movlt	r9, #0, 0
    89d8:	baffffec 	blt	8990 <__kernel_rem_pio2+0x1b0>
    89dc:	e3a09002 	mov	r9, #2, 0
    89e0:	ee193a10 	vmov	r3, s18
    89e4:	e2833001 	add	r3, r3, #1, 0
    89e8:	ee093a10 	vmov	s18, r3
    89ec:	e3a03000 	mov	r3, #0, 0
    89f0:	e1a01003 	mov	r1, r3
    89f4:	ea000006 	b	8a14 <__kernel_rem_pio2+0x234>
    89f8:	e26228ff 	rsb	r2, r2, #16711680	; 0xff0000
    89fc:	e2822cff 	add	r2, r2, #65280	; 0xff00
    8a00:	e28220ff 	add	r2, r2, #255, 0	; 0xff
    8a04:	e28d0e23 	add	r0, sp, #560	; 0x230
    8a08:	e0800103 	add	r0, r0, r3, lsl #2
    8a0c:	e5002050 	str	r2, [r0, #-80]	; 0xffffffb0
    8a10:	e2833001 	add	r3, r3, #1, 0
    8a14:	e1560003 	cmp	r6, r3
    8a18:	da00000c 	ble	8a50 <__kernel_rem_pio2+0x270>
    8a1c:	e28d2e23 	add	r2, sp, #560	; 0x230
    8a20:	e0822103 	add	r2, r2, r3, lsl #2
    8a24:	e5122050 	ldr	r2, [r2, #-80]	; 0xffffffb0
    8a28:	e3510000 	cmp	r1, #0, 0
    8a2c:	1afffff1 	bne	89f8 <__kernel_rem_pio2+0x218>
    8a30:	e3520000 	cmp	r2, #0, 0
    8a34:	0afffff5 	beq	8a10 <__kernel_rem_pio2+0x230>
    8a38:	e2622401 	rsb	r2, r2, #16777216	; 0x1000000
    8a3c:	e28d1e23 	add	r1, sp, #560	; 0x230
    8a40:	e0811103 	add	r1, r1, r3, lsl #2
    8a44:	e5012050 	str	r2, [r1, #-80]	; 0xffffffb0
    8a48:	e3a01001 	mov	r1, #1, 0
    8a4c:	eaffffef 	b	8a10 <__kernel_rem_pio2+0x230>
    8a50:	e35a0000 	cmp	sl, #0, 0
    8a54:	da000003 	ble	8a68 <__kernel_rem_pio2+0x288>
    8a58:	e35a0001 	cmp	sl, #1, 0
    8a5c:	0a00000c 	beq	8a94 <__kernel_rem_pio2+0x2b4>
    8a60:	e35a0002 	cmp	sl, #2, 0
    8a64:	0a000012 	beq	8ab4 <__kernel_rem_pio2+0x2d4>
    8a68:	e3590002 	cmp	r9, #2, 0
    8a6c:	1affffc7 	bne	8990 <__kernel_rem_pio2+0x1b0>
    8a70:	ed9f7b6e 	vldr	d7, [pc, #440]	; 8c30 <__kernel_rem_pio2+0x450>
    8a74:	ee378b48 	vsub.f64	d8, d7, d8
    8a78:	e3510000 	cmp	r1, #0, 0
    8a7c:	0affffc3 	beq	8990 <__kernel_rem_pio2+0x1b0>
    8a80:	e1a0000a 	mov	r0, sl
    8a84:	eeb00b47 	vmov.f64	d0, d7
    8a88:	eb00012c 	bl	8f40 <scalbn>
    8a8c:	ee388b40 	vsub.f64	d8, d8, d0
    8a90:	eaffffbe 	b	8990 <__kernel_rem_pio2+0x1b0>
    8a94:	e2462001 	sub	r2, r6, #1, 0
    8a98:	e28d3e23 	add	r3, sp, #560	; 0x230
    8a9c:	e0832102 	add	r2, r3, r2, lsl #2
    8aa0:	e5123050 	ldr	r3, [r2, #-80]	; 0xffffffb0
    8aa4:	e3c334ff 	bic	r3, r3, #-16777216	; 0xff000000
    8aa8:	e3c33502 	bic	r3, r3, #8388608	; 0x800000
    8aac:	e5023050 	str	r3, [r2, #-80]	; 0xffffffb0
    8ab0:	eaffffec 	b	8a68 <__kernel_rem_pio2+0x288>
    8ab4:	e2462001 	sub	r2, r6, #1, 0
    8ab8:	e28d3e23 	add	r3, sp, #560	; 0x230
    8abc:	e0832102 	add	r2, r3, r2, lsl #2
    8ac0:	e5123050 	ldr	r3, [r2, #-80]	; 0xffffffb0
    8ac4:	e3c334ff 	bic	r3, r3, #-16777216	; 0xff000000
    8ac8:	e3c33503 	bic	r3, r3, #12582912	; 0xc00000
    8acc:	e5023050 	str	r3, [r2, #-80]	; 0xffffffb0
    8ad0:	eaffffe4 	b	8a68 <__kernel_rem_pio2+0x288>
    8ad4:	e28d2e23 	add	r2, sp, #560	; 0x230
    8ad8:	e0822103 	add	r2, r2, r3, lsl #2
    8adc:	e5122050 	ldr	r2, [r2, #-80]	; 0xffffffb0
    8ae0:	e18ee002 	orr	lr, lr, r2
    8ae4:	e2433001 	sub	r3, r3, #1, 0
    8ae8:	e1530007 	cmp	r3, r7
    8aec:	aafffff8 	bge	8ad4 <__kernel_rem_pio2+0x2f4>
    8af0:	e35e0000 	cmp	lr, #0, 0
    8af4:	1a00002e 	bne	8bb4 <__kernel_rem_pio2+0x3d4>
    8af8:	e3a0c001 	mov	ip, #1, 0
    8afc:	ea000000 	b	8b04 <__kernel_rem_pio2+0x324>
    8b00:	e28cc001 	add	ip, ip, #1, 0
    8b04:	e047300c 	sub	r3, r7, ip
    8b08:	e28d2e23 	add	r2, sp, #560	; 0x230
    8b0c:	e0823103 	add	r3, r2, r3, lsl #2
    8b10:	e5133050 	ldr	r3, [r3, #-80]	; 0xffffffb0
    8b14:	e3530000 	cmp	r3, #0, 0
    8b18:	0afffff8 	beq	8b00 <__kernel_rem_pio2+0x320>
    8b1c:	e2860001 	add	r0, r6, #1, 0
    8b20:	ea00000d 	b	8b5c <__kernel_rem_pio2+0x37c>
    8b24:	e0852183 	add	r2, r5, r3, lsl #3
    8b28:	ed925b00 	vldr	d5, [r2]
    8b2c:	e0412003 	sub	r2, r1, r3
    8b30:	e28d9e23 	add	r9, sp, #560	; 0x230
    8b34:	e0892182 	add	r2, r9, r2, lsl #3
    8b38:	ed126b3c 	vldr	d6, [r2, #-240]	; 0xffffff10
    8b3c:	ee057b06 	vmla.f64	d7, d5, d6
    8b40:	e2833001 	add	r3, r3, #1, 0
    8b44:	e1530004 	cmp	r3, r4
    8b48:	dafffff5 	ble	8b24 <__kernel_rem_pio2+0x344>
    8b4c:	e28d3e23 	add	r3, sp, #560	; 0x230
    8b50:	e0833180 	add	r3, r3, r0, lsl #3
    8b54:	ed037b8c 	vstr	d7, [r3, #-560]	; 0xfffffdd0
    8b58:	e2800001 	add	r0, r0, #1, 0
    8b5c:	e086300c 	add	r3, r6, ip
    8b60:	e1530000 	cmp	r3, r0
    8b64:	ba00000b 	blt	8b98 <__kernel_rem_pio2+0x3b8>
    8b68:	e0883000 	add	r3, r8, r0
    8b6c:	e59f20c4 	ldr	r2, [pc, #196]	; 8c38 <__kernel_rem_pio2+0x458>
    8b70:	e0823103 	add	r3, r2, r3, lsl #2
    8b74:	ed937a04 	vldr	s14, [r3, #16]
    8b78:	e0801004 	add	r1, r0, r4
    8b7c:	eeb87bc7 	vcvt.f64.s32	d7, s14
    8b80:	e28d3e23 	add	r3, sp, #560	; 0x230
    8b84:	e0833181 	add	r3, r3, r1, lsl #3
    8b88:	ed037b3c 	vstr	d7, [r3, #-240]	; 0xffffff10
    8b8c:	e1a0300e 	mov	r3, lr
    8b90:	ed9f7b1a 	vldr	d7, [pc, #104]	; 8c00 <__kernel_rem_pio2+0x420>
    8b94:	eaffffea 	b	8b44 <__kernel_rem_pio2+0x364>
    8b98:	e1a06003 	mov	r6, r3
    8b9c:	e28d3e23 	add	r3, sp, #560	; 0x230
    8ba0:	e0833186 	add	r3, r3, r6, lsl #3
    8ba4:	ed130b8c 	vldr	d0, [r3, #-560]	; 0xfffffdd0
    8ba8:	e1a03006 	mov	r3, r6
    8bac:	e3a02000 	mov	r2, #0, 0
    8bb0:	eaffff58 	b	8918 <__kernel_rem_pio2+0x138>
    8bb4:	eeb58b40 	vcmp.f64	d8, #0.0
    8bb8:	eef1fa10 	vmrs	APSR_nzcv, fpscr
    8bbc:	1a00001f 	bne	8c40 <__kernel_rem_pio2+0x460>
    8bc0:	e2466001 	sub	r6, r6, #1, 0
    8bc4:	e24aa018 	sub	sl, sl, #24, 0
    8bc8:	ea000001 	b	8bd4 <__kernel_rem_pio2+0x3f4>
    8bcc:	e2466001 	sub	r6, r6, #1, 0
    8bd0:	e24aa018 	sub	sl, sl, #24, 0
    8bd4:	e28d3e23 	add	r3, sp, #560	; 0x230
    8bd8:	e0833106 	add	r3, r3, r6, lsl #2
    8bdc:	e5133050 	ldr	r3, [r3, #-80]	; 0xffffffb0
    8be0:	e3530000 	cmp	r3, #0, 0
    8be4:	0afffff8 	beq	8bcc <__kernel_rem_pio2+0x3ec>
    8be8:	e1a0000a 	mov	r0, sl
    8bec:	ed9f0b0f 	vldr	d0, [pc, #60]	; 8c30 <__kernel_rem_pio2+0x450>
    8bf0:	eb0000d2 	bl	8f40 <scalbn>
    8bf4:	e1a03006 	mov	r3, r6
    8bf8:	ea000038 	b	8ce0 <__kernel_rem_pio2+0x500>
    8bfc:	e320f000 	nop	{0}
	...
    8c0c:	3e700000 	cdpcc	0, 7, cr0, cr0, cr0, {0}
    8c10:	00000000 	andeq	r0, r0, r0
    8c14:	41700000 	cmnmi	r0, r0
    8c18:	00000000 	andeq	r0, r0, r0
    8c1c:	3fc00000 	svccc	0x00c00000
    8c20:	00000000 	andeq	r0, r0, r0
    8c24:	40200000 	eormi	r0, r0, r0
    8c28:	00000000 	andeq	r0, r0, r0
    8c2c:	3fe00000 	svccc	0x00e00000
    8c30:	00000000 	andeq	r0, r0, r0
    8c34:	3ff00000 	svccc	0x00f00000	; IMB
    8c38:	0000a250 	andeq	sl, r0, r0, asr r2
    8c3c:	2aaaaaab 	bcs	feab36f0 <__bss_end__+0xfeaa8dd8>
    8c40:	e26a0000 	rsb	r0, sl, #0, 0
    8c44:	eeb00b48 	vmov.f64	d0, d8
    8c48:	eb0000bc 	bl	8f40 <scalbn>
    8c4c:	eeb07b40 	vmov.f64	d7, d0
    8c50:	ed9f6bb2 	vldr	d6, [pc, #712]	; 8f20 <__kernel_rem_pio2+0x740>
    8c54:	eeb40bc6 	vcmpe.f64	d0, d6
    8c58:	eef1fa10 	vmrs	APSR_nzcv, fpscr
    8c5c:	ba00000f 	blt	8ca0 <__kernel_rem_pio2+0x4c0>
    8c60:	ed9f6bb0 	vldr	d6, [pc, #704]	; 8f28 <__kernel_rem_pio2+0x748>
    8c64:	ee206b06 	vmul.f64	d6, d0, d6
    8c68:	eebd6bc6 	vcvt.s32.f64	s12, d6
    8c6c:	eeb84bc6 	vcvt.f64.s32	d4, s12
    8c70:	ed9f5baa 	vldr	d5, [pc, #680]	; 8f20 <__kernel_rem_pio2+0x740>
    8c74:	ee047b45 	vmls.f64	d7, d4, d5
    8c78:	eebd7bc7 	vcvt.s32.f64	s14, d7
    8c7c:	e28d3e23 	add	r3, sp, #560	; 0x230
    8c80:	e0833106 	add	r3, r3, r6, lsl #2
    8c84:	ed037a14 	vstr	s14, [r3, #-80]	; 0xffffffb0
    8c88:	e2866001 	add	r6, r6, #1, 0
    8c8c:	e28aa018 	add	sl, sl, #24, 0
    8c90:	e28d3e23 	add	r3, sp, #560	; 0x230
    8c94:	e0833106 	add	r3, r3, r6, lsl #2
    8c98:	ed036a14 	vstr	s12, [r3, #-80]	; 0xffffffb0
    8c9c:	eaffffd1 	b	8be8 <__kernel_rem_pio2+0x408>
    8ca0:	eebd7bc0 	vcvt.s32.f64	s14, d0
    8ca4:	e28d3e23 	add	r3, sp, #560	; 0x230
    8ca8:	e0833106 	add	r3, r3, r6, lsl #2
    8cac:	ed037a14 	vstr	s14, [r3, #-80]	; 0xffffffb0
    8cb0:	eaffffcc 	b	8be8 <__kernel_rem_pio2+0x408>
    8cb4:	e28d2e23 	add	r2, sp, #560	; 0x230
    8cb8:	e0822103 	add	r2, r2, r3, lsl #2
    8cbc:	ed127a14 	vldr	s14, [r2, #-80]	; 0xffffffb0
    8cc0:	eeb87bc7 	vcvt.f64.s32	d7, s14
    8cc4:	ee277b00 	vmul.f64	d7, d7, d0
    8cc8:	e28d2e23 	add	r2, sp, #560	; 0x230
    8ccc:	e0822183 	add	r2, r2, r3, lsl #3
    8cd0:	ed027b8c 	vstr	d7, [r2, #-560]	; 0xfffffdd0
    8cd4:	ed9f7b93 	vldr	d7, [pc, #588]	; 8f28 <__kernel_rem_pio2+0x748>
    8cd8:	ee200b07 	vmul.f64	d0, d0, d7
    8cdc:	e2433001 	sub	r3, r3, #1, 0
    8ce0:	e3530000 	cmp	r3, #0, 0
    8ce4:	aafffff2 	bge	8cb4 <__kernel_rem_pio2+0x4d4>
    8ce8:	e1a01006 	mov	r1, r6
    8cec:	ea000012 	b	8d3c <__kernel_rem_pio2+0x55c>
    8cf0:	e59f2240 	ldr	r2, [pc, #576]	; 8f38 <__kernel_rem_pio2+0x758>
    8cf4:	e0822183 	add	r2, r2, r3, lsl #3
    8cf8:	ed925b46 	vldr	d5, [r2, #280]	; 0x118
    8cfc:	e0812003 	add	r2, r1, r3
    8d00:	e28d0e23 	add	r0, sp, #560	; 0x230
    8d04:	e0802182 	add	r2, r0, r2, lsl #3
    8d08:	ed126b8c 	vldr	d6, [r2, #-560]	; 0xfffffdd0
    8d0c:	ee057b06 	vmla.f64	d7, d5, d6
    8d10:	e2833001 	add	r3, r3, #1, 0
    8d14:	e1530007 	cmp	r3, r7
    8d18:	ca000002 	bgt	8d28 <__kernel_rem_pio2+0x548>
    8d1c:	e0462001 	sub	r2, r6, r1
    8d20:	e1520003 	cmp	r2, r3
    8d24:	aafffff1 	bge	8cf0 <__kernel_rem_pio2+0x510>
    8d28:	e0463001 	sub	r3, r6, r1
    8d2c:	e28d2e23 	add	r2, sp, #560	; 0x230
    8d30:	e0823183 	add	r3, r2, r3, lsl #3
    8d34:	ed037b64 	vstr	d7, [r3, #-400]	; 0xfffffe70
    8d38:	e2411001 	sub	r1, r1, #1, 0
    8d3c:	e3510000 	cmp	r1, #0, 0
    8d40:	ad9f7b7a 	vldrge	d7, [pc, #488]	; 8f30 <__kernel_rem_pio2+0x750>
    8d44:	a3a03000 	movge	r3, #0, 0
    8d48:	aafffff1 	bge	8d14 <__kernel_rem_pio2+0x534>
    8d4c:	e59d3268 	ldr	r3, [sp, #616]	; 0x268
    8d50:	e3530002 	cmp	r3, #2, 0
    8d54:	ca000004 	bgt	8d6c <__kernel_rem_pio2+0x58c>
    8d58:	e3530000 	cmp	r3, #0, 0
    8d5c:	ca000025 	bgt	8df8 <__kernel_rem_pio2+0x618>
    8d60:	1a000010 	bne	8da8 <__kernel_rem_pio2+0x5c8>
    8d64:	ed9f7b71 	vldr	d7, [pc, #452]	; 8f30 <__kernel_rem_pio2+0x750>
    8d68:	ea000009 	b	8d94 <__kernel_rem_pio2+0x5b4>
    8d6c:	e59d3268 	ldr	r3, [sp, #616]	; 0x268
    8d70:	e3530003 	cmp	r3, #3, 0
    8d74:	1a00000b 	bne	8da8 <__kernel_rem_pio2+0x5c8>
    8d78:	e1a03006 	mov	r3, r6
    8d7c:	ea00003a 	b	8e6c <__kernel_rem_pio2+0x68c>
    8d80:	e28d3e23 	add	r3, sp, #560	; 0x230
    8d84:	e0833186 	add	r3, r3, r6, lsl #3
    8d88:	ed136b64 	vldr	d6, [r3, #-400]	; 0xfffffe70
    8d8c:	ee377b06 	vadd.f64	d7, d7, d6
    8d90:	e2466001 	sub	r6, r6, #1, 0
    8d94:	e3560000 	cmp	r6, #0, 0
    8d98:	aafffff8 	bge	8d80 <__kernel_rem_pio2+0x5a0>
    8d9c:	e3590000 	cmp	r9, #0, 0
    8da0:	1eb17b47 	vnegne.f64	d7, d7
    8da4:	ed8b7b00 	vstr	d7, [fp]
    8da8:	ee193a10 	vmov	r3, s18
    8dac:	e2030007 	and	r0, r3, #7, 0
    8db0:	e28ddf8d 	add	sp, sp, #564	; 0x234
    8db4:	ecbd8b04 	vpop	{d8-d9}
    8db8:	e8bd8ff0 	pop	{r4, r5, r6, r7, r8, r9, sl, fp, pc}
    8dbc:	e28d2e23 	add	r2, sp, #560	; 0x230
    8dc0:	e0822183 	add	r2, r2, r3, lsl #3
    8dc4:	ed127b64 	vldr	d7, [r2, #-400]	; 0xfffffe70
    8dc8:	ee366b07 	vadd.f64	d6, d6, d7
    8dcc:	e2433001 	sub	r3, r3, #1, 0
    8dd0:	e3530000 	cmp	r3, #0, 0
    8dd4:	aafffff8 	bge	8dbc <__kernel_rem_pio2+0x5dc>
    8dd8:	e3590000 	cmp	r9, #0, 0
    8ddc:	0a000008 	beq	8e04 <__kernel_rem_pio2+0x624>
    8de0:	eeb17b46 	vneg.f64	d7, d6
    8de4:	ed8b7b00 	vstr	d7, [fp]
    8de8:	ed9d7b28 	vldr	d7, [sp, #160]	; 0xa0
    8dec:	ee377b46 	vsub.f64	d7, d7, d6
    8df0:	e3a03001 	mov	r3, #1, 0
    8df4:	ea000009 	b	8e20 <__kernel_rem_pio2+0x640>
    8df8:	e1a03006 	mov	r3, r6
    8dfc:	ed9f6b4b 	vldr	d6, [pc, #300]	; 8f30 <__kernel_rem_pio2+0x750>
    8e00:	eafffff2 	b	8dd0 <__kernel_rem_pio2+0x5f0>
    8e04:	eeb07b46 	vmov.f64	d7, d6
    8e08:	eafffff5 	b	8de4 <__kernel_rem_pio2+0x604>
    8e0c:	e28d2e23 	add	r2, sp, #560	; 0x230
    8e10:	e0822183 	add	r2, r2, r3, lsl #3
    8e14:	ed126b64 	vldr	d6, [r2, #-400]	; 0xfffffe70
    8e18:	ee377b06 	vadd.f64	d7, d7, d6
    8e1c:	e2833001 	add	r3, r3, #1, 0
    8e20:	e1560003 	cmp	r6, r3
    8e24:	aafffff8 	bge	8e0c <__kernel_rem_pio2+0x62c>
    8e28:	e3590000 	cmp	r9, #0, 0
    8e2c:	1eb17b47 	vnegne.f64	d7, d7
    8e30:	ed8b7b02 	vstr	d7, [fp, #8]
    8e34:	eaffffdb 	b	8da8 <__kernel_rem_pio2+0x5c8>
    8e38:	e2432001 	sub	r2, r3, #1, 0
    8e3c:	e28d1e23 	add	r1, sp, #560	; 0x230
    8e40:	e0811182 	add	r1, r1, r2, lsl #3
    8e44:	ed116b64 	vldr	d6, [r1, #-400]	; 0xfffffe70
    8e48:	e28d0e23 	add	r0, sp, #560	; 0x230
    8e4c:	e0803183 	add	r3, r0, r3, lsl #3
    8e50:	ed137b64 	vldr	d7, [r3, #-400]	; 0xfffffe70
    8e54:	ee365b07 	vadd.f64	d5, d6, d7
    8e58:	ee366b45 	vsub.f64	d6, d6, d5
    8e5c:	ee377b06 	vadd.f64	d7, d7, d6
    8e60:	ed037b64 	vstr	d7, [r3, #-400]	; 0xfffffe70
    8e64:	ed015b64 	vstr	d5, [r1, #-400]	; 0xfffffe70
    8e68:	e1a03002 	mov	r3, r2
    8e6c:	e3530000 	cmp	r3, #0, 0
    8e70:	cafffff0 	bgt	8e38 <__kernel_rem_pio2+0x658>
    8e74:	e1a03006 	mov	r3, r6
    8e78:	ea00000c 	b	8eb0 <__kernel_rem_pio2+0x6d0>
    8e7c:	e2432001 	sub	r2, r3, #1, 0
    8e80:	e28d1e23 	add	r1, sp, #560	; 0x230
    8e84:	e0811182 	add	r1, r1, r2, lsl #3
    8e88:	ed116b64 	vldr	d6, [r1, #-400]	; 0xfffffe70
    8e8c:	e28d0e23 	add	r0, sp, #560	; 0x230
    8e90:	e0803183 	add	r3, r0, r3, lsl #3
    8e94:	ed137b64 	vldr	d7, [r3, #-400]	; 0xfffffe70
    8e98:	ee365b07 	vadd.f64	d5, d6, d7
    8e9c:	ee366b45 	vsub.f64	d6, d6, d5
    8ea0:	ee377b06 	vadd.f64	d7, d7, d6
    8ea4:	ed037b64 	vstr	d7, [r3, #-400]	; 0xfffffe70
    8ea8:	ed015b64 	vstr	d5, [r1, #-400]	; 0xfffffe70
    8eac:	e1a03002 	mov	r3, r2
    8eb0:	e3530001 	cmp	r3, #1, 0
    8eb4:	cafffff0 	bgt	8e7c <__kernel_rem_pio2+0x69c>
    8eb8:	ed9f7b1c 	vldr	d7, [pc, #112]	; 8f30 <__kernel_rem_pio2+0x750>
    8ebc:	ea000004 	b	8ed4 <__kernel_rem_pio2+0x6f4>
    8ec0:	e28d3e23 	add	r3, sp, #560	; 0x230
    8ec4:	e0833186 	add	r3, r3, r6, lsl #3
    8ec8:	ed136b64 	vldr	d6, [r3, #-400]	; 0xfffffe70
    8ecc:	ee377b06 	vadd.f64	d7, d7, d6
    8ed0:	e2466001 	sub	r6, r6, #1, 0
    8ed4:	e3560001 	cmp	r6, #1, 0
    8ed8:	cafffff8 	bgt	8ec0 <__kernel_rem_pio2+0x6e0>
    8edc:	e3590000 	cmp	r9, #0, 0
    8ee0:	1a000005 	bne	8efc <__kernel_rem_pio2+0x71c>
    8ee4:	e1cd2ad0 	ldrd	r2, [sp, #160]	; 0xa0
    8ee8:	e1cb20f0 	strd	r2, [fp]
    8eec:	e1cd2ad8 	ldrd	r2, [sp, #168]	; 0xa8
    8ef0:	e1cb20f8 	strd	r2, [fp, #8]
    8ef4:	ed8b7b04 	vstr	d7, [fp, #16]
    8ef8:	eaffffaa 	b	8da8 <__kernel_rem_pio2+0x5c8>
    8efc:	ed9d6b28 	vldr	d6, [sp, #160]	; 0xa0
    8f00:	eeb16b46 	vneg.f64	d6, d6
    8f04:	ed8b6b00 	vstr	d6, [fp]
    8f08:	ed9d6b2a 	vldr	d6, [sp, #168]	; 0xa8
    8f0c:	eeb16b46 	vneg.f64	d6, d6
    8f10:	ed8b6b02 	vstr	d6, [fp, #8]
    8f14:	eeb17b47 	vneg.f64	d7, d7
    8f18:	ed8b7b04 	vstr	d7, [fp, #16]
    8f1c:	eaffffa1 	b	8da8 <__kernel_rem_pio2+0x5c8>
    8f20:	00000000 	andeq	r0, r0, r0
    8f24:	41700000 	cmnmi	r0, r0
    8f28:	00000000 	andeq	r0, r0, r0
    8f2c:	3e700000 	cdpcc	0, 7, cr0, cr0, cr0, {0}
	...
    8f38:	0000a250 	andeq	sl, r0, r0, asr r2
    8f3c:	00000000 	andeq	r0, r0, r0

00008f40 <scalbn>:
    8f40:	e52de004 	push	{lr}		; (str lr, [sp, #-4]!)
    8f44:	ed2d8b02 	vpush	{d8}
    8f48:	e24dd00c 	sub	sp, sp, #12, 0
    8f4c:	ed8d0b00 	vstr	d0, [sp]
    8f50:	e59d2004 	ldr	r2, [sp, #4]
    8f54:	e59d1000 	ldr	r1, [sp]
    8f58:	e1a03a42 	asr	r3, r2, #20
    8f5c:	e1a03a83 	lsl	r3, r3, #21
    8f60:	e1a03aa3 	lsr	r3, r3, #21
    8f64:	e3530000 	cmp	r3, #0, 0
    8f68:	1a00000d 	bne	8fa4 <scalbn+0x64>
    8f6c:	e3c22102 	bic	r2, r2, #-2147483648	; 0x80000000
    8f70:	e1923001 	orrs	r3, r2, r1
    8f74:	0a000041 	beq	9080 <scalbn+0x140>
    8f78:	ed9f7b42 	vldr	d7, [pc, #264]	; 9088 <scalbn+0x148>
    8f7c:	ee207b07 	vmul.f64	d7, d0, d7
    8f80:	ed8d7b00 	vstr	d7, [sp]
    8f84:	e59d2004 	ldr	r2, [sp, #4]
    8f88:	e1a03a42 	asr	r3, r2, #20
    8f8c:	e1a03a83 	lsl	r3, r3, #21
    8f90:	e1a03aa3 	lsr	r3, r3, #21
    8f94:	e2433036 	sub	r3, r3, #54, 0	; 0x36
    8f98:	e59f1108 	ldr	r1, [pc, #264]	; 90a8 <scalbn+0x168>
    8f9c:	e1500001 	cmp	r0, r1
    8fa0:	ba000013 	blt	8ff4 <scalbn+0xb4>
    8fa4:	e59f1100 	ldr	r1, [pc, #256]	; 90ac <scalbn+0x16c>
    8fa8:	e1530001 	cmp	r3, r1
    8fac:	0a000013 	beq	9000 <scalbn+0xc0>
    8fb0:	e0833000 	add	r3, r3, r0
    8fb4:	e59f10f4 	ldr	r1, [pc, #244]	; 90b0 <scalbn+0x170>
    8fb8:	e1530001 	cmp	r3, r1
    8fbc:	ca000012 	bgt	900c <scalbn+0xcc>
    8fc0:	e3530000 	cmp	r3, #0, 0
    8fc4:	ca000016 	bgt	9024 <scalbn+0xe4>
    8fc8:	e3730035 	cmn	r3, #53, 0	; 0x35
    8fcc:	aa000022 	bge	905c <scalbn+0x11c>
    8fd0:	e59f30dc 	ldr	r3, [pc, #220]	; 90b4 <scalbn+0x174>
    8fd4:	e1500003 	cmp	r0, r3
    8fd8:	da000019 	ble	9044 <scalbn+0x104>
    8fdc:	ed9f8b2b 	vldr	d8, [pc, #172]	; 9090 <scalbn+0x150>
    8fe0:	ed9d1b00 	vldr	d1, [sp]
    8fe4:	eeb00b48 	vmov.f64	d0, d8
    8fe8:	eb000092 	bl	9238 <copysign>
    8fec:	ee200b08 	vmul.f64	d0, d0, d8
    8ff0:	ea000010 	b	9038 <scalbn+0xf8>
    8ff4:	ed9f0b27 	vldr	d0, [pc, #156]	; 9098 <scalbn+0x158>
    8ff8:	ee270b00 	vmul.f64	d0, d7, d0
    8ffc:	ea00000d 	b	9038 <scalbn+0xf8>
    9000:	ed9d7b00 	vldr	d7, [sp]
    9004:	ee370b07 	vadd.f64	d0, d7, d7
    9008:	ea00000a 	b	9038 <scalbn+0xf8>
    900c:	ed9f8b1f 	vldr	d8, [pc, #124]	; 9090 <scalbn+0x150>
    9010:	ed9d1b00 	vldr	d1, [sp]
    9014:	eeb00b48 	vmov.f64	d0, d8
    9018:	eb000086 	bl	9238 <copysign>
    901c:	ee200b08 	vmul.f64	d0, d0, d8
    9020:	ea000004 	b	9038 <scalbn+0xf8>
    9024:	e1cd00d0 	ldrd	r0, [sp]
    9028:	e3c2247f 	bic	r2, r2, #2130706432	; 0x7f000000
    902c:	e3c2260f 	bic	r2, r2, #15728640	; 0xf00000
    9030:	e1821a03 	orr	r1, r2, r3, lsl #20
    9034:	ec410b10 	vmov	d0, r0, r1
    9038:	e28dd00c 	add	sp, sp, #12, 0
    903c:	ecbd8b02 	vpop	{d8}
    9040:	e49df004 	pop	{pc}		; (ldr pc, [sp], #4)
    9044:	ed9f8b13 	vldr	d8, [pc, #76]	; 9098 <scalbn+0x158>
    9048:	ed9d1b00 	vldr	d1, [sp]
    904c:	eeb00b48 	vmov.f64	d0, d8
    9050:	eb000078 	bl	9238 <copysign>
    9054:	ee200b08 	vmul.f64	d0, d0, d8
    9058:	eafffff6 	b	9038 <scalbn+0xf8>
    905c:	e2833036 	add	r3, r3, #54, 0	; 0x36
    9060:	e1cd00d0 	ldrd	r0, [sp]
    9064:	e3c2247f 	bic	r2, r2, #2130706432	; 0x7f000000
    9068:	e3c2260f 	bic	r2, r2, #15728640	; 0xf00000
    906c:	e1821a03 	orr	r1, r2, r3, lsl #20
    9070:	ec410b10 	vmov	d0, r0, r1
    9074:	ed9f7b09 	vldr	d7, [pc, #36]	; 90a0 <scalbn+0x160>
    9078:	ee200b07 	vmul.f64	d0, d0, d7
    907c:	eaffffed 	b	9038 <scalbn+0xf8>
    9080:	ed9d0b00 	vldr	d0, [sp]
    9084:	eaffffeb 	b	9038 <scalbn+0xf8>
    9088:	00000000 	andeq	r0, r0, r0
    908c:	43500000 	cmpmi	r0, #0, 0
    9090:	8800759c 	stmdahi	r0, {r2, r3, r4, r7, r8, sl, ip, sp, lr}
    9094:	7e37e43c 	mrcvc	4, 1, lr, cr7, cr12, {1}
    9098:	c2f8f359 	rscsgt	pc, r8, #1677721601	; 0x64000001
    909c:	01a56e1f 			; <UNDEFINED> instruction: 0x01a56e1f
    90a0:	00000000 	andeq	r0, r0, r0
    90a4:	3c900000 	ldccc	0, cr0, [r0], {0}
    90a8:	ffff3cb0 			; <UNDEFINED> instruction: 0xffff3cb0
    90ac:	000007ff 	strdeq	r0, [r0], -pc	; <UNPREDICTABLE>
    90b0:	000007fe 	strdeq	r0, [r0], -lr
    90b4:	0000c350 	andeq	ip, r0, r0, asr r3

000090b8 <floor>:
    90b8:	e92d4010 	push	{r4, lr}
    90bc:	e24dd008 	sub	sp, sp, #8, 0
    90c0:	ed8d0b00 	vstr	d0, [sp]
    90c4:	e59d1004 	ldr	r1, [sp, #4]
    90c8:	e1a0e001 	mov	lr, r1
    90cc:	e59d0000 	ldr	r0, [sp]
    90d0:	e1a0c000 	mov	ip, r0
    90d4:	e1a03a41 	asr	r3, r1, #20
    90d8:	e1a03a83 	lsl	r3, r3, #21
    90dc:	e1a03aa3 	lsr	r3, r3, #21
    90e0:	e2432fff 	sub	r2, r3, #1020	; 0x3fc
    90e4:	e2422003 	sub	r2, r2, #3, 0
    90e8:	e3520013 	cmp	r2, #19, 0
    90ec:	ca000026 	bgt	918c <floor+0xd4>
    90f0:	e3520000 	cmp	r2, #0, 0
    90f4:	ba000013 	blt	9148 <floor+0x90>
    90f8:	e59f3130 	ldr	r3, [pc, #304]	; 9230 <floor+0x178>
    90fc:	e1a03253 	asr	r3, r3, r2
    9100:	e0014003 	and	r4, r1, r3
    9104:	e1940000 	orrs	r0, r4, r0
    9108:	0a000041 	beq	9214 <floor+0x15c>
    910c:	ed9f7b45 	vldr	d7, [pc, #276]	; 9228 <floor+0x170>
    9110:	ed9d6b00 	vldr	d6, [sp]
    9114:	ee367b07 	vadd.f64	d7, d6, d7
    9118:	eeb57bc0 	vcmpe.f64	d7, #0.0
    911c:	eef1fa10 	vmrs	APSR_nzcv, fpscr
    9120:	da000003 	ble	9134 <floor+0x7c>
    9124:	e3510000 	cmp	r1, #0, 0
    9128:	ba000014 	blt	9180 <floor+0xc8>
    912c:	e1cee003 	bic	lr, lr, r3
    9130:	e3a0c000 	mov	ip, #0, 0
    9134:	e1a0300e 	mov	r3, lr
    9138:	e1a0200c 	mov	r2, ip
    913c:	ec432b10 	vmov	d0, r2, r3
    9140:	e28dd008 	add	sp, sp, #8, 0
    9144:	e8bd8010 	pop	{r4, pc}
    9148:	ed9f7b36 	vldr	d7, [pc, #216]	; 9228 <floor+0x170>
    914c:	ee307b07 	vadd.f64	d7, d0, d7
    9150:	eeb57bc0 	vcmpe.f64	d7, #0.0
    9154:	eef1fa10 	vmrs	APSR_nzcv, fpscr
    9158:	dafffff5 	ble	9134 <floor+0x7c>
    915c:	e3510000 	cmp	r1, #0, 0
    9160:	a3a0c000 	movge	ip, #0, 0
    9164:	a1a0e00c 	movge	lr, ip
    9168:	aafffff1 	bge	9134 <floor+0x7c>
    916c:	e3c11102 	bic	r1, r1, #-2147483648	; 0x80000000
    9170:	e1913000 	orrs	r3, r1, r0
    9174:	13a0c000 	movne	ip, #0, 0
    9178:	159fe0b4 	ldrne	lr, [pc, #180]	; 9234 <floor+0x17c>
    917c:	eaffffec 	b	9134 <floor+0x7c>
    9180:	e3a0e601 	mov	lr, #1048576	; 0x100000
    9184:	e081e25e 	add	lr, r1, lr, asr r2
    9188:	eaffffe7 	b	912c <floor+0x74>
    918c:	e3520033 	cmp	r2, #51, 0	; 0x33
    9190:	da000005 	ble	91ac <floor+0xf4>
    9194:	e3520b01 	cmp	r2, #1024	; 0x400
    9198:	1d9d0b00 	vldrne	d0, [sp]
    919c:	1affffe7 	bne	9140 <floor+0x88>
    91a0:	ed9d7b00 	vldr	d7, [sp]
    91a4:	ee370b07 	vadd.f64	d0, d7, d7
    91a8:	eaffffe4 	b	9140 <floor+0x88>
    91ac:	e2433e41 	sub	r3, r3, #1040	; 0x410
    91b0:	e2433003 	sub	r3, r3, #3, 0
    91b4:	e3e04000 	mvn	r4, #0, 0
    91b8:	e1a03334 	lsr	r3, r4, r3
    91bc:	e1130000 	tst	r3, r0
    91c0:	0a000015 	beq	921c <floor+0x164>
    91c4:	ed9f7b17 	vldr	d7, [pc, #92]	; 9228 <floor+0x170>
    91c8:	ed9d6b00 	vldr	d6, [sp]
    91cc:	ee367b07 	vadd.f64	d7, d6, d7
    91d0:	eeb57bc0 	vcmpe.f64	d7, #0.0
    91d4:	eef1fa10 	vmrs	APSR_nzcv, fpscr
    91d8:	daffffd5 	ble	9134 <floor+0x7c>
    91dc:	e3510000 	cmp	r1, #0, 0
    91e0:	ba000001 	blt	91ec <floor+0x134>
    91e4:	e1ccc003 	bic	ip, ip, r3
    91e8:	eaffffd1 	b	9134 <floor+0x7c>
    91ec:	e3520014 	cmp	r2, #20, 0
    91f0:	0a000005 	beq	920c <floor+0x154>
    91f4:	e2622034 	rsb	r2, r2, #52, 0	; 0x34
    91f8:	e3a0c001 	mov	ip, #1, 0
    91fc:	e080c21c 	add	ip, r0, ip, lsl r2
    9200:	e15c0000 	cmp	ip, r0
    9204:	3281e001 	addcc	lr, r1, #1, 0
    9208:	eafffff5 	b	91e4 <floor+0x12c>
    920c:	e281e001 	add	lr, r1, #1, 0
    9210:	eafffff3 	b	91e4 <floor+0x12c>
    9214:	ed9d0b00 	vldr	d0, [sp]
    9218:	eaffffc8 	b	9140 <floor+0x88>
    921c:	ed9d0b00 	vldr	d0, [sp]
    9220:	eaffffc6 	b	9140 <floor+0x88>
    9224:	e320f000 	nop	{0}
    9228:	8800759c 	stmdahi	r0, {r2, r3, r4, r7, r8, sl, ip, sp, lr}
    922c:	7e37e43c 	mrcvc	4, 1, lr, cr7, cr12, {1}
    9230:	000fffff 	strdeq	pc, [pc], -pc	; <UNPREDICTABLE>
    9234:	bff00000 	svclt	0x00f00000	; IMB

00009238 <copysign>:
    9238:	e24dd008 	sub	sp, sp, #8, 0
    923c:	ec510b10 	vmov	r0, r1, d0
    9240:	ed8d1b00 	vstr	d1, [sp]
    9244:	ee102a10 	vmov	r2, s0
    9248:	e3c10102 	bic	r0, r1, #-2147483648	; 0x80000000
    924c:	e59d1004 	ldr	r1, [sp, #4]
    9250:	e2011102 	and	r1, r1, #-2147483648	; 0x80000000
    9254:	e1803001 	orr	r3, r0, r1
    9258:	ec432b10 	vmov	d0, r2, r3
    925c:	e28dd008 	add	sp, sp, #8, 0
    9260:	e12fff1e 	bx	lr
    9264:	00000000 	andeq	r0, r0, r0

00009268 <sin>:
    9268:	e52de004 	push	{lr}		; (str lr, [sp, #-4]!)
    926c:	e24dd014 	sub	sp, sp, #20, 0
    9270:	ee103a90 	vmov	r3, s1
    9274:	e3c33102 	bic	r3, r3, #-2147483648	; 0x80000000
    9278:	e59f20c0 	ldr	r2, [pc, #192]	; 9340 <sin+0xd8>
    927c:	e1530002 	cmp	r3, r2
    9280:	ca00000b 	bgt	92b4 <sin+0x4c>
    9284:	e59f20b8 	ldr	r2, [pc, #184]	; 9344 <sin+0xdc>
    9288:	e1530002 	cmp	r3, r2
    928c:	ca000003 	bgt	92a0 <sin+0x38>
    9290:	eefd7bc0 	vcvt.s32.f64	s15, d0
    9294:	ee173a90 	vmov	r3, s15
    9298:	e3530000 	cmp	r3, #0, 0
    929c:	0a000002 	beq	92ac <sin+0x44>
    92a0:	e3a00000 	mov	r0, #0, 0
    92a4:	ed9f1b23 	vldr	d1, [pc, #140]	; 9338 <sin+0xd0>
    92a8:	ebfffc14 	bl	8300 <__kernel_sin>
    92ac:	e28dd014 	add	sp, sp, #20, 0
    92b0:	e49df004 	pop	{pc}		; (ldr pc, [sp], #4)
    92b4:	e59f208c 	ldr	r2, [pc, #140]	; 9348 <sin+0xe0>
    92b8:	e1530002 	cmp	r3, r2
    92bc:	ce300b40 	vsubgt.f64	d0, d0, d0
    92c0:	cafffff9 	bgt	92ac <sin+0x44>
    92c4:	e1a0000d 	mov	r0, sp
    92c8:	ebfffc36 	bl	83a8 <__ieee754_rem_pio2>
    92cc:	e2000003 	and	r0, r0, #3, 0
    92d0:	e3500001 	cmp	r0, #1, 0
    92d4:	0a00000d 	beq	9310 <sin+0xa8>
    92d8:	e3500002 	cmp	r0, #2, 0
    92dc:	0a00000f 	beq	9320 <sin+0xb8>
    92e0:	e3500000 	cmp	r0, #0, 0
    92e4:	0a000004 	beq	92fc <sin+0x94>
    92e8:	ed9d1b02 	vldr	d1, [sp, #8]
    92ec:	ed9d0b00 	vldr	d0, [sp]
    92f0:	ebfffbd8 	bl	8258 <__kernel_cos>
    92f4:	eeb10b40 	vneg.f64	d0, d0
    92f8:	eaffffeb 	b	92ac <sin+0x44>
    92fc:	e3a00001 	mov	r0, #1, 0
    9300:	ed9d1b02 	vldr	d1, [sp, #8]
    9304:	ed9d0b00 	vldr	d0, [sp]
    9308:	ebfffbfc 	bl	8300 <__kernel_sin>
    930c:	eaffffe6 	b	92ac <sin+0x44>
    9310:	ed9d1b02 	vldr	d1, [sp, #8]
    9314:	ed9d0b00 	vldr	d0, [sp]
    9318:	ebfffbce 	bl	8258 <__kernel_cos>
    931c:	eaffffe2 	b	92ac <sin+0x44>
    9320:	e3a00001 	mov	r0, #1, 0
    9324:	ed9d1b02 	vldr	d1, [sp, #8]
    9328:	ed9d0b00 	vldr	d0, [sp]
    932c:	ebfffbf3 	bl	8300 <__kernel_sin>
    9330:	eeb10b40 	vneg.f64	d0, d0
    9334:	eaffffdc 	b	92ac <sin+0x44>
	...
    9340:	3fe921fb 	svccc	0x00e921fb
    9344:	3e4fffff 	mcrcc	15, 2, pc, cr15, cr15, {7}	; <UNPREDICTABLE>
    9348:	7fefffff 	svcvc	0x00efffff

0000934c <printk>:
    934c:	e92d000f 	push	{r0, r1, r2, r3}
    9350:	e92d4030 	push	{r4, r5, lr}
    9354:	e24dd00c 	sub	sp, sp, #12, 0
    9358:	e28d301c 	add	r3, sp, #28, 0
    935c:	e58d3004 	str	r3, [sp, #4]
    9360:	e59f5034 	ldr	r5, [pc, #52]	; 939c <printk+0x50>
    9364:	e59d2018 	ldr	r2, [sp, #24]
    9368:	e3a01b01 	mov	r1, #1024	; 0x400
    936c:	e1a00005 	mov	r0, r5
    9370:	eb000118 	bl	97d8 <va_printk>
    9374:	e1a04000 	mov	r4, r0
    9378:	e59f3020 	ldr	r3, [pc, #32]	; 93a0 <printk+0x54>
    937c:	e5933000 	ldr	r3, [r3]
    9380:	e1a00005 	mov	r0, r5
    9384:	e12fff33 	blx	r3
    9388:	e1a00004 	mov	r0, r4
    938c:	e28dd00c 	add	sp, sp, #12, 0
    9390:	e8bd4030 	pop	{r4, r5, lr}
    9394:	e28dd010 	add	sp, sp, #16, 0
    9398:	e12fff1e 	bx	lr
    939c:	0000a514 	andeq	sl, r0, r4, lsl r5
    93a0:	0000a50c 	andeq	sl, r0, ip, lsl #10

000093a4 <internal_putk>:
    93a4:	e92d4010 	push	{r4, lr}
    93a8:	e1a04000 	mov	r4, r0
    93ac:	e5d40000 	ldrb	r0, [r4]
    93b0:	e3500000 	cmp	r0, #0, 0
    93b4:	0a000004 	beq	93cc <internal_putk+0x28>
    93b8:	e59f3014 	ldr	r3, [pc, #20]	; 93d4 <internal_putk+0x30>
    93bc:	e5933000 	ldr	r3, [r3]
    93c0:	e12fff33 	blx	r3
    93c4:	e2844001 	add	r4, r4, #1, 0
    93c8:	eafffff7 	b	93ac <internal_putk+0x8>
    93cc:	e3a00001 	mov	r0, #1, 0
    93d0:	e8bd8010 	pop	{r4, pc}
    93d4:	0000a510 	andeq	sl, r0, r0, lsl r5

000093d8 <isdigit>:
    93d8:	e2400030 	sub	r0, r0, #48, 0	; 0x30
    93dc:	e3500009 	cmp	r0, #9, 0
    93e0:	83a00000 	movhi	r0, #0, 0
    93e4:	93a00001 	movls	r0, #1, 0
    93e8:	e12fff1e 	bx	lr

000093ec <pad>:
    93ec:	e0401001 	sub	r1, r0, r1
    93f0:	e1510002 	cmp	r1, r2
    93f4:	b3a03020 	movlt	r3, #32, 0
    93f8:	b4c03001 	strblt	r3, [r0], #1
    93fc:	b2811001 	addlt	r1, r1, #1, 0
    9400:	bafffffa 	blt	93f0 <pad+0x4>
    9404:	e3a03000 	mov	r3, #0, 0
    9408:	e5c03000 	strb	r3, [r0]
    940c:	e12fff1e 	bx	lr

00009410 <reverse>:
    9410:	e042c003 	sub	ip, r2, r3
    9414:	e28cc001 	add	ip, ip, #1, 0
    9418:	e15c0001 	cmp	ip, r1
    941c:	c04cc001 	subgt	ip, ip, r1
    9420:	c083300c 	addgt	r3, r3, ip
    9424:	e2421001 	sub	r1, r2, #1, 0
    9428:	e1a02000 	mov	r2, r0
    942c:	e1510003 	cmp	r1, r3
    9430:	2451c001 	ldrbcs	ip, [r1], #-1
    9434:	24c2c001 	strbcs	ip, [r2], #1
    9438:	2afffffb 	bcs	942c <reverse+0x1c>
    943c:	e3a03000 	mov	r3, #0, 0
    9440:	e5c23000 	strb	r3, [r2]
    9444:	e12fff1e 	bx	lr

00009448 <trunc>:
    9448:	eefd7bc0 	vcvt.s32.f64	s15, d0
    944c:	ee170a90 	vmov	r0, s15
    9450:	e12fff1e 	bx	lr

00009454 <fp_get_frac>:
    9454:	e92d4010 	push	{r4, lr}
    9458:	eeb50bc0 	vcmpe.f64	d0, #0.0
    945c:	eef1fa10 	vmrs	APSR_nzcv, fpscr
    9460:	4a00000b 	bmi	9494 <fp_get_frac+0x40>
    9464:	ed9f7b0d 	vldr	d7, [pc, #52]	; 94a0 <fp_get_frac+0x4c>
    9468:	ee200b07 	vmul.f64	d0, d0, d7
    946c:	ebfffff5 	bl	9448 <trunc>
    9470:	e59f3030 	ldr	r3, [pc, #48]	; 94a8 <fp_get_frac+0x54>
    9474:	e0c23093 	smull	r3, r2, r3, r0
    9478:	e1a03fc0 	asr	r3, r0, #31
    947c:	e0633642 	rsb	r3, r3, r2, asr #12
    9480:	e0632283 	rsb	r2, r3, r3, lsl #5
    9484:	e0833102 	add	r3, r3, r2, lsl #2
    9488:	e0833103 	add	r3, r3, r3, lsl #2
    948c:	e0400203 	sub	r0, r0, r3, lsl #4
    9490:	e8bd8010 	pop	{r4, pc}
    9494:	eeb10b40 	vneg.f64	d0, d0
    9498:	eafffff1 	b	9464 <fp_get_frac+0x10>
    949c:	e320f000 	nop	{0}
    94a0:	00000000 	andeq	r0, r0, r0
    94a4:	40c38800 	sbcmi	r8, r3, r0, lsl #16
    94a8:	68db8bad 	ldmvs	fp, {r0, r2, r3, r5, r7, r8, r9, fp, pc}^

000094ac <fp_get_integral>:
    94ac:	e92d4010 	push	{r4, lr}
    94b0:	ebffffe4 	bl	9448 <trunc>
    94b4:	e8bd8010 	pop	{r4, pc}

000094b8 <emit>:
    94b8:	e92d40f0 	push	{r4, r5, r6, r7, lr}
    94bc:	e24dd04c 	sub	sp, sp, #76, 0	; 0x4c
    94c0:	e1a05001 	mov	r5, r1
    94c4:	e1a04002 	mov	r4, r2
    94c8:	e59d2060 	ldr	r2, [sp, #96]	; 0x60
    94cc:	e1520004 	cmp	r2, r4
    94d0:	c2442001 	subgt	r2, r4, #1, 0
    94d4:	e1a0c003 	mov	ip, r3
    94d8:	e2400002 	sub	r0, r0, #2, 0
    94dc:	e350000e 	cmp	r0, #14, 0
    94e0:	979ff100 	ldrls	pc, [pc, r0, lsl #2]
    94e4:	ea000050 	b	962c <emit+0x174>
    94e8:	00009604 	andeq	r9, r0, r4, lsl #12
    94ec:	0000962c 	andeq	r9, r0, ip, lsr #12
    94f0:	0000962c 	andeq	r9, r0, ip, lsr #12
    94f4:	0000962c 	andeq	r9, r0, ip, lsr #12
    94f8:	0000962c 	andeq	r9, r0, ip, lsr #12
    94fc:	0000962c 	andeq	r9, r0, ip, lsr #12
    9500:	000095f8 	strdeq	r9, [r0], -r8
    9504:	0000962c 	andeq	r9, r0, ip, lsr #12
    9508:	00009524 	andeq	r9, r0, r4, lsr #10
    950c:	0000962c 	andeq	r9, r0, ip, lsr #12
    9510:	0000962c 	andeq	r9, r0, ip, lsr #12
    9514:	0000962c 	andeq	r9, r0, ip, lsr #12
    9518:	0000962c 	andeq	r9, r0, ip, lsr #12
    951c:	0000962c 	andeq	r9, r0, ip, lsr #12
    9520:	0000959c 	muleq	r0, ip, r5
    9524:	e59d1064 	ldr	r1, [sp, #100]	; 0x64
    9528:	e2511000 	subs	r1, r1, #0, 0
    952c:	13a01001 	movne	r1, #1, 0
    9530:	e0111fa3 	ands	r1, r1, r3, lsr #31
    9534:	0a000016 	beq	9594 <emit+0xdc>
    9538:	e263c000 	rsb	ip, r3, #0, 0
    953c:	e3a06001 	mov	r6, #1, 0
    9540:	e28d0008 	add	r0, sp, #8, 0
    9544:	e59f3100 	ldr	r3, [pc, #256]	; 964c <emit+0x194>
    9548:	e0831c93 	umull	r1, r3, r3, ip
    954c:	e1a031a3 	lsr	r3, r3, #3
    9550:	e1a0e003 	mov	lr, r3
    9554:	e0833103 	add	r3, r3, r3, lsl #2
    9558:	e04c3083 	sub	r3, ip, r3, lsl #1
    955c:	e1a01000 	mov	r1, r0
    9560:	e2800001 	add	r0, r0, #1, 0
    9564:	e59f70e4 	ldr	r7, [pc, #228]	; 9650 <emit+0x198>
    9568:	e7d73003 	ldrb	r3, [r7, r3]
    956c:	e5c13000 	strb	r3, [r1]
    9570:	e1a0300c 	mov	r3, ip
    9574:	e1a0c00e 	mov	ip, lr
    9578:	e3530009 	cmp	r3, #9, 0
    957c:	8afffff0 	bhi	9544 <emit+0x8c>
    9580:	e3560000 	cmp	r6, #0, 0
    9584:	13a0302d 	movne	r3, #45, 0	; 0x2d
    9588:	15c03000 	strbne	r3, [r0]
    958c:	12810002 	addne	r0, r1, #2, 0
    9590:	ea00000f 	b	95d4 <emit+0x11c>
    9594:	e3a06000 	mov	r6, #0, 0
    9598:	eaffffe8 	b	9540 <emit+0x88>
    959c:	e28d1008 	add	r1, sp, #8, 0
    95a0:	e20c000f 	and	r0, ip, #15, 0
    95a4:	e59fe0a8 	ldr	lr, [pc, #168]	; 9654 <emit+0x19c>
    95a8:	e7de0000 	ldrb	r0, [lr, r0]
    95ac:	e5c10000 	strb	r0, [r1]
    95b0:	e2811001 	add	r1, r1, #1, 0
    95b4:	e35c000f 	cmp	ip, #15, 0
    95b8:	e1a0c22c 	lsr	ip, ip, #4
    95bc:	8afffff7 	bhi	95a0 <emit+0xe8>
    95c0:	e1a00001 	mov	r0, r1
    95c4:	e3a03078 	mov	r3, #120, 0	; 0x78
    95c8:	e4c03002 	strb	r3, [r0], #2
    95cc:	e3a03030 	mov	r3, #48, 0	; 0x30
    95d0:	e5c13001 	strb	r3, [r1, #1]
    95d4:	e28d1008 	add	r1, sp, #8, 0
    95d8:	ebffff83 	bl	93ec <pad>
    95dc:	e1a02000 	mov	r2, r0
    95e0:	e28d3008 	add	r3, sp, #8, 0
    95e4:	e1a01004 	mov	r1, r4
    95e8:	e1a00005 	mov	r0, r5
    95ec:	ebffff87 	bl	9410 <reverse>
    95f0:	e28dd04c 	add	sp, sp, #76, 0	; 0x4c
    95f4:	e8bd80f0 	pop	{r4, r5, r6, r7, pc}
    95f8:	e5cd3008 	strb	r3, [sp, #8]
    95fc:	e28d0009 	add	r0, sp, #9, 0
    9600:	eafffff3 	b	95d4 <emit+0x11c>
    9604:	e28d0008 	add	r0, sp, #8, 0
    9608:	e20c1001 	and	r1, ip, #1, 0
    960c:	e59fe044 	ldr	lr, [pc, #68]	; 9658 <emit+0x1a0>
    9610:	e7de1001 	ldrb	r1, [lr, r1]
    9614:	e5c01000 	strb	r1, [r0]
    9618:	e2800001 	add	r0, r0, #1, 0
    961c:	e35c0001 	cmp	ip, #1, 0
    9620:	e1a0c0ac 	lsr	ip, ip, #1
    9624:	8afffff7 	bhi	9608 <emit+0x150>
    9628:	eaffffe9 	b	95d4 <emit+0x11c>
    962c:	e59f3028 	ldr	r3, [pc, #40]	; 965c <emit+0x1a4>
    9630:	e58d3000 	str	r3, [sp]
    9634:	e3a03079 	mov	r3, #121, 0	; 0x79
    9638:	e59f2020 	ldr	r2, [pc, #32]	; 9660 <emit+0x1a8>
    963c:	e59f1020 	ldr	r1, [pc, #32]	; 9664 <emit+0x1ac>
    9640:	e59f0020 	ldr	r0, [pc, #32]	; 9668 <emit+0x1b0>
    9644:	ebffff40 	bl	934c <printk>
    9648:	eb000194 	bl	9ca0 <clean_reboot>
    964c:	cccccccd 	stclgt	12, cr12, [ip], {205}	; 0xcd
    9650:	0000a3d4 	ldrdeq	sl, [r0], -r4
    9654:	0000a3e0 	andeq	sl, r0, r0, ror #7
    9658:	0000a3f4 	strdeq	sl, [r0], -r4
    965c:	0000a3d0 	ldrdeq	sl, [r0], -r0
    9660:	0000a4dc 	ldrdeq	sl, [r0], -ip
    9664:	0000a3a8 	andeq	sl, r0, r8, lsr #7
    9668:	0000a3bc 			; <UNDEFINED> instruction: 0x0000a3bc

0000966c <rpi_set_output>:
    966c:	e3500000 	cmp	r0, #0, 0
    9670:	0a000006 	beq	9690 <rpi_set_output+0x24>
    9674:	e59f303c 	ldr	r3, [pc, #60]	; 96b8 <rpi_set_output+0x4c>
    9678:	e5830000 	str	r0, [r3]
    967c:	e3510000 	cmp	r1, #0, 0
    9680:	012fff1e 	bxeq	lr
    9684:	e59f3030 	ldr	r3, [pc, #48]	; 96bc <rpi_set_output+0x50>
    9688:	e5831000 	str	r1, [r3]
    968c:	e12fff1e 	bx	lr
    9690:	e52de004 	push	{lr}		; (str lr, [sp, #-4]!)
    9694:	e24dd00c 	sub	sp, sp, #12, 0
    9698:	e59f3020 	ldr	r3, [pc, #32]	; 96c0 <rpi_set_output+0x54>
    969c:	e58d3000 	str	r3, [sp]
    96a0:	e3a03020 	mov	r3, #32, 0
    96a4:	e59f2018 	ldr	r2, [pc, #24]	; 96c4 <rpi_set_output+0x58>
    96a8:	e59f1018 	ldr	r1, [pc, #24]	; 96c8 <rpi_set_output+0x5c>
    96ac:	e59f0018 	ldr	r0, [pc, #24]	; 96cc <rpi_set_output+0x60>
    96b0:	ebffff25 	bl	934c <printk>
    96b4:	eb000179 	bl	9ca0 <clean_reboot>
    96b8:	0000a510 	andeq	sl, r0, r0, lsl r5
    96bc:	0000a50c 	andeq	sl, r0, ip, lsl #10
    96c0:	0000a3f8 	strdeq	sl, [r0], -r8
    96c4:	0000a4e4 	andeq	sl, r0, r4, ror #9
    96c8:	0000a3a8 	andeq	sl, r0, r8, lsr #7
    96cc:	0000a3bc 			; <UNDEFINED> instruction: 0x0000a3bc

000096d0 <__emit_float>:
    96d0:	e92d41f0 	push	{r4, r5, r6, r7, r8, lr}
    96d4:	ed2d8b02 	vpush	{d8}
    96d8:	e24dd088 	sub	sp, sp, #136, 0	; 0x88
    96dc:	e1a06000 	mov	r6, r0
    96e0:	eeb08b40 	vmov.f64	d8, d0
    96e4:	e1a08001 	mov	r8, r1
    96e8:	eeb50bc0 	vcmpe.f64	d0, #0.0
    96ec:	eef1fa10 	vmrs	APSR_nzcv, fpscr
    96f0:	4a00001f 	bmi	9774 <__emit_float+0xa4>
    96f4:	e1a05000 	mov	r5, r0
    96f8:	e3a04000 	mov	r4, #0, 0
    96fc:	e5c54000 	strb	r4, [r5]
    9700:	eeb00b48 	vmov.f64	d0, d8
    9704:	ebffff52 	bl	9454 <fp_get_frac>
    9708:	e1a07000 	mov	r7, r0
    970c:	eeb00b48 	vmov.f64	d0, d8
    9710:	ebffff65 	bl	94ac <fp_get_integral>
    9714:	e1a03000 	mov	r3, r0
    9718:	e3a02001 	mov	r2, #1, 0
    971c:	e58d2004 	str	r2, [sp, #4]
    9720:	e58d8000 	str	r8, [sp]
    9724:	e3a02080 	mov	r2, #128, 0	; 0x80
    9728:	e28d1008 	add	r1, sp, #8, 0
    972c:	e3a0000a 	mov	r0, #10, 0
    9730:	ebffff60 	bl	94b8 <emit>
    9734:	e28d1008 	add	r1, sp, #8, 0
    9738:	e1a00005 	mov	r0, r5
    973c:	eb00023e 	bl	a03c <strcat>
    9740:	e59f108c 	ldr	r1, [pc, #140]	; 97d4 <__emit_float+0x104>
    9744:	e1a00005 	mov	r0, r5
    9748:	eb00023b 	bl	a03c <strcat>
    974c:	e58d4004 	str	r4, [sp, #4]
    9750:	e3a03004 	mov	r3, #4, 0
    9754:	e58d3000 	str	r3, [sp]
    9758:	e1a03007 	mov	r3, r7
    975c:	e3a02080 	mov	r2, #128, 0	; 0x80
    9760:	e28d1008 	add	r1, sp, #8, 0
    9764:	e3a0000a 	mov	r0, #10, 0
    9768:	ebffff52 	bl	94b8 <emit>
    976c:	e1a03004 	mov	r3, r4
    9770:	ea000005 	b	978c <__emit_float+0xbc>
    9774:	e1a05000 	mov	r5, r0
    9778:	e3a0302d 	mov	r3, #45, 0	; 0x2d
    977c:	e4c53001 	strb	r3, [r5], #1
    9780:	eeb18b40 	vneg.f64	d8, d0
    9784:	eaffffdb 	b	96f8 <__emit_float+0x28>
    9788:	e2833001 	add	r3, r3, #1, 0
    978c:	e3530003 	cmp	r3, #3, 0
    9790:	8a000008 	bhi	97b8 <__emit_float+0xe8>
    9794:	e28d2088 	add	r2, sp, #136, 0	; 0x88
    9798:	e0822003 	add	r2, r2, r3
    979c:	e5522080 	ldrb	r2, [r2, #-128]	; 0xffffff80
    97a0:	e3520020 	cmp	r2, #32, 0
    97a4:	03a01030 	moveq	r1, #48, 0	; 0x30
    97a8:	028d2088 	addeq	r2, sp, #136, 0	; 0x88
    97ac:	00822003 	addeq	r2, r2, r3
    97b0:	05421080 	strbeq	r1, [r2, #-128]	; 0xffffff80
    97b4:	eafffff3 	b	9788 <__emit_float+0xb8>
    97b8:	e28d1008 	add	r1, sp, #8, 0
    97bc:	e1a00005 	mov	r0, r5
    97c0:	eb00021d 	bl	a03c <strcat>
    97c4:	e1a00006 	mov	r0, r6
    97c8:	e28dd088 	add	sp, sp, #136, 0	; 0x88
    97cc:	ecbd8b02 	vpop	{d8}
    97d0:	e8bd81f0 	pop	{r4, r5, r6, r7, r8, pc}
    97d4:	0000a400 	andeq	sl, r0, r0, lsl #8

000097d8 <va_printk>:
    97d8:	e92d4ff0 	push	{r4, r5, r6, r7, r8, r9, sl, fp, lr}
    97dc:	e24ddf45 	sub	sp, sp, #276	; 0x114
    97e0:	e1a09000 	mov	r9, r0
    97e4:	e58d2008 	str	r2, [sp, #8]
    97e8:	e58d300c 	str	r3, [sp, #12]
    97ec:	e2411001 	sub	r1, r1, #1, 0
    97f0:	e0808001 	add	r8, r0, r1
    97f4:	e3a03000 	mov	r3, #0, 0
    97f8:	e5c03000 	strb	r3, [r0]
    97fc:	e1a04000 	mov	r4, r0
    9800:	e1a06002 	mov	r6, r2
    9804:	ea000001 	b	9810 <va_printk+0x38>
    9808:	e2866001 	add	r6, r6, #1, 0
    980c:	e4c43001 	strb	r3, [r4], #1
    9810:	e5d63000 	ldrb	r3, [r6]
    9814:	e3530000 	cmp	r3, #0, 0
    9818:	0a00010d 	beq	9c54 <va_printk+0x47c>
    981c:	e1540008 	cmp	r4, r8
    9820:	2a00010b 	bcs	9c54 <va_printk+0x47c>
    9824:	e3530025 	cmp	r3, #37, 0	; 0x25
    9828:	1afffff6 	bne	9808 <va_printk+0x30>
    982c:	e5d62001 	ldrb	r2, [r6, #1]
    9830:	e3520025 	cmp	r2, #37, 0	; 0x25
    9834:	04c43001 	strbeq	r3, [r4], #1
    9838:	02866002 	addeq	r6, r6, #2, 0
    983c:	0afffff3 	beq	9810 <va_printk+0x38>
    9840:	e2866001 	add	r6, r6, #1, 0
    9844:	e3a05000 	mov	r5, #0, 0
    9848:	e5d67000 	ldrb	r7, [r6]
    984c:	e1a0a007 	mov	sl, r7
    9850:	e1a00007 	mov	r0, r7
    9854:	ebfffedf 	bl	93d8 <isdigit>
    9858:	e3500000 	cmp	r0, #0, 0
    985c:	0a000004 	beq	9874 <va_printk+0x9c>
    9860:	e0855105 	add	r5, r5, r5, lsl #2
    9864:	e0875085 	add	r5, r7, r5, lsl #1
    9868:	e2455030 	sub	r5, r5, #48, 0	; 0x30
    986c:	e2866001 	add	r6, r6, #1, 0
    9870:	eafffff4 	b	9848 <va_printk+0x70>
    9874:	e355001f 	cmp	r5, #31, 0
    9878:	8a00001a 	bhi	98e8 <va_printk+0x110>
    987c:	e2477062 	sub	r7, r7, #98, 0	; 0x62
    9880:	e3570016 	cmp	r7, #22, 0
    9884:	979ff107 	ldrls	pc, [pc, r7, lsl #2]
    9888:	ea0000d9 	b	9bf4 <va_printk+0x41c>
    988c:	00009b78 	andeq	r9, r0, r8, ror fp
    9890:	00009bc0 	andeq	r9, r0, r0, asr #23
    9894:	00009adc 	ldrdeq	r9, [r0], -ip
    9898:	00009bf4 	strdeq	r9, [r0], -r4
    989c:	00009aac 	andeq	r9, r0, ip, lsr #21
    98a0:	00009bf4 	strdeq	r9, [r0], -r4
    98a4:	00009bf4 	strdeq	r9, [r0], -r4
    98a8:	00009bf4 	strdeq	r9, [r0], -r4
    98ac:	00009bf4 	strdeq	r9, [r0], -r4
    98b0:	00009bf4 	strdeq	r9, [r0], -r4
    98b4:	00009908 	andeq	r9, r0, r8, lsl #18
    98b8:	00009bf4 	strdeq	r9, [r0], -r4
    98bc:	00009bf4 	strdeq	r9, [r0], -r4
    98c0:	00009bf4 	strdeq	r9, [r0], -r4
    98c4:	00009b44 	andeq	r9, r0, r4, asr #22
    98c8:	00009bf4 	strdeq	r9, [r0], -r4
    98cc:	00009bf4 	strdeq	r9, [r0], -r4
    98d0:	00009bac 	andeq	r9, r0, ip, lsr #23
    98d4:	00009bf4 	strdeq	r9, [r0], -r4
    98d8:	00009b10 	andeq	r9, r0, r0, lsl fp
    98dc:	00009bf4 	strdeq	r9, [r0], -r4
    98e0:	00009bf4 	strdeq	r9, [r0], -r4
    98e4:	00009b44 	andeq	r9, r0, r4, asr #22
    98e8:	e59f3378 	ldr	r3, [pc, #888]	; 9c68 <va_printk+0x490>
    98ec:	e58d3000 	str	r3, [sp]
    98f0:	e3a03098 	mov	r3, #152, 0	; 0x98
    98f4:	e59f2370 	ldr	r2, [pc, #880]	; 9c6c <va_printk+0x494>
    98f8:	e59f1370 	ldr	r1, [pc, #880]	; 9c70 <va_printk+0x498>
    98fc:	e59f0370 	ldr	r0, [pc, #880]	; 9c74 <va_printk+0x49c>
    9900:	ebfffe91 	bl	934c <printk>
    9904:	eb0000e5 	bl	9ca0 <clean_reboot>
    9908:	e3a02003 	mov	r2, #3, 0
    990c:	e59f1364 	ldr	r1, [pc, #868]	; 9c78 <va_printk+0x4a0>
    9910:	e1a00006 	mov	r0, r6
    9914:	eb0001e8 	bl	a0bc <strncmp>
    9918:	e3500000 	cmp	r0, #0, 0
    991c:	0a000005 	beq	9938 <va_printk+0x160>
    9920:	e3a02003 	mov	r2, #3, 0
    9924:	e59f1350 	ldr	r1, [pc, #848]	; 9c7c <va_printk+0x4a4>
    9928:	e1a00006 	mov	r0, r6
    992c:	eb0001e2 	bl	a0bc <strncmp>
    9930:	e3500000 	cmp	r0, #0, 0
    9934:	1a000033 	bne	9a08 <va_printk+0x230>
    9938:	e286b002 	add	fp, r6, #2, 0
    993c:	e59d300c 	ldr	r3, [sp, #12]
    9940:	e2833007 	add	r3, r3, #7, 0
    9944:	e3c33007 	bic	r3, r3, #7, 0
    9948:	e2832008 	add	r2, r3, #8, 0
    994c:	e58d200c 	str	r2, [sp, #12]
    9950:	e593a000 	ldr	sl, [r3]
    9954:	e5937004 	ldr	r7, [r3, #4]
    9958:	e1a01007 	mov	r1, r7
    995c:	e59f031c 	ldr	r0, [pc, #796]	; 9c80 <va_printk+0x4a8>
    9960:	ebfffe79 	bl	934c <printk>
    9964:	e1a0100a 	mov	r1, sl
    9968:	e59f0314 	ldr	r0, [pc, #788]	; 9c84 <va_printk+0x4ac>
    996c:	ebfffe76 	bl	934c <printk>
    9970:	e3a02003 	mov	r2, #3, 0
    9974:	e59f12fc 	ldr	r1, [pc, #764]	; 9c78 <va_printk+0x4a0>
    9978:	e1a00006 	mov	r0, r6
    997c:	eb0001ce 	bl	a0bc <strncmp>
    9980:	e3500000 	cmp	r0, #0, 0
    9984:	0a000027 	beq	9a28 <va_printk+0x250>
    9988:	e3a02003 	mov	r2, #3, 0
    998c:	e59f12e8 	ldr	r1, [pc, #744]	; 9c7c <va_printk+0x4a4>
    9990:	e1a00006 	mov	r0, r6
    9994:	eb0001c8 	bl	a0bc <strncmp>
    9998:	e3500000 	cmp	r0, #0, 0
    999c:	1a00003b 	bne	9a90 <va_printk+0x2b8>
    99a0:	e3a06000 	mov	r6, #0, 0
    99a4:	e58d6004 	str	r6, [sp, #4]
    99a8:	e58d5000 	str	r5, [sp]
    99ac:	e1a03007 	mov	r3, r7
    99b0:	e3a02080 	mov	r2, #128, 0	; 0x80
    99b4:	e28d1010 	add	r1, sp, #16, 0
    99b8:	e3a0000a 	mov	r0, #10, 0
    99bc:	ebfffebd 	bl	94b8 <emit>
    99c0:	e1a07000 	mov	r7, r0
    99c4:	e58d6004 	str	r6, [sp, #4]
    99c8:	e58d5000 	str	r5, [sp]
    99cc:	e1a0300a 	mov	r3, sl
    99d0:	e3a02080 	mov	r2, #128, 0	; 0x80
    99d4:	e28d1090 	add	r1, sp, #144, 0	; 0x90
    99d8:	e3a0000a 	mov	r0, #10, 0
    99dc:	ebfffeb5 	bl	94b8 <emit>
    99e0:	e59f12a0 	ldr	r1, [pc, #672]	; 9c88 <va_printk+0x4b0>
    99e4:	e28d0010 	add	r0, sp, #16, 0
    99e8:	eb0001a0 	bl	a070 <strcmp>
    99ec:	e1500006 	cmp	r0, r6
    99f0:	1a000021 	bne	9a7c <va_printk+0x2a4>
    99f4:	e28d1090 	add	r1, sp, #144, 0	; 0x90
    99f8:	e28d0010 	add	r0, sp, #16, 0
    99fc:	eb0001a6 	bl	a09c <strcpy>
    9a00:	e1a0600b 	mov	r6, fp
    9a04:	ea000032 	b	9ad4 <va_printk+0x2fc>
    9a08:	e59f327c 	ldr	r3, [pc, #636]	; 9c8c <va_printk+0x4b4>
    9a0c:	e58d3000 	str	r3, [sp]
    9a10:	e3a0309f 	mov	r3, #159, 0	; 0x9f
    9a14:	e59f2250 	ldr	r2, [pc, #592]	; 9c6c <va_printk+0x494>
    9a18:	e59f1250 	ldr	r1, [pc, #592]	; 9c70 <va_printk+0x498>
    9a1c:	e59f0250 	ldr	r0, [pc, #592]	; 9c74 <va_printk+0x49c>
    9a20:	ebfffe49 	bl	934c <printk>
    9a24:	eb00009d 	bl	9ca0 <clean_reboot>
    9a28:	e3a06000 	mov	r6, #0, 0
    9a2c:	e58d6004 	str	r6, [sp, #4]
    9a30:	e58d5000 	str	r5, [sp]
    9a34:	e1a03007 	mov	r3, r7
    9a38:	e3a02080 	mov	r2, #128, 0	; 0x80
    9a3c:	e28d1010 	add	r1, sp, #16, 0
    9a40:	e3a00010 	mov	r0, #16, 0
    9a44:	ebfffe9b 	bl	94b8 <emit>
    9a48:	e1a07000 	mov	r7, r0
    9a4c:	e58d6004 	str	r6, [sp, #4]
    9a50:	e58d5000 	str	r5, [sp]
    9a54:	e1a0300a 	mov	r3, sl
    9a58:	e3a02080 	mov	r2, #128, 0	; 0x80
    9a5c:	e28d1090 	add	r1, sp, #144, 0	; 0x90
    9a60:	e3a00010 	mov	r0, #16, 0
    9a64:	ebfffe93 	bl	94b8 <emit>
    9a68:	e28d1092 	add	r1, sp, #146, 0	; 0x92
    9a6c:	e28d0010 	add	r0, sp, #16, 0
    9a70:	eb000171 	bl	a03c <strcat>
    9a74:	e1a0600b 	mov	r6, fp
    9a78:	ea000015 	b	9ad4 <va_printk+0x2fc>
    9a7c:	e28d1090 	add	r1, sp, #144, 0	; 0x90
    9a80:	e28d0010 	add	r0, sp, #16, 0
    9a84:	eb00016c 	bl	a03c <strcat>
    9a88:	e1a0600b 	mov	r6, fp
    9a8c:	ea000010 	b	9ad4 <va_printk+0x2fc>
    9a90:	e58d6000 	str	r6, [sp]
    9a94:	e3a030b6 	mov	r3, #182, 0	; 0xb6
    9a98:	e59f21cc 	ldr	r2, [pc, #460]	; 9c6c <va_printk+0x494>
    9a9c:	e59f11cc 	ldr	r1, [pc, #460]	; 9c70 <va_printk+0x498>
    9aa0:	e59f01e8 	ldr	r0, [pc, #488]	; 9c90 <va_printk+0x4b8>
    9aa4:	ebfffe28 	bl	934c <printk>
    9aa8:	eb00007c 	bl	9ca0 <clean_reboot>
    9aac:	e59d300c 	ldr	r3, [sp, #12]
    9ab0:	e2833007 	add	r3, r3, #7, 0
    9ab4:	e3c33007 	bic	r3, r3, #7, 0
    9ab8:	e2832008 	add	r2, r3, #8, 0
    9abc:	e58d200c 	str	r2, [sp, #12]
    9ac0:	e1a01005 	mov	r1, r5
    9ac4:	ed930b00 	vldr	d0, [r3]
    9ac8:	e28d0010 	add	r0, sp, #16, 0
    9acc:	ebfffeff 	bl	96d0 <__emit_float>
    9ad0:	e1a07000 	mov	r7, r0
    9ad4:	e2866001 	add	r6, r6, #1, 0
    9ad8:	ea000057 	b	9c3c <va_printk+0x464>
    9adc:	e59d300c 	ldr	r3, [sp, #12]
    9ae0:	e2832004 	add	r2, r3, #4, 0
    9ae4:	e58d200c 	str	r2, [sp, #12]
    9ae8:	e5933000 	ldr	r3, [r3]
    9aec:	e3a02001 	mov	r2, #1, 0
    9af0:	e58d2004 	str	r2, [sp, #4]
    9af4:	e58d5000 	str	r5, [sp]
    9af8:	e3a02080 	mov	r2, #128, 0	; 0x80
    9afc:	e28d1010 	add	r1, sp, #16, 0
    9b00:	e3a0000a 	mov	r0, #10, 0
    9b04:	ebfffe6b 	bl	94b8 <emit>
    9b08:	e1a07000 	mov	r7, r0
    9b0c:	eafffff0 	b	9ad4 <va_printk+0x2fc>
    9b10:	e59d300c 	ldr	r3, [sp, #12]
    9b14:	e2832004 	add	r2, r3, #4, 0
    9b18:	e58d200c 	str	r2, [sp, #12]
    9b1c:	e5933000 	ldr	r3, [r3]
    9b20:	e3a02000 	mov	r2, #0, 0
    9b24:	e58d2004 	str	r2, [sp, #4]
    9b28:	e58d5000 	str	r5, [sp]
    9b2c:	e3a02080 	mov	r2, #128, 0	; 0x80
    9b30:	e28d1010 	add	r1, sp, #16, 0
    9b34:	e3a0000a 	mov	r0, #10, 0
    9b38:	ebfffe5e 	bl	94b8 <emit>
    9b3c:	e1a07000 	mov	r7, r0
    9b40:	eaffffe3 	b	9ad4 <va_printk+0x2fc>
    9b44:	e59d300c 	ldr	r3, [sp, #12]
    9b48:	e2832004 	add	r2, r3, #4, 0
    9b4c:	e58d200c 	str	r2, [sp, #12]
    9b50:	e5933000 	ldr	r3, [r3]
    9b54:	e3a02000 	mov	r2, #0, 0
    9b58:	e58d2004 	str	r2, [sp, #4]
    9b5c:	e58d5000 	str	r5, [sp]
    9b60:	e3a02080 	mov	r2, #128, 0	; 0x80
    9b64:	e28d1010 	add	r1, sp, #16, 0
    9b68:	e3a00010 	mov	r0, #16, 0
    9b6c:	ebfffe51 	bl	94b8 <emit>
    9b70:	e1a07000 	mov	r7, r0
    9b74:	eaffffd6 	b	9ad4 <va_printk+0x2fc>
    9b78:	e59d300c 	ldr	r3, [sp, #12]
    9b7c:	e2832004 	add	r2, r3, #4, 0
    9b80:	e58d200c 	str	r2, [sp, #12]
    9b84:	e5933000 	ldr	r3, [r3]
    9b88:	e3a02000 	mov	r2, #0, 0
    9b8c:	e58d2004 	str	r2, [sp, #4]
    9b90:	e58d5000 	str	r5, [sp]
    9b94:	e3a02080 	mov	r2, #128, 0	; 0x80
    9b98:	e28d1010 	add	r1, sp, #16, 0
    9b9c:	e3a00002 	mov	r0, #2, 0
    9ba0:	ebfffe44 	bl	94b8 <emit>
    9ba4:	e1a07000 	mov	r7, r0
    9ba8:	eaffffc9 	b	9ad4 <va_printk+0x2fc>
    9bac:	e59d300c 	ldr	r3, [sp, #12]
    9bb0:	e2832004 	add	r2, r3, #4, 0
    9bb4:	e58d200c 	str	r2, [sp, #12]
    9bb8:	e5937000 	ldr	r7, [r3]
    9bbc:	eaffffc4 	b	9ad4 <va_printk+0x2fc>
    9bc0:	e59d300c 	ldr	r3, [sp, #12]
    9bc4:	e2832004 	add	r2, r3, #4, 0
    9bc8:	e58d200c 	str	r2, [sp, #12]
    9bcc:	e5933000 	ldr	r3, [r3]
    9bd0:	e3a02000 	mov	r2, #0, 0
    9bd4:	e58d2004 	str	r2, [sp, #4]
    9bd8:	e58d5000 	str	r5, [sp]
    9bdc:	e3a02080 	mov	r2, #128, 0	; 0x80
    9be0:	e28d1010 	add	r1, sp, #16, 0
    9be4:	e3a00008 	mov	r0, #8, 0
    9be8:	ebfffe32 	bl	94b8 <emit>
    9bec:	e1a07000 	mov	r7, r0
    9bf0:	eaffffb7 	b	9ad4 <va_printk+0x2fc>
    9bf4:	e3a03000 	mov	r3, #0, 0
    9bf8:	e5c63001 	strb	r3, [r6, #1]
    9bfc:	e1a0200a 	mov	r2, sl
    9c00:	e1a0100a 	mov	r1, sl
    9c04:	e59f0088 	ldr	r0, [pc, #136]	; 9c94 <va_printk+0x4bc>
    9c08:	ebfffdcf 	bl	934c <printk>
    9c0c:	e59f3084 	ldr	r3, [pc, #132]	; 9c98 <va_printk+0x4c0>
    9c10:	e5933000 	ldr	r3, [r3]
    9c14:	e59d0008 	ldr	r0, [sp, #8]
    9c18:	e12fff33 	blx	r3
    9c1c:	e3a030e2 	mov	r3, #226, 0	; 0xe2
    9c20:	e59f2044 	ldr	r2, [pc, #68]	; 9c6c <va_printk+0x494>
    9c24:	e59f1044 	ldr	r1, [pc, #68]	; 9c70 <va_printk+0x498>
    9c28:	e59f006c 	ldr	r0, [pc, #108]	; 9c9c <va_printk+0x4c4>
    9c2c:	ebfffdc6 	bl	934c <printk>
    9c30:	eb00001a 	bl	9ca0 <clean_reboot>
    9c34:	e2877001 	add	r7, r7, #1, 0
    9c38:	e4c43001 	strb	r3, [r4], #1
    9c3c:	e1540008 	cmp	r4, r8
    9c40:	2afffef2 	bcs	9810 <va_printk+0x38>
    9c44:	e5d73000 	ldrb	r3, [r7]
    9c48:	e3530000 	cmp	r3, #0, 0
    9c4c:	1afffff8 	bne	9c34 <va_printk+0x45c>
    9c50:	eafffeee 	b	9810 <va_printk+0x38>
    9c54:	e3a03000 	mov	r3, #0, 0
    9c58:	e4c43001 	strb	r3, [r4], #1
    9c5c:	e0440009 	sub	r0, r4, r9
    9c60:	e28ddf45 	add	sp, sp, #276	; 0x114
    9c64:	e8bd8ff0 	pop	{r4, r5, r6, r7, r8, r9, sl, fp, pc}
    9c68:	0000a404 	andeq	sl, r0, r4, lsl #8
    9c6c:	0000a4f4 	strdeq	sl, [r0], -r4
    9c70:	0000a3a8 	andeq	sl, r0, r8, lsr #7
    9c74:	0000a3bc 			; <UNDEFINED> instruction: 0x0000a3bc
    9c78:	0000a410 	andeq	sl, r0, r0, lsl r4
    9c7c:	0000a414 	andeq	sl, r0, r4, lsl r4
    9c80:	0000a418 	andeq	sl, r0, r8, lsl r4
    9c84:	0000a420 	andeq	sl, r0, r0, lsr #8
    9c88:	0000a3d0 	ldrdeq	sl, [r0], -r0
    9c8c:	0000a428 	andeq	sl, r0, r8, lsr #8
    9c90:	0000a464 	andeq	sl, r0, r4, ror #8
    9c94:	0000a48c 	andeq	sl, r0, ip, lsl #9
    9c98:	0000a50c 	andeq	sl, r0, ip, lsl #10
    9c9c:	0000a4bc 			; <UNDEFINED> instruction: 0x0000a4bc

00009ca0 <clean_reboot>:
    9ca0:	e92d4010 	push	{r4, lr}
    9ca4:	e59f3018 	ldr	r3, [pc, #24]	; 9cc4 <clean_reboot+0x24>
    9ca8:	e5933000 	ldr	r3, [r3]
    9cac:	e59f0014 	ldr	r0, [pc, #20]	; 9cc8 <clean_reboot+0x28>
    9cb0:	e12fff33 	blx	r3
    9cb4:	eb0000c3 	bl	9fc8 <uart_flush_tx>
    9cb8:	e3a0000a 	mov	r0, #10, 0
    9cbc:	eb000047 	bl	9de0 <delay_ms>
    9cc0:	eb00001c 	bl	9d38 <rpi_reboot>
    9cc4:	0000a50c 	andeq	sl, r0, ip, lsl #10
    9cc8:	0000a500 	andeq	sl, r0, r0, lsl #10

00009ccc <_cstart>:
    9ccc:	e92d4010 	push	{r4, lr}
    9cd0:	eb00000c 	bl	9d08 <custom_loader>
    9cd4:	e59f3024 	ldr	r3, [pc, #36]	; 9d00 <_cstart+0x34>
    9cd8:	e59f2024 	ldr	r2, [pc, #36]	; 9d04 <_cstart+0x38>
    9cdc:	e1530002 	cmp	r3, r2
    9ce0:	33a02000 	movcc	r2, #0, 0
    9ce4:	34832004 	strcc	r2, [r3], #4
    9ce8:	3afffffa 	bcc	9cd8 <_cstart+0xc>
    9cec:	eb000057 	bl	9e50 <uart_init>
    9cf0:	e3a03001 	mov	r3, #1, 0
    9cf4:	ee0f3f1c 	mcr	15, 0, r3, cr15, cr12, {0}
    9cf8:	ebfff8f6 	bl	80d8 <notmain>
    9cfc:	ebffffe7 	bl	9ca0 <clean_reboot>
    9d00:	0000a514 	andeq	sl, r0, r4, lsl r5
    9d04:	0000a918 	andeq	sl, r0, r8, lsl r9

00009d08 <custom_loader>:
    9d08:	e12fff1e 	bx	lr

00009d0c <at_user_level>:
    9d0c:	e10f0000 	mrs	r0, CPSR
    9d10:	e200001f 	and	r0, r0, #31, 0
    9d14:	e3500010 	cmp	r0, #16, 0
    9d18:	13a00000 	movne	r0, #0, 0
    9d1c:	03a00001 	moveq	r0, #1, 0
    9d20:	e12fff1e 	bx	lr

00009d24 <set_user_level>:
    9d24:	e10f3000 	mrs	r3, CPSR
    9d28:	e3c3301f 	bic	r3, r3, #31, 0
    9d2c:	e3833010 	orr	r3, r3, #16, 0
    9d30:	e129f003 	msr	CPSR_fc, r3
    9d34:	e12fff1e 	bx	lr

00009d38 <rpi_reboot>:
    9d38:	e92d4010 	push	{r4, lr}
    9d3c:	ebfffff2 	bl	9d0c <at_user_level>
    9d40:	e3500000 	cmp	r0, #0, 0
    9d44:	1a00000a 	bne	9d74 <rpi_reboot+0x3c>
    9d48:	eb0000e6 	bl	a0e8 <reboot_callout>
    9d4c:	eb00009d 	bl	9fc8 <uart_flush_tx>
    9d50:	e3a0000a 	mov	r0, #10, 0
    9d54:	eb000021 	bl	9de0 <delay_ms>
    9d58:	e59f101c 	ldr	r1, [pc, #28]	; 9d7c <rpi_reboot+0x44>
    9d5c:	e59f001c 	ldr	r0, [pc, #28]	; 9d80 <rpi_reboot+0x48>
    9d60:	ebfff8c4 	bl	8078 <PUT32>
    9d64:	e59f1018 	ldr	r1, [pc, #24]	; 9d84 <rpi_reboot+0x4c>
    9d68:	e59f0018 	ldr	r0, [pc, #24]	; 9d88 <rpi_reboot+0x50>
    9d6c:	ebfff8c1 	bl	8078 <PUT32>
    9d70:	eafffffe 	b	9d70 <rpi_reboot+0x38>
    9d74:	ebffffea 	bl	9d24 <set_user_level>
    9d78:	eafffff2 	b	9d48 <rpi_reboot+0x10>
    9d7c:	5a000001 	bpl	9d88 <rpi_reboot+0x50>
    9d80:	20100024 	andscs	r0, r0, r4, lsr #32
    9d84:	5a000020 	bpl	9e0c <delay_sec+0x14>
    9d88:	2010001c 	andscs	r0, r0, ip, lsl r0

00009d8c <timer_get_usec_raw>:
    9d8c:	e92d4010 	push	{r4, lr}
    9d90:	e59f0004 	ldr	r0, [pc, #4]	; 9d9c <timer_get_usec_raw+0x10>
    9d94:	ebfff8b9 	bl	8080 <GET32>
    9d98:	e8bd8010 	pop	{r4, pc}
    9d9c:	20003004 	andcs	r3, r0, r4

00009da0 <timer_get_usec>:
    9da0:	e92d4010 	push	{r4, lr}
    9da4:	eb0000d0 	bl	a0ec <dev_barrier>
    9da8:	ebfffff7 	bl	9d8c <timer_get_usec_raw>
    9dac:	e1a04000 	mov	r4, r0
    9db0:	eb0000cd 	bl	a0ec <dev_barrier>
    9db4:	e1a00004 	mov	r0, r4
    9db8:	e8bd8010 	pop	{r4, pc}

00009dbc <delay_us>:
    9dbc:	e92d4070 	push	{r4, r5, r6, lr}
    9dc0:	e1a05000 	mov	r5, r0
    9dc4:	ebfffff5 	bl	9da0 <timer_get_usec>
    9dc8:	e1a04000 	mov	r4, r0
    9dcc:	ebfffff3 	bl	9da0 <timer_get_usec>
    9dd0:	e0400004 	sub	r0, r0, r4
    9dd4:	e1500005 	cmp	r0, r5
    9dd8:	3afffffb 	bcc	9dcc <delay_us+0x10>
    9ddc:	e8bd8070 	pop	{r4, r5, r6, pc}

00009de0 <delay_ms>:
    9de0:	e92d4010 	push	{r4, lr}
    9de4:	e0603280 	rsb	r3, r0, r0, lsl #5
    9de8:	e0800103 	add	r0, r0, r3, lsl #2
    9dec:	e1a00180 	lsl	r0, r0, #3
    9df0:	ebfffff1 	bl	9dbc <delay_us>
    9df4:	e8bd8010 	pop	{r4, pc}

00009df8 <delay_sec>:
    9df8:	e92d4010 	push	{r4, lr}
    9dfc:	e0603280 	rsb	r3, r0, r0, lsl #5
    9e00:	e0800103 	add	r0, r0, r3, lsl #2
    9e04:	e1a00180 	lsl	r0, r0, #3
    9e08:	ebfffff4 	bl	9de0 <delay_ms>
    9e0c:	e8bd8010 	pop	{r4, pc}

00009e10 <and_in32>:
    9e10:	e92d4070 	push	{r4, r5, r6, lr}
    9e14:	e1a04000 	mov	r4, r0
    9e18:	e1a05001 	mov	r5, r1
    9e1c:	ebfff897 	bl	8080 <GET32>
    9e20:	e0001005 	and	r1, r0, r5
    9e24:	e1a00004 	mov	r0, r4
    9e28:	ebfff892 	bl	8078 <PUT32>
    9e2c:	e8bd8070 	pop	{r4, r5, r6, pc}

00009e30 <or_in32>:
    9e30:	e92d4070 	push	{r4, r5, r6, lr}
    9e34:	e1a04000 	mov	r4, r0
    9e38:	e1a05001 	mov	r5, r1
    9e3c:	ebfff88f 	bl	8080 <GET32>
    9e40:	e1801005 	orr	r1, r0, r5
    9e44:	e1a00004 	mov	r0, r4
    9e48:	ebfff88a 	bl	8078 <PUT32>
    9e4c:	e8bd8070 	pop	{r4, r5, r6, pc}

00009e50 <uart_init>:
    9e50:	e92d4010 	push	{r4, lr}
    9e54:	e3a01002 	mov	r1, #2, 0
    9e58:	e3a0000e 	mov	r0, #14, 0
    9e5c:	eb0000a8 	bl	a104 <gpio_set_function>
    9e60:	e3a01002 	mov	r1, #2, 0
    9e64:	e3a0000f 	mov	r0, #15, 0
    9e68:	eb0000a5 	bl	a104 <gpio_set_function>
    9e6c:	eb00009e 	bl	a0ec <dev_barrier>
    9e70:	e3a01001 	mov	r1, #1, 0
    9e74:	e59f0064 	ldr	r0, [pc, #100]	; 9ee0 <uart_init+0x90>
    9e78:	ebffffec 	bl	9e30 <or_in32>
    9e7c:	eb00009a 	bl	a0ec <dev_barrier>
    9e80:	e59f405c 	ldr	r4, [pc, #92]	; 9ee4 <uart_init+0x94>
    9e84:	e3a01000 	mov	r1, #0, 0
    9e88:	e1a00004 	mov	r0, r4
    9e8c:	ebfff879 	bl	8078 <PUT32>
    9e90:	e3a01000 	mov	r1, #0, 0
    9e94:	e59f004c 	ldr	r0, [pc, #76]	; 9ee8 <uart_init+0x98>
    9e98:	ebfff876 	bl	8078 <PUT32>
    9e9c:	e3a01003 	mov	r1, #3, 0
    9ea0:	e59f0044 	ldr	r0, [pc, #68]	; 9eec <uart_init+0x9c>
    9ea4:	ebfff873 	bl	8078 <PUT32>
    9ea8:	e3a01000 	mov	r1, #0, 0
    9eac:	e59f003c 	ldr	r0, [pc, #60]	; 9ef0 <uart_init+0xa0>
    9eb0:	ebfff870 	bl	8078 <PUT32>
    9eb4:	e3a010c7 	mov	r1, #199, 0	; 0xc7
    9eb8:	e59f0034 	ldr	r0, [pc, #52]	; 9ef4 <uart_init+0xa4>
    9ebc:	ebfff86d 	bl	8078 <PUT32>
    9ec0:	e59f1030 	ldr	r1, [pc, #48]	; 9ef8 <uart_init+0xa8>
    9ec4:	e59f0030 	ldr	r0, [pc, #48]	; 9efc <uart_init+0xac>
    9ec8:	ebfff86a 	bl	8078 <PUT32>
    9ecc:	e3a01003 	mov	r1, #3, 0
    9ed0:	e1a00004 	mov	r0, r4
    9ed4:	ebfff867 	bl	8078 <PUT32>
    9ed8:	eb000083 	bl	a0ec <dev_barrier>
    9edc:	e8bd8010 	pop	{r4, pc}
    9ee0:	20215004 	eorcs	r5, r1, r4
    9ee4:	20215060 	eorcs	r5, r1, r0, rrx
    9ee8:	20215044 	eorcs	r5, r1, r4, asr #32
    9eec:	2021504c 	eorcs	r5, r1, ip, asr #32
    9ef0:	20215050 	eorcs	r5, r1, r0, asr r0
    9ef4:	20215048 	eorcs	r5, r1, r8, asr #32
    9ef8:	0000010e 	andeq	r0, r0, lr, lsl #2
    9efc:	20215068 	eorcs	r5, r1, r8, rrx

00009f00 <uart_can_getc>:
    9f00:	e92d4010 	push	{r4, lr}
    9f04:	e59f0008 	ldr	r0, [pc, #8]	; 9f14 <uart_can_getc+0x14>
    9f08:	ebfff85c 	bl	8080 <GET32>
    9f0c:	e2000001 	and	r0, r0, #1, 0
    9f10:	e8bd8010 	pop	{r4, pc}
    9f14:	20215064 	eorcs	r5, r1, r4, rrx

00009f18 <uart_can_putc>:
    9f18:	e92d4010 	push	{r4, lr}
    9f1c:	e59f0010 	ldr	r0, [pc, #16]	; 9f34 <uart_can_putc+0x1c>
    9f20:	ebfff856 	bl	8080 <GET32>
    9f24:	e3100002 	tst	r0, #2, 0
    9f28:	13a00001 	movne	r0, #1, 0
    9f2c:	03a00000 	moveq	r0, #0, 0
    9f30:	e8bd8010 	pop	{r4, pc}
    9f34:	20215064 	eorcs	r5, r1, r4, rrx

00009f38 <uart_getc>:
    9f38:	e92d4010 	push	{r4, lr}
    9f3c:	eb00006a 	bl	a0ec <dev_barrier>
    9f40:	ebffffee 	bl	9f00 <uart_can_getc>
    9f44:	e3500000 	cmp	r0, #0, 0
    9f48:	0afffffc 	beq	9f40 <uart_getc+0x8>
    9f4c:	e59f0010 	ldr	r0, [pc, #16]	; 9f64 <uart_getc+0x2c>
    9f50:	ebfff84a 	bl	8080 <GET32>
    9f54:	e6ef4070 	uxtb	r4, r0
    9f58:	eb000063 	bl	a0ec <dev_barrier>
    9f5c:	e1a00004 	mov	r0, r4
    9f60:	e8bd8010 	pop	{r4, pc}
    9f64:	20215040 	eorcs	r5, r1, r0, asr #32

00009f68 <uart_putc>:
    9f68:	e92d4010 	push	{r4, lr}
    9f6c:	e1a04000 	mov	r4, r0
    9f70:	eb00005d 	bl	a0ec <dev_barrier>
    9f74:	ebffffe7 	bl	9f18 <uart_can_putc>
    9f78:	e3500000 	cmp	r0, #0, 0
    9f7c:	0afffffc 	beq	9f74 <uart_putc+0xc>
    9f80:	e6ef1074 	uxtb	r1, r4
    9f84:	e59f0008 	ldr	r0, [pc, #8]	; 9f94 <uart_putc+0x2c>
    9f88:	ebfff83a 	bl	8078 <PUT32>
    9f8c:	eb000056 	bl	a0ec <dev_barrier>
    9f90:	e8bd8010 	pop	{r4, pc}
    9f94:	20215040 	eorcs	r5, r1, r0, asr #32

00009f98 <uart_has_data>:
    9f98:	e92d4010 	push	{r4, lr}
    9f9c:	eb000052 	bl	a0ec <dev_barrier>
    9fa0:	ebffffd6 	bl	9f00 <uart_can_getc>
    9fa4:	e8bd8010 	pop	{r4, pc}

00009fa8 <uart_tx_is_empty>:
    9fa8:	e92d4010 	push	{r4, lr}
    9fac:	eb00004e 	bl	a0ec <dev_barrier>
    9fb0:	e59f000c 	ldr	r0, [pc, #12]	; 9fc4 <uart_tx_is_empty+0x1c>
    9fb4:	ebfff831 	bl	8080 <GET32>
    9fb8:	e1a004a0 	lsr	r0, r0, #9
    9fbc:	e2000001 	and	r0, r0, #1, 0
    9fc0:	e8bd8010 	pop	{r4, pc}
    9fc4:	20215064 	eorcs	r5, r1, r4, rrx

00009fc8 <uart_flush_tx>:
    9fc8:	e92d4010 	push	{r4, lr}
    9fcc:	ebfffff5 	bl	9fa8 <uart_tx_is_empty>
    9fd0:	e3500000 	cmp	r0, #0, 0
    9fd4:	0afffffc 	beq	9fcc <uart_flush_tx+0x4>
    9fd8:	e8bd8010 	pop	{r4, pc}

00009fdc <uart_disable>:
    9fdc:	e92d4010 	push	{r4, lr}
    9fe0:	ebfffff8 	bl	9fc8 <uart_flush_tx>
    9fe4:	eb000040 	bl	a0ec <dev_barrier>
    9fe8:	e3e01001 	mvn	r1, #1, 0
    9fec:	e59f0008 	ldr	r0, [pc, #8]	; 9ffc <uart_disable+0x20>
    9ff0:	ebffff86 	bl	9e10 <and_in32>
    9ff4:	eb00003c 	bl	a0ec <dev_barrier>
    9ff8:	e8bd8010 	pop	{r4, pc}
    9ffc:	20215004 	eorcs	r5, r1, r4

0000a000 <internal_putchar>:
    a000:	e92d4010 	push	{r4, lr}
    a004:	e1a04000 	mov	r4, r0
    a008:	ebffffd6 	bl	9f68 <uart_putc>
    a00c:	e1a00004 	mov	r0, r4
    a010:	e8bd8010 	pop	{r4, pc}

0000a014 <rpi_reset_putc>:
    a014:	e59f3008 	ldr	r3, [pc, #8]	; a024 <rpi_reset_putc+0x10>
    a018:	e59f2008 	ldr	r2, [pc, #8]	; a028 <rpi_reset_putc+0x14>
    a01c:	e5832000 	str	r2, [r3]
    a020:	e12fff1e 	bx	lr
    a024:	0000a510 	andeq	sl, r0, r0, lsl r5
    a028:	0000a000 	andeq	sl, r0, r0

0000a02c <rpi_set_putc>:
    a02c:	e59f3004 	ldr	r3, [pc, #4]	; a038 <rpi_set_putc+0xc>
    a030:	e5830000 	str	r0, [r3]
    a034:	e12fff1e 	bx	lr
    a038:	0000a510 	andeq	sl, r0, r0, lsl r5

0000a03c <strcat>:
    a03c:	e1a02000 	mov	r2, r0
    a040:	e1a03002 	mov	r3, r2
    a044:	e2822001 	add	r2, r2, #1, 0
    a048:	e5d3c000 	ldrb	ip, [r3]
    a04c:	e35c0000 	cmp	ip, #0, 0
    a050:	1afffffa 	bne	a040 <strcat+0x4>
    a054:	e2433001 	sub	r3, r3, #1, 0
    a058:	e5d12000 	ldrb	r2, [r1]
    a05c:	e2811001 	add	r1, r1, #1, 0
    a060:	e5e32001 	strb	r2, [r3, #1]!
    a064:	e3520000 	cmp	r2, #0, 0
    a068:	1afffffa 	bne	a058 <strcat+0x1c>
    a06c:	e12fff1e 	bx	lr

0000a070 <strcmp>:
    a070:	e5d03000 	ldrb	r3, [r0]
    a074:	e3530000 	cmp	r3, #0, 0
    a078:	0a000004 	beq	a090 <strcmp+0x20>
    a07c:	e5d12000 	ldrb	r2, [r1]
    a080:	e1530002 	cmp	r3, r2
    a084:	02800001 	addeq	r0, r0, #1, 0
    a088:	02811001 	addeq	r1, r1, #1, 0
    a08c:	0afffff7 	beq	a070 <strcmp>
    a090:	e5d10000 	ldrb	r0, [r1]
    a094:	e0430000 	sub	r0, r3, r0
    a098:	e12fff1e 	bx	lr

0000a09c <strcpy>:
    a09c:	e1a0c000 	mov	ip, r0
    a0a0:	e5d12000 	ldrb	r2, [r1]
    a0a4:	e2811001 	add	r1, r1, #1, 0
    a0a8:	e5cc2000 	strb	r2, [ip]
    a0ac:	e28cc001 	add	ip, ip, #1, 0
    a0b0:	e3520000 	cmp	r2, #0, 0
    a0b4:	1afffff9 	bne	a0a0 <strcpy+0x4>
    a0b8:	e12fff1e 	bx	lr

0000a0bc <strncmp>:
    a0bc:	e3520000 	cmp	r2, #0, 0
    a0c0:	e2422001 	sub	r2, r2, #1, 0
    a0c4:	0a000005 	beq	a0e0 <strncmp+0x24>
    a0c8:	e4d03001 	ldrb	r3, [r0], #1
    a0cc:	e4d1c001 	ldrb	ip, [r1], #1
    a0d0:	e153000c 	cmp	r3, ip
    a0d4:	0afffff8 	beq	a0bc <strncmp>
    a0d8:	e043000c 	sub	r0, r3, ip
    a0dc:	e12fff1e 	bx	lr
    a0e0:	e3a00000 	mov	r0, #0, 0
    a0e4:	e12fff1e 	bx	lr

0000a0e8 <reboot_callout>:
    a0e8:	e12fff1e 	bx	lr

0000a0ec <dev_barrier>:
    a0ec:	ea000002 	b	a0fc <dsb>

0000a0f0 <dmb>:
    a0f0:	e3a00000 	mov	r0, #0, 0
    a0f4:	ee070fba 	mcr	15, 0, r0, cr7, cr10, {5}
    a0f8:	e12fff1e 	bx	lr

0000a0fc <dsb>:
    a0fc:	ee070f9a 	mcr	15, 0, r0, cr7, cr10, {4}
    a100:	e12fff1e 	bx	lr

0000a104 <gpio_set_function>:
    a104:	e350001f 	cmp	r0, #31, 0
    a108:	812fff1e 	bxhi	lr
    a10c:	e92d4070 	push	{r4, r5, r6, lr}
    a110:	e1a05001 	mov	r5, r1
    a114:	e3d13007 	bics	r3, r1, #7, 0
    a118:	18bd8070 	popne	{r4, r5, r6, pc}
    a11c:	e59f3040 	ldr	r3, [pc, #64]	; a164 <gpio_set_function+0x60>
    a120:	e0832093 	umull	r2, r3, r3, r0
    a124:	e1a031a3 	lsr	r3, r3, #3
    a128:	e1a02003 	mov	r2, r3
    a12c:	e0833103 	add	r3, r3, r3, lsl #2
    a130:	e0403083 	sub	r3, r0, r3, lsl #1
    a134:	e0834083 	add	r4, r3, r3, lsl #1
    a138:	e2820302 	add	r0, r2, #134217728	; 0x8000000
    a13c:	e2800702 	add	r0, r0, #524288	; 0x80000
    a140:	e1a06100 	lsl	r6, r0, #2
    a144:	e1a00006 	mov	r0, r6
    a148:	ebfff7cc 	bl	8080 <GET32>
    a14c:	e3a01007 	mov	r1, #7, 0
    a150:	e1c01411 	bic	r1, r0, r1, lsl r4
    a154:	e1811415 	orr	r1, r1, r5, lsl r4
    a158:	e1a00006 	mov	r0, r6
    a15c:	ebfff7c5 	bl	8078 <PUT32>
    a160:	e8bd8070 	pop	{r4, r5, r6, pc}
    a164:	cccccccd 	stclgt	12, cr12, [ip], {205}	; 0xcd

0000a168 <gpio_set_output>:
    a168:	e92d4010 	push	{r4, lr}
    a16c:	e3a01001 	mov	r1, #1, 0
    a170:	ebffffe3 	bl	a104 <gpio_set_function>
    a174:	e8bd8010 	pop	{r4, pc}

0000a178 <gpio_set_on>:
    a178:	e350001f 	cmp	r0, #31, 0
    a17c:	812fff1e 	bxhi	lr
    a180:	e92d4010 	push	{r4, lr}
    a184:	e3a01001 	mov	r1, #1, 0
    a188:	e1a01011 	lsl	r1, r1, r0
    a18c:	e59f0004 	ldr	r0, [pc, #4]	; a198 <gpio_set_on+0x20>
    a190:	ebfff7b8 	bl	8078 <PUT32>
    a194:	e8bd8010 	pop	{r4, pc}
    a198:	2020001c 	eorcs	r0, r0, ip, lsl r0

0000a19c <gpio_set_off>:
    a19c:	e350001f 	cmp	r0, #31, 0
    a1a0:	812fff1e 	bxhi	lr
    a1a4:	e92d4010 	push	{r4, lr}
    a1a8:	e3a01001 	mov	r1, #1, 0
    a1ac:	e1a01011 	lsl	r1, r1, r0
    a1b0:	e59f0004 	ldr	r0, [pc, #4]	; a1bc <gpio_set_off+0x20>
    a1b4:	ebfff7af 	bl	8078 <PUT32>
    a1b8:	e8bd8010 	pop	{r4, pc}
    a1bc:	20200028 	eorcs	r0, r0, r8, lsr #32

0000a1c0 <gpio_set_input>:
    a1c0:	e92d4010 	push	{r4, lr}
    a1c4:	e3a01000 	mov	r1, #0, 0
    a1c8:	ebffffcd 	bl	a104 <gpio_set_function>
    a1cc:	e8bd8010 	pop	{r4, pc}

0000a1d0 <gpio_write>:
    a1d0:	e92d4010 	push	{r4, lr}
    a1d4:	e3510000 	cmp	r1, #0, 0
    a1d8:	0a000001 	beq	a1e4 <gpio_write+0x14>
    a1dc:	ebffffe5 	bl	a178 <gpio_set_on>
    a1e0:	e8bd8010 	pop	{r4, pc}
    a1e4:	ebffffec 	bl	a19c <gpio_set_off>
    a1e8:	e8bd8010 	pop	{r4, pc}

0000a1ec <gpio_read>:
    a1ec:	e350001f 	cmp	r0, #31, 0
    a1f0:	8a000007 	bhi	a214 <gpio_read+0x28>
    a1f4:	e92d4010 	push	{r4, lr}
    a1f8:	e200401f 	and	r4, r0, #31, 0
    a1fc:	e59f3018 	ldr	r3, [pc, #24]	; a21c <gpio_read+0x30>
    a200:	e08302a0 	add	r0, r3, r0, lsr #5
    a204:	ebfff79d 	bl	8080 <GET32>
    a208:	e1a00430 	lsr	r0, r0, r4
    a20c:	e2000001 	and	r0, r0, #1, 0
    a210:	e8bd8010 	pop	{r4, pc}
    a214:	e3e00000 	mvn	r0, #0, 0
    a218:	e12fff1e 	bx	lr
    a21c:	20200034 	eorcs	r0, r0, r4, lsr r0

Disassembly of section .rodata:

0000a220 <init_jk-0x30>:
    a220:	6c6c6568 	cfstr64vs	mvdx6, [ip], #-416	; 0xfffffe60
    a224:	00000a6f 	andeq	r0, r0, pc, ror #20
    a228:	6c6c6568 	cfstr64vs	mvdx6, [ip], #-416	; 0xfffffe60
    a22c:	25203a6f 	strcs	r3, [r0, #-2671]!	; 0xfffff591
    a230:	00000a66 	andeq	r0, r0, r6, ror #20
    a234:	28736f63 	ldmdacs	r3!, {r0, r1, r5, r6, r8, r9, sl, fp, sp, lr}^
    a238:	3d296625 	stccc	6, cr6, [r9, #-148]!	; 0xffffff6c
    a23c:	000a6625 	andeq	r6, sl, r5, lsr #12
    a240:	286e6973 	stmdacs	lr!, {r0, r1, r4, r5, r6, r8, fp, sp, lr}^
    a244:	3d296625 	stccc	6, cr6, [r9, #-148]!	; 0xffffff6c
    a248:	000a6625 	andeq	r6, sl, r5, lsr #12
    a24c:	00000000 	andeq	r0, r0, r0

0000a250 <init_jk>:
    a250:	00000003 	andeq	r0, r0, r3
    a254:	00000004 	andeq	r0, r0, r4
    a258:	00000004 	andeq	r0, r0, r4
    a25c:	00000006 	andeq	r0, r0, r6

0000a260 <ipio2>:
    a260:	00a2f983 	adceq	pc, r2, r3, lsl #19
    a264:	006e4e44 	rsbeq	r4, lr, r4, asr #28
    a268:	001529fc 			; <UNDEFINED> instruction: 0x001529fc
    a26c:	002757d1 	ldrdeq	r5, [r7], -r1	; <UNPREDICTABLE>
    a270:	00f534dd 	ldrsbteq	r3, [r5], #77	; 0x4d
    a274:	00c0db62 	sbceq	sp, r0, r2, ror #22
    a278:	0095993c 	addseq	r9, r5, ip, lsr r9
    a27c:	00439041 	subeq	r9, r3, r1, asr #32
    a280:	00fe5163 	rscseq	r5, lr, r3, ror #2
    a284:	00abdebb 	strhteq	sp, [fp], fp
    a288:	00c561b7 	strheq	r6, [r5], #23
    a28c:	00246e3a 	eoreq	r6, r4, sl, lsr lr
    a290:	00424dd2 	ldrdeq	r4, [r2], #-210	; 0xffffff2e
    a294:	00e00649 	rsceq	r0, r0, r9, asr #12
    a298:	002eea09 	eoreq	lr, lr, r9, lsl #20
    a29c:	00d1921c 	sbcseq	r9, r1, ip, lsl r2
    a2a0:	00fe1deb 	rscseq	r1, lr, fp, ror #27
    a2a4:	001cb129 	andseq	fp, ip, r9, lsr #2
    a2a8:	00a73ee8 	adceq	r3, r7, r8, ror #29
    a2ac:	008235f5 	strdeq	r3, [r2], r5
    a2b0:	002ebb44 	eoreq	fp, lr, r4, asr #22
    a2b4:	0084e99c 	umulleq	lr, r4, ip, r9
    a2b8:	007026b4 	ldrhteq	r2, [r0], #-100	; 0xffffff9c
    a2bc:	005f7e41 	subseq	r7, pc, r1, asr #28
    a2c0:	003991d6 	ldrsbteq	r9, [r9], -r6
    a2c4:	00398353 	eorseq	r8, r9, r3, asr r3
    a2c8:	0039f49c 	mlaseq	r9, ip, r4, pc	; <UNPREDICTABLE>
    a2cc:	00845f8b 	addeq	r5, r4, fp, lsl #31
    a2d0:	00bdf928 	adcseq	pc, sp, r8, lsr #18
    a2d4:	003b1ff8 	ldrshteq	r1, [fp], -r8
    a2d8:	0097ffde 			; <UNDEFINED> instruction: 0x0097ffde
    a2dc:	0005980f 	andeq	r9, r5, pc, lsl #16
    a2e0:	00ef2f11 	rsceq	r2, pc, r1, lsl pc	; <UNPREDICTABLE>
    a2e4:	008b5a0a 	addeq	r5, fp, sl, lsl #20
    a2e8:	006d1f6d 	rsbeq	r1, sp, sp, ror #30
    a2ec:	00367ecf 	eorseq	r7, r6, pc, asr #29
    a2f0:	0027cb09 	eoreq	ip, r7, r9, lsl #22
    a2f4:	00b74f46 	adcseq	r4, r7, r6, asr #30
    a2f8:	003f669e 	mlaseq	pc, lr, r6, r6	; <UNPREDICTABLE>
    a2fc:	005fea2d 	subseq	lr, pc, sp, lsr #20
    a300:	007527ba 	ldrhteq	r2, [r5], #-122	; 0xffffff86
    a304:	00c7ebe5 	sbceq	lr, r7, r5, ror #23
    a308:	00f17b3d 	rscseq	r7, r1, sp, lsr fp
    a30c:	000739f7 	strdeq	r3, [r7], -r7
    a310:	008a5292 	umulleq	r5, sl, r2, r2
    a314:	00ea6bfb 	strdeq	r6, [sl], #187	; 0xbb	; <UNPREDICTABLE>
    a318:	005fb11f 	subseq	fp, pc, pc, lsl r1	; <UNPREDICTABLE>
    a31c:	008d5d08 	addeq	r5, sp, r8, lsl #26
    a320:	00560330 	subseq	r0, r6, r0, lsr r3
    a324:	0046fc7b 	subeq	pc, r6, fp, ror ip	; <UNPREDICTABLE>
    a328:	006babf0 	strdeq	sl, [fp], #-176	; 0xffffff50	; <UNPREDICTABLE>
    a32c:	00cfbc20 	sbceq	fp, pc, r0, lsr #24
    a330:	009af436 	addseq	pc, sl, r6, lsr r4	; <UNPREDICTABLE>
    a334:	001da9e3 	andseq	sl, sp, r3, ror #19
    a338:	0091615e 	addseq	r6, r1, lr, asr r1
    a33c:	00e61b08 	rsceq	r1, r6, r8, lsl #22
    a340:	00659985 	rsbeq	r9, r5, r5, lsl #19
    a344:	005f14a0 	subseq	r1, pc, r0, lsr #9
    a348:	0068408d 	rsbeq	r4, r8, sp, lsl #1
    a34c:	00ffd880 	rscseq	sp, pc, r0, lsl #17
    a350:	004d7327 	subeq	r7, sp, r7, lsr #6
    a354:	00310606 	eorseq	r0, r1, r6, lsl #12
    a358:	001556ca 	andseq	r5, r5, sl, asr #13
    a35c:	0073a8c9 	rsbseq	sl, r3, r9, asr #17
    a360:	0060e27b 	rsbeq	lr, r0, fp, ror r2
    a364:	00c08c6b 	sbceq	r8, r0, fp, ror #24

0000a368 <PIo2>:
    a368:	40000000 	andmi	r0, r0, r0
    a36c:	3ff921fb 	svccc	0x00f921fb
    a370:	00000000 	andeq	r0, r0, r0
    a374:	3e74442d 	cdpcc	4, 7, cr4, cr4, cr13, {1}
    a378:	80000000 	andhi	r0, r0, r0
    a37c:	3cf84698 	ldclcc	6, cr4, [r8], #608	; 0x260
    a380:	60000000 	andvs	r0, r0, r0
    a384:	3b78cc51 	blcc	1e3d4d0 <__bss_end__+0x1e32bb8>
    a388:	80000000 	andhi	r0, r0, r0
    a38c:	39f01b83 	ldmibcc	r0!, {r0, r1, r7, r8, r9, fp, ip}^
    a390:	40000000 	andmi	r0, r0, r0
    a394:	387a2520 	ldmdacc	sl!, {r5, r8, sl, sp}^
    a398:	80000000 	andhi	r0, r0, r0
    a39c:	36e38222 	strbtcc	r8, [r3], r2, lsr #4
    a3a0:	00000000 	andeq	r0, r0, r0
    a3a4:	3569f31d 	strbcc	pc, [r9, #-797]!	; 0xfffffce3	; <UNPREDICTABLE>
    a3a8:	696c2f2e 	stmdbvs	ip!, {r1, r2, r3, r5, r8, r9, sl, fp, sp}^
    a3ac:	762f6362 	strtvc	r6, [pc], -r2, ror #6
    a3b0:	72702d61 	rsbsvc	r2, r0, #6208	; 0x1840
    a3b4:	6b746e69 	blvs	1d25d60 <__bss_end__+0x1d1b448>
    a3b8:	0000632e 	andeq	r6, r0, lr, lsr #6
    a3bc:	494e4150 	stmdbmi	lr, {r4, r6, r8, lr}^
    a3c0:	73253a43 			; <UNDEFINED> instruction: 0x73253a43
    a3c4:	3a73253a 	bcc	1cd38b4 <__bss_end__+0x1cc8f9c>
    a3c8:	253a6425 	ldrcs	r6, [sl, #-1061]!	; 0xfffffbdb
    a3cc:	00000a73 	andeq	r0, r0, r3, ror sl
    a3d0:	00000030 	andeq	r0, r0, r0, lsr r0
    a3d4:	33323130 	teqcc	r2, #12
    a3d8:	37363534 			; <UNDEFINED> instruction: 0x37363534
    a3dc:	00003938 	andeq	r3, r0, r8, lsr r9
    a3e0:	33323130 	teqcc	r2, #12
    a3e4:	37363534 			; <UNDEFINED> instruction: 0x37363534
    a3e8:	62613938 	rsbvs	r3, r1, #56, 18	; 0xe0000
    a3ec:	66656463 	strbtvs	r6, [r5], -r3, ror #8
    a3f0:	00000000 	andeq	r0, r0, r0
    a3f4:	00003130 	andeq	r3, r0, r0, lsr r1
    a3f8:	63747570 	cmnvs	r4, #112, 10	; 0x1c000000
    a3fc:	0070665f 	rsbseq	r6, r0, pc, asr r6
    a400:	0000002e 	andeq	r0, r0, lr, lsr #32
    a404:	74646977 	strbtvc	r6, [r4], #-2423	; 0xfffff689
    a408:	203c2068 	eorscs	r2, ip, r8, rrx
    a40c:	00003233 	andeq	r3, r0, r3, lsr r2
    a410:	00786c6c 	rsbseq	r6, r8, ip, ror #24
    a414:	00646c6c 	rsbeq	r6, r4, ip, ror #24
    a418:	253d3078 	ldrcs	r3, [sp, #-120]!	; 0xffffff88
    a41c:	00000a78 	andeq	r0, r0, r8, ror sl
    a420:	253d3178 	ldrcs	r3, [sp, #-376]!	; 0xfffffe88
    a424:	00000a78 	andeq	r0, r0, r8, ror sl
    a428:	6e727473 	mrcvs	4, 3, r7, cr2, cr3, {3}
    a42c:	28706d63 	ldmdacs	r0!, {r0, r1, r5, r6, r8, sl, fp, sp, lr}^
    a430:	202c7974 	eorcs	r7, ip, r4, ror r9
    a434:	786c6c22 	stmdavc	ip!, {r1, r5, sl, fp, sp, lr}^
    a438:	33202c22 			; <UNDEFINED> instruction: 0x33202c22
    a43c:	3d3d2029 	ldccc	0, cr2, [sp, #-164]!	; 0xffffff5c
    a440:	7c203020 	stcvc	0, cr3, [r0], #-128	; 0xffffff80
    a444:	7473207c 	ldrbtvc	r2, [r3], #-124	; 0xffffff84
    a448:	6d636e72 	stclvs	14, cr6, [r3, #-456]!	; 0xfffffe38
    a44c:	79742870 	ldmdbvc	r4!, {r4, r5, r6, fp, sp}^
    a450:	6c22202c 	stcvs	0, cr2, [r2], #-176	; 0xffffff50
    a454:	2c22646c 	cfstrscs	mvf6, [r2], #-432	; 0xfffffe50
    a458:	20293320 	eorcs	r3, r9, r0, lsr #6
    a45c:	30203d3d 	eorcc	r3, r0, sp, lsr sp
    a460:	00000000 	andeq	r0, r0, r0
    a464:	494e4150 	stmdbmi	lr, {r4, r6, r8, lr}^
    a468:	73253a43 			; <UNDEFINED> instruction: 0x73253a43
    a46c:	3a73253a 	bcc	1cd395c <__bss_end__+0x1cc9044>
    a470:	693a6425 	ldmdbvs	sl!, {r0, r2, r5, sl, sp, lr}
    a474:	736f706d 	cmnvc	pc, #109, 0	; 0x6d
    a478:	6c626973 			; <UNDEFINED> instruction: 0x6c626973
    a47c:	66203a65 	strtvs	r3, [r0], -r5, ror #20
    a480:	3c3d746d 	cfldrscc	mvf7, [sp], #-436	; 0xfffffe4c
    a484:	0a3e7325 	beq	fa7120 <__bss_end__+0xf9c808>
    a488:	0000000a 	andeq	r0, r0, sl
    a48c:	6e697270 	mcrvs	2, 3, r7, cr9, cr0, {3}
    a490:	203a6b74 	eorscs	r6, sl, r4, ror fp
    a494:	20746f6e 	rsbscs	r6, r4, lr, ror #30
    a498:	646e6168 	strbtvs	r6, [lr], #-360	; 0xfffffe98
    a49c:	676e696c 	strbvs	r6, [lr, -ip, ror #18]!
    a4a0:	65707320 	ldrbvs	r7, [r0, #-800]!	; 0xfffffce0
    a4a4:	69666963 	stmdbvs	r6!, {r0, r1, r5, r6, r8, fp, sp, lr}^
    a4a8:	27207265 	strcs	r7, [r0, -r5, ror #4]!
    a4ac:	20276325 	eorcs	r6, r7, r5, lsr #6
    a4b0:	63736128 	cmnvs	r3, #10
    a4b4:	253d6969 	ldrcs	r6, [sp, #-2409]!	; 0xfffff697
    a4b8:	000a2964 	andeq	r2, sl, r4, ror #18
    a4bc:	494e4150 	stmdbmi	lr, {r4, r6, r8, lr}^
    a4c0:	73253a43 			; <UNDEFINED> instruction: 0x73253a43
    a4c4:	3a73253a 	bcc	1cd39b4 <__bss_end__+0x1cc909c>
    a4c8:	703a6425 	eorsvc	r6, sl, r5, lsr #8
    a4cc:	746e6972 	strbtvc	r6, [lr], #-2418	; 0xfffff68e
    a4d0:	7265206b 	rsbvc	r2, r5, #107, 0	; 0x6b
    a4d4:	0a726f72 	beq	1ca62a4 <__bss_end__+0x1c9b98c>
    a4d8:	0000000a 	andeq	r0, r0, sl

0000a4dc <__FUNCTION__.5371>:
    a4dc:	74696d65 	strbtvc	r6, [r9], #-3429	; 0xfffff29b
    a4e0:	00000000 	andeq	r0, r0, r0

0000a4e4 <__FUNCTION__.5319>:
    a4e4:	5f697072 	svcpl	0x00697072
    a4e8:	5f746573 	svcpl	0x00746573
    a4ec:	7074756f 	rsbsvc	r7, r4, pc, ror #10
    a4f0:	00007475 	andeq	r7, r0, r5, ror r4

0000a4f4 <__FUNCTION__.5397>:
    a4f4:	705f6176 	subsvc	r6, pc, r6, ror r1	; <UNPREDICTABLE>
    a4f8:	746e6972 	strbtvc	r6, [lr], #-2418	; 0xfffff68e
    a4fc:	0000006b 	andeq	r0, r0, fp, rrx
    a500:	454e4f44 	strbmi	r4, [lr, #-3908]	; 0xfffff0bc
    a504:	0a212121 	beq	852990 <__bss_end__+0x848078>
	...

Disassembly of section .data:

0000a50c <putk>:
    a50c:	000093a4 	andeq	r9, r0, r4, lsr #7

0000a510 <rpi_putchar>:
    a510:	0000a000 	andeq	sl, r0, r0

Disassembly of section .bss:

0000a514 <__bss_start__>:
	...

Disassembly of section .ARM.attributes:

00000000 <.ARM.attributes>:
   0:	00002e41 	andeq	r2, r0, r1, asr #28
   4:	61656100 	cmnvs	r5, r0, lsl #2
   8:	01006962 	tsteq	r0, r2, ror #18
   c:	00000024 	andeq	r0, r0, r4, lsr #32
  10:	4b5a3605 	blmi	168d82c <__bss_end__+0x1682f14>
  14:	08070600 	stmdaeq	r7, {r9, sl}
  18:	0a010901 	beq	42424 <__bss_end__+0x37b0c>
  1c:	14041202 	strne	r1, [r4], #-514	; 0xfffffdfe
  20:	17011501 	strne	r1, [r1, -r1, lsl #10]
  24:	1a011803 	bne	46038 <__bss_end__+0x3b720>
  28:	22011c01 	andcs	r1, r1, #256	; 0x100
  2c:	Address 0x000000000000002c is out of bounds.


Disassembly of section .comment:

00000000 <.comment>:
   0:	3a434347 	bcc	10d0d24 <__bss_end__+0x10c640c>
   4:	4e472820 	cdpmi	8, 4, cr2, cr7, cr0, {1}
   8:	6f542055 	svcvs	0x00542055
   c:	20736c6f 	rsbscs	r6, r3, pc, ror #24
  10:	20726f66 	rsbscs	r6, r2, r6, ror #30
  14:	206d7241 	rsbcs	r7, sp, r1, asr #4
  18:	65626d45 	strbvs	r6, [r2, #-3397]!	; 0xfffff2bb
  1c:	64656464 	strbtvs	r6, [r5], #-1124	; 0xfffffb9c
  20:	6f725020 	svcvs	0x00725020
  24:	73736563 	cmnvc	r3, #415236096	; 0x18c00000
  28:	2073726f 	rsbscs	r7, r3, pc, ror #4
  2c:	30322d39 	eorscc	r2, r2, r9, lsr sp
  30:	712d3931 			; <UNDEFINED> instruction: 0x712d3931
  34:	616d2d34 	cmnvs	sp, r4, lsr sp
  38:	29726f6a 	ldmdbcs	r2!, {r1, r3, r5, r6, r8, r9, sl, fp, sp, lr}^
  3c:	322e3920 	eorcc	r3, lr, #32, 18	; 0x80000
  40:	3220312e 	eorcc	r3, r0, #-2147483637	; 0x8000000b
  44:	31393130 	teqcc	r9, r0, lsr r1
  48:	20353230 	eorscs	r3, r5, r0, lsr r2
  4c:	6c657228 	sfmvs	f7, 2, [r5], #-160	; 0xffffff60
  50:	65736165 	ldrbvs	r6, [r3, #-357]!	; 0xfffffe9b
  54:	415b2029 	cmpmi	fp, r9, lsr #32
  58:	612f4d52 			; <UNDEFINED> instruction: 0x612f4d52
  5c:	392d6d72 	pushcc	{r1, r4, r5, r6, r8, sl, fp, sp, lr}
  60:	6172622d 	cmnvs	r2, sp, lsr #4
  64:	2068636e 	rsbcs	r6, r8, lr, ror #6
  68:	69766572 	ldmdbvs	r6!, {r1, r4, r5, r6, r8, sl, sp, lr}^
  6c:	6e6f6973 			; <UNDEFINED> instruction: 0x6e6f6973
  70:	37373220 	ldrcc	r3, [r7, -r0, lsr #4]!
  74:	5d393935 			; <UNDEFINED> instruction: 0x5d393935
  78:	43434700 	movtmi	r4, #14080	; 0x3700
  7c:	4728203a 			; <UNDEFINED> instruction: 0x4728203a
  80:	4120554e 			; <UNDEFINED> instruction: 0x4120554e
  84:	45206d72 	strmi	r6, [r0, #-3442]!	; 0xfffff28e
  88:	6465626d 	strbtvs	r6, [r5], #-621	; 0xfffffd93
  8c:	20646564 	rsbcs	r6, r4, r4, ror #10
  90:	6c6f6f54 	stclvs	15, cr6, [pc], #-336	; ffffff48 <__bss_end__+0xffff5630>
  94:	69616863 	stmdbvs	r1!, {r0, r1, r5, r6, fp, sp, lr}^
  98:	3031206e 	eorscc	r2, r1, lr, rrx
  9c:	322d332e 	eorcc	r3, sp, #-1207959552	; 0xb8000000
  a0:	2e313230 	mrccs	2, 1, r3, cr1, cr0, {1}
  a4:	20293031 	eorcs	r3, r9, r1, lsr r0
  a8:	332e3031 			; <UNDEFINED> instruction: 0x332e3031
  ac:	3220312e 	eorcc	r3, r0, #-2147483637	; 0x8000000b
  b0:	30313230 	eorscc	r3, r1, r0, lsr r2
  b4:	20343238 	eorscs	r3, r4, r8, lsr r2
  b8:	6c657228 	sfmvs	f7, 2, [r5], #-160	; 0xffffff60
  bc:	65736165 	ldrbvs	r6, [r3, #-357]!	; 0xfffffe9b
  c0:	Address 0x00000000000000c0 is out of bounds.


Disassembly of section .debug_info:

00000000 <.debug_info>:
       0:	0000026d 	andeq	r0, r0, sp, ror #4
       4:	00000004 	andeq	r0, r0, r4
       8:	01040000 	mrseq	r0, (UNDEF: 4)
       c:	0000006a 	andeq	r0, r0, sl, rrx
      10:	0000170c 	andeq	r1, r0, ip, lsl #14
      14:	00017800 	andeq	r7, r1, r0, lsl #16
      18:	0080d800 	addeq	sp, r0, r0, lsl #16
      1c:	00008800 	andeq	r8, r0, r0, lsl #16
      20:	00000000 	andeq	r0, r0, r0
      24:	04080200 	streq	r0, [r8], #-512	; 0xfffffe00
      28:	0000026b 	andeq	r0, r0, fp, ror #4
      2c:	69050403 	stmdbvs	r5, {r0, r1, sl}
      30:	0200746e 	andeq	r7, r0, #1845493760	; 0x6e000000
      34:	01510704 	cmpeq	r1, r4, lsl #14
      38:	01020000 	mrseq	r0, (UNDEF: 2)
      3c:	00003106 	andeq	r3, r0, r6, lsl #2
      40:	05020200 	streq	r0, [r2, #-512]	; 0xfffffe00
      44:	000001df 	ldrdeq	r0, [r0], -pc	; <UNPREDICTABLE>
      48:	63050402 	movwvs	r0, #21506	; 0x5402
      4c:	02000001 	andeq	r0, r0, #1, 0
      50:	015e0508 	cmpeq	lr, r8, lsl #10
      54:	01020000 	mrseq	r0, (UNDEF: 2)
      58:	00002f08 	andeq	r2, r0, r8, lsl #30
      5c:	07020200 	streq	r0, [r2, -r0, lsl #4]
      60:	00000051 	andeq	r0, r0, r1, asr r0
      64:	0001e904 	andeq	lr, r1, r4, lsl #18
      68:	19340300 	ldmdbne	r4!, {r8, r9}
      6c:	00000070 	andeq	r0, r0, r0, ror r0
      70:	4c070402 	cfstrsmi	mvf0, [r7], {2}
      74:	02000001 	andeq	r0, r0, #1, 0
      78:	01470708 	cmpeq	r7, r8, lsl #14
      7c:	2c050000 	stccs	0, cr0, [r5], {-0}
      80:	8d000000 	stchi	0, cr0, [r0, #-0]
      84:	06000000 	streq	r0, [r0], -r0
      88:	0000002c 	andeq	r0, r0, ip, lsr #32
      8c:	016c0700 	cmneq	ip, r0, lsl #14
      90:	1c020000 	stcne	0, cr0, [r2], {-0}
      94:	0000990e 	andeq	r9, r0, lr, lsl #18
      98:	7e040800 	cdpvc	8, 0, cr0, cr4, cr0, {0}
      9c:	05000000 	streq	r0, [r0, #-0]
      a0:	0000002c 	andeq	r0, r0, ip, lsr #32
      a4:	000000ae 	andeq	r0, r0, lr, lsr #1
      a8:	0000ae06 	andeq	sl, r0, r6, lsl #28
      ac:	04080000 	streq	r0, [r8], #-0
      b0:	000000bb 	strheq	r0, [r0], -fp
      b4:	38080102 	stmdacc	r8, {r1, r8}
      b8:	09000000 	stmdbeq	r0, {}	; <UNPREDICTABLE>
      bc:	000000b4 	strheq	r0, [r0], -r4
      c0:	00056507 	andeq	r6, r5, r7, lsl #10
      c4:	0e210200 	cdpeq	2, 2, cr0, cr1, cr0, {0}
      c8:	000000cc 	andeq	r0, r0, ip, asr #1
      cc:	009f0408 	addseq	r0, pc, r8, lsl #8
      d0:	28040000 	stmdacs	r4, {}	; <UNPREDICTABLE>
      d4:	04000000 	streq	r0, [r0], #-0
      d8:	00641228 	rsbeq	r1, r4, r8, lsr #4
      dc:	d2090000 	andle	r0, r9, #0, 0
      e0:	07000000 	streq	r0, [r0, -r0]
      e4:	0000013a 	andeq	r0, r0, sl, lsr r1
      e8:	de153e04 	cdple	14, 1, cr3, cr5, cr4, {0}
      ec:	0a000000 	beq	f4 <__code_start__-0x7f0c>
      f0:	0000012c 	andeq	r0, r0, ip, lsr #2
      f4:	14310508 	ldrtne	r0, [r1], #-1288	; 0xfffffaf8
      f8:	00000115 	andeq	r0, r0, r5, lsl r1
      fc:	0000000b 	andeq	r0, r0, fp
     100:	10320500 	eorsne	r0, r2, r0, lsl #10
     104:	0000011a 	andeq	r0, r0, sl, lsl r1
     108:	0000050b 	andeq	r0, r0, fp, lsl #10
     10c:	0a330500 	beq	cc1514 <__bss_end__+0xcb6bfc>
     110:	00000025 	andeq	r0, r0, r5, lsr #32
     114:	00ef0900 	rsceq	r0, pc, r0, lsl #18
     118:	560c0000 	strpl	r0, [ip], -r0
     11c:	2a000000 	bcs	124 <__code_start__-0x7edc>
     120:	0d000001 	stceq	0, cr0, [r0, #-4]
     124:	00000033 	andeq	r0, r0, r3, lsr r0
     128:	46070007 	strmi	r0, [r7], -r7
     12c:	05000000 	streq	r0, [r0, #-0]
     130:	01150334 	tsteq	r5, r4, lsr r3
     134:	1f0a0000 	svcne	0x000a0000
     138:	04000000 	streq	r0, [r0], #-0
     13c:	5c143605 	ldcpl	6, cr3, [r4], {5}
     140:	0b000001 	bleq	14c <__code_start__-0x7eb4>
     144:	00000000 	andeq	r0, r0, r0
     148:	61103705 	tstvs	r0, r5, lsl #14
     14c:	0b000001 	bleq	158 <__code_start__-0x7ea8>
     150:	0000000a 	andeq	r0, r0, sl
     154:	71093805 	tstvc	r9, r5, lsl #16
     158:	00000001 	andeq	r0, r0, r1
     15c:	00013609 	andeq	r3, r1, r9, lsl #12
     160:	00560c00 	subseq	r0, r6, r0, lsl #24
     164:	01710000 	cmneq	r1, r0
     168:	330d0000 	movwcc	r0, #53248	; 0xd000
     16c:	03000000 	movweq	r0, #0
     170:	04040200 	streq	r0, [r4], #-512	; 0xfffffe00
     174:	000006b9 			; <UNDEFINED> instruction: 0x000006b9
     178:	00006407 	andeq	r6, r0, r7, lsl #8
     17c:	03390500 	teqeq	r9, #0, 10
     180:	0000015c 	andeq	r0, r0, ip, asr r1
     184:	00000f0e 	andeq	r0, r0, lr, lsl #30
     188:	06070100 	streq	r0, [r7], -r0, lsl #2
     18c:	000080d8 	ldrdeq	r8, [r0], -r8	; <UNPREDICTABLE>
     190:	00000088 	andeq	r0, r0, r8, lsl #1
     194:	02409c01 	subeq	r9, r0, #256	; 0x100
     198:	e80f0000 	stmda	pc, {}	; <UNPREDICTABLE>
     19c:	40000080 	andmi	r0, r0, r0, lsl #1
     1a0:	b1000002 	tstlt	r0, r2
     1a4:	10000001 	andne	r0, r0, r1
     1a8:	03055001 	movweq	r5, #20481	; 0x5001
     1ac:	0000a220 	andeq	sl, r0, r0, lsr #4
     1b0:	80f00f00 	rscshi	r0, r0, r0, lsl #30
     1b4:	024c0000 	subeq	r0, ip, #0, 0
     1b8:	01c60000 	biceq	r0, r6, r0
     1bc:	01100000 	tsteq	r0, r0
     1c0:	f40a0350 	vst2.16	{d0-d3}, [sl :64], r0
     1c4:	080f0001 	stmdaeq	pc, {r0}	; <UNPREDICTABLE>
     1c8:	40000081 	andmi	r0, r0, r1, lsl #1
     1cc:	dd000002 	stcle	0, cr0, [r0, #-8]
     1d0:	10000001 	andne	r0, r0, r1
     1d4:	03055001 	movweq	r5, #20481	; 0x5001
     1d8:	0000a228 	andeq	sl, r0, r8, lsr #4
     1dc:	81100f00 	tsthi	r0, r0, lsl #30
     1e0:	02580000 	subseq	r0, r8, #0, 0
     1e4:	01f90000 	mvnseq	r0, r0
     1e8:	08100000 	ldmdaeq	r0, {}	; <UNPREDICTABLE>
     1ec:	04934090 	ldreq	r4, [r3], #144	; 0x90
     1f0:	04934190 	ldreq	r4, [r3], #400	; 0x190
     1f4:	2504f503 	strcs	pc, [r4, #-1283]	; 0xfffffafd
     1f8:	81240f00 			; <UNDEFINED> instruction: 0x81240f00
     1fc:	02400000 	subeq	r0, r0, #0, 0
     200:	02100000 	andseq	r0, r0, #0, 0
     204:	01100000 	tsteq	r0, r0
     208:	34030550 	strcc	r0, [r3], #-1360	; 0xfffffab0
     20c:	000000a2 	andeq	r0, r0, r2, lsr #1
     210:	00812c0f 	addeq	r2, r1, pc, lsl #24
     214:	00026400 	andeq	r6, r2, r0, lsl #8
     218:	00022c00 	andeq	r2, r2, r0, lsl #24
     21c:	90081000 	andls	r1, r8, r0
     220:	90049340 	andls	r9, r4, r0, asr #6
     224:	03049341 	movweq	r9, #17217	; 0x4341
     228:	002504f5 	strdeq	r0, [r5], -r5	; <UNPREDICTABLE>
     22c:	00814011 	addeq	r4, r1, r1, lsl r0
     230:	00024000 	andeq	r4, r2, r0
     234:	50011000 	andpl	r1, r1, r0
     238:	a2400305 	subge	r0, r0, #335544320	; 0x14000000
     23c:	00000000 	andeq	r0, r0, r0
     240:	0003f112 	andeq	pc, r3, r2, lsl r1	; <UNPREDICTABLE>
     244:	0003f100 	andeq	pc, r3, r0, lsl #2
     248:	06280200 	strteq	r0, [r8], -r0, lsl #4
     24c:	00003d12 	andeq	r3, r0, r2, lsl sp
     250:	00003d00 	andeq	r3, r0, r0, lsl #26
     254:	06580200 	ldrbeq	r0, [r8], -r0, lsl #4
     258:	736f6313 	cmnvc	pc, #1275068416	; 0x4c000000
     25c:	736f6300 	cmnvc	pc, #0, 6
     260:	08020600 	stmdaeq	r2, {r9, sl}
     264:	6e697313 	mcrvs	3, 3, r7, cr9, cr3, {0}
     268:	6e697300 	cdpvs	3, 6, cr7, cr9, cr0, {0}
     26c:	08130600 	ldmdaeq	r3, {r9, sl}
     270:	0002ed00 	andeq	lr, r2, r0, lsl #26
     274:	06000400 	streq	r0, [r0], -r0, lsl #8
     278:	04000001 	streq	r0, [r0], #-1
     27c:	00006a01 	andeq	r6, r0, r1, lsl #20
     280:	02850c00 	addeq	r0, r5, #0, 24
     284:	01f20000 	mvnseq	r0, r0
     288:	81600000 	cmnhi	r0, r0
     28c:	00f40000 	rscseq	r0, r4, r0
     290:	01d50000 	bicseq	r0, r5, r0
     294:	08020000 	stmdaeq	r2, {}	; <UNPREDICTABLE>
     298:	00026b04 	andeq	r6, r2, r4, lsl #22
     29c:	012c0300 			; <UNDEFINED> instruction: 0x012c0300
     2a0:	02080000 	andeq	r0, r8, #0, 0
     2a4:	00521431 	subseq	r1, r2, r1, lsr r4
     2a8:	00040000 	andeq	r0, r4, r0
     2ac:	02000000 	andeq	r0, r0, #0, 0
     2b0:	00571032 	subseq	r1, r7, r2, lsr r0
     2b4:	05040000 	streq	r0, [r4, #-0]
     2b8:	02000000 	andeq	r0, r0, #0, 0
     2bc:	00250a33 	eoreq	r0, r5, r3, lsr sl
     2c0:	05000000 	streq	r0, [r0, #-0]
     2c4:	0000002c 	andeq	r0, r0, ip, lsr #32
     2c8:	00006e06 	andeq	r6, r0, r6, lsl #28
     2cc:	00006700 	andeq	r6, r0, r0, lsl #14
     2d0:	00670700 	rsbeq	r0, r7, r0, lsl #14
     2d4:	00070000 	andeq	r0, r7, r0
     2d8:	51070402 	tstpl	r7, r2, lsl #8
     2dc:	02000001 	andeq	r0, r0, #1, 0
     2e0:	002f0801 	eoreq	r0, pc, r1, lsl #16
     2e4:	46080000 	strmi	r0, [r8], -r0
     2e8:	02000000 	andeq	r0, r0, #0, 0
     2ec:	00520334 	subseq	r0, r2, r4, lsr r3
     2f0:	1f030000 	svcne	0x00030000
     2f4:	04000000 	streq	r0, [r0], #-0
     2f8:	a7143602 	ldrge	r3, [r4, -r2, lsl #12]
     2fc:	04000000 	streq	r0, [r0], #-0
     300:	00000000 	andeq	r0, r0, r0
     304:	ac103702 	ldcge	7, cr3, [r0], {2}
     308:	04000000 	streq	r0, [r0], #-0
     30c:	0000000a 	andeq	r0, r0, sl
     310:	bc093802 	stclt	8, cr3, [r9], {2}
     314:	00000000 	andeq	r0, r0, r0
     318:	00008105 	andeq	r8, r0, r5, lsl #2
     31c:	006e0600 	rsbeq	r0, lr, r0, lsl #12
     320:	00bc0000 	adcseq	r0, ip, r0
     324:	67070000 	strvs	r0, [r7, -r0]
     328:	03000000 	movweq	r0, #0
     32c:	04040200 	streq	r0, [r4], #-512	; 0xfffffe00
     330:	000006b9 			; <UNDEFINED> instruction: 0x000006b9
     334:	00006408 	andeq	r6, r0, r8, lsl #8
     338:	03390200 	teqeq	r9, #0, 4
     33c:	000000a7 	andeq	r0, r0, r7, lsr #1
     340:	31060102 	tstcc	r6, r2, lsl #2
     344:	02000000 	andeq	r0, r0, #0, 0
     348:	01df0502 	bicseq	r0, pc, r2, lsl #10
     34c:	8f090000 	svchi	0x00090000
     350:	03000002 	movweq	r0, #2
     354:	00e91828 	rsceq	r1, r9, r8, lsr #16
     358:	04020000 	streq	r0, [r2], #-0
     35c:	00016305 	andeq	r6, r1, r5, lsl #6
     360:	05080200 	streq	r0, [r8, #-512]	; 0xfffffe00
     364:	0000015e 	andeq	r0, r0, lr, asr r1
     368:	51070202 	tstpl	r7, r2, lsl #4
     36c:	09000000 	stmdbeq	r0, {}	; <UNPREDICTABLE>
     370:	000001e9 	andeq	r0, r0, r9, ror #3
     374:	0a193403 	beq	64d388 <__bss_end__+0x642a70>
     378:	02000001 	andeq	r0, r0, #1, 0
     37c:	014c0704 	cmpeq	ip, r4, lsl #14
     380:	3b090000 	blcc	240388 <__bss_end__+0x235a70>
     384:	03000002 	movweq	r0, #2
     388:	011d1937 	tsteq	sp, r7, lsr r9
     38c:	08020000 	stmdaeq	r2, {}	; <UNPREDICTABLE>
     390:	00014707 	andeq	r4, r1, r7, lsl #14
     394:	05040a00 	streq	r0, [r4, #-2560]	; 0xfffff600
     398:	00746e69 	rsbseq	r6, r4, r9, ror #28
     39c:	00028d09 	andeq	r8, r2, r9, lsl #26
     3a0:	1f090400 	svcne	0x00090400
     3a4:	000000fe 	strdeq	r0, [r0], -lr
     3a8:	00024909 	andeq	r4, r2, r9, lsl #18
     3ac:	1f0a0400 	svcne	0x000a0400
     3b0:	00000111 	andeq	r0, r0, r1, lsl r1
     3b4:	66040802 	strvs	r0, [r4], -r2, lsl #16
     3b8:	0b000002 	bleq	3c8 <__code_start__-0x7c38>
     3bc:	03440508 	movteq	r0, #17672	; 0x4508
     3c0:	0000016e 	andeq	r0, r0, lr, ror #2
     3c4:	77736c0c 	ldrbvc	r6, [r3, -ip, lsl #24]!
     3c8:	0f460500 	svceq	0x00460500
     3cc:	0000012b 	andeq	r0, r0, fp, lsr #2
     3d0:	736d0c00 	cmnvc	sp, #0, 24
     3d4:	47050077 	smlsdxmi	r5, r7, r0, r0
     3d8:	00012b0f 	andeq	r2, r1, pc, lsl #22
     3dc:	0b000400 	bleq	13e4 <__code_start__-0x6c1c>
     3e0:	03490508 	movteq	r0, #38152	; 0x9508
     3e4:	00000183 	andeq	r0, r0, r3, lsl #3
     3e8:	0500770c 	streq	r7, [r0, #-1804]	; 0xfffff8f4
     3ec:	01370f4b 	teqeq	r7, fp, asr #30
     3f0:	00000000 	andeq	r0, r0, r0
     3f4:	4105080d 	tstmi	r5, sp, lsl #16
     3f8:	0001b109 	andeq	fp, r1, r9, lsl #2
     3fc:	02530400 	subseq	r0, r3, #0, 8
     400:	43050000 	movwmi	r0, #20480	; 0x5000
     404:	0000250a 	andeq	r2, r0, sl, lsl #10
     408:	02980400 	addseq	r0, r8, #0, 8
     40c:	48050000 	stmdami	r5, {}	; <UNPREDICTABLE>
     410:	00014a05 	andeq	r4, r1, r5, lsl #20
     414:	02970400 	addseq	r0, r7, #0, 8
     418:	4c050000 	stcmi	0, cr0, [r5], {-0}
     41c:	00016e05 	andeq	r6, r1, r5, lsl #28
     420:	ab090000 	blge	240428 <__bss_end__+0x235b10>
     424:	05000002 	streq	r0, [r0, #-2]
     428:	0183034d 	orreq	r0, r3, sp, asr #6
     42c:	630e0000 	movwvs	r0, #57344	; 0xe000
     430:	0100736f 	tsteq	r0, pc, ror #6
     434:	00250137 	eoreq	r0, r5, r7, lsr r1
     438:	81600000 	cmnhi	r0, r0
     43c:	00f40000 	rscseq	r0, r4, r0
     440:	9c010000 	stcls	0, cr0, [r1], {-0}
     444:	000002b9 			; <UNDEFINED> instruction: 0x000002b9
     448:	0100780f 	tsteq	r0, pc, lsl #16
     44c:	00250c37 	eoreq	r0, r5, r7, lsr ip
     450:	00100000 	andseq	r0, r0, r0
     454:	00000000 	andeq	r0, r0, r0
     458:	79100000 	ldmdbvc	r0, {}	; <UNPREDICTABLE>
     45c:	09390100 	ldmdbeq	r9!, {r8}
     460:	000002b9 			; <UNDEFINED> instruction: 0x000002b9
     464:	11689102 	cmnne	r8, r2, lsl #2
     468:	3901007a 	stmdbcc	r1, {r1, r3, r4, r5, r6}
     46c:	0000250e 	andeq	r2, r0, lr, lsl #10
     470:	00000800 	andeq	r0, r0, r0, lsl #16
     474:	00000000 	andeq	r0, r0, r0
     478:	6e120000 	cdpvs	0, 1, cr0, cr2, cr0, {0}
     47c:	0a3a0100 	beq	e80884 <__bss_end__+0xe75f6c>
     480:	000000dd 	ldrdeq	r0, [r0], -sp
     484:	000000a2 	andeq	r0, r0, r2, lsr #1
     488:	000000a0 	andeq	r0, r0, r0, lsr #1
     48c:	00786912 	rsbseq	r6, r8, r2, lsl r9
     490:	dd0d3a01 	vstrle	s6, [sp, #-4]
     494:	bd000000 	stclt	0, cr0, [r0, #-0]
     498:	b5000000 	strlt	r0, [r0, #-0]
     49c:	13000000 	movwne	r0, #0
     4a0:	00008168 	andeq	r8, r0, r8, ror #2
     4a4:	00000004 	andeq	r0, r0, r4
     4a8:	00000248 	andeq	r0, r0, r8, asr #4
     4ac:	00024414 	andeq	r4, r2, r4, lsl r4
     4b0:	023d0100 	eorseq	r0, sp, #0
     4b4:	000001b1 			; <UNDEFINED> instruction: 0x000001b1
     4b8:	81a01500 	lslhi	r1, r0, #10
     4bc:	02c90000 	sbceq	r0, r9, #0, 0
     4c0:	026c0000 	rsbeq	r0, ip, #0, 0
     4c4:	08160000 	ldmdaeq	r6, {}	; <UNPREDICTABLE>
     4c8:	04934290 	ldreq	r4, [r3], #656	; 0x290
     4cc:	04934390 	ldreq	r4, [r3], #912	; 0x390
     4d0:	0825f40b 	stmdaeq	r5!, {r0, r1, r3, sl, ip, sp, lr, pc}
	...
     4dc:	81c01500 	bichi	r1, r0, r0, lsl #10
     4e0:	02d60000 	sbcseq	r0, r6, #0, 0
     4e4:	02800000 	addeq	r0, r0, #0, 0
     4e8:	01160000 	tsteq	r6, r0
     4ec:	007d0250 	rsbseq	r0, sp, r0, asr r2
     4f0:	81ec1500 	mvnhi	r1, r0, lsl #10
     4f4:	02e30000 	rsceq	r0, r3, #0, 0
     4f8:	02930000 	addseq	r0, r3, #0, 0
     4fc:	01160000 	tsteq	r6, r0
     500:	00310150 	eorseq	r0, r1, r0, asr r1
     504:	0081fc17 	addeq	pc, r1, r7, lsl ip	; <UNPREDICTABLE>
     508:	0002c900 	andeq	ip, r2, r0, lsl #18
     50c:	82101500 	andshi	r1, r0, #0, 10
     510:	02e30000 	rsceq	r0, r3, #0, 0
     514:	02af0000 	adceq	r0, pc, #0, 0
     518:	01160000 	tsteq	r6, r0
     51c:	00310150 	eorseq	r0, r1, r0, asr r1
     520:	00822417 	addeq	r2, r2, r7, lsl r4
     524:	0002c900 	andeq	ip, r2, r0, lsl #18
     528:	25060000 	strcs	r0, [r6, #-0]
     52c:	c9000000 	stmdbgt	r0, {}	; <UNPREDICTABLE>
     530:	07000002 	streq	r0, [r0, -r2]
     534:	00000067 	andeq	r0, r0, r7, rrx
     538:	9e180001 	cdpls	0, 1, cr0, cr8, cr1, {0}
     53c:	9e000002 	cdpls	0, 0, cr0, cr0, cr2, {0}
     540:	05000002 	streq	r0, [r0, #-2]
     544:	18080147 	stmdane	r8, {r0, r1, r2, r6, r8}
     548:	00000272 	andeq	r0, r0, r2, ror r2
     54c:	00000272 	andeq	r0, r0, r2, ror r2
     550:	05014505 	streq	r4, [r1, #-1285]	; 0xfffffafb
     554:	00025918 	andeq	r5, r2, r8, lsl r9
     558:	00025900 	andeq	r5, r2, r0, lsl #18
     55c:	01460500 	cmpeq	r6, r0, lsl #10
     560:	02220008 	eoreq	r0, r2, #8, 0
     564:	00040000 	andeq	r0, r4, r0
     568:	00000273 	andeq	r0, r0, r3, ror r2
     56c:	006a0104 	rsbeq	r0, sl, r4, lsl #2
     570:	c20c0000 	andgt	r0, ip, #0, 0
     574:	f2000002 	vhadd.s8	d0, d0, d2
     578:	58000001 	stmdapl	r0, {r0}
     57c:	a8000082 	stmdage	r0, {r1, r7}
     580:	99000000 	stmdbls	r0, {}	; <UNPREDICTABLE>
     584:	02000003 	andeq	r0, r0, #3, 0
     588:	026b0408 	rsbeq	r0, fp, #8, 8	; 0x8000000
     58c:	2c030000 	stccs	0, cr0, [r3], {-0}
     590:	08000001 	stmdaeq	r0, {r0}
     594:	52143102 	andspl	r3, r4, #-2147483648	; 0x80000000
     598:	04000000 	streq	r0, [r0], #-0
     59c:	00000000 	andeq	r0, r0, r0
     5a0:	57103202 	ldrpl	r3, [r0, -r2, lsl #4]
     5a4:	04000000 	streq	r0, [r0], #-0
     5a8:	00000005 	andeq	r0, r0, r5
     5ac:	250a3302 	strcs	r3, [sl, #-770]	; 0xfffffcfe
     5b0:	00000000 	andeq	r0, r0, r0
     5b4:	00002c05 	andeq	r2, r0, r5, lsl #24
     5b8:	006e0600 	rsbeq	r0, lr, r0, lsl #12
     5bc:	00670000 	rsbeq	r0, r7, r0
     5c0:	67070000 	strvs	r0, [r7, -r0]
     5c4:	07000000 	streq	r0, [r0, -r0]
     5c8:	07040200 	streq	r0, [r4, -r0, lsl #4]
     5cc:	00000151 	andeq	r0, r0, r1, asr r1
     5d0:	2f080102 	svccs	0x00080102
     5d4:	05000000 	streq	r0, [r0, #-0]
     5d8:	00000025 	andeq	r0, r0, r5, lsr #32
     5dc:	00004608 	andeq	r4, r0, r8, lsl #12
     5e0:	03340200 	teqeq	r4, #0, 4
     5e4:	00000052 	andeq	r0, r0, r2, asr r0
     5e8:	00001f03 	andeq	r1, r0, r3, lsl #30
     5ec:	36020400 	strcc	r0, [r2], -r0, lsl #8
     5f0:	0000ac14 	andeq	sl, r0, r4, lsl ip
     5f4:	00000400 	andeq	r0, r0, r0, lsl #8
     5f8:	37020000 	strcc	r0, [r2, -r0]
     5fc:	0000b110 	andeq	fp, r0, r0, lsl r1
     600:	000a0400 	andeq	r0, sl, r0, lsl #8
     604:	38020000 	stmdacc	r2, {}	; <UNPREDICTABLE>
     608:	0000c109 	andeq	ip, r0, r9, lsl #2
     60c:	86050000 	strhi	r0, [r5], -r0
     610:	06000000 	streq	r0, [r0], -r0
     614:	0000006e 	andeq	r0, r0, lr, rrx
     618:	000000c1 	andeq	r0, r0, r1, asr #1
     61c:	00006707 	andeq	r6, r0, r7, lsl #14
     620:	02000300 	andeq	r0, r0, #0, 6
     624:	06b90404 	ldrteq	r0, [r9], r4, lsl #8
     628:	64080000 	strvs	r0, [r8], #-0
     62c:	02000000 	andeq	r0, r0, #0, 0
     630:	00ac0339 	adceq	r0, ip, r9, lsr r3
     634:	01020000 	mrseq	r0, (UNDEF: 2)
     638:	00003106 	andeq	r3, r0, r6, lsl #2
     63c:	05020200 	streq	r0, [r2, #-512]	; 0xfffffe00
     640:	000001df 	ldrdeq	r0, [r0], -pc	; <UNPREDICTABLE>
     644:	63050402 	movwvs	r0, #21506	; 0x5402
     648:	02000001 	andeq	r0, r0, #1, 0
     64c:	015e0508 	cmpeq	lr, r8, lsl #10
     650:	02020000 	andeq	r0, r2, #0, 0
     654:	00005107 	andeq	r5, r0, r7, lsl #2
     658:	07040200 	streq	r0, [r4, -r0, lsl #4]
     65c:	0000014c 	andeq	r0, r0, ip, asr #2
     660:	47070802 	strmi	r0, [r7, -r2, lsl #16]
     664:	09000001 	stmdbeq	r0, {r0}
     668:	6e690504 	cdpvs	5, 6, cr0, cr9, cr4, {0}
     66c:	08020074 	stmdaeq	r2, {r2, r4, r5, r6}
     670:	00026604 	andeq	r6, r2, r4, lsl #12
     674:	6e6f0a00 	vmulvs.f32	s1, s30, s0
     678:	3d010065 	stccc	0, cr0, [r1, #-404]	; 0xfffffe6c
     67c:	00007501 	andeq	r7, r0, r1, lsl #10
     680:	00000800 	andeq	r0, r0, r0, lsl #16
     684:	00000000 	andeq	r0, r0, r0
     688:	430a3ff0 	movwmi	r3, #45040	; 0xaff0
     68c:	3e010031 	mcrcc	0, 0, r0, cr1, cr1, {1}
     690:	00007501 	andeq	r7, r0, r1, lsl #10
     694:	554c0800 	strbpl	r0, [ip, #-2048]	; 0xfffff800
     698:	55555555 	ldrbpl	r5, [r5, #-1365]	; 0xfffffaab
     69c:	430a3fa5 	movwmi	r3, #44965	; 0xafa5
     6a0:	3f010032 	svccc	0x00010032
     6a4:	00007501 	andeq	r7, r0, r1, lsl #10
     6a8:	51770800 	cmnpl	r7, r0, lsl #16
     6ac:	c16c16c1 	cmngt	ip, r1, asr #13
     6b0:	430abf56 	movwmi	fp, #44886	; 0xaf56
     6b4:	40010033 	andmi	r0, r1, r3, lsr r0
     6b8:	00007501 	andeq	r7, r0, r1, lsl #10
     6bc:	15900800 	ldrne	r0, [r0, #2048]	; 0x800
     6c0:	01a019cb 	asreq	r1, fp, #19
     6c4:	430a3efa 	movwmi	r3, #44794	; 0xaefa
     6c8:	41010034 	tstmi	r1, r4, lsr r0
     6cc:	00007501 	andeq	r7, r0, r1, lsl #10
     6d0:	52ad0800 	adcpl	r0, sp, #0, 16
     6d4:	7e4f809c 	mcrvc	0, 2, r8, cr15, cr12, {4}
     6d8:	430abe92 	movwmi	fp, #44690	; 0xae92
     6dc:	42010035 	andmi	r0, r1, #53, 0	; 0x35
     6e0:	00007501 	andeq	r7, r0, r1, lsl #10
     6e4:	b1c40800 	biclt	r0, r4, r0, lsl #16
     6e8:	ee9ebdb4 	mrc	13, 4, fp, cr14, cr4, {5}
     6ec:	430a3e21 	movwmi	r3, #44577	; 0xae21
     6f0:	43010036 	movwmi	r0, #4150	; 0x1036
     6f4:	00007501 	andeq	r7, r0, r1, lsl #10
     6f8:	38d40800 	ldmcc	r4, {fp}^
     6fc:	fae9be88 	blx	ffa70124 <__bss_end__+0xffa6580c>
     700:	9e0bbda8 	cdpls	13, 0, cr11, cr11, cr8, {5}
     704:	01000002 	tsteq	r0, r2
     708:	00250146 	eoreq	r0, r5, r6, asr #2
     70c:	82580000 	subshi	r0, r8, #0, 0
     710:	00a80000 	adceq	r0, r8, r0
     714:	9c010000 	stcls	0, cr0, [r1], {-0}
     718:	0100780c 	tsteq	r0, ip, lsl #16
     71c:	00251546 	eoreq	r1, r5, r6, asr #10
     720:	01070000 	mrseq	r0, (UNDEF: 7)
     724:	01030000 	mrseq	r0, (UNDEF: 3)
     728:	790d0000 	stmdbvc	sp, {}	; <UNPREDICTABLE>
     72c:	1f460100 	svcne	0x00460100
     730:	00000025 	andeq	r0, r0, r5, lsr #32
     734:	93429008 	movtls	r9, #8200	; 0x2008
     738:	93439004 	movtls	r9, #12292	; 0x3004
     73c:	7a680e04 	bvc	1a03f54 <__bss_end__+0x19f963c>
     740:	09480100 	stmdbeq	r8, {r8}^
     744:	00000025 	andeq	r0, r0, r5, lsr #32
     748:	00000133 	andeq	r0, r0, r3, lsr r1
     74c:	00000131 	andeq	r0, r0, r1, lsr r1
     750:	01007a0e 	tsteq	r0, lr, lsl #20
     754:	00250c48 	eoreq	r0, r5, r8, asr #24
     758:	014f0000 	mrseq	r0, SPSR
     75c:	014d0000 	mrseq	r0, (UNDEF: 77)
     760:	720e0000 	andvc	r0, lr, #0, 0
     764:	0e480100 	dvfeqe	f0, f0, f0
     768:	00000025 	andeq	r0, r0, r5, lsr #32
     76c:	0000016b 	andeq	r0, r0, fp, ror #2
     770:	00000169 	andeq	r0, r0, r9, ror #2
     774:	0100770e 	tsteq	r0, lr, lsl #14
     778:	00251048 	eoreq	r1, r5, r8, asr #32
     77c:	018b0000 	orreq	r0, fp, r0
     780:	01850000 	orreq	r0, r5, r0
     784:	00000000 	andeq	r0, r0, r0
     788:	0000022d 	andeq	r0, r0, sp, lsr #4
     78c:	034f0004 	movteq	r0, #61444	; 0xf004
     790:	01040000 	mrseq	r0, (UNDEF: 4)
     794:	0000006a 	andeq	r0, r0, sl, rrx
     798:	0002ca0c 	andeq	ip, r2, ip, lsl #20
     79c:	0001f200 	andeq	pc, r1, r0, lsl #4
     7a0:	00830000 	addeq	r0, r3, r0
     7a4:	0000a800 	andeq	sl, r0, r0, lsl #16
     7a8:	00048900 	andeq	r8, r4, r0, lsl #18
     7ac:	04080200 	streq	r0, [r8], #-512	; 0xfffffe00
     7b0:	0000026b 	andeq	r0, r0, fp, ror #4
     7b4:	00012c03 	andeq	r2, r1, r3, lsl #24
     7b8:	31020800 	tstcc	r2, r0, lsl #16
     7bc:	00005214 	andeq	r5, r0, r4, lsl r2
     7c0:	00000400 	andeq	r0, r0, r0, lsl #8
     7c4:	32020000 	andcc	r0, r2, #0, 0
     7c8:	00005710 	andeq	r5, r0, r0, lsl r7
     7cc:	00050400 	andeq	r0, r5, r0, lsl #8
     7d0:	33020000 	movwcc	r0, #8192	; 0x2000
     7d4:	0000250a 	andeq	r2, r0, sl, lsl #10
     7d8:	2c050000 	stccs	0, cr0, [r5], {-0}
     7dc:	06000000 	streq	r0, [r0], -r0
     7e0:	0000006e 	andeq	r0, r0, lr, rrx
     7e4:	00000067 	andeq	r0, r0, r7, rrx
     7e8:	00006707 	andeq	r6, r0, r7, lsl #14
     7ec:	02000700 	andeq	r0, r0, #0, 14
     7f0:	01510704 	cmpeq	r1, r4, lsl #14
     7f4:	01020000 	mrseq	r0, (UNDEF: 2)
     7f8:	00002f08 	andeq	r2, r0, r8, lsl #30
     7fc:	00250500 	eoreq	r0, r5, r0, lsl #10
     800:	46080000 	strmi	r0, [r8], -r0
     804:	02000000 	andeq	r0, r0, #0, 0
     808:	00520334 	subseq	r0, r2, r4, lsr r3
     80c:	1f030000 	svcne	0x00030000
     810:	04000000 	streq	r0, [r0], #-0
     814:	ac143602 	ldcge	6, cr3, [r4], {2}
     818:	04000000 	streq	r0, [r0], #-0
     81c:	00000000 	andeq	r0, r0, r0
     820:	b1103702 	tstlt	r0, r2, lsl #14
     824:	04000000 	streq	r0, [r0], #-0
     828:	0000000a 	andeq	r0, r0, sl
     82c:	c1093802 	tstgt	r9, r2, lsl #16
     830:	00000000 	andeq	r0, r0, r0
     834:	00008605 	andeq	r8, r0, r5, lsl #12
     838:	006e0600 	rsbeq	r0, lr, r0, lsl #12
     83c:	00c10000 	sbceq	r0, r1, r0
     840:	67070000 	strvs	r0, [r7, -r0]
     844:	03000000 	movweq	r0, #0
     848:	04040200 	streq	r0, [r4], #-512	; 0xfffffe00
     84c:	000006b9 			; <UNDEFINED> instruction: 0x000006b9
     850:	00006408 	andeq	r6, r0, r8, lsl #8
     854:	03390200 	teqeq	r9, #0, 4
     858:	000000ac 	andeq	r0, r0, ip, lsr #1
     85c:	31060102 	tstcc	r6, r2, lsl #2
     860:	02000000 	andeq	r0, r0, #0, 0
     864:	01df0502 	bicseq	r0, pc, r2, lsl #10
     868:	04020000 	streq	r0, [r2], #-0
     86c:	00016305 	andeq	r6, r1, r5, lsl #6
     870:	05080200 	streq	r0, [r8, #-512]	; 0xfffffe00
     874:	0000015e 	andeq	r0, r0, lr, asr r1
     878:	51070202 	tstpl	r7, r2, lsl #4
     87c:	02000000 	andeq	r0, r0, #0, 0
     880:	014c0704 	cmpeq	ip, r4, lsl #14
     884:	08020000 	stmdaeq	r2, {}	; <UNPREDICTABLE>
     888:	00014707 	andeq	r4, r1, r7, lsl #14
     88c:	05040900 	streq	r0, [r4, #-2304]	; 0xfffff700
     890:	00746e69 	rsbseq	r6, r4, r9, ror #28
     894:	66040802 	strvs	r0, [r4], -r2, lsl #16
     898:	0a000002 	beq	8a8 <__code_start__-0x7758>
     89c:	000002d2 	ldrdeq	r0, [r0], -r2
     8a0:	75013401 	strvc	r3, [r1, #-1025]	; 0xfffffbff
     8a4:	08000000 	stmdaeq	r0, {}	; <UNPREDICTABLE>
     8a8:	00000000 	andeq	r0, r0, r0
     8ac:	3fe00000 	svccc	0x00e00000
     8b0:	0031530b 	eorseq	r5, r1, fp, lsl #6
     8b4:	75013501 	strvc	r3, [r1, #-1281]	; 0xfffffaff
     8b8:	08000000 	stmdaeq	r0, {}	; <UNPREDICTABLE>
     8bc:	55555549 	ldrbpl	r5, [r5, #-1353]	; 0xfffffab7
     8c0:	bfc55555 	svclt	0x00c55555
     8c4:	0032530b 	eorseq	r5, r2, fp, lsl #6
     8c8:	75013601 	strvc	r3, [r1, #-1537]	; 0xfffff9ff
     8cc:	08000000 	stmdaeq	r0, {}	; <UNPREDICTABLE>
     8d0:	1110f8a6 	tstne	r0, r6, lsr #17	; <UNPREDICTABLE>
     8d4:	3f811111 	svccc	0x00811111
     8d8:	0033530b 	eorseq	r5, r3, fp, lsl #6
     8dc:	75013701 	strvc	r3, [r1, #-1793]	; 0xfffff8ff
     8e0:	08000000 	stmdaeq	r0, {}	; <UNPREDICTABLE>
     8e4:	19c161d5 	stmibne	r1, {r0, r2, r4, r6, r7, r8, sp, lr}^
     8e8:	bf2a01a0 	svclt	0x002a01a0
     8ec:	0034530b 	eorseq	r5, r4, fp, lsl #6
     8f0:	75013801 	strvc	r3, [r1, #-2049]	; 0xfffff7ff
     8f4:	08000000 	stmdaeq	r0, {}	; <UNPREDICTABLE>
     8f8:	57b1fe7d 			; <UNDEFINED> instruction: 0x57b1fe7d
     8fc:	3ec71de3 	cdpcc	13, 12, cr1, cr7, cr3, {7}
     900:	0035530b 	eorseq	r5, r5, fp, lsl #6
     904:	75013901 	strvc	r3, [r1, #-2305]	; 0xfffff6ff
     908:	08000000 	stmdaeq	r0, {}	; <UNPREDICTABLE>
     90c:	8a2b9ceb 	bhi	ae7cc0 <__bss_end__+0xadd3a8>
     910:	be5ae5e6 	cdplt	5, 5, cr14, cr10, cr6, {7}
     914:	0036530b 	eorseq	r5, r6, fp, lsl #6
     918:	75013a01 	strvc	r3, [r1, #-2561]	; 0xfffff5ff
     91c:	08000000 	stmdaeq	r0, {}	; <UNPREDICTABLE>
     920:	5acfd57c 	bpl	ff3f5f18 <__bss_end__+0xff3eb600>
     924:	3de5d93a 			; <UNDEFINED> instruction: 0x3de5d93a
     928:	0002590c 	andeq	r5, r2, ip, lsl #18
     92c:	013d0100 	teqeq	sp, r0, lsl #2
     930:	00000025 	andeq	r0, r0, r5, lsr #32
     934:	00008300 	andeq	r8, r0, r0, lsl #6
     938:	000000a8 	andeq	r0, r0, r8, lsr #1
     93c:	780d9c01 	stmdavc	sp, {r0, sl, fp, ip, pc}
     940:	153d0100 	ldrne	r0, [sp, #-256]!	; 0xffffff00
     944:	00000025 	andeq	r0, r0, r5, lsr #32
     948:	000001d1 	ldrdeq	r0, [r0], -r1
     94c:	000001c9 	andeq	r0, r0, r9, asr #3
     950:	0100790d 	tsteq	r0, sp, lsl #18
     954:	00251f3d 	eoreq	r1, r5, sp, lsr pc
     958:	02210000 	eoreq	r0, r1, #0, 0
     95c:	021d0000 	andseq	r0, sp, #0, 0
     960:	690e0000 	stmdbvs	lr, {}	; <UNPREDICTABLE>
     964:	3d010079 	stccc	0, cr0, [r1, #-484]	; 0xfffffe1c
     968:	00010526 	andeq	r0, r1, r6, lsr #10
     96c:	0f500100 	svceq	0x00500100
     970:	3f01007a 	svccc	0x0001007a
     974:	00002509 	andeq	r2, r0, r9, lsl #10
     978:	00025100 	andeq	r5, r2, r0, lsl #2
     97c:	00024b00 	andeq	r4, r2, r0, lsl #22
     980:	00720f00 	rsbseq	r0, r2, r0, lsl #30
     984:	250b3f01 	strcs	r3, [fp, #-3841]	; 0xfffff0ff
     988:	9d000000 	stcls	0, cr0, [r0, #-0]
     98c:	93000002 	movwls	r0, #2
     990:	0f000002 	svceq	0x00000002
     994:	3f010076 	svccc	0x00010076
     998:	0000250d 	andeq	r2, r0, sp, lsl #10
     99c:	00045100 	andeq	r5, r4, r0, lsl #2
     9a0:	00044f00 	andeq	r4, r4, r0, lsl #30
     9a4:	00770f00 	rsbseq	r0, r7, r0, lsl #30
     9a8:	250f3f01 	strcs	r3, [pc, #-3841]	; fffffaaf <__bss_end__+0xffff5197>
     9ac:	73000000 	movwvc	r0, #0
     9b0:	6b000004 	blvs	9c8 <__code_start__-0x7638>
     9b4:	00000004 	andeq	r0, r0, r4
     9b8:	00049f00 	andeq	r9, r4, r0, lsl #30
     9bc:	3c000400 	cfstrscc	mvf0, [r0], {-0}
     9c0:	04000004 	streq	r0, [r0], #-4
     9c4:	00006a01 	andeq	r6, r0, r1, lsl #20
     9c8:	031a0c00 	tsteq	sl, #0, 24
     9cc:	01f20000 	mvnseq	r0, r0
     9d0:	83a80000 			; <UNDEFINED> instruction: 0x83a80000
     9d4:	04380000 	ldrteq	r0, [r8], #-0
     9d8:	058f0000 	streq	r0, [pc]	; 9e0 <__code_start__-0x7620>
     9dc:	08020000 	stmdaeq	r2, {}	; <UNPREDICTABLE>
     9e0:	00026b04 	andeq	r6, r2, r4, lsl #22
     9e4:	012c0300 			; <UNDEFINED> instruction: 0x012c0300
     9e8:	02080000 	andeq	r0, r8, #0, 0
     9ec:	00521431 	subseq	r1, r2, r1, lsr r4
     9f0:	00040000 	andeq	r0, r4, r0
     9f4:	02000000 	andeq	r0, r0, #0, 0
     9f8:	00571032 	subseq	r1, r7, r2, lsr r0
     9fc:	05040000 	streq	r0, [r4, #-0]
     a00:	02000000 	andeq	r0, r0, #0, 0
     a04:	00250a33 	eoreq	r0, r5, r3, lsr sl
     a08:	05000000 	streq	r0, [r0, #-0]
     a0c:	0000002c 	andeq	r0, r0, ip, lsr #32
     a10:	00006e06 	andeq	r6, r0, r6, lsl #28
     a14:	00006700 	andeq	r6, r0, r0, lsl #14
     a18:	00670700 	rsbeq	r0, r7, r0, lsl #14
     a1c:	00070000 	andeq	r0, r7, r0
     a20:	51070402 	tstpl	r7, r2, lsl #8
     a24:	02000001 	andeq	r0, r0, #1, 0
     a28:	002f0801 	eoreq	r0, pc, r1, lsl #16
     a2c:	25050000 	strcs	r0, [r5, #-0]
     a30:	08000000 	stmdaeq	r0, {}	; <UNPREDICTABLE>
     a34:	00000046 	andeq	r0, r0, r6, asr #32
     a38:	52033402 	andpl	r3, r3, #33554432	; 0x2000000
     a3c:	03000000 	movweq	r0, #0
     a40:	0000001f 	andeq	r0, r0, pc, lsl r0
     a44:	14360204 	ldrtne	r0, [r6], #-516	; 0xfffffdfc
     a48:	000000ac 	andeq	r0, r0, ip, lsr #1
     a4c:	00000004 	andeq	r0, r0, r4
     a50:	10370200 	eorsne	r0, r7, r0, lsl #4
     a54:	000000b1 	strheq	r0, [r0], -r1
     a58:	00000a04 	andeq	r0, r0, r4, lsl #20
     a5c:	09380200 	ldmdbeq	r8!, {r9}
     a60:	000000c1 	andeq	r0, r0, r1, asr #1
     a64:	00860500 	addeq	r0, r6, r0, lsl #10
     a68:	6e060000 	cdpvs	0, 0, cr0, cr6, cr0, {0}
     a6c:	c1000000 	mrsgt	r0, (UNDEF: 0)
     a70:	07000000 	streq	r0, [r0, -r0]
     a74:	00000067 	andeq	r0, r0, r7, rrx
     a78:	04020003 	streq	r0, [r2], #-3
     a7c:	0006b904 	andeq	fp, r6, r4, lsl #18
     a80:	00640800 	rsbeq	r0, r4, r0, lsl #16
     a84:	39020000 	stmdbcc	r2, {}	; <UNPREDICTABLE>
     a88:	0000ac03 	andeq	sl, r0, r3, lsl #24
     a8c:	06010200 	streq	r0, [r1], -r0, lsl #4
     a90:	00000031 	andeq	r0, r0, r1, lsr r0
     a94:	df050202 	svcle	0x00050202
     a98:	09000001 	stmdbeq	r0, {r0}
     a9c:	0000028f 	andeq	r0, r0, pc, lsl #5
     aa0:	ee182803 	cdp	8, 1, cr2, cr8, cr3, {0}
     aa4:	02000000 	andeq	r0, r0, #0, 0
     aa8:	01630504 	cmneq	r3, r4, lsl #10
     aac:	08020000 	stmdaeq	r2, {}	; <UNPREDICTABLE>
     ab0:	00015e05 	andeq	r5, r1, r5, lsl #28
     ab4:	07020200 	streq	r0, [r2, -r0, lsl #4]
     ab8:	00000051 	andeq	r0, r0, r1, asr r0
     abc:	0001e909 	andeq	lr, r1, r9, lsl #18
     ac0:	19340300 	ldmdbne	r4!, {r8, r9}
     ac4:	0000010f 	andeq	r0, r0, pc, lsl #2
     ac8:	4c070402 	cfstrsmi	mvf0, [r7], {2}
     acc:	09000001 	stmdbeq	r0, {r0}
     ad0:	0000023b 	andeq	r0, r0, fp, lsr r2
     ad4:	22193703 	andscs	r3, r9, #786432	; 0xc0000
     ad8:	02000001 	andeq	r0, r0, #1, 0
     adc:	01470708 	cmpeq	r7, r8, lsl #14
     ae0:	040a0000 	streq	r0, [sl], #-0
     ae4:	746e6905 	strbtvc	r6, [lr], #-2309	; 0xfffff6fb
     ae8:	028d0900 	addeq	r0, sp, #0, 18
     aec:	09040000 	stmdbeq	r4, {}	; <UNPREDICTABLE>
     af0:	0001031f 	andeq	r0, r1, pc, lsl r3
     af4:	02490900 	subeq	r0, r9, #0, 18
     af8:	0a040000 	beq	100b00 <__bss_end__+0xf61e8>
     afc:	0001161f 	andeq	r1, r1, pc, lsl r6
     b00:	04080200 	streq	r0, [r8], #-512	; 0xfffffe00
     b04:	00000266 	andeq	r0, r0, r6, ror #4
     b08:	4405080b 	strmi	r0, [r5], #-2059	; 0xfffff7f5
     b0c:	00017303 	andeq	r7, r1, r3, lsl #6
     b10:	736c0c00 	cmnvc	ip, #0, 24
     b14:	46050077 			; <UNDEFINED> instruction: 0x46050077
     b18:	0001300f 	andeq	r3, r1, pc
     b1c:	6d0c0000 	stcvs	0, cr0, [ip, #-0]
     b20:	05007773 	streq	r7, [r0, #-1907]	; 0xfffff88d
     b24:	01300f47 	teqeq	r0, r7, asr #30
     b28:	00040000 	andeq	r0, r4, r0
     b2c:	4905080b 	stmdbmi	r5, {r0, r1, r3, fp}
     b30:	00018803 	andeq	r8, r1, r3, lsl #16
     b34:	00770c00 	rsbseq	r0, r7, r0, lsl #24
     b38:	3c0f4b05 			; <UNDEFINED> instruction: 0x3c0f4b05
     b3c:	00000001 	andeq	r0, r0, r1
     b40:	05080d00 	streq	r0, [r8, #-3328]	; 0xfffff300
     b44:	01b60941 			; <UNDEFINED> instruction: 0x01b60941
     b48:	53040000 	movwpl	r0, #16384	; 0x4000
     b4c:	05000002 	streq	r0, [r0, #-2]
     b50:	00250a43 	eoreq	r0, r5, r3, asr #20
     b54:	98040000 	stmdals	r4, {}	; <UNPREDICTABLE>
     b58:	05000002 	streq	r0, [r0, #-2]
     b5c:	014f0548 	cmpeq	pc, r8, asr #10
     b60:	97040000 	strls	r0, [r4, -r0]
     b64:	05000002 	streq	r0, [r0, #-2]
     b68:	0173054c 	cmneq	r3, ip, asr #10
     b6c:	09000000 	stmdbeq	r0, {}	; <UNPREDICTABLE>
     b70:	000002ab 	andeq	r0, r0, fp, lsr #5
     b74:	88034d05 	stmdahi	r3, {r0, r2, r8, sl, fp, lr}
     b78:	0e000001 	cdpeq	0, 0, cr0, cr0, cr1, {0}
     b7c:	00000347 	andeq	r0, r0, r7, asr #6
     b80:	75012901 	strvc	r2, [r1, #-2305]	; 0xfffff6ff
     b84:	08000000 	stmdaeq	r0, {}	; <UNPREDICTABLE>
	...
     b90:	0003270e 	andeq	r2, r3, lr, lsl #14
     b94:	012a0100 			; <UNDEFINED> instruction: 0x012a0100
     b98:	00000075 	andeq	r0, r0, r5, ror r0
     b9c:	00000008 	andeq	r0, r0, r8
     ba0:	70000000 	andvc	r0, r0, r0
     ba4:	03120e41 	tsteq	r2, #1040	; 0x410
     ba8:	2b010000 	blcs	40bb0 <__bss_end__+0x36298>
     bac:	00007501 	andeq	r7, r0, r1, lsl #10
     bb0:	c8830800 	stmgt	r3, {fp}
     bb4:	5f306dc9 	svcpl	0x00306dc9
     bb8:	2d0e3fe4 	stccs	15, cr3, [lr, #-912]	; 0xfffffc70
     bbc:	01000003 	tsteq	r0, r3
     bc0:	0075012c 	rsbseq	r0, r5, ip, lsr #2
     bc4:	00080000 	andeq	r0, r8, r0
     bc8:	fb544000 	blx	1510bd2 <__bss_end__+0x15062ba>
     bcc:	0e3ff921 	vaddeq.f16	s30, s30, s3	; <UNPREDICTABLE>
     bd0:	000002d7 	ldrdeq	r0, [r0], -r7
     bd4:	75012d01 	strvc	r2, [r1, #-3329]	; 0xfffff2ff
     bd8:	08000000 	stmdaeq	r0, {}	; <UNPREDICTABLE>
     bdc:	1a626331 	bne	18998a8 <__bss_end__+0x188ef90>
     be0:	3dd0b461 	cfldrdcc	mvd11, [r0, #388]	; 0x184
     be4:	0003340e 	andeq	r3, r3, lr, lsl #8
     be8:	012e0100 			; <UNDEFINED> instruction: 0x012e0100
     bec:	00000075 	andeq	r0, r0, r5, ror r0
     bf0:	60000008 	andvs	r0, r0, r8
     bf4:	d0b4611a 	adcsle	r6, r4, sl, lsl r1
     bf8:	02df0e3d 	sbcseq	r0, pc, #976	; 0x3d0
     bfc:	2f010000 	svccs	0x00010000
     c00:	00007501 	andeq	r7, r0, r1, lsl #10
     c04:	70730800 	rsbsvc	r0, r3, r0, lsl #16
     c08:	198a2e03 	stmibne	sl, {r0, r1, r9, sl, fp, sp}
     c0c:	3b0e3ba3 	blcc	38faa0 <__bss_end__+0x385188>
     c10:	01000003 	tsteq	r0, r3
     c14:	00750130 	rsbseq	r0, r5, r0, lsr r1
     c18:	00080000 	andeq	r0, r8, r0
     c1c:	8a2e0000 	bhi	b80c24 <__bss_end__+0xb7630c>
     c20:	0e3ba319 	mrceq	3, 1, sl, cr11, cr9, {0}
     c24:	0000030a 	andeq	r0, r0, sl, lsl #6
     c28:	75013101 	strvc	r3, [r1, #-257]	; 0xfffffeff
     c2c:	08000000 	stmdaeq	r0, {}	; <UNPREDICTABLE>
     c30:	252049c1 	strcs	r4, [r0, #-2497]!	; 0xfffff63f
     c34:	397b839a 	ldmdbcc	fp!, {r1, r3, r4, r7, r8, r9, pc}^
     c38:	0002720f 	andeq	r7, r2, pc, lsl #4
     c3c:	01340100 	teqeq	r4, r0, lsl #2
     c40:	00000129 	andeq	r0, r0, r9, lsr #2
     c44:	000083a8 	andeq	r8, r0, r8, lsr #7
     c48:	00000438 	andeq	r0, r0, r8, lsr r4
     c4c:	046f9c01 	strbteq	r9, [pc], #-3073	; c54 <__code_start__-0x73ac>
     c50:	78100000 	ldmdavc	r0, {}	; <UNPREDICTABLE>
     c54:	1b340100 	blne	d0105c <__bss_end__+0xcf6744>
     c58:	00000025 	andeq	r0, r0, r5, lsr #32
     c5c:	00000507 	andeq	r0, r0, r7, lsl #10
     c60:	000004db 	ldrdeq	r0, [r0], -fp
     c64:	01007910 	tsteq	r0, r0, lsl r9
     c68:	046f2634 	strbteq	r2, [pc], #-1588	; c70 <__code_start__-0x7390>
     c6c:	06b10000 	ldrteq	r0, [r1], r0
     c70:	06850000 	streq	r0, [r5], r0
     c74:	7a110000 	bvc	440c7c <__bss_end__+0x436364>
     c78:	09360100 	ldmdbeq	r6!, {r8}
     c7c:	00000025 	andeq	r0, r0, r5, lsr #32
     c80:	000007d3 	ldrdeq	r0, [r0], -r3
     c84:	000007ab 	andeq	r0, r0, fp, lsr #15
     c88:	01007711 	tsteq	r0, r1, lsl r7
     c8c:	00250b36 	eoreq	r0, r5, r6, lsr fp
     c90:	099b0000 	ldmibeq	fp, {}	; <UNPREDICTABLE>
     c94:	098b0000 	stmibeq	fp, {}	; <UNPREDICTABLE>
     c98:	74110000 	ldrvc	r0, [r1], #-0
     c9c:	0d360100 	ldfeqs	f0, [r6, #-0]
     ca0:	00000025 	andeq	r0, r0, r5, lsr #32
     ca4:	00000a4b 	andeq	r0, r0, fp, asr #20
     ca8:	00000a43 	andeq	r0, r0, r3, asr #20
     cac:	01007211 	tsteq	r0, r1, lsl r2
     cb0:	00250f36 	eoreq	r0, r5, r6, lsr pc
     cb4:	0ab10000 	beq	fec40cbc <__bss_end__+0xfec363a4>
     cb8:	0aa90000 	beq	fea40cc0 <__bss_end__+0xfea363a8>
     cbc:	66110000 	ldrvs	r0, [r1], -r0
     cc0:	3601006e 	strcc	r0, [r1], -lr, rrx
     cc4:	00002511 	andeq	r2, r0, r1, lsl r5
     cc8:	000b0300 	andeq	r0, fp, r0, lsl #6
     ccc:	000b0100 	andeq	r0, fp, r0, lsl #2
     cd0:	78741200 	ldmdavc	r4!, {r9, ip}^
     cd4:	09370100 	ldmdbeq	r7!, {r8}
     cd8:	00000475 	andeq	r0, r0, r5, ror r4
     cdc:	12589102 	subsne	r9, r8, #-2147483648	; 0x80000000
     ce0:	01007974 	tsteq	r0, r4, ror r9
     ce4:	04850f37 	streq	r0, [r5], #3895	; 0xf37
     ce8:	91020000 	mrsls	r0, (UNDEF: 2)
     cec:	30651148 	rsbcc	r1, r5, r8, asr #2
     cf0:	0a380100 	beq	e010f8 <__bss_end__+0xdf67e0>
     cf4:	000000e2 	andeq	r0, r0, r2, ror #1
     cf8:	00000b23 	andeq	r0, r0, r3, lsr #22
     cfc:	00000b1d 	andeq	r0, r0, sp, lsl fp
     d00:	01006911 	tsteq	r0, r1, lsl r9
     d04:	00e20d38 	rsceq	r0, r2, r8, lsr sp
     d08:	0b640000 	bleq	1900d10 <__bss_end__+0x18f63f8>
     d0c:	0b5a0000 	bleq	1680d14 <__bss_end__+0x16763fc>
     d10:	6a110000 	bvs	440d18 <__bss_end__+0x436400>
     d14:	0f380100 	svceq	0x00380100
     d18:	000000e2 	andeq	r0, r0, r2, ror #1
     d1c:	00000bb3 			; <UNDEFINED> instruction: 0x00000bb3
     d20:	00000bb1 			; <UNDEFINED> instruction: 0x00000bb1
     d24:	00786e11 	rsbseq	r6, r8, r1, lsl lr
     d28:	e2113801 	ands	r3, r1, #65536	; 0x10000
     d2c:	cc000000 	stcgt	0, cr0, [r0], {-0}
     d30:	c600000b 	strgt	r0, [r0], -fp
     d34:	1100000b 	tstne	r0, fp
     d38:	3801006e 	stmdacc	r1, {r1, r2, r3, r5, r6}
     d3c:	0000e214 	andeq	lr, r0, r4, lsl r2
     d40:	000bfc00 	andeq	pc, fp, r0, lsl #24
     d44:	000bf600 	andeq	pc, fp, r0, lsl #12
     d48:	78691100 	stmdavc	r9!, {r8, ip}^
     d4c:	16380100 	ldrtne	r0, [r8], -r0, lsl #2
     d50:	000000e2 	andeq	r0, r0, r2, ror #1
     d54:	00000c38 	andeq	r0, r0, r8, lsr ip
     d58:	00000c28 	andeq	r0, r0, r8, lsr #24
     d5c:	00786811 	rsbseq	r6, r8, r1, lsl r8
     d60:	e2193801 	ands	r3, r9, #65536	; 0x10000
     d64:	ba000000 	blt	d6c <__code_start__-0x7294>
     d68:	b800000c 	stmdalt	r0, {r2, r3}
     d6c:	1300000c 	movwne	r0, #12
     d70:	00776f6c 	rsbseq	r6, r7, ip, ror #30
     d74:	300c3901 	andcc	r3, ip, r1, lsl #18
     d78:	14000001 	strne	r0, [r0], #-1
     d7c:	000002ec 	andeq	r0, r0, ip, ror #5
     d80:	b8017e01 	stmdalt	r1, {r0, r9, sl, fp, ip, sp, lr}
     d84:	15000085 	strne	r0, [r0, #-133]	; 0xffffff7b
     d88:	000083b4 			; <UNDEFINED> instruction: 0x000083b4
     d8c:	00000004 	andeq	r0, r0, r4
     d90:	000003e8 	andeq	r0, r0, r8, ror #7
     d94:	00024416 	andeq	r4, r2, r6, lsl r4
     d98:	023b0100 	eorseq	r0, fp, #0
     d9c:	000001b6 			; <UNDEFINED> instruction: 0x000001b6
     da0:	00001700 	andeq	r1, r0, r0, lsl #14
     da4:	041e0000 	ldreq	r0, [lr], #-0
     da8:	e7160000 	ldr	r0, [r6, -r0]
     dac:	01000002 	tsteq	r0, r2
     db0:	0130148a 	teqeq	r0, sl, lsl #9
     db4:	0f180000 	svceq	0x00180000
     db8:	16000004 	strne	r0, [r0], -r4
     dbc:	00000244 	andeq	r0, r0, r4, asr #4
     dc0:	b6038d01 	strlt	r8, [r3], -r1, lsl #26
     dc4:	00000001 	andeq	r0, r0, r1
     dc8:	02441619 	subeq	r1, r4, #26214400	; 0x1900000
     dcc:	95010000 	strls	r0, [r1, #-0]
     dd0:	0001b607 	andeq	fp, r1, r7, lsl #12
     dd4:	18000000 	stmdane	r0, {}	; <UNPREDICTABLE>
     dd8:	00000430 	andeq	r0, r0, r0, lsr r4
     ddc:	00030516 	andeq	r0, r3, r6, lsl r5
     de0:	02aa0100 	adceq	r0, sl, #0
     de4:	000001b6 			; <UNDEFINED> instruction: 0x000001b6
     de8:	85a41500 	strhi	r1, [r4, #1280]!	; 0x500
     dec:	000c0000 	andeq	r0, ip, r0
     df0:	04520000 	ldrbeq	r0, [r2], #-0
     df4:	421a0000 	andsmi	r0, sl, #0, 0
     df8:	01000003 	tsteq	r0, r3
     dfc:	01b602ac 			; <UNDEFINED> instruction: 0x01b602ac
     e00:	0cd10000 	ldcleq	0, cr0, [r1], {0}
     e04:	0ccd0000 	stcleq	0, cr0, [sp], {0}
     e08:	1b000000 	blne	e10 <__code_start__-0x71f0>
     e0c:	00008708 	andeq	r8, r0, r8, lsl #14
     e10:	00000495 	muleq	r0, r5, r4
     e14:	0250011c 	subseq	r0, r0, #7
     e18:	011c5091 			; <UNDEFINED> instruction: 0x011c5091
     e1c:	40910251 	addsmi	r0, r1, r1, asr r2
     e20:	007d021c 	rsbseq	r0, sp, ip, lsl r2
     e24:	00003101 	andeq	r3, r0, r1, lsl #2
     e28:	0025041d 	eoreq	r0, r5, sp, lsl r4
     e2c:	25060000 	strcs	r0, [r6, #-0]
     e30:	85000000 	strhi	r0, [r0, #-0]
     e34:	07000004 	streq	r0, [r0, -r4]
     e38:	00000067 	andeq	r0, r0, r7, rrx
     e3c:	25060002 	strcs	r0, [r6, #-2]
     e40:	95000000 	strls	r0, [r0, #-0]
     e44:	07000004 	streq	r0, [r0, -r4]
     e48:	00000067 	andeq	r0, r0, r7, rrx
     e4c:	f31e0001 	vhadd.u16	d0, d14, d1
     e50:	f3000002 	vhadd.u8	d0, d0, d2
     e54:	05000002 	streq	r0, [r0, #-2]
     e58:	0005013f 	andeq	r0, r5, pc, lsr r1
     e5c:	000004ce 	andeq	r0, r0, lr, asr #9
     e60:	05ec0004 	strbeq	r0, [ip, #4]!
     e64:	01040000 	mrseq	r0, (UNDEF: 4)
     e68:	0000006a 	andeq	r0, r0, sl, rrx
     e6c:	0003720c 	andeq	r7, r3, ip, lsl #4
     e70:	0001f200 	andeq	pc, r1, r0, lsl #4
     e74:	0087e000 	addeq	lr, r7, r0
     e78:	00075c00 	andeq	r5, r7, r0, lsl #24
     e7c:	000ac400 	andeq	ip, sl, r0, lsl #8
     e80:	04080200 	streq	r0, [r8], #-512	; 0xfffffe00
     e84:	0000026b 	andeq	r0, r0, fp, ror #4
     e88:	00012c03 	andeq	r2, r1, r3, lsl #24
     e8c:	31020800 	tstcc	r2, r0, lsl #16
     e90:	00005214 	andeq	r5, r0, r4, lsl r2
     e94:	00000400 	andeq	r0, r0, r0, lsl #8
     e98:	32020000 	andcc	r0, r2, #0, 0
     e9c:	00005710 	andeq	r5, r0, r0, lsl r7
     ea0:	00050400 	andeq	r0, r5, r0, lsl #8
     ea4:	33020000 	movwcc	r0, #8192	; 0x2000
     ea8:	0000250a 	andeq	r2, r0, sl, lsl #10
     eac:	2c050000 	stccs	0, cr0, [r5], {-0}
     eb0:	06000000 	streq	r0, [r0], -r0
     eb4:	0000006e 	andeq	r0, r0, lr, rrx
     eb8:	00000067 	andeq	r0, r0, r7, rrx
     ebc:	00006707 	andeq	r6, r0, r7, lsl #14
     ec0:	02000700 	andeq	r0, r0, #0, 14
     ec4:	01510704 	cmpeq	r1, r4, lsl #14
     ec8:	01020000 	mrseq	r0, (UNDEF: 2)
     ecc:	00002f08 	andeq	r2, r0, r8, lsl #30
     ed0:	00250500 	eoreq	r0, r5, r0, lsl #10
     ed4:	46080000 	strmi	r0, [r8], -r0
     ed8:	02000000 	andeq	r0, r0, #0, 0
     edc:	00520334 	subseq	r0, r2, r4, lsr r3
     ee0:	1f030000 	svcne	0x00030000
     ee4:	04000000 	streq	r0, [r0], #-0
     ee8:	ac143602 	ldcge	6, cr3, [r4], {2}
     eec:	04000000 	streq	r0, [r0], #-0
     ef0:	00000000 	andeq	r0, r0, r0
     ef4:	b1103702 	tstlt	r0, r2, lsl #14
     ef8:	04000000 	streq	r0, [r0], #-0
     efc:	0000000a 	andeq	r0, r0, sl
     f00:	c1093802 	tstgt	r9, r2, lsl #16
     f04:	00000000 	andeq	r0, r0, r0
     f08:	00008605 	andeq	r8, r0, r5, lsl #12
     f0c:	006e0600 	rsbeq	r0, lr, r0, lsl #12
     f10:	00c10000 	sbceq	r0, r1, r0
     f14:	67070000 	strvs	r0, [r7, -r0]
     f18:	03000000 	movweq	r0, #0
     f1c:	04040200 	streq	r0, [r4], #-512	; 0xfffffe00
     f20:	000006b9 			; <UNDEFINED> instruction: 0x000006b9
     f24:	00006408 	andeq	r6, r0, r8, lsl #8
     f28:	03390200 	teqeq	r9, #0, 4
     f2c:	000000ac 	andeq	r0, r0, ip, lsr #1
     f30:	31060102 	tstcc	r6, r2, lsl #2
     f34:	02000000 	andeq	r0, r0, #0, 0
     f38:	01df0502 	bicseq	r0, pc, r2, lsl #10
     f3c:	8f090000 	svchi	0x00090000
     f40:	03000002 	movweq	r0, #2
     f44:	00f31828 	rscseq	r1, r3, r8, lsr #16
     f48:	e2050000 	and	r0, r5, #0, 0
     f4c:	02000000 	andeq	r0, r0, #0, 0
     f50:	01630504 	cmneq	r3, r4, lsl #10
     f54:	08020000 	stmdaeq	r2, {}	; <UNPREDICTABLE>
     f58:	00015e05 	andeq	r5, r1, r5, lsl #28
     f5c:	07020200 	streq	r0, [r2, -r0, lsl #4]
     f60:	00000051 	andeq	r0, r0, r1, asr r0
     f64:	4c070402 	cfstrsmi	mvf0, [r7], {2}
     f68:	02000001 	andeq	r0, r0, #1, 0
     f6c:	01470708 	cmpeq	r7, r8, lsl #14
     f70:	040a0000 	streq	r0, [sl], #-0
     f74:	746e6905 	strbtvc	r6, [lr], #-2309	; 0xfffff6fb
     f78:	01160500 	tsteq	r6, r0, lsl #10
     f7c:	08020000 	stmdaeq	r2, {}	; <UNPREDICTABLE>
     f80:	00026604 	andeq	r6, r2, r4, lsl #12
     f84:	011d0600 	tsteq	sp, r0, lsl #12
     f88:	01390000 	teqeq	r9, r0
     f8c:	67070000 	strvs	r0, [r7, -r0]
     f90:	03000000 	movweq	r0, #0
     f94:	01290500 			; <UNDEFINED> instruction: 0x01290500
     f98:	630b0000 	movwvs	r0, #45056	; 0xb000
     f9c:	01000003 	tsteq	r0, r3
     fa0:	01391289 	teqeq	r9, r9, lsl #5
     fa4:	03050000 	movweq	r0, #20480	; 0x5000
     fa8:	0000a250 	andeq	sl, r0, r0, asr r2
     fac:	0000ee06 	andeq	lr, r0, r6, lsl #28
     fb0:	00016000 	andeq	r6, r1, r0
     fb4:	00670700 	rsbeq	r0, r7, r0, lsl #14
     fb8:	00410000 	subeq	r0, r1, r0
     fbc:	00015005 	andeq	r5, r1, r5
     fc0:	037f0b00 	cmneq	pc, #0, 22
     fc4:	97010000 	strls	r0, [r1, -r0]
     fc8:	00016016 	andeq	r6, r1, r6, lsl r0
     fcc:	60030500 	andvs	r0, r3, r0, lsl #10
     fd0:	060000a2 	streq	r0, [r0], -r2, lsr #1
     fd4:	00000075 	andeq	r0, r0, r5, ror r0
     fd8:	00000187 	andeq	r0, r0, r7, lsl #3
     fdc:	00006707 	andeq	r6, r0, r7, lsl #14
     fe0:	05000700 	streq	r0, [r0, #-1792]	; 0xfffff900
     fe4:	00000177 	andeq	r0, r0, r7, ror r1
     fe8:	00038b0c 	andeq	r8, r3, ip, lsl #22
     fec:	01140100 	tsteq	r4, r0, lsl #2
     ff0:	00018715 	andeq	r8, r1, r5, lsl r7
     ff4:	68030500 	stmdavs	r3, {r8, sl}
     ff8:	0d0000a3 	stceq	0, cr0, [r0, #-652]	; 0xfffffd74
     ffc:	00000347 	andeq	r0, r0, r7, asr #6
    1000:	01012001 	tsteq	r1, r1
    1004:	00000075 	andeq	r0, r0, r5, ror r0
    1008:	00000008 	andeq	r0, r0, r8
    100c:	00000000 	andeq	r0, r0, r0
    1010:	6e6f0e00 	cdpvs	14, 6, cr0, cr15, cr0, {0}
    1014:	21010065 	tstcs	r1, r5, rrx
    1018:	00750101 	rsbseq	r0, r5, r1, lsl #2
    101c:	00080000 	andeq	r0, r8, r0
    1020:	00000000 	andeq	r0, r0, r0
    1024:	0d3ff000 	ldceq	0, cr15, [pc, #-0]	; 102c <__code_start__-0x6fd4>
    1028:	00000327 	andeq	r0, r0, r7, lsr #6
    102c:	01012201 	tsteq	r1, r1, lsl #4
    1030:	00000075 	andeq	r0, r0, r5, ror r0
    1034:	00000008 	andeq	r0, r0, r8
    1038:	70000000 	andvc	r0, r0, r0
    103c:	036b0d41 	cmneq	fp, #4160	; 0x1040
    1040:	23010000 	movwcs	r0, #4096	; 0x1000
    1044:	00750101 	rsbseq	r0, r5, r1, lsl #2
    1048:	00080000 	andeq	r0, r8, r0
    104c:	00000000 	andeq	r0, r0, r0
    1050:	0f3e7000 	svceq	0x003e7000
    1054:	000002f3 	strdeq	r0, [r0], -r3
    1058:	01012601 	tsteq	r1, r1, lsl #12
    105c:	00000116 	andeq	r0, r0, r6, lsl r1
    1060:	000087e0 	andeq	r8, r0, r0, ror #15
    1064:	0000075c 	andeq	r0, r0, ip, asr r7
    1068:	04929c01 	ldreq	r9, [r2], #3073	; 0xc01
    106c:	78100000 	ldmdavc	r0, {}	; <UNPREDICTABLE>
    1070:	01260100 			; <UNDEFINED> instruction: 0x01260100
    1074:	0004921b 	andeq	r9, r4, fp, lsl r2
    1078:	000cfd00 	andeq	pc, ip, r0, lsl #26
    107c:	000cf900 	andeq	pc, ip, r0, lsl #18
    1080:	00791000 	rsbseq	r1, r9, r0
    1084:	26012601 	strcs	r2, [r1], -r1, lsl #12
    1088:	00000492 	muleq	r0, r2, r4
    108c:	00000d1f 	andeq	r0, r0, pc, lsl sp
    1090:	00000d1b 	andeq	r0, r0, fp, lsl sp
    1094:	00306510 	eorseq	r6, r0, r0, lsl r5
    1098:	2d012601 	stccs	6, cr2, [r1, #-4]
    109c:	00000116 	andeq	r0, r0, r6, lsl r1
    10a0:	00000d43 	andeq	r0, r0, r3, asr #26
    10a4:	00000d3d 	andeq	r0, r0, sp, lsr sp
    10a8:	00786e10 	rsbseq	r6, r8, r0, lsl lr
    10ac:	35012601 	strcc	r2, [r1, #-1537]	; 0xfffff9ff
    10b0:	00000116 	andeq	r0, r0, r6, lsl r1
    10b4:	00000d75 	andeq	r0, r0, r5, ror sp
    10b8:	00000d6f 	andeq	r0, r0, pc, ror #26
    10bc:	00039011 	andeq	r9, r3, r1, lsl r0
    10c0:	01260100 			; <UNDEFINED> instruction: 0x01260100
    10c4:	0001163d 	andeq	r1, r1, sp, lsr r6
    10c8:	00910200 	addseq	r0, r1, r0, lsl #4
    10cc:	007a6a12 	rsbseq	r6, sl, r2, lsl sl
    10d0:	0a012801 	beq	4b0dc <__bss_end__+0x407c4>
    10d4:	000000e2 	andeq	r0, r0, r2, ror #1
    10d8:	00000da7 	andeq	r0, r0, r7, lsr #27
    10dc:	00000da3 	andeq	r0, r0, r3, lsr #27
    10e0:	00786a12 	rsbseq	r6, r8, r2, lsl sl
    10e4:	0d012801 	stceq	8, cr2, [r1, #-4]
    10e8:	000000e2 	andeq	r0, r0, r2, ror #1
    10ec:	00000dc7 	andeq	r0, r0, r7, asr #27
    10f0:	00000dc5 	andeq	r0, r0, r5, asr #27
    10f4:	00766a12 	rsbseq	r6, r6, r2, lsl sl
    10f8:	10012801 	andne	r2, r1, r1, lsl #16
    10fc:	000000e2 	andeq	r0, r0, r2, ror #1
    1100:	00000ddc 	ldrdeq	r0, [r0], -ip
    1104:	00000dda 	ldrdeq	r0, [r0], -sl
    1108:	00706a12 	rsbseq	r6, r0, r2, lsl sl
    110c:	13012801 	movwne	r2, #6145	; 0x1801
    1110:	000000e2 	andeq	r0, r0, r2, ror #1
    1114:	00000df1 	strdeq	r0, [r0], -r1
    1118:	00000def 	andeq	r0, r0, pc, ror #27
    111c:	006b6a12 	rsbeq	r6, fp, r2, lsl sl
    1120:	16012801 	strne	r2, [r1], -r1, lsl #16
    1124:	000000e2 	andeq	r0, r0, r2, ror #1
    1128:	00000e06 	andeq	r0, r0, r6, lsl #28
    112c:	00000e04 	andeq	r0, r0, r4, lsl #28
    1130:	00038513 	andeq	r8, r3, r3, lsl r5
    1134:	01280100 			; <UNDEFINED> instruction: 0x01280100
    1138:	0000e219 	andeq	lr, r0, r9, lsl r2
    113c:	000e2300 	andeq	r2, lr, r0, lsl #6
    1140:	000e1900 	andeq	r1, lr, r0, lsl #18
    1144:	006e1200 	rsbeq	r1, lr, r0, lsl #4
    1148:	1f012801 	svcne	0x00012801
    114c:	000000e2 	andeq	r0, r0, r2, ror #1
    1150:	00000e74 	andeq	r0, r0, r4, ror lr
    1154:	00000e64 	andeq	r0, r0, r4, ror #28
    1158:	00716914 	rsbseq	r6, r1, r4, lsl r9
    115c:	21012801 	tstcs	r1, r1, lsl #16
    1160:	00000498 	muleq	r0, r8, r4
    1164:	7ef89103 	nrmvce	f1, f3
    1168:	01006912 	tsteq	r0, r2, lsl r9
    116c:	e2280128 	eor	r0, r8, #10
    1170:	13000000 	movwne	r0, #0
    1174:	d900000f 	stmdble	r0, {r0, r1, r2, r3}
    1178:	1200000e 	andne	r0, r0, #14, 0
    117c:	2801006a 	stmdacs	r1, {r1, r3, r5, r6}
    1180:	00e22a01 	rsceq	r2, r2, r1, lsl #20
    1184:	10860000 	addne	r0, r6, r0
    1188:	10620000 	rsbne	r0, r2, r0
    118c:	6b120000 	blvs	481194 <__bss_end__+0x47687c>
    1190:	01280100 			; <UNDEFINED> instruction: 0x01280100
    1194:	0000e22c 	andeq	lr, r0, ip, lsr #4
    1198:	00118b00 	andseq	r8, r1, r0, lsl #22
    119c:	00118700 	andseq	r8, r1, r0, lsl #14
    11a0:	006d1200 	rsbeq	r1, sp, r0, lsl #4
    11a4:	2e012801 	cdpcs	8, 0, cr2, cr1, cr1, {0}
    11a8:	000000e2 	andeq	r0, r0, r2, ror #1
    11ac:	000011ad 	andeq	r1, r0, sp, lsr #3
    11b0:	000011a9 	andeq	r1, r0, r9, lsr #3
    11b4:	00307112 	eorseq	r7, r0, r2, lsl r1
    11b8:	30012801 	andcc	r2, r1, r1, lsl #16
    11bc:	000000e2 	andeq	r0, r0, r2, ror #1
    11c0:	000011d2 	ldrdeq	r1, [r0], -r2
    11c4:	000011d0 	ldrdeq	r1, [r0], -r0
    11c8:	00686912 	rsbeq	r6, r8, r2, lsl r9
    11cc:	33012801 	movwcc	r2, #6145	; 0x1801
    11d0:	000000e2 	andeq	r0, r0, r2, ror #1
    11d4:	000011ef 	andeq	r1, r0, pc, ror #3
    11d8:	000011e5 	andeq	r1, r0, r5, ror #3
    11dc:	01007a12 	tsteq	r0, r2, lsl sl
    11e0:	25090129 	strcs	r0, [r9, #-297]	; 0xfffffed7
    11e4:	41000000 	mrsmi	r0, (UNDEF: 0)
    11e8:	31000012 	tstcc	r0, r2, lsl r0
    11ec:	12000012 	andne	r0, r0, #18, 0
    11f0:	01007766 	tsteq	r0, r6, ror #14
    11f4:	250b0129 	strcs	r0, [fp, #-297]	; 0xfffffed7
    11f8:	f9000000 			; <UNDEFINED> instruction: 0xf9000000
    11fc:	d9000012 	stmdble	r0, {r1, r4}
    1200:	14000012 	strne	r0, [r0], #-18	; 0xffffffee
    1204:	29010066 	stmdbcs	r1, {r1, r2, r5, r6}
    1208:	04a80e01 	strteq	r0, [r8], #3585	; 0xe01
    120c:	91030000 	mrsls	r0, (UNDEF: 3)
    1210:	66147dd8 			; <UNDEFINED> instruction: 0x66147dd8
    1214:	29010071 	stmdbcs	r1, {r0, r4, r5, r6}
    1218:	04a81401 	strteq	r1, [r8], #1025	; 0x401
    121c:	91030000 	mrsls	r0, (UNDEF: 3)
    1220:	71147cb8 			; <UNDEFINED> instruction: 0x71147cb8
    1224:	01290100 			; <UNDEFINED> instruction: 0x01290100
    1228:	0004a81b 	andeq	sl, r4, fp, lsl r8
    122c:	98910300 	ldmls	r1, {r8, r9}
    1230:	0359157b 	cmpeq	r9, #515899392	; 0x1ec00000
    1234:	3f010000 	svccc	0x00010000
    1238:	8b9c0101 	blhi	fe701644 <__bss_end__+0xfe6f6d2c>
    123c:	28160000 	ldmdacs	r6, {}	; <UNPREDICTABLE>
    1240:	b8000089 	stmdalt	r0, {r0, r3, r7}
    1244:	f6000004 			; <UNDEFINED> instruction: 0xf6000004
    1248:	17000003 	strne	r0, [r0, -r3]
    124c:	7a025001 	bvc	95258 <__bss_end__+0x8a940>
    1250:	38160000 	ldmdacc	r6, {}	; <UNPREDICTABLE>
    1254:	c5000089 	strgt	r0, [r0, #-137]	; 0xffffff77
    1258:	1e000004 	cdpne	0, 0, cr0, cr0, cr4, {0}
    125c:	17000004 	strne	r0, [r0, -r4]
    1260:	93409008 	movtls	r9, #8
    1264:	93419004 	movtls	r9, #4100	; 0x1004
    1268:	50f50f04 	rscspl	r0, r5, r4, lsl #30
    126c:	0825f425 	stmdaeq	r5!, {r0, r2, r5, sl, ip, sp, lr, pc}
    1270:	00000000 	andeq	r0, r0, r0
    1274:	3fc00000 	svccc	0x00c00000
    1278:	8c16001e 	ldchi	0, cr0, [r6], {30}
    127c:	b800008a 	stmdalt	r0, {r1, r3, r7}
    1280:	48000004 	stmdami	r0, {r2}
    1284:	17000004 	strne	r0, [r0, -r4]
    1288:	93409008 	movtls	r9, #8
    128c:	93419004 	movtls	r9, #4100	; 0x1004
    1290:	25f40b04 	ldrbcs	r0, [r4, #2820]!	; 0xb04
    1294:	00000008 	andeq	r0, r0, r8
    1298:	f0000000 			; <UNDEFINED> instruction: 0xf0000000
    129c:	5001173f 	andpl	r1, r1, pc, lsr r7
    12a0:	00007a02 	andeq	r7, r0, r2, lsl #20
    12a4:	008bf416 	addeq	pc, fp, r6, lsl r4	; <UNPREDICTABLE>
    12a8:	0004b800 	andeq	fp, r4, r0, lsl #16
    12ac:	00047200 	andeq	r7, r4, r0, lsl #4
    12b0:	90081700 	andls	r1, r8, r0, lsl #14
    12b4:	90049340 	andls	r9, r4, r0, asr #6
    12b8:	0b049341 	bleq	125fc4 <__bss_end__+0x11b6ac>
    12bc:	000825f4 	strdeq	r2, [r8], -r4
    12c0:	00000000 	andeq	r0, r0, r0
    12c4:	173ff000 	ldrne	pc, [pc, -r0]!
    12c8:	7a025001 	bvc	952d4 <__bss_end__+0x8a9bc>
    12cc:	4c180000 	ldcmi	0, cr0, [r8], {-0}
    12d0:	b800008c 	stmdalt	r0, {r2, r3, r7}
    12d4:	17000004 	strne	r0, [r0, -r4]
    12d8:	93409008 	movtls	r9, #8
    12dc:	93419004 	movtls	r9, #4100	; 0x1004
    12e0:	50f50304 	rscspl	r0, r5, r4, lsl #6
    12e4:	50011725 	andpl	r1, r1, r5, lsr #14
    12e8:	1f007a03 	svcne	0x00007a03
    12ec:	04190000 	ldreq	r0, [r9], #-0
    12f0:	00000025 	andeq	r0, r0, r5, lsr #32
    12f4:	0000e206 	andeq	lr, r0, r6, lsl #4
    12f8:	0004a800 	andeq	sl, r4, r0, lsl #16
    12fc:	00670700 	rsbeq	r0, r7, r0, lsl #14
    1300:	00130000 	andseq	r0, r3, r0
    1304:	00002506 	andeq	r2, r0, r6, lsl #10
    1308:	0004b800 	andeq	fp, r4, r0, lsl #16
    130c:	00670700 	rsbeq	r0, r7, r0, lsl #14
    1310:	00130000 	andseq	r0, r3, r0
    1314:	0003521a 	andeq	r5, r3, sl, lsl r2
    1318:	00035200 	andeq	r5, r3, r0, lsl #4
    131c:	01320200 	teqeq	r2, r0, lsl #4
    1320:	034c1b16 	movteq	r1, #51990	; 0xcb16
    1324:	034c0000 	movteq	r0, #49152	; 0xc000
    1328:	fe020000 	cdp2	0, 0, cr0, cr2, cr0, {0}
    132c:	038f0016 	orreq	r0, pc, #22, 0
    1330:	00040000 	andeq	r0, r4, r0
    1334:	00000793 	muleq	r0, r3, r7
    1338:	006a0104 	rsbeq	r0, sl, r4, lsl #2
    133c:	950c0000 	strls	r0, [ip, #-0]
    1340:	f2000003 	vhadd.s8	d0, d0, d3
    1344:	40000001 	andmi	r0, r0, r1
    1348:	7800008f 	stmdavc	r0, {r0, r1, r2, r3, r7}
    134c:	7e000001 	cdpvc	0, 0, cr0, cr0, cr1, {0}
    1350:	02000014 	andeq	r0, r0, #20, 0
    1354:	026b0408 	rsbeq	r0, fp, #8, 8	; 0x8000000
    1358:	2c030000 	stccs	0, cr0, [r3], {-0}
    135c:	08000001 	stmdaeq	r0, {r0}
    1360:	52143102 	andspl	r3, r4, #-2147483648	; 0x80000000
    1364:	04000000 	streq	r0, [r0], #-0
    1368:	00000000 	andeq	r0, r0, r0
    136c:	57103202 	ldrpl	r3, [r0, -r2, lsl #4]
    1370:	04000000 	streq	r0, [r0], #-0
    1374:	00000005 	andeq	r0, r0, r5
    1378:	250a3302 	strcs	r3, [sl, #-770]	; 0xfffffcfe
    137c:	00000000 	andeq	r0, r0, r0
    1380:	00002c05 	andeq	r2, r0, r5, lsl #24
    1384:	006e0600 	rsbeq	r0, lr, r0, lsl #12
    1388:	00670000 	rsbeq	r0, r7, r0
    138c:	67070000 	strvs	r0, [r7, -r0]
    1390:	07000000 	streq	r0, [r0, -r0]
    1394:	07040200 	streq	r0, [r4, -r0, lsl #4]
    1398:	00000151 	andeq	r0, r0, r1, asr r1
    139c:	2f080102 	svccs	0x00080102
    13a0:	05000000 	streq	r0, [r0, #-0]
    13a4:	00000025 	andeq	r0, r0, r5, lsr #32
    13a8:	00004608 	andeq	r4, r0, r8, lsl #12
    13ac:	03340200 	teqeq	r4, #0, 4
    13b0:	00000052 	andeq	r0, r0, r2, asr r0
    13b4:	00001f03 	andeq	r1, r0, r3, lsl #30
    13b8:	36020400 	strcc	r0, [r2], -r0, lsl #8
    13bc:	0000ac14 	andeq	sl, r0, r4, lsl ip
    13c0:	00000400 	andeq	r0, r0, r0, lsl #8
    13c4:	37020000 	strcc	r0, [r2, -r0]
    13c8:	0000b110 	andeq	fp, r0, r0, lsl r1
    13cc:	000a0400 	andeq	r0, sl, r0, lsl #8
    13d0:	38020000 	stmdacc	r2, {}	; <UNPREDICTABLE>
    13d4:	0000c109 	andeq	ip, r0, r9, lsl #2
    13d8:	86050000 	strhi	r0, [r5], -r0
    13dc:	06000000 	streq	r0, [r0], -r0
    13e0:	0000006e 	andeq	r0, r0, lr, rrx
    13e4:	000000c1 	andeq	r0, r0, r1, asr #1
    13e8:	00006707 	andeq	r6, r0, r7, lsl #14
    13ec:	02000300 	andeq	r0, r0, #0, 6
    13f0:	06b90404 	ldrteq	r0, [r9], r4, lsl #8
    13f4:	64080000 	strvs	r0, [r8], #-0
    13f8:	02000000 	andeq	r0, r0, #0, 0
    13fc:	00ac0339 	adceq	r0, ip, r9, lsr r3
    1400:	01020000 	mrseq	r0, (UNDEF: 2)
    1404:	00003106 	andeq	r3, r0, r6, lsl #2
    1408:	05020200 	streq	r0, [r2, #-512]	; 0xfffffe00
    140c:	000001df 	ldrdeq	r0, [r0], -pc	; <UNPREDICTABLE>
    1410:	00028f09 	andeq	r8, r2, r9, lsl #30
    1414:	18280300 	stmdane	r8!, {r8, r9}
    1418:	000000ee 	andeq	r0, r0, lr, ror #1
    141c:	63050402 	movwvs	r0, #21506	; 0x5402
    1420:	02000001 	andeq	r0, r0, #1, 0
    1424:	015e0508 	cmpeq	lr, r8, lsl #10
    1428:	02020000 	andeq	r0, r2, #0, 0
    142c:	00005107 	andeq	r5, r0, r7, lsl #2
    1430:	01e90900 	mvneq	r0, r0, lsl #18
    1434:	34030000 	strcc	r0, [r3], #-0
    1438:	00010f19 	andeq	r0, r1, r9, lsl pc
    143c:	07040200 	streq	r0, [r4, -r0, lsl #4]
    1440:	0000014c 	andeq	r0, r0, ip, asr #2
    1444:	00023b09 	andeq	r3, r2, r9, lsl #22
    1448:	19370300 	ldmdbne	r7!, {r8, r9}
    144c:	00000122 	andeq	r0, r0, r2, lsr #2
    1450:	47070802 	strmi	r0, [r7, -r2, lsl #16]
    1454:	0a000001 	beq	1460 <__code_start__-0x6ba0>
    1458:	6e690504 	cdpvs	5, 6, cr0, cr9, cr4, {0}
    145c:	8d090074 	stchi	0, cr0, [r9, #-464]	; 0xfffffe30
    1460:	04000002 	streq	r0, [r0], #-2
    1464:	01031f09 	tsteq	r3, r9, lsl #30
    1468:	49090000 	stmdbmi	r9, {}	; <UNPREDICTABLE>
    146c:	04000002 	streq	r0, [r0], #-2
    1470:	01161f0a 	tsteq	r6, sl, lsl #30
    1474:	08020000 	stmdaeq	r2, {}	; <UNPREDICTABLE>
    1478:	00026604 	andeq	r6, r2, r4, lsl #12
    147c:	05080b00 	streq	r0, [r8, #-2816]	; 0xfffff500
    1480:	01730344 	cmneq	r3, r4, asr #6
    1484:	6c0c0000 	stcvs	0, cr0, [ip], {-0}
    1488:	05007773 	streq	r7, [r0, #-1907]	; 0xfffff88d
    148c:	01300f46 	teqeq	r0, r6, asr #30
    1490:	0c000000 	stceq	0, cr0, [r0], {-0}
    1494:	0077736d 	rsbseq	r7, r7, sp, ror #6
    1498:	300f4705 	andcc	r4, pc, r5, lsl #14
    149c:	04000001 	streq	r0, [r0], #-1
    14a0:	05080b00 	streq	r0, [r8, #-2816]	; 0xfffff500
    14a4:	01880349 	orreq	r0, r8, r9, asr #6
    14a8:	770c0000 	strvc	r0, [ip, -r0]
    14ac:	0f4b0500 	svceq	0x004b0500
    14b0:	0000013c 	andeq	r0, r0, ip, lsr r1
    14b4:	080d0000 	stmdaeq	sp, {}	; <UNPREDICTABLE>
    14b8:	b6094105 	strlt	r4, [r9], -r5, lsl #2
    14bc:	04000001 	streq	r0, [r0], #-1
    14c0:	00000253 	andeq	r0, r0, r3, asr r2
    14c4:	250a4305 	strcs	r4, [sl, #-773]	; 0xfffffcfb
    14c8:	04000000 	streq	r0, [r0], #-0
    14cc:	00000298 	muleq	r0, r8, r2
    14d0:	4f054805 	svcmi	0x00054805
    14d4:	04000001 	streq	r0, [r0], #-1
    14d8:	00000297 	muleq	r0, r7, r2
    14dc:	73054c05 	movwvc	r4, #23557	; 0x5c05
    14e0:	00000001 	andeq	r0, r0, r1
    14e4:	0002ab09 	andeq	sl, r2, r9, lsl #22
    14e8:	034d0500 	movteq	r0, #54528	; 0xd500
    14ec:	00000188 	andeq	r0, r0, r8, lsl #3
    14f0:	0003ac0e 	andeq	sl, r3, lr, lsl #24
    14f4:	011c0100 	tsteq	ip, r0, lsl #2
    14f8:	00000075 	andeq	r0, r0, r5, ror r0
    14fc:	00000008 	andeq	r0, r0, r8
    1500:	50000000 	andpl	r0, r0, r0
    1504:	03a50e43 			; <UNDEFINED> instruction: 0x03a50e43
    1508:	1d010000 	stcne	0, cr0, [r1, #-0]
    150c:	00007501 	andeq	r7, r0, r1, lsl #10
    1510:	00000800 	andeq	r0, r0, r0, lsl #16
    1514:	00000000 	andeq	r0, r0, r0
    1518:	c50e3c90 	strgt	r3, [lr, #-3216]	; 0xfffff370
    151c:	01000003 	tsteq	r0, r3
    1520:	0075011e 	rsbseq	r0, r5, lr, lsl r1
    1524:	9c080000 	stcls	0, cr0, [r8], {-0}
    1528:	3c880075 	stccc	0, cr0, [r8], {117}	; 0x75
    152c:	0e7e37e4 	cdpeq	7, 7, cr3, cr14, cr4, {7}
    1530:	000003a0 	andeq	r0, r0, r0, lsr #7
    1534:	75011f01 	strvc	r1, [r1, #-3841]	; 0xfffff0ff
    1538:	08000000 	stmdaeq	r0, {}	; <UNPREDICTABLE>
    153c:	c2f8f359 	rscsgt	pc, r8, #1677721601	; 0x64000001
    1540:	01a56e1f 			; <UNDEFINED> instruction: 0x01a56e1f
    1544:	0003520f 	andeq	r5, r3, pc, lsl #4
    1548:	08210100 	stmdaeq	r1!, {r8}
    154c:	00000025 	andeq	r0, r0, r5, lsr #32
    1550:	00008f40 	andeq	r8, r0, r0, asr #30
    1554:	00000178 	andeq	r0, r0, r8, ror r1
    1558:	03859c01 	orreq	r9, r5, #256	; 0x100
    155c:	78100000 	ldmdavc	r0, {}	; <UNPREDICTABLE>
    1560:	17210100 	strne	r0, [r1, -r0, lsl #2]!
    1564:	00000025 	andeq	r0, r0, r5, lsr #32
    1568:	00001437 	andeq	r1, r0, r7, lsr r4
    156c:	00001423 	andeq	r1, r0, r3, lsr #8
    1570:	01006e10 	tsteq	r0, r0, lsl lr
    1574:	01291e21 			; <UNDEFINED> instruction: 0x01291e21
    1578:	14ed0000 	strbtne	r0, [sp], #0
    157c:	14d70000 	ldrbne	r0, [r7], #0
    1580:	6b110000 	blvs	441588 <__bss_end__+0x436c70>
    1584:	0a220100 	beq	88198c <__bss_end__+0x877074>
    1588:	000000e2 	andeq	r0, r0, r2, ror #1
    158c:	0000158b 	andeq	r1, r0, fp, lsl #11
    1590:	0000157d 	andeq	r1, r0, sp, ror r5
    1594:	00786811 	rsbseq	r6, r8, r1, lsl r8
    1598:	e20c2201 	and	r2, ip, #268435456	; 0x10000000
    159c:	0a000000 	beq	15a4 <__code_start__-0x6a5c>
    15a0:	f2000016 	vqadd.s8	d0, d0, d6
    15a4:	11000015 	tstne	r0, r5, lsl r0
    15a8:	0100786c 	tsteq	r0, ip, ror #16
    15ac:	00e20f22 	rsceq	r0, r2, r2, lsr #30
    15b0:	16a00000 	strtne	r0, [r0], r0
    15b4:	169c0000 	ldrne	r0, [ip], r0
    15b8:	50120000 	andspl	r0, r2, r0
    15bc:	0800008f 	stmdaeq	r0, {r0, r1, r2, r3, r7}
    15c0:	a6000000 	strge	r0, [r0], -r0
    15c4:	13000002 	movwne	r0, #2
    15c8:	000003c0 	andeq	r0, r0, r0, asr #7
    15cc:	b6022301 	strlt	r2, [r2], -r1, lsl #6
    15d0:	00000001 	andeq	r0, r0, r1
    15d4:	008f8412 	addeq	r8, pc, r2, lsl r4	; <UNPREDICTABLE>
    15d8:	00000400 	andeq	r0, r0, r0, lsl #8
    15dc:	0002c000 	andeq	ip, r2, r0
    15e0:	02441300 	subeq	r1, r4, #0, 6
    15e4:	28010000 	stmdacs	r1, {}	; <UNPREDICTABLE>
    15e8:	0001b606 	andeq	fp, r1, r6, lsl #12
    15ec:	24120000 	ldrcs	r0, [r2], #-0
    15f0:	14000090 	strne	r0, [r0], #-144	; 0xffffff70
    15f4:	e2000000 	and	r0, r0, #0, 0
    15f8:	14000002 	strne	r0, [r0], #-2
    15fc:	000003bb 			; <UNDEFINED> instruction: 0x000003bb
    1600:	b6073001 	strlt	r3, [r7], -r1
    1604:	c0000001 	andgt	r0, r0, r1
    1608:	be000016 	mcrlt	0, 0, r0, cr0, cr6, {0}
    160c:	00000016 	andeq	r0, r0, r6, lsl r0
    1610:	00906012 	addseq	r6, r0, r2, lsl r0
    1614:	00001400 	andeq	r1, r0, r0, lsl #8
    1618:	00030400 	andeq	r0, r3, r0, lsl #8
    161c:	03bb1400 			; <UNDEFINED> instruction: 0x03bb1400
    1620:	37010000 	strcc	r0, [r1, -r0]
    1624:	0001b602 	andeq	fp, r1, r2, lsl #12
    1628:	0016dc00 	andseq	sp, r6, r0, lsl #24
    162c:	0016d800 	andseq	sp, r6, r0, lsl #16
    1630:	ec150000 	ldc	0, cr0, [r5], {-0}
    1634:	8500008f 	strhi	r0, [r0, #-143]	; 0xffffff71
    1638:	30000003 	andcc	r0, r0, r3
    163c:	16000003 	strne	r0, [r0], -r3
    1640:	93409008 	movtls	r9, #8
    1644:	93419004 	movtls	r9, #4100	; 0x1004
    1648:	50f50304 	rscspl	r0, r5, r4, lsl #6
    164c:	90081625 	andls	r1, r8, r5, lsr #12
    1650:	90049342 	andls	r9, r4, r2, asr #6
    1654:	05049343 	streq	r9, [r4, #-835]	; 0xfffffcbd
    1658:	08f6007d 	ldmeq	r6!, {r0, r2, r3, r4, r5, r6}^
    165c:	1c150025 	ldcne	0, cr0, [r5], {37}	; 0x25
    1660:	85000090 	strhi	r0, [r0, #-144]	; 0xffffff70
    1664:	5c000003 	stcpl	0, cr0, [r0], {3}
    1668:	16000003 	strne	r0, [r0], -r3
    166c:	93409008 	movtls	r9, #8
    1670:	93419004 	movtls	r9, #4100	; 0x1004
    1674:	50f50304 	rscspl	r0, r5, r4, lsl #6
    1678:	90081625 	andls	r1, r8, r5, lsr #12
    167c:	90049342 	andls	r9, r4, r2, asr #6
    1680:	05049343 	streq	r9, [r4, #-835]	; 0xfffffcbd
    1684:	08f6007d 	ldmeq	r6!, {r0, r2, r3, r4, r5, r6}^
    1688:	54170025 	ldrpl	r0, [r7], #-37	; 0xffffffdb
    168c:	85000090 	strhi	r0, [r0, #-144]	; 0xffffff70
    1690:	16000003 	strne	r0, [r0], -r3
    1694:	93409008 	movtls	r9, #8
    1698:	93419004 	movtls	r9, #4100	; 0x1004
    169c:	50f50304 	rscspl	r0, r5, r4, lsl #6
    16a0:	90081625 	andls	r1, r8, r5, lsr #12
    16a4:	90049342 	andls	r9, r4, r2, asr #6
    16a8:	05049343 	streq	r9, [r4, #-835]	; 0xfffffcbd
    16ac:	08f6007d 	ldmeq	r6!, {r0, r2, r3, r4, r5, r6}^
    16b0:	18000025 	stmdane	r0, {r0, r2, r5}
    16b4:	000003b2 			; <UNDEFINED> instruction: 0x000003b2
    16b8:	000003b2 			; <UNDEFINED> instruction: 0x000003b2
    16bc:	16012b02 	strne	r2, [r1], -r2, lsl #22
    16c0:	00029200 	andeq	r9, r2, r0, lsl #4
    16c4:	03000400 	movweq	r0, #1024	; 0x400
    16c8:	04000009 	streq	r0, [r0], #-9
    16cc:	00006a01 	andeq	r6, r0, r1, lsl #20
    16d0:	03ca0c00 	biceq	r0, sl, #0, 24
    16d4:	01f20000 	mvnseq	r0, r0
    16d8:	90b80000 	adcsls	r0, r8, r0
    16dc:	01800000 	orreq	r0, r0, r0
    16e0:	16ba0000 	ldrtne	r0, [sl], r0
    16e4:	2c020000 	stccs	0, cr0, [r2], {-0}
    16e8:	08000001 	stmdaeq	r0, {r0}
    16ec:	4b143102 	blmi	50dafc <__bss_end__+0x5031e4>
    16f0:	03000000 	movweq	r0, #0
    16f4:	00000000 	andeq	r0, r0, r0
    16f8:	50103202 	andspl	r3, r0, r2, lsl #4
    16fc:	03000000 	movweq	r0, #0
    1700:	00000005 	andeq	r0, r0, r5
    1704:	6e0a3302 	cdpvs	3, 0, cr3, cr10, cr2, {0}
    1708:	00000000 	andeq	r0, r0, r0
    170c:	00002504 	andeq	r2, r0, r4, lsl #10
    1710:	00670500 	rsbeq	r0, r7, r0, lsl #10
    1714:	00600000 	rsbeq	r0, r0, r0
    1718:	60060000 	andvs	r0, r6, r0
    171c:	07000000 	streq	r0, [r0, -r0]
    1720:	07040700 	streq	r0, [r4, -r0, lsl #14]
    1724:	00000151 	andeq	r0, r0, r1, asr r1
    1728:	2f080107 	svccs	0x00080107
    172c:	07000000 	streq	r0, [r0, -r0]
    1730:	026b0408 	rsbeq	r0, fp, #8, 8	; 0x8000000
    1734:	6e040000 	cdpvs	0, 0, cr0, cr4, cr0, {0}
    1738:	08000000 	stmdaeq	r0, {}	; <UNPREDICTABLE>
    173c:	00000046 	andeq	r0, r0, r6, asr #32
    1740:	4b033402 	blmi	ce750 <__bss_end__+0xc3e38>
    1744:	02000000 	andeq	r0, r0, #0, 0
    1748:	0000001f 	andeq	r0, r0, pc, lsl r0
    174c:	14360204 	ldrtne	r0, [r6], #-516	; 0xfffffdfc
    1750:	000000ac 	andeq	r0, r0, ip, lsr #1
    1754:	00000003 	andeq	r0, r0, r3
    1758:	10370200 	eorsne	r0, r7, r0, lsl #4
    175c:	000000b1 	strheq	r0, [r0], -r1
    1760:	00000a03 	andeq	r0, r0, r3, lsl #20
    1764:	09380200 	ldmdbeq	r8!, {r9}
    1768:	000000c1 	andeq	r0, r0, r1, asr #1
    176c:	00860400 	addeq	r0, r6, r0, lsl #8
    1770:	67050000 	strvs	r0, [r5, -r0]
    1774:	c1000000 	mrsgt	r0, (UNDEF: 0)
    1778:	06000000 	streq	r0, [r0], -r0
    177c:	00000060 	andeq	r0, r0, r0, rrx
    1780:	04070003 	streq	r0, [r7], #-3
    1784:	0006b904 	andeq	fp, r6, r4, lsl #18
    1788:	00640800 	rsbeq	r0, r4, r0, lsl #16
    178c:	39020000 	stmdbcc	r2, {}	; <UNPREDICTABLE>
    1790:	0000ac03 	andeq	sl, r0, r3, lsl #24
    1794:	06010700 	streq	r0, [r1], -r0, lsl #14
    1798:	00000031 	andeq	r0, r0, r1, lsr r0
    179c:	df050207 	svcle	0x00050207
    17a0:	09000001 	stmdbeq	r0, {r0}
    17a4:	0000028f 	andeq	r0, r0, pc, lsl #5
    17a8:	ee182803 	cdp	8, 1, cr2, cr8, cr3, {0}
    17ac:	07000000 	streq	r0, [r0, -r0]
    17b0:	01630504 	cmneq	r3, r4, lsl #10
    17b4:	08070000 	stmdaeq	r7, {}	; <UNPREDICTABLE>
    17b8:	00015e05 	andeq	r5, r1, r5, lsl #28
    17bc:	07020700 	streq	r0, [r2, -r0, lsl #14]
    17c0:	00000051 	andeq	r0, r0, r1, asr r0
    17c4:	0001e909 	andeq	lr, r1, r9, lsl #18
    17c8:	19340300 	ldmdbne	r4!, {r8, r9}
    17cc:	0000010f 	andeq	r0, r0, pc, lsl #2
    17d0:	4c070407 	cfstrsmi	mvf0, [r7], {7}
    17d4:	09000001 	stmdbeq	r0, {r0}
    17d8:	0000023b 	andeq	r0, r0, fp, lsr r2
    17dc:	22193703 	andscs	r3, r9, #786432	; 0xc0000
    17e0:	07000001 	streq	r0, [r0, -r1]
    17e4:	01470708 	cmpeq	r7, r8, lsl #14
    17e8:	040a0000 	streq	r0, [sl], #-0
    17ec:	746e6905 	strbtvc	r6, [lr], #-2309	; 0xfffff6fb
    17f0:	028d0900 	addeq	r0, sp, #0, 18
    17f4:	09040000 	stmdbeq	r4, {}	; <UNPREDICTABLE>
    17f8:	0001031f 	andeq	r0, r1, pc, lsl r3
    17fc:	02490900 	subeq	r0, r9, #0, 18
    1800:	0a040000 	beq	101808 <__bss_end__+0xf6ef0>
    1804:	0001161f 	andeq	r1, r1, pc, lsl r6
    1808:	04080700 	streq	r0, [r8], #-1792	; 0xfffff900
    180c:	00000266 	andeq	r0, r0, r6, ror #4
    1810:	4405080b 	strmi	r0, [r5], #-2059	; 0xfffff7f5
    1814:	00017303 	andeq	r7, r1, r3, lsl #6
    1818:	736c0c00 	cmnvc	ip, #0, 24
    181c:	46050077 			; <UNDEFINED> instruction: 0x46050077
    1820:	0001300f 	andeq	r3, r1, pc
    1824:	6d0c0000 	stcvs	0, cr0, [ip, #-0]
    1828:	05007773 	streq	r7, [r0, #-1907]	; 0xfffff88d
    182c:	01300f47 	teqeq	r0, r7, asr #30
    1830:	00040000 	andeq	r0, r4, r0
    1834:	4905080b 	stmdbmi	r5, {r0, r1, r3, fp}
    1838:	00018803 	andeq	r8, r1, r3, lsl #16
    183c:	00770c00 	rsbseq	r0, r7, r0, lsl #24
    1840:	3c0f4b05 			; <UNDEFINED> instruction: 0x3c0f4b05
    1844:	00000001 	andeq	r0, r0, r1
    1848:	05080d00 	streq	r0, [r8, #-3328]	; 0xfffff300
    184c:	01b60941 			; <UNDEFINED> instruction: 0x01b60941
    1850:	53030000 	movwpl	r0, #12288	; 0x3000
    1854:	05000002 	streq	r0, [r0, #-2]
    1858:	006e0a43 	rsbeq	r0, lr, r3, asr #20
    185c:	98030000 	stmdals	r3, {}	; <UNPREDICTABLE>
    1860:	05000002 	streq	r0, [r0, #-2]
    1864:	014f0548 	cmpeq	pc, r8, asr #10
    1868:	97030000 	strls	r0, [r3, -r0]
    186c:	05000002 	streq	r0, [r0, #-2]
    1870:	0173054c 	cmneq	r3, ip, asr #10
    1874:	09000000 	stmdbeq	r0, {}	; <UNPREDICTABLE>
    1878:	000002ab 	andeq	r0, r0, fp, lsr #5
    187c:	88034d05 	stmdahi	r3, {r0, r2, r8, sl, fp, lr}
    1880:	0e000001 	cdpeq	0, 0, cr0, cr0, cr1, {0}
    1884:	000003c5 	andeq	r0, r0, r5, asr #7
    1888:	75151e01 	ldrvc	r1, [r5, #-3585]	; 0xfffff1ff
    188c:	08000000 	stmdaeq	r0, {}	; <UNPREDICTABLE>
    1890:	8800759c 	stmdahi	r0, {r2, r3, r4, r7, r8, sl, ip, sp, lr}
    1894:	7e37e43c 	mrcvc	4, 1, lr, cr7, cr12, {1}
    1898:	00034c0f 	andeq	r4, r3, pc, lsl #24
    189c:	01210100 			; <UNDEFINED> instruction: 0x01210100
    18a0:	0000006e 	andeq	r0, r0, lr, rrx
    18a4:	000090b8 	strheq	r9, [r0], -r8
    18a8:	00000180 	andeq	r0, r0, r0, lsl #3
    18ac:	78109c01 	ldmdavc	r0, {r0, sl, fp, ip, pc}
    18b0:	0e210100 	sufeqs	f0, f1, f0
    18b4:	0000006e 	andeq	r0, r0, lr, rrx
    18b8:	00001718 	andeq	r1, r0, r8, lsl r7
    18bc:	00001704 	andeq	r1, r0, r4, lsl #14
    18c0:	00306911 	eorseq	r6, r0, r1, lsl r9
    18c4:	e20a2301 	and	r2, sl, #67108864	; 0x4000000
    18c8:	d6000000 	strle	r0, [r0], -r0
    18cc:	ba000017 	blt	1930 <__code_start__-0x66d0>
    18d0:	11000017 	tstne	r0, r7, lsl r0
    18d4:	01003169 	tsteq	r0, r9, ror #2
    18d8:	00e20d23 	rsceq	r0, r2, r3, lsr #26
    18dc:	188f0000 	stmne	pc, {}	; <UNPREDICTABLE>
    18e0:	18790000 	ldmdane	r9!, {}^	; <UNPREDICTABLE>
    18e4:	6a110000 	bvs	4418ec <__bss_end__+0x436fd4>
    18e8:	23010030 	movwcs	r0, #4144	; 0x1030
    18ec:	0000e210 	andeq	lr, r0, r0, lsl r2
    18f0:	00191f00 	andseq	r1, r9, r0, lsl #30
    18f4:	00191100 	andseq	r1, r9, r0, lsl #2
    18f8:	00691100 	rsbeq	r1, r9, r0, lsl #2
    18fc:	300c2401 	andcc	r2, ip, r1, lsl #8
    1900:	9f000001 	svcls	0x00000001
    1904:	99000019 	stmdbls	r0, {r0, r3, r4}
    1908:	11000019 	tstne	r0, r9, lsl r0
    190c:	2401006a 	strcs	r0, [r1], #-106	; 0xffffff96
    1910:	0001300e 	andeq	r3, r1, lr
    1914:	0019ca00 	andseq	ip, r9, r0, lsl #20
    1918:	0019c800 	andseq	ip, r9, r0, lsl #16
    191c:	90c41200 	sbcls	r1, r4, r0, lsl #4
    1920:	00100000 	andseq	r0, r0, r0
    1924:	02760000 	rsbseq	r0, r6, #0, 0
    1928:	c0130000 	andsgt	r0, r3, r0
    192c:	01000003 	tsteq	r0, r3
    1930:	01b60225 			; <UNDEFINED> instruction: 0x01b60225
    1934:	14000000 	strne	r0, [r0], #-0
    1938:	00009134 	andeq	r9, r0, r4, lsr r1
    193c:	0000000c 	andeq	r0, r0, ip
    1940:	00034215 	andeq	r4, r3, r5, lsl r2
    1944:	02480100 	subeq	r0, r8, #0
    1948:	000001b6 			; <UNDEFINED> instruction: 0x000001b6
    194c:	000019df 	ldrdeq	r1, [r0], -pc	; <UNPREDICTABLE>
    1950:	000019dd 	ldrdeq	r1, [r0], -sp
    1954:	42000000 	andmi	r0, r0, #0, 0
    1958:	04000002 	streq	r0, [r0], #-2
    195c:	000a4300 	andeq	r4, sl, r0, lsl #6
    1960:	6a010400 	bvs	42968 <__bss_end__+0x38050>
    1964:	0c000000 	stceq	0, cr0, [r0], {-0}
    1968:	000003d4 	ldrdeq	r0, [r0], -r4
    196c:	000001f2 	strdeq	r0, [r0], -r2
    1970:	00009238 	andeq	r9, r0, r8, lsr r2
    1974:	0000002c 	andeq	r0, r0, ip, lsr #32
    1978:	00001949 	andeq	r1, r0, r9, asr #18
    197c:	00012c02 	andeq	r2, r1, r2, lsl #24
    1980:	31020800 	tstcc	r2, r0, lsl #16
    1984:	00004b14 	andeq	r4, r0, r4, lsl fp
    1988:	00000300 	andeq	r0, r0, r0, lsl #6
    198c:	32020000 	andcc	r0, r2, #0, 0
    1990:	00005010 	andeq	r5, r0, r0, lsl r0
    1994:	00050300 	andeq	r0, r5, r0, lsl #6
    1998:	33020000 	movwcc	r0, #8192	; 0x2000
    199c:	00006e0a 	andeq	r6, r0, sl, lsl #28
    19a0:	25040000 	strcs	r0, [r4, #-0]
    19a4:	05000000 	streq	r0, [r0, #-0]
    19a8:	00000067 	andeq	r0, r0, r7, rrx
    19ac:	00000060 	andeq	r0, r0, r0, rrx
    19b0:	00006006 	andeq	r6, r0, r6
    19b4:	07000700 	streq	r0, [r0, -r0, lsl #14]
    19b8:	01510704 	cmpeq	r1, r4, lsl #14
    19bc:	01070000 	mrseq	r0, (UNDEF: 7)
    19c0:	00002f08 	andeq	r2, r0, r8, lsl #30
    19c4:	04080700 	streq	r0, [r8], #-1792	; 0xfffff900
    19c8:	0000026b 	andeq	r0, r0, fp, ror #4
    19cc:	00004608 	andeq	r4, r0, r8, lsl #12
    19d0:	03340200 	teqeq	r4, #0, 4
    19d4:	0000004b 	andeq	r0, r0, fp, asr #32
    19d8:	00001f02 	andeq	r1, r0, r2, lsl #30
    19dc:	36020400 	strcc	r0, [r2], -r0, lsl #8
    19e0:	0000a714 	andeq	sl, r0, r4, lsl r7
    19e4:	00000300 	andeq	r0, r0, r0, lsl #6
    19e8:	37020000 	strcc	r0, [r2, -r0]
    19ec:	0000ac10 	andeq	sl, r0, r0, lsl ip
    19f0:	000a0300 	andeq	r0, sl, r0, lsl #6
    19f4:	38020000 	stmdacc	r2, {}	; <UNPREDICTABLE>
    19f8:	0000bc09 	andeq	fp, r0, r9, lsl #24
    19fc:	81040000 	mrshi	r0, (UNDEF: 4)
    1a00:	05000000 	streq	r0, [r0, #-0]
    1a04:	00000067 	andeq	r0, r0, r7, rrx
    1a08:	000000bc 	strheq	r0, [r0], -ip
    1a0c:	00006006 	andeq	r6, r0, r6
    1a10:	07000300 	streq	r0, [r0, -r0, lsl #6]
    1a14:	06b90404 	ldrteq	r0, [r9], r4, lsl #8
    1a18:	64080000 	strvs	r0, [r8], #-0
    1a1c:	02000000 	andeq	r0, r0, #0, 0
    1a20:	00a70339 	adceq	r0, r7, r9, lsr r3
    1a24:	01070000 	mrseq	r0, (UNDEF: 7)
    1a28:	00003106 	andeq	r3, r0, r6, lsl #2
    1a2c:	05020700 	streq	r0, [r2, #-1792]	; 0xfffff900
    1a30:	000001df 	ldrdeq	r0, [r0], -pc	; <UNPREDICTABLE>
    1a34:	63050407 	movwvs	r0, #21511	; 0x5407
    1a38:	07000001 	streq	r0, [r0, -r1]
    1a3c:	015e0508 	cmpeq	lr, r8, lsl #10
    1a40:	02070000 	andeq	r0, r7, #0, 0
    1a44:	00005107 	andeq	r5, r0, r7, lsl #2
    1a48:	01e90900 	mvneq	r0, r0, lsl #18
    1a4c:	34030000 	strcc	r0, [r3], #-0
    1a50:	0000fe19 	andeq	pc, r0, r9, lsl lr	; <UNPREDICTABLE>
    1a54:	07040700 	streq	r0, [r4, -r0, lsl #14]
    1a58:	0000014c 	andeq	r0, r0, ip, asr #2
    1a5c:	00023b09 	andeq	r3, r2, r9, lsl #22
    1a60:	19370300 	ldmdbne	r7!, {r8, r9}
    1a64:	00000111 	andeq	r0, r0, r1, lsl r1
    1a68:	47070807 	strmi	r0, [r7, -r7, lsl #16]
    1a6c:	0a000001 	beq	1a78 <__code_start__-0x6588>
    1a70:	6e690504 	cdpvs	5, 6, cr0, cr9, cr4, {0}
    1a74:	8d090074 	stchi	0, cr0, [r9, #-464]	; 0xfffffe30
    1a78:	04000002 	streq	r0, [r0], #-2
    1a7c:	00f21f09 	rscseq	r1, r2, r9, lsl #30
    1a80:	49090000 	stmdbmi	r9, {}	; <UNPREDICTABLE>
    1a84:	04000002 	streq	r0, [r0], #-2
    1a88:	01051f0a 	tsteq	r5, sl, lsl #30
    1a8c:	08070000 	stmdaeq	r7, {}	; <UNPREDICTABLE>
    1a90:	00026604 	andeq	r6, r2, r4, lsl #12
    1a94:	05080b00 	streq	r0, [r8, #-2816]	; 0xfffff500
    1a98:	01620344 	cmneq	r2, r4, asr #6
    1a9c:	6c0c0000 	stcvs	0, cr0, [ip], {-0}
    1aa0:	05007773 	streq	r7, [r0, #-1907]	; 0xfffff88d
    1aa4:	011f0f46 	tsteq	pc, r6, asr #30
    1aa8:	0c000000 	stceq	0, cr0, [r0], {-0}
    1aac:	0077736d 	rsbseq	r7, r7, sp, ror #6
    1ab0:	1f0f4705 	svcne	0x000f4705
    1ab4:	04000001 	streq	r0, [r0], #-1
    1ab8:	05080b00 	streq	r0, [r8, #-2816]	; 0xfffff500
    1abc:	01770349 	cmneq	r7, r9, asr #6
    1ac0:	770c0000 	strvc	r0, [ip, -r0]
    1ac4:	0f4b0500 	svceq	0x004b0500
    1ac8:	0000012b 	andeq	r0, r0, fp, lsr #2
    1acc:	080d0000 	stmdaeq	sp, {}	; <UNPREDICTABLE>
    1ad0:	a5094105 	strge	r4, [r9, #-261]	; 0xfffffefb
    1ad4:	03000001 	movweq	r0, #1
    1ad8:	00000253 	andeq	r0, r0, r3, asr r2
    1adc:	6e0a4305 	cdpvs	3, 0, cr4, cr10, cr5, {0}
    1ae0:	03000000 	movweq	r0, #0
    1ae4:	00000298 	muleq	r0, r8, r2
    1ae8:	3e054805 	cdpcc	8, 0, cr4, cr5, cr5, {0}
    1aec:	03000001 	movweq	r0, #1
    1af0:	00000297 	muleq	r0, r7, r2
    1af4:	62054c05 	andvs	r4, r5, #1280	; 0x500
    1af8:	00000001 	andeq	r0, r0, r1
    1afc:	0002ab09 	andeq	sl, r2, r9, lsl #22
    1b00:	034d0500 	movteq	r0, #54528	; 0xd500
    1b04:	00000177 	andeq	r0, r0, r7, ror r1
    1b08:	0003b20e 	andeq	fp, r3, lr, lsl #4
    1b0c:	011b0100 	tsteq	fp, r0, lsl #2
    1b10:	0000006e 	andeq	r0, r0, lr, rrx
    1b14:	00009238 	andeq	r9, r0, r8, lsr r2
    1b18:	0000002c 	andeq	r0, r0, ip, lsr #32
    1b1c:	780f9c01 	stmdavc	pc, {r0, sl, fp, ip, pc}	; <UNPREDICTABLE>
    1b20:	111b0100 	tstne	fp, r0, lsl #2
    1b24:	0000006e 	andeq	r0, r0, lr, rrx
    1b28:	000019fb 	strdeq	r1, [r0], -fp
    1b2c:	000019f7 	strdeq	r1, [r0], -r7
    1b30:	01007910 	tsteq	r0, r0, lsl r9
    1b34:	006e1b1b 	rsbeq	r1, lr, fp, lsl fp
    1b38:	90080000 	andls	r0, r8, r0
    1b3c:	90049342 	andls	r9, r4, r2, asr #6
    1b40:	11049343 	tstne	r4, r3, asr #6
    1b44:	01007868 	tsteq	r0, r8, ror #16
    1b48:	011f0c1d 	tsteq	pc, sp, lsl ip	; <UNPREDICTABLE>
    1b4c:	68110000 	ldmdavs	r1, {}	; <UNPREDICTABLE>
    1b50:	1d010079 	stcne	0, cr0, [r1, #-484]	; 0xfffffe1c
    1b54:	00011f0f 	andeq	r1, r1, pc, lsl #30
    1b58:	02141200 	andseq	r1, r4, #0, 4
    1b5c:	44130000 	ldrmi	r0, [r3], #-0
    1b60:	01000002 	tsteq	r0, r2
    1b64:	01a5021e 			; <UNDEFINED> instruction: 0x01a5021e
    1b68:	12000000 	andne	r0, r0, #0, 0
    1b6c:	00000226 	andeq	r0, r0, r6, lsr #4
    1b70:	00024413 	andeq	r4, r2, r3, lsl r4
    1b74:	021f0100 	andseq	r0, pc, #0
    1b78:	000001a5 	andeq	r0, r0, r5, lsr #3
    1b7c:	92441400 	subls	r1, r4, #0, 8
    1b80:	00180000 	andseq	r0, r8, r0
    1b84:	bb150000 	bllt	541b8c <__bss_end__+0x537274>
    1b88:	01000003 	tsteq	r0, r3
    1b8c:	01a50220 			; <UNDEFINED> instruction: 0x01a50220
    1b90:	1a270000 	bne	9c1b98 <__bss_end__+0x9b7280>
    1b94:	1a250000 	bne	941b9c <__bss_end__+0x937284>
    1b98:	00000000 	andeq	r0, r0, r0
    1b9c:	0002ee00 	andeq	lr, r2, r0, lsl #28
    1ba0:	7a000400 	bvc	2ba8 <__code_start__-0x5458>
    1ba4:	0400000b 	streq	r0, [r0], #-11
    1ba8:	00006a01 	andeq	r6, r0, r1, lsl #20
    1bac:	03e10c00 	mvneq	r0, #0, 24
    1bb0:	01f20000 	mvnseq	r0, r0
    1bb4:	92680000 	rsbls	r0, r8, #0, 0
    1bb8:	00e40000 	rsceq	r0, r4, r0
    1bbc:	1a990000 	bne	fe641bc4 <__bss_end__+0xfe6372ac>
    1bc0:	08020000 	stmdaeq	r2, {}	; <UNPREDICTABLE>
    1bc4:	00026b04 	andeq	r6, r2, r4, lsl #22
    1bc8:	012c0300 			; <UNDEFINED> instruction: 0x012c0300
    1bcc:	02080000 	andeq	r0, r8, #0, 0
    1bd0:	00521431 	subseq	r1, r2, r1, lsr r4
    1bd4:	00040000 	andeq	r0, r4, r0
    1bd8:	02000000 	andeq	r0, r0, #0, 0
    1bdc:	00571032 	subseq	r1, r7, r2, lsr r0
    1be0:	05040000 	streq	r0, [r4, #-0]
    1be4:	02000000 	andeq	r0, r0, #0, 0
    1be8:	00250a33 	eoreq	r0, r5, r3, lsr sl
    1bec:	05000000 	streq	r0, [r0, #-0]
    1bf0:	0000002c 	andeq	r0, r0, ip, lsr #32
    1bf4:	00006e06 	andeq	r6, r0, r6, lsl #28
    1bf8:	00006700 	andeq	r6, r0, r0, lsl #14
    1bfc:	00670700 	rsbeq	r0, r7, r0, lsl #14
    1c00:	00070000 	andeq	r0, r7, r0
    1c04:	51070402 	tstpl	r7, r2, lsl #8
    1c08:	02000001 	andeq	r0, r0, #1, 0
    1c0c:	002f0801 	eoreq	r0, pc, r1, lsl #16
    1c10:	46080000 	strmi	r0, [r8], -r0
    1c14:	02000000 	andeq	r0, r0, #0, 0
    1c18:	00520334 	subseq	r0, r2, r4, lsr r3
    1c1c:	1f030000 	svcne	0x00030000
    1c20:	04000000 	streq	r0, [r0], #-0
    1c24:	a7143602 	ldrge	r3, [r4, -r2, lsl #12]
    1c28:	04000000 	streq	r0, [r0], #-0
    1c2c:	00000000 	andeq	r0, r0, r0
    1c30:	ac103702 	ldcge	7, cr3, [r0], {2}
    1c34:	04000000 	streq	r0, [r0], #-0
    1c38:	0000000a 	andeq	r0, r0, sl
    1c3c:	bc093802 	stclt	8, cr3, [r9], {2}
    1c40:	00000000 	andeq	r0, r0, r0
    1c44:	00008105 	andeq	r8, r0, r5, lsl #2
    1c48:	006e0600 	rsbeq	r0, lr, r0, lsl #12
    1c4c:	00bc0000 	adcseq	r0, ip, r0
    1c50:	67070000 	strvs	r0, [r7, -r0]
    1c54:	03000000 	movweq	r0, #0
    1c58:	04040200 	streq	r0, [r4], #-512	; 0xfffffe00
    1c5c:	000006b9 			; <UNDEFINED> instruction: 0x000006b9
    1c60:	00006408 	andeq	r6, r0, r8, lsl #8
    1c64:	03390200 	teqeq	r9, #0, 4
    1c68:	000000a7 	andeq	r0, r0, r7, lsr #1
    1c6c:	31060102 	tstcc	r6, r2, lsl #2
    1c70:	02000000 	andeq	r0, r0, #0, 0
    1c74:	01df0502 	bicseq	r0, pc, r2, lsl #10
    1c78:	8f090000 	svchi	0x00090000
    1c7c:	03000002 	movweq	r0, #2
    1c80:	00e91828 	rsceq	r1, r9, r8, lsr #16
    1c84:	04020000 	streq	r0, [r2], #-0
    1c88:	00016305 	andeq	r6, r1, r5, lsl #6
    1c8c:	05080200 	streq	r0, [r8, #-512]	; 0xfffffe00
    1c90:	0000015e 	andeq	r0, r0, lr, asr r1
    1c94:	51070202 	tstpl	r7, r2, lsl #4
    1c98:	09000000 	stmdbeq	r0, {}	; <UNPREDICTABLE>
    1c9c:	000001e9 	andeq	r0, r0, r9, ror #3
    1ca0:	0a193403 	beq	64ecb4 <__bss_end__+0x64439c>
    1ca4:	02000001 	andeq	r0, r0, #1, 0
    1ca8:	014c0704 	cmpeq	ip, r4, lsl #14
    1cac:	3b090000 	blcc	241cb4 <__bss_end__+0x23739c>
    1cb0:	03000002 	movweq	r0, #2
    1cb4:	011d1937 	tsteq	sp, r7, lsr r9
    1cb8:	08020000 	stmdaeq	r2, {}	; <UNPREDICTABLE>
    1cbc:	00014707 	andeq	r4, r1, r7, lsl #14
    1cc0:	05040a00 	streq	r0, [r4, #-2560]	; 0xfffff600
    1cc4:	00746e69 	rsbseq	r6, r4, r9, ror #28
    1cc8:	00028d09 	andeq	r8, r2, r9, lsl #26
    1ccc:	1f090400 	svcne	0x00090400
    1cd0:	000000fe 	strdeq	r0, [r0], -lr
    1cd4:	00024909 	andeq	r4, r2, r9, lsl #18
    1cd8:	1f0a0400 	svcne	0x000a0400
    1cdc:	00000111 	andeq	r0, r0, r1, lsl r1
    1ce0:	66040802 	strvs	r0, [r4], -r2, lsl #16
    1ce4:	0b000002 	bleq	1cf4 <__code_start__-0x630c>
    1ce8:	03440508 	movteq	r0, #17672	; 0x4508
    1cec:	0000016e 	andeq	r0, r0, lr, ror #2
    1cf0:	77736c0c 	ldrbvc	r6, [r3, -ip, lsl #24]!
    1cf4:	0f460500 	svceq	0x00460500
    1cf8:	0000012b 	andeq	r0, r0, fp, lsr #2
    1cfc:	736d0c00 	cmnvc	sp, #0, 24
    1d00:	47050077 	smlsdxmi	r5, r7, r0, r0
    1d04:	00012b0f 	andeq	r2, r1, pc, lsl #22
    1d08:	0b000400 	bleq	2d10 <__code_start__-0x52f0>
    1d0c:	03490508 	movteq	r0, #38152	; 0x9508
    1d10:	00000183 	andeq	r0, r0, r3, lsl #3
    1d14:	0500770c 	streq	r7, [r0, #-1804]	; 0xfffff8f4
    1d18:	01370f4b 	teqeq	r7, fp, asr #30
    1d1c:	00000000 	andeq	r0, r0, r0
    1d20:	4105080d 	tstmi	r5, sp, lsl #16
    1d24:	0001b109 	andeq	fp, r1, r9, lsl #2
    1d28:	02530400 	subseq	r0, r3, #0, 8
    1d2c:	43050000 	movwmi	r0, #20480	; 0x5000
    1d30:	0000250a 	andeq	r2, r0, sl, lsl #10
    1d34:	02980400 	addseq	r0, r8, #0, 8
    1d38:	48050000 	stmdami	r5, {}	; <UNPREDICTABLE>
    1d3c:	00014a05 	andeq	r4, r1, r5, lsl #20
    1d40:	02970400 	addseq	r0, r7, #0, 8
    1d44:	4c050000 	stcmi	0, cr0, [r5], {-0}
    1d48:	00016e05 	andeq	r6, r1, r5, lsl #28
    1d4c:	ab090000 	blge	241d54 <__bss_end__+0x23743c>
    1d50:	05000002 	streq	r0, [r0, #-2]
    1d54:	0183034d 	orreq	r0, r3, sp, asr #6
    1d58:	730e0000 	movwvc	r0, #57344	; 0xe000
    1d5c:	01006e69 	tsteq	r0, r9, ror #28
    1d60:	00250137 	eoreq	r0, r5, r7, lsr r1
    1d64:	92680000 	rsbls	r0, r8, #0, 0
    1d68:	00e40000 	rsceq	r0, r4, r0
    1d6c:	9c010000 	stcls	0, cr0, [r1], {-0}
    1d70:	000002ba 			; <UNDEFINED> instruction: 0x000002ba
    1d74:	0100780f 	tsteq	r0, pc, lsl #16
    1d78:	00250c37 	eoreq	r0, r5, r7, lsr ip
    1d7c:	1a4b0000 	bne	12c1d84 <__bss_end__+0x12b746c>
    1d80:	1a3f0000 	bne	fc1d88 <__bss_end__+0xfb7470>
    1d84:	79100000 	ldmdbvc	r0, {}	; <UNPREDICTABLE>
    1d88:	09390100 	ldmdbeq	r9!, {r8}
    1d8c:	000002ba 			; <UNDEFINED> instruction: 0x000002ba
    1d90:	11689102 	cmnne	r8, r2, lsl #2
    1d94:	3901007a 	stmdbcc	r1, {r1, r3, r4, r5, r6}
    1d98:	0000250e 	andeq	r2, r0, lr, lsl #10
    1d9c:	00000800 	andeq	r0, r0, r0, lsl #16
    1da0:	00000000 	andeq	r0, r0, r0
    1da4:	6e120000 	cdpvs	0, 1, cr0, cr2, cr0, {0}
    1da8:	0a3a0100 	beq	e821b0 <__bss_end__+0xe77898>
    1dac:	000000dd 	ldrdeq	r0, [r0], -sp
    1db0:	00001abb 			; <UNDEFINED> instruction: 0x00001abb
    1db4:	00001ab9 			; <UNDEFINED> instruction: 0x00001ab9
    1db8:	00786912 	rsbseq	r6, r8, r2, lsl r9
    1dbc:	dd0d3a01 	vstrle	s6, [sp, #-4]
    1dc0:	d4000000 	strle	r0, [r0], #-0
    1dc4:	ce00001a 	mcrgt	0, 0, r0, cr0, cr10, {0}
    1dc8:	1300001a 	movwne	r0, #26
    1dcc:	00009270 	andeq	r9, r0, r0, ror r2
    1dd0:	00000004 	andeq	r0, r0, r4
    1dd4:	00000248 	andeq	r0, r0, r8, asr #4
    1dd8:	00024414 	andeq	r4, r2, r4, lsl r4
    1ddc:	023d0100 	eorseq	r0, sp, #0
    1de0:	000001b1 			; <UNDEFINED> instruction: 0x000001b1
    1de4:	92ac1500 	adcls	r1, ip, #0, 10
    1de8:	02ca0000 	sbceq	r0, sl, #0, 0
    1dec:	02710000 	rsbseq	r0, r1, #0, 0
    1df0:	08160000 	ldmdaeq	r6, {}	; <UNPREDICTABLE>
    1df4:	04934290 	ldreq	r4, [r3], #656	; 0x290
    1df8:	04934390 	ldreq	r4, [r3], #912	; 0x390
    1dfc:	0825f40b 	stmdaeq	r5!, {r0, r1, r3, sl, ip, sp, lr, pc}
	...
    1e08:	01500116 	cmpeq	r0, r6, lsl r1
    1e0c:	cc150030 	ldcgt	0, cr0, [r5], {48}	; 0x30
    1e10:	d7000092 			; <UNDEFINED> instruction: 0xd7000092
    1e14:	85000002 	strhi	r0, [r0, #-2]
    1e18:	16000002 	strne	r0, [r0], -r2
    1e1c:	7d025001 	stcvc	0, cr5, [r2, #-4]
    1e20:	f4170000 			; <UNDEFINED> instruction: 0xf4170000
    1e24:	e4000092 	str	r0, [r0], #-146	; 0xffffff6e
    1e28:	15000002 	strne	r0, [r0, #-2]
    1e2c:	0000930c 	andeq	r9, r0, ip, lsl #6
    1e30:	000002ca 	andeq	r0, r0, sl, asr #5
    1e34:	000002a1 	andeq	r0, r0, r1, lsr #5
    1e38:	01500116 	cmpeq	r0, r6, lsl r1
    1e3c:	1c170031 	ldcne	0, cr0, [r7], {49}	; 0x31
    1e40:	e4000093 	str	r0, [r0], #-147	; 0xffffff6d
    1e44:	18000002 	stmdane	r0, {r1}
    1e48:	00009330 	andeq	r9, r0, r0, lsr r3
    1e4c:	000002ca 	andeq	r0, r0, sl, asr #5
    1e50:	01500116 	cmpeq	r0, r6, lsl r1
    1e54:	06000031 			; <UNDEFINED> instruction: 0x06000031
    1e58:	00000025 	andeq	r0, r0, r5, lsr #32
    1e5c:	000002ca 	andeq	r0, r0, sl, asr #5
    1e60:	00006707 	andeq	r6, r0, r7, lsl #14
    1e64:	19000100 	stmdbne	r0, {r8}
    1e68:	00000259 	andeq	r0, r0, r9, asr r2
    1e6c:	00000259 	andeq	r0, r0, r9, asr r2
    1e70:	08014605 	stmdaeq	r1, {r0, r2, r9, sl, lr}
    1e74:	00027219 	andeq	r7, r2, r9, lsl r2
    1e78:	00027200 	andeq	r7, r2, r0, lsl #4
    1e7c:	01450500 	cmpeq	r5, r0, lsl #10
    1e80:	029e1905 	addseq	r1, lr, #81920	; 0x14000
    1e84:	029e0000 	addseq	r0, lr, #0, 0
    1e88:	47050000 	strmi	r0, [r5, -r0]
    1e8c:	9d000801 	stcls	8, cr0, [r0, #-4]
    1e90:	04000001 	streq	r0, [r0], #-1
    1e94:	000cf200 	andeq	pc, ip, r0, lsl #4
    1e98:	07010400 	streq	r0, [r1, -r0, lsl #8]
    1e9c:	0c000004 	stceq	0, cr0, [r0], {4}
    1ea0:	00000542 	andeq	r0, r0, r2, asr #10
    1ea4:	000004fe 	strdeq	r0, [r0], -lr
    1ea8:	0000934c 	andeq	r9, r0, ip, asr #6
    1eac:	00000058 	andeq	r0, r0, r8, asr r0
    1eb0:	00001c55 	andeq	r1, r0, r5, asr ip
    1eb4:	0003f802 	andeq	pc, r3, r2, lsl #16
    1eb8:	1b280200 	blne	a026c0 <__bss_end__+0x9f7da8>
    1ebc:	00000031 	andeq	r0, r0, r1, lsr r0
    1ec0:	00055203 	andeq	r5, r5, r3, lsl #4
    1ec4:	00040400 	andeq	r0, r4, r0, lsl #8
    1ec8:	00000048 	andeq	r0, r0, r8, asr #32
    1ecc:	0004f904 	andeq	pc, r4, r4, lsl #18
    1ed0:	00004800 	andeq	r4, r0, r0, lsl #16
    1ed4:	05000000 	streq	r0, [r0, #-0]
    1ed8:	05540204 	ldrbeq	r0, [r4, #-516]	; 0xfffffdfc
    1edc:	63020000 	movwvs	r0, #8192	; 0x2000
    1ee0:	00002518 	andeq	r2, r0, r8, lsl r5
    1ee4:	05040600 	streq	r0, [r4, #-1536]	; 0xfffffa00
    1ee8:	00746e69 	rsbseq	r6, r4, r9, ror #28
    1eec:	51070407 	tstpl	r7, r7, lsl #8
    1ef0:	07000001 	streq	r0, [r0, -r1]
    1ef4:	00310601 	eorseq	r0, r1, r1, lsl #12
    1ef8:	02070000 	andeq	r0, r7, #0, 0
    1efc:	0001df05 	andeq	sp, r1, r5, lsl #30
    1f00:	05040700 	streq	r0, [r4, #-1792]	; 0xfffff900
    1f04:	00000163 	andeq	r0, r0, r3, ror #2
    1f08:	5e050807 	cdppl	8, 0, cr0, cr5, cr7, {0}
    1f0c:	07000001 	streq	r0, [r0, -r1]
    1f10:	002f0801 	eoreq	r0, pc, r1, lsl #16
    1f14:	02070000 	andeq	r0, r7, #0, 0
    1f18:	00005107 	andeq	r5, r0, r7, lsl #2
    1f1c:	07040700 	streq	r0, [r4, -r0, lsl #14]
    1f20:	0000014c 	andeq	r0, r0, ip, asr #2
    1f24:	47070807 	strmi	r0, [r7, -r7, lsl #16]
    1f28:	08000001 	stmdaeq	r0, {r0}
    1f2c:	00000056 	andeq	r0, r0, r6, asr r0
    1f30:	000000ab 	andeq	r0, r0, fp, lsr #1
    1f34:	00005609 	andeq	r5, r0, r9, lsl #12
    1f38:	6c0a0000 	stcvs	0, cr0, [sl], {-0}
    1f3c:	03000001 	movweq	r0, #1
    1f40:	00b70e1c 	adcseq	r0, r7, ip, lsl lr
    1f44:	040b0000 	streq	r0, [fp], #-0
    1f48:	0000009c 	muleq	r0, ip, r0
    1f4c:	00005608 	andeq	r5, r0, r8, lsl #12
    1f50:	0000cc00 	andeq	ip, r0, r0, lsl #24
    1f54:	00cc0900 	sbceq	r0, ip, r0, lsl #18
    1f58:	0b000000 	bleq	1f60 <__code_start__-0x60a0>
    1f5c:	0000d904 	andeq	sp, r0, r4, lsl #18
    1f60:	08010700 	stmdaeq	r1, {r8, r9, sl}
    1f64:	00000038 	andeq	r0, r0, r8, lsr r0
    1f68:	0000d20c 	andeq	sp, r0, ip, lsl #4
    1f6c:	05650a00 	strbeq	r0, [r5, #-2560]!	; 0xfffff600
    1f70:	21030000 	mrscs	r0, (UNDEF: 3)
    1f74:	0000ea0e 	andeq	lr, r0, lr, lsl #20
    1f78:	bd040b00 	vstrlt	d0, [r4, #-0]
    1f7c:	0d000000 	stceq	0, cr0, [r0, #-0]
    1f80:	000003f1 	strdeq	r0, [r0], -r1
    1f84:	56050601 	strpl	r0, [r5], -r1, lsl #12
    1f88:	4c000000 	stcmi	0, cr0, [r0], {-0}
    1f8c:	58000093 	stmdapl	r0, {r0, r1, r4, r7}
    1f90:	01000000 	mrseq	r0, (UNDEF: 0)
    1f94:	0001839c 	muleq	r1, ip, r3
    1f98:	6d660e00 	stclvs	14, cr0, [r6, #-0]
    1f9c:	06010074 			; <UNDEFINED> instruction: 0x06010074
    1fa0:	0000cc18 	andeq	ip, r0, r8, lsl ip
    1fa4:	70910200 	addsvc	r0, r1, r0, lsl #4
    1fa8:	7562100f 	strbvc	r1, [r2, #-15]!
    1fac:	08010066 	stmdaeq	r1, {r1, r2, r5, r6}
    1fb0:	00018311 	andeq	r8, r1, r1, lsl r3
    1fb4:	14030500 	strne	r0, [r3], #-1280	; 0xfffffb00
    1fb8:	110000a5 	smlatbne	r0, r5, r0, r0
    1fbc:	000003e9 	andeq	r0, r0, r9, ror #7
    1fc0:	4a0d0901 	bmi	3443cc <__bss_end__+0x339ab4>
    1fc4:	02000000 	andeq	r0, r0, #0, 0
    1fc8:	73125c91 	tstvc	r2, #37120	; 0x9100
    1fcc:	0c01007a 	stceq	0, cr0, [r1], {122}	; 0x7a
    1fd0:	0000560d 	andeq	r5, r0, sp, lsl #12
    1fd4:	001b0c00 	andseq	r0, fp, r0, lsl #24
    1fd8:	001b0600 	andseq	r0, fp, r0, lsl #12
    1fdc:	93741300 	cmnls	r4, #0, 6
    1fe0:	01940000 	orrseq	r0, r4, r0
    1fe4:	01760000 	cmneq	r6, r0
    1fe8:	01140000 	tsteq	r4, r0
    1fec:	00750250 	rsbseq	r0, r5, r0, asr r2
    1ff0:	03510114 	cmpeq	r1, #5
    1ff4:	1404000a 	strne	r0, [r4], #-10
    1ff8:	91035201 	tstls	r3, r1, lsl #4
    1ffc:	01140648 	tsteq	r4, r8, asr #12
    2000:	4c910253 	lfmmi	f0, 4, [r1], {83}	; 0x53
    2004:	93881500 	orrls	r1, r8, #0, 10
    2008:	01140000 	tsteq	r4, r0
    200c:	00750250 	rsbseq	r0, r5, r0, asr r2
    2010:	d2160000 	andsle	r0, r6, #0, 0
    2014:	94000000 	strls	r0, [r0], #-0
    2018:	17000001 	strne	r0, [r0, -r1]
    201c:	0000005d 	andeq	r0, r0, sp, asr r0
    2020:	180003ff 	stmdane	r0, {r0, r1, r2, r3, r4, r5, r6, r7, r8, r9}
    2024:	000003ee 	andeq	r0, r0, lr, ror #7
    2028:	000003ee 	andeq	r0, r0, lr, ror #7
    202c:	00050205 	andeq	r0, r5, r5, lsl #4
    2030:	000000f3 	strdeq	r0, [r0], -r3
    2034:	0e340004 	cdpeq	0, 3, cr0, cr4, cr4, {0}
    2038:	01040000 	mrseq	r0, (UNDEF: 4)
    203c:	00000407 	andeq	r0, r0, r7, lsl #8
    2040:	00056a0c 	andeq	r6, r5, ip, lsl #20
    2044:	0004fe00 	andeq	pc, r4, r0, lsl #28
    2048:	0093a400 	addseq	sl, r3, r0, lsl #8
    204c:	00003400 	andeq	r3, r0, r0, lsl #8
    2050:	001d8800 	andseq	r8, sp, r0, lsl #16
    2054:	05040200 	streq	r0, [r4, #-512]	; 0xfffffe00
    2058:	00746e69 	rsbseq	r6, r4, r9, ror #28
    205c:	51070403 	tstpl	r7, r3, lsl #8
    2060:	03000001 	movweq	r0, #1
    2064:	00310601 	eorseq	r0, r1, r1, lsl #12
    2068:	02030000 	andeq	r0, r3, #0, 0
    206c:	0001df05 	andeq	sp, r1, r5, lsl #30
    2070:	05040300 	streq	r0, [r4, #-768]	; 0xfffffd00
    2074:	00000163 	andeq	r0, r0, r3, ror #2
    2078:	5e050803 	cdppl	8, 0, cr0, cr5, cr3, {0}
    207c:	03000001 	movweq	r0, #1
    2080:	002f0801 	eoreq	r0, pc, r1, lsl #16
    2084:	02030000 	andeq	r0, r3, #0, 0
    2088:	00005107 	andeq	r5, r0, r7, lsl #2
    208c:	07040300 	streq	r0, [r4, -r0, lsl #6]
    2090:	0000014c 	andeq	r0, r0, ip, asr #2
    2094:	47070803 	strmi	r0, [r7, -r3, lsl #16]
    2098:	04000001 	streq	r0, [r0], #-1
    209c:	00000025 	andeq	r0, r0, r5, lsr #32
    20a0:	0000007a 	andeq	r0, r0, sl, ror r0
    20a4:	00002505 	andeq	r2, r0, r5, lsl #10
    20a8:	6c060000 	stcvs	0, cr0, [r6], {-0}
    20ac:	02000001 	andeq	r0, r0, #1, 0
    20b0:	00860e1c 	addeq	r0, r6, ip, lsl lr
    20b4:	04070000 	streq	r0, [r7], #-0
    20b8:	0000006b 	andeq	r0, r0, fp, rrx
    20bc:	00002504 	andeq	r2, r0, r4, lsl #10
    20c0:	00009b00 	andeq	r9, r0, r0, lsl #22
    20c4:	009b0500 	addseq	r0, fp, r0, lsl #10
    20c8:	07000000 	streq	r0, [r0, -r0]
    20cc:	0000a804 	andeq	sl, r0, r4, lsl #16
    20d0:	08010300 	stmdaeq	r1, {r8, r9}
    20d4:	00000038 	andeq	r0, r0, r8, lsr r0
    20d8:	0000a108 	andeq	sl, r0, r8, lsl #2
    20dc:	05650600 	strbeq	r0, [r5, #-1536]!	; 0xfffffa00
    20e0:	21020000 	mrscs	r0, (UNDEF: 2)
    20e4:	0000b90e 	andeq	fp, r0, lr, lsl #18
    20e8:	8c040700 	stchi	7, cr0, [r4], {-0}
    20ec:	09000000 	stmdbeq	r0, {}	; <UNPREDICTABLE>
    20f0:	000000ad 	andeq	r0, r0, sp, lsr #1
    20f4:	05070c01 	streq	r0, [r7, #-3073]	; 0xfffff3ff
    20f8:	00a50c03 	adceq	r0, r5, r3, lsl #24
    20fc:	055c0a00 	ldrbeq	r0, [ip, #-2560]	; 0xfffff600
    2100:	04010000 	streq	r0, [r1], #-0
    2104:	00002505 	andeq	r2, r0, r5, lsl #10
    2108:	0093a400 	addseq	sl, r3, r0, lsl #8
    210c:	00003400 	andeq	r3, r0, r0, lsl #8
    2110:	0b9c0100 	bleq	fe702518 <__bss_end__+0xfe6f7c00>
    2114:	04010070 	streq	r0, [r1], #-112	; 0xffffff90
    2118:	00009b1f 	andeq	r9, r0, pc, lsl fp
    211c:	001b3900 	andseq	r3, fp, r0, lsl #18
    2120:	001b3500 	andseq	r3, fp, r0, lsl #10
    2124:	45000000 	strmi	r0, [r0, #-0]
    2128:	0400000d 	streq	r0, [r0], #-13
    212c:	000ed200 	andeq	sp, lr, r0, lsl #4
    2130:	07010400 	streq	r0, [r1, -r0, lsl #8]
    2134:	0c000004 	stceq	0, cr0, [r0], {4}
    2138:	0000058c 	andeq	r0, r0, ip, lsl #11
    213c:	000004fe 	strdeq	r0, [r0], -lr
    2140:	000093d8 	ldrdeq	r9, [r0], -r8
    2144:	000008c8 	andeq	r0, r0, r8, asr #17
    2148:	00001e53 	andeq	r1, r0, r3, asr lr
    214c:	6b040802 	blvs	10415c <__bss_end__+0xf9844>
    2150:	03000002 	movweq	r0, #2
    2154:	6e690504 	cdpvs	5, 6, cr0, cr9, cr4, {0}
    2158:	04020074 	streq	r0, [r2], #-116	; 0xffffff8c
    215c:	00015107 	andeq	r5, r1, r7, lsl #2
    2160:	00330400 	eorseq	r0, r3, r0, lsl #8
    2164:	01020000 	mrseq	r0, (UNDEF: 2)
    2168:	00003106 	andeq	r3, r0, r6, lsl #2
    216c:	05020200 	streq	r0, [r2, #-512]	; 0xfffffe00
    2170:	000001df 	ldrdeq	r0, [r0], -pc	; <UNPREDICTABLE>
    2174:	63050402 	movwvs	r0, #21506	; 0x5402
    2178:	02000001 	andeq	r0, r0, #1, 0
    217c:	015e0508 	cmpeq	lr, r8, lsl #10
    2180:	01020000 	mrseq	r0, (UNDEF: 2)
    2184:	00002f08 	andeq	r2, r0, r8, lsl #30
    2188:	07020200 	streq	r0, [r2, -r0, lsl #4]
    218c:	00000051 	andeq	r0, r0, r1, asr r0
    2190:	0001e905 	andeq	lr, r1, r5, lsl #18
    2194:	19340200 	ldmdbne	r4!, {r9}
    2198:	00000075 	andeq	r0, r0, r5, ror r0
    219c:	4c070402 	cfstrsmi	mvf0, [r7], {2}
    21a0:	05000001 	streq	r0, [r0, #-1]
    21a4:	0000023b 	andeq	r0, r0, fp, lsr r2
    21a8:	88193702 	ldmdahi	r9, {r1, r8, r9, sl, ip, sp}
    21ac:	02000000 	andeq	r0, r0, #0, 0
    21b0:	01470708 	cmpeq	r7, r8, lsl #14
    21b4:	2c060000 	stccs	0, cr0, [r6], {-0}
    21b8:	9e000000 	cdpls	0, 0, cr0, cr0, cr0, {0}
    21bc:	07000000 	streq	r0, [r0, -r0]
    21c0:	0000002c 	andeq	r0, r0, ip, lsr #32
    21c4:	016c0800 	cmneq	ip, r0, lsl #16
    21c8:	1c030000 	stcne	0, cr0, [r3], {-0}
    21cc:	0000aa0e 	andeq	sl, r0, lr, lsl #20
    21d0:	8f040900 	svchi	0x00040900
    21d4:	06000000 	streq	r0, [r0], -r0
    21d8:	0000002c 	andeq	r0, r0, ip, lsr #32
    21dc:	000000bf 	strheq	r0, [r0], -pc	; <UNPREDICTABLE>
    21e0:	0000bf07 	andeq	fp, r0, r7, lsl #30
    21e4:	04090000 	streq	r0, [r9], #-0
    21e8:	000000cc 	andeq	r0, r0, ip, asr #1
    21ec:	38080102 	stmdacc	r8, {r1, r8}
    21f0:	04000000 	streq	r0, [r0], #-0
    21f4:	000000c5 	andeq	r0, r0, r5, asr #1
    21f8:	00056508 	andeq	r6, r5, r8, lsl #10
    21fc:	0e210300 	cdpeq	3, 2, cr0, cr1, cr0, {0}
    2200:	000000dd 	ldrdeq	r0, [r0], -sp
    2204:	00b00409 	adcseq	r0, r0, r9, lsl #8
    2208:	a8080000 	stmdage	r8, {}	; <UNPREDICTABLE>
    220c:	04000005 	streq	r0, [r0], #-5
    2210:	00c50d0b 	sbceq	r0, r5, fp, lsl #26
    2214:	52080000 	andpl	r0, r8, #0, 0
    2218:	04000006 	streq	r0, [r0], #-6
    221c:	00c50d0c 	sbceq	r0, r5, ip, lsl #26
    2220:	b7080000 	strlt	r0, [r8, -r0]
    2224:	04000005 	streq	r0, [r0], #-5
    2228:	00c50d0d 	sbceq	r0, r5, sp, lsl #26
    222c:	0a080000 	beq	202234 <__bss_end__+0x1f791c>
    2230:	04000006 	streq	r0, [r0], #-6
    2234:	00c50d0e 	sbceq	r0, r5, lr, lsl #26
    2238:	7b080000 	blvc	202240 <__bss_end__+0x1f7928>
    223c:	04000006 	streq	r0, [r0], #-6
    2240:	00c50d0f 	sbceq	r0, r5, pc, lsl #26
    2244:	f5080000 			; <UNDEFINED> instruction: 0xf5080000
    2248:	04000005 	streq	r0, [r0], #-5
    224c:	00c50d10 	sbceq	r0, r5, r0, lsl sp
    2250:	8a080000 	bhi	202258 <__bss_end__+0x1f7940>
    2254:	04000006 	streq	r0, [r0], #-6
    2258:	00c50d11 	sbceq	r0, r5, r1, lsl sp
    225c:	16080000 	strne	r0, [r8], -r0
    2260:	04000006 	streq	r0, [r0], #-6
    2264:	00c50d12 	sbceq	r0, r5, r2, lsl sp
    2268:	f8050000 			; <UNDEFINED> instruction: 0xf8050000
    226c:	05000003 	streq	r0, [r0, #-3]
    2270:	014f1b28 	cmpeq	pc, r8, lsr #22
    2274:	520a0000 	andpl	r0, sl, #0, 0
    2278:	04000005 	streq	r0, [r0], #-5
    227c:	01660006 	cmneq	r6, r6
    2280:	f90b0000 			; <UNDEFINED> instruction: 0xf90b0000
    2284:	66000004 	strvs	r0, [r0], -r4
    2288:	00000001 	andeq	r0, r0, r1
    228c:	05040c00 	streq	r0, [r4, #-3072]	; 0xfffff400
    2290:	00000554 	andeq	r0, r0, r4, asr r5
    2294:	43186305 	tstmi	r8, #335544320	; 0x14000000
    2298:	0d000001 	stceq	0, cr0, [r0, #-4]
    229c:	000006b2 			; <UNDEFINED> instruction: 0x000006b2
    22a0:	08010301 	stmdaeq	r1, {r0, r8, r9}
    22a4:	00000334 	andeq	r0, r0, r4, lsr r3
    22a8:	000096d0 	ldrdeq	r9, [r0], -r0
    22ac:	00000108 	andeq	r0, r0, r8, lsl #2
    22b0:	03349c01 	teqeq	r4, #256	; 0x100
    22b4:	6e0e0000 	cdpvs	0, 0, cr0, cr14, cr0, {0}
    22b8:	01006d75 	tsteq	r0, r5, ror sp
    22bc:	341b0103 	ldrcc	r0, [fp], #-259	; 0xfffffefd
    22c0:	61000003 	tstvs	r0, r3
    22c4:	5700001b 	smladpl	r0, fp, r0, r0
    22c8:	0e00001b 	mcreq	0, 0, r0, cr0, cr11, {0}
    22cc:	03010064 	movweq	r0, #4196	; 0x1064
    22d0:	00252701 	eoreq	r2, r5, r1, lsl #14
    22d4:	1ba80000 	blne	fea022dc <__bss_end__+0xfe9f79c4>
    22d8:	1ba00000 	blne	fe8022e0 <__bss_end__+0xfe7f79c8>
    22dc:	c50f0000 	strgt	r0, [pc, #-0]	; 22e4 <__code_start__-0x5d1c>
    22e0:	01000005 	tsteq	r0, r5
    22e4:	33330103 	teqcc	r3, #-1073741824	; 0xc0000000
    22e8:	02000000 	andeq	r0, r0, #0, 0
    22ec:	f800001c 			; <UNDEFINED> instruction: 0xf800001c
    22f0:	1000001b 	andne	r0, r0, fp, lsl r0
    22f4:	04010070 	streq	r0, [r1], #-112	; 0xffffff90
    22f8:	03340801 	teqeq	r4, #65536	; 0x10000
    22fc:	1c4e0000 	marne	acc0, r0, lr
    2300:	1c440000 	marne	acc0, r0, r4
    2304:	7f110000 	svcvc	0x00110000
    2308:	01000005 	tsteq	r0, r5
    230c:	330b010c 	movwcc	r0, #45324	; 0xb10c
    2310:	95000000 	strls	r0, [r0, #-0]
    2314:	8f00001c 	svchi	0x0000001c
    2318:	1100001c 	tstne	r0, ip, lsl r0
    231c:	000005d2 	ldrdeq	r0, [r0], -r2
    2320:	06010d01 	streq	r0, [r1], -r1, lsl #26
    2324:	0000002c 	andeq	r0, r0, ip, lsr #32
    2328:	00001cc2 	andeq	r1, r0, r2, asr #25
    232c:	00001cbe 			; <UNDEFINED> instruction: 0x00001cbe
    2330:	706d7412 	rsbvc	r7, sp, r2, lsl r4
    2334:	010f0100 	mrseq	r0, (UNDEF: 31)
    2338:	00033a07 	andeq	r3, r3, r7, lsl #20
    233c:	e0910300 	adds	r0, r1, r0, lsl #6
    2340:	059f117e 	ldreq	r1, [pc, #382]	; 24c6 <__code_start__-0x5b3a>
    2344:	15010000 	strne	r0, [r1, #-0]
    2348:	003a1101 	eorseq	r1, sl, r1, lsl #2
    234c:	1ce40000 	stclne	0, cr0, [r4]
    2350:	1ce00000 	stclne	0, cr0, [r0]
    2354:	28130000 	ldmdacs	r3, {}	; <UNPREDICTABLE>
    2358:	4c000000 	stcmi	0, cr0, [r0], {-0}
    235c:	10000002 	andne	r0, r0, r2
    2360:	19010069 	stmdbne	r1, {r0, r3, r5, r6}
    2364:	002c0a01 	eoreq	r0, ip, r1, lsl #20
    2368:	1d080000 	stcne	0, cr0, [r8, #-0]
    236c:	1d040000 	stcne	0, cr0, [r4, #-0]
    2370:	14000000 	strne	r0, [r0], #-0
    2374:	00009708 	andeq	r9, r0, r8, lsl #14
    2378:	00000391 	muleq	r0, r1, r3
    237c:	00000268 	andeq	r0, r0, r8, ror #4
    2380:	40900815 	addsmi	r0, r0, r5, lsl r8
    2384:	41900493 			; <UNDEFINED> instruction: 0x41900493
    2388:	f5030493 			; <UNDEFINED> instruction: 0xf5030493
    238c:	14002550 	strne	r2, [r0], #-1360	; 0xfffffab0
    2390:	00009714 	andeq	r9, r0, r4, lsl r7
    2394:	0000034a 	andeq	r0, r0, sl, asr #6
    2398:	00000284 	andeq	r0, r0, r4, lsl #5
    239c:	40900815 	addsmi	r0, r0, r5, lsl r8
    23a0:	41900493 			; <UNDEFINED> instruction: 0x41900493
    23a4:	f5030493 			; <UNDEFINED> instruction: 0xf5030493
    23a8:	14002550 	strne	r2, [r0], #-1360	; 0xfffffab0
    23ac:	00009734 	andeq	r9, r0, r4, lsr r7
    23b0:	000009b0 			; <UNDEFINED> instruction: 0x000009b0
    23b4:	000002b1 			; <UNDEFINED> instruction: 0x000002b1
    23b8:	01500115 	cmpeq	r0, r5, lsl r1
    23bc:	5101153a 	tstpl	r1, sl, lsr r5
    23c0:	7ed89103 	atnvce	f1, f3
    23c4:	02520115 	subseq	r0, r2, #1073741829	; 0x40000005
    23c8:	02158008 	andseq	r8, r5, #8, 0
    23cc:	7802007d 	stmdavc	r2, {r0, r2, r3, r4, r5, r6}
    23d0:	7d021500 	cfstr32vc	mvfx1, [r2, #-0]
    23d4:	00310104 	eorseq	r0, r1, r4, lsl #2
    23d8:	00974014 	addseq	r4, r7, r4, lsl r0
    23dc:	000d0000 	andeq	r0, sp, r0
    23e0:	0002cc00 	andeq	ip, r2, r0, lsl #24
    23e4:	50011500 	andpl	r1, r1, r0, lsl #10
    23e8:	15007502 	strne	r7, [r0, #-1282]	; 0xfffffafe
    23ec:	91035101 	tstls	r3, r1, lsl #2
    23f0:	14007ed8 	strne	r7, [r0], #-3800	; 0xfffff128
    23f4:	0000974c 	andeq	r9, r0, ip, asr #14
    23f8:	00000d00 	andeq	r0, r0, r0, lsl #26
    23fc:	000002e9 	andeq	r0, r0, r9, ror #5
    2400:	02500115 	subseq	r0, r0, #1073741829	; 0x40000005
    2404:	01150075 	tsteq	r5, r5, ror r0
    2408:	00030551 	andeq	r0, r3, r1, asr r5
    240c:	000000a4 	andeq	r0, r0, r4, lsr #1
    2410:	00976c14 	addseq	r6, r7, r4, lsl ip
    2414:	0009b000 	andeq	fp, r9, r0
    2418:	00031c00 	andeq	r1, r3, r0, lsl #24
    241c:	50011500 	andpl	r1, r1, r0, lsl #10
    2420:	01153a01 	tsteq	r5, r1, lsl #20
    2424:	d8910351 	ldmle	r1, {r0, r4, r6, r8, r9}
    2428:	5201157e 	andpl	r1, r1, #528482304	; 0x1f800000
    242c:	15800802 	strne	r0, [r0, #2050]	; 0x802
    2430:	77025301 	strvc	r5, [r2, -r1, lsl #6]
    2434:	7d021500 	cfstr32vc	mvfx1, [r2, #-0]
    2438:	15340100 	ldrne	r0, [r4, #-256]!	; 0xffffff00
    243c:	02047d02 	andeq	r7, r4, #128	; 0x80
    2440:	16000074 			; <UNDEFINED> instruction: 0x16000074
    2444:	000097c4 	andeq	r9, r0, r4, asr #15
    2448:	00000d00 	andeq	r0, r0, r0, lsl #26
    244c:	02500115 	subseq	r0, r0, #1073741829	; 0x40000005
    2450:	01150075 	tsteq	r5, r5, ror r0
    2454:	d8910351 	ldmle	r1, {r0, r4, r6, r8, r9}
    2458:	0900007e 	stmdbeq	r0, {r1, r2, r3, r4, r5, r6}
    245c:	0000c504 	andeq	ip, r0, r4, lsl #10
    2460:	00c51700 	sbceq	r1, r5, r0, lsl #14
    2464:	034a0000 	movteq	r0, #40960	; 0xa000
    2468:	33180000 	tstcc	r8, #0, 0
    246c:	7f000000 	svcvc	0x00000000
    2470:	05cb1900 	strbeq	r1, [fp, #2304]	; 0x900
    2474:	fe010000 	cdp2	0, 0, cr0, cr1, cr0, {0}
    2478:	00004d0d 	andeq	r4, r0, sp, lsl #26
    247c:	0094ac00 	addseq	sl, r4, r0, lsl #24
    2480:	00000c00 	andeq	r0, r0, r0, lsl #24
    2484:	919c0100 	orrsls	r0, ip, r0, lsl #2
    2488:	1a000003 	bne	249c <__code_start__-0x5b64>
    248c:	fe010064 	cdp2	0, 0, cr0, cr1, cr4, {3}
    2490:	00002524 	andeq	r2, r0, r4, lsr #10
    2494:	001d2b00 	andseq	r2, sp, r0, lsl #22
    2498:	001d2700 	andseq	r2, sp, r0, lsl #14
    249c:	94b41600 	ldrtls	r1, [r4], #1536	; 0x600
    24a0:	03c70000 	biceq	r0, r7, #0, 0
    24a4:	08150000 	ldmdaeq	r5, {}	; <UNPREDICTABLE>
    24a8:	04934090 	ldreq	r4, [r3], #144	; 0x90
    24ac:	04934190 	ldreq	r4, [r3], #400	; 0x190
    24b0:	f503f305 			; <UNDEFINED> instruction: 0xf503f305
    24b4:	00002540 	andeq	r2, r0, r0, asr #10
    24b8:	00057819 	andeq	r7, r5, r9, lsl r8
    24bc:	11f70100 	mvnsne	r0, r0, lsl #2
    24c0:	00000033 	andeq	r0, r0, r3, lsr r0
    24c4:	00009454 	andeq	r9, r0, r4, asr r4
    24c8:	00000058 	andeq	r0, r0, r8, asr r0
    24cc:	03c79c01 	biceq	r9, r7, #256	; 0x100
    24d0:	641a0000 	ldrvs	r0, [sl], #-0
    24d4:	24f70100 	ldrbtcs	r0, [r7], #256	; 0x100
    24d8:	00000025 	andeq	r0, r0, r5, lsr #32
    24dc:	00001d59 	andeq	r1, r0, r9, asr sp
    24e0:	00001d55 	andeq	r1, r0, r5, asr sp
    24e4:	0094701b 	addseq	r7, r4, fp, lsl r0
    24e8:	0003c700 	andeq	ip, r3, r0, lsl #14
    24ec:	bf190000 	svclt	0x00190000
    24f0:	01000006 	tsteq	r0, r6
    24f4:	004d0df3 	strdeq	r0, [sp], #-211	; 0xffffff2d
    24f8:	94480000 	strbls	r0, [r8], #-0
    24fc:	000c0000 	andeq	r0, ip, r0
    2500:	9c010000 	stcls	0, cr0, [r1], {-0}
    2504:	000003f5 	strdeq	r0, [r0], -r5
    2508:	0100641c 	tsteq	r0, ip, lsl r4
    250c:	00251af3 	strdeq	r1, [r5], -r3	; <UNPREDICTABLE>
    2510:	90080000 	andls	r0, r8, r0
    2514:	90049340 	andls	r9, r4, r0, asr #6
    2518:	00049341 	andeq	r9, r4, r1, asr #6
    251c:	0003ee1d 	andeq	lr, r3, sp, lsl lr
    2520:	05810100 	streq	r0, [r1, #256]	; 0x100
    2524:	0000002c 	andeq	r0, r0, ip, lsr #32
    2528:	000097d8 	ldrdeq	r9, [r0], -r8
    252c:	000004c8 	andeq	r0, r0, r8, asr #9
    2530:	099b9c01 	ldmibeq	fp, {r0, sl, fp, ip, pc}
    2534:	621a0000 	andsvs	r0, sl, #0, 0
    2538:	01006675 	tsteq	r0, r5, ror r6
    253c:	03341581 	teqeq	r4, #541065216	; 0x20400000
    2540:	1d8b0000 	stcne	0, cr0, [fp]
    2544:	1d850000 	stcne	0, cr0, [r5]
    2548:	6e1a0000 	cdpvs	0, 1, cr0, cr10, cr0, {0}
    254c:	1e810100 	rmfnes	f0, f1, f0
    2550:	0000002c 	andeq	r0, r0, ip, lsr #32
    2554:	00001dbd 			; <UNDEFINED> instruction: 0x00001dbd
    2558:	00001db7 			; <UNDEFINED> instruction: 0x00001db7
    255c:	746d661a 	strbtvc	r6, [sp], #-1562	; 0xfffff9e6
    2560:	2d810100 	stfcss	f0, [r1]
    2564:	000000bf 	strheq	r0, [r0], -pc	; <UNPREDICTABLE>
    2568:	00001df7 	strdeq	r1, [r0], -r7
    256c:	00001deb 	andeq	r1, r0, fp, ror #27
    2570:	0003e91e 	andeq	lr, r3, lr, lsl r9
    2574:	3a810100 	bcc	fe04297c <__bss_end__+0xfe038064>
    2578:	00000168 	andeq	r0, r0, r8, ror #2
    257c:	7dd49103 	ldfvcp	f1, [r4, #12]
    2580:	0100701f 	tsteq	r0, pc, lsl r0
    2584:	03340882 	teqeq	r4, #8519680	; 0x820000
    2588:	1e550000 	cdpne	0, 5, cr0, cr5, cr0, {0}
    258c:	1e410000 	cdpne	0, 4, cr0, cr1, cr0, {0}
    2590:	651f0000 	ldrvs	r0, [pc, #-0]	; 2598 <__code_start__-0x5a68>
    2594:	12820100 	addne	r0, r2, #0
    2598:	00000334 	andeq	r0, r0, r4, lsr r3
    259c:	00001ed7 	ldrdeq	r1, [r0], -r7
    25a0:	00001ed3 	ldrdeq	r1, [r0], -r3
    25a4:	0030781f 	eorseq	r7, r0, pc, lsl r8
    25a8:	690e8301 	stmdbvs	lr, {r0, r8, r9, pc}
    25ac:	04000000 	streq	r0, [r0], #-0
    25b0:	fe00001f 	mcr2	0, 0, r0, cr0, cr15, {0}
    25b4:	1f00001e 	svcne	0x0000001e
    25b8:	01003178 	tsteq	r0, r8, ror r1
    25bc:	00691183 	rsbeq	r1, r9, r3, lsl #3
    25c0:	1f310000 	svcne	0x00310000
    25c4:	1f2d0000 	svcne	0x002d0000
    25c8:	34200000 	strtcc	r0, [r0], #-0
    25cc:	01000006 	tsteq	r0, r6
    25d0:	00bf1186 	adcseq	r1, pc, r6, lsl #3
    25d4:	1f530000 	svcne	0x00530000
    25d8:	1f4f0000 	svcne	0x004f0000
    25dc:	db210000 	blle	8425e4 <__bss_end__+0x837ccc>
    25e0:	ab000005 	blge	25fc <__code_start__-0x5a04>
    25e4:	05000009 	streq	r0, [r0, #-9]
    25e8:	00a4f403 	adceq	pc, r4, r3, lsl #8
    25ec:	98402200 	stmdals	r0, {r9, sp}^
    25f0:	04140000 	ldreq	r0, [r4], #-0
    25f4:	731f0000 	tstvc	pc, #0, 0
    25f8:	0a910100 	beq	fe442a00 <__bss_end__+0xfe4380e8>
    25fc:	00000334 	andeq	r0, r0, r4, lsr r3
    2600:	00001f8b 	andeq	r1, r0, fp, lsl #31
    2604:	00001f73 	andeq	r1, r0, r3, ror pc
    2608:	6d756e23 	ldclvs	14, cr6, [r5, #-140]!	; 0xffffff74
    260c:	0d910100 	ldfeqs	f0, [r1]
    2610:	0000033a 	andeq	r0, r0, sl, lsr r3
    2614:	7dd89103 	ldfvcp	f1, [r8, #12]
    2618:	00069724 	andeq	r9, r6, r4, lsr #14
    261c:	17910100 	ldrne	r0, [r1, r0, lsl #2]
    2620:	0000033a 	andeq	r0, r0, sl, lsr r3
    2624:	7ed89103 	atnvce	f1, f3
    2628:	0005c520 	andeq	ip, r5, r0, lsr #10
    262c:	0d920100 	ldfeqs	f0, [r2]
    2630:	00000033 	andeq	r0, r0, r3, lsr r0
    2634:	0000201d 	andeq	r2, r0, sp, lsl r0
    2638:	00002017 	andeq	r2, r0, r7, lsl r0
    263c:	00990825 	addseq	r0, r9, r5, lsr #16
    2640:	0001a400 	andeq	sl, r1, r0, lsl #8
    2644:	0007c600 	andeq	ip, r7, r0, lsl #12
    2648:	79741f00 	ldmdbvc	r4!, {r8, r9, sl, fp, ip}^
    264c:	1d9e0100 	ldfnes	f0, [lr]
    2650:	000000bf 	strheq	r0, [r0], -pc	; <UNPREDICTABLE>
    2654:	00002051 	andeq	r2, r0, r1, asr r0
    2658:	00002047 	andeq	r2, r0, r7, asr #32
    265c:	00787826 	rsbseq	r7, r8, r6, lsr #16
    2660:	7c1aa201 	lfmvc	f2, 1, [sl], {1}
    2664:	14000000 	strne	r0, [r0], #-0
    2668:	00009918 	andeq	r9, r0, r8, lsl r9
    266c:	00000d0c 	andeq	r0, r0, ip, lsl #26
    2670:	00000562 	andeq	r0, r0, r2, ror #10
    2674:	02500115 	subseq	r0, r0, #1073741829	; 0x40000005
    2678:	01150076 	tsteq	r5, r6, ror r0
    267c:	10030551 	andne	r0, r3, r1, asr r5
    2680:	150000a4 	strne	r0, [r0, #-164]	; 0xffffff5c
    2684:	33015201 	movwcc	r5, #4609	; 0x1201
    2688:	99301400 	ldmdbls	r0!, {sl, ip}
    268c:	0d0c0000 	stceq	0, cr0, [ip, #-0]
    2690:	05840000 	streq	r0, [r4]
    2694:	01150000 	tsteq	r5, r0
    2698:	00760250 	rsbseq	r0, r6, r0, asr r2
    269c:	05510115 	ldrbeq	r0, [r1, #-277]	; 0xfffffeeb
    26a0:	00a41403 	adceq	r1, r4, r3, lsl #8
    26a4:	52011500 	andpl	r1, r1, #0, 10
    26a8:	14003301 	strne	r3, [r0], #-769	; 0xfffffcff
    26ac:	00009964 	andeq	r9, r0, r4, ror #18
    26b0:	00000d18 	andeq	r0, r0, r8, lsl sp
    26b4:	000005a1 	andeq	r0, r0, r1, lsr #11
    26b8:	05500115 	ldrbeq	r0, [r0, #-277]	; 0xfffffeeb
    26bc:	00a41803 	adceq	r1, r4, r3, lsl #16
    26c0:	51011500 	tstpl	r1, r0, lsl #10
    26c4:	00007702 	andeq	r7, r0, r2, lsl #14
    26c8:	00997014 	addseq	r7, r9, r4, lsl r0
    26cc:	000d1800 	andeq	r1, sp, r0, lsl #16
    26d0:	0005be00 	andeq	fp, r5, r0, lsl #28
    26d4:	50011500 	andpl	r1, r1, r0, lsl #10
    26d8:	a4200305 	strtge	r0, [r0], #-773	; 0xfffffcfb
    26dc:	01150000 	tsteq	r5, r0
    26e0:	007a0251 	rsbseq	r0, sl, r1, asr r2
    26e4:	99801400 	stmibls	r0, {sl, ip}
    26e8:	0d0c0000 	stceq	0, cr0, [ip, #-0]
    26ec:	05e00000 	strbeq	r0, [r0, #0]!
    26f0:	01150000 	tsteq	r5, r0
    26f4:	00760250 	rsbseq	r0, r6, r0, asr r2
    26f8:	05510115 	ldrbeq	r0, [r1, #-277]	; 0xfffffeeb
    26fc:	00a41003 	adceq	r1, r4, r3
    2700:	52011500 	andpl	r1, r1, #0, 10
    2704:	14003301 	strne	r3, [r0], #-769	; 0xfffffcff
    2708:	00009998 	muleq	r0, r8, r9
    270c:	00000d0c 	andeq	r0, r0, ip, lsl #26
    2710:	00000602 	andeq	r0, r0, r2, lsl #12
    2714:	02500115 	subseq	r0, r0, #1073741829	; 0x40000005
    2718:	01150076 	tsteq	r5, r6, ror r0
    271c:	14030551 	strne	r0, [r3], #-1361	; 0xfffffaaf
    2720:	150000a4 	strne	r0, [r0, #-164]	; 0xffffff5c
    2724:	33015201 	movwcc	r5, #4609	; 0x1201
    2728:	99c01400 	stmibls	r0, {sl, ip}^
    272c:	09b00000 	ldmibeq	r0!, {}	; <UNPREDICTABLE>
    2730:	06360000 	ldrteq	r0, [r6], -r0
    2734:	01150000 	tsteq	r5, r0
    2738:	153a0150 	ldrne	r0, [sl, #-336]!	; 0xfffffeb0
    273c:	91035101 	tstls	r3, r1, lsl #2
    2740:	01157dd0 			; <UNDEFINED> instruction: 0x01157dd0
    2744:	80080252 	andhi	r0, r8, r2, asr r2
    2748:	02530115 	subseq	r0, r3, #1073741829	; 0x40000005
    274c:	02150077 	andseq	r0, r5, #119, 0	; 0x77
    2750:	7502007d 	strvc	r0, [r2, #-125]	; 0xffffff83
    2754:	7d021500 	cfstr32vc	mvfx1, [r2, #-0]
    2758:	00760204 	rsbseq	r0, r6, r4, lsl #4
    275c:	99e01400 	stmibls	r0!, {sl, ip}^
    2760:	09b00000 	ldmibeq	r0!, {}	; <UNPREDICTABLE>
    2764:	066a0000 	strbteq	r0, [sl], -r0
    2768:	01150000 	tsteq	r5, r0
    276c:	153a0150 	ldrne	r0, [sl, #-336]!	; 0xfffffeb0
    2770:	91035101 	tstls	r3, r1, lsl #2
    2774:	01157ed0 			; <UNDEFINED> instruction: 0x01157ed0
    2778:	80080252 	andhi	r0, r8, r2, asr r2
    277c:	02530115 	subseq	r0, r3, #1073741829	; 0x40000005
    2780:	0215007a 	andseq	r0, r5, #122, 0	; 0x7a
    2784:	7502007d 	strvc	r0, [r2, #-125]	; 0xffffff83
    2788:	7d021500 	cfstr32vc	mvfx1, [r2, #-0]
    278c:	00760204 	rsbseq	r0, r6, r4, lsl #4
    2790:	99ec1400 	stmibls	ip!, {sl, ip}^
    2794:	0d240000 	stceq	0, cr0, [r4, #-0]
    2798:	06880000 	streq	r0, [r8], r0
    279c:	01150000 	tsteq	r5, r0
    27a0:	d0910350 	addsle	r0, r1, r0, asr r3
    27a4:	5101157d 	tstpl	r1, sp, ror r5
    27a8:	a3d00305 	bicsge	r0, r0, #335544320	; 0x14000000
    27ac:	14000000 	strne	r0, [r0], #-0
    27b0:	00009a00 	andeq	r9, r0, r0, lsl #20
    27b4:	00000d30 	andeq	r0, r0, r0, lsr sp
    27b8:	000006a4 	andeq	r0, r0, r4, lsr #13
    27bc:	03500115 	cmpeq	r0, #1073741829	; 0x40000005
    27c0:	157dd091 	ldrbne	sp, [sp, #-145]!	; 0xffffff6f
    27c4:	91035101 	tstls	r3, r1, lsl #2
    27c8:	14007ed0 	strne	r7, [r0], #-3792	; 0xfffff130
    27cc:	00009a24 	andeq	r9, r0, r4, lsr #20
    27d0:	00000d18 	andeq	r0, r0, r8, lsl sp
    27d4:	000006dd 	ldrdeq	r0, [r0], -sp
    27d8:	05500115 	ldrbeq	r0, [r0, #-277]	; 0xfffffeeb
    27dc:	00a3bc03 	adceq	fp, r3, r3, lsl #24
    27e0:	51011500 	tstpl	r1, r0, lsl #10
    27e4:	a3a80305 			; <UNDEFINED> instruction: 0xa3a80305
    27e8:	01150000 	tsteq	r5, r0
    27ec:	f4030552 	vst3.16	{d0,d2,d4}, [r3 :64], r2
    27f0:	150000a4 	strne	r0, [r0, #-164]	; 0xffffff5c
    27f4:	08025301 	stmdaeq	r2, {r0, r8, r9, ip, lr}
    27f8:	7d02159f 	cfstr32vc	mvfx1, [r2, #-636]	; 0xfffffd84
    27fc:	28030500 	stmdacs	r3, {r8, sl}
    2800:	000000a4 	andeq	r0, r0, r4, lsr #1
    2804:	009a281b 	addseq	r2, sl, fp, lsl r8
    2808:	000d3c00 	andeq	r3, sp, r0, lsl #24
    280c:	9a481400 	bls	1207814 <__bss_end__+0x11fcefc>
    2810:	09b00000 	ldmibeq	r0!, {}	; <UNPREDICTABLE>
    2814:	071a0000 	ldreq	r0, [sl, -r0]
    2818:	01150000 	tsteq	r5, r0
    281c:	15400150 	strbne	r0, [r0, #-336]	; 0xfffffeb0
    2820:	91035101 	tstls	r3, r1, lsl #2
    2824:	01157dd0 			; <UNDEFINED> instruction: 0x01157dd0
    2828:	80080252 	andhi	r0, r8, r2, asr r2
    282c:	02530115 	subseq	r0, r3, #1073741829	; 0x40000005
    2830:	02150077 	andseq	r0, r5, #119, 0	; 0x77
    2834:	7502007d 	strvc	r0, [r2, #-125]	; 0xffffff83
    2838:	7d021500 	cfstr32vc	mvfx1, [r2, #-0]
    283c:	00760204 	rsbseq	r0, r6, r4, lsl #4
    2840:	9a681400 	bls	1a07848 <__bss_end__+0x19fcf30>
    2844:	09b00000 	ldmibeq	r0!, {}	; <UNPREDICTABLE>
    2848:	074e0000 	strbeq	r0, [lr, -r0]
    284c:	01150000 	tsteq	r5, r0
    2850:	15400150 	strbne	r0, [r0, #-336]	; 0xfffffeb0
    2854:	91035101 	tstls	r3, r1, lsl #2
    2858:	01157ed0 			; <UNDEFINED> instruction: 0x01157ed0
    285c:	80080252 	andhi	r0, r8, r2, asr r2
    2860:	02530115 	subseq	r0, r3, #1073741829	; 0x40000005
    2864:	0215007a 	andseq	r0, r5, #122, 0	; 0x7a
    2868:	7502007d 	strvc	r0, [r2, #-125]	; 0xffffff83
    286c:	7d021500 	cfstr32vc	mvfx1, [r2, #-0]
    2870:	00760204 	rsbseq	r0, r6, r4, lsl #4
    2874:	9a741400 	bls	1d0787c <__bss_end__+0x1cfcf64>
    2878:	0d000000 	stceq	0, cr0, [r0, #-0]
    287c:	076a0000 	strbeq	r0, [sl, -r0]!
    2880:	01150000 	tsteq	r5, r0
    2884:	d0910350 	addsle	r0, r1, r0, asr r3
    2888:	5101157d 	tstpl	r1, sp, ror r5
    288c:	7ed29103 	atnvcs	f1, f3
    2890:	9a881400 	bls	fe207898 <__bss_end__+0xfe1fcf80>
    2894:	0d000000 	stceq	0, cr0, [r0, #-0]
    2898:	07860000 	streq	r0, [r6, r0]
    289c:	01150000 	tsteq	r5, r0
    28a0:	d0910350 	addsle	r0, r1, r0, asr r3
    28a4:	5101157d 	tstpl	r1, sp, ror r5
    28a8:	7ed09103 	atnvcs	f1, f3
    28ac:	9aa81400 	bls	fea078b4 <__bss_end__+0xfe9fcf9c>
    28b0:	0d180000 	ldceq	0, cr0, [r8, #-0]
    28b4:	07bc0000 	ldreq	r0, [ip, r0]!
    28b8:	01150000 	tsteq	r5, r0
    28bc:	64030550 	strvs	r0, [r3], #-1360	; 0xfffffab0
    28c0:	150000a4 	strne	r0, [r0, #-164]	; 0xffffff5c
    28c4:	03055101 	movweq	r5, #20737	; 0x5101
    28c8:	0000a3a8 	andeq	sl, r0, r8, lsr #7
    28cc:	05520115 	ldrbeq	r0, [r2, #-277]	; 0xfffffeeb
    28d0:	00a4f403 	adceq	pc, r4, r3, lsl #8
    28d4:	53011500 	movwpl	r1, #5376	; 0x1500
    28d8:	15b60802 	ldrne	r0, [r6, #2050]!	; 0x802
    28dc:	02007d02 	andeq	r7, r0, #128	; 0x80
    28e0:	1b000076 	blne	2ac0 <__code_start__-0x5540>
    28e4:	00009aac 	andeq	r9, r0, ip, lsr #21
    28e8:	00000d3c 	andeq	r0, r0, ip, lsr sp
    28ec:	9aac2500 	bls	feb0bcf4 <__bss_end__+0xfeb013dc>
    28f0:	00280000 	eoreq	r0, r8, r0
    28f4:	07f50000 	ldrbeq	r0, [r5, r0]!
    28f8:	64260000 	strtvs	r0, [r6], #-0
    28fc:	0cc50100 	stfeqe	f0, [r5], {0}
    2900:	00000025 	andeq	r0, r0, r5, lsr #32
    2904:	009ad016 	addseq	sp, sl, r6, lsl r0
    2908:	00017400 	andeq	r7, r1, r0, lsl #8
    290c:	50011500 	andpl	r1, r1, r0, lsl #10
    2910:	7dd09103 	ldfvcp	f1, [r0, #12]
    2914:	02510115 	subseq	r0, r1, #1073741829	; 0x40000005
    2918:	00000075 	andeq	r0, r0, r5, ror r0
    291c:	00985814 	addseq	r5, r8, r4, lsl r8
    2920:	000c2e00 	andeq	r2, ip, r0, lsl #28
    2924:	00080900 	andeq	r0, r8, r0, lsl #18
    2928:	50011500 	andpl	r1, r1, r0, lsl #10
    292c:	00007702 	andeq	r7, r0, r2, lsl #14
    2930:	00990414 	addseq	r0, r9, r4, lsl r4
    2934:	000d1800 	andeq	r1, sp, r0, lsl #16
    2938:	00084200 	andeq	r4, r8, r0, lsl #4
    293c:	50011500 	andpl	r1, r1, r0, lsl #10
    2940:	a3bc0305 			; <UNDEFINED> instruction: 0xa3bc0305
    2944:	01150000 	tsteq	r5, r0
    2948:	a8030551 	stmdage	r3, {r0, r4, r6, r8, sl}
    294c:	150000a3 	strne	r0, [r0, #-163]	; 0xffffff5d
    2950:	03055201 	movweq	r5, #20993	; 0x5201
    2954:	0000a4f4 	strdeq	sl, [r0], -r4
    2958:	02530115 	subseq	r0, r3, #1073741829	; 0x40000005
    295c:	02159808 	andseq	r9, r5, #8, 16	; 0x80000
    2960:	0305007d 	movweq	r0, #20605	; 0x507d
    2964:	0000a404 	andeq	sl, r0, r4, lsl #8
    2968:	99081b00 	stmdbls	r8, {r8, r9, fp, ip}
    296c:	0d3c0000 	ldceq	0, cr0, [ip, #-0]
    2970:	08140000 	ldmdaeq	r4, {}	; <UNPREDICTABLE>
    2974:	b000009b 	mullt	r0, fp, r0
    2978:	78000009 	stmdavc	r0, {r0, r3}
    297c:	15000008 	strne	r0, [r0, #-8]
    2980:	3a015001 	bcc	5698c <__bss_end__+0x4c074>
    2984:	03510115 	cmpeq	r1, #1073741829	; 0x40000005
    2988:	157dd091 	ldrbne	sp, [sp, #-145]!	; 0xffffff6f
    298c:	08025201 	stmdaeq	r2, {r0, r9, ip, lr}
    2990:	7d021580 	cfstr32vc	mvfx1, [r2, #-512]	; 0xfffffe00
    2994:	00750200 	rsbseq	r0, r5, r0, lsl #4
    2998:	047d0215 	ldrbteq	r0, [sp], #-533	; 0xfffffdeb
    299c:	14003101 	strne	r3, [r0], #-257	; 0xfffffeff
    29a0:	00009b3c 	andeq	r9, r0, ip, lsr fp
    29a4:	000009b0 			; <UNDEFINED> instruction: 0x000009b0
    29a8:	000008a5 	andeq	r0, r0, r5, lsr #17
    29ac:	01500115 	cmpeq	r0, r5, lsl r1
    29b0:	5101153a 	tstpl	r1, sl, lsr r5
    29b4:	7dd09103 	ldfvcp	f1, [r0, #12]
    29b8:	02520115 	subseq	r0, r2, #1073741829	; 0x40000005
    29bc:	02158008 	andseq	r8, r5, #8, 0
    29c0:	7502007d 	strvc	r0, [r2, #-125]	; 0xffffff83
    29c4:	7d021500 	cfstr32vc	mvfx1, [r2, #-0]
    29c8:	00300104 	eorseq	r0, r0, r4, lsl #2
    29cc:	009b7014 	addseq	r7, fp, r4, lsl r0
    29d0:	0009b000 	andeq	fp, r9, r0
    29d4:	0008d200 	andeq	sp, r8, r0, lsl #4
    29d8:	50011500 	andpl	r1, r1, r0, lsl #10
    29dc:	01154001 	tsteq	r5, r1
    29e0:	d0910351 	addsle	r0, r1, r1, asr r3
    29e4:	5201157d 	andpl	r1, r1, #524288000	; 0x1f400000
    29e8:	15800802 	strne	r0, [r0, #2050]	; 0x802
    29ec:	02007d02 	andeq	r7, r0, #128	; 0x80
    29f0:	02150075 	andseq	r0, r5, #117, 0	; 0x75
    29f4:	3001047d 	andcc	r0, r1, sp, ror r4
    29f8:	9ba41400 	blls	fe907a00 <__bss_end__+0xfe8fd0e8>
    29fc:	09b00000 	ldmibeq	r0!, {}	; <UNPREDICTABLE>
    2a00:	08ff0000 	ldmeq	pc!, {}^	; <UNPREDICTABLE>
    2a04:	01150000 	tsteq	r5, r0
    2a08:	15320150 	ldrne	r0, [r2, #-336]!	; 0xfffffeb0
    2a0c:	91035101 	tstls	r3, r1, lsl #2
    2a10:	01157dd0 			; <UNDEFINED> instruction: 0x01157dd0
    2a14:	80080252 	andhi	r0, r8, r2, asr r2
    2a18:	007d0215 	rsbseq	r0, sp, r5, lsl r2
    2a1c:	15007502 	strne	r7, [r0, #-1282]	; 0xfffffafe
    2a20:	01047d02 	tsteq	r4, r2, lsl #26
    2a24:	ec140030 	ldc	0, cr0, [r4], {48}	; 0x30
    2a28:	b000009b 	mullt	r0, fp, r0
    2a2c:	2c000009 	stccs	0, cr0, [r0], {9}
    2a30:	15000009 	strne	r0, [r0, #-9]
    2a34:	38015001 	stmdacc	r1, {r0, ip, lr}
    2a38:	03510115 	cmpeq	r1, #1073741829	; 0x40000005
    2a3c:	157dd091 	ldrbne	sp, [sp, #-145]!	; 0xffffff6f
    2a40:	08025201 	stmdaeq	r2, {r0, r9, ip, lr}
    2a44:	7d021580 	cfstr32vc	mvfx1, [r2, #-512]	; 0xfffffe00
    2a48:	00750200 	rsbseq	r0, r5, r0, lsl #4
    2a4c:	047d0215 	ldrbteq	r0, [sp], #-533	; 0xfffffdeb
    2a50:	14003001 	strne	r3, [r0], #-1
    2a54:	00009c0c 	andeq	r9, r0, ip, lsl #24
    2a58:	00000d18 	andeq	r0, r0, r8, lsl sp
    2a5c:	0000094f 	andeq	r0, r0, pc, asr #18
    2a60:	05500115 	ldrbeq	r0, [r0, #-277]	; 0xfffffeeb
    2a64:	00a48c03 	adceq	r8, r4, r3, lsl #24
    2a68:	51011500 	tstpl	r1, r0, lsl #10
    2a6c:	15007a02 	strne	r7, [r0, #-2562]	; 0xfffff5fe
    2a70:	7a025201 	bvc	9727c <__bss_end__+0x8c964>
    2a74:	1c270000 	stcne	0, cr0, [r7], #-0
    2a78:	6100009c 	swpvs	r0, ip, [r0]	; <UNPREDICTABLE>
    2a7c:	15000009 	strne	r0, [r0, #-9]
    2a80:	91045001 	tstls	r4, r1
    2a84:	00067dc8 	andeq	r7, r6, r8, asr #27
    2a88:	009c3014 	addseq	r3, ip, r4, lsl r0
    2a8c:	000d1800 	andeq	r1, sp, r0, lsl #16
    2a90:	00099000 	andeq	r9, r9, r0
    2a94:	50011500 	andpl	r1, r1, r0, lsl #10
    2a98:	a4bc0305 	ldrtge	r0, [ip], #773	; 0x305
    2a9c:	01150000 	tsteq	r5, r0
    2aa0:	a8030551 	stmdage	r3, {r0, r4, r6, r8, sl}
    2aa4:	150000a3 	strne	r0, [r0, #-163]	; 0xffffff5d
    2aa8:	03055201 	movweq	r5, #20993	; 0x5201
    2aac:	0000a4f4 	strdeq	sl, [r0], -r4
    2ab0:	02530115 	subseq	r0, r3, #1073741829	; 0x40000005
    2ab4:	1b00e208 	blne	3b2dc <__bss_end__+0x309c4>
    2ab8:	00009c34 	andeq	r9, r0, r4, lsr ip
    2abc:	00000d3c 	andeq	r0, r0, ip, lsr sp
    2ac0:	cc170000 	ldcgt	0, cr0, [r7], {-0}
    2ac4:	ab000000 	blge	2acc <__code_start__-0x5534>
    2ac8:	18000009 	stmdane	r0, {r0, r3}
    2acc:	00000033 	andeq	r0, r0, r3, lsr r0
    2ad0:	9b040009 	blls	102afc <__bss_end__+0xf81e4>
    2ad4:	19000009 	stmdbne	r0, {r0, r3}
    2ad8:	0000065f 	andeq	r0, r0, pc, asr r6
    2adc:	34014901 	strcc	r4, [r1], #-2305	; 0xfffff6ff
    2ae0:	b8000003 	stmdalt	r0, {r0, r1}
    2ae4:	b4000094 	strlt	r0, [r0], #-148	; 0xffffff6c
    2ae8:	01000001 	tsteq	r0, r1
    2aec:	000b199c 	muleq	fp, ip, r9
    2af0:	06a42800 	strteq	r2, [r4], r0, lsl #16
    2af4:	49010000 	stmdbmi	r1, {}	; <UNPREDICTABLE>
    2af8:	0000330f 	andeq	r3, r0, pc, lsl #6
    2afc:	00209a00 	eoreq	r9, r0, r0, lsl #20
    2b00:	00209400 	eoreq	r9, r0, r0, lsl #8
    2b04:	73641a00 	cmnvc	r4, #0, 20
    2b08:	49010074 	stmdbmi	r1, {r2, r4, r5, r6}
    2b0c:	0003341b 	andeq	r3, r3, fp, lsl r4
    2b10:	0020d800 	eoreq	sp, r0, r0, lsl #16
    2b14:	0020c800 	eoreq	ip, r0, r0, lsl #16
    2b18:	006e1a00 	rsbeq	r1, lr, r0, lsl #20
    2b1c:	2c244901 			; <UNDEFINED> instruction: 0x2c244901
    2b20:	3c000000 	stccc	0, cr0, [r0], {-0}
    2b24:	38000021 	stmdacc	r0, {r0, r5}
    2b28:	1a000021 	bne	2bb4 <__code_start__-0x544c>
    2b2c:	006c6176 	rsbeq	r6, ip, r6, ror r1
    2b30:	2c2b4901 			; <UNDEFINED> instruction: 0x2c2b4901
    2b34:	66000000 	strvs	r0, [r0], -r0
    2b38:	5a000021 	bpl	2bc4 <__code_start__-0x543c>
    2b3c:	28000021 	stmdacs	r0, {r0, r5}
    2b40:	000005c5 	andeq	r0, r0, r5, asr #11
    2b44:	2c344901 			; <UNDEFINED> instruction: 0x2c344901
    2b48:	bc000000 	stclt	0, cr0, [r0], {-0}
    2b4c:	b6000021 	strlt	r0, [r0], -r1, lsr #32
    2b50:	1e000021 	cdpne	0, 0, cr0, cr0, cr1, {1}
    2b54:	000006a9 	andeq	r0, r0, r9, lsr #13
    2b58:	2c3f4901 			; <UNDEFINED> instruction: 0x2c3f4901
    2b5c:	02000000 	andeq	r0, r0, #0, 0
    2b60:	62230491 	eorvs	r0, r3, #-1862270976	; 0x91000000
    2b64:	01006675 	tsteq	r0, r5, ror r6
    2b68:	0b19074e 	bleq	6448a8 <__bss_end__+0x639f90>
    2b6c:	91030000 	mrsls	r0, (UNDEF: 3)
    2b70:	701f7fa8 	andsvc	r7, pc, r8, lsr #31
    2b74:	114e0100 	mrsne	r0, (UNDEF: 94)
    2b78:	00000334 	andeq	r0, r0, r4, lsr r3
    2b7c:	00002206 	andeq	r2, r0, r6, lsl #4
    2b80:	000021e6 	andeq	r2, r0, r6, ror #3
    2b84:	0100751f 	tsteq	r0, pc, lsl r5
    2b88:	00330b4f 	eorseq	r0, r3, pc, asr #22
    2b8c:	22ec0000 	rsccs	r0, ip, #0, 0
    2b90:	22d80000 	sbcscs	r0, r8, #0, 0
    2b94:	db210000 	blle	842b9c <__bss_end__+0x838284>
    2b98:	39000005 	stmdbcc	r0, {r0, r2}
    2b9c:	0500000b 	streq	r0, [r0, #-11]
    2ba0:	00a4dc03 	adceq	sp, r4, r3, lsl #24
    2ba4:	95242500 	strls	r2, [r4, #-1280]!	; 0xfffffb00
    2ba8:	00780000 	rsbseq	r0, r8, r0
    2bac:	0aa00000 	beq	fe802bb4 <__bss_end__+0xfe7f829c>
    2bb0:	4c200000 	stcmi	0, cr0, [r0], #-0
    2bb4:	01000006 	tsteq	r0, r6
    2bb8:	00330d54 	eorseq	r0, r3, r4, asr sp
    2bbc:	236d0000 	cmncs	sp, #0, 0
    2bc0:	23650000 	cmncs	r5, #0, 0
    2bc4:	14000000 	strne	r0, [r0], #-0
    2bc8:	000095dc 	ldrdeq	r9, [r0], -ip
    2bcc:	00000bcb 	andeq	r0, r0, fp, asr #23
    2bd0:	00000ab5 			; <UNDEFINED> instruction: 0x00000ab5
    2bd4:	03510115 	cmpeq	r1, #1073741829	; 0x40000005
    2bd8:	007fa091 			; <UNDEFINED> instruction: 0x007fa091
    2bdc:	0095f014 	addseq	pc, r5, r4, lsl r0	; <UNPREDICTABLE>
    2be0:	000b3e00 	andeq	r3, fp, r0, lsl #28
    2be4:	000ad600 	andeq	sp, sl, r0, lsl #12
    2be8:	50011500 	andpl	r1, r1, r0, lsl #10
    2bec:	15007502 	strne	r7, [r0, #-1282]	; 0xfffffafe
    2bf0:	74025101 	strvc	r5, [r2], #-257	; 0xfffffeff
    2bf4:	53011500 	movwpl	r1, #5376	; 0x1500
    2bf8:	7fa09103 	svcvc	0x00a09103
    2bfc:	96481400 	strbls	r1, [r8], -r0, lsl #8
    2c00:	0d180000 	ldceq	0, cr0, [r8, #-0]
    2c04:	0b0f0000 	bleq	3c2c0c <__bss_end__+0x3b82f4>
    2c08:	01150000 	tsteq	r5, r0
    2c0c:	bc030550 	cfstr32lt	mvfx0, [r3], {80}	; 0x50
    2c10:	150000a3 	strne	r0, [r0, #-163]	; 0xffffff5d
    2c14:	03055101 	movweq	r5, #20737	; 0x5101
    2c18:	0000a3a8 	andeq	sl, r0, r8, lsr #7
    2c1c:	05520115 	ldrbeq	r0, [r2, #-277]	; 0xfffffeeb
    2c20:	00a4dc03 	adceq	sp, r4, r3, lsl #24
    2c24:	53011500 	movwpl	r1, #5376	; 0x1500
    2c28:	15790802 	ldrbne	r0, [r9, #-2050]!	; 0xfffff7fe
    2c2c:	05007d02 	streq	r7, [r0, #-3330]	; 0xfffff2fe
    2c30:	00a3d003 	adceq	sp, r3, r3
    2c34:	4c1b0000 	ldcmi	0, cr0, [fp], {-0}
    2c38:	3c000096 	stccc	0, cr0, [r0], {150}	; 0x96
    2c3c:	0000000d 	andeq	r0, r0, sp
    2c40:	0000c517 	andeq	ip, r0, r7, lsl r5
    2c44:	000b2900 	andeq	r2, fp, r0, lsl #18
    2c48:	00331800 	eorseq	r1, r3, r0, lsl #16
    2c4c:	003f0000 	eorseq	r0, pc, r0
    2c50:	0000cc17 	andeq	ip, r0, r7, lsl ip
    2c54:	000b3900 	andeq	r3, fp, r0, lsl #18
    2c58:	00331800 	eorseq	r1, r3, r0, lsl #16
    2c5c:	00040000 	andeq	r0, r4, r0
    2c60:	000b2904 	andeq	r2, fp, r4, lsl #18
    2c64:	066c1900 	strbteq	r1, [ip], -r0, lsl #18
    2c68:	38010000 	stmdacc	r1, {}	; <UNPREDICTABLE>
    2c6c:	0003340e 	andeq	r3, r3, lr, lsl #8
    2c70:	00941000 	addseq	r1, r4, r0
    2c74:	00003800 	andeq	r3, r0, r0, lsl #16
    2c78:	cb9c0100 	blgt	fe703080 <__bss_end__+0xfe6f8768>
    2c7c:	1a00000b 	bne	2cb0 <__code_start__-0x5350>
    2c80:	00747364 	rsbseq	r7, r4, r4, ror #6
    2c84:	341c3801 	ldrcc	r3, [ip], #-2049	; 0xfffff7ff
    2c88:	ae000003 	cdpge	0, 0, cr0, cr0, cr3, {0}
    2c8c:	a4000023 	strge	r0, [r0], #-35	; 0xffffffdd
    2c90:	1a000023 	bne	2d24 <__code_start__-0x52dc>
    2c94:	3801006e 	stmdacc	r1, {r1, r2, r3, r5, r6}
    2c98:	00002c25 	andeq	r2, r0, r5, lsr #24
    2c9c:	0023f500 	eoreq	pc, r3, r0, lsl #10
    2ca0:	0023f100 	eoreq	pc, r3, r0, lsl #2
    2ca4:	00701a00 	rsbseq	r1, r0, r0, lsl #20
    2ca8:	342e3801 	strtcc	r3, [lr], #-2049	; 0xfffff7ff
    2cac:	1e000003 	cdpne	0, 0, cr0, cr0, cr3, {0}
    2cb0:	16000024 	strne	r0, [r0], -r4, lsr #32
    2cb4:	28000024 	stmdacs	r0, {r2, r5}
    2cb8:	00000638 	andeq	r0, r0, r8, lsr r6
    2cbc:	34373801 	ldrtcc	r3, [r7], #-2049	; 0xfffff7ff
    2cc0:	58000003 	stmdapl	r0, {r0, r1}
    2cc4:	54000024 	strpl	r0, [r0], #-36	; 0xffffffdc
    2cc8:	1f000024 	svcne	0x00000024
    2ccc:	006e656c 	rsbeq	r6, lr, ip, ror #10
    2cd0:	2c063a01 			; <UNDEFINED> instruction: 0x2c063a01
    2cd4:	7e000000 	cdpvc	0, 0, cr0, cr0, cr0, {0}
    2cd8:	76000024 	strvc	r0, [r0], -r4, lsr #32
    2cdc:	1f000024 	svcne	0x00000024
    2ce0:	3e010073 	mcrcc	0, 0, r0, cr1, cr3, {3}
    2ce4:	00033408 	andeq	r3, r3, r8, lsl #8
    2ce8:	0024cc00 	eoreq	ip, r4, r0, lsl #24
    2cec:	0024ca00 	eoreq	ip, r4, r0, lsl #20
    2cf0:	70290000 	eorvc	r0, r9, r0
    2cf4:	01006461 	tsteq	r0, r1, ror #8
    2cf8:	03340e2e 	teqeq	r4, #736	; 0x2e0
    2cfc:	93ec0000 	mvnls	r0, #0, 0
    2d00:	00240000 	eoreq	r0, r4, r0
    2d04:	9c010000 	stcls	0, cr0, [r1], {-0}
    2d08:	00000c2e 	andeq	r0, r0, lr, lsr #24
    2d0c:	0100701a 	tsteq	r0, sl, lsl r0
    2d10:	0334182e 	teqeq	r4, #3014656	; 0x2e0000
    2d14:	24e50000 	strbtcs	r0, [r5], #0
    2d18:	24df0000 	ldrbcs	r0, [pc], #0	; 2d20 <__code_start__-0x52e0>
    2d1c:	a4280000 	strtge	r0, [r8], #-0
    2d20:	01000006 	tsteq	r0, r6
    2d24:	0334222e 	teqeq	r4, #-536870910	; 0xe0000002
    2d28:	25140000 	ldrcs	r0, [r4, #-0]
    2d2c:	25100000 	ldrcs	r0, [r0, #-0]
    2d30:	c51e0000 	ldrgt	r0, [lr, #-0]
    2d34:	01000005 	tsteq	r0, r5
    2d38:	002c2c2e 	eoreq	r2, ip, lr, lsr #24
    2d3c:	52010000 	andpl	r0, r1, #0, 0
    2d40:	6e656c1f 	mcrvs	12, 3, r6, cr5, cr15, {0}
    2d44:	062f0100 	strteq	r0, [pc], -r0, lsl #2
    2d48:	0000002c 	andeq	r0, r0, ip, lsr #32
    2d4c:	00002537 	andeq	r2, r0, r7, lsr r5
    2d50:	00002535 	andeq	r2, r0, r5, lsr r5
    2d54:	05841900 	streq	r1, [r4, #2304]	; 0x900
    2d58:	27010000 	strcs	r0, [r1, -r0]
    2d5c:	00002c0c 	andeq	r2, r0, ip, lsl #24
    2d60:	0093d800 	addseq	sp, r3, r0, lsl #16
    2d64:	00001400 	andeq	r1, r0, r0, lsl #8
    2d68:	5b9c0100 	blpl	fe703170 <__bss_end__+0xfe6f8858>
    2d6c:	1a00000c 	bne	2da4 <__code_start__-0x525c>
    2d70:	27010063 	strcs	r0, [r1, -r3, rrx]
    2d74:	00002c18 	andeq	r2, r0, r8, lsl ip
    2d78:	00255000 	eoreq	r5, r5, r0
    2d7c:	00254a00 	eoreq	r4, r5, r0, lsl #20
    2d80:	252a0000 	strcs	r0, [sl, #-0]!
    2d84:	01000006 	tsteq	r0, r6
    2d88:	966c061f 			; <UNDEFINED> instruction: 0x966c061f
    2d8c:	00640000 	rsbeq	r0, r4, r0
    2d90:	9c010000 	stcls	0, cr0, [r1], {-0}
    2d94:	00000ceb 	andeq	r0, r0, fp, ror #25
    2d98:	00060228 	andeq	r0, r6, r8, lsr #4
    2d9c:	1b1f0100 	blne	7c31a4 <__bss_end__+0x7b888c>
    2da0:	000000aa 	andeq	r0, r0, sl, lsr #1
    2da4:	00002582 	andeq	r2, r0, r2, lsl #11
    2da8:	0000257e 	andeq	r2, r0, lr, ror r5
    2dac:	00066428 	andeq	r6, r6, r8, lsr #8
    2db0:	301f0100 	andscc	r0, pc, r0, lsl #2
    2db4:	000000dd 	ldrdeq	r0, [r0], -sp
    2db8:	000025a7 	andeq	r2, r0, r7, lsr #11
    2dbc:	000025a3 	andeq	r2, r0, r3, lsr #11
    2dc0:	0005db21 	andeq	sp, r5, r1, lsr #22
    2dc4:	000cfb00 	andeq	pc, ip, r0, lsl #22
    2dc8:	e4030500 	str	r0, [r3], #-1280	; 0xfffffb00
    2dcc:	140000a4 	strne	r0, [r0], #-164	; 0xffffff5c
    2dd0:	000096b4 			; <UNDEFINED> instruction: 0x000096b4
    2dd4:	00000d18 	andeq	r0, r0, r8, lsl sp
    2dd8:	00000ce1 	andeq	r0, r0, r1, ror #25
    2ddc:	05500115 	ldrbeq	r0, [r0, #-277]	; 0xfffffeeb
    2de0:	00a3bc03 	adceq	fp, r3, r3, lsl #24
    2de4:	51011500 	tstpl	r1, r0, lsl #10
    2de8:	a3a80305 			; <UNDEFINED> instruction: 0xa3a80305
    2dec:	01150000 	tsteq	r5, r0
    2df0:	e4030552 	str	r0, [r3], #-1362	; 0xfffffaae
    2df4:	150000a4 	strne	r0, [r0, #-164]	; 0xffffff5c
    2df8:	08025301 	stmdaeq	r2, {r0, r8, r9, ip, lr}
    2dfc:	7d021520 	cfstr32vc	mvfx1, [r2, #-128]	; 0xffffff80
    2e00:	f8030500 			; <UNDEFINED> instruction: 0xf8030500
    2e04:	000000a3 	andeq	r0, r0, r3, lsr #1
    2e08:	0096b81b 	addseq	fp, r6, fp, lsl r8
    2e0c:	000d3c00 	andeq	r3, sp, r0, lsl #24
    2e10:	cc170000 	ldcgt	0, cr0, [r7], {-0}
    2e14:	fb000000 	blx	2e1e <__code_start__-0x51e2>
    2e18:	1800000c 	stmdane	r0, {r2, r3}
    2e1c:	00000033 	andeq	r0, r0, r3, lsr r0
    2e20:	eb04000e 	bl	102e60 <__bss_end__+0xf8548>
    2e24:	2b00000c 	blcs	2e5c <__code_start__-0x51a4>
    2e28:	0000063e 	andeq	r0, r0, lr, lsr r6
    2e2c:	0000063e 	andeq	r0, r0, lr, lsr r6
    2e30:	2b07f303 	blcs	1ffa44 <__bss_end__+0x1f512c>
    2e34:	0000069c 	muleq	r0, ip, r6
    2e38:	0000069c 	muleq	r0, ip, r6
    2e3c:	2b05f003 	blcs	17ee50 <__bss_end__+0x174538>
    2e40:	000003f1 	strdeq	r0, [r0], -r1
    2e44:	000003f1 	strdeq	r0, [r0], -r1
    2e48:	2b062803 	blcs	18ce5c <__bss_end__+0x182544>
    2e4c:	00000674 	andeq	r0, r0, r4, ror r6
    2e50:	00000674 	andeq	r0, r0, r4, ror r6
    2e54:	2b05ef03 	blcs	17ea68 <__bss_end__+0x174150>
    2e58:	00000645 	andeq	r0, r0, r5, asr #12
    2e5c:	00000645 	andeq	r0, r0, r5, asr #12
    2e60:	2b07f203 	blcs	1ff674 <__bss_end__+0x1f4d5c>
    2e64:	000005e8 	andeq	r0, r0, r8, ror #11
    2e68:	000005e8 	andeq	r0, r0, r8, ror #11
    2e6c:	00066e03 	andeq	r6, r6, r3, lsl #28
    2e70:	0000012f 	andeq	r0, r0, pc, lsr #2
    2e74:	11800004 	orrne	r0, r0, r4
    2e78:	01040000 	mrseq	r0, (UNDEF: 4)
    2e7c:	00000407 	andeq	r0, r0, r7, lsl #8
    2e80:	0006d00c 	andeq	sp, r6, ip
    2e84:	0004fe00 	andeq	pc, r4, r0, lsl #28
    2e88:	009ca000 	addseq	sl, ip, r0
    2e8c:	00002c00 	andeq	r2, r0, r0, lsl #24
    2e90:	00256c00 	eoreq	r6, r5, r0, lsl #24
    2e94:	05040200 	streq	r0, [r4, #-512]	; 0xfffffe00
    2e98:	00746e69 	rsbseq	r6, r4, r9, ror #28
    2e9c:	51070403 	tstpl	r7, r3, lsl #8
    2ea0:	03000001 	movweq	r0, #1
    2ea4:	00310601 	eorseq	r0, r1, r1, lsl #12
    2ea8:	02030000 	andeq	r0, r3, #0, 0
    2eac:	0001df05 	andeq	sp, r1, r5, lsl #30
    2eb0:	05040300 	streq	r0, [r4, #-768]	; 0xfffffd00
    2eb4:	00000163 	andeq	r0, r0, r3, ror #2
    2eb8:	5e050803 	cdppl	8, 0, cr0, cr5, cr3, {0}
    2ebc:	03000001 	movweq	r0, #1
    2ec0:	002f0801 	eoreq	r0, pc, r1, lsl #16
    2ec4:	02030000 	andeq	r0, r3, #0, 0
    2ec8:	00005107 	andeq	r5, r0, r7, lsl #2
    2ecc:	07040300 	streq	r0, [r4, -r0, lsl #6]
    2ed0:	0000014c 	andeq	r0, r0, ip, asr #2
    2ed4:	47070803 	strmi	r0, [r7, -r3, lsl #16]
    2ed8:	04000001 	streq	r0, [r0], #-1
    2edc:	00000025 	andeq	r0, r0, r5, lsr #32
    2ee0:	0000007a 	andeq	r0, r0, sl, ror r0
    2ee4:	00002505 	andeq	r2, r0, r5, lsl #10
    2ee8:	6c060000 	stcvs	0, cr0, [r6], {-0}
    2eec:	02000001 	andeq	r0, r0, #1, 0
    2ef0:	00860e1c 	addeq	r0, r6, ip, lsl lr
    2ef4:	04070000 	streq	r0, [r7], #-0
    2ef8:	0000006b 	andeq	r0, r0, fp, rrx
    2efc:	00002504 	andeq	r2, r0, r4, lsl #10
    2f00:	00009b00 	andeq	r9, r0, r0, lsl #22
    2f04:	009b0500 	addseq	r0, fp, r0, lsl #10
    2f08:	07000000 	streq	r0, [r0, -r0]
    2f0c:	0000a804 	andeq	sl, r0, r4, lsl #16
    2f10:	08010300 	stmdaeq	r1, {r8, r9}
    2f14:	00000038 	andeq	r0, r0, r8, lsr r0
    2f18:	0000a108 	andeq	sl, r0, r8, lsl #2
    2f1c:	05650600 	strbeq	r0, [r5, #-1536]!	; 0xfffffa00
    2f20:	21020000 	mrscs	r0, (UNDEF: 2)
    2f24:	0000b90e 	andeq	fp, r0, lr, lsl #18
    2f28:	8c040700 	stchi	7, cr0, [r4], {-0}
    2f2c:	09000000 	stmdbeq	r0, {}	; <UNPREDICTABLE>
    2f30:	000005e8 	andeq	r0, r0, r8, ror #11
    2f34:	a0060401 	andge	r0, r6, r1, lsl #8
    2f38:	2c00009c 	stccs	0, cr0, [r0], {156}	; 0x9c
    2f3c:	01000000 	mrseq	r0, (UNDEF: 0)
    2f40:	00010e9c 	muleq	r1, ip, lr
    2f44:	9cb40a00 	vldmials	r4!, {s0-s-1}
    2f48:	00e80000 	rsceq	r0, r8, r0
    2f4c:	010b0000 	mrseq	r0, (UNDEF: 11)
    2f50:	00030550 	andeq	r0, r3, r0, asr r5
    2f54:	000000a5 	andeq	r0, r0, r5, lsr #1
    2f58:	009cb80c 	addseq	fp, ip, ip, lsl #16
    2f5c:	00010e00 	andeq	r0, r1, r0, lsl #28
    2f60:	9cc00d00 	stclls	13, cr0, [r0], {0}
    2f64:	011a0000 	tsteq	sl, r0
    2f68:	01040000 	mrseq	r0, (UNDEF: 4)
    2f6c:	010b0000 	mrseq	r0, (UNDEF: 11)
    2f70:	003a0150 	eorseq	r0, sl, r0, asr r1
    2f74:	009cc40c 	addseq	ip, ip, ip, lsl #8
    2f78:	00012600 	andeq	r2, r1, r0, lsl #12
    2f7c:	eb0e0000 	bl	382f84 <__bss_end__+0x37866c>
    2f80:	eb000006 	bl	2fa0 <__code_start__-0x5060>
    2f84:	02000006 	andeq	r0, r0, #6, 0
    2f88:	3d0e064d 	stccc	6, cr0, [lr, #-308]	; 0xfffffecc
    2f8c:	3d000000 	stccc	0, cr0, [r0, #-0]
    2f90:	02000000 	andeq	r0, r0, #0, 0
    2f94:	c50e0658 	strgt	r0, [lr, #-1624]	; 0xfffff9a8
    2f98:	c5000006 	strgt	r0, [r0, #-6]
    2f9c:	02000006 	andeq	r0, r0, #6, 0
    2fa0:	8900066b 	stmdbhi	r0, {r0, r1, r3, r5, r6, r9, sl}
    2fa4:	04000001 	streq	r0, [r0], #-1
    2fa8:	00124000 	andseq	r4, r2, r0
    2fac:	07010400 	streq	r0, [r1, -r0, lsl #8]
    2fb0:	0c000004 	stceq	0, cr0, [r0], {4}
    2fb4:	00000721 	andeq	r0, r0, r1, lsr #14
    2fb8:	000004fe 	strdeq	r0, [r0], -lr
    2fbc:	00009ccc 	andeq	r9, r0, ip, asr #25
    2fc0:	0000003c 	andeq	r0, r0, ip, lsr r0
    2fc4:	00002611 	andeq	r2, r0, r1, lsl r6
    2fc8:	69050402 	stmdbvs	r5, {r1, sl}
    2fcc:	0300746e 	movweq	r7, #1134	; 0x46e
    2fd0:	01510704 	cmpeq	r1, r4, lsl #14
    2fd4:	01030000 	mrseq	r0, (UNDEF: 3)
    2fd8:	00003106 	andeq	r3, r0, r6, lsl #2
    2fdc:	05020300 	streq	r0, [r2, #-768]	; 0xfffffd00
    2fe0:	000001df 	ldrdeq	r0, [r0], -pc	; <UNPREDICTABLE>
    2fe4:	63050403 	movwvs	r0, #21507	; 0x5403
    2fe8:	03000001 	movweq	r0, #1
    2fec:	015e0508 	cmpeq	lr, r8, lsl #10
    2ff0:	01030000 	mrseq	r0, (UNDEF: 3)
    2ff4:	00002f08 	andeq	r2, r0, r8, lsl #30
    2ff8:	07020300 	streq	r0, [r2, -r0, lsl #6]
    2ffc:	00000051 	andeq	r0, r0, r1, asr r0
    3000:	4c070403 	cfstrsmi	mvf0, [r7], {3}
    3004:	03000001 	movweq	r0, #1
    3008:	01470708 	cmpeq	r7, r8, lsl #14
    300c:	25040000 	strcs	r0, [r4, #-0]
    3010:	7a000000 	bvc	3018 <__code_start__-0x4fe8>
    3014:	05000000 	streq	r0, [r0, #-0]
    3018:	00000025 	andeq	r0, r0, r5, lsr #32
    301c:	016c0600 	cmneq	ip, r0, lsl #12
    3020:	1c020000 	stcne	0, cr0, [r2], {-0}
    3024:	0000860e 	andeq	r8, r0, lr, lsl #12
    3028:	6b040700 	blvs	104c30 <__bss_end__+0xfa318>
    302c:	04000000 	streq	r0, [r0], #-0
    3030:	00000025 	andeq	r0, r0, r5, lsr #32
    3034:	0000009b 	muleq	r0, fp, r0
    3038:	00009b05 	andeq	r9, r0, r5, lsl #22
    303c:	04070000 	streq	r0, [r7], #-0
    3040:	000000a8 	andeq	r0, r0, r8, lsr #1
    3044:	38080103 	stmdacc	r8, {r0, r1, r8}
    3048:	08000000 	stmdaeq	r0, {}	; <UNPREDICTABLE>
    304c:	000000a1 	andeq	r0, r0, r1, lsr #1
    3050:	00056506 	andeq	r6, r5, r6, lsl #10
    3054:	0e210200 	cdpeq	2, 2, cr0, cr1, cr0, {0}
    3058:	000000b9 	strheq	r0, [r0], -r9
    305c:	008c0407 	addeq	r0, ip, r7, lsl #8
    3060:	f9090000 			; <UNDEFINED> instruction: 0xf9090000
    3064:	01000006 	tsteq	r0, r6
    3068:	9ccc0604 	stclls	6, cr0, [ip], {4}
    306c:	003c0000 	eorseq	r0, ip, r0
    3070:	9c010000 	stcls	0, cr0, [r1], {-0}
    3074:	00000154 	andeq	r0, r0, r4, asr r1
    3078:	0005b706 	andeq	fp, r5, r6, lsl #14
    307c:	10050100 	andne	r0, r5, r0, lsl #2
    3080:	00000025 	andeq	r0, r0, r5, lsr #32
    3084:	00060a06 	andeq	r0, r6, r6, lsl #20
    3088:	1f050100 	svcne	0x00050100
    308c:	00000025 	andeq	r0, r0, r5, lsr #32
    3090:	00000f0a 	andeq	r0, r0, sl, lsl #30
    3094:	07060100 	streq	r0, [r6, -r0, lsl #2]
    3098:	7373620b 	cmnvc	r3, #-1342177280	; 0xb0000000
    309c:	0a0a0100 	beq	2834a4 <__bss_end__+0x278b8c>
    30a0:	00000154 	andeq	r0, r0, r4, asr r1
    30a4:	000025ce 	andeq	r2, r0, lr, asr #11
    30a8:	000025c8 	andeq	r2, r0, r8, asr #11
    30ac:	0007010c 	andeq	r0, r7, ip, lsl #2
    30b0:	0a0b0100 	beq	2c34b8 <__bss_end__+0x2b8ba0>
    30b4:	00000154 	andeq	r0, r0, r4, asr r1
    30b8:	009cf00d 	addseq	pc, ip, sp
    30bc:	00000800 	andeq	r0, r0, r0, lsl #16
    30c0:	00012f00 	andeq	r2, r1, r0, lsl #30
    30c4:	6e690e00 	cdpvs	14, 6, cr0, cr9, cr0, {0}
    30c8:	05140100 	ldreq	r0, [r4, #-256]	; 0xffffff00
    30cc:	0000002c 	andeq	r0, r0, ip, lsr #32
    30d0:	d40f0001 	strle	r0, [pc], #-1	; 30d8 <__code_start__-0x4f28>
    30d4:	5a00009c 	bpl	334c <__code_start__-0x4cb4>
    30d8:	0f000001 	svceq	0x00000001
    30dc:	00009cf0 	strdeq	r9, [r0], -r0
    30e0:	00000167 	andeq	r0, r0, r7, ror #2
    30e4:	009cfc0f 	addseq	pc, ip, pc, lsl #24
    30e8:	00017300 	andeq	r7, r1, r0, lsl #6
    30ec:	9d000f00 	stcls	15, cr0, [r0, #-0]
    30f0:	01800000 	orreq	r0, r0, r0
    30f4:	07000000 	streq	r0, [r0, -r0]
    30f8:	00002504 	andeq	r2, r0, r4, lsl #10
    30fc:	07131000 	ldreq	r1, [r3, -r0]
    3100:	07130000 	ldreq	r0, [r3, -r0]
    3104:	36020000 	strcc	r0, [r2], -r0
    3108:	09110601 	ldmdbeq	r1, {r0, r9, sl}
    310c:	09000007 	stmdbeq	r0, {r0, r1, r2}
    3110:	02000007 	andeq	r0, r0, #7, 0
    3114:	0f10063b 	svceq	0x0010063b
    3118:	0f000000 	svceq	0x00000000
    311c:	02000000 	andeq	r0, r0, #0, 0
    3120:	1106010a 	tstne	r6, sl, lsl #2
    3124:	000005e8 	andeq	r0, r0, r8, ror #11
    3128:	000005e8 	andeq	r0, r0, r8, ror #11
    312c:	00066e02 	andeq	r6, r6, r2, lsl #28
    3130:	000000ce 	andeq	r0, r0, lr, asr #1
    3134:	133c0004 	teqne	ip, #4, 0
    3138:	01040000 	mrseq	r0, (UNDEF: 4)
    313c:	00000407 	andeq	r0, r0, r7, lsl #8
    3140:	0007360c 	andeq	r3, r7, ip, lsl #12
    3144:	0004fe00 	andeq	pc, r4, r0, lsl #28
    3148:	009d0800 	addseq	r0, sp, r0, lsl #16
    314c:	00000400 	andeq	r0, r0, r0, lsl #8
    3150:	0026d000 	eoreq	sp, r6, r0
    3154:	05040200 	streq	r0, [r4, #-512]	; 0xfffffe00
    3158:	00746e69 	rsbseq	r6, r4, r9, ror #28
    315c:	51070403 	tstpl	r7, r3, lsl #8
    3160:	03000001 	movweq	r0, #1
    3164:	00310601 	eorseq	r0, r1, r1, lsl #12
    3168:	02030000 	andeq	r0, r3, #0, 0
    316c:	0001df05 	andeq	sp, r1, r5, lsl #30
    3170:	05040300 	streq	r0, [r4, #-768]	; 0xfffffd00
    3174:	00000163 	andeq	r0, r0, r3, ror #2
    3178:	5e050803 	cdppl	8, 0, cr0, cr5, cr3, {0}
    317c:	03000001 	movweq	r0, #1
    3180:	002f0801 	eoreq	r0, pc, r1, lsl #16
    3184:	02030000 	andeq	r0, r3, #0, 0
    3188:	00005107 	andeq	r5, r0, r7, lsl #2
    318c:	07040300 	streq	r0, [r4, -r0, lsl #6]
    3190:	0000014c 	andeq	r0, r0, ip, asr #2
    3194:	47070803 	strmi	r0, [r7, -r3, lsl #16]
    3198:	04000001 	streq	r0, [r0], #-1
    319c:	00000025 	andeq	r0, r0, r5, lsr #32
    31a0:	0000007a 	andeq	r0, r0, sl, ror r0
    31a4:	00002505 	andeq	r2, r0, r5, lsl #10
    31a8:	6c060000 	stcvs	0, cr0, [r6], {-0}
    31ac:	02000001 	andeq	r0, r0, #1, 0
    31b0:	00860e1c 	addeq	r0, r6, ip, lsl lr
    31b4:	04070000 	streq	r0, [r7], #-0
    31b8:	0000006b 	andeq	r0, r0, fp, rrx
    31bc:	00002504 	andeq	r2, r0, r4, lsl #10
    31c0:	00009b00 	andeq	r9, r0, r0, lsl #22
    31c4:	009b0500 	addseq	r0, fp, r0, lsl #10
    31c8:	07000000 	streq	r0, [r0, -r0]
    31cc:	0000a804 	andeq	sl, r0, r4, lsl #16
    31d0:	08010300 	stmdaeq	r1, {r8, r9}
    31d4:	00000038 	andeq	r0, r0, r8, lsr r0
    31d8:	0000a108 	andeq	sl, r0, r8, lsl #2
    31dc:	05650600 	strbeq	r0, [r5, #-1536]!	; 0xfffffa00
    31e0:	21020000 	mrscs	r0, (UNDEF: 2)
    31e4:	0000b90e 	andeq	fp, r0, lr, lsl #18
    31e8:	8c040700 	stchi	7, cr0, [r4], {-0}
    31ec:	09000000 	stmdbeq	r0, {}	; <UNPREDICTABLE>
    31f0:	00000713 	andeq	r0, r0, r3, lsl r7
    31f4:	08060401 	stmdaeq	r6, {r0, sl}
    31f8:	0400009d 	streq	r0, [r0], #-157	; 0xffffff63
    31fc:	01000000 	mrseq	r0, (UNDEF: 0)
    3200:	0236009c 	eorseq	r0, r6, #156, 0	; 0x9c
    3204:	00040000 	andeq	r0, r4, r0
    3208:	000013b5 			; <UNDEFINED> instruction: 0x000013b5
    320c:	04070104 	streq	r0, [r7], #-260	; 0xfffffefc
    3210:	7e0c0000 	cdpvc	0, 0, cr0, cr12, cr0, {0}
    3214:	fe000007 	cdp2	0, 0, cr0, cr0, cr7, {0}
    3218:	40000004 	andmi	r0, r0, r4
    321c:	00000000 	andeq	r0, r0, r0
    3220:	73000000 	movwvc	r0, #0
    3224:	02000027 	andeq	r0, r0, #39, 0	; 0x27
    3228:	6e690504 	cdpvs	5, 6, cr0, cr9, cr4, {0}
    322c:	25030074 	strcs	r0, [r3, #-116]	; 0xffffff8c
    3230:	04000000 	streq	r0, [r0], #-0
    3234:	01510704 	cmpeq	r1, r4, lsl #14
    3238:	01040000 	mrseq	r0, (UNDEF: 4)
    323c:	00003106 	andeq	r3, r0, r6, lsl #2
    3240:	05020400 	streq	r0, [r2, #-1024]	; 0xfffffc00
    3244:	000001df 	ldrdeq	r0, [r0], -pc	; <UNPREDICTABLE>
    3248:	63050404 	movwvs	r0, #21508	; 0x5404
    324c:	04000001 	streq	r0, [r0], #-1
    3250:	015e0508 	cmpeq	lr, r8, lsl #10
    3254:	01040000 	mrseq	r0, (UNDEF: 4)
    3258:	00002f08 	andeq	r2, r0, r8, lsl #30
    325c:	07020400 	streq	r0, [r2, -r0, lsl #8]
    3260:	00000051 	andeq	r0, r0, r1, asr r0
    3264:	4c070404 	cfstrsmi	mvf0, [r7], {4}
    3268:	04000001 	streq	r0, [r0], #-1
    326c:	01470708 	cmpeq	r7, r8, lsl #14
    3270:	25050000 	strcs	r0, [r5, #-0]
    3274:	7f000000 	svcvc	0x00000000
    3278:	06000000 	streq	r0, [r0], -r0
    327c:	00000025 	andeq	r0, r0, r5, lsr #32
    3280:	016c0700 	cmneq	ip, r0, lsl #14
    3284:	1c020000 	stcne	0, cr0, [r2], {-0}
    3288:	00008b0e 	andeq	r8, r0, lr, lsl #22
    328c:	70040800 	andvc	r0, r4, r0, lsl #16
    3290:	05000000 	streq	r0, [r0, #-0]
    3294:	00000025 	andeq	r0, r0, r5, lsr #32
    3298:	000000a0 	andeq	r0, r0, r0, lsr #1
    329c:	0000a006 	andeq	sl, r0, r6
    32a0:	04080000 	streq	r0, [r8], #-0
    32a4:	000000ad 	andeq	r0, r0, sp, lsr #1
    32a8:	38080104 	stmdacc	r8, {r2, r8}
    32ac:	03000000 	movweq	r0, #0
    32b0:	000000a6 	andeq	r0, r0, r6, lsr #1
    32b4:	00056507 	andeq	r6, r5, r7, lsl #10
    32b8:	0e210200 	cdpeq	2, 2, cr0, cr1, cr0, {0}
    32bc:	000000be 	strheq	r0, [r0], -lr
    32c0:	00910408 	addseq	r0, r1, r8, lsl #8
    32c4:	a2090000 	andge	r0, r9, #0, 0
    32c8:	01000007 	tsteq	r0, r7
    32cc:	0031110d 	eorseq	r1, r1, sp, lsl #2
    32d0:	c50a0000 	strgt	r0, [sl, #-0]
    32d4:	01000006 	tsteq	r0, r6
    32d8:	9d38061f 	ldcls	6, cr0, [r8, #-124]!	; 0xffffff84
    32dc:	00540000 	subseq	r0, r4, r0
    32e0:	9c010000 	stcls	0, cr0, [r1], {-0}
    32e4:	000001ae 	andeq	r0, r0, lr, lsr #3
    32e8:	0007c60b 	andeq	ip, r7, fp, lsl #12
    32ec:	0f2c0100 	svceq	0x002c0100
    32f0:	0000002c 	andeq	r0, r0, ip, lsr #32
    32f4:	000025fb 	strdeq	r2, [r0], -fp
    32f8:	000025f9 	strdeq	r2, [r0], -r9
    32fc:	0007610b 	andeq	r6, r7, fp, lsl #2
    3300:	0f2d0100 	svceq	0x002d0100
    3304:	0000002c 	andeq	r0, r0, ip, lsr #32
    3308:	00002615 	andeq	r2, r0, r5, lsl r6
    330c:	00002613 	andeq	r2, r0, r3, lsl r6
    3310:	0007930b 	andeq	r9, r7, fp, lsl #6
    3314:	0f2e0100 	svceq	0x002e0100
    3318:	0000002c 	andeq	r0, r0, ip, lsr #32
    331c:	0000262f 	andeq	r2, r0, pc, lsr #12
    3320:	0000262d 	andeq	r2, r0, sp, lsr #12
    3324:	0007ad0b 	andeq	sl, r7, fp, lsl #26
    3328:	0f2f0100 	svceq	0x002f0100
    332c:	0000002c 	andeq	r0, r0, ip, lsr #32
    3330:	00002648 	andeq	r2, r0, r8, asr #12
    3334:	00002646 	andeq	r2, r0, r6, asr #12
    3338:	009d400c 	addseq	r4, sp, ip
    333c:	0001d900 	andeq	sp, r1, r0, lsl #18
    3340:	9d4c0c00 	stclls	12, cr0, [ip, #-0]
    3344:	02080000 	andeq	r0, r8, #0, 0
    3348:	500c0000 	andpl	r0, ip, r0
    334c:	1500009d 	strne	r0, [r0, #-157]	; 0xffffff63
    3350:	0d000002 	stceq	0, cr0, [r0, #-8]
    3354:	00009d58 	andeq	r9, r0, r8, asr sp
    3358:	00000221 	andeq	r0, r0, r1, lsr #4
    335c:	00000164 	andeq	r0, r0, r4, ror #2
    3360:	0150010e 	cmpeq	r0, lr, lsl #2
    3364:	640d003a 	strvs	r0, [sp], #-58	; 0xffffffc6
    3368:	2d00009d 	stccs	0, cr0, [r0, #-628]	; 0xfffffd8c
    336c:	84000002 	strhi	r0, [r0], #-2
    3370:	0e000001 	cdpeq	0, 0, cr0, cr0, cr1, {0}
    3374:	0c055001 	stceq	0, cr5, [r5], {1}
    3378:	20100024 	andscs	r0, r0, r4, lsr #32
    337c:	0551010e 	ldrbeq	r0, [r1, #-270]	; 0xfffffef2
    3380:	0000010c 	andeq	r0, r0, ip, lsl #2
    3384:	700d005a 	andvc	r0, sp, sl, asr r0
    3388:	2d00009d 	stccs	0, cr0, [r0, #-628]	; 0xfffffd8c
    338c:	a4000002 	strge	r0, [r0], #-2
    3390:	0e000001 	cdpeq	0, 0, cr0, cr0, cr1, {0}
    3394:	0c055001 	stceq	0, cr5, [r5], {1}
    3398:	2010001c 	andscs	r0, r0, ip, lsl r0
    339c:	0551010e 	ldrbeq	r0, [r1, #-270]	; 0xfffffef2
    33a0:	0000200c 	andeq	r2, r0, ip
    33a4:	780c005a 	stmdavc	ip, {r1, r3, r4, r6}
    33a8:	ae00009d 	mcrge	0, 0, r0, cr0, cr13, {4}
    33ac:	00000001 	andeq	r0, r0, r1
    33b0:	00076f0f 	andeq	r6, r7, pc, lsl #30
    33b4:	06170100 	ldreq	r0, [r7], -r0, lsl #2
    33b8:	00009d24 	andeq	r9, r0, r4, lsr #26
    33bc:	00000014 	andeq	r0, r0, r4, lsl r0
    33c0:	01d99c01 	bicseq	r9, r9, r1, lsl #24
    33c4:	ce0b0000 	cdpgt	0, 0, cr0, cr11, cr0, {0}
    33c8:	01000007 	tsteq	r0, r7
    33cc:	00310e18 	eorseq	r0, r1, r8, lsl lr
    33d0:	26630000 	strbtcs	r0, [r3], -r0
    33d4:	265d0000 	ldrbcs	r0, [sp], -r0
    33d8:	10000000 	andne	r0, r0, r0
    33dc:	0000079f 	muleq	r0, pc, r7	; <UNPREDICTABLE>
    33e0:	25050e01 	strcs	r0, [r5, #-3585]	; 0xfffff1ff
    33e4:	0c000000 	stceq	0, cr0, [r0], {-0}
    33e8:	1800009d 	stmdane	r0, {r0, r2, r3, r4, r7}
    33ec:	01000000 	mrseq	r0, (UNDEF: 0)
    33f0:	0002089c 	muleq	r2, ip, r8
    33f4:	07ce0b00 	strbeq	r0, [lr, r0, lsl #22]
    33f8:	0f010000 	svceq	0x00010000
    33fc:	0000310e 	andeq	r3, r0, lr, lsl #2
    3400:	00269100 	eoreq	r9, r6, r0, lsl #2
    3404:	00268d00 	eoreq	r8, r6, r0, lsl #26
    3408:	52110000 	andspl	r0, r1, #0, 0
    340c:	52000007 	andpl	r0, r0, #7, 0
    3410:	02000007 	andeq	r0, r0, #7, 0
    3414:	1206013b 	andne	r0, r6, #-1073741810	; 0xc000000e
    3418:	000006eb 	andeq	r0, r0, fp, ror #13
    341c:	000006eb 	andeq	r0, r0, fp, ror #13
    3420:	12064d02 	andne	r4, r6, #128	; 0x80
    3424:	0000003d 	andeq	r0, r0, sp, lsr r0
    3428:	0000003d 	andeq	r0, r0, sp, lsr r0
    342c:	12065802 	andne	r5, r6, #131072	; 0x20000
    3430:	00000769 	andeq	r0, r0, r9, ror #14
    3434:	00000769 	andeq	r0, r0, r9, ror #14
    3438:	0006b202 	andeq	fp, r6, r2, lsl #4
    343c:	0000024d 	andeq	r0, r0, sp, asr #4
    3440:	14da0004 	ldrbne	r0, [sl], #4
    3444:	01040000 	mrseq	r0, (UNDEF: 4)
    3448:	00000407 	andeq	r0, r0, r7, lsl #8
    344c:	0007e90c 	andeq	lr, r7, ip, lsl #18
    3450:	0004fe00 	andeq	pc, r4, r0, lsl #28
    3454:	009d8c00 	addseq	r8, sp, r0, lsl #24
    3458:	00008400 	andeq	r8, r0, r0, lsl #8
    345c:	00286600 	eoreq	r6, r8, r0, lsl #12
    3460:	05040200 	streq	r0, [r4, #-512]	; 0xfffffe00
    3464:	00746e69 	rsbseq	r6, r4, r9, ror #28
    3468:	51070403 	tstpl	r7, r3, lsl #8
    346c:	03000001 	movweq	r0, #1
    3470:	00310601 	eorseq	r0, r1, r1, lsl #12
    3474:	02030000 	andeq	r0, r3, #0, 0
    3478:	0001df05 	andeq	sp, r1, r5, lsl #30
    347c:	05040300 	streq	r0, [r4, #-768]	; 0xfffffd00
    3480:	00000163 	andeq	r0, r0, r3, ror #2
    3484:	5e050803 	cdppl	8, 0, cr0, cr5, cr3, {0}
    3488:	03000001 	movweq	r0, #1
    348c:	002f0801 	eoreq	r0, pc, r1, lsl #16
    3490:	02030000 	andeq	r0, r3, #0, 0
    3494:	00005107 	andeq	r5, r0, r7, lsl #2
    3498:	07040300 	streq	r0, [r4, -r0, lsl #6]
    349c:	0000014c 	andeq	r0, r0, ip, asr #2
    34a0:	47070803 	strmi	r0, [r7, -r3, lsl #16]
    34a4:	04000001 	streq	r0, [r0], #-1
    34a8:	00000025 	andeq	r0, r0, r5, lsr #32
    34ac:	0000007a 	andeq	r0, r0, sl, ror r0
    34b0:	00002505 	andeq	r2, r0, r5, lsl #10
    34b4:	6c060000 	stcvs	0, cr0, [r6], {-0}
    34b8:	02000001 	andeq	r0, r0, #1, 0
    34bc:	00860e1c 	addeq	r0, r6, ip, lsl lr
    34c0:	04070000 	streq	r0, [r7], #-0
    34c4:	0000006b 	andeq	r0, r0, fp, rrx
    34c8:	00002504 	andeq	r2, r0, r4, lsl #10
    34cc:	00009b00 	andeq	r9, r0, r0, lsl #22
    34d0:	009b0500 	addseq	r0, fp, r0, lsl #10
    34d4:	07000000 	streq	r0, [r0, -r0]
    34d8:	0000a804 	andeq	sl, r0, r4, lsl #16
    34dc:	08010300 	stmdaeq	r1, {r8, r9}
    34e0:	00000038 	andeq	r0, r0, r8, lsr r0
    34e4:	0000a108 	andeq	sl, r0, r8, lsl #2
    34e8:	05650600 	strbeq	r0, [r5, #-1536]!	; 0xfffffa00
    34ec:	21020000 	mrscs	r0, (UNDEF: 2)
    34f0:	0000b90e 	andeq	fp, r0, lr, lsl #18
    34f4:	8c040700 	stchi	7, cr0, [r4], {-0}
    34f8:	09000000 	stmdbeq	r0, {}	; <UNPREDICTABLE>
    34fc:	000007df 	ldrdeq	r0, [r0], -pc	; <UNPREDICTABLE>
    3500:	f8061e01 			; <UNDEFINED> instruction: 0xf8061e01
    3504:	1800009d 	stmdane	r0, {r0, r2, r3, r4, r7}
    3508:	01000000 	mrseq	r0, (UNDEF: 0)
    350c:	0001099c 	muleq	r1, ip, r9
    3510:	65730a00 	ldrbvs	r0, [r3, #-2560]!	; 0xfffff600
    3514:	1e010063 	cdpne	0, 0, cr0, cr1, cr3, {3}
    3518:	00002c19 	andeq	r2, r0, r9, lsl ip
    351c:	0026b400 	eoreq	fp, r6, r0, lsl #8
    3520:	0026b000 	eoreq	fp, r6, r0
    3524:	9e0c0b00 	vmlals.f64	d0, d12, d0
    3528:	01090000 	mrseq	r0, (UNDEF: 9)
    352c:	010c0000 	mrseq	r0, (UNDEF: 12)
    3530:	01f31150 	mvnseq	r1, r0, asr r1
    3534:	f3243550 	vqrshl.u32	<illegal reg q1.5>, q0, q2
    3538:	321c5001 	andscc	r5, ip, #1, 0
    353c:	5001f324 	andpl	pc, r1, r4, lsr #6
    3540:	00243322 	eoreq	r3, r4, r2, lsr #6
    3544:	003d0900 	eorseq	r0, sp, r0, lsl #18
    3548:	1b010000 	blne	43550 <__bss_end__+0x38c38>
    354c:	009de006 	addseq	lr, sp, r6
    3550:	00001800 	andeq	r1, r0, r0, lsl #16
    3554:	529c0100 	addspl	r0, ip, #0
    3558:	0a000001 	beq	3564 <__code_start__-0x4a9c>
    355c:	0100736d 	tsteq	r0, sp, ror #6
    3560:	002c181b 	eoreq	r1, ip, fp, lsl r8
    3564:	26d90000 	ldrbcs	r0, [r9], r0
    3568:	26d50000 	ldrbcs	r0, [r5], r0
    356c:	f40b0000 	vst4.8	{d0-d3}, [fp], r0
    3570:	5200009d 	andpl	r0, r0, #157, 0	; 0x9d
    3574:	0c000001 	stceq	0, cr0, [r0], {1}
    3578:	f3115001 	vhadd.u16	d5, d1, d1
    357c:	24355001 	ldrtcs	r5, [r5], #-1
    3580:	1c5001f3 	ldfnee	f0, [r0], {243}	; 0xf3
    3584:	01f32432 	mvnseq	r2, r2, lsr r4
    3588:	24332250 	ldrtcs	r2, [r3], #-592	; 0xfffffdb0
    358c:	12090000 	andne	r0, r9, #0, 0
    3590:	01000008 	tsteq	r0, r8
    3594:	9dbc0612 	ldcls	6, cr0, [ip, #72]!	; 0x48
    3598:	00240000 	eoreq	r0, r4, r0
    359c:	9c010000 	stcls	0, cr0, [r1], {-0}
    35a0:	000001c2 	andeq	r0, r0, r2, asr #3
    35a4:	0073750a 	rsbseq	r7, r3, sl, lsl #10
    35a8:	2c181201 	lfmcs	f1, 4, [r8], {1}
    35ac:	fe000000 	cdp2	0, 0, cr0, cr0, cr0, {0}
    35b0:	fa000026 	blx	3650 <__code_start__-0x49b0>
    35b4:	0d000026 	stceq	0, cr0, [r0, #-152]	; 0xffffff68
    35b8:	01006272 	tsteq	r0, r2, ror r2
    35bc:	002c0e13 	eoreq	r0, ip, r3, lsl lr
    35c0:	271e0000 	ldrcs	r0, [lr, -r0]
    35c4:	271c0000 	ldrcs	r0, [ip, -r0]
    35c8:	cc0e0000 	stcgt	0, cr0, [lr], {-0}
    35cc:	1400009d 	strne	r0, [r0], #-157	; 0xffffff63
    35d0:	b8000000 	stmdalt	r0, {}	; <UNPREDICTABLE>
    35d4:	0d000001 	stceq	0, cr0, [r0, #-4]
    35d8:	01006172 	tsteq	r0, r2, ror r1
    35dc:	002c1215 	eoreq	r1, ip, r5, lsl r2
    35e0:	27330000 	ldrcs	r0, [r3, -r0]!
    35e4:	27310000 	ldrcs	r0, [r1, -r0]!
    35e8:	d00f0000 	andle	r0, pc, r0
    35ec:	c200009d 	andgt	r0, r0, #157, 0	; 0x9d
    35f0:	00000001 	andeq	r0, r0, r1
    35f4:	009dc80f 	addseq	ip, sp, pc, lsl #16
    35f8:	0001c200 	andeq	ip, r1, r0, lsl #4
    35fc:	03100000 	tsteq	r0, #0, 0
    3600:	01000008 	tsteq	r0, r8
    3604:	002c0a09 	eoreq	r0, ip, r9, lsl #20
    3608:	9da00000 	stcls	0, cr0, [r0]
    360c:	001c0000 	andseq	r0, ip, r0
    3610:	9c010000 	stcls	0, cr0, [r1], {-0}
    3614:	0000020a 	andeq	r0, r0, sl, lsl #4
    3618:	0100750d 	tsteq	r0, sp, lsl #10
    361c:	002c0e0d 	eoreq	r0, ip, sp, lsl #28
    3620:	274a0000 	strbcs	r0, [sl, -r0]
    3624:	27460000 	strbcs	r0, [r6, -r0]
    3628:	a80f0000 	stmdage	pc, {}	; <UNPREDICTABLE>
    362c:	3800009d 	stmdacc	r0, {r0, r2, r3, r4, r7}
    3630:	0f000002 	svceq	0x00000002
    3634:	00009dac 	andeq	r9, r0, ip, lsr #27
    3638:	0000020a 	andeq	r0, r0, sl, lsl #4
    363c:	009db40f 	addseq	fp, sp, pc, lsl #8
    3640:	00023800 	andeq	r3, r2, r0, lsl #16
    3644:	1b100000 	blne	40364c <__bss_end__+0x3f8d34>
    3648:	01000008 	tsteq	r0, r8
    364c:	002c0a04 	eoreq	r0, ip, r4, lsl #20
    3650:	9d8c0000 	stcls	0, cr0, [ip]
    3654:	00140000 	andseq	r0, r4, r0
    3658:	9c010000 	stcls	0, cr0, [r1], {-0}
    365c:	00000238 	andeq	r0, r0, r8, lsr r2
    3660:	009d980b 	addseq	r9, sp, fp, lsl #16
    3664:	00024400 	andeq	r4, r2, r0, lsl #8
    3668:	50010c00 	andpl	r0, r1, r0, lsl #24
    366c:	30040c05 	andcc	r0, r4, r5, lsl #24
    3670:	00002000 	andeq	r2, r0, r0
    3674:	0007d311 	andeq	sp, r7, r1, lsl r3
    3678:	0007d300 	andeq	sp, r7, r0, lsl #6
    367c:	06a10200 	strteq	r0, [r1], r0, lsl #4
    3680:	0007fd11 	andeq	pc, r7, r1, lsl sp	; <UNPREDICTABLE>
    3684:	0007fd00 	andeq	pc, r7, r0, lsl #26
    3688:	0ac70200 	beq	ff1c3e90 <__bss_end__+0xff1b9578>
    368c:	0005cd00 	andeq	ip, r5, r0, lsl #26
    3690:	db000400 	blle	4698 <__code_start__-0x3968>
    3694:	04000015 	streq	r0, [r0], #-21	; 0xffffffeb
    3698:	00096201 	andeq	r6, r9, r1, lsl #4
    369c:	086d0c00 	stmdaeq	sp!, {sl, fp}^
    36a0:	08e30000 	stmiaeq	r3!, {}^	; <UNPREDICTABLE>
    36a4:	9e100000 	cdpls	0, 1, cr0, cr0, cr0, {0}
    36a8:	01f00000 	mvnseq	r0, r0
    36ac:	29600000 	stmdbcs	r0!, {}^	; <UNPREDICTABLE>
    36b0:	04020000 	streq	r0, [r2], #-0
    36b4:	746e6905 	strbtvc	r6, [lr], #-2309	; 0xfffff6fb
    36b8:	07040300 	streq	r0, [r4, -r0, lsl #6]
    36bc:	00000151 	andeq	r0, r0, r1, asr r1
    36c0:	00002c04 	andeq	r2, r0, r4, lsl #24
    36c4:	06010300 	streq	r0, [r1], -r0, lsl #6
    36c8:	00000031 	andeq	r0, r0, r1, lsr r0
    36cc:	df050203 	svcle	0x00050203
    36d0:	03000001 	movweq	r0, #1
    36d4:	01630504 	cmneq	r3, r4, lsl #10
    36d8:	08030000 	stmdaeq	r3, {}	; <UNPREDICTABLE>
    36dc:	00015e05 	andeq	r5, r1, r5, lsl #28
    36e0:	08010300 	stmdaeq	r1, {r8, r9}
    36e4:	0000002f 	andeq	r0, r0, pc, lsr #32
    36e8:	51070203 	tstpl	r7, r3, lsl #4
    36ec:	05000000 	streq	r0, [r0, #-0]
    36f0:	000001e9 	andeq	r0, r0, r9, ror #3
    36f4:	6e193405 	cfmulsvs	mvf3, mvf9, mvf5
    36f8:	03000000 	movweq	r0, #0
    36fc:	014c0704 	cmpeq	ip, r4, lsl #14
    3700:	08030000 	stmdaeq	r3, {}	; <UNPREDICTABLE>
    3704:	00014707 	andeq	r4, r1, r7, lsl #14
    3708:	08010300 	stmdaeq	r1, {r8, r9}
    370c:	00000038 	andeq	r0, r0, r8, lsr r0
    3710:	54010706 	strpl	r0, [r1], #-1798	; 0xfffff8fa
    3714:	04000000 	streq	r0, [r0], #-0
    3718:	00c20e0c 	sbceq	r0, r2, ip, lsl #28
    371c:	2a070000 	bcs	1c3724 <__bss_end__+0x1b8e0c>
    3720:	0000000a 	andeq	r0, r0, sl
    3724:	00085007 	andeq	r5, r8, r7
    3728:	98070100 	stmdals	r7, {r8}
    372c:	04000008 	streq	r0, [r0], #-8
    3730:	0008a707 	andeq	sl, r8, r7, lsl #14
    3734:	b6070500 	strlt	r0, [r7], -r0, lsl #10
    3738:	06000008 	streq	r0, [r0], -r8
    373c:	0008c507 	andeq	ip, r8, r7, lsl #10
    3740:	53070700 	movwpl	r0, #30464	; 0x7700
    3744:	03000009 	movweq	r0, #9
    3748:	0008d407 	andeq	sp, r8, r7, lsl #8
    374c:	08000200 	stmdaeq	r0, {r9}
    3750:	00000861 	andeq	r0, r0, r1, ror #16
    3754:	0806022c 	stmdaeq	r6, {r2, r3, r5, r9}
    3758:	0000015e 	andeq	r0, r0, lr, asr r1
    375c:	006f6909 	rsbeq	r6, pc, r9, lsl #18
    3760:	33090902 	movwcc	r0, #39170	; 0x9902
    3764:	00000000 	andeq	r0, r0, r0
    3768:	72656909 	rsbvc	r6, r5, #147456	; 0x24000
    376c:	090a0200 	stmdbeq	sl, {r9}
    3770:	00000033 	andeq	r0, r0, r3, lsr r0
    3774:	69690904 	stmdbvs	r9!, {r2, r8, fp}^
    3778:	11020072 	tstne	r2, r2, ror r0
    377c:	00003309 	andeq	r3, r0, r9, lsl #6
    3780:	6c090800 	stcvs	8, cr0, [r9], {-0}
    3784:	02007263 	andeq	r7, r0, #805306374	; 0x30000006
    3788:	00330913 	eorseq	r0, r3, r3, lsl r9
    378c:	090c0000 	stmdbeq	ip, {}	; <UNPREDICTABLE>
    3790:	0072636d 	rsbseq	r6, r2, sp, ror #6
    3794:	33091402 	movwcc	r1, #37890	; 0x9402
    3798:	10000000 	andne	r0, r0, r0
    379c:	72736c09 	rsbsvc	r6, r3, #2304	; 0x900
    37a0:	09150200 	ldmdbeq	r5, {r9}
    37a4:	00000033 	andeq	r0, r0, r3, lsr r0
    37a8:	736d0914 	cmnvc	sp, #20, 18	; 0x50000
    37ac:	16020072 			; <UNDEFINED> instruction: 0x16020072
    37b0:	00003309 	andeq	r3, r0, r9, lsl #6
    37b4:	0a0a1800 	beq	2897bc <__bss_end__+0x27eea4>
    37b8:	0200000a 	andeq	r0, r0, #10, 0
    37bc:	00330917 	eorseq	r0, r3, r7, lsl r9
    37c0:	0a1c0000 	beq	7037c8 <__bss_end__+0x6f8eb0>
    37c4:	00000933 	andeq	r0, r0, r3, lsr r9
    37c8:	33091b02 	movwcc	r1, #39682	; 0x9b02
    37cc:	20000000 	andcs	r0, r0, r0
    37d0:	00083d0a 	andeq	r3, r8, sl, lsl #26
    37d4:	091d0200 	ldmdbeq	sp, {r9}
    37d8:	00000033 	andeq	r0, r0, r3, lsr r0
    37dc:	09180a24 	ldmdbeq	r8, {r2, r5, r9, fp}
    37e0:	1e020000 	cdpne	0, 0, cr0, cr2, cr0, {0}
    37e4:	00003309 	andeq	r3, r0, r9, lsl #6
    37e8:	0b002800 	bleq	d7f0 <__bss_end__+0x2ed8>
    37ec:	0000091d 	andeq	r0, r0, sp, lsl r9
    37f0:	74090801 	strvc	r0, [r9], #-2049	; 0xfffff7ff
    37f4:	04000001 	streq	r0, [r0], #-1
    37f8:	0c202150 	stfeqs	f2, [r0], #-320	; 0xfffffec0
    37fc:	00003304 	andeq	r3, r0, r4, lsl #6
    3800:	016e0d00 	cmneq	lr, r0, lsl #26
    3804:	120b0000 	andne	r0, fp, #0, 0
    3808:	0100000a 	tsteq	r0, sl
    380c:	018f2329 	orreq	r2, pc, r9, lsr #6
    3810:	50400000 	subpl	r0, r0, r0
    3814:	040c2021 	streq	r2, [ip], #-33	; 0xffffffdf
    3818:	000000c2 	andeq	r0, r0, r2, asr #1
    381c:	0001890d 	andeq	r8, r1, sp, lsl #18
    3820:	06eb0e00 	strbteq	r0, [fp], r0, lsl #28
    3824:	cc010000 	stcgt	0, cr0, [r1], {-0}
    3828:	009fc806 	addseq	ip, pc, r6, lsl #16
    382c:	00001400 	andeq	r1, r0, r0, lsl #8
    3830:	b49c0100 	ldrlt	r0, [ip], #256	; 0x100
    3834:	0f000001 	svceq	0x00000001
    3838:	00009fd0 	ldrdeq	r9, [r0], -r0
    383c:	000001b4 			; <UNDEFINED> instruction: 0x000001b4
    3840:	08871000 	stmeq	r7, {ip}
    3844:	b6010000 	strlt	r0, [r1], -r0
    3848:	00002505 	andeq	r2, r0, r5, lsl #10
    384c:	009fa800 	addseq	sl, pc, r0, lsl #16
    3850:	00002000 	andeq	r2, r0, r0
    3854:	eb9c0100 	bl	fe703c5c <__bss_end__+0xfe6f9344>
    3858:	0f000001 	svceq	0x00000001
    385c:	00009fb0 			; <UNDEFINED> instruction: 0x00009fb0
    3860:	000005a0 	andeq	r0, r0, r0, lsr #11
    3864:	009fb811 	addseq	fp, pc, r1, lsl r8	; <UNPREDICTABLE>
    3868:	0005ac00 	andeq	sl, r5, r0, lsl #24
    386c:	50011200 	andpl	r1, r1, r0, lsl #4
    3870:	50640c05 	rsbpl	r0, r4, r5, lsl #24
    3874:	00002021 	andeq	r2, r0, r1, lsr #32
    3878:	00094510 	andeq	r4, r9, r0, lsl r5
    387c:	05b30100 	ldreq	r0, [r3, #256]!	; 0x100
    3880:	00000025 	andeq	r0, r0, r5, lsr #32
    3884:	00009f98 	muleq	r0, r8, pc	; <UNPREDICTABLE>
    3888:	00000010 	andeq	r0, r0, r0, lsl r0
    388c:	02189c01 	andseq	r9, r8, #256	; 0x100
    3890:	a00f0000 	andge	r0, pc, r0
    3894:	a000009f 	mulge	r0, pc, r0	; <UNPREDICTABLE>
    3898:	0f000005 	svceq	0x00000005
    389c:	00009fa4 	andeq	r9, r0, r4, lsr #31
    38a0:	00000309 	andeq	r0, r0, r9, lsl #6
    38a4:	0a200e00 	beq	8070ac <__bss_end__+0x7fc794>
    38a8:	ab010000 	blge	438b0 <__bss_end__+0x38f98>
    38ac:	009f6806 	addseq	r6, pc, r6, lsl #16
    38b0:	00003000 	andeq	r3, r0, r0
    38b4:	7c9c0100 	ldfvcs	f0, [ip], {0}
    38b8:	13000002 	movwne	r0, #2
    38bc:	ab010063 	blge	43a50 <__bss_end__+0x39138>
    38c0:	00002c19 	andeq	r2, r0, r9, lsl ip
    38c4:	00276c00 	eoreq	r6, r7, r0, lsl #24
    38c8:	00276800 	eoreq	r6, r7, r0, lsl #16
    38cc:	9f740f00 	svcls	0x00740f00
    38d0:	05a00000 	streq	r0, [r0, #0]!
    38d4:	780f0000 	stmdavc	pc, {}	; <UNPREDICTABLE>
    38d8:	db00009f 	blle	3b5c <__code_start__-0x44a4>
    38dc:	14000002 	strne	r0, [r0], #-2
    38e0:	00009f8c 	andeq	r9, r0, ip, lsl #31
    38e4:	000005b8 			; <UNDEFINED> instruction: 0x000005b8
    38e8:	00000272 	andeq	r0, r0, r2, ror r2
    38ec:	05500112 	ldrbeq	r0, [r0, #-274]	; 0xfffffeee
    38f0:	2150400c 	cmpcs	r0, ip
    38f4:	51011220 	tstpl	r1, r0, lsr #4
    38f8:	08007405 	stmdaeq	r0, {r0, r2, sl, ip, sp, lr}
    38fc:	0f001aff 	svceq	0x00001aff
    3900:	00009f90 	muleq	r0, r0, pc	; <UNPREDICTABLE>
    3904:	000005a0 	andeq	r0, r0, r0, lsr #11
    3908:	09291000 	stmdbeq	r9!, {ip}
    390c:	a3010000 	movwge	r0, #4096	; 0x1000
    3910:	00002505 	andeq	r2, r0, r5, lsl #10
    3914:	009f3800 	addseq	r3, pc, r0, lsl #16
    3918:	00003000 	andeq	r3, r0, r0
    391c:	db9c0100 	blle	fe703d24 <__bss_end__+0xfe6f940c>
    3920:	15000002 	strne	r0, [r0, #-2]
    3924:	a7010063 	strge	r0, [r1, -r3, rrx]
    3928:	00002509 	andeq	r2, r0, r9, lsl #10
    392c:	00278c00 	eoreq	r8, r7, r0, lsl #24
    3930:	00278a00 	eoreq	r8, r7, r0, lsl #20
    3934:	9f400f00 	svcls	0x00400f00
    3938:	05a00000 	streq	r0, [r0, #0]!
    393c:	440f0000 	strmi	r0, [pc], #-0	; 3944 <__code_start__-0x46bc>
    3940:	0900009f 	stmdbeq	r0, {r0, r1, r2, r3, r4, r7}
    3944:	14000003 	strne	r0, [r0], #-3
    3948:	00009f54 	andeq	r9, r0, r4, asr pc
    394c:	000005ac 	andeq	r0, r0, ip, lsr #11
    3950:	000002d1 	ldrdeq	r0, [r0], -r1
    3954:	05500112 	ldrbeq	r0, [r0, #-274]	; 0xfffffeee
    3958:	2150400c 	cmpcs	r0, ip
    395c:	5c0f0020 	stcpl	0, cr0, [pc], {32}
    3960:	a000009f 	mulge	r0, pc, r0	; <UNPREDICTABLE>
    3964:	00000005 	andeq	r0, r0, r5
    3968:	00087410 	andeq	r7, r8, r0, lsl r4
    396c:	05940100 	ldreq	r0, [r4, #256]	; 0x100
    3970:	00000025 	andeq	r0, r0, r5, lsr #32
    3974:	00009f18 	andeq	r9, r0, r8, lsl pc
    3978:	00000020 	andeq	r0, r0, r0, lsr #32
    397c:	03099c01 	movweq	r9, #39937	; 0x9c01
    3980:	24110000 	ldrcs	r0, [r1], #-0
    3984:	ac00009f 	stcge	0, cr0, [r0], {159}	; 0x9f
    3988:	12000005 	andne	r0, r0, #5, 0
    398c:	0c055001 	stceq	0, cr5, [r5], {1}
    3990:	20215064 	eorcs	r5, r1, r4, rrx
    3994:	42100000 	andsmi	r0, r0, #0, 0
    3998:	01000008 	tsteq	r0, r8
    399c:	0025058b 	eoreq	r0, r5, fp, lsl #11
    39a0:	9f000000 	svcls	0x00000000
    39a4:	00180000 	andseq	r0, r8, r0
    39a8:	9c010000 	stcls	0, cr0, [r1], {-0}
    39ac:	00000337 	andeq	r0, r0, r7, lsr r3
    39b0:	009f0c11 	addseq	r0, pc, r1, lsl ip	; <UNPREDICTABLE>
    39b4:	0005ac00 	andeq	sl, r5, r0, lsl #24
    39b8:	50011200 	andpl	r1, r1, r0, lsl #4
    39bc:	50640c05 	rsbpl	r0, r4, r5, lsl #24
    39c0:	00002021 	andeq	r2, r0, r1, lsr #32
    39c4:	0007090e 	andeq	r0, r7, lr, lsl #18
    39c8:	06450100 	strbeq	r0, [r5], -r0, lsl #2
    39cc:	00009e50 	andeq	r9, r0, r0, asr lr
    39d0:	000000b0 	strheq	r0, [r0], -r0	; <UNPREDICTABLE>
    39d4:	04849c01 	streq	r9, [r4], #3073	; 0xc01
    39d8:	34160000 	ldrcc	r0, [r6], #-0
    39dc:	01000008 	tsteq	r0, r8
    39e0:	00620e7e 	rsbeq	r0, r2, lr, ror lr
    39e4:	010e0000 	mrseq	r0, (UNDEF: 14)
    39e8:	009e6014 	addseq	r6, lr, r4, lsl r0
    39ec:	0005c400 	andeq	ip, r5, r0, lsl #8
    39f0:	00037300 	andeq	r7, r3, r0, lsl #6
    39f4:	50011200 	andpl	r1, r1, r0, lsl #4
    39f8:	01123e01 	tsteq	r2, r1, lsl #28
    39fc:	00320151 	eorseq	r0, r2, r1, asr r1
    3a00:	009e6c14 	addseq	r6, lr, r4, lsl ip
    3a04:	0005c400 	andeq	ip, r5, r0, lsl #8
    3a08:	00038b00 	andeq	r8, r3, r0, lsl #22
    3a0c:	50011200 	andpl	r1, r1, r0, lsl #4
    3a10:	01123f01 	tsteq	r2, r1, lsl #30
    3a14:	00320151 	eorseq	r0, r2, r1, asr r1
    3a18:	009e700f 	addseq	r7, lr, pc
    3a1c:	0005a000 	andeq	sl, r5, r0
    3a20:	9e7c1400 	cdpls	4, 7, cr1, cr12, cr0, {0}
    3a24:	053d0000 	ldreq	r0, [sp, #-0]!
    3a28:	03b00000 	movseq	r0, #0, 0
    3a2c:	01120000 	tsteq	r2, r0
    3a30:	040c0550 	streq	r0, [ip], #-1360	; 0xfffffab0
    3a34:	12202150 	eorne	r2, r0, #20
    3a38:	31015101 	tstcc	r1, r1, lsl #2
    3a3c:	9e800f00 	cdpls	15, 8, cr0, cr0, cr0, {0}
    3a40:	05a00000 	streq	r0, [r0, #0]!
    3a44:	90140000 	andsls	r0, r4, r0
    3a48:	b800009e 	stmdalt	r0, {r1, r2, r3, r4, r7}
    3a4c:	d2000005 	andle	r0, r0, #5, 0
    3a50:	12000003 	andne	r0, r0, #3, 0
    3a54:	74025001 	strvc	r5, [r2], #-1
    3a58:	51011200 	mrspl	r1, R9_usr
    3a5c:	14003001 	strne	r3, [r0], #-1
    3a60:	00009e9c 	muleq	r0, ip, lr
    3a64:	000005b8 			; <UNDEFINED> instruction: 0x000005b8
    3a68:	000003ee 	andeq	r0, r0, lr, ror #7
    3a6c:	05500112 	ldrbeq	r0, [r0, #-274]	; 0xfffffeee
    3a70:	2150440c 	cmpcs	r0, ip, lsl #8
    3a74:	51011220 	tstpl	r1, r0, lsr #4
    3a78:	14003001 	strne	r3, [r0], #-1
    3a7c:	00009ea8 	andeq	r9, r0, r8, lsr #29
    3a80:	000005b8 			; <UNDEFINED> instruction: 0x000005b8
    3a84:	0000040a 	andeq	r0, r0, sl, lsl #8
    3a88:	05500112 	ldrbeq	r0, [r0, #-274]	; 0xfffffeee
    3a8c:	21504c0c 	cmpcs	r0, ip, lsl #24
    3a90:	51011220 	tstpl	r1, r0, lsr #4
    3a94:	14003301 	strne	r3, [r0], #-769	; 0xfffffcff
    3a98:	00009eb4 			; <UNDEFINED> instruction: 0x00009eb4
    3a9c:	000005b8 			; <UNDEFINED> instruction: 0x000005b8
    3aa0:	00000426 	andeq	r0, r0, r6, lsr #8
    3aa4:	05500112 	ldrbeq	r0, [r0, #-274]	; 0xfffffeee
    3aa8:	2150500c 	cmpcs	r0, ip
    3aac:	51011220 	tstpl	r1, r0, lsr #4
    3ab0:	14003001 	strne	r3, [r0], #-1
    3ab4:	00009ec0 	andeq	r9, r0, r0, asr #29
    3ab8:	000005b8 			; <UNDEFINED> instruction: 0x000005b8
    3abc:	00000443 	andeq	r0, r0, r3, asr #8
    3ac0:	05500112 	ldrbeq	r0, [r0, #-274]	; 0xfffffeee
    3ac4:	2150480c 	cmpcs	r0, ip, lsl #16
    3ac8:	51011220 	tstpl	r1, r0, lsr #4
    3acc:	00c70802 	sbceq	r0, r7, r2, lsl #16
    3ad0:	009ecc14 	addseq	ip, lr, r4, lsl ip
    3ad4:	0005b800 	andeq	fp, r5, r0, lsl #16
    3ad8:	00046100 	andeq	r6, r4, r0, lsl #2
    3adc:	50011200 	andpl	r1, r1, r0, lsl #4
    3ae0:	50680c05 	rsbpl	r0, r8, r5, lsl #24
    3ae4:	01122021 	tsteq	r2, r1, lsr #32
    3ae8:	0e0a0351 	mcreq	3, 0, r0, cr10, cr1, {2}
    3aec:	d8140001 	ldmdale	r4, {r0}
    3af0:	b800009e 	stmdalt	r0, {r1, r2, r3, r4, r7}
    3af4:	7a000005 	bvc	3b10 <__code_start__-0x44f0>
    3af8:	12000004 	andne	r0, r0, #4, 0
    3afc:	74025001 	strvc	r5, [r2], #-1
    3b00:	51011200 	mrspl	r1, R9_usr
    3b04:	0f003301 	svceq	0x00003301
    3b08:	00009edc 	ldrdeq	r9, [r0], -ip
    3b0c:	000005a0 	andeq	r0, r0, r0, lsr #11
    3b10:	09380e00 	ldmdbeq	r8!, {r9, sl, fp}
    3b14:	35010000 	strcc	r0, [r1, #-0]
    3b18:	009fdc06 	addseq	sp, pc, r6, lsl #24
    3b1c:	00002400 	andeq	r2, r0, r0, lsl #8
    3b20:	d39c0100 	orrsle	r0, ip, #0
    3b24:	0f000004 	svceq	0x00000004
    3b28:	00009fe4 	andeq	r9, r0, r4, ror #31
    3b2c:	00000194 	muleq	r0, r4, r1
    3b30:	009fe80f 	addseq	lr, pc, pc, lsl #16
    3b34:	0005a000 	andeq	sl, r5, r0
    3b38:	9ff41400 	svcls	0x00f41400
    3b3c:	04d30000 	ldrbeq	r0, [r3], #0
    3b40:	04c90000 	strbeq	r0, [r9], #0
    3b44:	01120000 	tsteq	r2, r0
    3b48:	040c0550 	streq	r0, [ip], #-1360	; 0xfffffab0
    3b4c:	12202150 	eorne	r2, r0, #20
    3b50:	09025101 	stmdbeq	r2, {r0, r8, ip, lr}
    3b54:	f80f00fe 			; <UNDEFINED> instruction: 0xf80f00fe
    3b58:	a000009f 	mulge	r0, pc, r0	; <UNPREDICTABLE>
    3b5c:	00000005 	andeq	r0, r0, r5
    3b60:	000a1717 	andeq	r1, sl, r7, lsl r7
    3b64:	0d310100 	ldfeqs	f0, [r1, #-0]
    3b68:	00009e10 	andeq	r9, r0, r0, lsl lr
    3b6c:	00000020 	andeq	r0, r0, r0, lsr #32
    3b70:	05369c01 	ldreq	r9, [r6, #-3073]!	; 0xfffff3ff
    3b74:	82180000 	andshi	r0, r8, #0, 0
    3b78:	01000008 	tsteq	r0, r8
    3b7c:	05362531 	ldreq	r2, [r6, #-1329]!	; 0xfffffacf
    3b80:	27a30000 	strcs	r0, [r3, r0]!
    3b84:	279f0000 	ldrcs	r0, [pc, r0]
    3b88:	76130000 	ldrvc	r0, [r3], -r0
    3b8c:	01006c61 	tsteq	r0, r1, ror #24
    3b90:	002c3431 	eoreq	r3, ip, r1, lsr r4
    3b94:	27c50000 	strbcs	r0, [r5, r0]
    3b98:	27c10000 	strbcs	r0, [r1, r0]
    3b9c:	20140000 	andscs	r0, r4, r0
    3ba0:	ac00009e 	stcge	0, cr0, [r0], {158}	; 0x9e
    3ba4:	25000005 	strcs	r0, [r0, #-5]
    3ba8:	12000005 	andne	r0, r0, #5, 0
    3bac:	74025001 	strvc	r5, [r2], #-1
    3bb0:	2c110000 	ldccs	0, cr0, [r1], {-0}
    3bb4:	b800009e 	stmdalt	r0, {r1, r2, r3, r4, r7}
    3bb8:	12000005 	andne	r0, r0, #5, 0
    3bbc:	74025001 	strvc	r5, [r2], #-1
    3bc0:	0c000000 	stceq	0, cr0, [r0], {-0}
    3bc4:	00053c04 	andeq	r3, r5, r4, lsl #24
    3bc8:	02171900 	andseq	r1, r7, #0, 18
    3bcc:	0100000a 	tsteq	r0, sl
    3bd0:	9e300d2e 	cdpls	13, 3, cr0, cr0, cr14, {1}
    3bd4:	00200000 	eoreq	r0, r0, r0
    3bd8:	9c010000 	stcls	0, cr0, [r1], {-0}
    3bdc:	000005a0 	andeq	r0, r0, r0, lsr #11
    3be0:	00088218 	andeq	r8, r8, r8, lsl r2
    3be4:	242e0100 	strtcs	r0, [lr], #-256	; 0xffffff00
    3be8:	00000536 	andeq	r0, r0, r6, lsr r5
    3bec:	000027e7 	andeq	r2, r0, r7, ror #15
    3bf0:	000027e3 	andeq	r2, r0, r3, ror #15
    3bf4:	6c617613 	stclvs	6, cr7, [r1], #-76	; 0xffffffb4
    3bf8:	332e0100 			; <UNDEFINED> instruction: 0x332e0100
    3bfc:	0000002c 	andeq	r0, r0, ip, lsr #32
    3c00:	00002809 	andeq	r2, r0, r9, lsl #16
    3c04:	00002805 	andeq	r2, r0, r5, lsl #16
    3c08:	009e4014 	addseq	r4, lr, r4, lsl r0
    3c0c:	0005ac00 	andeq	sl, r5, r0, lsl #24
    3c10:	00058f00 	andeq	r8, r5, r0, lsl #30
    3c14:	50011200 	andpl	r1, r1, r0, lsl #4
    3c18:	00007402 	andeq	r7, r0, r2, lsl #8
    3c1c:	009e4c11 	addseq	r4, lr, r1, lsl ip
    3c20:	0005b800 	andeq	fp, r5, r0, lsl #16
    3c24:	50011200 	andpl	r1, r1, r0, lsl #4
    3c28:	00007402 	andeq	r7, r0, r2, lsl #8
    3c2c:	07d31a00 	ldrbeq	r1, [r3, r0, lsl #20]
    3c30:	07d30000 	ldrbeq	r0, [r3, r0]
    3c34:	a1030000 	mrsge	r0, (UNDEF: 3)
    3c38:	0a4c1a06 	beq	130a458 <__bss_end__+0x12ffb40>
    3c3c:	0a4c0000 	beq	1303c44 <__bss_end__+0x12f932c>
    3c40:	c8030000 	stmdagt	r3, {}	; <UNPREDICTABLE>
    3c44:	082e1a0b 	stmdaeq	lr!, {r0, r1, r3, r9, fp, ip}
    3c48:	082e0000 	stmdaeq	lr!, {}	; <UNPREDICTABLE>
    3c4c:	b3030000 	movwlt	r0, #12288	; 0x3000
    3c50:	0a3a1a06 	beq	e8a470 <__bss_end__+0xe7fb58>
    3c54:	0a3a0000 	beq	e83c5c <__bss_end__+0xe79344>
    3c58:	19040000 	stmdbne	r4, {}	; <UNPREDICTABLE>
    3c5c:	01490006 	cmpeq	r9, r6
    3c60:	00040000 	andeq	r0, r4, r0
    3c64:	00001773 	andeq	r1, r0, r3, ror r7
    3c68:	04070104 	streq	r0, [r7], #-260	; 0xfffffefc
    3c6c:	700c0000 	andvc	r0, ip, r0
    3c70:	fe00000a 	cdp2	0, 0, cr0, cr0, cr10, {0}
    3c74:	00000004 	andeq	r0, r0, r4
    3c78:	3c0000a0 	stccc	0, cr0, [r0], {160}	; 0xa0
    3c7c:	69000000 	stmdbvs	r0, {}	; <UNPREDICTABLE>
    3c80:	0200002b 	andeq	r0, r0, #43, 0	; 0x2b
    3c84:	6e690504 	cdpvs	5, 6, cr0, cr9, cr4, {0}
    3c88:	04030074 	streq	r0, [r3], #-116	; 0xffffff8c
    3c8c:	00015107 	andeq	r5, r1, r7, lsl #2
    3c90:	06010300 	streq	r0, [r1], -r0, lsl #6
    3c94:	00000031 	andeq	r0, r0, r1, lsr r0
    3c98:	df050203 	svcle	0x00050203
    3c9c:	03000001 	movweq	r0, #1
    3ca0:	01630504 	cmneq	r3, r4, lsl #10
    3ca4:	08030000 	stmdaeq	r3, {}	; <UNPREDICTABLE>
    3ca8:	00015e05 	andeq	r5, r1, r5, lsl #28
    3cac:	08010300 	stmdaeq	r1, {r8, r9}
    3cb0:	0000002f 	andeq	r0, r0, pc, lsr #32
    3cb4:	51070203 	tstpl	r7, r3, lsl #4
    3cb8:	03000000 	movweq	r0, #0
    3cbc:	014c0704 	cmpeq	ip, r4, lsl #14
    3cc0:	08030000 	stmdaeq	r3, {}	; <UNPREDICTABLE>
    3cc4:	00014707 	andeq	r4, r1, r7, lsl #14
    3cc8:	00250400 	eoreq	r0, r5, r0, lsl #8
    3ccc:	007a0000 	rsbseq	r0, sl, r0
    3cd0:	25050000 	strcs	r0, [r5, #-0]
    3cd4:	00000000 	andeq	r0, r0, r0
    3cd8:	00016c06 	andeq	r6, r1, r6, lsl #24
    3cdc:	0e1c0200 	cdpeq	2, 1, cr0, cr12, cr0, {0}
    3ce0:	00000086 	andeq	r0, r0, r6, lsl #1
    3ce4:	006b0407 	rsbeq	r0, fp, r7, lsl #8
    3ce8:	25040000 	strcs	r0, [r4, #-0]
    3cec:	9b000000 	blls	3cf4 <__code_start__-0x430c>
    3cf0:	05000000 	streq	r0, [r0, #-0]
    3cf4:	0000009b 	muleq	r0, fp, r0
    3cf8:	a8040700 	stmdage	r4, {r8, r9, sl}
    3cfc:	03000000 	movweq	r0, #0
    3d00:	00380801 	eorseq	r0, r8, r1, lsl #16
    3d04:	a1080000 	mrsge	r0, (UNDEF: 8)
    3d08:	06000000 	streq	r0, [r0], -r0
    3d0c:	00000565 	andeq	r0, r0, r5, ror #10
    3d10:	b90e2102 	stmdblt	lr, {r1, r8, sp}
    3d14:	07000000 	streq	r0, [r0, -r0]
    3d18:	00008c04 	andeq	r8, r0, r4, lsl #24
    3d1c:	007a0900 	rsbseq	r0, sl, r0, lsl #18
    3d20:	06010000 	streq	r0, [r1], -r0
    3d24:	10030507 	andne	r0, r3, r7, lsl #10
    3d28:	0a0000a5 	beq	3fc4 <__code_start__-0x403c>
    3d2c:	00000a63 	andeq	r0, r0, r3, ror #20
    3d30:	2c060b01 			; <UNDEFINED> instruction: 0x2c060b01
    3d34:	100000a0 	andne	r0, r0, r0, lsr #1
    3d38:	01000000 	mrseq	r0, (UNDEF: 0)
    3d3c:	0000f19c 	muleq	r0, ip, r1
    3d40:	70660b00 	rsbvc	r0, r6, r0, lsl #22
    3d44:	190b0100 	stmdbne	fp, {r8}
    3d48:	00000086 	andeq	r0, r0, r6, lsl #1
    3d4c:	0c005001 	stceq	0, cr5, [r0], {1}
    3d50:	00000a81 	andeq	r0, r0, r1, lsl #21
    3d54:	14060801 	strne	r0, [r6], #-2049	; 0xfffff7ff
    3d58:	180000a0 	stmdane	r0, {r5, r7}
    3d5c:	01000000 	mrseq	r0, (UNDEF: 0)
    3d60:	0a520d9c 	beq	14873d8 <__bss_end__+0x147cac0>
    3d64:	03010000 	movweq	r0, #4096	; 0x1000
    3d68:	0000250c 	andeq	r2, r0, ip, lsl #10
    3d6c:	00a00000 	adceq	r0, r0, r0
    3d70:	00001400 	andeq	r1, r0, r0, lsl #8
    3d74:	409c0100 	addsmi	r0, ip, r0, lsl #2
    3d78:	0e000001 	cdpeq	0, 0, cr0, cr0, cr1, {0}
    3d7c:	03010063 	movweq	r0, #4195	; 0x1063
    3d80:	00002521 	andeq	r2, r0, r1, lsr #10
    3d84:	00282b00 	eoreq	r2, r8, r0, lsl #22
    3d88:	00282700 	eoreq	r2, r8, r0, lsl #14
    3d8c:	a00c0f00 	andge	r0, ip, r0, lsl #30
    3d90:	01400000 	mrseq	r0, (UNDEF: 64)
    3d94:	01100000 	tsteq	r0, r0
    3d98:	00740250 	rsbseq	r0, r4, r0, asr r2
    3d9c:	20110000 	andscs	r0, r1, r0
    3da0:	2000000a 	andcs	r0, r0, sl
    3da4:	0200000a 	andeq	r0, r0, #10, 0
    3da8:	37000642 	strcc	r0, [r0, -r2, asr #12]
    3dac:	04000001 	streq	r0, [r0], #-1
    3db0:	00188200 	andseq	r8, r8, r0, lsl #4
    3db4:	07010400 	streq	r0, [r1, -r0, lsl #8]
    3db8:	0c000004 	stceq	0, cr0, [r0], {4}
    3dbc:	00000a95 	muleq	r0, r5, sl
    3dc0:	000004fe 	strdeq	r0, [r0], -lr
    3dc4:	0000a03c 	andeq	sl, r0, ip, lsr r0
    3dc8:	00000034 	andeq	r0, r0, r4, lsr r0
    3dcc:	00002c27 	andeq	r2, r0, r7, lsr #24
    3dd0:	69050402 	stmdbvs	r5, {r1, sl}
    3dd4:	0300746e 	movweq	r7, #1134	; 0x46e
    3dd8:	01510704 	cmpeq	r1, r4, lsl #14
    3ddc:	01030000 	mrseq	r0, (UNDEF: 3)
    3de0:	00003106 	andeq	r3, r0, r6, lsl #2
    3de4:	05020300 	streq	r0, [r2, #-768]	; 0xfffffd00
    3de8:	000001df 	ldrdeq	r0, [r0], -pc	; <UNPREDICTABLE>
    3dec:	63050403 	movwvs	r0, #21507	; 0x5403
    3df0:	03000001 	movweq	r0, #1
    3df4:	015e0508 	cmpeq	lr, r8, lsl #10
    3df8:	01030000 	mrseq	r0, (UNDEF: 3)
    3dfc:	00002f08 	andeq	r2, r0, r8, lsl #30
    3e00:	07020300 	streq	r0, [r2, -r0, lsl #6]
    3e04:	00000051 	andeq	r0, r0, r1, asr r0
    3e08:	4c070403 	cfstrsmi	mvf0, [r7], {3}
    3e0c:	03000001 	movweq	r0, #1
    3e10:	01470708 	cmpeq	r7, r8, lsl #14
    3e14:	25040000 	strcs	r0, [r4, #-0]
    3e18:	7a000000 	bvc	3e20 <__code_start__-0x41e0>
    3e1c:	05000000 	streq	r0, [r0, #-0]
    3e20:	00000025 	andeq	r0, r0, r5, lsr #32
    3e24:	016c0600 	cmneq	ip, r0, lsl #12
    3e28:	1c020000 	stcne	0, cr0, [r2], {-0}
    3e2c:	0000860e 	andeq	r8, r0, lr, lsl #12
    3e30:	6b040700 	blvs	105a38 <__bss_end__+0xfb120>
    3e34:	04000000 	streq	r0, [r0], #-0
    3e38:	00000025 	andeq	r0, r0, r5, lsr #32
    3e3c:	0000009b 	muleq	r0, fp, r0
    3e40:	00009b05 	andeq	r9, r0, r5, lsl #22
    3e44:	04070000 	streq	r0, [r7], #-0
    3e48:	000000a8 	andeq	r0, r0, r8, lsr #1
    3e4c:	38080103 	stmdacc	r8, {r0, r1, r8}
    3e50:	08000000 	stmdaeq	r0, {}	; <UNPREDICTABLE>
    3e54:	000000a1 	andeq	r0, r0, r1, lsr #1
    3e58:	00056506 	andeq	r6, r5, r6, lsl #10
    3e5c:	0e210200 	cdpeq	2, 2, cr0, cr1, cr0, {0}
    3e60:	000000b9 	strheq	r0, [r0], -r9
    3e64:	008c0407 	addeq	r0, ip, r7, lsl #8
    3e68:	3e090000 	cdpcc	0, 0, cr0, cr9, cr0, {0}
    3e6c:	01000006 	tsteq	r0, r6
    3e70:	01340704 	teqeq	r4, r4, lsl #14
    3e74:	a03c0000 	eorsge	r0, ip, r0
    3e78:	00340000 	eorseq	r0, r4, r0
    3e7c:	9c010000 	stcls	0, cr0, [r1], {-0}
    3e80:	00000134 	andeq	r0, r0, r4, lsr r1
    3e84:	000a900a 	andeq	r9, sl, sl
    3e88:	15040100 	strne	r0, [r4, #-256]	; 0xffffff00
    3e8c:	00000134 	andeq	r0, r0, r4, lsr r1
    3e90:	730b5001 	movwvc	r5, #45057	; 0xb001
    3e94:	01006372 	tsteq	r0, r2, ror r3
    3e98:	009b2704 	addseq	r2, fp, r4, lsl #14
    3e9c:	284d0000 	stmdacs	sp, {}^	; <UNPREDICTABLE>
    3ea0:	28490000 	stmdacs	r9, {}^	; <UNPREDICTABLE>
    3ea4:	730c0000 	movwvc	r0, #49152	; 0xc000
    3ea8:	05010031 	streq	r0, [r1, #-49]	; 0xffffffcf
    3eac:	0001340b 	andeq	r3, r1, fp, lsl #8
    3eb0:	00287800 	eoreq	r7, r8, r0, lsl #16
    3eb4:	00286e00 	eoreq	r6, r8, r0, lsl #28
    3eb8:	32730c00 	rsbscc	r0, r3, #0, 24
    3ebc:	11060100 	mrsne	r0, (UNDEF: 22)
    3ec0:	0000009b 	muleq	r0, fp, r0
    3ec4:	000028bd 			; <UNDEFINED> instruction: 0x000028bd
    3ec8:	000028b9 			; <UNDEFINED> instruction: 0x000028b9
    3ecc:	0100630c 	tsteq	r0, ip, lsl #6
    3ed0:	00a10a07 	adceq	r0, r1, r7, lsl #20
    3ed4:	28e10000 	stmiacs	r1!, {}^	; <UNPREDICTABLE>
    3ed8:	28dd0000 	ldmcs	sp, {}^	; <UNPREDICTABLE>
    3edc:	07000000 	streq	r0, [r0, -r0]
    3ee0:	0000a104 	andeq	sl, r0, r4, lsl #2
    3ee4:	00f70000 	rscseq	r0, r7, r0
    3ee8:	00040000 	andeq	r0, r4, r0
    3eec:	00001938 	andeq	r1, r0, r8, lsr r9
    3ef0:	04070104 	streq	r0, [r7], #-260	; 0xfffffefc
    3ef4:	a50c0000 	strge	r0, [ip, #-0]
    3ef8:	fe00000a 	cdp2	0, 0, cr0, cr0, cr10, {0}
    3efc:	70000004 	andvc	r0, r0, r4
    3f00:	2c0000a0 	stccs	0, cr0, [r0], {160}	; 0xa0
    3f04:	31000000 	mrscc	r0, (UNDEF: 0)
    3f08:	0200002d 	andeq	r0, r0, #45, 0	; 0x2d
    3f0c:	6e690504 	cdpvs	5, 6, cr0, cr9, cr4, {0}
    3f10:	04030074 	streq	r0, [r3], #-116	; 0xffffff8c
    3f14:	00015107 	andeq	r5, r1, r7, lsl #2
    3f18:	06010300 	streq	r0, [r1], -r0, lsl #6
    3f1c:	00000031 	andeq	r0, r0, r1, lsr r0
    3f20:	df050203 	svcle	0x00050203
    3f24:	03000001 	movweq	r0, #1
    3f28:	01630504 	cmneq	r3, r4, lsl #10
    3f2c:	08030000 	stmdaeq	r3, {}	; <UNPREDICTABLE>
    3f30:	00015e05 	andeq	r5, r1, r5, lsl #28
    3f34:	08010300 	stmdaeq	r1, {r8, r9}
    3f38:	0000002f 	andeq	r0, r0, pc, lsr #32
    3f3c:	51070203 	tstpl	r7, r3, lsl #4
    3f40:	03000000 	movweq	r0, #0
    3f44:	014c0704 	cmpeq	ip, r4, lsl #14
    3f48:	08030000 	stmdaeq	r3, {}	; <UNPREDICTABLE>
    3f4c:	00014707 	andeq	r4, r1, r7, lsl #14
    3f50:	00250400 	eoreq	r0, r5, r0, lsl #8
    3f54:	007a0000 	rsbseq	r0, sl, r0
    3f58:	25050000 	strcs	r0, [r5, #-0]
    3f5c:	00000000 	andeq	r0, r0, r0
    3f60:	00016c06 	andeq	r6, r1, r6, lsl #24
    3f64:	0e1c0200 	cdpeq	2, 1, cr0, cr12, cr0, {0}
    3f68:	00000086 	andeq	r0, r0, r6, lsl #1
    3f6c:	006b0407 	rsbeq	r0, fp, r7, lsl #8
    3f70:	25040000 	strcs	r0, [r4, #-0]
    3f74:	9b000000 	blls	3f7c <__code_start__-0x4084>
    3f78:	05000000 	streq	r0, [r0, #-0]
    3f7c:	0000009b 	muleq	r0, fp, r0
    3f80:	a8040700 	stmdage	r4, {r8, r9, sl}
    3f84:	03000000 	movweq	r0, #0
    3f88:	00380801 	eorseq	r0, r8, r1, lsl #16
    3f8c:	a1080000 	mrsge	r0, (UNDEF: 8)
    3f90:	06000000 	streq	r0, [r0], -r0
    3f94:	00000565 	andeq	r0, r0, r5, ror #10
    3f98:	b90e2102 	stmdblt	lr, {r1, r8, sp}
    3f9c:	07000000 	streq	r0, [r0, -r0]
    3fa0:	00008c04 	andeq	r8, r0, r4, lsl #24
    3fa4:	06740900 	ldrbteq	r0, [r4], -r0, lsl #18
    3fa8:	03010000 	movweq	r0, #4096	; 0x1000
    3fac:	00002505 	andeq	r2, r0, r5, lsl #10
    3fb0:	00a07000 	adceq	r7, r0, r0
    3fb4:	00002c00 	andeq	r2, r0, r0, lsl #24
    3fb8:	0a9c0100 	beq	fe7043c0 <__bss_end__+0xfe6f9aa8>
    3fbc:	03010061 	movweq	r0, #4193	; 0x1061
    3fc0:	00009b18 	andeq	r9, r0, r8, lsl fp
    3fc4:	00290300 	eoreq	r0, r9, r0, lsl #6
    3fc8:	0028ff00 	eoreq	pc, r8, r0, lsl #30
    3fcc:	00620a00 	rsbeq	r0, r2, r0, lsl #20
    3fd0:	9b270301 	blls	9c4bdc <__bss_end__+0x9ba2c4>
    3fd4:	25000000 	strcs	r0, [r0, #-0]
    3fd8:	21000029 	tstcs	r0, r9, lsr #32
    3fdc:	00000029 	andeq	r0, r0, r9, lsr #32
    3fe0:	00010f00 	andeq	r0, r1, r0, lsl #30
    3fe4:	c7000400 	strgt	r0, [r0, -r0, lsl #8]
    3fe8:	04000019 	streq	r0, [r0], #-25	; 0xffffffe7
    3fec:	00040701 	andeq	r0, r4, r1, lsl #14
    3ff0:	0ab50c00 	beq	fed46ff8 <__bss_end__+0xfed3c6e0>
    3ff4:	04fe0000 	ldrbteq	r0, [lr], #0
    3ff8:	a09c0000 	addsge	r0, ip, r0
    3ffc:	00200000 	eoreq	r0, r0, r0
    4000:	2df40000 	ldclcs	0, cr0, [r4]
    4004:	04020000 	streq	r0, [r2], #-0
    4008:	746e6905 	strbtvc	r6, [lr], #-2309	; 0xfffff6fb
    400c:	07040300 	streq	r0, [r4, -r0, lsl #6]
    4010:	00000151 	andeq	r0, r0, r1, asr r1
    4014:	31060103 	tstcc	r6, r3, lsl #2
    4018:	03000000 	movweq	r0, #0
    401c:	01df0502 	bicseq	r0, pc, r2, lsl #10
    4020:	04030000 	streq	r0, [r3], #-0
    4024:	00016305 	andeq	r6, r1, r5, lsl #6
    4028:	05080300 	streq	r0, [r8, #-768]	; 0xfffffd00
    402c:	0000015e 	andeq	r0, r0, lr, asr r1
    4030:	2f080103 	svccs	0x00080103
    4034:	03000000 	movweq	r0, #0
    4038:	00510702 	subseq	r0, r1, r2, lsl #14
    403c:	04030000 	streq	r0, [r3], #-0
    4040:	00014c07 	andeq	r4, r1, r7, lsl #24
    4044:	07080300 	streq	r0, [r8, -r0, lsl #6]
    4048:	00000147 	andeq	r0, r0, r7, asr #2
    404c:	00002504 	andeq	r2, r0, r4, lsl #10
    4050:	00007a00 	andeq	r7, r0, r0, lsl #20
    4054:	00250500 	eoreq	r0, r5, r0, lsl #10
    4058:	06000000 	streq	r0, [r0], -r0
    405c:	0000016c 	andeq	r0, r0, ip, ror #2
    4060:	860e1c02 	strhi	r1, [lr], -r2, lsl #24
    4064:	07000000 	streq	r0, [r0, -r0]
    4068:	00006b04 	andeq	r6, r0, r4, lsl #22
    406c:	00250400 	eoreq	r0, r5, r0, lsl #8
    4070:	009b0000 	addseq	r0, fp, r0
    4074:	9b050000 	blls	14407c <__bss_end__+0x139764>
    4078:	00000000 	andeq	r0, r0, r0
    407c:	00a80407 	adceq	r0, r8, r7, lsl #8
    4080:	01030000 	mrseq	r0, (UNDEF: 3)
    4084:	00003808 	andeq	r3, r0, r8, lsl #16
    4088:	00a10800 	adceq	r0, r1, r0, lsl #16
    408c:	65060000 	strvs	r0, [r6, #-0]
    4090:	02000005 	andeq	r0, r0, #5, 0
    4094:	00b90e21 	adcseq	r0, r9, r1, lsr #28
    4098:	04070000 	streq	r0, [r7], #-0
    409c:	0000008c 	andeq	r0, r0, ip, lsl #1
    40a0:	00064509 	andeq	r4, r6, r9, lsl #10
    40a4:	07030100 	streq	r0, [r3, -r0, lsl #2]
    40a8:	0000010c 	andeq	r0, r0, ip, lsl #2
    40ac:	0000a09c 	muleq	r0, ip, r0
    40b0:	00000020 	andeq	r0, r0, r0, lsr #32
    40b4:	010c9c01 	tsteq	ip, r1, lsl #24
    40b8:	730a0000 	movwvc	r0, #40960	; 0xa000
    40bc:	03010031 	movweq	r0, #4145	; 0x1031
    40c0:	00010c15 	andeq	r0, r1, r5, lsl ip
    40c4:	0b500100 	bleq	14044cc <__bss_end__+0x13f9bb4>
    40c8:	01003273 	tsteq	r0, r3, ror r2
    40cc:	009b2603 	addseq	r2, fp, r3, lsl #12
    40d0:	29490000 	stmdbcs	r9, {}^	; <UNPREDICTABLE>
    40d4:	29430000 	stmdbcs	r3, {}^	; <UNPREDICTABLE>
    40d8:	730c0000 	movwvc	r0, #49152	; 0xc000
    40dc:	14040100 	strne	r0, [r4], #-256	; 0xffffff00
    40e0:	0000010c 	andeq	r0, r0, ip, lsl #2
    40e4:	0000297a 	andeq	r2, r0, sl, ror r9
    40e8:	00002974 	andeq	r2, r0, r4, ror r9
    40ec:	a1040700 	tstge	r4, r0, lsl #14
    40f0:	00000000 	andeq	r0, r0, r0
    40f4:	0000014e 	andeq	r0, r0, lr, asr #2
    40f8:	1a7d0004 	bne	1f44110 <__bss_end__+0x1f397f8>
    40fc:	01040000 	mrseq	r0, (UNDEF: 4)
    4100:	00000407 	andeq	r0, r0, r7, lsl #8
    4104:	000acc0c 	andeq	ip, sl, ip, lsl #24
    4108:	0004fe00 	andeq	pc, r4, r0, lsl #28
    410c:	00005000 	andeq	r5, r0, r0
    4110:	00000000 	andeq	r0, r0, r0
    4114:	002eb500 	eoreq	fp, lr, r0, lsl #10
    4118:	05040200 	streq	r0, [r4, #-512]	; 0xfffffe00
    411c:	00746e69 	rsbseq	r6, r4, r9, ror #28
    4120:	000ac503 	andeq	ip, sl, r3, lsl #10
    4124:	17d10300 	ldrbne	r0, [r1, r0, lsl #6]
    4128:	00000038 	andeq	r0, r0, r8, lsr r0
    412c:	51070404 	tstpl	r7, r4, lsl #8
    4130:	04000001 	streq	r0, [r0], #-1
    4134:	00310601 	eorseq	r0, r1, r1, lsl #12
    4138:	02040000 	andeq	r0, r4, #0, 0
    413c:	0001df05 	andeq	sp, r1, r5, lsl #30
    4140:	05040400 	streq	r0, [r4, #-1024]	; 0xfffffc00
    4144:	00000163 	andeq	r0, r0, r3, ror #2
    4148:	5e050804 	cdppl	8, 0, cr0, cr5, cr4, {0}
    414c:	04000001 	streq	r0, [r0], #-1
    4150:	002f0801 	eoreq	r0, pc, r1, lsl #16
    4154:	5b050000 	blpl	14415c <__bss_end__+0x139844>
    4158:	04000000 	streq	r0, [r0], #-0
    415c:	00510702 	subseq	r0, r1, r2, lsl #14
    4160:	04040000 	streq	r0, [r4], #-0
    4164:	00014c07 	andeq	r4, r1, r7, lsl #24
    4168:	07080400 	streq	r0, [r8, -r0, lsl #8]
    416c:	00000147 	andeq	r0, r0, r7, asr #2
    4170:	00002506 	andeq	r2, r0, r6, lsl #10
    4174:	00008b00 	andeq	r8, r0, r0, lsl #22
    4178:	00250700 	eoreq	r0, r5, r0, lsl #14
    417c:	08000000 	stmdaeq	r0, {}	; <UNPREDICTABLE>
    4180:	0000016c 	andeq	r0, r0, ip, ror #2
    4184:	970e1c02 	strls	r1, [lr, -r2, lsl #24]
    4188:	09000000 	stmdbeq	r0, {}	; <UNPREDICTABLE>
    418c:	00007c04 	andeq	r7, r0, r4, lsl #24
    4190:	00250600 	eoreq	r0, r5, r0, lsl #12
    4194:	00ac0000 	adceq	r0, ip, r0
    4198:	ac070000 	stcge	0, cr0, [r7], {-0}
    419c:	00000000 	andeq	r0, r0, r0
    41a0:	00b90409 	adcseq	r0, r9, r9, lsl #8
    41a4:	01040000 	mrseq	r0, (UNDEF: 4)
    41a8:	00003808 	andeq	r3, r0, r8, lsl #16
    41ac:	00b20500 	adcseq	r0, r2, r0, lsl #10
    41b0:	65080000 	strvs	r0, [r8, #-0]
    41b4:	02000005 	andeq	r0, r0, #5, 0
    41b8:	00ca0e21 	sbceq	r0, sl, r1, lsr #28
    41bc:	04090000 	streq	r0, [r9], #-0
    41c0:	0000009d 	muleq	r0, sp, r0
    41c4:	00069c0a 	andeq	r9, r6, sl, lsl #24
    41c8:	05040100 	streq	r0, [r4, #-256]	; 0xffffff00
    41cc:	00000025 	andeq	r0, r0, r5, lsr #32
    41d0:	0000a0bc 	strheq	sl, [r0], -ip
    41d4:	0000002c 	andeq	r0, r0, ip, lsr #32
    41d8:	014b9c01 	cmpeq	fp, r1, lsl #24
    41dc:	5f0b0000 	svcpl	0x000b0000
    41e0:	01003173 	tsteq	r0, r3, ror r1
    41e4:	00ac1904 	adceq	r1, ip, r4, lsl #18
    41e8:	29a90000 	stmibcs	r9!, {}	; <UNPREDICTABLE>
    41ec:	29a50000 	stmibcs	r5!, {}	; <UNPREDICTABLE>
    41f0:	5f0b0000 	svcpl	0x000b0000
    41f4:	01003273 	tsteq	r0, r3, ror r2
    41f8:	00ac2a04 	adceq	r2, ip, r4, lsl #20
    41fc:	29ce0000 	stmibcs	lr, {}^	; <UNPREDICTABLE>
    4200:	29ca0000 	stmibcs	sl, {}^	; <UNPREDICTABLE>
    4204:	6e0b0000 	cdpvs	0, 0, cr0, cr11, cr0, {0}
    4208:	36040100 	strcc	r0, [r4], -r0, lsl #2
    420c:	0000002c 	andeq	r0, r0, ip, lsr #32
    4210:	000029f5 	strdeq	r2, [r0], -r5
    4214:	000029ef 	andeq	r2, r0, pc, ror #19
    4218:	0031730c 	eorseq	r7, r1, ip, lsl #6
    421c:	4b1a0501 	blmi	685628 <__bss_end__+0x67ad10>
    4220:	28000001 	stmdacs	r0, {r0}
    4224:	2000002a 	andcs	r0, r0, sl, lsr #32
    4228:	0c00002a 	stceq	0, cr0, [r0], {42}	; 0x2a
    422c:	01003273 	tsteq	r0, r3, ror r2
    4230:	014b2c05 	cmpeq	fp, r5, lsl #24
    4234:	2a640000 	bcs	190423c <__bss_end__+0x18f9924>
    4238:	2a5e0000 	bcs	1784240 <__bss_end__+0x1779928>
    423c:	09000000 	stmdbeq	r0, {}	; <UNPREDICTABLE>
    4240:	00006204 	andeq	r6, r0, r4, lsl #4
    4244:	00ce0000 	sbceq	r0, lr, r0
    4248:	00040000 	andeq	r0, r4, r0
    424c:	00001b31 	andeq	r1, r0, r1, lsr fp
    4250:	04070104 	streq	r0, [r7], #-260	; 0xfffffefc
    4254:	dd0c0000 	stcle	0, cr0, [ip, #-0]
    4258:	fe00000a 	cdp2	0, 0, cr0, cr0, cr10, {0}
    425c:	e8000004 	stmda	r0, {r2}
    4260:	040000a0 	streq	r0, [r0], #-160	; 0xffffff60
    4264:	d6000000 	strle	r0, [r0], -r0
    4268:	0200002f 	andeq	r0, r0, #47, 0	; 0x2f
    426c:	6e690504 	cdpvs	5, 6, cr0, cr9, cr4, {0}
    4270:	04030074 	streq	r0, [r3], #-116	; 0xffffff8c
    4274:	00015107 	andeq	r5, r1, r7, lsl #2
    4278:	06010300 	streq	r0, [r1], -r0, lsl #6
    427c:	00000031 	andeq	r0, r0, r1, lsr r0
    4280:	df050203 	svcle	0x00050203
    4284:	03000001 	movweq	r0, #1
    4288:	01630504 	cmneq	r3, r4, lsl #10
    428c:	08030000 	stmdaeq	r3, {}	; <UNPREDICTABLE>
    4290:	00015e05 	andeq	r5, r1, r5, lsl #28
    4294:	08010300 	stmdaeq	r1, {r8, r9}
    4298:	0000002f 	andeq	r0, r0, pc, lsr #32
    429c:	51070203 	tstpl	r7, r3, lsl #4
    42a0:	03000000 	movweq	r0, #0
    42a4:	014c0704 	cmpeq	ip, r4, lsl #14
    42a8:	08030000 	stmdaeq	r3, {}	; <UNPREDICTABLE>
    42ac:	00014707 	andeq	r4, r1, r7, lsl #14
    42b0:	00250400 	eoreq	r0, r5, r0, lsl #8
    42b4:	007a0000 	rsbseq	r0, sl, r0
    42b8:	25050000 	strcs	r0, [r5, #-0]
    42bc:	00000000 	andeq	r0, r0, r0
    42c0:	00016c06 	andeq	r6, r1, r6, lsl #24
    42c4:	0e1c0200 	cdpeq	2, 1, cr0, cr12, cr0, {0}
    42c8:	00000086 	andeq	r0, r0, r6, lsl #1
    42cc:	006b0407 	rsbeq	r0, fp, r7, lsl #8
    42d0:	25040000 	strcs	r0, [r4, #-0]
    42d4:	9b000000 	blls	42dc <__code_start__-0x3d24>
    42d8:	05000000 	streq	r0, [r0, #-0]
    42dc:	0000009b 	muleq	r0, fp, r0
    42e0:	a8040700 	stmdage	r4, {r8, r9, sl}
    42e4:	03000000 	movweq	r0, #0
    42e8:	00380801 	eorseq	r0, r8, r1, lsl #16
    42ec:	a1080000 	mrsge	r0, (UNDEF: 8)
    42f0:	06000000 	streq	r0, [r0], -r0
    42f4:	00000565 	andeq	r0, r0, r5, ror #10
    42f8:	b90e2102 	stmdblt	lr, {r1, r8, sp}
    42fc:	07000000 	streq	r0, [r0, -r0]
    4300:	00008c04 	andeq	r8, r0, r4, lsl #24
    4304:	07520900 	ldrbeq	r0, [r2, -r0, lsl #18]
    4308:	03010000 	movweq	r0, #4096	; 0x1000
    430c:	00a0e806 	adceq	lr, r0, r6, lsl #16
    4310:	00000400 	andeq	r0, r0, r0, lsl #8
    4314:	009c0100 	addseq	r0, ip, r0, lsl #2
    4318:	000003a5 	andeq	r0, r0, r5, lsr #7
    431c:	1baa0004 	blne	fea84334 <__bss_end__+0xfea79a1c>
    4320:	01040000 	mrseq	r0, (UNDEF: 4)
    4324:	00000962 	andeq	r0, r0, r2, ror #18
    4328:	000b810c 	andeq	r8, fp, ip, lsl #2
    432c:	0008e300 	andeq	lr, r8, r0, lsl #6
    4330:	00a10400 	adceq	r0, r1, r0, lsl #8
    4334:	00011c00 	andeq	r1, r1, r0, lsl #24
    4338:	00308600 	eorseq	r8, r0, r0, lsl #12
    433c:	05040200 	streq	r0, [r4, #-512]	; 0xfffffe00
    4340:	00746e69 	rsbseq	r6, r4, r9, ror #28
    4344:	51070403 	tstpl	r7, r3, lsl #8
    4348:	04000001 	streq	r0, [r0], #-1
    434c:	0000002c 	andeq	r0, r0, ip, lsr #32
    4350:	31060103 	tstcc	r6, r3, lsl #2
    4354:	03000000 	movweq	r0, #0
    4358:	01df0502 	bicseq	r0, pc, r2, lsl #10
    435c:	04030000 	streq	r0, [r3], #-0
    4360:	00016305 	andeq	r6, r1, r5, lsl #6
    4364:	05080300 	streq	r0, [r8, #-768]	; 0xfffffd00
    4368:	0000015e 	andeq	r0, r0, lr, asr r1
    436c:	2f080103 	svccs	0x00080103
    4370:	03000000 	movweq	r0, #0
    4374:	00510702 	subseq	r0, r1, r2, lsl #14
    4378:	e9050000 	stmdb	r5, {}	; <UNPREDICTABLE>
    437c:	03000001 	movweq	r0, #1
    4380:	006e1934 	rsbeq	r1, lr, r4, lsr r9
    4384:	04030000 	streq	r0, [r3], #-0
    4388:	00014c07 	andeq	r4, r1, r7, lsl #24
    438c:	07080300 	streq	r0, [r8, -r0, lsl #6]
    4390:	00000147 	andeq	r0, r0, r7, asr #2
    4394:	38080103 	stmdacc	r8, {r0, r1, r8}
    4398:	06000000 	streq	r0, [r0], -r0
    439c:	00540107 	subseq	r0, r4, r7, lsl #2
    43a0:	0c040000 	stceq	0, cr0, [r4], {-0}
    43a4:	0000c20e 	andeq	ip, r0, lr, lsl #4
    43a8:	0a2a0700 	beq	a85fb0 <__bss_end__+0xa7b698>
    43ac:	07000000 	streq	r0, [r0, -r0]
    43b0:	00000850 	andeq	r0, r0, r0, asr r8
    43b4:	08980701 	ldmeq	r8, {r0, r8, r9, sl}
    43b8:	07040000 	streq	r0, [r4, -r0]
    43bc:	000008a7 	andeq	r0, r0, r7, lsr #17
    43c0:	08b60705 	ldmeq	r6!, {r0, r2, r8, r9, sl}
    43c4:	07060000 	streq	r0, [r6, -r0]
    43c8:	000008c5 	andeq	r0, r0, r5, asr #17
    43cc:	09530707 	ldmdbeq	r3, {r0, r1, r2, r8, r9, sl}^
    43d0:	07030000 	streq	r0, [r3, -r0]
    43d4:	000008d4 	ldrdeq	r0, [r0], -r4
    43d8:	66050002 	strvs	r0, [r5], -r2
    43dc:	0400000b 	streq	r0, [r0], #-11
    43e0:	00830315 	addeq	r0, r3, r5, lsl r3
    43e4:	0c080000 	stceq	0, cr0, [r8], {-0}
    43e8:	0100000b 	tsteq	r0, fp
    43ec:	0033171d 	eorseq	r1, r3, sp, lsl r7
    43f0:	001c0000 	andseq	r0, ip, r0
    43f4:	02082020 	andeq	r2, r8, #32, 0
    43f8:	0100000b 	tsteq	r0, fp
    43fc:	0033171e 	eorseq	r1, r3, lr, lsl r7
    4400:	00280000 	eoreq	r0, r8, r0
    4404:	72082020 	andvc	r2, r8, #32, 0
    4408:	0100000b 	tsteq	r0, fp
    440c:	0033171f 	eorseq	r1, r3, pc, lsl r7
    4410:	00340000 	eorseq	r0, r4, r0
    4414:	2b092020 	blcs	24c49c <__bss_end__+0x241b84>
    4418:	0100000b 	tsteq	r0, fp
    441c:	00250555 	eoreq	r0, r5, r5, asr r5
    4420:	a1ec0000 	mvnge	r0, r0
    4424:	00340000 	eorseq	r0, r4, r0
    4428:	9c010000 	stcls	0, cr0, [r1], {-0}
    442c:	0000016e 	andeq	r0, r0, lr, ror #2
    4430:	6e69700a 	cdpvs	0, 6, cr7, cr9, cr10, {0}
    4434:	18550100 	ldmdane	r5, {r8}^
    4438:	0000002c 	andeq	r0, r0, ip, lsr #32
    443c:	00002a97 	muleq	r0, r7, sl
    4440:	00002a8f 	andeq	r2, r0, pc, lsl #21
    4444:	000b7c0b 	andeq	r7, fp, fp, lsl #24
    4448:	0e580100 	rdfeqe	f0, f0, f0
    444c:	0000002c 	andeq	r0, r0, ip, lsr #32
    4450:	00002ad7 	ldrdeq	r2, [r0], -r7
    4454:	00002ad1 	ldrdeq	r2, [r0], -r1
    4458:	66666f0c 	strbtvs	r6, [r6], -ip, lsl #30
    445c:	0e590100 	rdfeqe	f0, f1, f0
    4460:	0000002c 	andeq	r0, r0, ip, lsr #32
    4464:	00002b17 	andeq	r2, r0, r7, lsl fp
    4468:	00002b15 	andeq	r2, r0, r5, lsl fp
    446c:	00a2080d 	adceq	r0, r2, sp, lsl #16
    4470:	00039000 	andeq	r9, r3, r0
    4474:	50010e00 	andpl	r0, r1, r0, lsl #28
    4478:	5001f30b 	andpl	pc, r1, fp, lsl #6
    447c:	b4232535 	strtlt	r2, [r3], #-1333	; 0xfffffacb
    4480:	02818080 	addeq	r8, r1, #128, 0	; 0x80
    4484:	160f0000 	strne	r0, [pc], -r0
    4488:	0100000b 	tsteq	r0, fp
    448c:	a1d0064e 	bicsge	r0, r0, lr, asr #12
    4490:	001c0000 	andseq	r0, ip, r0
    4494:	9c010000 	stcls	0, cr0, [r1], {-0}
    4498:	000001c9 	andeq	r0, r0, r9, asr #3
    449c:	6e69700a 	cdpvs	0, 6, cr7, cr9, cr10, {0}
    44a0:	1a4e0100 	bne	13848a8 <__bss_end__+0x1379f90>
    44a4:	0000002c 	andeq	r0, r0, ip, lsr #32
    44a8:	00002b32 	andeq	r2, r0, r2, lsr fp
    44ac:	00002b2a 	andeq	r2, r0, sl, lsr #22
    44b0:	0100760a 	tsteq	r0, sl, lsl #12
    44b4:	002c284e 	eoreq	r2, ip, lr, asr #16
    44b8:	2b740000 	blcs	1d044c0 <__bss_end__+0x1cf9ba8>
    44bc:	2b6c0000 	blcs	1b044c4 <__bss_end__+0x1af9bac>
    44c0:	e0100000 	ands	r0, r0, r0
    44c4:	510000a1 	smlatbpl	r0, r1, r0, r0
    44c8:	bf000002 	svclt	0x00000002
    44cc:	0e000001 	cdpeq	0, 0, cr0, cr0, cr1, {0}
    44d0:	f3035001 	vhadd.u8	d5, d3, d1
    44d4:	11005001 	tstne	r0, r1
    44d8:	0000a1e8 	andeq	sl, r0, r8, ror #3
    44dc:	0000020a 	andeq	r0, r0, sl, lsl #4
    44e0:	0b350f00 	bleq	d480e8 <__bss_end__+0xd3d7d0>
    44e4:	49010000 	stmdbmi	r1, {}	; <UNPREDICTABLE>
    44e8:	00a1c006 	adceq	ip, r1, r6
    44ec:	00001000 	andeq	r1, r0, r0
    44f0:	0a9c0100 	beq	fe7048f8 <__bss_end__+0xfe6f9fe0>
    44f4:	0a000002 	beq	4504 <__code_start__-0x3afc>
    44f8:	006e6970 	rsbeq	r6, lr, r0, ror r9
    44fc:	2c1e4901 			; <UNDEFINED> instruction: 0x2c1e4901
    4500:	b2000000 	andlt	r0, r0, #0, 0
    4504:	ae00002b 	cdpge	0, 0, cr0, cr0, cr11, {1}
    4508:	0d00002b 	stceq	0, cr0, [r0, #-172]	; 0xffffff54
    450c:	0000a1cc 	andeq	sl, r0, ip, asr #3
    4510:	000002d9 	ldrdeq	r0, [r0], -r9
    4514:	0350010e 	cmpeq	r0, #-2147483645	; 0x80000003
    4518:	0e5001f3 	mrceq	1, 2, r0, cr0, cr3, {7}
    451c:	30015101 	andcc	r5, r1, r1, lsl #2
    4520:	440f0000 	strmi	r0, [pc], #-0	; 4528 <__code_start__-0x3ad8>
    4524:	0100000b 	tsteq	r0, fp
    4528:	a19c0642 	orrsge	r0, ip, r2, asr #12
    452c:	00240000 	eoreq	r0, r4, r0
    4530:	9c010000 	stcls	0, cr0, [r1], {-0}
    4534:	00000251 	andeq	r0, r0, r1, asr r2
    4538:	6e69700a 	cdpvs	0, 6, cr7, cr9, cr10, {0}
    453c:	1c420100 	stfnee	f0, [r2], {-0}
    4540:	0000002c 	andeq	r0, r0, ip, lsr #32
    4544:	00002bd7 	ldrdeq	r2, [r0], -r7
    4548:	00002bd3 	ldrdeq	r2, [r0], -r3
    454c:	00a1b80d 	adceq	fp, r1, sp, lsl #16
    4550:	00039c00 	andeq	r9, r3, r0, lsl #24
    4554:	50010e00 	andpl	r0, r1, r0, lsl #28
    4558:	00280c05 	eoreq	r0, r8, r5, lsl #24
    455c:	010e2020 	tsteq	lr, r0, lsr #32
    4560:	f3310551 	vqrshl.u64	q0, <illegal reg q0.5>, <illegal reg q0.5>
    4564:	00245001 	eoreq	r5, r4, r1
    4568:	0b880f00 	bleq	fe208170 <__bss_end__+0xfe1fd858>
    456c:	3b010000 	blcc	44574 <__bss_end__+0x39c5c>
    4570:	00a17806 	adceq	r7, r1, r6, lsl #16
    4574:	00002400 	andeq	r2, r0, r0, lsl #8
    4578:	989c0100 	ldmls	ip, {r8}
    457c:	0a000002 	beq	458c <__code_start__-0x3a74>
    4580:	006e6970 	rsbeq	r6, lr, r0, ror r9
    4584:	2c1b3b01 			; <UNDEFINED> instruction: 0x2c1b3b01
    4588:	fc000000 	stc2	0, cr0, [r0], {-0}
    458c:	f800002b 			; <UNDEFINED> instruction: 0xf800002b
    4590:	0d00002b 	stceq	0, cr0, [r0, #-172]	; 0xffffff54
    4594:	0000a194 	muleq	r0, r4, r1
    4598:	0000039c 	muleq	r0, ip, r3
    459c:	0550010e 	ldrbeq	r0, [r0, #-270]	; 0xfffffef2
    45a0:	20001c0c 	andcs	r1, r0, ip, lsl #24
    45a4:	51010e20 	tstpl	r1, r0, lsr #28
    45a8:	01f33105 	mvnseq	r3, r5, lsl #2
    45ac:	00002450 	andeq	r2, r0, r0, asr r4
    45b0:	000b510f 	andeq	r5, fp, pc, lsl #2
    45b4:	06360100 	ldrteq	r0, [r6], -r0, lsl #2
    45b8:	0000a168 	andeq	sl, r0, r8, ror #2
    45bc:	00000010 	andeq	r0, r0, r0, lsl r0
    45c0:	02d99c01 	sbcseq	r9, r9, #256	; 0x100
    45c4:	700a0000 	andvc	r0, sl, r0
    45c8:	01006e69 	tsteq	r0, r9, ror #28
    45cc:	002c1f36 	eoreq	r1, ip, r6, lsr pc
    45d0:	2c210000 	stccs	0, cr0, [r1], #-0
    45d4:	2c1d0000 	ldccs	0, cr0, [sp], {-0}
    45d8:	740d0000 	strvc	r0, [sp], #-0
    45dc:	d90000a1 	stmdble	r0, {r0, r5, r7}
    45e0:	0e000002 	cdpeq	0, 0, cr0, cr0, cr2, {0}
    45e4:	f3035001 	vhadd.u8	d5, d3, d1
    45e8:	010e5001 	tsteq	lr, r1
    45ec:	00310151 	eorseq	r0, r1, r1, asr r1
    45f0:	0a3a0f00 	beq	e881f8 <__bss_end__+0xe7d8e0>
    45f4:	28010000 	stmdacs	r1, {}	; <UNPREDICTABLE>
    45f8:	00a10406 	adceq	r0, r1, r6, lsl #8
    45fc:	00006400 	andeq	r6, r0, r0, lsl #8
    4600:	749c0100 	ldrvc	r0, [ip], #256	; 0x100
    4604:	0a000003 	beq	4618 <__code_start__-0x39e8>
    4608:	006e6970 	rsbeq	r6, lr, r0, ror r9
    460c:	2c212801 	stccs	8, cr2, [r1], #-4
    4610:	46000000 	strmi	r0, [r0], -r0
    4614:	4200002c 	andmi	r0, r0, #44, 0	; 0x2c
    4618:	1200002c 	andne	r0, r0, #44, 0	; 0x2c
    461c:	00000b61 	andeq	r0, r0, r1, ror #22
    4620:	c2322801 	eorsgt	r2, r2, #65536	; 0x10000
    4624:	6b000000 	blvs	462c <__code_start__-0x39d4>
    4628:	6700002c 	strvs	r0, [r0, -ip, lsr #32]
    462c:	0c00002c 	stceq	0, cr0, [r0], {44}	; 0x2c
    4630:	0066666f 	rsbeq	r6, r6, pc, ror #12
    4634:	2c0e2d01 	stccs	13, cr2, [lr], {1}
    4638:	8e000000 	cdphi	0, 0, cr0, cr0, cr0, {0}
    463c:	8c00002c 	stchi	0, cr0, [r0], {44}	; 0x2c
    4640:	0c00002c 	stceq	0, cr0, [r0], {44}	; 0x2c
    4644:	2e010067 	cdpcs	0, 0, cr0, cr1, cr7, {3}
    4648:	00002c0e 	andeq	r2, r0, lr, lsl #24
    464c:	002ca300 	eoreq	sl, ip, r0, lsl #6
    4650:	002ca100 	eoreq	sl, ip, r0, lsl #2
    4654:	00760c00 	rsbseq	r0, r6, r0, lsl #24
    4658:	2c0e3001 	stccs	0, cr3, [lr], {1}
    465c:	be000000 	cdplt	0, 0, cr0, cr0, cr0, {0}
    4660:	b600002c 	strlt	r0, [r0], -ip, lsr #32
    4664:	1000002c 	andne	r0, r0, ip, lsr #32
    4668:	0000a14c 	andeq	sl, r0, ip, asr #2
    466c:	00000390 	muleq	r0, r0, r3
    4670:	00000363 	andeq	r0, r0, r3, ror #6
    4674:	0250010e 	subseq	r0, r0, #-2147483645	; 0x80000003
    4678:	0d000076 	stceq	0, cr0, [r0, #-472]	; 0xfffffe28
    467c:	0000a160 	andeq	sl, r0, r0, ror #2
    4680:	0000039c 	muleq	r0, ip, r3
    4684:	0250010e 	subseq	r0, r0, #-2147483645	; 0x80000003
    4688:	00000076 	andeq	r0, r0, r6, ror r0
    468c:	000b2113 	andeq	r2, fp, r3, lsl r1
    4690:	18b60200 	ldmne	r6!, {r9}
    4694:	00000062 	andeq	r0, r0, r2, rrx
    4698:	00039003 	andeq	r9, r3, r3
    469c:	00781400 	rsbseq	r1, r8, r0, lsl #8
    46a0:	622bb602 	eorvs	fp, fp, #2097152	; 0x200000
    46a4:	00000000 	andeq	r0, r0, r0
    46a8:	0007fd15 	andeq	pc, r7, r5, lsl sp	; <UNPREDICTABLE>
    46ac:	0007fd00 	andeq	pc, r7, r0, lsl #26
    46b0:	0ac70200 	beq	ff1c4eb8 <__bss_end__+0xff1ba5a0>
    46b4:	00076915 	andeq	r6, r7, r5, lsl r9
    46b8:	00076900 	andeq	r6, r7, r0, lsl #18
    46bc:	06b20200 	ldrteq	r0, [r2], r0, lsl #4
	...

Disassembly of section .debug_abbrev:

00000000 <.debug_abbrev>:
       0:	25011101 	strcs	r1, [r1, #-257]	; 0xfffffeff
       4:	030b130e 	movweq	r1, #45838	; 0xb30e
       8:	110e1b0e 	tstne	lr, lr, lsl #22
       c:	10061201 	andne	r1, r6, r1, lsl #4
      10:	02000017 	andeq	r0, r0, #23, 0
      14:	0b0b0024 	bleq	2c00ac <__bss_end__+0x2b5794>
      18:	0e030b3e 	vmoveq.16	d3[0], r0
      1c:	24030000 	strcs	r0, [r3], #-0
      20:	3e0b0b00 	vmlacc.f64	d0, d11, d0
      24:	0008030b 	andeq	r0, r8, fp, lsl #6
      28:	00160400 	andseq	r0, r6, r0, lsl #8
      2c:	0b3a0e03 	bleq	e83840 <__bss_end__+0xe78f28>
      30:	0b390b3b 	bleq	e42d24 <__bss_end__+0xe3840c>
      34:	00001349 	andeq	r1, r0, r9, asr #6
      38:	27011505 	strcs	r1, [r1, -r5, lsl #10]
      3c:	01134919 	tsteq	r3, r9, lsl r9
      40:	06000013 			; <UNDEFINED> instruction: 0x06000013
      44:	13490005 	movtne	r0, #36869	; 0x9005
      48:	34070000 	strcc	r0, [r7], #-0
      4c:	3a0e0300 	bcc	380c54 <__bss_end__+0x37633c>
      50:	390b3b0b 	stmdbcc	fp, {r0, r1, r3, r8, r9, fp, ip, sp}
      54:	3f13490b 	svccc	0x0013490b
      58:	00193c19 	andseq	r3, r9, r9, lsl ip
      5c:	000f0800 	andeq	r0, pc, r0, lsl #16
      60:	13490b0b 	movtne	r0, #39691	; 0x9b0b
      64:	26090000 	strcs	r0, [r9], -r0
      68:	00134900 	andseq	r4, r3, r0, lsl #18
      6c:	01170a00 	tsteq	r7, r0, lsl #20
      70:	0b0b0e03 	bleq	2c3884 <__bss_end__+0x2b8f6c>
      74:	0b3b0b3a 	bleq	ec2d64 <__bss_end__+0xeb844c>
      78:	13010b39 	movwne	r0, #6969	; 0x1b39
      7c:	0d0b0000 	stceq	0, cr0, [fp, #-0]
      80:	3a0e0300 	bcc	380c88 <__bss_end__+0x376370>
      84:	390b3b0b 	stmdbcc	fp, {r0, r1, r3, r8, r9, fp, ip, sp}
      88:	0013490b 	andseq	r4, r3, fp, lsl #18
      8c:	01010c00 	tsteq	r1, r0, lsl #24
      90:	13011349 	movwne	r1, #4937	; 0x1349
      94:	210d0000 	mrscs	r0, (UNDEF: 13)
      98:	2f134900 	svccs	0x00134900
      9c:	0e00000b 	cdpeq	0, 0, cr0, cr0, cr11, {0}
      a0:	193f012e 	ldmdbne	pc!, {r1, r2, r3, r5, r8}	; <UNPREDICTABLE>
      a4:	0b3a0e03 	bleq	e838b8 <__bss_end__+0xe78fa0>
      a8:	0b390b3b 	bleq	e42d9c <__bss_end__+0xe38484>
      ac:	01111927 	tsteq	r1, r7, lsr #18
      b0:	18400612 	stmdane	r0, {r1, r4, r9, sl}^
      b4:	01194297 			; <UNDEFINED> instruction: 0x01194297
      b8:	0f000013 	svceq	0x00000013
      bc:	01018289 	smlabbeq	r1, r9, r2, r8
      c0:	13310111 	teqne	r1, #1073741828	; 0x40000004
      c4:	00001301 	andeq	r1, r0, r1, lsl #6
      c8:	01828a10 	orreq	r8, r2, r0, lsl sl
      cc:	91180200 	tstls	r8, r0, lsl #4
      d0:	00001842 	andeq	r1, r0, r2, asr #16
      d4:	01828911 	orreq	r8, r2, r1, lsl r9
      d8:	31011101 	tstcc	r1, r1, lsl #2
      dc:	12000013 	andne	r0, r0, #19, 0
      e0:	193f002e 	ldmdbne	pc!, {r1, r2, r3, r5}	; <UNPREDICTABLE>
      e4:	0e6e193c 			; <UNDEFINED> instruction: 0x0e6e193c
      e8:	0b3a0e03 	bleq	e838fc <__bss_end__+0xe78fe4>
      ec:	0b390b3b 	bleq	e42de0 <__bss_end__+0xe384c8>
      f0:	2e130000 	cdpcs	0, 1, cr0, cr3, cr0, {0}
      f4:	3c193f00 	ldccc	15, cr3, [r9], {-0}
      f8:	03086e19 	movweq	r6, #36377	; 0x8e19
      fc:	3b0b3a08 	blcc	2ce924 <__bss_end__+0x2c400c>
     100:	000b390b 	andeq	r3, fp, fp, lsl #18
     104:	11010000 	mrsne	r0, (UNDEF: 1)
     108:	130e2501 	movwne	r2, #58625	; 0xe501
     10c:	1b0e030b 	blne	380d40 <__bss_end__+0x376428>
     110:	1201110e 	andne	r1, r1, #-2147483645	; 0x80000003
     114:	00171006 	andseq	r1, r7, r6
     118:	00240200 	eoreq	r0, r4, r0, lsl #4
     11c:	0b3e0b0b 	bleq	f82d50 <__bss_end__+0xf78438>
     120:	00000e03 	andeq	r0, r0, r3, lsl #28
     124:	03011703 	movweq	r1, #5891	; 0x1703
     128:	3a0b0b0e 	bcc	2c2d68 <__bss_end__+0x2b8450>
     12c:	390b3b0b 	stmdbcc	fp, {r0, r1, r3, r8, r9, fp, ip, sp}
     130:	0013010b 	andseq	r0, r3, fp, lsl #2
     134:	000d0400 	andeq	r0, sp, r0, lsl #8
     138:	0b3a0e03 	bleq	e8394c <__bss_end__+0xe79034>
     13c:	0b390b3b 	bleq	e42e30 <__bss_end__+0xe38518>
     140:	00001349 	andeq	r1, r0, r9, asr #6
     144:	49002605 	stmdbmi	r0, {r0, r2, r9, sl, sp}
     148:	06000013 			; <UNDEFINED> instruction: 0x06000013
     14c:	13490101 	movtne	r0, #37121	; 0x9101
     150:	00001301 	andeq	r1, r0, r1, lsl #6
     154:	49002107 	stmdbmi	r0, {r0, r1, r2, r8, sp}
     158:	000b2f13 	andeq	r2, fp, r3, lsl pc
     15c:	00340800 	eorseq	r0, r4, r0, lsl #16
     160:	0b3a0e03 	bleq	e83974 <__bss_end__+0xe7905c>
     164:	0b390b3b 	bleq	e42e58 <__bss_end__+0xe38540>
     168:	193f1349 	ldmdbne	pc!, {r0, r3, r6, r8, r9, ip}	; <UNPREDICTABLE>
     16c:	0000193c 	andeq	r1, r0, ip, lsr r9
     170:	03001609 	movweq	r1, #1545	; 0x609
     174:	3b0b3a0e 	blcc	2ce9b4 <__bss_end__+0x2c409c>
     178:	490b390b 	stmdbmi	fp, {r0, r1, r3, r8, fp, ip, sp}
     17c:	0a000013 	beq	1d0 <__code_start__-0x7e30>
     180:	0b0b0024 	bleq	2c0218 <__bss_end__+0x2b5900>
     184:	08030b3e 	stmdaeq	r3, {r1, r2, r3, r4, r5, r8, r9, fp}
     188:	130b0000 	movwne	r0, #45056	; 0xb000
     18c:	3a0b0b01 	bcc	2c2d98 <__bss_end__+0x2b8480>
     190:	390b3b0b 	stmdbcc	fp, {r0, r1, r3, r8, r9, fp, ip, sp}
     194:	0013010b 	andseq	r0, r3, fp, lsl #2
     198:	000d0c00 	andeq	r0, sp, r0, lsl #24
     19c:	0b3a0803 	bleq	e821b0 <__bss_end__+0xe77898>
     1a0:	0b390b3b 	bleq	e42e94 <__bss_end__+0xe3857c>
     1a4:	0b381349 	bleq	e04ed0 <__bss_end__+0xdfa5b8>
     1a8:	170d0000 	strne	r0, [sp, -r0]
     1ac:	3a0b0b01 	bcc	2c2db8 <__bss_end__+0x2b84a0>
     1b0:	390b3b0b 	stmdbcc	fp, {r0, r1, r3, r8, r9, fp, ip, sp}
     1b4:	0013010b 	andseq	r0, r3, fp, lsl #2
     1b8:	012e0e00 			; <UNDEFINED> instruction: 0x012e0e00
     1bc:	0803193f 	stmdaeq	r3, {r0, r1, r2, r3, r4, r5, r8, fp, ip}
     1c0:	0b3b0b3a 	bleq	ec2eb0 <__bss_end__+0xeb8598>
     1c4:	19270b39 	stmdbne	r7!, {r0, r3, r4, r5, r8, r9, fp}
     1c8:	01111349 	tsteq	r1, r9, asr #6
     1cc:	18400612 	stmdane	r0, {r1, r4, r9, sl}^
     1d0:	01194297 			; <UNDEFINED> instruction: 0x01194297
     1d4:	0f000013 	svceq	0x00000013
     1d8:	08030005 	stmdaeq	r3, {r0, r2}
     1dc:	0b3b0b3a 	bleq	ec2ecc <__bss_end__+0xeb85b4>
     1e0:	13490b39 	movtne	r0, #39737	; 0x9b39
     1e4:	42b71702 	adcsmi	r1, r7, #524288	; 0x80000
     1e8:	10000017 	andne	r0, r0, r7, lsl r0
     1ec:	08030034 	stmdaeq	r3, {r2, r4, r5}
     1f0:	0b3b0b3a 	bleq	ec2ee0 <__bss_end__+0xeb85c8>
     1f4:	13490b39 	movtne	r0, #39737	; 0x9b39
     1f8:	00001802 	andeq	r1, r0, r2, lsl #16
     1fc:	03003411 	movweq	r3, #1041	; 0x411
     200:	3b0b3a08 	blcc	2cea28 <__bss_end__+0x2c4110>
     204:	490b390b 	stmdbmi	fp, {r0, r1, r3, r8, fp, ip, sp}
     208:	000a1c13 	andeq	r1, sl, r3, lsl ip
     20c:	00341200 	eorseq	r1, r4, r0, lsl #4
     210:	0b3a0803 	bleq	e82224 <__bss_end__+0xe7790c>
     214:	0b390b3b 	bleq	e42f08 <__bss_end__+0xe385f0>
     218:	17021349 	strne	r1, [r2, -r9, asr #6]
     21c:	001742b7 			; <UNDEFINED> instruction: 0x001742b7
     220:	010b1300 	mrseq	r1, (UNDEF: 59)
     224:	06120111 			; <UNDEFINED> instruction: 0x06120111
     228:	00001301 	andeq	r1, r0, r1, lsl #6
     22c:	03003414 	movweq	r3, #1044	; 0x414
     230:	3b0b3a0e 	blcc	2cea70 <__bss_end__+0x2c4158>
     234:	490b390b 	stmdbmi	fp, {r0, r1, r3, r8, fp, ip, sp}
     238:	15000013 	strne	r0, [r0, #-19]	; 0xffffffed
     23c:	01018289 	smlabbeq	r1, r9, r2, r8
     240:	13310111 	teqne	r1, #1073741828	; 0x40000004
     244:	00001301 	andeq	r1, r0, r1, lsl #6
     248:	01828a16 	orreq	r8, r2, r6, lsl sl
     24c:	91180200 	tstls	r8, r0, lsl #4
     250:	00001842 	andeq	r1, r0, r2, asr #16
     254:	01828917 	orreq	r8, r2, r7, lsl r9
     258:	31011100 	mrscc	r1, (UNDEF: 17)
     25c:	18000013 	stmdane	r0, {r0, r1, r4}
     260:	193f002e 	ldmdbne	pc!, {r1, r2, r3, r5}	; <UNPREDICTABLE>
     264:	0e6e193c 			; <UNDEFINED> instruction: 0x0e6e193c
     268:	0b3a0e03 	bleq	e83a7c <__bss_end__+0xe79164>
     26c:	0b39053b 	bleq	e41760 <__bss_end__+0xe36e48>
     270:	01000000 	mrseq	r0, (UNDEF: 0)
     274:	0e250111 	mcreq	1, 1, r0, cr5, cr1, {0}
     278:	0e030b13 	vmoveq.32	d3[0], r0
     27c:	01110e1b 	tsteq	r1, fp, lsl lr
     280:	17100612 			; <UNDEFINED> instruction: 0x17100612
     284:	24020000 	strcs	r0, [r2], #-0
     288:	3e0b0b00 	vmlacc.f64	d0, d11, d0
     28c:	000e030b 	andeq	r0, lr, fp, lsl #6
     290:	01170300 	tsteq	r7, r0, lsl #6
     294:	0b0b0e03 	bleq	2c3aa8 <__bss_end__+0x2b9190>
     298:	0b3b0b3a 	bleq	ec2f88 <__bss_end__+0xeb8670>
     29c:	13010b39 	movwne	r0, #6969	; 0x1b39
     2a0:	0d040000 	stceq	0, cr0, [r4, #-0]
     2a4:	3a0e0300 	bcc	380eac <__bss_end__+0x376594>
     2a8:	390b3b0b 	stmdbcc	fp, {r0, r1, r3, r8, r9, fp, ip, sp}
     2ac:	0013490b 	andseq	r4, r3, fp, lsl #18
     2b0:	00260500 	eoreq	r0, r6, r0, lsl #10
     2b4:	00001349 	andeq	r1, r0, r9, asr #6
     2b8:	49010106 	stmdbmi	r1, {r1, r2, r8}
     2bc:	00130113 	andseq	r0, r3, r3, lsl r1
     2c0:	00210700 	eoreq	r0, r1, r0, lsl #14
     2c4:	0b2f1349 	bleq	bc4ff0 <__bss_end__+0xbba6d8>
     2c8:	34080000 	strcc	r0, [r8], #-0
     2cc:	3a0e0300 	bcc	380ed4 <__bss_end__+0x3765bc>
     2d0:	390b3b0b 	stmdbcc	fp, {r0, r1, r3, r8, r9, fp, ip, sp}
     2d4:	3f13490b 	svccc	0x0013490b
     2d8:	00193c19 	andseq	r3, r9, r9, lsl ip
     2dc:	00240900 	eoreq	r0, r4, r0, lsl #18
     2e0:	0b3e0b0b 	bleq	f82f14 <__bss_end__+0xf785fc>
     2e4:	00000803 	andeq	r0, r0, r3, lsl #16
     2e8:	0300340a 	movweq	r3, #1034	; 0x40a
     2ec:	3b0b3a08 	blcc	2ceb14 <__bss_end__+0x2c41fc>
     2f0:	490b390b 	stmdbmi	fp, {r0, r1, r3, r8, fp, ip, sp}
     2f4:	000a1c13 	andeq	r1, sl, r3, lsl ip
     2f8:	012e0b00 			; <UNDEFINED> instruction: 0x012e0b00
     2fc:	0e03193f 			; <UNDEFINED> instruction: 0x0e03193f
     300:	0b3b0b3a 	bleq	ec2ff0 <__bss_end__+0xeb86d8>
     304:	19270b39 	stmdbne	r7!, {r0, r3, r4, r5, r8, r9, fp}
     308:	01111349 	tsteq	r1, r9, asr #6
     30c:	18400612 	stmdane	r0, {r1, r4, r9, sl}^
     310:	00194297 	mulseq	r9, r7, r2
     314:	00050c00 	andeq	r0, r5, r0, lsl #24
     318:	0b3a0803 	bleq	e8232c <__bss_end__+0xe77a14>
     31c:	0b390b3b 	bleq	e43010 <__bss_end__+0xe386f8>
     320:	17021349 	strne	r1, [r2, -r9, asr #6]
     324:	001742b7 			; <UNDEFINED> instruction: 0x001742b7
     328:	00050d00 	andeq	r0, r5, r0, lsl #26
     32c:	0b3a0803 	bleq	e82340 <__bss_end__+0xe77a28>
     330:	0b390b3b 	bleq	e43024 <__bss_end__+0xe3870c>
     334:	18021349 	stmdane	r2, {r0, r3, r6, r8, r9, ip}
     338:	340e0000 	strcc	r0, [lr], #-0
     33c:	3a080300 	bcc	200f44 <__bss_end__+0x1f662c>
     340:	390b3b0b 	stmdbcc	fp, {r0, r1, r3, r8, r9, fp, ip, sp}
     344:	0213490b 	andseq	r4, r3, #180224	; 0x2c000
     348:	1742b717 	smlaldne	fp, r2, r7, r7
     34c:	01000000 	mrseq	r0, (UNDEF: 0)
     350:	0e250111 	mcreq	1, 1, r0, cr5, cr1, {0}
     354:	0e030b13 	vmoveq.32	d3[0], r0
     358:	01110e1b 	tsteq	r1, fp, lsl lr
     35c:	17100612 			; <UNDEFINED> instruction: 0x17100612
     360:	24020000 	strcs	r0, [r2], #-0
     364:	3e0b0b00 	vmlacc.f64	d0, d11, d0
     368:	000e030b 	andeq	r0, lr, fp, lsl #6
     36c:	01170300 	tsteq	r7, r0, lsl #6
     370:	0b0b0e03 	bleq	2c3b84 <__bss_end__+0x2b926c>
     374:	0b3b0b3a 	bleq	ec3064 <__bss_end__+0xeb874c>
     378:	13010b39 	movwne	r0, #6969	; 0x1b39
     37c:	0d040000 	stceq	0, cr0, [r4, #-0]
     380:	3a0e0300 	bcc	380f88 <__bss_end__+0x376670>
     384:	390b3b0b 	stmdbcc	fp, {r0, r1, r3, r8, r9, fp, ip, sp}
     388:	0013490b 	andseq	r4, r3, fp, lsl #18
     38c:	00260500 	eoreq	r0, r6, r0, lsl #10
     390:	00001349 	andeq	r1, r0, r9, asr #6
     394:	49010106 	stmdbmi	r1, {r1, r2, r8}
     398:	00130113 	andseq	r0, r3, r3, lsl r1
     39c:	00210700 	eoreq	r0, r1, r0, lsl #14
     3a0:	0b2f1349 	bleq	bc50cc <__bss_end__+0xbba7b4>
     3a4:	34080000 	strcc	r0, [r8], #-0
     3a8:	3a0e0300 	bcc	380fb0 <__bss_end__+0x376698>
     3ac:	390b3b0b 	stmdbcc	fp, {r0, r1, r3, r8, r9, fp, ip, sp}
     3b0:	3f13490b 	svccc	0x0013490b
     3b4:	00193c19 	andseq	r3, r9, r9, lsl ip
     3b8:	00240900 	eoreq	r0, r4, r0, lsl #18
     3bc:	0b3e0b0b 	bleq	f82ff0 <__bss_end__+0xf786d8>
     3c0:	00000803 	andeq	r0, r0, r3, lsl #16
     3c4:	0300340a 	movweq	r3, #1034	; 0x40a
     3c8:	3b0b3a0e 	blcc	2cec08 <__bss_end__+0x2c42f0>
     3cc:	490b390b 	stmdbmi	fp, {r0, r1, r3, r8, fp, ip, sp}
     3d0:	000a1c13 	andeq	r1, sl, r3, lsl ip
     3d4:	00340b00 	eorseq	r0, r4, r0, lsl #22
     3d8:	0b3a0803 	bleq	e823ec <__bss_end__+0xe77ad4>
     3dc:	0b390b3b 	bleq	e430d0 <__bss_end__+0xe387b8>
     3e0:	0a1c1349 	beq	70510c <__bss_end__+0x6fa7f4>
     3e4:	2e0c0000 	cdpcs	0, 0, cr0, cr12, cr0, {0}
     3e8:	03193f01 	tsteq	r9, #1, 30
     3ec:	3b0b3a0e 	blcc	2cec2c <__bss_end__+0x2c4314>
     3f0:	270b390b 	strcs	r3, [fp, -fp, lsl #18]
     3f4:	11134919 	tstne	r3, r9, lsl r9
     3f8:	40061201 	andmi	r1, r6, r1, lsl #4
     3fc:	19429718 	stmdbne	r2, {r3, r4, r8, r9, sl, ip, pc}^
     400:	050d0000 	streq	r0, [sp, #-0]
     404:	3a080300 	bcc	20100c <__bss_end__+0x1f66f4>
     408:	390b3b0b 	stmdbcc	fp, {r0, r1, r3, r8, r9, fp, ip, sp}
     40c:	0213490b 	andseq	r4, r3, #180224	; 0x2c000
     410:	1742b717 	smlaldne	fp, r2, r7, r7
     414:	050e0000 	streq	r0, [lr, #-0]
     418:	3a080300 	bcc	201020 <__bss_end__+0x1f6708>
     41c:	390b3b0b 	stmdbcc	fp, {r0, r1, r3, r8, r9, fp, ip, sp}
     420:	0213490b 	andseq	r4, r3, #180224	; 0x2c000
     424:	0f000018 	svceq	0x00000018
     428:	08030034 	stmdaeq	r3, {r2, r4, r5}
     42c:	0b3b0b3a 	bleq	ec311c <__bss_end__+0xeb8804>
     430:	13490b39 	movtne	r0, #39737	; 0x9b39
     434:	42b71702 	adcsmi	r1, r7, #524288	; 0x80000
     438:	00000017 	andeq	r0, r0, r7, lsl r0
     43c:	25011101 	strcs	r1, [r1, #-257]	; 0xfffffeff
     440:	030b130e 	movweq	r1, #45838	; 0xb30e
     444:	110e1b0e 	tstne	lr, lr, lsl #22
     448:	10061201 	andne	r1, r6, r1, lsl #4
     44c:	02000017 	andeq	r0, r0, #23, 0
     450:	0b0b0024 	bleq	2c04e8 <__bss_end__+0x2b5bd0>
     454:	0e030b3e 	vmoveq.16	d3[0], r0
     458:	17030000 	strne	r0, [r3, -r0]
     45c:	0b0e0301 	bleq	381068 <__bss_end__+0x376750>
     460:	3b0b3a0b 	blcc	2cec94 <__bss_end__+0x2c437c>
     464:	010b390b 	tsteq	fp, fp, lsl #18
     468:	04000013 	streq	r0, [r0], #-19	; 0xffffffed
     46c:	0e03000d 	cdpeq	0, 0, cr0, cr3, cr13, {0}
     470:	0b3b0b3a 	bleq	ec3160 <__bss_end__+0xeb8848>
     474:	13490b39 	movtne	r0, #39737	; 0x9b39
     478:	26050000 	strcs	r0, [r5], -r0
     47c:	00134900 	andseq	r4, r3, r0, lsl #18
     480:	01010600 	tsteq	r1, r0, lsl #12
     484:	13011349 	movwne	r1, #4937	; 0x1349
     488:	21070000 	mrscs	r0, (UNDEF: 7)
     48c:	2f134900 	svccs	0x00134900
     490:	0800000b 	stmdaeq	r0, {r0, r1, r3}
     494:	0e030034 	mcreq	0, 0, r0, cr3, cr4, {1}
     498:	0b3b0b3a 	bleq	ec3188 <__bss_end__+0xeb8870>
     49c:	13490b39 	movtne	r0, #39737	; 0x9b39
     4a0:	193c193f 	ldmdbne	ip!, {r0, r1, r2, r3, r4, r5, r8, fp, ip}
     4a4:	16090000 	strne	r0, [r9], -r0
     4a8:	3a0e0300 	bcc	3810b0 <__bss_end__+0x376798>
     4ac:	390b3b0b 	stmdbcc	fp, {r0, r1, r3, r8, r9, fp, ip, sp}
     4b0:	0013490b 	andseq	r4, r3, fp, lsl #18
     4b4:	00240a00 	eoreq	r0, r4, r0, lsl #20
     4b8:	0b3e0b0b 	bleq	f830ec <__bss_end__+0xf787d4>
     4bc:	00000803 	andeq	r0, r0, r3, lsl #16
     4c0:	0b01130b 	bleq	450f4 <__bss_end__+0x3a7dc>
     4c4:	3b0b3a0b 	blcc	2cecf8 <__bss_end__+0x2c43e0>
     4c8:	010b390b 	tsteq	fp, fp, lsl #18
     4cc:	0c000013 	stceq	0, cr0, [r0], {19}
     4d0:	0803000d 	stmdaeq	r3, {r0, r2, r3}
     4d4:	0b3b0b3a 	bleq	ec31c4 <__bss_end__+0xeb88ac>
     4d8:	13490b39 	movtne	r0, #39737	; 0x9b39
     4dc:	00000b38 	andeq	r0, r0, r8, lsr fp
     4e0:	0b01170d 	bleq	4611c <__bss_end__+0x3b804>
     4e4:	3b0b3a0b 	blcc	2ced18 <__bss_end__+0x2c4400>
     4e8:	010b390b 	tsteq	fp, fp, lsl #18
     4ec:	0e000013 	mcreq	0, 0, r0, cr0, cr3, {0}
     4f0:	0e030034 	mcreq	0, 0, r0, cr3, cr4, {1}
     4f4:	0b3b0b3a 	bleq	ec31e4 <__bss_end__+0xeb88cc>
     4f8:	13490b39 	movtne	r0, #39737	; 0x9b39
     4fc:	00000a1c 	andeq	r0, r0, ip, lsl sl
     500:	3f012e0f 	svccc	0x00012e0f
     504:	3a0e0319 	bcc	381170 <__bss_end__+0x376858>
     508:	390b3b0b 	stmdbcc	fp, {r0, r1, r3, r8, r9, fp, ip, sp}
     50c:	4919270b 	ldmdbmi	r9, {r0, r1, r3, r8, r9, sl, sp}
     510:	12011113 	andne	r1, r1, #-1073741820	; 0xc0000004
     514:	97184006 	ldrls	r4, [r8, -r6]
     518:	13011942 	movwne	r1, #6466	; 0x1942
     51c:	05100000 	ldreq	r0, [r0, #-0]
     520:	3a080300 	bcc	201128 <__bss_end__+0x1f6810>
     524:	390b3b0b 	stmdbcc	fp, {r0, r1, r3, r8, r9, fp, ip, sp}
     528:	0213490b 	andseq	r4, r3, #180224	; 0x2c000
     52c:	1742b717 	smlaldne	fp, r2, r7, r7
     530:	34110000 	ldrcc	r0, [r1], #-0
     534:	3a080300 	bcc	20113c <__bss_end__+0x1f6824>
     538:	390b3b0b 	stmdbcc	fp, {r0, r1, r3, r8, r9, fp, ip, sp}
     53c:	0213490b 	andseq	r4, r3, #180224	; 0x2c000
     540:	1742b717 	smlaldne	fp, r2, r7, r7
     544:	34120000 	ldrcc	r0, [r2], #-0
     548:	3a080300 	bcc	201150 <__bss_end__+0x1f6838>
     54c:	390b3b0b 	stmdbcc	fp, {r0, r1, r3, r8, r9, fp, ip, sp}
     550:	0213490b 	andseq	r4, r3, #180224	; 0x2c000
     554:	13000018 	movwne	r0, #24
     558:	08030034 	stmdaeq	r3, {r2, r4, r5}
     55c:	0b3b0b3a 	bleq	ec324c <__bss_end__+0xeb8934>
     560:	13490b39 	movtne	r0, #39737	; 0x9b39
     564:	0a140000 	beq	50056c <__bss_end__+0x4f5c54>
     568:	3a0e0300 	bcc	381170 <__bss_end__+0x376858>
     56c:	390b3b0b 	stmdbcc	fp, {r0, r1, r3, r8, r9, fp, ip, sp}
     570:	0001110b 	andeq	r1, r1, fp, lsl #2
     574:	010b1500 	tsteq	fp, r0, lsl #10
     578:	06120111 			; <UNDEFINED> instruction: 0x06120111
     57c:	00001301 	andeq	r1, r0, r1, lsl #6
     580:	03003416 	movweq	r3, #1046	; 0x416
     584:	3b0b3a0e 	blcc	2cedc4 <__bss_end__+0x2c44ac>
     588:	490b390b 	stmdbmi	fp, {r0, r1, r3, r8, fp, ip, sp}
     58c:	17000013 	smladne	r0, r3, r0, r0
     590:	1755010b 	ldrbne	r0, [r5, -fp, lsl #2]
     594:	00001301 	andeq	r1, r0, r1, lsl #6
     598:	01010b18 	tsteq	r1, r8, lsl fp
     59c:	19000013 	stmdbne	r0, {r0, r1, r4}
     5a0:	0000010b 	andeq	r0, r0, fp, lsl #2
     5a4:	0300341a 	movweq	r3, #1050	; 0x41a
     5a8:	3b0b3a0e 	blcc	2cede8 <__bss_end__+0x2c44d0>
     5ac:	490b390b 	stmdbmi	fp, {r0, r1, r3, r8, fp, ip, sp}
     5b0:	b7170213 			; <UNDEFINED> instruction: 0xb7170213
     5b4:	00001742 	andeq	r1, r0, r2, asr #14
     5b8:	0182891b 	orreq	r8, r2, fp, lsl r9
     5bc:	31011101 	tstcc	r1, r1, lsl #2
     5c0:	1c000013 	stcne	0, cr0, [r0], {19}
     5c4:	0001828a 	andeq	r8, r1, sl, lsl #5
     5c8:	42911802 	addsmi	r1, r1, #131072	; 0x20000
     5cc:	1d000018 	stcne	0, cr0, [r0, #-96]	; 0xffffffa0
     5d0:	0b0b000f 	bleq	2c0614 <__bss_end__+0x2b5cfc>
     5d4:	00001349 	andeq	r1, r0, r9, asr #6
     5d8:	3f002e1e 	svccc	0x00002e1e
     5dc:	6e193c19 	mrcvs	12, 0, r3, cr9, cr9, {0}
     5e0:	3a0e030e 	bcc	381220 <__bss_end__+0x376908>
     5e4:	39053b0b 	stmdbcc	r5, {r0, r1, r3, r8, r9, fp, ip, sp}
     5e8:	0000000b 	andeq	r0, r0, fp
     5ec:	25011101 	strcs	r1, [r1, #-257]	; 0xfffffeff
     5f0:	030b130e 	movweq	r1, #45838	; 0xb30e
     5f4:	110e1b0e 	tstne	lr, lr, lsl #22
     5f8:	10061201 	andne	r1, r6, r1, lsl #4
     5fc:	02000017 	andeq	r0, r0, #23, 0
     600:	0b0b0024 	bleq	2c0698 <__bss_end__+0x2b5d80>
     604:	0e030b3e 	vmoveq.16	d3[0], r0
     608:	17030000 	strne	r0, [r3, -r0]
     60c:	0b0e0301 	bleq	381218 <__bss_end__+0x376900>
     610:	3b0b3a0b 	blcc	2cee44 <__bss_end__+0x2c452c>
     614:	010b390b 	tsteq	fp, fp, lsl #18
     618:	04000013 	streq	r0, [r0], #-19	; 0xffffffed
     61c:	0e03000d 	cdpeq	0, 0, cr0, cr3, cr13, {0}
     620:	0b3b0b3a 	bleq	ec3310 <__bss_end__+0xeb89f8>
     624:	13490b39 	movtne	r0, #39737	; 0x9b39
     628:	26050000 	strcs	r0, [r5], -r0
     62c:	00134900 	andseq	r4, r3, r0, lsl #18
     630:	01010600 	tsteq	r1, r0, lsl #12
     634:	13011349 	movwne	r1, #4937	; 0x1349
     638:	21070000 	mrscs	r0, (UNDEF: 7)
     63c:	2f134900 	svccs	0x00134900
     640:	0800000b 	stmdaeq	r0, {r0, r1, r3}
     644:	0e030034 	mcreq	0, 0, r0, cr3, cr4, {1}
     648:	0b3b0b3a 	bleq	ec3338 <__bss_end__+0xeb8a20>
     64c:	13490b39 	movtne	r0, #39737	; 0x9b39
     650:	193c193f 	ldmdbne	ip!, {r0, r1, r2, r3, r4, r5, r8, fp, ip}
     654:	16090000 	strne	r0, [r9], -r0
     658:	3a0e0300 	bcc	381260 <__bss_end__+0x376948>
     65c:	390b3b0b 	stmdbcc	fp, {r0, r1, r3, r8, r9, fp, ip, sp}
     660:	0013490b 	andseq	r4, r3, fp, lsl #18
     664:	00240a00 	eoreq	r0, r4, r0, lsl #20
     668:	0b3e0b0b 	bleq	f8329c <__bss_end__+0xf78984>
     66c:	00000803 	andeq	r0, r0, r3, lsl #16
     670:	0300340b 	movweq	r3, #1035	; 0x40b
     674:	3b0b3a0e 	blcc	2ceeb4 <__bss_end__+0x2c459c>
     678:	490b390b 	stmdbmi	fp, {r0, r1, r3, r8, fp, ip, sp}
     67c:	00180213 	andseq	r0, r8, r3, lsl r2
     680:	00340c00 	eorseq	r0, r4, r0, lsl #24
     684:	0b3a0e03 	bleq	e83e98 <__bss_end__+0xe79580>
     688:	0b39053b 	bleq	e41b7c <__bss_end__+0xe37264>
     68c:	18021349 	stmdane	r2, {r0, r3, r6, r8, r9, ip}
     690:	340d0000 	strcc	r0, [sp], #-0
     694:	3a0e0300 	bcc	38129c <__bss_end__+0x376984>
     698:	39053b0b 	stmdbcc	r5, {r0, r1, r3, r8, r9, fp, ip, sp}
     69c:	1c13490b 			; <UNDEFINED> instruction: 0x1c13490b
     6a0:	0e00000a 	cdpeq	0, 0, cr0, cr0, cr10, {0}
     6a4:	08030034 	stmdaeq	r3, {r2, r4, r5}
     6a8:	053b0b3a 	ldreq	r0, [fp, #-2874]!	; 0xfffff4c6
     6ac:	13490b39 	movtne	r0, #39737	; 0x9b39
     6b0:	00000a1c 	andeq	r0, r0, ip, lsl sl
     6b4:	3f012e0f 	svccc	0x00012e0f
     6b8:	3a0e0319 	bcc	381324 <__bss_end__+0x376a0c>
     6bc:	39053b0b 	stmdbcc	r5, {r0, r1, r3, r8, r9, fp, ip, sp}
     6c0:	4919270b 	ldmdbmi	r9, {r0, r1, r3, r8, r9, sl, sp}
     6c4:	12011113 	andne	r1, r1, #-1073741820	; 0xc0000004
     6c8:	97184006 	ldrls	r4, [r8, -r6]
     6cc:	13011942 	movwne	r1, #6466	; 0x1942
     6d0:	05100000 	ldreq	r0, [r0, #-0]
     6d4:	3a080300 	bcc	2012dc <__bss_end__+0x1f69c4>
     6d8:	39053b0b 	stmdbcc	r5, {r0, r1, r3, r8, r9, fp, ip, sp}
     6dc:	0213490b 	andseq	r4, r3, #180224	; 0x2c000
     6e0:	1742b717 	smlaldne	fp, r2, r7, r7
     6e4:	05110000 	ldreq	r0, [r1, #-0]
     6e8:	3a0e0300 	bcc	3812f0 <__bss_end__+0x3769d8>
     6ec:	39053b0b 	stmdbcc	r5, {r0, r1, r3, r8, r9, fp, ip, sp}
     6f0:	0213490b 	andseq	r4, r3, #180224	; 0x2c000
     6f4:	12000018 	andne	r0, r0, #24, 0
     6f8:	08030034 	stmdaeq	r3, {r2, r4, r5}
     6fc:	053b0b3a 	ldreq	r0, [fp, #-2874]!	; 0xfffff4c6
     700:	13490b39 	movtne	r0, #39737	; 0x9b39
     704:	42b71702 	adcsmi	r1, r7, #524288	; 0x80000
     708:	13000017 	movwne	r0, #23
     70c:	0e030034 	mcreq	0, 0, r0, cr3, cr4, {1}
     710:	053b0b3a 	ldreq	r0, [fp, #-2874]!	; 0xfffff4c6
     714:	13490b39 	movtne	r0, #39737	; 0x9b39
     718:	42b71702 	adcsmi	r1, r7, #524288	; 0x80000
     71c:	14000017 	strne	r0, [r0], #-23	; 0xffffffe9
     720:	08030034 	stmdaeq	r3, {r2, r4, r5}
     724:	053b0b3a 	ldreq	r0, [fp, #-2874]!	; 0xfffff4c6
     728:	13490b39 	movtne	r0, #39737	; 0x9b39
     72c:	00001802 	andeq	r1, r0, r2, lsl #16
     730:	03000a15 	movweq	r0, #2581	; 0xa15
     734:	3b0b3a0e 	blcc	2cef74 <__bss_end__+0x2c465c>
     738:	110b3905 	tstne	fp, r5, lsl #18
     73c:	16000001 	strne	r0, [r0], -r1
     740:	01018289 	smlabbeq	r1, r9, r2, r8
     744:	13310111 	teqne	r1, #1073741828	; 0x40000004
     748:	00001301 	andeq	r1, r0, r1, lsl #6
     74c:	01828a17 	orreq	r8, r2, r7, lsl sl
     750:	91180200 	tstls	r8, r0, lsl #4
     754:	00001842 	andeq	r1, r0, r2, asr #16
     758:	01828918 	orreq	r8, r2, r8, lsl r9
     75c:	31011101 	tstcc	r1, r1, lsl #2
     760:	19000013 	stmdbne	r0, {r0, r1, r4}
     764:	0b0b000f 	bleq	2c07a8 <__bss_end__+0x2b5e90>
     768:	00001349 	andeq	r1, r0, r9, asr #6
     76c:	3f002e1a 	svccc	0x00002e1a
     770:	6e193c19 	mrcvs	12, 0, r3, cr9, cr9, {0}
     774:	3a0e030e 	bcc	3813b4 <__bss_end__+0x376a9c>
     778:	39053b0b 	stmdbcc	r5, {r0, r1, r3, r8, r9, fp, ip, sp}
     77c:	1b00000b 	blne	7b0 <__code_start__-0x7850>
     780:	193f002e 	ldmdbne	pc!, {r1, r2, r3, r5}	; <UNPREDICTABLE>
     784:	0e6e193c 			; <UNDEFINED> instruction: 0x0e6e193c
     788:	0b3a0e03 	bleq	e83f9c <__bss_end__+0xe79684>
     78c:	0b390b3b 	bleq	e43480 <__bss_end__+0xe38b68>
     790:	01000000 	mrseq	r0, (UNDEF: 0)
     794:	0e250111 	mcreq	1, 1, r0, cr5, cr1, {0}
     798:	0e030b13 	vmoveq.32	d3[0], r0
     79c:	01110e1b 	tsteq	r1, fp, lsl lr
     7a0:	17100612 			; <UNDEFINED> instruction: 0x17100612
     7a4:	24020000 	strcs	r0, [r2], #-0
     7a8:	3e0b0b00 	vmlacc.f64	d0, d11, d0
     7ac:	000e030b 	andeq	r0, lr, fp, lsl #6
     7b0:	01170300 	tsteq	r7, r0, lsl #6
     7b4:	0b0b0e03 	bleq	2c3fc8 <__bss_end__+0x2b96b0>
     7b8:	0b3b0b3a 	bleq	ec34a8 <__bss_end__+0xeb8b90>
     7bc:	13010b39 	movwne	r0, #6969	; 0x1b39
     7c0:	0d040000 	stceq	0, cr0, [r4, #-0]
     7c4:	3a0e0300 	bcc	3813cc <__bss_end__+0x376ab4>
     7c8:	390b3b0b 	stmdbcc	fp, {r0, r1, r3, r8, r9, fp, ip, sp}
     7cc:	0013490b 	andseq	r4, r3, fp, lsl #18
     7d0:	00260500 	eoreq	r0, r6, r0, lsl #10
     7d4:	00001349 	andeq	r1, r0, r9, asr #6
     7d8:	49010106 	stmdbmi	r1, {r1, r2, r8}
     7dc:	00130113 	andseq	r0, r3, r3, lsl r1
     7e0:	00210700 	eoreq	r0, r1, r0, lsl #14
     7e4:	0b2f1349 	bleq	bc5510 <__bss_end__+0xbbabf8>
     7e8:	34080000 	strcc	r0, [r8], #-0
     7ec:	3a0e0300 	bcc	3813f4 <__bss_end__+0x376adc>
     7f0:	390b3b0b 	stmdbcc	fp, {r0, r1, r3, r8, r9, fp, ip, sp}
     7f4:	3f13490b 	svccc	0x0013490b
     7f8:	00193c19 	andseq	r3, r9, r9, lsl ip
     7fc:	00160900 	andseq	r0, r6, r0, lsl #18
     800:	0b3a0e03 	bleq	e84014 <__bss_end__+0xe796fc>
     804:	0b390b3b 	bleq	e434f8 <__bss_end__+0xe38be0>
     808:	00001349 	andeq	r1, r0, r9, asr #6
     80c:	0b00240a 	bleq	983c <va_printk+0x64>
     810:	030b3e0b 	movweq	r3, #48651	; 0xbe0b
     814:	0b000008 	bleq	83c <__code_start__-0x77c4>
     818:	0b0b0113 	bleq	2c0c6c <__bss_end__+0x2b6354>
     81c:	0b3b0b3a 	bleq	ec350c <__bss_end__+0xeb8bf4>
     820:	13010b39 	movwne	r0, #6969	; 0x1b39
     824:	0d0c0000 	stceq	0, cr0, [ip, #-0]
     828:	3a080300 	bcc	201430 <__bss_end__+0x1f6b18>
     82c:	390b3b0b 	stmdbcc	fp, {r0, r1, r3, r8, r9, fp, ip, sp}
     830:	3813490b 	ldmdacc	r3, {r0, r1, r3, r8, fp, lr}
     834:	0d00000b 	stceq	0, cr0, [r0, #-44]	; 0xffffffd4
     838:	0b0b0117 	bleq	2c0c9c <__bss_end__+0x2b6384>
     83c:	0b3b0b3a 	bleq	ec352c <__bss_end__+0xeb8c14>
     840:	13010b39 	movwne	r0, #6969	; 0x1b39
     844:	340e0000 	strcc	r0, [lr], #-0
     848:	3a0e0300 	bcc	381450 <__bss_end__+0x376b38>
     84c:	390b3b0b 	stmdbcc	fp, {r0, r1, r3, r8, r9, fp, ip, sp}
     850:	1c13490b 			; <UNDEFINED> instruction: 0x1c13490b
     854:	0f00000a 	svceq	0x0000000a
     858:	193f012e 	ldmdbne	pc!, {r1, r2, r3, r5, r8}	; <UNPREDICTABLE>
     85c:	0b3a0e03 	bleq	e84070 <__bss_end__+0xe79758>
     860:	0b390b3b 	bleq	e43554 <__bss_end__+0xe38c3c>
     864:	13491927 	movtne	r1, #39207	; 0x9927
     868:	06120111 			; <UNDEFINED> instruction: 0x06120111
     86c:	42971840 	addsmi	r1, r7, #64, 16	; 0x400000
     870:	00130119 	andseq	r0, r3, r9, lsl r1
     874:	00051000 	andeq	r1, r5, r0
     878:	0b3a0803 	bleq	e8288c <__bss_end__+0xe77f74>
     87c:	0b390b3b 	bleq	e43570 <__bss_end__+0xe38c58>
     880:	17021349 	strne	r1, [r2, -r9, asr #6]
     884:	001742b7 			; <UNDEFINED> instruction: 0x001742b7
     888:	00341100 	eorseq	r1, r4, r0, lsl #2
     88c:	0b3a0803 	bleq	e828a0 <__bss_end__+0xe77f88>
     890:	0b390b3b 	bleq	e43584 <__bss_end__+0xe38c6c>
     894:	17021349 	strne	r1, [r2, -r9, asr #6]
     898:	001742b7 			; <UNDEFINED> instruction: 0x001742b7
     89c:	010b1200 	mrseq	r1, R11_fiq
     8a0:	06120111 			; <UNDEFINED> instruction: 0x06120111
     8a4:	00001301 	andeq	r1, r0, r1, lsl #6
     8a8:	03003413 	movweq	r3, #1043	; 0x413
     8ac:	3b0b3a0e 	blcc	2cf0ec <__bss_end__+0x2c47d4>
     8b0:	490b390b 	stmdbmi	fp, {r0, r1, r3, r8, fp, ip, sp}
     8b4:	14000013 	strne	r0, [r0], #-19	; 0xffffffed
     8b8:	0e030034 	mcreq	0, 0, r0, cr3, cr4, {1}
     8bc:	0b3b0b3a 	bleq	ec35ac <__bss_end__+0xeb8c94>
     8c0:	13490b39 	movtne	r0, #39737	; 0x9b39
     8c4:	42b71702 	adcsmi	r1, r7, #524288	; 0x80000
     8c8:	15000017 	strne	r0, [r0, #-23]	; 0xffffffe9
     8cc:	01018289 	smlabbeq	r1, r9, r2, r8
     8d0:	13310111 	teqne	r1, #1073741828	; 0x40000004
     8d4:	00001301 	andeq	r1, r0, r1, lsl #6
     8d8:	01828a16 	orreq	r8, r2, r6, lsl sl
     8dc:	91180200 	tstls	r8, r0, lsl #4
     8e0:	00001842 	andeq	r1, r0, r2, asr #16
     8e4:	01828917 	orreq	r8, r2, r7, lsl r9
     8e8:	31011101 	tstcc	r1, r1, lsl #2
     8ec:	18000013 	stmdane	r0, {r0, r1, r4}
     8f0:	193f002e 	ldmdbne	pc!, {r1, r2, r3, r5}	; <UNPREDICTABLE>
     8f4:	0e6e193c 			; <UNDEFINED> instruction: 0x0e6e193c
     8f8:	0b3a0e03 	bleq	e8410c <__bss_end__+0xe797f4>
     8fc:	0b39053b 	bleq	e41df0 <__bss_end__+0xe374d8>
     900:	01000000 	mrseq	r0, (UNDEF: 0)
     904:	0e250111 	mcreq	1, 1, r0, cr5, cr1, {0}
     908:	0e030b13 	vmoveq.32	d3[0], r0
     90c:	01110e1b 	tsteq	r1, fp, lsl lr
     910:	17100612 			; <UNDEFINED> instruction: 0x17100612
     914:	17020000 	strne	r0, [r2, -r0]
     918:	0b0e0301 	bleq	381524 <__bss_end__+0x376c0c>
     91c:	3b0b3a0b 	blcc	2cf150 <__bss_end__+0x2c4838>
     920:	010b390b 	tsteq	fp, fp, lsl #18
     924:	03000013 	movweq	r0, #19
     928:	0e03000d 	cdpeq	0, 0, cr0, cr3, cr13, {0}
     92c:	0b3b0b3a 	bleq	ec361c <__bss_end__+0xeb8d04>
     930:	13490b39 	movtne	r0, #39737	; 0x9b39
     934:	26040000 	strcs	r0, [r4], -r0
     938:	00134900 	andseq	r4, r3, r0, lsl #18
     93c:	01010500 	tsteq	r1, r0, lsl #10
     940:	13011349 	movwne	r1, #4937	; 0x1349
     944:	21060000 	mrscs	r0, (UNDEF: 6)
     948:	2f134900 	svccs	0x00134900
     94c:	0700000b 	streq	r0, [r0, -fp]
     950:	0b0b0024 	bleq	2c09e8 <__bss_end__+0x2b60d0>
     954:	0e030b3e 	vmoveq.16	d3[0], r0
     958:	34080000 	strcc	r0, [r8], #-0
     95c:	3a0e0300 	bcc	381564 <__bss_end__+0x376c4c>
     960:	390b3b0b 	stmdbcc	fp, {r0, r1, r3, r8, r9, fp, ip, sp}
     964:	3f13490b 	svccc	0x0013490b
     968:	00193c19 	andseq	r3, r9, r9, lsl ip
     96c:	00160900 	andseq	r0, r6, r0, lsl #18
     970:	0b3a0e03 	bleq	e84184 <__bss_end__+0xe7986c>
     974:	0b390b3b 	bleq	e43668 <__bss_end__+0xe38d50>
     978:	00001349 	andeq	r1, r0, r9, asr #6
     97c:	0b00240a 	bleq	99ac <va_printk+0x1d4>
     980:	030b3e0b 	movweq	r3, #48651	; 0xbe0b
     984:	0b000008 	bleq	9ac <__code_start__-0x7654>
     988:	0b0b0113 	bleq	2c0ddc <__bss_end__+0x2b64c4>
     98c:	0b3b0b3a 	bleq	ec367c <__bss_end__+0xeb8d64>
     990:	13010b39 	movwne	r0, #6969	; 0x1b39
     994:	0d0c0000 	stceq	0, cr0, [ip, #-0]
     998:	3a080300 	bcc	2015a0 <__bss_end__+0x1f6c88>
     99c:	390b3b0b 	stmdbcc	fp, {r0, r1, r3, r8, r9, fp, ip, sp}
     9a0:	3813490b 	ldmdacc	r3, {r0, r1, r3, r8, fp, lr}
     9a4:	0d00000b 	stceq	0, cr0, [r0, #-44]	; 0xffffffd4
     9a8:	0b0b0117 	bleq	2c0e0c <__bss_end__+0x2b64f4>
     9ac:	0b3b0b3a 	bleq	ec369c <__bss_end__+0xeb8d84>
     9b0:	13010b39 	movwne	r0, #6969	; 0x1b39
     9b4:	340e0000 	strcc	r0, [lr], #-0
     9b8:	3a0e0300 	bcc	3815c0 <__bss_end__+0x376ca8>
     9bc:	390b3b0b 	stmdbcc	fp, {r0, r1, r3, r8, r9, fp, ip, sp}
     9c0:	1c13490b 			; <UNDEFINED> instruction: 0x1c13490b
     9c4:	0f00000a 	svceq	0x0000000a
     9c8:	193f012e 	ldmdbne	pc!, {r1, r2, r3, r5, r8}	; <UNPREDICTABLE>
     9cc:	0b3a0e03 	bleq	e841e0 <__bss_end__+0xe798c8>
     9d0:	0b390b3b 	bleq	e436c4 <__bss_end__+0xe38dac>
     9d4:	13491927 	movtne	r1, #39207	; 0x9927
     9d8:	06120111 			; <UNDEFINED> instruction: 0x06120111
     9dc:	42971840 	addsmi	r1, r7, #64, 16	; 0x400000
     9e0:	10000019 	andne	r0, r0, r9, lsl r0
     9e4:	08030005 	stmdaeq	r3, {r0, r2}
     9e8:	0b3b0b3a 	bleq	ec36d8 <__bss_end__+0xeb8dc0>
     9ec:	13490b39 	movtne	r0, #39737	; 0x9b39
     9f0:	42b71702 	adcsmi	r1, r7, #524288	; 0x80000
     9f4:	11000017 	tstne	r0, r7, lsl r0
     9f8:	08030034 	stmdaeq	r3, {r2, r4, r5}
     9fc:	0b3b0b3a 	bleq	ec36ec <__bss_end__+0xeb8dd4>
     a00:	13490b39 	movtne	r0, #39737	; 0x9b39
     a04:	42b71702 	adcsmi	r1, r7, #524288	; 0x80000
     a08:	12000017 	andne	r0, r0, #23, 0
     a0c:	0111010b 	tsteq	r1, fp, lsl #2
     a10:	13010612 	movwne	r0, #5650	; 0x1612
     a14:	34130000 	ldrcc	r0, [r3], #-0
     a18:	3a0e0300 	bcc	381620 <__bss_end__+0x376d08>
     a1c:	390b3b0b 	stmdbcc	fp, {r0, r1, r3, r8, r9, fp, ip, sp}
     a20:	0013490b 	andseq	r4, r3, fp, lsl #18
     a24:	010b1400 	tsteq	fp, r0, lsl #8
     a28:	06120111 			; <UNDEFINED> instruction: 0x06120111
     a2c:	34150000 	ldrcc	r0, [r5], #-0
     a30:	3a0e0300 	bcc	381638 <__bss_end__+0x376d20>
     a34:	390b3b0b 	stmdbcc	fp, {r0, r1, r3, r8, r9, fp, ip, sp}
     a38:	0213490b 	andseq	r4, r3, #180224	; 0x2c000
     a3c:	1742b717 	smlaldne	fp, r2, r7, r7
     a40:	01000000 	mrseq	r0, (UNDEF: 0)
     a44:	0e250111 	mcreq	1, 1, r0, cr5, cr1, {0}
     a48:	0e030b13 	vmoveq.32	d3[0], r0
     a4c:	01110e1b 	tsteq	r1, fp, lsl lr
     a50:	17100612 			; <UNDEFINED> instruction: 0x17100612
     a54:	17020000 	strne	r0, [r2, -r0]
     a58:	0b0e0301 	bleq	381664 <__bss_end__+0x376d4c>
     a5c:	3b0b3a0b 	blcc	2cf290 <__bss_end__+0x2c4978>
     a60:	010b390b 	tsteq	fp, fp, lsl #18
     a64:	03000013 	movweq	r0, #19
     a68:	0e03000d 	cdpeq	0, 0, cr0, cr3, cr13, {0}
     a6c:	0b3b0b3a 	bleq	ec375c <__bss_end__+0xeb8e44>
     a70:	13490b39 	movtne	r0, #39737	; 0x9b39
     a74:	26040000 	strcs	r0, [r4], -r0
     a78:	00134900 	andseq	r4, r3, r0, lsl #18
     a7c:	01010500 	tsteq	r1, r0, lsl #10
     a80:	13011349 	movwne	r1, #4937	; 0x1349
     a84:	21060000 	mrscs	r0, (UNDEF: 6)
     a88:	2f134900 	svccs	0x00134900
     a8c:	0700000b 	streq	r0, [r0, -fp]
     a90:	0b0b0024 	bleq	2c0b28 <__bss_end__+0x2b6210>
     a94:	0e030b3e 	vmoveq.16	d3[0], r0
     a98:	34080000 	strcc	r0, [r8], #-0
     a9c:	3a0e0300 	bcc	3816a4 <__bss_end__+0x376d8c>
     aa0:	390b3b0b 	stmdbcc	fp, {r0, r1, r3, r8, r9, fp, ip, sp}
     aa4:	3f13490b 	svccc	0x0013490b
     aa8:	00193c19 	andseq	r3, r9, r9, lsl ip
     aac:	00160900 	andseq	r0, r6, r0, lsl #18
     ab0:	0b3a0e03 	bleq	e842c4 <__bss_end__+0xe799ac>
     ab4:	0b390b3b 	bleq	e437a8 <__bss_end__+0xe38e90>
     ab8:	00001349 	andeq	r1, r0, r9, asr #6
     abc:	0b00240a 	bleq	9aec <va_printk+0x314>
     ac0:	030b3e0b 	movweq	r3, #48651	; 0xbe0b
     ac4:	0b000008 	bleq	aec <__code_start__-0x7514>
     ac8:	0b0b0113 	bleq	2c0f1c <__bss_end__+0x2b6604>
     acc:	0b3b0b3a 	bleq	ec37bc <__bss_end__+0xeb8ea4>
     ad0:	13010b39 	movwne	r0, #6969	; 0x1b39
     ad4:	0d0c0000 	stceq	0, cr0, [ip, #-0]
     ad8:	3a080300 	bcc	2016e0 <__bss_end__+0x1f6dc8>
     adc:	390b3b0b 	stmdbcc	fp, {r0, r1, r3, r8, r9, fp, ip, sp}
     ae0:	3813490b 	ldmdacc	r3, {r0, r1, r3, r8, fp, lr}
     ae4:	0d00000b 	stceq	0, cr0, [r0, #-44]	; 0xffffffd4
     ae8:	0b0b0117 	bleq	2c0f4c <__bss_end__+0x2b6634>
     aec:	0b3b0b3a 	bleq	ec37dc <__bss_end__+0xeb8ec4>
     af0:	13010b39 	movwne	r0, #6969	; 0x1b39
     af4:	2e0e0000 	cdpcs	0, 0, cr0, cr14, cr0, {0}
     af8:	03193f01 	tsteq	r9, #1, 30
     afc:	3b0b3a0e 	blcc	2cf33c <__bss_end__+0x2c4a24>
     b00:	270b390b 	strcs	r3, [fp, -fp, lsl #18]
     b04:	11134919 	tstne	r3, r9, lsl r9
     b08:	40061201 	andmi	r1, r6, r1, lsl #4
     b0c:	19429718 	stmdbne	r2, {r3, r4, r8, r9, sl, ip, pc}^
     b10:	050f0000 	streq	r0, [pc, #-0]	; b18 <__code_start__-0x74e8>
     b14:	3a080300 	bcc	20171c <__bss_end__+0x1f6e04>
     b18:	390b3b0b 	stmdbcc	fp, {r0, r1, r3, r8, r9, fp, ip, sp}
     b1c:	0213490b 	andseq	r4, r3, #180224	; 0x2c000
     b20:	1742b717 	smlaldne	fp, r2, r7, r7
     b24:	05100000 	ldreq	r0, [r0, #-0]
     b28:	3a080300 	bcc	201730 <__bss_end__+0x1f6e18>
     b2c:	390b3b0b 	stmdbcc	fp, {r0, r1, r3, r8, r9, fp, ip, sp}
     b30:	0213490b 	andseq	r4, r3, #180224	; 0x2c000
     b34:	11000018 	tstne	r0, r8, lsl r0
     b38:	08030034 	stmdaeq	r3, {r2, r4, r5}
     b3c:	0b3b0b3a 	bleq	ec382c <__bss_end__+0xeb8f14>
     b40:	13490b39 	movtne	r0, #39737	; 0x9b39
     b44:	0b120000 	bleq	480b4c <__bss_end__+0x476234>
     b48:	00130101 	andseq	r0, r3, r1, lsl #2
     b4c:	00341300 	eorseq	r1, r4, r0, lsl #6
     b50:	0b3a0e03 	bleq	e84364 <__bss_end__+0xe79a4c>
     b54:	0b390b3b 	bleq	e43848 <__bss_end__+0xe38f30>
     b58:	00001349 	andeq	r1, r0, r9, asr #6
     b5c:	11010b14 	tstne	r1, r4, lsl fp
     b60:	00061201 	andeq	r1, r6, r1, lsl #4
     b64:	00341500 	eorseq	r1, r4, r0, lsl #10
     b68:	0b3a0e03 	bleq	e8437c <__bss_end__+0xe79a64>
     b6c:	0b390b3b 	bleq	e43860 <__bss_end__+0xe38f48>
     b70:	17021349 	strne	r1, [r2, -r9, asr #6]
     b74:	001742b7 			; <UNDEFINED> instruction: 0x001742b7
     b78:	11010000 	mrsne	r0, (UNDEF: 1)
     b7c:	130e2501 	movwne	r2, #58625	; 0xe501
     b80:	1b0e030b 	blne	3817b4 <__bss_end__+0x376e9c>
     b84:	1201110e 	andne	r1, r1, #-2147483645	; 0x80000003
     b88:	00171006 	andseq	r1, r7, r6
     b8c:	00240200 	eoreq	r0, r4, r0, lsl #4
     b90:	0b3e0b0b 	bleq	f837c4 <__bss_end__+0xf78eac>
     b94:	00000e03 	andeq	r0, r0, r3, lsl #28
     b98:	03011703 	movweq	r1, #5891	; 0x1703
     b9c:	3a0b0b0e 	bcc	2c37dc <__bss_end__+0x2b8ec4>
     ba0:	390b3b0b 	stmdbcc	fp, {r0, r1, r3, r8, r9, fp, ip, sp}
     ba4:	0013010b 	andseq	r0, r3, fp, lsl #2
     ba8:	000d0400 	andeq	r0, sp, r0, lsl #8
     bac:	0b3a0e03 	bleq	e843c0 <__bss_end__+0xe79aa8>
     bb0:	0b390b3b 	bleq	e438a4 <__bss_end__+0xe38f8c>
     bb4:	00001349 	andeq	r1, r0, r9, asr #6
     bb8:	49002605 	stmdbmi	r0, {r0, r2, r9, sl, sp}
     bbc:	06000013 			; <UNDEFINED> instruction: 0x06000013
     bc0:	13490101 	movtne	r0, #37121	; 0x9101
     bc4:	00001301 	andeq	r1, r0, r1, lsl #6
     bc8:	49002107 	stmdbmi	r0, {r0, r1, r2, r8, sp}
     bcc:	000b2f13 	andeq	r2, fp, r3, lsl pc
     bd0:	00340800 	eorseq	r0, r4, r0, lsl #16
     bd4:	0b3a0e03 	bleq	e843e8 <__bss_end__+0xe79ad0>
     bd8:	0b390b3b 	bleq	e438cc <__bss_end__+0xe38fb4>
     bdc:	193f1349 	ldmdbne	pc!, {r0, r3, r6, r8, r9, ip}	; <UNPREDICTABLE>
     be0:	0000193c 	andeq	r1, r0, ip, lsr r9
     be4:	03001609 	movweq	r1, #1545	; 0x609
     be8:	3b0b3a0e 	blcc	2cf428 <__bss_end__+0x2c4b10>
     bec:	490b390b 	stmdbmi	fp, {r0, r1, r3, r8, fp, ip, sp}
     bf0:	0a000013 	beq	c44 <__code_start__-0x73bc>
     bf4:	0b0b0024 	bleq	2c0c8c <__bss_end__+0x2b6374>
     bf8:	08030b3e 	stmdaeq	r3, {r1, r2, r3, r4, r5, r8, r9, fp}
     bfc:	130b0000 	movwne	r0, #45056	; 0xb000
     c00:	3a0b0b01 	bcc	2c380c <__bss_end__+0x2b8ef4>
     c04:	390b3b0b 	stmdbcc	fp, {r0, r1, r3, r8, r9, fp, ip, sp}
     c08:	0013010b 	andseq	r0, r3, fp, lsl #2
     c0c:	000d0c00 	andeq	r0, sp, r0, lsl #24
     c10:	0b3a0803 	bleq	e82c24 <__bss_end__+0xe7830c>
     c14:	0b390b3b 	bleq	e43908 <__bss_end__+0xe38ff0>
     c18:	0b381349 	bleq	e05944 <__bss_end__+0xdfb02c>
     c1c:	170d0000 	strne	r0, [sp, -r0]
     c20:	3a0b0b01 	bcc	2c382c <__bss_end__+0x2b8f14>
     c24:	390b3b0b 	stmdbcc	fp, {r0, r1, r3, r8, r9, fp, ip, sp}
     c28:	0013010b 	andseq	r0, r3, fp, lsl #2
     c2c:	012e0e00 			; <UNDEFINED> instruction: 0x012e0e00
     c30:	0803193f 	stmdaeq	r3, {r0, r1, r2, r3, r4, r5, r8, fp, ip}
     c34:	0b3b0b3a 	bleq	ec3924 <__bss_end__+0xeb900c>
     c38:	19270b39 	stmdbne	r7!, {r0, r3, r4, r5, r8, r9, fp}
     c3c:	01111349 	tsteq	r1, r9, asr #6
     c40:	18400612 	stmdane	r0, {r1, r4, r9, sl}^
     c44:	01194297 			; <UNDEFINED> instruction: 0x01194297
     c48:	0f000013 	svceq	0x00000013
     c4c:	08030005 	stmdaeq	r3, {r0, r2}
     c50:	0b3b0b3a 	bleq	ec3940 <__bss_end__+0xeb9028>
     c54:	13490b39 	movtne	r0, #39737	; 0x9b39
     c58:	42b71702 	adcsmi	r1, r7, #524288	; 0x80000
     c5c:	10000017 	andne	r0, r0, r7, lsl r0
     c60:	08030034 	stmdaeq	r3, {r2, r4, r5}
     c64:	0b3b0b3a 	bleq	ec3954 <__bss_end__+0xeb903c>
     c68:	13490b39 	movtne	r0, #39737	; 0x9b39
     c6c:	00001802 	andeq	r1, r0, r2, lsl #16
     c70:	03003411 	movweq	r3, #1041	; 0x411
     c74:	3b0b3a08 	blcc	2cf49c <__bss_end__+0x2c4b84>
     c78:	490b390b 	stmdbmi	fp, {r0, r1, r3, r8, fp, ip, sp}
     c7c:	000a1c13 	andeq	r1, sl, r3, lsl ip
     c80:	00341200 	eorseq	r1, r4, r0, lsl #4
     c84:	0b3a0803 	bleq	e82c98 <__bss_end__+0xe78380>
     c88:	0b390b3b 	bleq	e4397c <__bss_end__+0xe39064>
     c8c:	17021349 	strne	r1, [r2, -r9, asr #6]
     c90:	001742b7 			; <UNDEFINED> instruction: 0x001742b7
     c94:	010b1300 	mrseq	r1, (UNDEF: 59)
     c98:	06120111 			; <UNDEFINED> instruction: 0x06120111
     c9c:	00001301 	andeq	r1, r0, r1, lsl #6
     ca0:	03003414 	movweq	r3, #1044	; 0x414
     ca4:	3b0b3a0e 	blcc	2cf4e4 <__bss_end__+0x2c4bcc>
     ca8:	490b390b 	stmdbmi	fp, {r0, r1, r3, r8, fp, ip, sp}
     cac:	15000013 	strne	r0, [r0, #-19]	; 0xffffffed
     cb0:	01018289 	smlabbeq	r1, r9, r2, r8
     cb4:	13310111 	teqne	r1, #1073741828	; 0x40000004
     cb8:	00001301 	andeq	r1, r0, r1, lsl #6
     cbc:	01828a16 	orreq	r8, r2, r6, lsl sl
     cc0:	91180200 	tstls	r8, r0, lsl #4
     cc4:	00001842 	andeq	r1, r0, r2, asr #16
     cc8:	01828917 	orreq	r8, r2, r7, lsl r9
     ccc:	31011100 	mrscc	r1, (UNDEF: 17)
     cd0:	18000013 	stmdane	r0, {r0, r1, r4}
     cd4:	01018289 	smlabbeq	r1, r9, r2, r8
     cd8:	13310111 	teqne	r1, #1073741828	; 0x40000004
     cdc:	2e190000 	cdpcs	0, 1, cr0, cr9, cr0, {0}
     ce0:	3c193f00 	ldccc	15, cr3, [r9], {-0}
     ce4:	030e6e19 	movweq	r6, #60953	; 0xee19
     ce8:	3b0b3a0e 	blcc	2cf528 <__bss_end__+0x2c4c10>
     cec:	000b3905 	andeq	r3, fp, r5, lsl #18
     cf0:	11010000 	mrsne	r0, (UNDEF: 1)
     cf4:	130e2501 	movwne	r2, #58625	; 0xe501
     cf8:	1b0e030b 	blne	38192c <__bss_end__+0x377014>
     cfc:	1201110e 	andne	r1, r1, #-2147483645	; 0x80000003
     d00:	00171006 	andseq	r1, r7, r6
     d04:	00160200 	andseq	r0, r6, r0, lsl #4
     d08:	0b3a0e03 	bleq	e8451c <__bss_end__+0xe79c04>
     d0c:	0b390b3b 	bleq	e43a00 <__bss_end__+0xe390e8>
     d10:	00001349 	andeq	r1, r0, r9, asr #6
     d14:	03011303 	movweq	r1, #4867	; 0x1303
     d18:	3a0b0b0e 	bcc	2c3958 <__bss_end__+0x2b9040>
     d1c:	010b3b0b 	tsteq	fp, fp, lsl #22
     d20:	04000013 	streq	r0, [r0], #-19	; 0xffffffed
     d24:	0e03000d 	cdpeq	0, 0, cr0, cr3, cr13, {0}
     d28:	0b381349 	bleq	e05a54 <__bss_end__+0xdfb13c>
     d2c:	00001934 	andeq	r1, r0, r4, lsr r9
     d30:	0b000f05 	bleq	494c <__code_start__-0x36b4>
     d34:	0600000b 	streq	r0, [r0], -fp
     d38:	0b0b0024 	bleq	2c0dd0 <__bss_end__+0x2b64b8>
     d3c:	08030b3e 	stmdaeq	r3, {r1, r2, r3, r4, r5, r8, r9, fp}
     d40:	24070000 	strcs	r0, [r7], #-0
     d44:	3e0b0b00 	vmlacc.f64	d0, d11, d0
     d48:	000e030b 	andeq	r0, lr, fp, lsl #6
     d4c:	01150800 	tsteq	r5, r0, lsl #16
     d50:	13491927 	movtne	r1, #39207	; 0x9927
     d54:	00001301 	andeq	r1, r0, r1, lsl #6
     d58:	49000509 	stmdbmi	r0, {r0, r3, r8, sl}
     d5c:	0a000013 	beq	db0 <__code_start__-0x7250>
     d60:	0e030034 	mcreq	0, 0, r0, cr3, cr4, {1}
     d64:	0b3b0b3a 	bleq	ec3a54 <__bss_end__+0xeb913c>
     d68:	13490b39 	movtne	r0, #39737	; 0x9b39
     d6c:	193c193f 	ldmdbne	ip!, {r0, r1, r2, r3, r4, r5, r8, fp, ip}
     d70:	0f0b0000 	svceq	0x000b0000
     d74:	490b0b00 	stmdbmi	fp, {r8, r9, fp}
     d78:	0c000013 	stceq	0, cr0, [r0], {19}
     d7c:	13490026 	movtne	r0, #36902	; 0x9026
     d80:	2e0d0000 	cdpcs	0, 0, cr0, cr13, cr0, {0}
     d84:	03193f01 	tsteq	r9, #1, 30
     d88:	3b0b3a0e 	blcc	2cf5c8 <__bss_end__+0x2c4cb0>
     d8c:	270b390b 	strcs	r3, [fp, -fp, lsl #18]
     d90:	11134919 	tstne	r3, r9, lsl r9
     d94:	40061201 	andmi	r1, r6, r1, lsl #4
     d98:	19429718 	stmdbne	r2, {r3, r4, r8, r9, sl, ip, pc}^
     d9c:	00001301 	andeq	r1, r0, r1, lsl #6
     da0:	0300050e 	movweq	r0, #1294	; 0x50e
     da4:	3b0b3a08 	blcc	2cf5cc <__bss_end__+0x2c4cb4>
     da8:	490b390b 	stmdbmi	fp, {r0, r1, r3, r8, fp, ip, sp}
     dac:	00180213 	andseq	r0, r8, r3, lsl r2
     db0:	00180f00 	andseq	r0, r8, r0, lsl #30
     db4:	34100000 	ldrcc	r0, [r0], #-0
     db8:	3a080300 	bcc	2019c0 <__bss_end__+0x1f70a8>
     dbc:	390b3b0b 	stmdbcc	fp, {r0, r1, r3, r8, r9, fp, ip, sp}
     dc0:	0213490b 	andseq	r4, r3, #180224	; 0x2c000
     dc4:	11000018 	tstne	r0, r8, lsl r0
     dc8:	0e030034 	mcreq	0, 0, r0, cr3, cr4, {1}
     dcc:	0b3b0b3a 	bleq	ec3abc <__bss_end__+0xeb91a4>
     dd0:	13490b39 	movtne	r0, #39737	; 0x9b39
     dd4:	00001802 	andeq	r1, r0, r2, lsl #16
     dd8:	03003412 	movweq	r3, #1042	; 0x412
     ddc:	3b0b3a08 	blcc	2cf604 <__bss_end__+0x2c4cec>
     de0:	490b390b 	stmdbmi	fp, {r0, r1, r3, r8, fp, ip, sp}
     de4:	b7170213 			; <UNDEFINED> instruction: 0xb7170213
     de8:	00001742 	andeq	r1, r0, r2, asr #14
     dec:	01828913 	orreq	r8, r2, r3, lsl r9
     df0:	31011101 	tstcc	r1, r1, lsl #2
     df4:	00130113 	andseq	r0, r3, r3, lsl r1
     df8:	828a1400 	addhi	r1, sl, #0, 8
     dfc:	18020001 	stmdane	r2, {r0}
     e00:	00184291 	mulseq	r8, r1, r2
     e04:	82891500 	addhi	r1, r9, #0, 10
     e08:	01110101 	tsteq	r1, r1, lsl #2
     e0c:	01160000 	tsteq	r6, r0
     e10:	01134901 	tsteq	r3, r1, lsl #18
     e14:	17000013 	smladne	r0, r3, r0, r0
     e18:	13490021 	movtne	r0, #36897	; 0x9021
     e1c:	0000052f 	andeq	r0, r0, pc, lsr #10
     e20:	3f002e18 	svccc	0x00002e18
     e24:	6e193c19 	mrcvs	12, 0, r3, cr9, cr9, {0}
     e28:	3a0e030e 	bcc	381a68 <__bss_end__+0x377150>
     e2c:	390b3b0b 	stmdbcc	fp, {r0, r1, r3, r8, r9, fp, ip, sp}
     e30:	0000000b 	andeq	r0, r0, fp
     e34:	25011101 	strcs	r1, [r1, #-257]	; 0xfffffeff
     e38:	030b130e 	movweq	r1, #45838	; 0xb30e
     e3c:	110e1b0e 	tstne	lr, lr, lsl #22
     e40:	10061201 	andne	r1, r6, r1, lsl #4
     e44:	02000017 	andeq	r0, r0, #23, 0
     e48:	0b0b0024 	bleq	2c0ee0 <__bss_end__+0x2b65c8>
     e4c:	08030b3e 	stmdaeq	r3, {r1, r2, r3, r4, r5, r8, r9, fp}
     e50:	24030000 	strcs	r0, [r3], #-0
     e54:	3e0b0b00 	vmlacc.f64	d0, d11, d0
     e58:	000e030b 	andeq	r0, lr, fp, lsl #6
     e5c:	01150400 	tsteq	r5, r0, lsl #8
     e60:	13491927 	movtne	r1, #39207	; 0x9927
     e64:	00001301 	andeq	r1, r0, r1, lsl #6
     e68:	49000505 	stmdbmi	r0, {r0, r2, r8, sl}
     e6c:	06000013 			; <UNDEFINED> instruction: 0x06000013
     e70:	0e030034 	mcreq	0, 0, r0, cr3, cr4, {1}
     e74:	0b3b0b3a 	bleq	ec3b64 <__bss_end__+0xeb924c>
     e78:	13490b39 	movtne	r0, #39737	; 0x9b39
     e7c:	193c193f 	ldmdbne	ip!, {r0, r1, r2, r3, r4, r5, r8, fp, ip}
     e80:	0f070000 	svceq	0x00070000
     e84:	490b0b00 	stmdbmi	fp, {r8, r9, fp}
     e88:	08000013 	stmdaeq	r0, {r0, r1, r4}
     e8c:	13490026 	movtne	r0, #36902	; 0x9026
     e90:	34090000 	strcc	r0, [r9], #-0
     e94:	3a134700 	bcc	4d2a9c <__bss_end__+0x4c8184>
     e98:	390b3b0b 	stmdbcc	fp, {r0, r1, r3, r8, r9, fp, ip, sp}
     e9c:	0018020b 	andseq	r0, r8, fp, lsl #4
     ea0:	012e0a00 			; <UNDEFINED> instruction: 0x012e0a00
     ea4:	0e03193f 			; <UNDEFINED> instruction: 0x0e03193f
     ea8:	0b3b0b3a 	bleq	ec3b98 <__bss_end__+0xeb9280>
     eac:	19270b39 	stmdbne	r7!, {r0, r3, r4, r5, r8, r9, fp}
     eb0:	01111349 	tsteq	r1, r9, asr #6
     eb4:	18400612 	stmdane	r0, {r1, r4, r9, sl}^
     eb8:	00194296 	mulseq	r9, r6, r2
     ebc:	00050b00 	andeq	r0, r5, r0, lsl #22
     ec0:	0b3a0803 	bleq	e82ed4 <__bss_end__+0xe785bc>
     ec4:	0b390b3b 	bleq	e43bb8 <__bss_end__+0xe392a0>
     ec8:	17021349 	strne	r1, [r2, -r9, asr #6]
     ecc:	001742b7 			; <UNDEFINED> instruction: 0x001742b7
     ed0:	11010000 	mrsne	r0, (UNDEF: 1)
     ed4:	130e2501 	movwne	r2, #58625	; 0xe501
     ed8:	1b0e030b 	blne	381b0c <__bss_end__+0x3771f4>
     edc:	1201110e 	andne	r1, r1, #-2147483645	; 0x80000003
     ee0:	00171006 	andseq	r1, r7, r6
     ee4:	00240200 	eoreq	r0, r4, r0, lsl #4
     ee8:	0b3e0b0b 	bleq	f83b1c <__bss_end__+0xf79204>
     eec:	00000e03 	andeq	r0, r0, r3, lsl #28
     ef0:	0b002403 	bleq	9f04 <uart_can_getc+0x4>
     ef4:	030b3e0b 	movweq	r3, #48651	; 0xbe0b
     ef8:	04000008 	streq	r0, [r0], #-8
     efc:	13490026 	movtne	r0, #36902	; 0x9026
     f00:	16050000 	strne	r0, [r5], -r0
     f04:	3a0e0300 	bcc	381b0c <__bss_end__+0x3771f4>
     f08:	390b3b0b 	stmdbcc	fp, {r0, r1, r3, r8, r9, fp, ip, sp}
     f0c:	0013490b 	andseq	r4, r3, fp, lsl #18
     f10:	01150600 	tsteq	r5, r0, lsl #12
     f14:	13491927 	movtne	r1, #39207	; 0x9927
     f18:	00001301 	andeq	r1, r0, r1, lsl #6
     f1c:	49000507 	stmdbmi	r0, {r0, r1, r2, r8, sl}
     f20:	08000013 	stmdaeq	r0, {r0, r1, r4}
     f24:	0e030034 	mcreq	0, 0, r0, cr3, cr4, {1}
     f28:	0b3b0b3a 	bleq	ec3c18 <__bss_end__+0xeb9300>
     f2c:	13490b39 	movtne	r0, #39737	; 0x9b39
     f30:	193c193f 	ldmdbne	ip!, {r0, r1, r2, r3, r4, r5, r8, fp, ip}
     f34:	0f090000 	svceq	0x00090000
     f38:	490b0b00 	stmdbmi	fp, {r8, r9, fp}
     f3c:	0a000013 	beq	f90 <__code_start__-0x7070>
     f40:	0e030113 	mcreq	1, 0, r0, cr3, cr3, {0}
     f44:	0b3a0b0b 	bleq	e83b78 <__bss_end__+0xe79260>
     f48:	13010b3b 	movwne	r0, #6971	; 0x1b3b
     f4c:	0d0b0000 	stceq	0, cr0, [fp, #-0]
     f50:	490e0300 	stmdbmi	lr, {r8, r9}
     f54:	340b3813 	strcc	r3, [fp], #-2067	; 0xfffff7ed
     f58:	0c000019 	stceq	0, cr0, [r0], {25}
     f5c:	0b0b000f 	bleq	2c0fa0 <__bss_end__+0x2b6688>
     f60:	2e0d0000 	cdpcs	0, 0, cr0, cr13, cr0, {0}
     f64:	03193f01 	tsteq	r9, #1, 30
     f68:	3b0b3a0e 	blcc	2cf7a8 <__bss_end__+0x2c4e90>
     f6c:	270b3905 	strcs	r3, [fp, -r5, lsl #18]
     f70:	11134919 	tstne	r3, r9, lsl r9
     f74:	40061201 	andmi	r1, r6, r1, lsl #4
     f78:	19429718 	stmdbne	r2, {r3, r4, r8, r9, sl, ip, pc}^
     f7c:	00001301 	andeq	r1, r0, r1, lsl #6
     f80:	0300050e 	movweq	r0, #1294	; 0x50e
     f84:	3b0b3a08 	blcc	2cf7ac <__bss_end__+0x2c4e94>
     f88:	490b3905 	stmdbmi	fp, {r0, r2, r8, fp, ip, sp}
     f8c:	b7170213 			; <UNDEFINED> instruction: 0xb7170213
     f90:	00001742 	andeq	r1, r0, r2, asr #14
     f94:	0300050f 	movweq	r0, #1295	; 0x50f
     f98:	3b0b3a0e 	blcc	2cf7d8 <__bss_end__+0x2c4ec0>
     f9c:	490b3905 	stmdbmi	fp, {r0, r2, r8, fp, ip, sp}
     fa0:	b7170213 			; <UNDEFINED> instruction: 0xb7170213
     fa4:	00001742 	andeq	r1, r0, r2, asr #14
     fa8:	03003410 	movweq	r3, #1040	; 0x410
     fac:	3b0b3a08 	blcc	2cf7d4 <__bss_end__+0x2c4ebc>
     fb0:	490b3905 	stmdbmi	fp, {r0, r2, r8, fp, ip, sp}
     fb4:	b7170213 			; <UNDEFINED> instruction: 0xb7170213
     fb8:	00001742 	andeq	r1, r0, r2, asr #14
     fbc:	03003411 	movweq	r3, #1041	; 0x411
     fc0:	3b0b3a0e 	blcc	2cf800 <__bss_end__+0x2c4ee8>
     fc4:	490b3905 	stmdbmi	fp, {r0, r2, r8, fp, ip, sp}
     fc8:	b7170213 			; <UNDEFINED> instruction: 0xb7170213
     fcc:	00001742 	andeq	r1, r0, r2, asr #14
     fd0:	03003412 	movweq	r3, #1042	; 0x412
     fd4:	3b0b3a08 	blcc	2cf7fc <__bss_end__+0x2c4ee4>
     fd8:	490b3905 	stmdbmi	fp, {r0, r2, r8, fp, ip, sp}
     fdc:	00180213 	andseq	r0, r8, r3, lsl r2
     fe0:	010b1300 	mrseq	r1, (UNDEF: 59)
     fe4:	13011755 	movwne	r1, #5973	; 0x1755
     fe8:	89140000 	ldmdbhi	r4, {}	; <UNPREDICTABLE>
     fec:	11010182 	smlabbne	r1, r2, r1, r0
     ff0:	01133101 	tsteq	r3, r1, lsl #2
     ff4:	15000013 	strne	r0, [r0, #-19]	; 0xffffffed
     ff8:	0001828a 	andeq	r8, r1, sl, lsl #5
     ffc:	42911802 	addsmi	r1, r1, #131072	; 0x20000
    1000:	16000018 			; <UNDEFINED> instruction: 0x16000018
    1004:	01018289 	smlabbeq	r1, r9, r2, r8
    1008:	13310111 	teqne	r1, #1073741828	; 0x40000004
    100c:	01170000 	tsteq	r7, r0
    1010:	01134901 	tsteq	r3, r1, lsl #18
    1014:	18000013 	stmdane	r0, {r0, r1, r4}
    1018:	13490021 	movtne	r0, #36897	; 0x9021
    101c:	00000b2f 	andeq	r0, r0, pc, lsr #22
    1020:	03012e19 	movweq	r2, #7705	; 0x1e19
    1024:	3b0b3a0e 	blcc	2cf864 <__bss_end__+0x2c4f4c>
    1028:	270b390b 	strcs	r3, [fp, -fp, lsl #18]
    102c:	11134919 	tstne	r3, r9, lsl r9
    1030:	40061201 	andmi	r1, r6, r1, lsl #4
    1034:	19429718 	stmdbne	r2, {r3, r4, r8, r9, sl, ip, pc}^
    1038:	00001301 	andeq	r1, r0, r1, lsl #6
    103c:	0300051a 	movweq	r0, #1306	; 0x51a
    1040:	3b0b3a08 	blcc	2cf868 <__bss_end__+0x2c4f50>
    1044:	490b390b 	stmdbmi	fp, {r0, r1, r3, r8, fp, ip, sp}
    1048:	b7170213 			; <UNDEFINED> instruction: 0xb7170213
    104c:	00001742 	andeq	r1, r0, r2, asr #14
    1050:	0182891b 	orreq	r8, r2, fp, lsl r9
    1054:	31011100 	mrscc	r1, (UNDEF: 17)
    1058:	1c000013 	stcne	0, cr0, [r0], {19}
    105c:	08030005 	stmdaeq	r3, {r0, r2}
    1060:	0b3b0b3a 	bleq	ec3d50 <__bss_end__+0xeb9438>
    1064:	13490b39 	movtne	r0, #39737	; 0x9b39
    1068:	00001802 	andeq	r1, r0, r2, lsl #16
    106c:	3f012e1d 	svccc	0x00012e1d
    1070:	3a0e0319 	bcc	381cdc <__bss_end__+0x3773c4>
    1074:	390b3b0b 	stmdbcc	fp, {r0, r1, r3, r8, r9, fp, ip, sp}
    1078:	4919270b 	ldmdbmi	r9, {r0, r1, r3, r8, r9, sl, sp}
    107c:	12011113 	andne	r1, r1, #-1073741820	; 0xc0000004
    1080:	97184006 	ldrls	r4, [r8, -r6]
    1084:	13011942 	movwne	r1, #6466	; 0x1942
    1088:	051e0000 	ldreq	r0, [lr, #-0]
    108c:	3a0e0300 	bcc	381c94 <__bss_end__+0x37737c>
    1090:	390b3b0b 	stmdbcc	fp, {r0, r1, r3, r8, r9, fp, ip, sp}
    1094:	0213490b 	andseq	r4, r3, #180224	; 0x2c000
    1098:	1f000018 	svcne	0x00000018
    109c:	08030034 	stmdaeq	r3, {r2, r4, r5}
    10a0:	0b3b0b3a 	bleq	ec3d90 <__bss_end__+0xeb9478>
    10a4:	13490b39 	movtne	r0, #39737	; 0x9b39
    10a8:	42b71702 	adcsmi	r1, r7, #524288	; 0x80000
    10ac:	20000017 	andcs	r0, r0, r7, lsl r0
    10b0:	0e030034 	mcreq	0, 0, r0, cr3, cr4, {1}
    10b4:	0b3b0b3a 	bleq	ec3da4 <__bss_end__+0xeb948c>
    10b8:	13490b39 	movtne	r0, #39737	; 0x9b39
    10bc:	42b71702 	adcsmi	r1, r7, #524288	; 0x80000
    10c0:	21000017 	tstcs	r0, r7, lsl r0
    10c4:	0e030034 	mcreq	0, 0, r0, cr3, cr4, {1}
    10c8:	19341349 	ldmdbne	r4!, {r0, r3, r6, r8, r9, ip}
    10cc:	00001802 	andeq	r1, r0, r2, lsl #16
    10d0:	11010b22 	tstne	r1, r2, lsr #22
    10d4:	00061201 	andeq	r1, r6, r1, lsl #4
    10d8:	00342300 	eorseq	r2, r4, r0, lsl #6
    10dc:	0b3a0803 	bleq	e830f0 <__bss_end__+0xe787d8>
    10e0:	0b390b3b 	bleq	e43dd4 <__bss_end__+0xe394bc>
    10e4:	18021349 	stmdane	r2, {r0, r3, r6, r8, r9, ip}
    10e8:	34240000 	strtcc	r0, [r4], #-0
    10ec:	3a0e0300 	bcc	381cf4 <__bss_end__+0x3773dc>
    10f0:	390b3b0b 	stmdbcc	fp, {r0, r1, r3, r8, r9, fp, ip, sp}
    10f4:	0213490b 	andseq	r4, r3, #180224	; 0x2c000
    10f8:	25000018 	strcs	r0, [r0, #-24]	; 0xffffffe8
    10fc:	0111010b 	tsteq	r1, fp, lsl #2
    1100:	13010612 	movwne	r0, #5650	; 0x1612
    1104:	34260000 	strtcc	r0, [r6], #-0
    1108:	3a080300 	bcc	201d10 <__bss_end__+0x1f73f8>
    110c:	390b3b0b 	stmdbcc	fp, {r0, r1, r3, r8, r9, fp, ip, sp}
    1110:	0013490b 	andseq	r4, r3, fp, lsl #18
    1114:	82892700 	addhi	r2, r9, #0, 14
    1118:	01110101 	tsteq	r1, r1, lsl #2
    111c:	00001301 	andeq	r1, r0, r1, lsl #6
    1120:	03000528 	movweq	r0, #1320	; 0x528
    1124:	3b0b3a0e 	blcc	2cf964 <__bss_end__+0x2c504c>
    1128:	490b390b 	stmdbmi	fp, {r0, r1, r3, r8, fp, ip, sp}
    112c:	b7170213 			; <UNDEFINED> instruction: 0xb7170213
    1130:	00001742 	andeq	r1, r0, r2, asr #14
    1134:	03012e29 	movweq	r2, #7721	; 0x1e29
    1138:	3b0b3a08 	blcc	2cf960 <__bss_end__+0x2c5048>
    113c:	270b390b 	strcs	r3, [fp, -fp, lsl #18]
    1140:	11134919 	tstne	r3, r9, lsl r9
    1144:	40061201 	andmi	r1, r6, r1, lsl #4
    1148:	19429718 	stmdbne	r2, {r3, r4, r8, r9, sl, ip, pc}^
    114c:	00001301 	andeq	r1, r0, r1, lsl #6
    1150:	3f012e2a 	svccc	0x00012e2a
    1154:	3a0e0319 	bcc	381dc0 <__bss_end__+0x3774a8>
    1158:	390b3b0b 	stmdbcc	fp, {r0, r1, r3, r8, r9, fp, ip, sp}
    115c:	1119270b 	tstne	r9, fp, lsl #14
    1160:	40061201 	andmi	r1, r6, r1, lsl #4
    1164:	19429718 	stmdbne	r2, {r3, r4, r8, r9, sl, ip, pc}^
    1168:	00001301 	andeq	r1, r0, r1, lsl #6
    116c:	3f002e2b 	svccc	0x00002e2b
    1170:	6e193c19 	mrcvs	12, 0, r3, cr9, cr9, {0}
    1174:	3a0e030e 	bcc	381db4 <__bss_end__+0x37749c>
    1178:	390b3b0b 	stmdbcc	fp, {r0, r1, r3, r8, r9, fp, ip, sp}
    117c:	0000000b 	andeq	r0, r0, fp
    1180:	25011101 	strcs	r1, [r1, #-257]	; 0xfffffeff
    1184:	030b130e 	movweq	r1, #45838	; 0xb30e
    1188:	110e1b0e 	tstne	lr, lr, lsl #22
    118c:	10061201 	andne	r1, r6, r1, lsl #4
    1190:	02000017 	andeq	r0, r0, #23, 0
    1194:	0b0b0024 	bleq	2c122c <__bss_end__+0x2b6914>
    1198:	08030b3e 	stmdaeq	r3, {r1, r2, r3, r4, r5, r8, r9, fp}
    119c:	24030000 	strcs	r0, [r3], #-0
    11a0:	3e0b0b00 	vmlacc.f64	d0, d11, d0
    11a4:	000e030b 	andeq	r0, lr, fp, lsl #6
    11a8:	01150400 	tsteq	r5, r0, lsl #8
    11ac:	13491927 	movtne	r1, #39207	; 0x9927
    11b0:	00001301 	andeq	r1, r0, r1, lsl #6
    11b4:	49000505 	stmdbmi	r0, {r0, r2, r8, sl}
    11b8:	06000013 			; <UNDEFINED> instruction: 0x06000013
    11bc:	0e030034 	mcreq	0, 0, r0, cr3, cr4, {1}
    11c0:	0b3b0b3a 	bleq	ec3eb0 <__bss_end__+0xeb9598>
    11c4:	13490b39 	movtne	r0, #39737	; 0x9b39
    11c8:	193c193f 	ldmdbne	ip!, {r0, r1, r2, r3, r4, r5, r8, fp, ip}
    11cc:	0f070000 	svceq	0x00070000
    11d0:	490b0b00 	stmdbmi	fp, {r8, r9, fp}
    11d4:	08000013 	stmdaeq	r0, {r0, r1, r4}
    11d8:	13490026 	movtne	r0, #36902	; 0x9026
    11dc:	2e090000 	cdpcs	0, 0, cr0, cr9, cr0, {0}
    11e0:	03193f01 	tsteq	r9, #1, 30
    11e4:	3b0b3a0e 	blcc	2cfa24 <__bss_end__+0x2c510c>
    11e8:	270b390b 	strcs	r3, [fp, -fp, lsl #18]
    11ec:	19018719 	stmdbne	r1, {r0, r3, r4, r8, r9, sl, pc}
    11f0:	06120111 			; <UNDEFINED> instruction: 0x06120111
    11f4:	42971840 	addsmi	r1, r7, #64, 16	; 0x400000
    11f8:	00130119 	andseq	r0, r3, r9, lsl r1
    11fc:	82890a00 	addhi	r0, r9, #0, 20
    1200:	01110101 	tsteq	r1, r1, lsl #2
    1204:	00001301 	andeq	r1, r0, r1, lsl #6
    1208:	01828a0b 	orreq	r8, r2, fp, lsl #20
    120c:	91180200 	tstls	r8, r0, lsl #4
    1210:	00001842 	andeq	r1, r0, r2, asr #16
    1214:	0182890c 	orreq	r8, r2, ip, lsl #18
    1218:	31011100 	mrscc	r1, (UNDEF: 17)
    121c:	0d000013 	stceq	0, cr0, [r0, #-76]	; 0xffffffb4
    1220:	01018289 	smlabbeq	r1, r9, r2, r8
    1224:	13310111 	teqne	r1, #1073741828	; 0x40000004
    1228:	00001301 	andeq	r1, r0, r1, lsl #6
    122c:	3f002e0e 	svccc	0x00002e0e
    1230:	6e193c19 	mrcvs	12, 0, r3, cr9, cr9, {0}
    1234:	3a0e030e 	bcc	381e74 <__bss_end__+0x37755c>
    1238:	390b3b0b 	stmdbcc	fp, {r0, r1, r3, r8, r9, fp, ip, sp}
    123c:	0000000b 	andeq	r0, r0, fp
    1240:	25011101 	strcs	r1, [r1, #-257]	; 0xfffffeff
    1244:	030b130e 	movweq	r1, #45838	; 0xb30e
    1248:	110e1b0e 	tstne	lr, lr, lsl #22
    124c:	10061201 	andne	r1, r6, r1, lsl #4
    1250:	02000017 	andeq	r0, r0, #23, 0
    1254:	0b0b0024 	bleq	2c12ec <__bss_end__+0x2b69d4>
    1258:	08030b3e 	stmdaeq	r3, {r1, r2, r3, r4, r5, r8, r9, fp}
    125c:	24030000 	strcs	r0, [r3], #-0
    1260:	3e0b0b00 	vmlacc.f64	d0, d11, d0
    1264:	000e030b 	andeq	r0, lr, fp, lsl #6
    1268:	01150400 	tsteq	r5, r0, lsl #8
    126c:	13491927 	movtne	r1, #39207	; 0x9927
    1270:	00001301 	andeq	r1, r0, r1, lsl #6
    1274:	49000505 	stmdbmi	r0, {r0, r2, r8, sl}
    1278:	06000013 			; <UNDEFINED> instruction: 0x06000013
    127c:	0e030034 	mcreq	0, 0, r0, cr3, cr4, {1}
    1280:	0b3b0b3a 	bleq	ec3f70 <__bss_end__+0xeb9658>
    1284:	13490b39 	movtne	r0, #39737	; 0x9b39
    1288:	193c193f 	ldmdbne	ip!, {r0, r1, r2, r3, r4, r5, r8, fp, ip}
    128c:	0f070000 	svceq	0x00070000
    1290:	490b0b00 	stmdbmi	fp, {r8, r9, fp}
    1294:	08000013 	stmdaeq	r0, {r0, r1, r4}
    1298:	13490026 	movtne	r0, #36902	; 0x9026
    129c:	2e090000 	cdpcs	0, 0, cr0, cr9, cr0, {0}
    12a0:	03193f01 	tsteq	r9, #1, 30
    12a4:	3b0b3a0e 	blcc	2cfae4 <__bss_end__+0x2c51cc>
    12a8:	110b390b 	tstne	fp, fp, lsl #18
    12ac:	40061201 	andmi	r1, r6, r1, lsl #4
    12b0:	19429718 	stmdbne	r2, {r3, r4, r8, r9, sl, ip, pc}^
    12b4:	00001301 	andeq	r1, r0, r1, lsl #6
    12b8:	3f002e0a 	svccc	0x00002e0a
    12bc:	3a0e0319 	bcc	381f28 <__bss_end__+0x377610>
    12c0:	390b3b0b 	stmdbcc	fp, {r0, r1, r3, r8, r9, fp, ip, sp}
    12c4:	3c19270b 	ldccc	7, cr2, [r9], {11}
    12c8:	0b000019 	bleq	1334 <__code_start__-0x6ccc>
    12cc:	08030034 	stmdaeq	r3, {r2, r4, r5}
    12d0:	0b3b0b3a 	bleq	ec3fc0 <__bss_end__+0xeb96a8>
    12d4:	13490b39 	movtne	r0, #39737	; 0x9b39
    12d8:	42b71702 	adcsmi	r1, r7, #524288	; 0x80000
    12dc:	0c000017 	stceq	0, cr0, [r0], {23}
    12e0:	0e030034 	mcreq	0, 0, r0, cr3, cr4, {1}
    12e4:	0b3b0b3a 	bleq	ec3fd4 <__bss_end__+0xeb96bc>
    12e8:	13490b39 	movtne	r0, #39737	; 0x9b39
    12ec:	0b0d0000 	bleq	3412f4 <__bss_end__+0x3369dc>
    12f0:	12011101 	andne	r1, r1, #1073741824	; 0x40000000
    12f4:	00130106 	andseq	r0, r3, r6, lsl #2
    12f8:	00340e00 	eorseq	r0, r4, r0, lsl #28
    12fc:	0b3a0803 	bleq	e83310 <__bss_end__+0xe789f8>
    1300:	0b390b3b 	bleq	e43ff4 <__bss_end__+0xe396dc>
    1304:	0b1c1349 	bleq	706030 <__bss_end__+0x6fb718>
    1308:	890f0000 	stmdbhi	pc, {}	; <UNPREDICTABLE>
    130c:	11000182 	smlabbne	r0, r2, r1, r0
    1310:	00133101 	andseq	r3, r3, r1, lsl #2
    1314:	002e1000 	eoreq	r1, lr, r0
    1318:	193c193f 	ldmdbne	ip!, {r0, r1, r2, r3, r4, r5, r8, fp, ip}
    131c:	0e030e6e 	cdpeq	14, 0, cr0, cr3, cr14, {3}
    1320:	053b0b3a 	ldreq	r0, [fp, #-2874]!	; 0xfffff4c6
    1324:	00000b39 	andeq	r0, r0, r9, lsr fp
    1328:	3f002e11 	svccc	0x00002e11
    132c:	6e193c19 	mrcvs	12, 0, r3, cr9, cr9, {0}
    1330:	3a0e030e 	bcc	381f70 <__bss_end__+0x377658>
    1334:	390b3b0b 	stmdbcc	fp, {r0, r1, r3, r8, r9, fp, ip, sp}
    1338:	0000000b 	andeq	r0, r0, fp
    133c:	25011101 	strcs	r1, [r1, #-257]	; 0xfffffeff
    1340:	030b130e 	movweq	r1, #45838	; 0xb30e
    1344:	110e1b0e 	tstne	lr, lr, lsl #22
    1348:	10061201 	andne	r1, r6, r1, lsl #4
    134c:	02000017 	andeq	r0, r0, #23, 0
    1350:	0b0b0024 	bleq	2c13e8 <__bss_end__+0x2b6ad0>
    1354:	08030b3e 	stmdaeq	r3, {r1, r2, r3, r4, r5, r8, r9, fp}
    1358:	24030000 	strcs	r0, [r3], #-0
    135c:	3e0b0b00 	vmlacc.f64	d0, d11, d0
    1360:	000e030b 	andeq	r0, lr, fp, lsl #6
    1364:	01150400 	tsteq	r5, r0, lsl #8
    1368:	13491927 	movtne	r1, #39207	; 0x9927
    136c:	00001301 	andeq	r1, r0, r1, lsl #6
    1370:	49000505 	stmdbmi	r0, {r0, r2, r8, sl}
    1374:	06000013 			; <UNDEFINED> instruction: 0x06000013
    1378:	0e030034 	mcreq	0, 0, r0, cr3, cr4, {1}
    137c:	0b3b0b3a 	bleq	ec406c <__bss_end__+0xeb9754>
    1380:	13490b39 	movtne	r0, #39737	; 0x9b39
    1384:	193c193f 	ldmdbne	ip!, {r0, r1, r2, r3, r4, r5, r8, fp, ip}
    1388:	0f070000 	svceq	0x00070000
    138c:	490b0b00 	stmdbmi	fp, {r8, r9, fp}
    1390:	08000013 	stmdaeq	r0, {r0, r1, r4}
    1394:	13490026 	movtne	r0, #36902	; 0x9026
    1398:	2e090000 	cdpcs	0, 0, cr0, cr9, cr0, {0}
    139c:	03193f00 	tsteq	r9, #0, 30
    13a0:	3b0b3a0e 	blcc	2cfbe0 <__bss_end__+0x2c52c8>
    13a4:	270b390b 	strcs	r3, [fp, -fp, lsl #18]
    13a8:	12011119 	andne	r1, r1, #1073741830	; 0x40000006
    13ac:	97184006 	ldrls	r4, [r8, -r6]
    13b0:	00001942 	andeq	r1, r0, r2, asr #18
    13b4:	01110100 	tsteq	r1, r0, lsl #2
    13b8:	0b130e25 	bleq	4c4c54 <__bss_end__+0x4ba33c>
    13bc:	0e1b0e03 	cdpeq	14, 1, cr0, cr11, cr3, {0}
    13c0:	01111755 	tsteq	r1, r5, asr r7
    13c4:	00001710 	andeq	r1, r0, r0, lsl r7
    13c8:	0b002402 	bleq	a3d8 <PIo2+0x70>
    13cc:	030b3e0b 	movweq	r3, #48651	; 0xbe0b
    13d0:	03000008 	movweq	r0, #8
    13d4:	13490026 	movtne	r0, #36902	; 0x9026
    13d8:	24040000 	strcs	r0, [r4], #-0
    13dc:	3e0b0b00 	vmlacc.f64	d0, d11, d0
    13e0:	000e030b 	andeq	r0, lr, fp, lsl #6
    13e4:	01150500 	tsteq	r5, r0, lsl #10
    13e8:	13491927 	movtne	r1, #39207	; 0x9927
    13ec:	00001301 	andeq	r1, r0, r1, lsl #6
    13f0:	49000506 	stmdbmi	r0, {r1, r2, r8, sl}
    13f4:	07000013 	smladeq	r0, r3, r0, r0
    13f8:	0e030034 	mcreq	0, 0, r0, cr3, cr4, {1}
    13fc:	0b3b0b3a 	bleq	ec40ec <__bss_end__+0xeb97d4>
    1400:	13490b39 	movtne	r0, #39737	; 0x9b39
    1404:	193c193f 	ldmdbne	ip!, {r0, r1, r2, r3, r4, r5, r8, fp, ip}
    1408:	0f080000 	svceq	0x00080000
    140c:	490b0b00 	stmdbmi	fp, {r8, r9, fp}
    1410:	09000013 	stmdbeq	r0, {r0, r1, r4}
    1414:	0e030034 	mcreq	0, 0, r0, cr3, cr4, {1}
    1418:	0b3b0b3a 	bleq	ec4108 <__bss_end__+0xeb97f0>
    141c:	13490b39 	movtne	r0, #39737	; 0x9b39
    1420:	2e0a0000 	cdpcs	0, 0, cr0, cr10, cr0, {0}
    1424:	03193f01 	tsteq	r9, #1, 30
    1428:	3b0b3a0e 	blcc	2cfc68 <__bss_end__+0x2c5350>
    142c:	270b390b 	strcs	r3, [fp, -fp, lsl #18]
    1430:	19018719 	stmdbne	r1, {r0, r3, r4, r8, r9, sl, pc}
    1434:	06120111 			; <UNDEFINED> instruction: 0x06120111
    1438:	42971840 	addsmi	r1, r7, #64, 16	; 0x400000
    143c:	00130119 	andseq	r0, r3, r9, lsl r1
    1440:	00340b00 	eorseq	r0, r4, r0, lsl #22
    1444:	0b3a0e03 	bleq	e84c58 <__bss_end__+0xe7a340>
    1448:	0b390b3b 	bleq	e4413c <__bss_end__+0xe39824>
    144c:	17021349 	strne	r1, [r2, -r9, asr #6]
    1450:	001742b7 			; <UNDEFINED> instruction: 0x001742b7
    1454:	82890c00 	addhi	r0, r9, #0, 24
    1458:	01110001 	tsteq	r1, r1
    145c:	00001331 	andeq	r1, r0, r1, lsr r3
    1460:	0182890d 	orreq	r8, r2, sp, lsl #18
    1464:	31011101 	tstcc	r1, r1, lsl #2
    1468:	00130113 	andseq	r0, r3, r3, lsl r1
    146c:	828a0e00 	addhi	r0, sl, #0, 28
    1470:	18020001 	stmdane	r2, {r0}
    1474:	00184291 	mulseq	r8, r1, r2
    1478:	012e0f00 			; <UNDEFINED> instruction: 0x012e0f00
    147c:	0e03193f 			; <UNDEFINED> instruction: 0x0e03193f
    1480:	0b3b0b3a 	bleq	ec4170 <__bss_end__+0xeb9858>
    1484:	19270b39 	stmdbne	r7!, {r0, r3, r4, r5, r8, r9, fp}
    1488:	06120111 			; <UNDEFINED> instruction: 0x06120111
    148c:	42971840 	addsmi	r1, r7, #64, 16	; 0x400000
    1490:	00130119 	andseq	r0, r3, r9, lsl r1
    1494:	012e1000 			; <UNDEFINED> instruction: 0x012e1000
    1498:	0e03193f 			; <UNDEFINED> instruction: 0x0e03193f
    149c:	0b3b0b3a 	bleq	ec418c <__bss_end__+0xeb9874>
    14a0:	19270b39 	stmdbne	r7!, {r0, r3, r4, r5, r8, r9, fp}
    14a4:	01111349 	tsteq	r1, r9, asr #6
    14a8:	18400612 	stmdane	r0, {r1, r4, r9, sl}^
    14ac:	01194297 			; <UNDEFINED> instruction: 0x01194297
    14b0:	11000013 	tstne	r0, r3, lsl r0
    14b4:	193f002e 	ldmdbne	pc!, {r1, r2, r3, r5}	; <UNPREDICTABLE>
    14b8:	0e6e193c 			; <UNDEFINED> instruction: 0x0e6e193c
    14bc:	0b3a0e03 	bleq	e84cd0 <__bss_end__+0xe7a3b8>
    14c0:	0b39053b 	bleq	e429b4 <__bss_end__+0xe3809c>
    14c4:	2e120000 	cdpcs	0, 1, cr0, cr2, cr0, {0}
    14c8:	3c193f00 	ldccc	15, cr3, [r9], {-0}
    14cc:	030e6e19 	movweq	r6, #60953	; 0xee19
    14d0:	3b0b3a0e 	blcc	2cfd10 <__bss_end__+0x2c53f8>
    14d4:	000b390b 	andeq	r3, fp, fp, lsl #18
    14d8:	11010000 	mrsne	r0, (UNDEF: 1)
    14dc:	130e2501 	movwne	r2, #58625	; 0xe501
    14e0:	1b0e030b 	blne	382114 <__bss_end__+0x3777fc>
    14e4:	1201110e 	andne	r1, r1, #-2147483645	; 0x80000003
    14e8:	00171006 	andseq	r1, r7, r6
    14ec:	00240200 	eoreq	r0, r4, r0, lsl #4
    14f0:	0b3e0b0b 	bleq	f84124 <__bss_end__+0xf7980c>
    14f4:	00000803 	andeq	r0, r0, r3, lsl #16
    14f8:	0b002403 	bleq	a50c <putk>
    14fc:	030b3e0b 	movweq	r3, #48651	; 0xbe0b
    1500:	0400000e 	streq	r0, [r0], #-14
    1504:	19270115 	stmdbne	r7!, {r0, r2, r4, r8}
    1508:	13011349 	movwne	r1, #4937	; 0x1349
    150c:	05050000 	streq	r0, [r5, #-0]
    1510:	00134900 	andseq	r4, r3, r0, lsl #18
    1514:	00340600 	eorseq	r0, r4, r0, lsl #12
    1518:	0b3a0e03 	bleq	e84d2c <__bss_end__+0xe7a414>
    151c:	0b390b3b 	bleq	e44210 <__bss_end__+0xe398f8>
    1520:	193f1349 	ldmdbne	pc!, {r0, r3, r6, r8, r9, ip}	; <UNPREDICTABLE>
    1524:	0000193c 	andeq	r1, r0, ip, lsr r9
    1528:	0b000f07 	bleq	514c <__code_start__-0x2eb4>
    152c:	0013490b 	andseq	r4, r3, fp, lsl #18
    1530:	00260800 	eoreq	r0, r6, r0, lsl #16
    1534:	00001349 	andeq	r1, r0, r9, asr #6
    1538:	3f012e09 	svccc	0x00012e09
    153c:	3a0e0319 	bcc	3821a8 <__bss_end__+0x377890>
    1540:	390b3b0b 	stmdbcc	fp, {r0, r1, r3, r8, r9, fp, ip, sp}
    1544:	1119270b 	tstne	r9, fp, lsl #14
    1548:	40061201 	andmi	r1, r6, r1, lsl #4
    154c:	19429718 	stmdbne	r2, {r3, r4, r8, r9, sl, ip, pc}^
    1550:	00001301 	andeq	r1, r0, r1, lsl #6
    1554:	0300050a 	movweq	r0, #1290	; 0x50a
    1558:	3b0b3a08 	blcc	2cfd80 <__bss_end__+0x2c5468>
    155c:	490b390b 	stmdbmi	fp, {r0, r1, r3, r8, fp, ip, sp}
    1560:	b7170213 			; <UNDEFINED> instruction: 0xb7170213
    1564:	00001742 	andeq	r1, r0, r2, asr #14
    1568:	0182890b 	orreq	r8, r2, fp, lsl #18
    156c:	31011101 	tstcc	r1, r1, lsl #2
    1570:	0c000013 	stceq	0, cr0, [r0], {19}
    1574:	0001828a 	andeq	r8, r1, sl, lsl #5
    1578:	42911802 	addsmi	r1, r1, #131072	; 0x20000
    157c:	0d000018 	stceq	0, cr0, [r0, #-96]	; 0xffffffa0
    1580:	08030034 	stmdaeq	r3, {r2, r4, r5}
    1584:	0b3b0b3a 	bleq	ec4274 <__bss_end__+0xeb995c>
    1588:	13490b39 	movtne	r0, #39737	; 0x9b39
    158c:	42b71702 	adcsmi	r1, r7, #524288	; 0x80000
    1590:	0e000017 	mcreq	0, 0, r0, cr0, cr7, {0}
    1594:	0111010b 	tsteq	r1, fp, lsl #2
    1598:	13010612 	movwne	r0, #5650	; 0x1612
    159c:	890f0000 	stmdbhi	pc, {}	; <UNPREDICTABLE>
    15a0:	11000182 	smlabbne	r0, r2, r1, r0
    15a4:	00133101 	andseq	r3, r3, r1, lsl #2
    15a8:	012e1000 			; <UNDEFINED> instruction: 0x012e1000
    15ac:	0e03193f 			; <UNDEFINED> instruction: 0x0e03193f
    15b0:	0b3b0b3a 	bleq	ec42a0 <__bss_end__+0xeb9988>
    15b4:	19270b39 	stmdbne	r7!, {r0, r3, r4, r5, r8, r9, fp}
    15b8:	01111349 	tsteq	r1, r9, asr #6
    15bc:	18400612 	stmdane	r0, {r1, r4, r9, sl}^
    15c0:	01194297 			; <UNDEFINED> instruction: 0x01194297
    15c4:	11000013 	tstne	r0, r3, lsl r0
    15c8:	193f002e 	ldmdbne	pc!, {r1, r2, r3, r5}	; <UNPREDICTABLE>
    15cc:	0e6e193c 			; <UNDEFINED> instruction: 0x0e6e193c
    15d0:	0b3a0e03 	bleq	e84de4 <__bss_end__+0xe7a4cc>
    15d4:	0b390b3b 	bleq	e442c8 <__bss_end__+0xe399b0>
    15d8:	01000000 	mrseq	r0, (UNDEF: 0)
    15dc:	0e250111 	mcreq	1, 1, r0, cr5, cr1, {0}
    15e0:	0e030b13 	vmoveq.32	d3[0], r0
    15e4:	01110e1b 	tsteq	r1, fp, lsl lr
    15e8:	17100612 			; <UNDEFINED> instruction: 0x17100612
    15ec:	24020000 	strcs	r0, [r2], #-0
    15f0:	3e0b0b00 	vmlacc.f64	d0, d11, d0
    15f4:	0008030b 	andeq	r0, r8, fp, lsl #6
    15f8:	00240300 	eoreq	r0, r4, r0, lsl #6
    15fc:	0b3e0b0b 	bleq	f84230 <__bss_end__+0xf79918>
    1600:	00000e03 	andeq	r0, r0, r3, lsl #28
    1604:	49003504 	stmdbmi	r0, {r2, r8, sl, ip, sp}
    1608:	05000013 	streq	r0, [r0, #-19]	; 0xffffffed
    160c:	0e030016 	mcreq	0, 0, r0, cr3, cr6, {0}
    1610:	0b3b0b3a 	bleq	ec4300 <__bss_end__+0xeb99e8>
    1614:	13490b39 	movtne	r0, #39737	; 0x9b39
    1618:	04060000 	streq	r0, [r6], #-0
    161c:	0b0b3e01 	bleq	2d0e28 <__bss_end__+0x2c6510>
    1620:	3a13490b 	bcc	4d3a54 <__bss_end__+0x4c913c>
    1624:	390b3b0b 	stmdbcc	fp, {r0, r1, r3, r8, r9, fp, ip, sp}
    1628:	0013010b 	andseq	r0, r3, fp, lsl #2
    162c:	00280700 	eoreq	r0, r8, r0, lsl #14
    1630:	0b1c0e03 	bleq	704e44 <__bss_end__+0x6fa52c>
    1634:	13080000 	movwne	r0, #32768	; 0x8000
    1638:	0b0e0301 	bleq	382244 <__bss_end__+0x37792c>
    163c:	3b0b3a0b 	blcc	2cfe70 <__bss_end__+0x2c5558>
    1640:	010b390b 	tsteq	fp, fp, lsl #18
    1644:	09000013 	stmdbeq	r0, {r0, r1, r4}
    1648:	0803000d 	stmdaeq	r3, {r0, r2, r3}
    164c:	0b3b0b3a 	bleq	ec433c <__bss_end__+0xeb9a24>
    1650:	13490b39 	movtne	r0, #39737	; 0x9b39
    1654:	00000b38 	andeq	r0, r0, r8, lsr fp
    1658:	03000d0a 	movweq	r0, #3338	; 0xd0a
    165c:	3b0b3a0e 	blcc	2cfe9c <__bss_end__+0x2c5584>
    1660:	490b390b 	stmdbmi	fp, {r0, r1, r3, r8, fp, ip, sp}
    1664:	000b3813 	andeq	r3, fp, r3, lsl r8
    1668:	00340b00 	eorseq	r0, r4, r0, lsl #22
    166c:	0b3a0e03 	bleq	e84e80 <__bss_end__+0xe7a568>
    1670:	0b390b3b 	bleq	e44364 <__bss_end__+0xe39a4c>
    1674:	061c1349 	ldreq	r1, [ip], -r9, asr #6
    1678:	0f0c0000 	svceq	0x000c0000
    167c:	490b0b00 	stmdbmi	fp, {r8, r9, fp}
    1680:	0d000013 	stceq	0, cr0, [r0, #-76]	; 0xffffffb4
    1684:	13490026 	movtne	r0, #36902	; 0x9026
    1688:	2e0e0000 	cdpcs	0, 0, cr0, cr14, cr0, {0}
    168c:	03193f01 	tsteq	r9, #1, 30
    1690:	3b0b3a0e 	blcc	2cfed0 <__bss_end__+0x2c55b8>
    1694:	270b390b 	strcs	r3, [fp, -fp, lsl #18]
    1698:	12011119 	andne	r1, r1, #1073741830	; 0x40000006
    169c:	97184006 	ldrls	r4, [r8, -r6]
    16a0:	13011942 	movwne	r1, #6466	; 0x1942
    16a4:	890f0000 	stmdbhi	pc, {}	; <UNPREDICTABLE>
    16a8:	11000182 	smlabbne	r0, r2, r1, r0
    16ac:	00133101 	andseq	r3, r3, r1, lsl #2
    16b0:	012e1000 			; <UNDEFINED> instruction: 0x012e1000
    16b4:	0e03193f 			; <UNDEFINED> instruction: 0x0e03193f
    16b8:	0b3b0b3a 	bleq	ec43a8 <__bss_end__+0xeb9a90>
    16bc:	19270b39 	stmdbne	r7!, {r0, r3, r4, r5, r8, r9, fp}
    16c0:	01111349 	tsteq	r1, r9, asr #6
    16c4:	18400612 	stmdane	r0, {r1, r4, r9, sl}^
    16c8:	01194297 			; <UNDEFINED> instruction: 0x01194297
    16cc:	11000013 	tstne	r0, r3, lsl r0
    16d0:	01018289 	smlabbeq	r1, r9, r2, r8
    16d4:	13310111 	teqne	r1, #1073741828	; 0x40000004
    16d8:	8a120000 	bhi	4816e0 <__bss_end__+0x476dc8>
    16dc:	02000182 	andeq	r0, r0, #-2147483616	; 0x80000020
    16e0:	18429118 	stmdane	r2, {r3, r4, r8, ip, pc}^
    16e4:	05130000 	ldreq	r0, [r3, #-0]
    16e8:	3a080300 	bcc	2022f0 <__bss_end__+0x1f79d8>
    16ec:	390b3b0b 	stmdbcc	fp, {r0, r1, r3, r8, r9, fp, ip, sp}
    16f0:	0213490b 	andseq	r4, r3, #180224	; 0x2c000
    16f4:	1742b717 	smlaldne	fp, r2, r7, r7
    16f8:	89140000 	ldmdbhi	r4, {}	; <UNPREDICTABLE>
    16fc:	11010182 	smlabbne	r1, r2, r1, r0
    1700:	01133101 	tsteq	r3, r1, lsl #2
    1704:	15000013 	strne	r0, [r0, #-19]	; 0xffffffed
    1708:	08030034 	stmdaeq	r3, {r2, r4, r5}
    170c:	0b3b0b3a 	bleq	ec43fc <__bss_end__+0xeb9ae4>
    1710:	13490b39 	movtne	r0, #39737	; 0x9b39
    1714:	42b71702 	adcsmi	r1, r7, #524288	; 0x80000
    1718:	16000017 			; <UNDEFINED> instruction: 0x16000017
    171c:	0e030034 	mcreq	0, 0, r0, cr3, cr4, {1}
    1720:	0b3b0b3a 	bleq	ec4410 <__bss_end__+0xeb9af8>
    1724:	13490b39 	movtne	r0, #39737	; 0x9b39
    1728:	0000051c 	andeq	r0, r0, ip, lsl r5
    172c:	03012e17 	movweq	r2, #7703	; 0x1e17
    1730:	3b0b3a0e 	blcc	2cff70 <__bss_end__+0x2c5658>
    1734:	270b390b 	strcs	r3, [fp, -fp, lsl #18]
    1738:	12011119 	andne	r1, r1, #1073741830	; 0x40000006
    173c:	97184006 	ldrls	r4, [r8, -r6]
    1740:	13011942 	movwne	r1, #6466	; 0x1942
    1744:	05180000 	ldreq	r0, [r8, #-0]
    1748:	3a0e0300 	bcc	382350 <__bss_end__+0x377a38>
    174c:	390b3b0b 	stmdbcc	fp, {r0, r1, r3, r8, r9, fp, ip, sp}
    1750:	0213490b 	andseq	r4, r3, #180224	; 0x2c000
    1754:	1742b717 	smlaldne	fp, r2, r7, r7
    1758:	35190000 	ldrcc	r0, [r9, #-0]
    175c:	1a000000 	bne	1764 <__code_start__-0x689c>
    1760:	193f002e 	ldmdbne	pc!, {r1, r2, r3, r5}	; <UNPREDICTABLE>
    1764:	0e6e193c 			; <UNDEFINED> instruction: 0x0e6e193c
    1768:	0b3a0e03 	bleq	e84f7c <__bss_end__+0xe7a664>
    176c:	0b390b3b 	bleq	e44460 <__bss_end__+0xe39b48>
    1770:	01000000 	mrseq	r0, (UNDEF: 0)
    1774:	0e250111 	mcreq	1, 1, r0, cr5, cr1, {0}
    1778:	0e030b13 	vmoveq.32	d3[0], r0
    177c:	01110e1b 	tsteq	r1, fp, lsl lr
    1780:	17100612 			; <UNDEFINED> instruction: 0x17100612
    1784:	24020000 	strcs	r0, [r2], #-0
    1788:	3e0b0b00 	vmlacc.f64	d0, d11, d0
    178c:	0008030b 	andeq	r0, r8, fp, lsl #6
    1790:	00240300 	eoreq	r0, r4, r0, lsl #6
    1794:	0b3e0b0b 	bleq	f843c8 <__bss_end__+0xf79ab0>
    1798:	00000e03 	andeq	r0, r0, r3, lsl #28
    179c:	27011504 	strcs	r1, [r1, -r4, lsl #10]
    17a0:	01134919 	tsteq	r3, r9, lsl r9
    17a4:	05000013 	streq	r0, [r0, #-19]	; 0xffffffed
    17a8:	13490005 	movtne	r0, #36869	; 0x9005
    17ac:	34060000 	strcc	r0, [r6], #-0
    17b0:	3a0e0300 	bcc	3823b8 <__bss_end__+0x377aa0>
    17b4:	390b3b0b 	stmdbcc	fp, {r0, r1, r3, r8, r9, fp, ip, sp}
    17b8:	3f13490b 	svccc	0x0013490b
    17bc:	00193c19 	andseq	r3, r9, r9, lsl ip
    17c0:	000f0700 	andeq	r0, pc, r0, lsl #14
    17c4:	13490b0b 	movtne	r0, #39691	; 0x9b0b
    17c8:	26080000 	strcs	r0, [r8], -r0
    17cc:	00134900 	andseq	r4, r3, r0, lsl #18
    17d0:	00340900 	eorseq	r0, r4, r0, lsl #18
    17d4:	0b3a1347 	bleq	e864f8 <__bss_end__+0xe7bbe0>
    17d8:	0b390b3b 	bleq	e444cc <__bss_end__+0xe39bb4>
    17dc:	00001802 	andeq	r1, r0, r2, lsl #16
    17e0:	3f012e0a 	svccc	0x00012e0a
    17e4:	3a0e0319 	bcc	382450 <__bss_end__+0x377b38>
    17e8:	390b3b0b 	stmdbcc	fp, {r0, r1, r3, r8, r9, fp, ip, sp}
    17ec:	1119270b 	tstne	r9, fp, lsl #14
    17f0:	40061201 	andmi	r1, r6, r1, lsl #4
    17f4:	19429718 	stmdbne	r2, {r3, r4, r8, r9, sl, ip, pc}^
    17f8:	00001301 	andeq	r1, r0, r1, lsl #6
    17fc:	0300050b 	movweq	r0, #1291	; 0x50b
    1800:	3b0b3a08 	blcc	2d0028 <__bss_end__+0x2c5710>
    1804:	490b390b 	stmdbmi	fp, {r0, r1, r3, r8, fp, ip, sp}
    1808:	00180213 	andseq	r0, r8, r3, lsl r2
    180c:	002e0c00 	eoreq	r0, lr, r0, lsl #24
    1810:	0e03193f 			; <UNDEFINED> instruction: 0x0e03193f
    1814:	0b3b0b3a 	bleq	ec4504 <__bss_end__+0xeb9bec>
    1818:	19270b39 	stmdbne	r7!, {r0, r3, r4, r5, r8, r9, fp}
    181c:	06120111 			; <UNDEFINED> instruction: 0x06120111
    1820:	42971840 	addsmi	r1, r7, #64, 16	; 0x400000
    1824:	0d000019 	stceq	0, cr0, [r0, #-100]	; 0xffffff9c
    1828:	0e03012e 	adfeqsp	f0, f3, #0.5
    182c:	0b3b0b3a 	bleq	ec451c <__bss_end__+0xeb9c04>
    1830:	19270b39 	stmdbne	r7!, {r0, r3, r4, r5, r8, r9, fp}
    1834:	01111349 	tsteq	r1, r9, asr #6
    1838:	18400612 	stmdane	r0, {r1, r4, r9, sl}^
    183c:	01194297 			; <UNDEFINED> instruction: 0x01194297
    1840:	0e000013 	mcreq	0, 0, r0, cr0, cr3, {0}
    1844:	08030005 	stmdaeq	r3, {r0, r2}
    1848:	0b3b0b3a 	bleq	ec4538 <__bss_end__+0xeb9c20>
    184c:	13490b39 	movtne	r0, #39737	; 0x9b39
    1850:	42b71702 	adcsmi	r1, r7, #524288	; 0x80000
    1854:	0f000017 	svceq	0x00000017
    1858:	01018289 	smlabbeq	r1, r9, r2, r8
    185c:	13310111 	teqne	r1, #1073741828	; 0x40000004
    1860:	8a100000 	bhi	401868 <__bss_end__+0x3f6f50>
    1864:	02000182 	andeq	r0, r0, #-2147483616	; 0x80000020
    1868:	18429118 	stmdane	r2, {r3, r4, r8, ip, pc}^
    186c:	2e110000 	cdpcs	0, 1, cr0, cr1, cr0, {0}
    1870:	3c193f00 	ldccc	15, cr3, [r9], {-0}
    1874:	030e6e19 	movweq	r6, #60953	; 0xee19
    1878:	3b0b3a0e 	blcc	2d00b8 <__bss_end__+0x2c57a0>
    187c:	000b390b 	andeq	r3, fp, fp, lsl #18
    1880:	11010000 	mrsne	r0, (UNDEF: 1)
    1884:	130e2501 	movwne	r2, #58625	; 0xe501
    1888:	1b0e030b 	blne	3824bc <__bss_end__+0x377ba4>
    188c:	1201110e 	andne	r1, r1, #-2147483645	; 0x80000003
    1890:	00171006 	andseq	r1, r7, r6
    1894:	00240200 	eoreq	r0, r4, r0, lsl #4
    1898:	0b3e0b0b 	bleq	f844cc <__bss_end__+0xf79bb4>
    189c:	00000803 	andeq	r0, r0, r3, lsl #16
    18a0:	0b002403 	bleq	a8b4 <__data_end__+0x3a0>
    18a4:	030b3e0b 	movweq	r3, #48651	; 0xbe0b
    18a8:	0400000e 	streq	r0, [r0], #-14
    18ac:	19270115 	stmdbne	r7!, {r0, r2, r4, r8}
    18b0:	13011349 	movwne	r1, #4937	; 0x1349
    18b4:	05050000 	streq	r0, [r5, #-0]
    18b8:	00134900 	andseq	r4, r3, r0, lsl #18
    18bc:	00340600 	eorseq	r0, r4, r0, lsl #12
    18c0:	0b3a0e03 	bleq	e850d4 <__bss_end__+0xe7a7bc>
    18c4:	0b390b3b 	bleq	e445b8 <__bss_end__+0xe39ca0>
    18c8:	193f1349 	ldmdbne	pc!, {r0, r3, r6, r8, r9, ip}	; <UNPREDICTABLE>
    18cc:	0000193c 	andeq	r1, r0, ip, lsr r9
    18d0:	0b000f07 	bleq	54f4 <__code_start__-0x2b0c>
    18d4:	0013490b 	andseq	r4, r3, fp, lsl #18
    18d8:	00260800 	eoreq	r0, r6, r0, lsl #16
    18dc:	00001349 	andeq	r1, r0, r9, asr #6
    18e0:	3f012e09 	svccc	0x00012e09
    18e4:	3a0e0319 	bcc	382550 <__bss_end__+0x377c38>
    18e8:	390b3b0b 	stmdbcc	fp, {r0, r1, r3, r8, r9, fp, ip, sp}
    18ec:	4919270b 	ldmdbmi	r9, {r0, r1, r3, r8, r9, sl, sp}
    18f0:	12011113 	andne	r1, r1, #-1073741820	; 0xc0000004
    18f4:	97184006 	ldrls	r4, [r8, -r6]
    18f8:	13011942 	movwne	r1, #6466	; 0x1942
    18fc:	050a0000 	streq	r0, [sl, #-0]
    1900:	3a0e0300 	bcc	382508 <__bss_end__+0x377bf0>
    1904:	390b3b0b 	stmdbcc	fp, {r0, r1, r3, r8, r9, fp, ip, sp}
    1908:	0213490b 	andseq	r4, r3, #180224	; 0x2c000
    190c:	0b000018 	bleq	1974 <__code_start__-0x668c>
    1910:	08030005 	stmdaeq	r3, {r0, r2}
    1914:	0b3b0b3a 	bleq	ec4604 <__bss_end__+0xeb9cec>
    1918:	13490b39 	movtne	r0, #39737	; 0x9b39
    191c:	42b71702 	adcsmi	r1, r7, #524288	; 0x80000
    1920:	0c000017 	stceq	0, cr0, [r0], {23}
    1924:	08030034 	stmdaeq	r3, {r2, r4, r5}
    1928:	0b3b0b3a 	bleq	ec4618 <__bss_end__+0xeb9d00>
    192c:	13490b39 	movtne	r0, #39737	; 0x9b39
    1930:	42b71702 	adcsmi	r1, r7, #524288	; 0x80000
    1934:	00000017 	andeq	r0, r0, r7, lsl r0
    1938:	25011101 	strcs	r1, [r1, #-257]	; 0xfffffeff
    193c:	030b130e 	movweq	r1, #45838	; 0xb30e
    1940:	110e1b0e 	tstne	lr, lr, lsl #22
    1944:	10061201 	andne	r1, r6, r1, lsl #4
    1948:	02000017 	andeq	r0, r0, #23, 0
    194c:	0b0b0024 	bleq	2c19e4 <__bss_end__+0x2b70cc>
    1950:	08030b3e 	stmdaeq	r3, {r1, r2, r3, r4, r5, r8, r9, fp}
    1954:	24030000 	strcs	r0, [r3], #-0
    1958:	3e0b0b00 	vmlacc.f64	d0, d11, d0
    195c:	000e030b 	andeq	r0, lr, fp, lsl #6
    1960:	01150400 	tsteq	r5, r0, lsl #8
    1964:	13491927 	movtne	r1, #39207	; 0x9927
    1968:	00001301 	andeq	r1, r0, r1, lsl #6
    196c:	49000505 	stmdbmi	r0, {r0, r2, r8, sl}
    1970:	06000013 			; <UNDEFINED> instruction: 0x06000013
    1974:	0e030034 	mcreq	0, 0, r0, cr3, cr4, {1}
    1978:	0b3b0b3a 	bleq	ec4668 <__bss_end__+0xeb9d50>
    197c:	13490b39 	movtne	r0, #39737	; 0x9b39
    1980:	193c193f 	ldmdbne	ip!, {r0, r1, r2, r3, r4, r5, r8, fp, ip}
    1984:	0f070000 	svceq	0x00070000
    1988:	490b0b00 	stmdbmi	fp, {r8, r9, fp}
    198c:	08000013 	stmdaeq	r0, {r0, r1, r4}
    1990:	13490026 	movtne	r0, #36902	; 0x9026
    1994:	2e090000 	cdpcs	0, 0, cr0, cr9, cr0, {0}
    1998:	03193f01 	tsteq	r9, #1, 30
    199c:	3b0b3a0e 	blcc	2d01dc <__bss_end__+0x2c58c4>
    19a0:	270b390b 	strcs	r3, [fp, -fp, lsl #18]
    19a4:	11134919 	tstne	r3, r9, lsl r9
    19a8:	40061201 	andmi	r1, r6, r1, lsl #4
    19ac:	19429718 	stmdbne	r2, {r3, r4, r8, r9, sl, ip, pc}^
    19b0:	050a0000 	streq	r0, [sl, #-0]
    19b4:	3a080300 	bcc	2025bc <__bss_end__+0x1f7ca4>
    19b8:	390b3b0b 	stmdbcc	fp, {r0, r1, r3, r8, r9, fp, ip, sp}
    19bc:	0213490b 	andseq	r4, r3, #180224	; 0x2c000
    19c0:	1742b717 	smlaldne	fp, r2, r7, r7
    19c4:	01000000 	mrseq	r0, (UNDEF: 0)
    19c8:	0e250111 	mcreq	1, 1, r0, cr5, cr1, {0}
    19cc:	0e030b13 	vmoveq.32	d3[0], r0
    19d0:	01110e1b 	tsteq	r1, fp, lsl lr
    19d4:	17100612 			; <UNDEFINED> instruction: 0x17100612
    19d8:	24020000 	strcs	r0, [r2], #-0
    19dc:	3e0b0b00 	vmlacc.f64	d0, d11, d0
    19e0:	0008030b 	andeq	r0, r8, fp, lsl #6
    19e4:	00240300 	eoreq	r0, r4, r0, lsl #6
    19e8:	0b3e0b0b 	bleq	f8461c <__bss_end__+0xf79d04>
    19ec:	00000e03 	andeq	r0, r0, r3, lsl #28
    19f0:	27011504 	strcs	r1, [r1, -r4, lsl #10]
    19f4:	01134919 	tsteq	r3, r9, lsl r9
    19f8:	05000013 	streq	r0, [r0, #-19]	; 0xffffffed
    19fc:	13490005 	movtne	r0, #36869	; 0x9005
    1a00:	34060000 	strcc	r0, [r6], #-0
    1a04:	3a0e0300 	bcc	38260c <__bss_end__+0x377cf4>
    1a08:	390b3b0b 	stmdbcc	fp, {r0, r1, r3, r8, r9, fp, ip, sp}
    1a0c:	3f13490b 	svccc	0x0013490b
    1a10:	00193c19 	andseq	r3, r9, r9, lsl ip
    1a14:	000f0700 	andeq	r0, pc, r0, lsl #14
    1a18:	13490b0b 	movtne	r0, #39691	; 0x9b0b
    1a1c:	26080000 	strcs	r0, [r8], -r0
    1a20:	00134900 	andseq	r4, r3, r0, lsl #18
    1a24:	012e0900 			; <UNDEFINED> instruction: 0x012e0900
    1a28:	0e03193f 			; <UNDEFINED> instruction: 0x0e03193f
    1a2c:	0b3b0b3a 	bleq	ec471c <__bss_end__+0xeb9e04>
    1a30:	19270b39 	stmdbne	r7!, {r0, r3, r4, r5, r8, r9, fp}
    1a34:	01111349 	tsteq	r1, r9, asr #6
    1a38:	18400612 	stmdane	r0, {r1, r4, r9, sl}^
    1a3c:	01194297 			; <UNDEFINED> instruction: 0x01194297
    1a40:	0a000013 	beq	1a94 <__code_start__-0x656c>
    1a44:	08030005 	stmdaeq	r3, {r0, r2}
    1a48:	0b3b0b3a 	bleq	ec4738 <__bss_end__+0xeb9e20>
    1a4c:	13490b39 	movtne	r0, #39737	; 0x9b39
    1a50:	00001802 	andeq	r1, r0, r2, lsl #16
    1a54:	0300050b 	movweq	r0, #1291	; 0x50b
    1a58:	3b0b3a08 	blcc	2d0280 <__bss_end__+0x2c5968>
    1a5c:	490b390b 	stmdbmi	fp, {r0, r1, r3, r8, fp, ip, sp}
    1a60:	b7170213 			; <UNDEFINED> instruction: 0xb7170213
    1a64:	00001742 	andeq	r1, r0, r2, asr #14
    1a68:	0300340c 	movweq	r3, #1036	; 0x40c
    1a6c:	3b0b3a08 	blcc	2d0294 <__bss_end__+0x2c597c>
    1a70:	490b390b 	stmdbmi	fp, {r0, r1, r3, r8, fp, ip, sp}
    1a74:	b7170213 			; <UNDEFINED> instruction: 0xb7170213
    1a78:	00001742 	andeq	r1, r0, r2, asr #14
    1a7c:	01110100 	tsteq	r1, r0, lsl #2
    1a80:	0b130e25 	bleq	4c531c <__bss_end__+0x4baa04>
    1a84:	0e1b0e03 	cdpeq	14, 1, cr0, cr11, cr3, {0}
    1a88:	01111755 	tsteq	r1, r5, asr r7
    1a8c:	00001710 	andeq	r1, r0, r0, lsl r7
    1a90:	0b002402 	bleq	aaa0 <__bss_end__+0x188>
    1a94:	030b3e0b 	movweq	r3, #48651	; 0xbe0b
    1a98:	03000008 	movweq	r0, #8
    1a9c:	0e030016 	mcreq	0, 0, r0, cr3, cr6, {0}
    1aa0:	0b3b0b3a 	bleq	ec4790 <__bss_end__+0xeb9e78>
    1aa4:	13490b39 	movtne	r0, #39737	; 0x9b39
    1aa8:	24040000 	strcs	r0, [r4], #-0
    1aac:	3e0b0b00 	vmlacc.f64	d0, d11, d0
    1ab0:	000e030b 	andeq	r0, lr, fp, lsl #6
    1ab4:	00260500 	eoreq	r0, r6, r0, lsl #10
    1ab8:	00001349 	andeq	r1, r0, r9, asr #6
    1abc:	27011506 	strcs	r1, [r1, -r6, lsl #10]
    1ac0:	01134919 	tsteq	r3, r9, lsl r9
    1ac4:	07000013 	smladeq	r0, r3, r0, r0
    1ac8:	13490005 	movtne	r0, #36869	; 0x9005
    1acc:	34080000 	strcc	r0, [r8], #-0
    1ad0:	3a0e0300 	bcc	3826d8 <__bss_end__+0x377dc0>
    1ad4:	390b3b0b 	stmdbcc	fp, {r0, r1, r3, r8, r9, fp, ip, sp}
    1ad8:	3f13490b 	svccc	0x0013490b
    1adc:	00193c19 	andseq	r3, r9, r9, lsl ip
    1ae0:	000f0900 	andeq	r0, pc, r0, lsl #18
    1ae4:	13490b0b 	movtne	r0, #39691	; 0x9b0b
    1ae8:	2e0a0000 	cdpcs	0, 0, cr0, cr10, cr0, {0}
    1aec:	03193f01 	tsteq	r9, #1, 30
    1af0:	3b0b3a0e 	blcc	2d0330 <__bss_end__+0x2c5a18>
    1af4:	270b390b 	strcs	r3, [fp, -fp, lsl #18]
    1af8:	11134919 	tstne	r3, r9, lsl r9
    1afc:	40061201 	andmi	r1, r6, r1, lsl #4
    1b00:	19429718 	stmdbne	r2, {r3, r4, r8, r9, sl, ip, pc}^
    1b04:	00001301 	andeq	r1, r0, r1, lsl #6
    1b08:	0300050b 	movweq	r0, #1291	; 0x50b
    1b0c:	3b0b3a08 	blcc	2d0334 <__bss_end__+0x2c5a1c>
    1b10:	490b390b 	stmdbmi	fp, {r0, r1, r3, r8, fp, ip, sp}
    1b14:	b7170213 			; <UNDEFINED> instruction: 0xb7170213
    1b18:	00001742 	andeq	r1, r0, r2, asr #14
    1b1c:	0300340c 	movweq	r3, #1036	; 0x40c
    1b20:	3b0b3a08 	blcc	2d0348 <__bss_end__+0x2c5a30>
    1b24:	490b390b 	stmdbmi	fp, {r0, r1, r3, r8, fp, ip, sp}
    1b28:	b7170213 			; <UNDEFINED> instruction: 0xb7170213
    1b2c:	00001742 	andeq	r1, r0, r2, asr #14
    1b30:	01110100 	tsteq	r1, r0, lsl #2
    1b34:	0b130e25 	bleq	4c53d0 <__bss_end__+0x4baab8>
    1b38:	0e1b0e03 	cdpeq	14, 1, cr0, cr11, cr3, {0}
    1b3c:	06120111 			; <UNDEFINED> instruction: 0x06120111
    1b40:	00001710 	andeq	r1, r0, r0, lsl r7
    1b44:	0b002402 	bleq	ab54 <__bss_end__+0x23c>
    1b48:	030b3e0b 	movweq	r3, #48651	; 0xbe0b
    1b4c:	03000008 	movweq	r0, #8
    1b50:	0b0b0024 	bleq	2c1be8 <__bss_end__+0x2b72d0>
    1b54:	0e030b3e 	vmoveq.16	d3[0], r0
    1b58:	15040000 	strne	r0, [r4, #-0]
    1b5c:	49192701 	ldmdbmi	r9, {r0, r8, r9, sl, sp}
    1b60:	00130113 	andseq	r0, r3, r3, lsl r1
    1b64:	00050500 	andeq	r0, r5, r0, lsl #10
    1b68:	00001349 	andeq	r1, r0, r9, asr #6
    1b6c:	03003406 	movweq	r3, #1030	; 0x406
    1b70:	3b0b3a0e 	blcc	2d03b0 <__bss_end__+0x2c5a98>
    1b74:	490b390b 	stmdbmi	fp, {r0, r1, r3, r8, fp, ip, sp}
    1b78:	3c193f13 	ldccc	15, cr3, [r9], {19}
    1b7c:	07000019 	smladeq	r0, r9, r0, r0
    1b80:	0b0b000f 	bleq	2c1bc4 <__bss_end__+0x2b72ac>
    1b84:	00001349 	andeq	r1, r0, r9, asr #6
    1b88:	49002608 	stmdbmi	r0, {r3, r9, sl, sp}
    1b8c:	09000013 	stmdbeq	r0, {r0, r1, r4}
    1b90:	193f002e 	ldmdbne	pc!, {r1, r2, r3, r5}	; <UNPREDICTABLE>
    1b94:	0b3a0e03 	bleq	e853a8 <__bss_end__+0xe7aa90>
    1b98:	0b390b3b 	bleq	e4488c <__bss_end__+0xe39f74>
    1b9c:	01111927 	tsteq	r1, r7, lsr #18
    1ba0:	18400612 	stmdane	r0, {r1, r4, r9, sl}^
    1ba4:	00194297 	mulseq	r9, r7, r2
    1ba8:	11010000 	mrsne	r0, (UNDEF: 1)
    1bac:	130e2501 	movwne	r2, #58625	; 0xe501
    1bb0:	1b0e030b 	blne	3827e4 <__bss_end__+0x377ecc>
    1bb4:	1201110e 	andne	r1, r1, #-2147483645	; 0x80000003
    1bb8:	00171006 	andseq	r1, r7, r6
    1bbc:	00240200 	eoreq	r0, r4, r0, lsl #4
    1bc0:	0b3e0b0b 	bleq	f847f4 <__bss_end__+0xf79edc>
    1bc4:	00000803 	andeq	r0, r0, r3, lsl #16
    1bc8:	0b002403 	bleq	abdc <__bss_end__+0x2c4>
    1bcc:	030b3e0b 	movweq	r3, #48651	; 0xbe0b
    1bd0:	0400000e 	streq	r0, [r0], #-14
    1bd4:	13490026 	movtne	r0, #36902	; 0x9026
    1bd8:	16050000 	strne	r0, [r5], -r0
    1bdc:	3a0e0300 	bcc	3827e4 <__bss_end__+0x377ecc>
    1be0:	390b3b0b 	stmdbcc	fp, {r0, r1, r3, r8, r9, fp, ip, sp}
    1be4:	0013490b 	andseq	r4, r3, fp, lsl #18
    1be8:	01040600 	tsteq	r4, r0, lsl #12
    1bec:	0b0b0b3e 	bleq	2c48ec <__bss_end__+0x2b9fd4>
    1bf0:	0b3a1349 	bleq	e8691c <__bss_end__+0xe7c004>
    1bf4:	0b390b3b 	bleq	e448e8 <__bss_end__+0xe39fd0>
    1bf8:	00001301 	andeq	r1, r0, r1, lsl #6
    1bfc:	03002807 	movweq	r2, #2055	; 0x807
    1c00:	000b1c0e 	andeq	r1, fp, lr, lsl #24
    1c04:	00340800 	eorseq	r0, r4, r0, lsl #16
    1c08:	0b3a0e03 	bleq	e8541c <__bss_end__+0xe7ab04>
    1c0c:	0b390b3b 	bleq	e44900 <__bss_end__+0xe39fe8>
    1c10:	061c1349 	ldreq	r1, [ip], -r9, asr #6
    1c14:	2e090000 	cdpcs	0, 0, cr0, cr9, cr0, {0}
    1c18:	03193f01 	tsteq	r9, #1, 30
    1c1c:	3b0b3a0e 	blcc	2d045c <__bss_end__+0x2c5b44>
    1c20:	270b390b 	strcs	r3, [fp, -fp, lsl #18]
    1c24:	11134919 	tstne	r3, r9, lsl r9
    1c28:	40061201 	andmi	r1, r6, r1, lsl #4
    1c2c:	19429718 	stmdbne	r2, {r3, r4, r8, r9, sl, ip, pc}^
    1c30:	00001301 	andeq	r1, r0, r1, lsl #6
    1c34:	0300050a 	movweq	r0, #1290	; 0x50a
    1c38:	3b0b3a08 	blcc	2d0460 <__bss_end__+0x2c5b48>
    1c3c:	490b390b 	stmdbmi	fp, {r0, r1, r3, r8, fp, ip, sp}
    1c40:	b7170213 			; <UNDEFINED> instruction: 0xb7170213
    1c44:	00001742 	andeq	r1, r0, r2, asr #14
    1c48:	0300340b 	movweq	r3, #1035	; 0x40b
    1c4c:	3b0b3a0e 	blcc	2d048c <__bss_end__+0x2c5b74>
    1c50:	490b390b 	stmdbmi	fp, {r0, r1, r3, r8, fp, ip, sp}
    1c54:	b7170213 			; <UNDEFINED> instruction: 0xb7170213
    1c58:	00001742 	andeq	r1, r0, r2, asr #14
    1c5c:	0300340c 	movweq	r3, #1036	; 0x40c
    1c60:	3b0b3a08 	blcc	2d0488 <__bss_end__+0x2c5b70>
    1c64:	490b390b 	stmdbmi	fp, {r0, r1, r3, r8, fp, ip, sp}
    1c68:	b7170213 			; <UNDEFINED> instruction: 0xb7170213
    1c6c:	00001742 	andeq	r1, r0, r2, asr #14
    1c70:	0182890d 	orreq	r8, r2, sp, lsl #18
    1c74:	31011101 	tstcc	r1, r1, lsl #2
    1c78:	0e000013 	mcreq	0, 0, r0, cr0, cr3, {0}
    1c7c:	0001828a 	andeq	r8, r1, sl, lsl #5
    1c80:	42911802 	addsmi	r1, r1, #131072	; 0x20000
    1c84:	0f000018 	svceq	0x00000018
    1c88:	193f012e 	ldmdbne	pc!, {r1, r2, r3, r5, r8}	; <UNPREDICTABLE>
    1c8c:	0b3a0e03 	bleq	e854a0 <__bss_end__+0xe7ab88>
    1c90:	0b390b3b 	bleq	e44984 <__bss_end__+0xe3a06c>
    1c94:	01111927 	tsteq	r1, r7, lsr #18
    1c98:	18400612 	stmdane	r0, {r1, r4, r9, sl}^
    1c9c:	01194297 			; <UNDEFINED> instruction: 0x01194297
    1ca0:	10000013 	andne	r0, r0, r3, lsl r0
    1ca4:	01018289 	smlabbeq	r1, r9, r2, r8
    1ca8:	13310111 	teqne	r1, #1073741828	; 0x40000004
    1cac:	00001301 	andeq	r1, r0, r1, lsl #6
    1cb0:	01828911 	orreq	r8, r2, r1, lsl r9
    1cb4:	31011100 	mrscc	r1, (UNDEF: 17)
    1cb8:	12000013 	andne	r0, r0, #19, 0
    1cbc:	0e030005 	cdpeq	0, 0, cr0, cr3, cr5, {0}
    1cc0:	0b3b0b3a 	bleq	ec49b0 <__bss_end__+0xeba098>
    1cc4:	13490b39 	movtne	r0, #39737	; 0x9b39
    1cc8:	42b71702 	adcsmi	r1, r7, #524288	; 0x80000
    1ccc:	13000017 	movwne	r0, #23
    1cd0:	0e03012e 	adfeqsp	f0, f3, #0.5
    1cd4:	0b3b0b3a 	bleq	ec49c4 <__bss_end__+0xeba0ac>
    1cd8:	19270b39 	stmdbne	r7!, {r0, r3, r4, r5, r8, r9, fp}
    1cdc:	0b201349 	bleq	806a08 <__bss_end__+0x7fc0f0>
    1ce0:	00001301 	andeq	r1, r0, r1, lsl #6
    1ce4:	03000514 	movweq	r0, #1300	; 0x514
    1ce8:	3b0b3a08 	blcc	2d0510 <__bss_end__+0x2c5bf8>
    1cec:	490b390b 	stmdbmi	fp, {r0, r1, r3, r8, fp, ip, sp}
    1cf0:	15000013 	strne	r0, [r0, #-19]	; 0xffffffed
    1cf4:	193f002e 	ldmdbne	pc!, {r1, r2, r3, r5}	; <UNPREDICTABLE>
    1cf8:	0e6e193c 			; <UNDEFINED> instruction: 0x0e6e193c
    1cfc:	0b3a0e03 	bleq	e85510 <__bss_end__+0xe7abf8>
    1d00:	0b390b3b 	bleq	e449f4 <__bss_end__+0xe3a0dc>
    1d04:	Address 0x0000000000001d04 is out of bounds.


Disassembly of section .debug_aranges:

00000000 <.debug_aranges>:
   0:	0000001c 	andeq	r0, r0, ip, lsl r0
   4:	00000002 	andeq	r0, r0, r2
   8:	00040000 	andeq	r0, r4, r0
   c:	00000000 	andeq	r0, r0, r0
  10:	000080d8 	ldrdeq	r8, [r0], -r8	; <UNPREDICTABLE>
  14:	00000088 	andeq	r0, r0, r8, lsl #1
	...
  20:	0000001c 	andeq	r0, r0, ip, lsl r0
  24:	02710002 	rsbseq	r0, r1, #2, 0
  28:	00040000 	andeq	r0, r4, r0
  2c:	00000000 	andeq	r0, r0, r0
  30:	00008160 	andeq	r8, r0, r0, ror #2
  34:	000000f4 	strdeq	r0, [r0], -r4
	...
  40:	0000001c 	andeq	r0, r0, ip, lsl r0
  44:	05620002 	strbeq	r0, [r2, #-2]!
  48:	00040000 	andeq	r0, r4, r0
  4c:	00000000 	andeq	r0, r0, r0
  50:	00008258 	andeq	r8, r0, r8, asr r2
  54:	000000a8 	andeq	r0, r0, r8, lsr #1
	...
  60:	0000001c 	andeq	r0, r0, ip, lsl r0
  64:	07880002 	streq	r0, [r8, r2]
  68:	00040000 	andeq	r0, r4, r0
  6c:	00000000 	andeq	r0, r0, r0
  70:	00008300 	andeq	r8, r0, r0, lsl #6
  74:	000000a8 	andeq	r0, r0, r8, lsr #1
	...
  80:	0000001c 	andeq	r0, r0, ip, lsl r0
  84:	09b90002 	ldmibeq	r9!, {r1}
  88:	00040000 	andeq	r0, r4, r0
  8c:	00000000 	andeq	r0, r0, r0
  90:	000083a8 	andeq	r8, r0, r8, lsr #7
  94:	00000438 	andeq	r0, r0, r8, lsr r4
	...
  a0:	0000001c 	andeq	r0, r0, ip, lsl r0
  a4:	0e5c0002 	cdpeq	0, 5, cr0, cr12, cr2, {0}
  a8:	00040000 	andeq	r0, r4, r0
  ac:	00000000 	andeq	r0, r0, r0
  b0:	000087e0 	andeq	r8, r0, r0, ror #15
  b4:	0000075c 	andeq	r0, r0, ip, asr r7
	...
  c0:	0000001c 	andeq	r0, r0, ip, lsl r0
  c4:	132e0002 			; <UNDEFINED> instruction: 0x132e0002
  c8:	00040000 	andeq	r0, r4, r0
  cc:	00000000 	andeq	r0, r0, r0
  d0:	00008f40 	andeq	r8, r0, r0, asr #30
  d4:	00000178 	andeq	r0, r0, r8, ror r1
	...
  e0:	0000001c 	andeq	r0, r0, ip, lsl r0
  e4:	16c10002 	strbne	r0, [r1], r2
  e8:	00040000 	andeq	r0, r4, r0
  ec:	00000000 	andeq	r0, r0, r0
  f0:	000090b8 	strheq	r9, [r0], -r8
  f4:	00000180 	andeq	r0, r0, r0, lsl #3
	...
 100:	0000001c 	andeq	r0, r0, ip, lsl r0
 104:	19570002 	ldmdbne	r7, {r1}^
 108:	00040000 	andeq	r0, r4, r0
 10c:	00000000 	andeq	r0, r0, r0
 110:	00009238 	andeq	r9, r0, r8, lsr r2
 114:	0000002c 	andeq	r0, r0, ip, lsr #32
	...
 120:	0000001c 	andeq	r0, r0, ip, lsl r0
 124:	1b9d0002 	blne	fe740134 <__bss_end__+0xfe73581c>
 128:	00040000 	andeq	r0, r4, r0
 12c:	00000000 	andeq	r0, r0, r0
 130:	00009268 	andeq	r9, r0, r8, ror #4
 134:	000000e4 	andeq	r0, r0, r4, ror #1
	...
 140:	0000001c 	andeq	r0, r0, ip, lsl r0
 144:	1e8f0002 	cdpne	0, 8, cr0, cr15, cr2, {0}
 148:	00040000 	andeq	r0, r4, r0
 14c:	00000000 	andeq	r0, r0, r0
 150:	0000934c 	andeq	r9, r0, ip, asr #6
 154:	00000058 	andeq	r0, r0, r8, asr r0
	...
 160:	0000001c 	andeq	r0, r0, ip, lsl r0
 164:	20300002 	eorscs	r0, r0, r2
 168:	00040000 	andeq	r0, r4, r0
 16c:	00000000 	andeq	r0, r0, r0
 170:	000093a4 	andeq	r9, r0, r4, lsr #7
 174:	00000034 	andeq	r0, r0, r4, lsr r0
	...
 180:	0000001c 	andeq	r0, r0, ip, lsl r0
 184:	21270002 			; <UNDEFINED> instruction: 0x21270002
 188:	00040000 	andeq	r0, r4, r0
 18c:	00000000 	andeq	r0, r0, r0
 190:	000093d8 	ldrdeq	r9, [r0], -r8
 194:	000008c8 	andeq	r0, r0, r8, asr #17
	...
 1a0:	0000001c 	andeq	r0, r0, ip, lsl r0
 1a4:	2e700002 	cdpcs	0, 7, cr0, cr0, cr2, {0}
 1a8:	00040000 	andeq	r0, r4, r0
 1ac:	00000000 	andeq	r0, r0, r0
 1b0:	00009ca0 	andeq	r9, r0, r0, lsr #25
 1b4:	0000002c 	andeq	r0, r0, ip, lsr #32
	...
 1c0:	0000001c 	andeq	r0, r0, ip, lsl r0
 1c4:	2fa30002 	svccs	0x00a30002
 1c8:	00040000 	andeq	r0, r4, r0
 1cc:	00000000 	andeq	r0, r0, r0
 1d0:	00009ccc 	andeq	r9, r0, ip, asr #25
 1d4:	0000003c 	andeq	r0, r0, ip, lsr r0
	...
 1e0:	0000001c 	andeq	r0, r0, ip, lsl r0
 1e4:	31300002 	teqcc	r0, r2
 1e8:	00040000 	andeq	r0, r4, r0
 1ec:	00000000 	andeq	r0, r0, r0
 1f0:	00009d08 	andeq	r9, r0, r8, lsl #26
 1f4:	00000004 	andeq	r0, r0, r4
	...
 200:	0000001c 	andeq	r0, r0, ip, lsl r0
 204:	32020002 	andcc	r0, r2, #2, 0
 208:	00040000 	andeq	r0, r4, r0
 20c:	00000000 	andeq	r0, r0, r0
 210:	00009d0c 	andeq	r9, r0, ip, lsl #26
 214:	00000080 	andeq	r0, r0, r0, lsl #1
	...
 220:	0000001c 	andeq	r0, r0, ip, lsl r0
 224:	343c0002 	ldrtcc	r0, [ip], #-2
 228:	00040000 	andeq	r0, r4, r0
 22c:	00000000 	andeq	r0, r0, r0
 230:	00009d8c 	andeq	r9, r0, ip, lsl #27
 234:	00000084 	andeq	r0, r0, r4, lsl #1
	...
 240:	0000001c 	andeq	r0, r0, ip, lsl r0
 244:	368d0002 	strcc	r0, [sp], r2
 248:	00040000 	andeq	r0, r4, r0
 24c:	00000000 	andeq	r0, r0, r0
 250:	00009e10 	andeq	r9, r0, r0, lsl lr
 254:	000001f0 	strdeq	r0, [r0], -r0	; <UNPREDICTABLE>
	...
 260:	0000001c 	andeq	r0, r0, ip, lsl r0
 264:	3c5e0002 	mrrccc	0, 0, r0, lr, cr2
 268:	00040000 	andeq	r0, r4, r0
 26c:	00000000 	andeq	r0, r0, r0
 270:	0000a000 	andeq	sl, r0, r0
 274:	0000003c 	andeq	r0, r0, ip, lsr r0
	...
 280:	0000001c 	andeq	r0, r0, ip, lsl r0
 284:	3dab0002 	stccc	0, cr0, [fp, #8]!
 288:	00040000 	andeq	r0, r4, r0
 28c:	00000000 	andeq	r0, r0, r0
 290:	0000a03c 	andeq	sl, r0, ip, lsr r0
 294:	00000034 	andeq	r0, r0, r4, lsr r0
	...
 2a0:	0000001c 	andeq	r0, r0, ip, lsl r0
 2a4:	3ee60002 	cdpcc	0, 14, cr0, cr6, cr2, {0}
 2a8:	00040000 	andeq	r0, r4, r0
 2ac:	00000000 	andeq	r0, r0, r0
 2b0:	0000a070 	andeq	sl, r0, r0, ror r0
 2b4:	0000002c 	andeq	r0, r0, ip, lsr #32
	...
 2c0:	0000001c 	andeq	r0, r0, ip, lsl r0
 2c4:	3fe10002 	svccc	0x00e10002
 2c8:	00040000 	andeq	r0, r4, r0
 2cc:	00000000 	andeq	r0, r0, r0
 2d0:	0000a09c 	muleq	r0, ip, r0
 2d4:	00000020 	andeq	r0, r0, r0, lsr #32
	...
 2e0:	0000001c 	andeq	r0, r0, ip, lsl r0
 2e4:	40f40002 	rscsmi	r0, r4, r2
 2e8:	00040000 	andeq	r0, r4, r0
 2ec:	00000000 	andeq	r0, r0, r0
 2f0:	0000a0bc 	strheq	sl, [r0], -ip
 2f4:	0000002c 	andeq	r0, r0, ip, lsr #32
	...
 300:	0000001c 	andeq	r0, r0, ip, lsl r0
 304:	42460002 	submi	r0, r6, #2, 0
 308:	00040000 	andeq	r0, r4, r0
 30c:	00000000 	andeq	r0, r0, r0
 310:	0000a0e8 	andeq	sl, r0, r8, ror #1
 314:	00000004 	andeq	r0, r0, r4
	...
 320:	0000001c 	andeq	r0, r0, ip, lsl r0
 324:	43180002 	tstmi	r8, #2, 0
 328:	00040000 	andeq	r0, r4, r0
 32c:	00000000 	andeq	r0, r0, r0
 330:	0000a104 	andeq	sl, r0, r4, lsl #2
 334:	0000011c 	andeq	r0, r0, ip, lsl r1
	...

Disassembly of section .debug_line:

00000000 <.debug_line>:
       0:	000001d1 	ldrdeq	r0, [r0], -r1
       4:	01b10003 			; <UNDEFINED> instruction: 0x01b10003
       8:	01020000 	mrseq	r0, (UNDEF: 2)
       c:	000d0efb 	strdeq	r0, [sp], -fp
      10:	01010101 	tsteq	r1, r1, lsl #2
      14:	01000000 	mrseq	r0, (UNDEF: 0)
      18:	2f010000 	svccs	0x00010000
      1c:	72657355 	rsbvc	r7, r5, #1409286145	; 0x54000001
      20:	616a2f73 	smcvs	41715	; 0xa2f3
      24:	2f65696d 	svccs	0x0065696d
      28:	75636f44 	strbvc	r6, [r3, #-3908]!	; 0xfffff0bc
      2c:	746e656d 	strbtvc	r6, [lr], #-1389	; 0xfffffa93
      30:	53432f73 	movtpl	r2, #16243	; 0x3f73
      34:	45303431 	ldrmi	r3, [r0, #-1073]!	; 0xfffffbcf
      38:	3173632f 	cmncc	r3, pc, lsr #6
      3c:	2d453034 	stclcs	0, cr3, [r5, #-208]	; 0xffffff30
      40:	616e6966 	cmnvs	lr, r6, ror #18
      44:	72702d6c 	rsbsvc	r2, r0, #108, 26	; 0x1b00
      48:	63656a6f 	cmnvs	r5, #454656	; 0x6f000
      4c:	696c2f74 	stmdbvs	ip!, {r2, r4, r5, r6, r8, r9, sl, fp, sp}^
      50:	322d7362 	eorcc	r7, sp, #-2013265919	; 0x88000001
      54:	786c3034 	stmdavc	ip!, {r2, r4, r5, ip, sp}^
      58:	62696c2f 	rsbvs	r6, r9, #12032	; 0x2f00
      5c:	692f6970 	stmdbvs	pc!, {r4, r5, r6, r8, fp, sp, lr}	; <UNPREDICTABLE>
      60:	756c636e 	strbvc	r6, [ip, #-878]!	; 0xfffffc92
      64:	2f006564 	svccs	0x00006564
      68:	2f727375 	svccs	0x00727375
      6c:	61636f6c 	cmnvs	r3, ip, ror #30
      70:	65432f6c 	strbvs	r2, [r3, #-3948]	; 0xfffff094
      74:	72616c6c 	rsbvc	r6, r1, #108, 24	; 0x6c00
      78:	6d72612f 	ldfvse	f6, [r2, #-188]!	; 0xffffff44
      7c:	6e6f6e2d 	cdpvs	14, 6, cr6, cr15, cr13, {1}
      80:	61652d65 	cmnvs	r5, r5, ror #26
      84:	742d6962 	strtvc	r6, [sp], #-2402	; 0xfffff69e
      88:	2f747365 	svccs	0x00747365
      8c:	30322d39 	eorscc	r2, r2, r9, lsr sp
      90:	34713931 	ldrbtcc	r3, [r1], #-2353	; 0xfffff6cf
      94:	3173632d 	cmncc	r3, sp, lsr #6
      98:	2f653730 	svccs	0x00653730
      9c:	2f62696c 	svccs	0x0062696c
      a0:	2f636367 	svccs	0x00636367
      a4:	2d6d7261 	sfmcs	f7, 2, [sp, #-388]!	; 0xfffffe7c
      a8:	656e6f6e 	strbvs	r6, [lr, #-3950]!	; 0xfffff092
      ac:	6261652d 	rsbvs	r6, r1, #188743680	; 0xb400000
      b0:	2e392f69 	cdpcs	15, 3, cr2, cr9, cr9, {3}
      b4:	2f312e32 	svccs	0x00312e32
      b8:	6c636e69 	stclvs	14, cr6, [r3], #-420	; 0xfffffe5c
      bc:	00656475 	rsbeq	r6, r5, r5, ror r4
      c0:	6573552f 	ldrbvs	r5, [r3, #-1327]!	; 0xfffffad1
      c4:	6a2f7372 	bvs	bdce94 <__bss_end__+0xbd257c>
      c8:	65696d61 	strbvs	r6, [r9, #-3425]!	; 0xfffff29f
      cc:	636f442f 	cmnvs	pc, #788529152	; 0x2f000000
      d0:	6e656d75 	mcrvs	13, 3, r6, cr5, cr5, {3}
      d4:	432f7374 			; <UNDEFINED> instruction: 0x432f7374
      d8:	30343153 	eorscc	r3, r4, r3, asr r1
      dc:	73632f45 	cmnvc	r3, #276	; 0x114
      e0:	45303431 	ldrmi	r3, [r0, #-1073]!	; 0xfffffbcf
      e4:	6e69662d 	cdpvs	6, 6, cr6, cr9, cr13, {1}
      e8:	702d6c61 	eorvc	r6, sp, r1, ror #24
      ec:	656a6f72 	strbvs	r6, [sl, #-3954]!	; 0xfffff08e
      f0:	6c2f7463 	cfstrsvs	mvf7, [pc], #-396	; ffffff6c <__bss_end__+0xffff5654>
      f4:	2d736269 	lfmcs	f6, 2, [r3, #-420]!	; 0xfffffe5c
      f8:	6c303432 	cfldrsvs	mvf3, [r0], #-200	; 0xffffff38
      fc:	696c2f78 	stmdbvs	ip!, {r3, r4, r5, r6, r8, r9, sl, fp, sp}^
     100:	2f697062 	svccs	0x00697062
     104:	6d62696c 			; <UNDEFINED> instruction: 0x6d62696c
     108:	636e692f 	cmnvs	lr, #770048	; 0xbc000
     10c:	6564756c 	strbvs	r7, [r4, #-1388]!	; 0xfffffa94
     110:	73552f00 	cmpvc	r5, #0, 30
     114:	2f737265 	svccs	0x00737265
     118:	696d616a 	stmdbvs	sp!, {r1, r3, r5, r6, r8, sp, lr}^
     11c:	6f442f65 	svcvs	0x00442f65
     120:	656d7563 	strbvs	r7, [sp, #-1379]!	; 0xfffffa9d
     124:	2f73746e 	svccs	0x0073746e
     128:	34315343 	ldrtcc	r5, [r1], #-835	; 0xfffffcbd
     12c:	632f4530 			; <UNDEFINED> instruction: 0x632f4530
     130:	30343173 	eorscc	r3, r4, r3, ror r1
     134:	69662d45 	stmdbvs	r6!, {r0, r2, r6, r8, sl, fp, sp}^
     138:	2d6c616e 	stfcse	f6, [ip, #-440]!	; 0xfffffe48
     13c:	6a6f7270 	bvs	1bdcb04 <__bss_end__+0x1bd21ec>
     140:	2f746365 	svccs	0x00746365
     144:	7362696c 	cmnvc	r2, #108, 18	; 0x1b0000
     148:	3034322d 	eorscc	r3, r4, sp, lsr #4
     14c:	6c2f786c 	stcvs	8, cr7, [pc], #-432	; ffffffa4 <__bss_end__+0xffff568c>
     150:	69706269 	ldmdbvs	r0!, {r0, r3, r5, r6, r9, sp, lr}^
     154:	62696c2f 	rsbvs	r6, r9, #12032	; 0x2f00
     158:	6600006d 	strvs	r0, [r0], -sp, rrx
     15c:	74616f6c 	strbtvc	r6, [r1], #-3948	; 0xfffff094
     160:	0000632e 	andeq	r6, r0, lr, lsr #6
     164:	70720000 	rsbsvc	r0, r2, r0
     168:	00682e69 	rsbeq	r2, r8, r9, ror #28
     16c:	73000001 	movwvc	r0, #1
     170:	6e696474 	mcrvs	4, 3, r6, cr9, cr4, {3}
     174:	63672d74 	cmnvs	r7, #116, 26	; 0x1d00
     178:	00682e63 	rsbeq	r2, r8, r3, ror #28
     17c:	6f000002 	svcvs	0x00000002
     180:	6c6e6570 	cfstr64vs	mvdx6, [lr], #-448	; 0xfffffe40
     184:	5f6d6269 	svcpl	0x006d6269
     188:	766e6566 	strbtvc	r6, [lr], -r6, ror #10
     18c:	6d72615f 	ldfvse	f6, [r2, #-380]!	; 0xfffffe84
     190:	0300682e 	movweq	r6, #2094	; 0x82e
     194:	706f0000 	rsbvc	r0, pc, r0
     198:	696c6e65 	stmdbvs	ip!, {r0, r2, r5, r6, r9, sl, fp, sp, lr}^
     19c:	6d5f6d62 	ldclvs	13, cr6, [pc, #-392]	; 1c <__code_start__-0x7fe4>
     1a0:	2e687461 	cdpcs	4, 6, cr7, cr8, cr1, {3}
     1a4:	00030068 	andeq	r0, r3, r8, rrx
     1a8:	74616d00 	strbtvc	r6, [r1], #-3328	; 0xfffff300
     1ac:	72702d68 	rsbsvc	r2, r0, #104, 26	; 0x1a00
     1b0:	736f746f 	cmnvc	pc, #1862270976	; 0x6f000000
     1b4:	0400682e 	streq	r6, [r0], #-2094	; 0xfffff7d2
     1b8:	05000000 	streq	r0, [r0, #-0]
     1bc:	02050014 	andeq	r0, r5, #20, 0
     1c0:	000080d8 	ldrdeq	r8, [r0], -r8	; <UNPREDICTABLE>
     1c4:	4b050518 	blmi	14162c <__bss_end__+0x136d14>
     1c8:	d7bb4c4e 	ldrle	r4, [fp, lr, asr #24]!
     1cc:	d7060105 	strle	r0, [r6, -r5, lsl #2]
     1d0:	01001002 	tsteq	r0, r2
     1d4:	0001c001 	andeq	ip, r1, r1
     1d8:	0f000300 	svceq	0x00000300
     1dc:	02000001 	andeq	r0, r0, #1, 0
     1e0:	0d0efb01 	vstreq	d15, [lr, #-4]
     1e4:	01010100 	mrseq	r0, (UNDEF: 17)
     1e8:	00000001 	andeq	r0, r0, r1
     1ec:	01000001 	tsteq	r0, r1
     1f0:	6573552f 	ldrbvs	r5, [r3, #-1327]!	; 0xfffffad1
     1f4:	6a2f7372 	bvs	bdcfc4 <__bss_end__+0xbd26ac>
     1f8:	65696d61 	strbvs	r6, [r9, #-3425]!	; 0xfffff29f
     1fc:	636f442f 	cmnvs	pc, #788529152	; 0x2f000000
     200:	6e656d75 	mcrvs	13, 3, r6, cr5, cr5, {3}
     204:	432f7374 			; <UNDEFINED> instruction: 0x432f7374
     208:	30343153 	eorscc	r3, r4, r3, asr r1
     20c:	73632f45 	cmnvc	r3, #276	; 0x114
     210:	45303431 	ldrmi	r3, [r0, #-1073]!	; 0xfffffbcf
     214:	6e69662d 	cdpvs	6, 6, cr6, cr9, cr13, {1}
     218:	702d6c61 	eorvc	r6, sp, r1, ror #24
     21c:	656a6f72 	strbvs	r6, [sl, #-3954]!	; 0xfffff08e
     220:	6c2f7463 	cfstrsvs	mvf7, [pc], #-396	; 9c <__code_start__-0x7f64>
     224:	2d736269 	lfmcs	f6, 2, [r3, #-420]!	; 0xfffffe5c
     228:	6c303432 	cfldrsvs	mvf3, [r0], #-200	; 0xffffff38
     22c:	696c2f78 	stmdbvs	ip!, {r3, r4, r5, r6, r8, r9, sl, fp, sp}^
     230:	2f697062 	svccs	0x00697062
     234:	6d62696c 			; <UNDEFINED> instruction: 0x6d62696c
     238:	636e692f 	cmnvs	lr, #770048	; 0xbc000
     23c:	6564756c 	strbvs	r7, [r4, #-1388]!	; 0xfffffa94
     240:	73752f00 	cmnvc	r5, #0, 30
     244:	6f6c2f72 	svcvs	0x006c2f72
     248:	2f6c6163 	svccs	0x006c6163
     24c:	6c6c6543 	cfstr64vs	mvdx6, [ip], #-268	; 0xfffffef4
     250:	612f7261 			; <UNDEFINED> instruction: 0x612f7261
     254:	6e2d6d72 	mcrvs	13, 1, r6, cr13, cr2, {3}
     258:	2d656e6f 	stclcs	14, cr6, [r5, #-444]!	; 0xfffffe44
     25c:	69626165 	stmdbvs	r2!, {r0, r2, r5, r6, r8, sp, lr}^
     260:	7365742d 	cmnvc	r5, #754974720	; 0x2d000000
     264:	2d392f74 	ldccs	15, cr2, [r9, #-464]!	; 0xfffffe30
     268:	39313032 	ldmdbcc	r1!, {r1, r4, r5, ip, sp}
     26c:	632d3471 			; <UNDEFINED> instruction: 0x632d3471
     270:	37303173 			; <UNDEFINED> instruction: 0x37303173
     274:	696c2f65 	stmdbvs	ip!, {r0, r2, r5, r6, r8, r9, sl, fp, sp}^
     278:	63672f62 	cmnvs	r7, #392	; 0x188
     27c:	72612f63 	rsbvc	r2, r1, #396	; 0x18c
     280:	6f6e2d6d 	svcvs	0x006e2d6d
     284:	652d656e 	strvs	r6, [sp, #-1390]!	; 0xfffffa92
     288:	2f696261 	svccs	0x00696261
     28c:	2e322e39 	mrccs	14, 1, r2, cr2, cr9, {1}
     290:	6e692f31 	mcrvs	15, 3, r2, cr9, cr1, {1}
     294:	64756c63 	ldrbtvs	r6, [r5], #-3171	; 0xfffff39d
     298:	73000065 	movwvc	r0, #101	; 0x65
     29c:	736f635f 	cmnvc	pc, #2080374785	; 0x7c000001
     2a0:	0000632e 	andeq	r6, r0, lr, lsr #6
     2a4:	706f0000 	rsbvc	r0, pc, r0
     2a8:	696c6e65 	stmdbvs	ip!, {r0, r2, r5, r6, r9, sl, fp, sp, lr}^
     2ac:	6d5f6d62 	ldclvs	13, cr6, [pc, #-392]	; 12c <__code_start__-0x7ed4>
     2b0:	2e687461 	cdpcs	4, 6, cr7, cr8, cr1, {3}
     2b4:	00010068 	andeq	r0, r1, r8, rrx
     2b8:	64747300 	ldrbtvs	r7, [r4], #-768	; 0xfffffd00
     2bc:	2d746e69 	ldclcs	14, cr6, [r4, #-420]!	; 0xfffffe5c
     2c0:	2e636367 	cdpcs	3, 6, cr6, cr3, cr7, {3}
     2c4:	00020068 	andeq	r0, r2, r8, rrx
     2c8:	70797400 	rsbsvc	r7, r9, r0, lsl #8
     2cc:	632d7365 			; <UNDEFINED> instruction: 0x632d7365
     2d0:	61706d6f 	cmnvs	r0, pc, ror #26
     2d4:	00682e74 	rsbeq	r2, r8, r4, ror lr
     2d8:	6d000000 	stcvs	0, cr0, [r0, #-0]
     2dc:	5f687461 	svcpl	0x00687461
     2e0:	76697270 			; <UNDEFINED> instruction: 0x76697270
     2e4:	2e657461 	cdpcs	4, 6, cr7, cr5, cr1, {3}
     2e8:	00000068 	andeq	r0, r0, r8, rrx
     2ec:	01050000 	mrseq	r0, (UNDEF: 5)
     2f0:	60020500 	andvs	r0, r2, r0, lsl #10
     2f4:	03000081 	movweq	r0, #129	; 0x81
     2f8:	01060137 	tsteq	r6, r7, lsr r1
     2fc:	4b060205 	blmi	180b18 <__bss_end__+0x176200>
     300:	01011513 	tsteq	r1, r3, lsl r5
     304:	062e0601 	strteq	r0, [lr], -r1, lsl #12
     308:	05051501 	streq	r1, [r5, #-1281]	; 0xfffffaff
     30c:	02050106 	andeq	r0, r5, #-2147483647	; 0x80000001
     310:	04052f06 	streq	r2, [r5], #-3846	; 0xfffff0fa
     314:	06050106 	streq	r0, [r5], -r6, lsl #2
     318:	08056706 	stmdaeq	r5, {r1, r2, r8, r9, sl, sp, lr}
     31c:	03050106 	movweq	r0, #20742	; 0x5106
     320:	07056706 	streq	r6, [r5, -r6, lsl #14]
     324:	05050106 	streq	r0, [r5, #-262]	; 0xfffffefa
     328:	0606054a 	streq	r0, [r6], -sl, asr #10
     32c:	060d054b 	streq	r0, [sp], -fp, asr #10
     330:	03010501 	movweq	r0, #5377	; 0x1501
     334:	07054a11 	smladeq	r5, r1, sl, r4
     338:	4a730306 	bmi	1cc0f58 <__bss_end__+0x1cb6640>
     33c:	01060a05 	tsteq	r6, r5, lsl #20
     340:	02001b05 	andeq	r1, r0, #5120	; 0x1400
     344:	4a060104 	bmi	18075c <__bss_end__+0x175e44>
     348:	02002305 	andeq	r2, r0, #335544320	; 0x14000000
     34c:	01060104 	tsteq	r6, r4, lsl #2
     350:	01040200 	mrseq	r0, R12_usr
     354:	0606052e 	streq	r0, [r6], -lr, lsr #10
     358:	060a0532 			; <UNDEFINED> instruction: 0x060a0532
     35c:	06060501 	streq	r0, [r6], -r1, lsl #10
     360:	060e054b 	streq	r0, [lr], -fp, asr #10
     364:	2e060501 	cfsh32cs	mvfx0, mvfx6, #1
     368:	bf060b05 	svclt	0x00060b05
     36c:	01061305 	tsteq	r6, r5, lsl #6
     370:	9a060b05 	bls	182f8c <__bss_end__+0x178674>
     374:	01061305 	tsteq	r6, r5, lsl #6
     378:	83060b05 	movwhi	r0, #27397	; 0x6b05
     37c:	01061305 	tsteq	r6, r5, lsl #6
     380:	05821205 	streq	r1, [r2, #517]	; 0x205
     384:	054b060b 	strbeq	r0, [fp, #-1547]	; 0xfffff9f5
     388:	05010613 	streq	r0, [r1, #-1555]	; 0xfffff9ed
     38c:	1a056612 	bne	159bdc <__bss_end__+0x14f2c4>
     390:	2e4a7303 	cdpcs	3, 4, cr7, cr10, cr3, {0}
     394:	01001202 	tsteq	r0, r2, lsl #4
     398:	0000ec01 	andeq	lr, r0, r1, lsl #24
     39c:	82000300 	andhi	r0, r0, #0, 6
     3a0:	02000000 	andeq	r0, r0, #0, 0
     3a4:	0d0efb01 	vstreq	d15, [lr, #-4]
     3a8:	01010100 	mrseq	r0, (UNDEF: 17)
     3ac:	00000001 	andeq	r0, r0, r1
     3b0:	01000001 	tsteq	r0, r1
     3b4:	6573552f 	ldrbvs	r5, [r3, #-1327]!	; 0xfffffad1
     3b8:	6a2f7372 	bvs	bdd188 <__bss_end__+0xbd2870>
     3bc:	65696d61 	strbvs	r6, [r9, #-3425]!	; 0xfffff29f
     3c0:	636f442f 	cmnvs	pc, #788529152	; 0x2f000000
     3c4:	6e656d75 	mcrvs	13, 3, r6, cr5, cr5, {3}
     3c8:	432f7374 			; <UNDEFINED> instruction: 0x432f7374
     3cc:	30343153 	eorscc	r3, r4, r3, asr r1
     3d0:	73632f45 	cmnvc	r3, #276	; 0x114
     3d4:	45303431 	ldrmi	r3, [r0, #-1073]!	; 0xfffffbcf
     3d8:	6e69662d 	cdpvs	6, 6, cr6, cr9, cr13, {1}
     3dc:	702d6c61 	eorvc	r6, sp, r1, ror #24
     3e0:	656a6f72 	strbvs	r6, [sl, #-3954]!	; 0xfffff08e
     3e4:	6c2f7463 	cfstrsvs	mvf7, [pc], #-396	; 260 <__code_start__-0x7da0>
     3e8:	2d736269 	lfmcs	f6, 2, [r3, #-420]!	; 0xfffffe5c
     3ec:	6c303432 	cfldrsvs	mvf3, [r0], #-200	; 0xffffff38
     3f0:	696c2f78 	stmdbvs	ip!, {r3, r4, r5, r6, r8, r9, sl, fp, sp}^
     3f4:	2f697062 	svccs	0x00697062
     3f8:	6d62696c 			; <UNDEFINED> instruction: 0x6d62696c
     3fc:	636e692f 	cmnvs	lr, #770048	; 0xbc000
     400:	6564756c 	strbvs	r7, [r4, #-1388]!	; 0xfffffa94
     404:	5f6b0000 	svcpl	0x006b0000
     408:	2e736f63 	cdpcs	15, 7, cr6, cr3, cr3, {3}
     40c:	00000063 	andeq	r0, r0, r3, rrx
     410:	65706f00 	ldrbvs	r6, [r0, #-3840]!	; 0xfffff100
     414:	62696c6e 	rsbvs	r6, r9, #28160	; 0x6e00
     418:	616d5f6d 	cmnvs	sp, sp, ror #30
     41c:	682e6874 	stmdavs	lr!, {r2, r4, r5, r6, fp, sp, lr}
     420:	00000100 	andeq	r0, r0, r0, lsl #2
     424:	00010500 	andeq	r0, r1, r0, lsl #10
     428:	82580205 	subshi	r0, r8, #1342177280	; 0x50000000
     42c:	c6030000 	strgt	r0, [r3], -r0
     430:	02050100 	andeq	r0, r5, #0
     434:	05051413 	streq	r1, [r5, #-1043]	; 0xfffffbed
     438:	02050106 	andeq	r0, r5, #-2147483647	; 0x80000001
     43c:	05052f06 	streq	r2, [r5, #-3846]	; 0xfffff0fa
     440:	02050106 	andeq	r0, r5, #-2147483647	; 0x80000001
     444:	12052f06 	andne	r2, r5, #6, 30
     448:	0c050106 	stfeqs	f0, [r5], {6}
     44c:	4a1d0566 	bmi	7419ec <__bss_end__+0x7370d4>
     450:	2e2e2905 	vmulcs.f16	s4, s28, s10	; <UNPREDICTABLE>
     454:	054a2305 	strbeq	r2, [sl, #-773]	; 0xfffffcfb
     458:	05054a1f 	streq	r4, [r5, #-2591]	; 0xfffff5e1
     45c:	0602052e 	streq	r0, [r2], -lr, lsr #10
     460:	0605052f 	streq	r0, [r5], -pc, lsr #10
     464:	06020501 	streq	r0, [r2], -r1, lsl #10
     468:	0605054b 	streq	r0, [r5], -fp, asr #10
     46c:	06020501 	streq	r0, [r2], -r1, lsl #10
     470:	0613054b 	ldreq	r0, [r3], -fp, asr #10
     474:	2e160501 	cfmul32cs	mvfx0, mvfx6, mvfx1
     478:	052e2305 	streq	r2, [lr, #-773]!	; 0xfffffcfb
     47c:	1b052e21 	blne	14bd08 <__bss_end__+0x1413f0>
     480:	2f01052e 	svccs	0x0001052e
     484:	01002402 	tsteq	r0, r2, lsl #8
     488:	00010201 	andeq	r0, r1, r1, lsl #4
     48c:	82000300 	andhi	r0, r0, #0, 6
     490:	02000000 	andeq	r0, r0, #0, 0
     494:	0d0efb01 	vstreq	d15, [lr, #-4]
     498:	01010100 	mrseq	r0, (UNDEF: 17)
     49c:	00000001 	andeq	r0, r0, r1
     4a0:	01000001 	tsteq	r0, r1
     4a4:	6573552f 	ldrbvs	r5, [r3, #-1327]!	; 0xfffffad1
     4a8:	6a2f7372 	bvs	bdd278 <__bss_end__+0xbd2960>
     4ac:	65696d61 	strbvs	r6, [r9, #-3425]!	; 0xfffff29f
     4b0:	636f442f 	cmnvs	pc, #788529152	; 0x2f000000
     4b4:	6e656d75 	mcrvs	13, 3, r6, cr5, cr5, {3}
     4b8:	432f7374 			; <UNDEFINED> instruction: 0x432f7374
     4bc:	30343153 	eorscc	r3, r4, r3, asr r1
     4c0:	73632f45 	cmnvc	r3, #276	; 0x114
     4c4:	45303431 	ldrmi	r3, [r0, #-1073]!	; 0xfffffbcf
     4c8:	6e69662d 	cdpvs	6, 6, cr6, cr9, cr13, {1}
     4cc:	702d6c61 	eorvc	r6, sp, r1, ror #24
     4d0:	656a6f72 	strbvs	r6, [sl, #-3954]!	; 0xfffff08e
     4d4:	6c2f7463 	cfstrsvs	mvf7, [pc], #-396	; 350 <__code_start__-0x7cb0>
     4d8:	2d736269 	lfmcs	f6, 2, [r3, #-420]!	; 0xfffffe5c
     4dc:	6c303432 	cfldrsvs	mvf3, [r0], #-200	; 0xffffff38
     4e0:	696c2f78 	stmdbvs	ip!, {r3, r4, r5, r6, r8, r9, sl, fp, sp}^
     4e4:	2f697062 	svccs	0x00697062
     4e8:	6d62696c 			; <UNDEFINED> instruction: 0x6d62696c
     4ec:	636e692f 	cmnvs	lr, #770048	; 0xbc000
     4f0:	6564756c 	strbvs	r7, [r4, #-1388]!	; 0xfffffa94
     4f4:	5f6b0000 	svcpl	0x006b0000
     4f8:	2e6e6973 			; <UNDEFINED> instruction: 0x2e6e6973
     4fc:	00000063 	andeq	r0, r0, r3, rrx
     500:	65706f00 	ldrbvs	r6, [r0, #-3840]!	; 0xfffff100
     504:	62696c6e 	rsbvs	r6, r9, #28160	; 0x6e00
     508:	616d5f6d 	cmnvs	sp, sp, ror #30
     50c:	682e6874 	stmdavs	lr!, {r2, r4, r5, r6, fp, sp, lr}
     510:	00000100 	andeq	r0, r0, r0, lsl #2
     514:	00010500 	andeq	r0, r1, r0, lsl #10
     518:	83000205 	movwhi	r0, #517	; 0x205
     51c:	3d030000 	stccc	0, cr0, [r3, #-0]
     520:	13020501 	movwne	r0, #9473	; 0x2501
     524:	06040514 			; <UNDEFINED> instruction: 0x06040514
     528:	06020501 	streq	r0, [r2], -r1, lsl #10
     52c:	0604052f 	streq	r0, [r4], -pc, lsr #10
     530:	06020501 	streq	r0, [r2], -r1, lsl #10
     534:	060f052f 	streq	r0, [pc], -pc, lsr #10
     538:	66090501 	strvs	r0, [r9], -r1, lsl #10
     53c:	054a1905 	strbeq	r1, [sl, #-2309]	; 0xfffff6fb
     540:	04052e1f 	streq	r2, [r5], #-3615	; 0xfffff1e1
     544:	06020566 	streq	r0, [r2], -r6, ror #10
     548:	0604052f 	streq	r0, [r4], -pc, lsr #10
     54c:	06020501 	streq	r0, [r2], -r1, lsl #10
     550:	0604052f 	streq	r0, [r4], -pc, lsr #10
     554:	000c0501 	andeq	r0, ip, r1, lsl #10
     558:	06010402 	streq	r0, [r1], -r2, lsl #8
     55c:	001a054a 	andseq	r0, sl, sl, asr #10
     560:	06010402 	streq	r0, [r1], -r2, lsl #8
     564:	00140501 	andseq	r0, r4, r1, lsl #10
     568:	4a010402 	bmi	41578 <__bss_end__+0x36c60>
     56c:	01040200 	mrseq	r0, R12_usr
     570:	060c052e 	streq	r0, [ip], -lr, lsr #10
     574:	0622052f 	strteq	r0, [r2], -pc, lsr #10
     578:	2e200501 	cfsh64cs	mvdx0, mvdx0, #1
     57c:	2e25052e 	cfsh64cs	mvdx0, mvdx5, #30
     580:	2e2e2805 	cdpcs	8, 2, cr2, cr14, cr5, {0}
     584:	052e1405 	streq	r1, [lr, #-1029]!	; 0xfffffbfb
     588:	20022f01 	andcs	r2, r2, r1, lsl #30
     58c:	31010100 	mrscc	r0, (UNDEF: 17)
     590:	03000005 	movweq	r0, #5
     594:	00011400 	andeq	r1, r1, r0, lsl #8
     598:	fb010200 	blx	40da2 <__bss_end__+0x3648a>
     59c:	01000d0e 	tsteq	r0, lr, lsl #26
     5a0:	00010101 	andeq	r0, r1, r1, lsl #2
     5a4:	00010000 	andeq	r0, r1, r0
     5a8:	552f0100 	strpl	r0, [pc, #-256]!	; 4b0 <__code_start__-0x7b50>
     5ac:	73726573 	cmnvc	r2, #482344960	; 0x1cc00000
     5b0:	6d616a2f 	vstmdbvs	r1!, {s13-s59}
     5b4:	442f6569 	strtmi	r6, [pc], #-1385	; 5bc <__code_start__-0x7a44>
     5b8:	6d75636f 	ldclvs	3, cr6, [r5, #-444]!	; 0xfffffe44
     5bc:	73746e65 	cmnvc	r4, #1616	; 0x650
     5c0:	3153432f 	cmpcc	r3, pc, lsr #6
     5c4:	2f453034 	svccs	0x00453034
     5c8:	34317363 	ldrtcc	r7, [r1], #-867	; 0xfffffc9d
     5cc:	662d4530 			; <UNDEFINED> instruction: 0x662d4530
     5d0:	6c616e69 	stclvs	14, cr6, [r1], #-420	; 0xfffffe5c
     5d4:	6f72702d 	svcvs	0x0072702d
     5d8:	7463656a 	strbtvc	r6, [r3], #-1386	; 0xfffffa96
     5dc:	62696c2f 	rsbvs	r6, r9, #12032	; 0x2f00
     5e0:	34322d73 	ldrtcc	r2, [r2], #-3443	; 0xfffff28d
     5e4:	2f786c30 	svccs	0x00786c30
     5e8:	7062696c 	rsbvc	r6, r2, ip, ror #18
     5ec:	696c2f69 	stmdbvs	ip!, {r0, r3, r5, r6, r8, r9, sl, fp, sp}^
     5f0:	692f6d62 	stmdbvs	pc!, {r1, r5, r6, r8, sl, fp, sp, lr}	; <UNPREDICTABLE>
     5f4:	756c636e 	strbvc	r6, [ip, #-878]!	; 0xfffffc92
     5f8:	2f006564 	svccs	0x00006564
     5fc:	2f727375 	svccs	0x00727375
     600:	61636f6c 	cmnvs	r3, ip, ror #30
     604:	65432f6c 	strbvs	r2, [r3, #-3948]	; 0xfffff094
     608:	72616c6c 	rsbvc	r6, r1, #108, 24	; 0x6c00
     60c:	6d72612f 	ldfvse	f6, [r2, #-188]!	; 0xffffff44
     610:	6e6f6e2d 	cdpvs	14, 6, cr6, cr15, cr13, {1}
     614:	61652d65 	cmnvs	r5, r5, ror #26
     618:	742d6962 	strtvc	r6, [sp], #-2402	; 0xfffff69e
     61c:	2f747365 	svccs	0x00747365
     620:	30322d39 	eorscc	r2, r2, r9, lsr sp
     624:	34713931 	ldrbtcc	r3, [r1], #-2353	; 0xfffff6cf
     628:	3173632d 	cmncc	r3, sp, lsr #6
     62c:	2f653730 	svccs	0x00653730
     630:	2f62696c 	svccs	0x0062696c
     634:	2f636367 	svccs	0x00636367
     638:	2d6d7261 	sfmcs	f7, 2, [sp, #-388]!	; 0xfffffe7c
     63c:	656e6f6e 	strbvs	r6, [lr, #-3950]!	; 0xfffff092
     640:	6261652d 	rsbvs	r6, r1, #188743680	; 0xb400000
     644:	2e392f69 	cdpcs	15, 3, cr2, cr9, cr9, {3}
     648:	2f312e32 	svccs	0x00312e32
     64c:	6c636e69 	stclvs	14, cr6, [r3], #-420	; 0xfffffe5c
     650:	00656475 	rsbeq	r6, r5, r5, ror r4
     654:	725f6500 	subsvc	r6, pc, #0, 10
     658:	705f6d65 	subsvc	r6, pc, r5, ror #26
     65c:	2e326f69 	cdpcs	15, 3, cr6, cr2, cr9, {3}
     660:	00000063 	andeq	r0, r0, r3, rrx
     664:	65706f00 	ldrbvs	r6, [r0, #-3840]!	; 0xfffff100
     668:	62696c6e 	rsbvs	r6, r9, #28160	; 0x6e00
     66c:	616d5f6d 	cmnvs	sp, sp, ror #30
     670:	682e6874 	stmdavs	lr!, {r2, r4, r5, r6, fp, sp, lr}
     674:	00000100 	andeq	r0, r0, r0, lsl #2
     678:	69647473 	stmdbvs	r4!, {r0, r1, r4, r5, r6, sl, ip, sp, lr}^
     67c:	672d746e 	strvs	r7, [sp, -lr, ror #8]!
     680:	682e6363 	stmdavs	lr!, {r0, r1, r5, r6, r8, r9, sp, lr}
     684:	00000200 	andeq	r0, r0, r0, lsl #4
     688:	65707974 	ldrbvs	r7, [r0, #-2420]!	; 0xfffff68c
     68c:	6f632d73 	svcvs	0x00632d73
     690:	7461706d 	strbtvc	r7, [r1], #-109	; 0xffffff93
     694:	0000682e 	andeq	r6, r0, lr, lsr #16
     698:	616d0000 	cmnvs	sp, r0
     69c:	705f6874 	subsvc	r6, pc, r4, ror r8	; <UNPREDICTABLE>
     6a0:	61766972 	cmnvs	r6, r2, ror r9
     6a4:	682e6574 	stmdavs	lr!, {r2, r4, r5, r6, r8, sl, sp, lr}
     6a8:	00000000 	andeq	r0, r0, r0
     6ac:	00010500 	andeq	r0, r1, r0, lsl #10
     6b0:	83a80205 			; <UNDEFINED> instruction: 0x83a80205
     6b4:	34030000 	strcc	r0, [r3], #-0
     6b8:	05010601 	streq	r0, [r1, #-1537]	; 0xfffff9ff
     6bc:	13670602 	cmnne	r7, #2097152	; 0x200000
     6c0:	01141313 	tsteq	r4, r3, lsl r3
     6c4:	2e060101 	adfcss	f0, f6, f1
     6c8:	05130106 	ldreq	r0, [r3, #-262]	; 0xfffffefa
     6cc:	05010605 	streq	r0, [r1, #-1541]	; 0xfffff9fb
     6d0:	05330602 	ldreq	r0, [r3, #-1538]!	; 0xfffff9fe
     6d4:	05010605 	streq	r0, [r1, #-1541]	; 0xfffff9fb
     6d8:	05670606 	strbeq	r0, [r7, #-1542]!	; 0xfffff9fa
     6dc:	0501060e 	streq	r0, [r1, #-1550]	; 0xfffff9f2
     6e0:	06054a09 	streq	r4, [r5], -r9, lsl #20
     6e4:	09056806 	stmdbeq	r5, {r1, r2, fp, sp, lr}
     6e8:	03050106 	movweq	r0, #20742	; 0x5106
     6ec:	06056706 	streq	r6, [r5], -r6, lsl #14
     6f0:	07050106 	streq	r0, [r5, -r6, lsl #2]
     6f4:	09054b06 	stmdbeq	r5, {r1, r2, r8, r9, fp, lr}
     6f8:	07050106 	streq	r0, [r5, -r6, lsl #2]
     6fc:	10054b06 	andne	r4, r5, r6, lsl #22
     700:	0c050106 	stfeqs	f0, [r5], {6}
     704:	0607054a 	streq	r0, [r7], -sl, asr #10
     708:	0610052f 	ldreq	r0, [r0], -pc, lsr #10
     70c:	2e160501 	cfmul32cs	mvfx0, mvfx6, mvfx1
     710:	052e0c05 	streq	r0, [lr, #-3077]!	; 0xfffff3fb
     714:	052f0607 	streq	r0, [pc, #-1543]!	; 115 <__code_start__-0x7eeb>
     718:	0501060e 	streq	r0, [r1, #-1550]	; 0xfffff9f2
     71c:	00ee0301 	rsceq	r0, lr, r1, lsl #6
     720:	0607052e 	streq	r0, [r7], -lr, lsr #10
     724:	4a7f9403 	bmi	1fe5738 <__bss_end__+0x1fdae20>
     728:	01060905 	tsteq	r6, r5, lsl #18
     72c:	4b060705 	blmi	182348 <__bss_end__+0x177a30>
     730:	01061005 	tsteq	r6, r5
     734:	054a0c05 	strbeq	r0, [sl, #-3077]	; 0xfffff3fb
     738:	052f0607 	streq	r0, [pc, #-1543]!	; 139 <__code_start__-0x7ec7>
     73c:	05010610 	streq	r0, [r1, #-1552]	; 0xfffff9f0
     740:	0c052e16 	stceq	14, cr2, [r5], {22}
     744:	0607052e 	streq	r0, [r7], -lr, lsr #10
     748:	060e052f 	streq	r0, [lr], -pc, lsr #10
     74c:	03052e01 	movweq	r2, #24065	; 0x5e01
     750:	06053106 	streq	r3, [r5], -r6, lsl #2
     754:	07050106 	streq	r0, [r5, -r6, lsl #2]
     758:	09054b06 	stmdbeq	r5, {r1, r2, r8, r9, fp, lr}
     75c:	07050106 	streq	r0, [r5, -r6, lsl #2]
     760:	10054b06 	andne	r4, r5, r6, lsl #22
     764:	0c050106 	stfeqs	f0, [r5], {6}
     768:	0607054a 	streq	r0, [r7], -sl, asr #10
     76c:	0610052f 	ldreq	r0, [r0], -pc, lsr #10
     770:	2e160501 	cfmul32cs	mvfx0, mvfx6, mvfx1
     774:	052e0c05 	streq	r0, [lr, #-3077]!	; 0xfffff3fb
     778:	052f0607 	streq	r0, [pc, #-1543]!	; 179 <__code_start__-0x7e87>
     77c:	2e01060e 	cfmadd32cs	mvax0, mvfx0, mvfx1, mvfx14
     780:	30060705 	andcc	r0, r6, r5, lsl #14
     784:	01060905 	tsteq	r6, r5, lsl #18
     788:	4b060705 	blmi	1823a4 <__bss_end__+0x177a8c>
     78c:	01061005 	tsteq	r6, r5
     790:	054a0c05 	strbeq	r0, [sl, #-3077]	; 0xfffff3fb
     794:	052f0607 	streq	r0, [pc, #-1543]!	; 195 <__code_start__-0x7e6b>
     798:	05010610 	streq	r0, [r1, #-1552]	; 0xfffff9f0
     79c:	0c052e16 	stceq	14, cr2, [r5], {22}
     7a0:	0607052e 	streq	r0, [r7], -lr, lsr #10
     7a4:	060e052f 	streq	r0, [lr], -pc, lsr #10
     7a8:	02052e01 	andeq	r2, r5, #1, 28
     7ac:	05053206 	streq	r3, [r5, #-518]	; 0xfffffdfa
     7b0:	06050106 	streq	r0, [r5], -r6, lsl #2
     7b4:	09056706 	stmdbeq	r5, {r1, r2, r8, r9, sl, sp, lr}
     7b8:	03050106 	movweq	r0, #20742	; 0x5106
     7bc:	06056706 	streq	r6, [r5], -r6, lsl #14
     7c0:	03050106 	movweq	r0, #20742	; 0x5106
     7c4:	06058406 	streq	r8, [r5], -r6, lsl #8
     7c8:	07050106 	streq	r0, [r5, -r6, lsl #2]
     7cc:	09054b06 	stmdbeq	r5, {r1, r2, r8, r9, fp, lr}
     7d0:	07050106 	streq	r0, [r5, -r6, lsl #2]
     7d4:	10054b06 	andne	r4, r5, r6, lsl #22
     7d8:	0c050106 	stfeqs	f0, [r5], {6}
     7dc:	0607054a 	streq	r0, [r7], -sl, asr #10
     7e0:	0610052f 	ldreq	r0, [r0], -pc, lsr #10
     7e4:	2e160501 	cfmul32cs	mvfx0, mvfx6, mvfx1
     7e8:	052e0c05 	streq	r0, [lr, #-3077]!	; 0xfffff3fb
     7ec:	052f0607 	streq	r0, [pc, #-1543]!	; 1ed <__code_start__-0x7e13>
     7f0:	2e01060e 	cfmadd32cs	mvax0, mvfx0, mvfx1, mvfx14
     7f4:	30060705 	andcc	r0, r6, r5, lsl #14
     7f8:	01060905 	tsteq	r6, r5, lsl #18
     7fc:	4b060705 	blmi	182418 <__bss_end__+0x177b00>
     800:	01061005 	tsteq	r6, r5
     804:	054a0c05 	strbeq	r0, [sl, #-3077]	; 0xfffff3fb
     808:	052f0607 	streq	r0, [pc, #-1543]!	; 209 <__code_start__-0x7df7>
     80c:	05010610 	streq	r0, [r1, #-1552]	; 0xfffff9f0
     810:	0c052e16 	stceq	14, cr2, [r5], {22}
     814:	0607052e 	streq	r0, [r7], -lr, lsr #10
     818:	060e052f 	streq	r0, [lr], -pc, lsr #10
     81c:	03052e01 	movweq	r2, #24065	; 0x5e01
     820:	06053106 	streq	r3, [r5], -r6, lsl #2
     824:	03050106 	movweq	r0, #20742	; 0x5106
     828:	06056806 	streq	r6, [r5], -r6, lsl #16
     82c:	07050106 	streq	r0, [r5, -r6, lsl #2]
     830:	09054b06 	stmdbeq	r5, {r1, r2, r8, r9, fp, lr}
     834:	07050106 	streq	r0, [r5, -r6, lsl #2]
     838:	10054b06 	andne	r4, r5, r6, lsl #22
     83c:	0c050106 	stfeqs	f0, [r5], {6}
     840:	0607054a 	streq	r0, [r7], -sl, asr #10
     844:	0610052f 	ldreq	r0, [r0], -pc, lsr #10
     848:	2e160501 	cfmul32cs	mvfx0, mvfx6, mvfx1
     84c:	052e0c05 	streq	r0, [lr, #-3077]!	; 0xfffff3fb
     850:	052f0607 	streq	r0, [pc, #-1543]!	; 251 <__code_start__-0x7daf>
     854:	2e01060e 	cfmadd32cs	mvax0, mvfx0, mvfx1, mvfx14
     858:	30060705 	andcc	r0, r6, r5, lsl #14
     85c:	01060905 	tsteq	r6, r5, lsl #18
     860:	4b060705 	blmi	18247c <__bss_end__+0x177b64>
     864:	01061005 	tsteq	r6, r5
     868:	054a0c05 	strbeq	r0, [sl, #-3077]	; 0xfffff3fb
     86c:	052f0607 	streq	r0, [pc, #-1543]!	; 26d <__code_start__-0x7d93>
     870:	05010610 	streq	r0, [r1, #-1552]	; 0xfffff9f0
     874:	0c052e16 	stceq	14, cr2, [r5], {22}
     878:	0607052e 	streq	r0, [r7], -lr, lsr #10
     87c:	060e052f 	streq	r0, [lr], -pc, lsr #10
     880:	02052e01 	andeq	r2, r5, #1, 28
     884:	04053206 	streq	r3, [r5], #-518	; 0xfffffdfa
     888:	02050106 	andeq	r0, r5, #-2147483647	; 0x80000001
     88c:	66290306 	strtvs	r0, [r9], -r6, lsl #6
     890:	01060405 	tsteq	r6, r5, lsl #8
     894:	6a060205 	bvs	1810b0 <__bss_end__+0x176798>
     898:	01010101 	tsteq	r1, r1, lsl #2
     89c:	060b0513 			; <UNDEFINED> instruction: 0x060b0513
     8a0:	2e060501 	cfsh32cs	mvfx0, mvfx6, #1
     8a4:	4b060205 	blmi	1810c0 <__bss_end__+0x1767a8>
     8a8:	2e2e0101 	sufcse	f0, f6, f1
     8ac:	062e0106 	strteq	r0, [lr], -r6, lsl #2
     8b0:	07051301 	streq	r1, [r5, -r1, lsl #6]
     8b4:	02050106 	andeq	r0, r5, #-2147483647	; 0x80000001
     8b8:	0606052e 	streq	r0, [r6], -lr, lsr #10
     8bc:	832e5303 			; <UNDEFINED> instruction: 0x832e5303
     8c0:	01060905 	tsteq	r6, r5, lsl #18
     8c4:	32060605 	andcc	r0, r6, #5242880	; 0x500000
     8c8:	01060905 	tsteq	r6, r5, lsl #18
     8cc:	4c060605 	stcmi	6, cr0, [r6], {5}
     8d0:	01060905 	tsteq	r6, r5, lsl #18
     8d4:	4b060605 	blmi	1820f0 <__bss_end__+0x1777d8>
     8d8:	01060905 	tsteq	r6, r5, lsl #18
     8dc:	4c060a05 			; <UNDEFINED> instruction: 0x4c060a05
     8e0:	060d0513 			; <UNDEFINED> instruction: 0x060d0513
     8e4:	060a0501 	streq	r0, [sl], -r1, lsl #10
     8e8:	0612052f 	ldreq	r0, [r2], -pc, lsr #10
     8ec:	2e0f0501 	cfsh32cs	mvfx0, mvfx15, #1
     8f0:	2f060305 	svccs	0x00060305
     8f4:	01010101 	tsteq	r1, r1, lsl #2
     8f8:	05130a05 	ldreq	r0, [r3, #-2565]	; 0xfffff5fb
     8fc:	05010616 	streq	r0, [r1, #-1558]	; 0xfffff9ea
     900:	0f054a1b 	svceq	0x00054a1b
     904:	060a054a 	streq	r0, [sl], -sl, asr #10
     908:	060c052f 	streq	r0, [ip], -pc, lsr #10
     90c:	06070501 	streq	r0, [r7], -r1, lsl #10
     910:	0a05134b 	beq	145644 <__bss_end__+0x13ad2c>
     914:	07050106 	streq	r0, [r5, -r6, lsl #2]
     918:	0a054b06 	beq	153538 <__bss_end__+0x148c20>
     91c:	07050106 	streq	r0, [r5, -r6, lsl #2]
     920:	1a052f06 	bne	14c540 <__bss_end__+0x141c28>
     924:	1d050106 	stfnes	f0, [r5, #-24]	; 0xffffffe8
     928:	2e0a052e 	cfsh32cs	mvfx0, mvfx10, #30
     92c:	0607052e 	streq	r0, [r7], -lr, lsr #10
     930:	060f052f 	streq	r0, [pc], -pc, lsr #10
     934:	2e0c0501 	cfsh32cs	mvfx0, mvfx12, #1
     938:	2f060705 	svccs	0x00060705
     93c:	01010101 	tsteq	r1, r1, lsl #2
     940:	06130513 			; <UNDEFINED> instruction: 0x06130513
     944:	18052e01 	stmdane	r5, {r0, r9, sl, fp, sp}
     948:	4a0c052e 	bmi	301e08 <__bss_end__+0x2f74f0>
     94c:	2f060705 	svccs	0x00060705
     950:	01060905 	tsteq	r6, r5, lsl #18
     954:	4b060805 	blmi	182970 <__bss_end__+0x178058>
     958:	060b0513 			; <UNDEFINED> instruction: 0x060b0513
     95c:	06080501 	streq	r0, [r8], -r1, lsl #10
     960:	060b054b 	streq	r0, [fp], -fp, asr #10
     964:	06080501 	streq	r0, [r8], -r1, lsl #10
     968:	061b052f 	ldreq	r0, [fp], -pc, lsr #10
     96c:	2e1e0501 	cfmul32cs	mvfx0, mvfx14, mvfx1
     970:	2e2e0b05 	vmulcs.f64	d0, d14, d5
     974:	2f060805 	svccs	0x00060805
     978:	01061005 	tsteq	r6, r5
     97c:	2e2e0d05 	cdpcs	13, 2, cr0, cr14, cr5, {0}
     980:	16060605 	strne	r0, [r6], -r5, lsl #12
     984:	01061105 	tsteq	r6, r5, lsl #2
     988:	052e0f05 	streq	r0, [lr, #-3845]!	; 0xfffff0fb
     98c:	0b052e15 	bleq	14c1e8 <__bss_end__+0x1418d0>
     990:	0606052e 	streq	r0, [r6], -lr, lsr #10
     994:	060d052f 	streq	r0, [sp], -pc, lsr #10
     998:	030a0501 	movweq	r0, #42241	; 0xa501
     99c:	2e2e2e71 	mcrcs	14, 1, r2, cr14, cr1, {3}
     9a0:	03060605 	movweq	r0, #26117	; 0x6605
     9a4:	11050115 	tstne	r5, r5, lsl r1
     9a8:	0f050106 	svceq	0x00050106
     9ac:	2e0a052e 	cfsh32cs	mvfx0, mvfx10, #30
     9b0:	2e061505 	cfsh32cs	mvfx1, mvfx6, #5
     9b4:	01061c05 	tsteq	r6, r5, lsl #24
     9b8:	0003052e 	andeq	r0, r3, lr, lsr #10
     9bc:	06030402 	streq	r0, [r3], -r2, lsl #8
     9c0:	00140535 	andseq	r0, r4, r5, lsr r5
     9c4:	06030402 	streq	r0, [r3], -r2, lsl #8
     9c8:	000b0501 	andeq	r0, fp, r1, lsl #10
     9cc:	2e030402 	cdpcs	4, 0, cr0, cr3, cr2, {0}
     9d0:	02000905 	andeq	r0, r0, #81920	; 0x14000
     9d4:	052e0304 	streq	r0, [lr, #-772]!	; 0xfffffcfc
     9d8:	04020003 	streq	r0, [r2], #-3
     9dc:	05670603 	strbeq	r0, [r7, #-1539]!	; 0xfffff9fd
     9e0:	0402000d 	streq	r0, [r2], #-13
     9e4:	05010603 	streq	r0, [r1, #-1539]	; 0xfffff9fd
     9e8:	04020009 	streq	r0, [r2], #-9
     9ec:	0e052e03 	cdpeq	14, 0, cr2, cr5, cr3, {0}
     9f0:	03040200 	movweq	r0, #16896	; 0x4200
     9f4:	0f054806 	svceq	0x00054806
     9f8:	03040200 	movweq	r0, #16896	; 0x4200
     9fc:	0a050106 	beq	140e1c <__bss_end__+0x136504>
     a00:	01040200 	mrseq	r0, R12_usr
     a04:	02052e06 	andeq	r2, r5, #96	; 0x60
     a08:	01040200 	mrseq	r0, R12_usr
     a0c:	4e060106 	adfmis	f0, f6, f6
     a10:	01060805 	tsteq	r6, r5, lsl #16
     a14:	2f060205 	svccs	0x00060205
     a18:	06050513 			; <UNDEFINED> instruction: 0x06050513
     a1c:	00070511 	andeq	r0, r7, r1, lsl r5
     a20:	06010402 	streq	r0, [r1], -r2, lsl #8
     a24:	000d052f 	andeq	r0, sp, pc, lsr #10
     a28:	06010402 	streq	r0, [r1], -r2, lsl #8
     a2c:	000a052e 	andeq	r0, sl, lr, lsr #10
     a30:	2e010402 	cdpcs	4, 0, cr0, cr1, cr2, {0}
     a34:	01040200 	mrseq	r0, R12_usr
     a38:	0007052e 	andeq	r0, r7, lr, lsr #10
     a3c:	4a010402 	bmi	41a4c <__bss_end__+0x37134>
     a40:	67060205 	strvs	r0, [r6, -r5, lsl #4]
     a44:	01060805 	tsteq	r6, r5, lsl #16
     a48:	9f060205 	svcls	0x00060205
     a4c:	01060405 	tsteq	r6, r5, lsl #8
     a50:	4b060205 	blmi	18126c <__bss_end__+0x176954>
     a54:	01060b05 	tsteq	r6, r5, lsl #22
     a58:	052e0705 	streq	r0, [lr, #-1797]!	; 0xfffff8fb
     a5c:	052e0610 	streq	r0, [lr, #-1552]!	; 0xfffff9f0
     a60:	05010619 	streq	r0, [r1, #-1561]	; 0xfffff9e7
     a64:	1e052e15 	mcrne	14, 0, r2, cr5, cr5, {0}
     a68:	25052e06 	strcs	r2, [r5, #-3590]	; 0xfffff1fa
     a6c:	0c050106 	stfeqs	f0, [r5], {6}
     a70:	01040200 	mrseq	r0, R12_usr
     a74:	16052d06 	strne	r2, [r5], -r6, lsl #26
     a78:	01040200 	mrseq	r0, R12_usr
     a7c:	13050106 	movwne	r0, #20742	; 0x5106
     a80:	01040200 	mrseq	r0, R12_usr
     a84:	0011052e 	andseq	r0, r1, lr, lsr #10
     a88:	2e010402 	cdpcs	4, 0, cr0, cr1, cr2, {0}
     a8c:	02001b05 	andeq	r1, r0, #5120	; 0x1400
     a90:	2e060104 	adfcss	f0, f6, f4
     a94:	02002505 	andeq	r2, r0, #20971520	; 0x1400000
     a98:	01060104 	tsteq	r6, r4, lsl #2
     a9c:	02002205 	andeq	r2, r0, #1342177280	; 0x50000000
     aa0:	052e0104 	streq	r0, [lr, #-260]!	; 0xfffffefc
     aa4:	04020020 	streq	r0, [r2], #-32	; 0xffffffe0
     aa8:	2a052e01 	bcs	14c2b4 <__bss_end__+0x14199c>
     aac:	01040200 	mrseq	r0, R12_usr
     ab0:	31052e06 	tstcc	r5, r6, lsl #28
     ab4:	01040200 	mrseq	r0, R12_usr
     ab8:	02000106 	andeq	r0, r0, #-2147483647	; 0x80000001
     abc:	022e0104 	eoreq	r0, lr, #1
     ac0:	01010050 	qaddeq	r0, r0, r1
     ac4:	000009b6 			; <UNDEFINED> instruction: 0x000009b6
     ac8:	00f00003 	rscseq	r0, r0, r3
     acc:	01020000 	mrseq	r0, (UNDEF: 2)
     ad0:	000d0efb 	strdeq	r0, [sp], -fp
     ad4:	01010101 	tsteq	r1, r1, lsl #2
     ad8:	01000000 	mrseq	r0, (UNDEF: 0)
     adc:	2f010000 	svccs	0x00010000
     ae0:	72657355 	rsbvc	r7, r5, #1409286145	; 0x54000001
     ae4:	616a2f73 	smcvs	41715	; 0xa2f3
     ae8:	2f65696d 	svccs	0x0065696d
     aec:	75636f44 	strbvc	r6, [r3, #-3908]!	; 0xfffff0bc
     af0:	746e656d 	strbtvc	r6, [lr], #-1389	; 0xfffffa93
     af4:	53432f73 	movtpl	r2, #16243	; 0x3f73
     af8:	45303431 	ldrmi	r3, [r0, #-1073]!	; 0xfffffbcf
     afc:	3173632f 	cmncc	r3, pc, lsr #6
     b00:	2d453034 	stclcs	0, cr3, [r5, #-208]	; 0xffffff30
     b04:	616e6966 	cmnvs	lr, r6, ror #18
     b08:	72702d6c 	rsbsvc	r2, r0, #108, 26	; 0x1b00
     b0c:	63656a6f 	cmnvs	r5, #454656	; 0x6f000
     b10:	696c2f74 	stmdbvs	ip!, {r2, r4, r5, r6, r8, r9, sl, fp, sp}^
     b14:	322d7362 	eorcc	r7, sp, #-2013265919	; 0x88000001
     b18:	786c3034 	stmdavc	ip!, {r2, r4, r5, ip, sp}^
     b1c:	62696c2f 	rsbvs	r6, r9, #12032	; 0x2f00
     b20:	6c2f6970 			; <UNDEFINED> instruction: 0x6c2f6970
     b24:	2f6d6269 	svccs	0x006d6269
     b28:	6c636e69 	stclvs	14, cr6, [r3], #-420	; 0xfffffe5c
     b2c:	00656475 	rsbeq	r6, r5, r5, ror r4
     b30:	7273752f 	rsbsvc	r7, r3, #197132288	; 0xbc00000
     b34:	636f6c2f 	cmnvs	pc, #12032	; 0x2f00
     b38:	432f6c61 			; <UNDEFINED> instruction: 0x432f6c61
     b3c:	616c6c65 	cmnvs	ip, r5, ror #24
     b40:	72612f72 	rsbvc	r2, r1, #456	; 0x1c8
     b44:	6f6e2d6d 	svcvs	0x006e2d6d
     b48:	652d656e 	strvs	r6, [sp, #-1390]!	; 0xfffffa92
     b4c:	2d696261 	sfmcs	f6, 2, [r9, #-388]!	; 0xfffffe7c
     b50:	74736574 	ldrbtvc	r6, [r3], #-1396	; 0xfffffa8c
     b54:	322d392f 	eorcc	r3, sp, #770048	; 0xbc000
     b58:	71393130 	teqvc	r9, r0, lsr r1
     b5c:	73632d34 	cmnvc	r3, #52, 26	; 0xd00
     b60:	65373031 	ldrvs	r3, [r7, #-49]!	; 0xffffffcf
     b64:	62696c2f 	rsbvs	r6, r9, #12032	; 0x2f00
     b68:	6363672f 	cmnvs	r3, #12320768	; 0xbc0000
     b6c:	6d72612f 	ldfvse	f6, [r2, #-188]!	; 0xffffff44
     b70:	6e6f6e2d 	cdpvs	14, 6, cr6, cr15, cr13, {1}
     b74:	61652d65 	cmnvs	r5, r5, ror #26
     b78:	392f6962 	stmdbcc	pc!, {r1, r5, r6, r8, fp, sp, lr}	; <UNPREDICTABLE>
     b7c:	312e322e 			; <UNDEFINED> instruction: 0x312e322e
     b80:	636e692f 	cmnvs	lr, #770048	; 0xbc000
     b84:	6564756c 	strbvs	r7, [r4, #-1388]!	; 0xfffffa94
     b88:	5f6b0000 	svcpl	0x006b0000
     b8c:	5f6d6572 	svcpl	0x006d6572
     b90:	326f6970 	rsbcc	r6, pc, #112, 18	; 0x1c0000
     b94:	0000632e 	andeq	r6, r0, lr, lsr #6
     b98:	706f0000 	rsbvc	r0, pc, r0
     b9c:	696c6e65 	stmdbvs	ip!, {r0, r2, r5, r6, r9, sl, fp, sp, lr}^
     ba0:	6d5f6d62 	ldclvs	13, cr6, [pc, #-392]	; a20 <__code_start__-0x75e0>
     ba4:	2e687461 	cdpcs	4, 6, cr7, cr8, cr1, {3}
     ba8:	00010068 	andeq	r0, r1, r8, rrx
     bac:	64747300 	ldrbtvs	r7, [r4], #-768	; 0xfffffd00
     bb0:	2d746e69 	ldclcs	14, cr6, [r4, #-420]!	; 0xfffffe5c
     bb4:	2e636367 	cdpcs	3, 6, cr6, cr3, cr7, {3}
     bb8:	00020068 	andeq	r0, r2, r8, rrx
     bbc:	01050000 	mrseq	r0, (UNDEF: 5)
     bc0:	e0020500 	and	r0, r2, r0, lsl #10
     bc4:	03000087 	movweq	r0, #135	; 0x87
     bc8:	060102a6 	streq	r0, [r1], -r6, lsr #5
     bcc:	06020501 	streq	r0, [r2], -r1, lsl #10
     bd0:	051513bb 	ldreq	r1, [r5, #-955]	; 0xfffffc45
     bd4:	2e010605 	cfmadd32cs	mvax0, mvfx0, mvfx1, mvfx5
     bd8:	0602052e 	streq	r0, [r2], -lr, lsr #10
     bdc:	0505152f 	streq	r1, [r5, #-1327]	; 0xfffffad1
     be0:	02050106 	andeq	r0, r5, #-2147483647	; 0x80000001
     be4:	0a052f06 	beq	14c804 <__bss_end__+0x141eec>
     be8:	05050106 	streq	r0, [r5, #-262]	; 0xfffffefa
     bec:	0612052e 	ldreq	r0, [r2], -lr, lsr #10
     bf0:	06140582 	ldreq	r0, [r4], -r2, lsl #11
     bf4:	2e1d0501 	cfmul32cs	mvfx0, mvfx13, mvfx1
     bf8:	2f060205 	svccs	0x00060205
     bfc:	01061105 	tsteq	r6, r5, lsl #2
     c00:	052e0d05 	streq	r0, [lr, #-3333]!	; 0xfffff2fb
     c04:	02052e05 	andeq	r2, r5, #80	; 0x50
     c08:	04053106 	streq	r3, [r5], #-262	; 0xfffffefa
     c0c:	0d050106 	stfeqs	f0, [r5, #-24]	; 0xffffffe8
     c10:	0f052e06 	svceq	0x00052e06
     c14:	02050106 	andeq	r0, r5, #-2147483647	; 0x80000001
     c18:	07052f06 	streq	r2, [r5, -r6, lsl #30]
     c1c:	02050106 	andeq	r0, r5, #-2147483647	; 0x80000001
     c20:	2e2b052e 	cfsh64cs	mvdx0, mvdx11, #30
     c24:	02001d05 	andeq	r1, r0, #320	; 0x140
     c28:	052e0504 	streq	r0, [lr, #-1284]!	; 0xfffffafc
     c2c:	0402000f 	streq	r0, [r2], #-15
     c30:	05660605 	strbeq	r0, [r6, #-1541]!	; 0xfffff9fb
     c34:	04020010 	streq	r0, [r2], #-16
     c38:	05010605 	streq	r0, [r1, #-1541]	; 0xfffff9fb
     c3c:	04020014 	streq	r0, [r2], #-20	; 0xffffffec
     c40:	0a052e05 	beq	14c45c <__bss_end__+0x141b44>
     c44:	06040200 	streq	r0, [r4], -r0, lsl #4
     c48:	02052e06 	andeq	r2, r5, #96	; 0x60
     c4c:	06040200 	streq	r0, [r4], -r0, lsl #4
     c50:	18050106 	stmdane	r5, {r1, r2, r8}
     c54:	07040200 	streq	r0, [r4, -r0, lsl #4]
     c58:	2b054a06 	blcs	153478 <__bss_end__+0x148b60>
     c5c:	07040200 	streq	r0, [r4, -r0, lsl #4]
     c60:	3b050106 	blcc	141080 <__bss_end__+0x136768>
     c64:	02040200 	andeq	r0, r4, #0, 4
     c68:	002b054a 	eoreq	r0, fp, sl, asr #10
     c6c:	66020402 	strvs	r0, [r2], -r2, lsl #8
     c70:	054d0805 	strbeq	r0, [sp, #-2053]	; 0xfffff7fb
     c74:	04020020 	streq	r0, [r2], #-32	; 0xffffffe0
     c78:	054b0603 	strbeq	r0, [fp, #-1539]	; 0xfffff9fd
     c7c:	04020027 	streq	r0, [r2], #-39	; 0xffffffd9
     c80:	05010603 	streq	r0, [r1, #-1539]	; 0xfffff9fd
     c84:	0402002f 	streq	r0, [r2], #-47	; 0xffffffd1
     c88:	31054a03 	tstcc	r5, r3, lsl #20
     c8c:	03040200 	movweq	r0, #16896	; 0x4200
     c90:	002c052e 	eoreq	r0, ip, lr, lsr #10
     c94:	2e030402 	cdpcs	4, 0, cr0, cr3, cr2, {0}
     c98:	02002305 	andeq	r2, r0, #335544320	; 0x14000000
     c9c:	05660304 	strbeq	r0, [r6, #-772]!	; 0xfffffcfc
     ca0:	0402001b 	streq	r0, [r2], #-27	; 0xffffffe5
     ca4:	052e0603 	streq	r0, [lr, #-1539]!	; 0xfffff9fd
     ca8:	0402001c 	streq	r0, [r2], #-28	; 0xffffffe4
     cac:	05010603 	streq	r0, [r1, #-1539]	; 0xfffff9fd
     cb0:	04020015 	streq	r0, [r2], #-21	; 0xffffffeb
     cb4:	052e0601 	streq	r0, [lr, #-1537]!	; 0xfffff9ff
     cb8:	04020006 	streq	r0, [r2], #-6
     cbc:	00010601 	andeq	r0, r1, r1, lsl #12
     cc0:	06020402 	streq	r0, [r2], -r2, lsl #8
     cc4:	000b054b 	andeq	r0, fp, fp, asr #10
     cc8:	06020402 	streq	r0, [r2], -r2, lsl #8
     ccc:	00110501 	andseq	r0, r1, r1, lsl #10
     cd0:	06020402 	streq	r0, [r2], -r2, lsl #8
     cd4:	00120564 	andseq	r0, r2, r4, ror #10
     cd8:	06020402 	streq	r0, [r2], -r2, lsl #8
     cdc:	000b0501 	andeq	r0, fp, r1, lsl #10
     ce0:	06010402 	streq	r0, [r1], -r2, lsl #8
     ce4:	0002052e 	andeq	r0, r2, lr, lsr #10
     ce8:	06010402 	streq	r0, [r1], -r2, lsl #8
     cec:	2f100501 	svccs	0x00100501
     cf0:	2e2e0b05 	vmulcs.f64	d0, d14, d5
     cf4:	05320505 	ldreq	r0, [r2, #-1285]!	; 0xfffffafb
     cf8:	04020006 	streq	r0, [r2], #-6
     cfc:	054e0603 	strbeq	r0, [lr, #-1539]	; 0xfffff9fd
     d00:	04020028 	streq	r0, [r2], #-40	; 0xffffffd8
     d04:	05010603 	streq	r0, [r1, #-1539]	; 0xfffff9fd
     d08:	04020018 	streq	r0, [r2], #-24	; 0xffffffe8
     d0c:	0c054a03 			; <UNDEFINED> instruction: 0x0c054a03
     d10:	03040200 	movweq	r0, #16896	; 0x4200
     d14:	0006052e 	andeq	r0, r6, lr, lsr #10
     d18:	06030402 	streq	r0, [r3], -r2, lsl #8
     d1c:	001a052f 	andseq	r0, sl, pc, lsr #10
     d20:	06030402 	streq	r0, [r3], -r2, lsl #8
     d24:	000f0501 	andeq	r0, pc, r1, lsl #10
     d28:	4a030402 	bmi	c1d38 <__bss_end__+0xb7420>
     d2c:	02000c05 	andeq	r0, r0, #1280	; 0x500
     d30:	052e0304 	streq	r0, [lr, #-772]!	; 0xfffffcfc
     d34:	04020006 	streq	r0, [r2], #-6
     d38:	05670603 	strbeq	r0, [r7, #-1539]!	; 0xfffff9fd
     d3c:	04020012 	streq	r0, [r2], #-18	; 0xffffffee
     d40:	05010603 	streq	r0, [r1, #-1539]	; 0xfffff9fd
     d44:	04020010 	streq	r0, [r2], #-16
     d48:	0c052e03 	stceq	14, cr2, [r5], {3}
     d4c:	03040200 	movweq	r0, #16896	; 0x4200
     d50:	001b0566 	andseq	r0, fp, r6, ror #10
     d54:	06030402 	streq	r0, [r3], -r2, lsl #8
     d58:	001c052b 	andseq	r0, ip, fp, lsr #10
     d5c:	06030402 	streq	r0, [r3], -r2, lsl #8
     d60:	00170501 	andseq	r0, r7, r1, lsl #10
     d64:	06010402 	streq	r0, [r1], -r2, lsl #8
     d68:	0002052e 	andeq	r0, r2, lr, lsr #10
     d6c:	06010402 	streq	r0, [r1], -r2, lsl #8
     d70:	05510601 	ldrbeq	r0, [r1, #-1537]	; 0xfffff9ff
     d74:	4a010607 	bmi	42598 <__bss_end__+0x37c80>
     d78:	2f060205 	svccs	0x00060205
     d7c:	01060b05 	tsteq	r6, r5, lsl #22
     d80:	4a04052e 	bmi	102240 <__bss_end__+0xf7928>
     d84:	4b060205 	blmi	1815a0 <__bss_end__+0x176c88>
     d88:	01060505 	tsteq	r6, r5, lsl #10
     d8c:	2f060205 	svccs	0x00060205
     d90:	01060705 	tsteq	r6, r5, lsl #14
     d94:	052e0405 	streq	r0, [lr, #-1029]!	; 0xfffffbfb
     d98:	132f0602 			; <UNDEFINED> instruction: 0x132f0602
     d9c:	01060405 	tsteq	r6, r5, lsl #8
     da0:	4b060605 	blmi	1825bc <__bss_end__+0x177ca4>
     da4:	01061105 	tsteq	r6, r5, lsl #2
     da8:	052e0e05 	streq	r0, [lr, #-3589]!	; 0xfffff1fb
     dac:	09056619 	stmdbeq	r5, {r0, r3, r4, r9, sl, sp, lr}
     db0:	0620052e 	strteq	r0, [r0], -lr, lsr #10
     db4:	0622052e 	strteq	r0, [r2], -lr, lsr #10
     db8:	06060501 	streq	r0, [r6], -r1, lsl #10
     dbc:	060f0567 	streq	r0, [pc], -r7, ror #10
     dc0:	06060501 	streq	r0, [r6], -r1, lsl #10
     dc4:	0618054b 	ldreq	r0, [r8], -fp, asr #10
     dc8:	2e090501 	cfsh32cs	mvfx0, mvfx9, #1
     dcc:	33060205 	movwcc	r0, #25093	; 0x6205
     dd0:	01060405 	tsteq	r6, r5, lsl #8
     dd4:	03060205 	movweq	r0, #25093	; 0x6205
     dd8:	04054a19 	streq	r4, [r5], #-2585	; 0xfffff5e7
     ddc:	06050106 	streq	r0, [r5], -r6, lsl #2
     de0:	05136706 	ldreq	r6, [r3, #-1798]	; 0xfffff8fa
     de4:	0501060c 	streq	r0, [r1, #-1548]	; 0xfffff9f4
     de8:	06052d08 	streq	r2, [r5], -r8, lsl #26
     dec:	0607052f 	streq	r0, [r7], -pc, lsr #10
     df0:	052e6203 	streq	r6, [lr, #-515]!	; 0xfffffdfd
     df4:	05010609 	streq	r0, [r1, #-1545]	; 0xfffff9f7
     df8:	04020011 	streq	r0, [r2], #-17	; 0xffffffef
     dfc:	054a0601 	strbeq	r0, [sl, #-1537]	; 0xfffff9ff
     e00:	0402001b 	streq	r0, [r2], #-27	; 0xffffffe5
     e04:	05010601 	streq	r0, [r1, #-1537]	; 0xfffff9ff
     e08:	04020018 	streq	r0, [r2], #-24	; 0xffffffe8
     e0c:	14052e01 	strne	r2, [r5], #-3585	; 0xfffff1ff
     e10:	01040200 	mrseq	r0, R12_usr
     e14:	04020066 	streq	r0, [r2], #-102	; 0xffffff9a
     e18:	07052e01 	streq	r2, [r5, -r1, lsl #28]
     e1c:	09052f06 	stmdbeq	r5, {r1, r2, r8, r9, sl, fp, sp}
     e20:	05050106 	streq	r0, [r5, #-262]	; 0xfffffefa
     e24:	05667903 	strbeq	r7, [r6, #-2307]!	; 0xfffff6fd
     e28:	06055114 			; <UNDEFINED> instruction: 0x06055114
     e2c:	08053106 	stmdaeq	r5, {r1, r2, r8, ip, sp}
     e30:	0e050106 	adfeqs	f0, f5, f6
     e34:	06056606 	streq	r6, [r5], -r6, lsl #12
     e38:	060b0513 			; <UNDEFINED> instruction: 0x060b0513
     e3c:	2d140501 	cfldr32cs	mvfx0, [r4, #-4]
     e40:	052f0605 	streq	r0, [pc, #-1541]!	; 843 <__code_start__-0x77bd>
     e44:	0534060b 	ldreq	r0, [r4, #-1547]!	; 0xfffff9f5
     e48:	2e01061c 	mcrcs	6, 0, r0, cr1, cr12, {0}
     e4c:	2e4a1105 	dvfcse	f1, f2, f5
     e50:	0014052e 	andseq	r0, r4, lr, lsr #10
     e54:	06020402 	streq	r0, [r2], -r2, lsl #8
     e58:	052e7a03 	streq	r7, [lr, #-2563]!	; 0xfffff5fd
     e5c:	04020015 	streq	r0, [r2], #-21	; 0xffffffeb
     e60:	05010602 	streq	r0, [r1, #-1538]	; 0xfffff9fe
     e64:	0402000e 	streq	r0, [r2], #-14
     e68:	052e0601 	streq	r0, [lr, #-1537]!	; 0xfffff9ff
     e6c:	04020006 	streq	r0, [r2], #-6
     e70:	05010601 	streq	r0, [r1, #-1537]	; 0xfffff9ff
     e74:	054b0603 	strbeq	r0, [fp, #-1539]	; 0xfffff9fd
     e78:	05010605 	streq	r0, [r1, #-1541]	; 0xfffff9fb
     e7c:	05670603 	strbeq	r0, [r7, #-1539]!	; 0xfffff9fd
     e80:	05010605 	streq	r0, [r1, #-1541]	; 0xfffff9fb
     e84:	054b0607 	strbeq	r0, [fp, #-1543]	; 0xfffff9f9
     e88:	05010609 	streq	r0, [r1, #-1545]	; 0xfffff9f7
     e8c:	054b0604 	strbeq	r0, [fp, #-1540]	; 0xfffff9fc
     e90:	2005010f 	andcs	r0, r5, pc, lsl #2
     e94:	15050106 	strne	r0, [r5, #-262]	; 0xfffffefa
     e98:	052e2e2e 	streq	r2, [lr, #-3630]!	; 0xfffff1d2
     e9c:	06052e0a 	streq	r2, [r5], -sl, lsl #28
     ea0:	08054e06 	stmdaeq	r5, {r1, r2, r9, sl, fp, lr}
     ea4:	0a050106 	beq	1412c4 <__bss_end__+0x1369ac>
     ea8:	06054b06 	streq	r4, [r5], -r6, lsl #22
     eac:	06080589 	streq	r0, [r8], -r9, lsl #11
     eb0:	06030501 	streq	r0, [r3], -r1, lsl #10
     eb4:	0605054b 	streq	r0, [r5], -fp, asr #10
     eb8:	06030501 	streq	r0, [r3], -r1, lsl #10
     ebc:	0605054b 	streq	r0, [r5], -fp, asr #10
     ec0:	00100501 	andseq	r0, r0, r1, lsl #10
     ec4:	06010402 	streq	r0, [r1], -r2, lsl #8
     ec8:	0015054a 	andseq	r0, r5, sl, asr #10
     ecc:	06010402 	streq	r0, [r1], -r2, lsl #8
     ed0:	00120501 	andseq	r0, r2, r1, lsl #10
     ed4:	66010402 	strvs	r0, [r1], -r2, lsl #8
     ed8:	01040200 	mrseq	r0, R12_usr
     edc:	060a052e 	streq	r0, [sl], -lr, lsr #10
     ee0:	052e7903 	streq	r7, [lr, #-2307]!	; 0xfffff6fd
     ee4:	4a010613 	bmi	42738 <__bss_end__+0x37e20>
     ee8:	9e062005 	cdpls	0, 0, cr2, cr6, cr5, {0}
     eec:	01060a05 	tsteq	r6, r5, lsl #20
     ef0:	13053006 	movwne	r3, #20486	; 0x5006
     ef4:	054a0106 	strbeq	r0, [sl, #-262]	; 0xfffffefa
     ef8:	059e0620 	ldreq	r0, [lr, #1568]	; 0x620
     efc:	0501060a 	streq	r0, [r1, #-1546]	; 0xfffff9f6
     f00:	0402001d 	streq	r0, [r2], #-29	; 0xffffffe3
     f04:	0c030603 	stceq	6, cr0, [r3], {3}
     f08:	0024052e 	eoreq	r0, r4, lr, lsr #10
     f0c:	06030402 	streq	r0, [r3], -r2, lsl #8
     f10:	001f0501 	andseq	r0, pc, r1, lsl #10
     f14:	66030402 	strvs	r0, [r3], -r2, lsl #8
     f18:	02001805 	andeq	r1, r0, #327680	; 0x50000
     f1c:	2e060304 	cdpcs	3, 0, cr0, cr6, cr4, {0}
     f20:	02001905 	andeq	r1, r0, #81920	; 0x14000
     f24:	01060304 	tsteq	r6, r4, lsl #6
     f28:	02001205 	andeq	r1, r0, #1342177280	; 0x50000000
     f2c:	2e060104 	adfcss	f0, f6, f4
     f30:	02000605 	andeq	r0, r0, #5242880	; 0x500000
     f34:	01060104 	tsteq	r6, r4, lsl #2
     f38:	08054b06 	stmdaeq	r5, {r1, r2, r8, r9, fp, lr}
     f3c:	054b0106 	strbeq	r0, [fp, #-262]	; 0xfffffefa
     f40:	0402001b 	streq	r0, [r2], #-27	; 0xffffffe5
     f44:	054a0603 	strbeq	r0, [sl, #-1539]	; 0xfffff9fd
     f48:	04020017 	streq	r0, [r2], #-23	; 0xffffffe9
     f4c:	18050103 	stmdane	r5, {r0, r1, r8}
     f50:	03040200 	movweq	r0, #16896	; 0x4200
     f54:	0b050106 	bleq	141374 <__bss_end__+0x136a5c>
     f58:	01040200 	mrseq	r0, R12_usr
     f5c:	10052e06 	andne	r2, r5, r6, lsl #28
     f60:	01040200 	mrseq	r0, R12_usr
     f64:	0d050106 	stfeqs	f0, [r5, #-24]	; 0xffffffe8
     f68:	01040200 	mrseq	r0, R12_usr
     f6c:	0003052e 	andeq	r0, r3, lr, lsr #10
     f70:	66010402 	strvs	r0, [r1], -r2, lsl #8
     f74:	08054c06 	stmdaeq	r5, {r1, r2, sl, fp, lr}
     f78:	03050106 	movweq	r0, #20742	; 0x5106
     f7c:	0021052e 	eoreq	r0, r1, lr, lsr #10
     f80:	06030402 	streq	r0, [r3], -r2, lsl #8
     f84:	00280530 	eoreq	r0, r8, r0, lsr r5
     f88:	06030402 	streq	r0, [r3], -r2, lsl #8
     f8c:	00320501 	eorseq	r0, r2, r1, lsl #10
     f90:	4a030402 	bmi	c1fa0 <__bss_end__+0xb7688>
     f94:	02002d05 	andeq	r2, r0, #320	; 0x140
     f98:	052e0304 	streq	r0, [lr, #-772]!	; 0xfffffcfc
     f9c:	04020024 	streq	r0, [r2], #-36	; 0xffffffdc
     fa0:	1c056603 	stcne	6, cr6, [r5], {3}
     fa4:	03040200 	movweq	r0, #16896	; 0x4200
     fa8:	1d052e06 	stcne	14, cr2, [r5, #-24]	; 0xffffffe8
     fac:	03040200 	movweq	r0, #16896	; 0x4200
     fb0:	16050106 	strne	r0, [r5], -r6, lsl #2
     fb4:	01040200 	mrseq	r0, R12_usr
     fb8:	07052e06 	streq	r2, [r5, -r6, lsl #28]
     fbc:	01040200 	mrseq	r0, R12_usr
     fc0:	02000106 	andeq	r0, r0, #-2147483647	; 0x80000001
     fc4:	4b060204 	blmi	1817dc <__bss_end__+0x176ec4>
     fc8:	02000c05 	andeq	r0, r0, #1280	; 0x500
     fcc:	01060204 	tsteq	r6, r4, lsl #4
     fd0:	02040200 	andeq	r0, r4, #0, 4
     fd4:	0016052e 	andseq	r0, r6, lr, lsr #10
     fd8:	06020402 	streq	r0, [r2], -r2, lsl #8
     fdc:	00170547 	andseq	r0, r7, r7, asr #10
     fe0:	06020402 	streq	r0, [r2], -r2, lsl #8
     fe4:	000e0501 	andeq	r0, lr, r1, lsl #10
     fe8:	06010402 	streq	r0, [r1], -r2, lsl #8
     fec:	0013052e 	andseq	r0, r3, lr, lsr #10
     ff0:	06010402 	streq	r0, [r1], -r2, lsl #8
     ff4:	00030501 	andeq	r0, r3, r1, lsl #10
     ff8:	2e010402 	cdpcs	4, 0, cr0, cr1, cr2, {0}
     ffc:	4b060705 	blmi	182c18 <__bss_end__+0x178300>
    1000:	01062205 	tsteq	r6, r5, lsl #4
    1004:	052e1f05 	streq	r1, [lr, #-3845]!	; 0xfffff0fb
    1008:	1105660b 	tstne	r5, fp, lsl #12
    100c:	2e0f052e 	cfsh32cs	mvfx0, mvfx15, #30
    1010:	67060705 	strvs	r0, [r6, -r5, lsl #14]
    1014:	01060c05 	tsteq	r6, r5, lsl #24
    1018:	052e1105 	streq	r1, [lr, #-261]!	; 0xfffffefb
    101c:	06052e07 	streq	r2, [r5], -r7, lsl #28
    1020:	06020531 			; <UNDEFINED> instruction: 0x06020531
    1024:	052e4803 	streq	r4, [lr, #-2051]!	; 0xfffff7fd
    1028:	05010610 	streq	r0, [r1, #-1552]	; 0xfffff9f0
    102c:	0705660b 	streq	r6, [r5, -fp, lsl #12]
    1030:	2e02052e 	cfsh32cs	mvfx0, mvfx2, #30
    1034:	2e3e0306 	cdpcs	3, 3, cr0, cr14, cr6, {0}
    1038:	01060405 	tsteq	r6, r5, lsl #8
    103c:	67060605 	strvs	r0, [r6, -r5, lsl #12]
    1040:	01060905 	tsteq	r6, r5, lsl #18
    1044:	2e060f05 	cdpcs	15, 0, cr0, cr6, cr5, {0}
    1048:	01061205 	tsteq	r6, r5, lsl #4
    104c:	2f060605 	svccs	0x00060605
    1050:	01060b05 	tsteq	r6, r5, lsl #22
    1054:	02001905 	andeq	r1, r0, #81920	; 0x14000
    1058:	2e060204 	cdpcs	2, 0, cr0, cr6, cr4, {0}
    105c:	02001b05 	andeq	r1, r0, #5120	; 0x1400
    1060:	01060204 	tsteq	r6, r4, lsl #4
    1064:	02001f05 	andeq	r1, r0, #5, 30
    1068:	2e060204 	cdpcs	2, 0, cr0, cr6, cr4, {0}
    106c:	02002105 	andeq	r2, r0, #1073741825	; 0x40000001
    1070:	01060204 	tsteq	r6, r4, lsl #4
    1074:	02000b05 	andeq	r0, r0, #5120	; 0x1400
    1078:	2e060104 	adfcss	f0, f6, f4
    107c:	02000e05 	andeq	r0, r0, #80	; 0x50
    1080:	01060104 	tsteq	r6, r4, lsl #2
    1084:	02000b05 	andeq	r0, r0, #5120	; 0x1400
    1088:	05660104 	strbeq	r0, [r6, #-260]!	; 0xfffffefc
    108c:	0c030602 	stceq	6, cr0, [r3], {2}
    1090:	0607054a 	streq	r0, [r7], -sl, asr #10
    1094:	06020501 	streq	r0, [r2], -r1, lsl #10
    1098:	06070567 	streq	r0, [r7], -r7, ror #10
    109c:	2e020501 	cfsh32cs	mvfx0, mvfx2, #1
    10a0:	03060605 	movweq	r0, #26117	; 0x6605
    10a4:	01240275 			; <UNDEFINED> instruction: 0x01240275
    10a8:	01060a05 	tsteq	r6, r5, lsl #20
    10ac:	83060605 	movwhi	r0, #26117	; 0x6605
    10b0:	01060805 	tsteq	r6, r5, lsl #16
    10b4:	83060305 	movwhi	r0, #25349	; 0x6305
    10b8:	01062105 	tsteq	r6, r5, lsl #2
    10bc:	054a1105 	strbeq	r1, [sl, #-261]	; 0xfffffefb
    10c0:	03052e06 	movweq	r2, #24070	; 0x5e06
    10c4:	17052f06 	strne	r2, [r5, -r6, lsl #30]
    10c8:	0c050106 	stfeqs	f0, [r5], {6}
    10cc:	2e0a054a 	cfsh32cs	mvfx0, mvfx10, #42
    10d0:	67060305 	strvs	r0, [r6, -r5, lsl #6]
    10d4:	01060605 	tsteq	r6, r5, lsl #12
    10d8:	2e060c05 	cdpcs	12, 0, cr0, cr6, cr5, {0}
    10dc:	01060f05 	tsteq	r6, r5, lsl #30
    10e0:	2f060305 	svccs	0x00060305
    10e4:	01060a05 	tsteq	r6, r5, lsl #20
    10e8:	83060d05 	movwhi	r0, #27909	; 0x6d05
    10ec:	01061605 	tsteq	r6, r5, lsl #12
    10f0:	052e1405 	streq	r1, [lr, #-1029]!	; 0xfffffbfb
    10f4:	04020006 	streq	r0, [r2], #-6
    10f8:	05880603 	streq	r0, [r8, #1539]	; 0x603
    10fc:	0402001a 	streq	r0, [r2], #-26	; 0xffffffe6
    1100:	05010603 	streq	r0, [r1, #-1539]	; 0xfffff9fd
    1104:	04020010 	streq	r0, [r2], #-16
    1108:	0f056603 	svceq	0x00056603
    110c:	03040200 	movweq	r0, #16896	; 0x4200
    1110:	000b052e 	andeq	r0, fp, lr, lsr #10
    1114:	2e030402 	cdpcs	4, 0, cr0, cr3, cr2, {0}
    1118:	02001f05 	andeq	r1, r0, #5, 30
    111c:	66060304 	strvs	r0, [r6], -r4, lsl #6
    1120:	02002105 	andeq	r2, r0, #1073741825	; 0x40000001
    1124:	01060304 	tsteq	r6, r4, lsl #6
    1128:	02001005 	andeq	r1, r0, #5, 0
    112c:	49060304 	stmdbmi	r6, {r2, r8, r9}
    1130:	02001105 	andeq	r1, r0, #1073741825	; 0x40000001
    1134:	01060304 	tsteq	r6, r4, lsl #6
    1138:	02000b05 	andeq	r0, r0, #5120	; 0x1400
    113c:	2e060104 	adfcss	f0, f6, f4
    1140:	02000205 	andeq	r0, r0, #1342177280	; 0x50000000
    1144:	01060104 	tsteq	r6, r4, lsl #2
    1148:	054f0705 	strbeq	r0, [pc, #-1797]	; a4b <__code_start__-0x75b5>
    114c:	04020029 	streq	r0, [r2], #-41	; 0xffffffd7
    1150:	054b0604 	strbeq	r0, [fp, #-1540]	; 0xfffff9fc
    1154:	04020033 	streq	r0, [r2], #-51	; 0xffffffcd
    1158:	05010604 	streq	r0, [r1, #-1540]	; 0xfffff9fc
    115c:	0402003a 	streq	r0, [r2], #-58	; 0xffffffc6
    1160:	38056604 	stmdacc	r5, {r2, r9, sl, sp, lr}
    1164:	04040200 	streq	r0, [r4], #-512	; 0xfffffe00
    1168:	002c052e 	eoreq	r0, ip, lr, lsr #10
    116c:	66040402 	strvs	r0, [r4], -r2, lsl #8
    1170:	02002405 	andeq	r2, r0, #83886080	; 0x5000000
    1174:	2e060404 	cdpcs	4, 0, cr0, cr6, cr4, {0}
    1178:	02002505 	andeq	r2, r0, #20971520	; 0x1400000
    117c:	01060404 	tsteq	r6, r4, lsl #8
    1180:	02001505 	andeq	r1, r0, #20971520	; 0x1400000
    1184:	2e060104 	adfcss	f0, f6, f4
    1188:	02000605 	andeq	r0, r0, #5242880	; 0x500000
    118c:	01060104 	tsteq	r6, r4, lsl #2
    1190:	02002105 	andeq	r2, r0, #1073741825	; 0x40000001
    1194:	054a0304 	strbeq	r0, [sl, #-772]	; 0xfffffcfc
    1198:	0402001a 	streq	r0, [r2], #-26	; 0xffffffe6
    119c:	06052e03 	streq	r2, [r5], -r3, lsl #28
    11a0:	02040200 	andeq	r0, r4, #0, 4
    11a4:	0b054b06 	bleq	153dc4 <__bss_end__+0x1494ac>
    11a8:	02040200 	andeq	r0, r4, #0, 4
    11ac:	0f050106 	svceq	0x00050106
    11b0:	02040200 	andeq	r0, r4, #0, 4
    11b4:	0010052e 	andseq	r0, r0, lr, lsr #10
    11b8:	06020402 	streq	r0, [r2], -r2, lsl #8
    11bc:	00110564 	andseq	r0, r1, r4, ror #10
    11c0:	06020402 	streq	r0, [r2], -r2, lsl #8
    11c4:	000b0501 	andeq	r0, fp, r1, lsl #10
    11c8:	06010402 	streq	r0, [r1], -r2, lsl #8
    11cc:	0002052e 	andeq	r0, r2, lr, lsr #10
    11d0:	06010402 	streq	r0, [r1], -r2, lsl #8
    11d4:	2f0c0501 	svccs	0x000c0501
    11d8:	052e1205 	streq	r1, [lr, #-517]!	; 0xfffffdfb
    11dc:	054f0602 	strbeq	r0, [pc, #-1538]	; be2 <__code_start__-0x741e>
    11e0:	04020017 	streq	r0, [r2], #-23	; 0xffffffe9
    11e4:	05930803 	ldreq	r0, [r3, #2051]	; 0x803
    11e8:	0402001f 	streq	r0, [r2], #-31	; 0xffffffe1
    11ec:	05010603 	streq	r0, [r1, #-1539]	; 0xfffff9fd
    11f0:	0402001a 	streq	r0, [r2], #-26	; 0xffffffe6
    11f4:	12056603 	andne	r6, r5, #3145728	; 0x300000
    11f8:	03040200 	movweq	r0, #16896	; 0x4200
    11fc:	13052e06 	movwne	r2, #24070	; 0x5e06
    1200:	03040200 	movweq	r0, #16896	; 0x4200
    1204:	0d050106 	stfeqs	f0, [r5, #-24]	; 0xffffffe8
    1208:	01040200 	mrseq	r0, R12_usr
    120c:	03052e06 	movweq	r2, #24070	; 0x5e06
    1210:	01040200 	mrseq	r0, R12_usr
    1214:	4b060106 	blmi	181634 <__bss_end__+0x176d1c>
    1218:	01061505 	tsteq	r6, r5, lsl #10
    121c:	01040200 	mrseq	r0, R12_usr
    1220:	0008052e 	andeq	r0, r8, lr, lsr #10
    1224:	2e040402 	cdpcs	4, 0, cr0, cr4, cr2, {0}
    1228:	02000305 	andeq	r0, r0, #335544320	; 0x14000000
    122c:	2f060404 	svccs	0x00060404
    1230:	1d030205 	sfmne	f0, 4, [r3, #-20]	; 0xffffffec
    1234:	06010501 	streq	r0, [r1], -r1, lsl #10
    1238:	17058213 	smladne	r5, r3, r2, r8
    123c:	03040200 	movweq	r0, #16896	; 0x4200
    1240:	2e660306 	cdpcs	3, 6, cr0, cr6, cr6, {0}
    1244:	02001f05 	andeq	r1, r0, #5, 30
    1248:	01060304 	tsteq	r6, r4, lsl #6
    124c:	02001a05 	andeq	r1, r0, #20480	; 0x5000
    1250:	05660304 	strbeq	r0, [r6, #-772]!	; 0xfffffcfc
    1254:	04020012 	streq	r0, [r2], #-18	; 0xffffffee
    1258:	052e0603 	streq	r0, [lr, #-1539]!	; 0xfffff9fd
    125c:	04020013 	streq	r0, [r2], #-19	; 0xffffffed
    1260:	05010603 	streq	r0, [r1, #-1539]	; 0xfffff9fd
    1264:	0402000d 	streq	r0, [r2], #-13
    1268:	052e0601 	streq	r0, [lr, #-1537]!	; 0xfffff9ff
    126c:	04020003 	streq	r0, [r2], #-3
    1270:	06010601 	streq	r0, [r1], -r1, lsl #12
    1274:	1505134b 	strne	r1, [r5, #-843]	; 0xfffffcb5
    1278:	02000106 	andeq	r0, r0, #-2147483647	; 0x80000001
    127c:	054a0104 	strbeq	r0, [sl, #-260]	; 0xfffffefc
    1280:	04020008 	streq	r0, [r2], #-8
    1284:	03052e04 	movweq	r2, #24068	; 0x5e04
    1288:	04040200 	streq	r0, [r4], #-512	; 0xfffffe00
    128c:	0a052f06 	beq	14ceac <__bss_end__+0x142594>
    1290:	04040200 	streq	r0, [r4], #-512	; 0xfffffe00
    1294:	06050106 	streq	r0, [r5], -r6, lsl #2
    1298:	04040200 	streq	r0, [r4], #-512	; 0xfffffe00
    129c:	0003052e 	andeq	r0, r3, lr, lsr #10
    12a0:	06040402 	streq	r0, [r4], -r2, lsl #8
    12a4:	0009052f 	andeq	r0, r9, pc, lsr #10
    12a8:	06040402 	streq	r0, [r4], -r2, lsl #8
    12ac:	00030501 	andeq	r0, r3, r1, lsl #10
    12b0:	2e040402 	cdpcs	4, 0, cr0, cr4, cr2, {0}
    12b4:	73030205 	movwvc	r0, #12805	; 0x3205
    12b8:	0315052e 	tsteq	r5, #192937984	; 0xb800000
    12bc:	1705660b 	strne	r6, [r5, -fp, lsl #12]
    12c0:	03040200 	movweq	r0, #16896	; 0x4200
    12c4:	1f054c06 	svcne	0x00054c06
    12c8:	03040200 	movweq	r0, #16896	; 0x4200
    12cc:	1a050106 	bne	1416ec <__bss_end__+0x136dd4>
    12d0:	03040200 	movweq	r0, #16896	; 0x4200
    12d4:	00120566 	andseq	r0, r2, r6, ror #10
    12d8:	06030402 	streq	r0, [r3], -r2, lsl #8
    12dc:	0013052e 	andseq	r0, r3, lr, lsr #10
    12e0:	06030402 	streq	r0, [r3], -r2, lsl #8
    12e4:	000c0501 	andeq	r0, ip, r1, lsl #10
    12e8:	06010402 	streq	r0, [r1], -r2, lsl #8
    12ec:	0003052e 	andeq	r0, r3, lr, lsr #10
    12f0:	06010402 	streq	r0, [r1], -r2, lsl #8
    12f4:	054b0601 	strbeq	r0, [fp, #-1537]	; 0xfffff9ff
    12f8:	00010615 	andeq	r0, r1, r5, lsl r6
    12fc:	2e010402 	cdpcs	4, 0, cr0, cr1, cr2, {0}
    1300:	02000805 	andeq	r0, r0, #327680	; 0x50000
    1304:	052e0404 	streq	r0, [lr, #-1028]!	; 0xfffffbfc
    1308:	04020003 	streq	r0, [r2], #-3
    130c:	052f0604 	streq	r0, [pc, #-1540]!	; d10 <__code_start__-0x72f0>
    1310:	04020007 	streq	r0, [r2], #-7
    1314:	15053103 	strne	r3, [r5, #-259]	; 0xfffffefd
    1318:	03040200 	movweq	r0, #16896	; 0x4200
    131c:	13050106 	movwne	r0, #20742	; 0x5106
    1320:	03040200 	movweq	r0, #16896	; 0x4200
    1324:	001b052e 	andseq	r0, fp, lr, lsr #10
    1328:	66030402 	strvs	r0, [r3], -r2, lsl #8
    132c:	03040200 	movweq	r0, #16896	; 0x4200
    1330:	000f054a 	andeq	r0, pc, sl, asr #10
    1334:	2e030402 	cdpcs	4, 0, cr0, cr3, cr2, {0}
    1338:	02000705 	andeq	r0, r0, #1310720	; 0x140000
    133c:	2f060304 	svccs	0x00060304
    1340:	02001805 	andeq	r1, r0, #327680	; 0x50000
    1344:	01060304 	tsteq	r6, r4, lsl #6
    1348:	02000e05 	andeq	r0, r0, #80	; 0x50
    134c:	052e0304 	streq	r0, [lr, #-772]!	; 0xfffffcfc
    1350:	04020007 	streq	r0, [r2], #-7
    1354:	054b0603 	strbeq	r0, [fp, #-1539]	; 0xfffff9fd
    1358:	0402000f 	streq	r0, [r2], #-15
    135c:	05010603 	streq	r0, [r1, #-1539]	; 0xfffff9fd
    1360:	04020011 	streq	r0, [r2], #-17	; 0xffffffef
    1364:	052b0603 	streq	r0, [fp, #-1539]!	; 0xfffff9fd
    1368:	04020012 	streq	r0, [r2], #-18	; 0xffffffee
    136c:	05010603 	streq	r0, [r1, #-1539]	; 0xfffff9fd
    1370:	0402000d 	streq	r0, [r2], #-13
    1374:	052e0601 	streq	r0, [lr, #-1537]!	; 0xfffff9ff
    1378:	04020003 	streq	r0, [r2], #-3
    137c:	05010601 	streq	r0, [r1, #-1537]	; 0xfffff9ff
    1380:	052e4f09 	streq	r4, [lr, #-3849]!	; 0xfffff0f7
    1384:	04020007 	streq	r0, [r2], #-7
    1388:	052f0603 	streq	r0, [pc, #-1539]!	; d8d <__code_start__-0x7273>
    138c:	04020015 	streq	r0, [r2], #-21	; 0xffffffeb
    1390:	05010603 	streq	r0, [r1, #-1539]	; 0xfffff9fd
    1394:	04020013 	streq	r0, [r2], #-19	; 0xffffffed
    1398:	1b052e03 	blne	14cbac <__bss_end__+0x142294>
    139c:	03040200 	movweq	r0, #16896	; 0x4200
    13a0:	04020066 	streq	r0, [r2], #-102	; 0xffffff9a
    13a4:	0f054a03 	svceq	0x00054a03
    13a8:	03040200 	movweq	r0, #16896	; 0x4200
    13ac:	0007052e 	andeq	r0, r7, lr, lsr #10
    13b0:	06030402 	streq	r0, [r3], -r2, lsl #8
    13b4:	0018052f 	andseq	r0, r8, pc, lsr #10
    13b8:	06030402 	streq	r0, [r3], -r2, lsl #8
    13bc:	000e0501 	andeq	r0, lr, r1, lsl #10
    13c0:	2e030402 	cdpcs	4, 0, cr0, cr3, cr2, {0}
    13c4:	02000705 	andeq	r0, r0, #1310720	; 0x140000
    13c8:	4b060304 	blmi	181fe0 <__bss_end__+0x1776c8>
    13cc:	02000f05 	andeq	r0, r0, #5, 30
    13d0:	01060304 	tsteq	r6, r4, lsl #6
    13d4:	02001105 	andeq	r1, r0, #1073741825	; 0x40000001
    13d8:	2b060304 	blcs	181ff0 <__bss_end__+0x1776d8>
    13dc:	02001205 	andeq	r1, r0, #1342177280	; 0x50000000
    13e0:	01060304 	tsteq	r6, r4, lsl #6
    13e4:	02000d05 	andeq	r0, r0, #320	; 0x140
    13e8:	2e060104 	adfcss	f0, f6, f4
    13ec:	02000305 	andeq	r0, r0, #335544320	; 0x14000000
    13f0:	01060104 	tsteq	r6, r4, lsl #2
    13f4:	054f0a05 	strbeq	r0, [pc, #-2565]	; 9f7 <__code_start__-0x7609>
    13f8:	0402001e 	streq	r0, [r2], #-30	; 0xffffffe2
    13fc:	054a0603 	strbeq	r0, [sl, #-1539]	; 0xfffff9fd
    1400:	04020026 	streq	r0, [r2], #-38	; 0xffffffda
    1404:	05010603 	streq	r0, [r1, #-1539]	; 0xfffff9fd
    1408:	04020021 	streq	r0, [r2], #-33	; 0xffffffdf
    140c:	19056603 	stmdbne	r5, {r0, r1, r9, sl, sp, lr}
    1410:	03040200 	movweq	r0, #16896	; 0x4200
    1414:	1a052e06 	bne	14cc34 <__bss_end__+0x14231c>
    1418:	03040200 	movweq	r0, #16896	; 0x4200
    141c:	14050106 	strne	r0, [r5], #-262	; 0xfffffefa
    1420:	01040200 	mrseq	r0, R12_usr
    1424:	03052e06 	movweq	r2, #24070	; 0x5e06
    1428:	01040200 	mrseq	r0, R12_usr
    142c:	4b060106 	blmi	18184c <__bss_end__+0x176f34>
    1430:	01060505 	tsteq	r6, r5, lsl #10
    1434:	4b060705 	blmi	183050 <__bss_end__+0x178738>
    1438:	01061105 	tsteq	r6, r5, lsl #2
    143c:	052e0c05 	streq	r0, [lr, #-3077]!	; 0xfffff3fb
    1440:	052e0616 	streq	r0, [lr, #-1558]!	; 0xfffff9ea
    1444:	05010620 	streq	r0, [r1, #-1568]	; 0xfffff9e0
    1448:	25052e1b 	strcs	r2, [r5, #-3611]	; 0xfffff1e5
    144c:	2a052e06 	bcs	14cc6c <__bss_end__+0x142354>
    1450:	07050106 	streq	r0, [r5, -r6, lsl #2]
    1454:	11054c06 	tstne	r5, r6, lsl #24
    1458:	0e050106 	adfeqs	f0, f5, f6
    145c:	2e0c052e 	cfsh32cs	mvfx0, mvfx12, #30
    1460:	2e061605 	cfmadd32cs	mvax0, mvfx1, mvfx6, mvfx5
    1464:	01062005 	tsteq	r6, r5
    1468:	052e1d05 	streq	r1, [lr, #-3333]!	; 0xfffff2fb
    146c:	25052e1b 	strcs	r2, [r5, #-3611]	; 0xfffff1e5
    1470:	2c052e06 	stccs	14, cr2, [r5], {6}
    1474:	2a050106 	bcs	141894 <__bss_end__+0x136f7c>
    1478:	0012022e 	andseq	r0, r2, lr, lsr #4
    147c:	02380101 	eorseq	r0, r8, #1073741824	; 0x40000000
    1480:	00030000 	andeq	r0, r3, r0
    1484:	00000112 	andeq	r0, r0, r2, lsl r1
    1488:	0efb0102 	cdpeq	1, 15, cr0, cr11, cr2, {0}
    148c:	0101000d 	tsteq	r1, sp
    1490:	00000101 	andeq	r0, r0, r1, lsl #2
    1494:	00000100 	andeq	r0, r0, r0, lsl #2
    1498:	73552f01 	cmpvc	r5, #1, 30
    149c:	2f737265 	svccs	0x00737265
    14a0:	696d616a 	stmdbvs	sp!, {r1, r3, r5, r6, r8, sp, lr}^
    14a4:	6f442f65 	svcvs	0x00442f65
    14a8:	656d7563 	strbvs	r7, [sp, #-1379]!	; 0xfffffa9d
    14ac:	2f73746e 	svccs	0x0073746e
    14b0:	34315343 	ldrtcc	r5, [r1], #-835	; 0xfffffcbd
    14b4:	632f4530 			; <UNDEFINED> instruction: 0x632f4530
    14b8:	30343173 	eorscc	r3, r4, r3, ror r1
    14bc:	69662d45 	stmdbvs	r6!, {r0, r2, r6, r8, sl, fp, sp}^
    14c0:	2d6c616e 	stfcse	f6, [ip, #-440]!	; 0xfffffe48
    14c4:	6a6f7270 	bvs	1bdde8c <__bss_end__+0x1bd3574>
    14c8:	2f746365 	svccs	0x00746365
    14cc:	7362696c 	cmnvc	r2, #108, 18	; 0x1b0000
    14d0:	3034322d 	eorscc	r3, r4, sp, lsr #4
    14d4:	6c2f786c 	stcvs	8, cr7, [pc], #-432	; 132c <__code_start__-0x6cd4>
    14d8:	69706269 	ldmdbvs	r0!, {r0, r3, r5, r6, r9, sp, lr}^
    14dc:	62696c2f 	rsbvs	r6, r9, #12032	; 0x2f00
    14e0:	6e692f6d 	cdpvs	15, 6, cr2, cr9, cr13, {3}
    14e4:	64756c63 	ldrbtvs	r6, [r5], #-3171	; 0xfffff39d
    14e8:	752f0065 	strvc	r0, [pc, #-101]!	; 148b <__code_start__-0x6b75>
    14ec:	6c2f7273 	sfmvs	f7, 4, [pc], #-460	; 1328 <__code_start__-0x6cd8>
    14f0:	6c61636f 	stclvs	3, cr6, [r1], #-444	; 0xfffffe44
    14f4:	6c65432f 	stclvs	3, cr4, [r5], #-188	; 0xffffff44
    14f8:	2f72616c 	svccs	0x0072616c
    14fc:	2d6d7261 	sfmcs	f7, 2, [sp, #-388]!	; 0xfffffe7c
    1500:	656e6f6e 	strbvs	r6, [lr, #-3950]!	; 0xfffff092
    1504:	6261652d 	rsbvs	r6, r1, #188743680	; 0xb400000
    1508:	65742d69 	ldrbvs	r2, [r4, #-3433]!	; 0xfffff297
    150c:	392f7473 	stmdbcc	pc!, {r0, r1, r4, r5, r6, sl, ip, sp, lr}	; <UNPREDICTABLE>
    1510:	3130322d 	teqcc	r0, sp, lsr #4
    1514:	2d347139 	ldfcss	f7, [r4, #-228]!	; 0xffffff1c
    1518:	30317363 	eorscc	r7, r1, r3, ror #6
    151c:	6c2f6537 	cfstr32vs	mvfx6, [pc], #-220	; 1448 <__code_start__-0x6bb8>
    1520:	672f6269 	strvs	r6, [pc, -r9, ror #4]!
    1524:	612f6363 			; <UNDEFINED> instruction: 0x612f6363
    1528:	6e2d6d72 	mcrvs	13, 1, r6, cr13, cr2, {3}
    152c:	2d656e6f 	stclcs	14, cr6, [r5, #-444]!	; 0xfffffe44
    1530:	69626165 	stmdbvs	r2!, {r0, r2, r5, r6, r8, sp, lr}^
    1534:	322e392f 	eorcc	r3, lr, #770048	; 0xbc000
    1538:	692f312e 	stmdbvs	pc!, {r1, r2, r3, r5, r8, ip, sp}	; <UNPREDICTABLE>
    153c:	756c636e 	strbvc	r6, [ip, #-878]!	; 0xfffffc92
    1540:	00006564 	andeq	r6, r0, r4, ror #10
    1544:	63735f73 	cmnvs	r3, #460	; 0x1cc
    1548:	6e626c61 	cdpvs	12, 6, cr6, cr2, cr1, {3}
    154c:	0000632e 	andeq	r6, r0, lr, lsr #6
    1550:	706f0000 	rsbvc	r0, pc, r0
    1554:	696c6e65 	stmdbvs	ip!, {r0, r2, r5, r6, r9, sl, fp, sp, lr}^
    1558:	6d5f6d62 	ldclvs	13, cr6, [pc, #-392]	; 13d8 <__code_start__-0x6c28>
    155c:	2e687461 	cdpcs	4, 6, cr7, cr8, cr1, {3}
    1560:	00010068 	andeq	r0, r1, r8, rrx
    1564:	64747300 	ldrbtvs	r7, [r4], #-768	; 0xfffffd00
    1568:	2d746e69 	ldclcs	14, cr6, [r4, #-420]!	; 0xfffffe5c
    156c:	2e636367 	cdpcs	3, 6, cr6, cr3, cr7, {3}
    1570:	00020068 	andeq	r0, r2, r8, rrx
    1574:	70797400 	rsbsvc	r7, r9, r0, lsl #8
    1578:	632d7365 			; <UNDEFINED> instruction: 0x632d7365
    157c:	61706d6f 	cmnvs	r0, pc, ror #26
    1580:	00682e74 	rsbeq	r2, r8, r4, ror lr
    1584:	6d000000 	stcvs	0, cr0, [r0, #-0]
    1588:	5f687461 	svcpl	0x00687461
    158c:	76697270 			; <UNDEFINED> instruction: 0x76697270
    1590:	2e657461 	cdpcs	4, 6, cr7, cr5, cr1, {3}
    1594:	00000068 	andeq	r0, r0, r8, rrx
    1598:	21050000 	mrscs	r0, (UNDEF: 5)
    159c:	40020500 	andmi	r0, r2, r0, lsl #10
    15a0:	0300008f 	movweq	r0, #143	; 0x8f
    15a4:	01060120 	tsteq	r6, r0, lsr #2
    15a8:	83060205 	movwhi	r0, #25093	; 0x6205
    15ac:	01010113 	tsteq	r1, r3, lsl r1
    15b0:	062e062e 	strteq	r0, [lr], -lr, lsr #12
    15b4:	13090501 	movwne	r0, #38145	; 0x9501
    15b8:	01061c05 	tsteq	r6, r5, lsl #24
    15bc:	052e0b05 	streq	r0, [lr, #-2821]!	; 0xfffff4fb
    15c0:	054b0609 	strbeq	r0, [fp, #-1545]	; 0xfffff9f7
    15c4:	0501060c 	streq	r0, [r1, #-1548]	; 0xfffff9f4
    15c8:	054b060d 	strbeq	r0, [fp, #-1549]	; 0xfffff9f3
    15cc:	05010618 	streq	r0, [r1, #-1560]	; 0xfffff9e8
    15d0:	052e2e10 	streq	r2, [lr, #-3600]!	; 0xfffff1f0
    15d4:	052f0606 	streq	r0, [pc, #-1542]!	; fd6 <__code_start__-0x702a>
    15d8:	05010608 	streq	r0, [r1, #-1544]	; 0xfffff9f8
    15dc:	01670606 	cmneq	r7, r6, lsl #12
    15e0:	2e060101 	adfcss	f0, f6, f1
    15e4:	05130106 	ldreq	r0, [r3, #-262]	; 0xfffffefa
    15e8:	0501061a 	streq	r0, [r1, #-1562]	; 0xfffff9e6
    15ec:	0d056608 	stceq	6, cr6, [r5, #-32]	; 0xffffffe0
    15f0:	10052f06 	andne	r2, r5, r6, lsl #30
    15f4:	052e0106 	streq	r0, [lr, #-262]!	; 0xfffffefa
    15f8:	054c0609 	strbeq	r0, [ip, #-1545]	; 0xfffff9f7
    15fc:	0501060c 	streq	r0, [r1, #-1548]	; 0xfffff9f4
    1600:	05670609 	strbeq	r0, [r7, #-1545]!	; 0xfffff9f7
    1604:	0501060b 	streq	r0, [r1, #-1547]	; 0xfffff9f5
    1608:	052f0609 	streq	r0, [pc, #-1545]!	; 1007 <__code_start__-0x6ff9>
    160c:	0501060c 	streq	r0, [r1, #-1548]	; 0xfffff9f4
    1610:	05670609 	strbeq	r0, [r7, #-1545]!	; 0xfffff9f7
    1614:	0501060c 	streq	r0, [r1, #-1548]	; 0xfffff9f4
    1618:	054c0609 	strbeq	r0, [ip, #-1545]	; 0xfffff9f7
    161c:	0501060c 	streq	r0, [r1, #-1548]	; 0xfffff9f4
    1620:	054b060d 	strbeq	r0, [fp, #-1549]	; 0xfffff9f3
    1624:	2e010610 	mcrcs	6, 0, r0, cr1, cr0, {0}
    1628:	4b060305 	blmi	182244 <__bss_end__+0x17792c>
    162c:	01060f05 	tsteq	r6, r5, lsl #30
    1630:	05820e05 	streq	r0, [r2, #3589]	; 0xe05
    1634:	0402001c 	streq	r0, [r2], #-28	; 0xffffffe4
    1638:	77030601 	strvc	r0, [r3, -r1, lsl #12]
    163c:	0027054a 	eoreq	r0, r7, sl, asr #10
    1640:	06010402 	streq	r0, [r1], -r2, lsl #8
    1644:	00170501 	andseq	r0, r7, r1, lsl #10
    1648:	06010402 	streq	r0, [r1], -r2, lsl #8
    164c:	001f0568 	andseq	r0, pc, r8, ror #10
    1650:	06010402 	streq	r0, [r1], -r2, lsl #8
    1654:	00190501 	andseq	r0, r9, r1, lsl #10
    1658:	06010402 	streq	r0, [r1], -r2, lsl #8
    165c:	00250568 	eoreq	r0, r5, r8, ror #10
    1660:	06010402 	streq	r0, [r1], -r2, lsl #8
    1664:	00240501 	eoreq	r0, r4, r1, lsl #10
    1668:	82010402 	andhi	r0, r1, #33554432	; 0x2000000
    166c:	4c060705 	stcmi	7, cr0, [r6], {5}
    1670:	062e0101 	strteq	r0, [lr], -r1, lsl #2
    1674:	064a062e 	strbeq	r0, [sl], -lr, lsr #12
    1678:	01062e01 	tsteq	r6, r1, lsl #28
    167c:	05013105 	streq	r3, [r1, #-261]	; 0xfffffefb
    1680:	09030601 	stmdbeq	r3, {r0, r9, sl}
    1684:	060b0501 	streq	r0, [fp], -r1, lsl #10
    1688:	06170561 	ldreq	r0, [r7], -r1, ror #10
    168c:	82160501 	andshi	r0, r6, #4194304	; 0x400000
    1690:	4c060205 	sfmmi	f0, 4, [r6], {5}
    1694:	01060405 	tsteq	r6, r5, lsl #8
    1698:	2f060205 	svccs	0x00060205
    169c:	062e0101 	strteq	r0, [lr], -r1, lsl #2
    16a0:	064a062e 	strbeq	r0, [sl], -lr, lsr #12
    16a4:	01062e01 	tsteq	r6, r1, lsl #28
    16a8:	05130905 	ldreq	r0, [r3, #-2309]	; 0xfffff6fb
    16ac:	05010611 	streq	r0, [r1, #-1553]	; 0xfffff9ef
    16b0:	666e0331 			; <UNDEFINED> instruction: 0x666e0331
    16b4:	001a022e 	andseq	r0, sl, lr, lsr #4
    16b8:	028b0101 	addeq	r0, fp, #1073741824	; 0x40000000
    16bc:	00030000 	andeq	r0, r3, r0
    16c0:	00000111 	andeq	r0, r0, r1, lsl r1
    16c4:	0efb0102 	cdpeq	1, 15, cr0, cr11, cr2, {0}
    16c8:	0101000d 	tsteq	r1, sp
    16cc:	00000101 	andeq	r0, r0, r1, lsl #2
    16d0:	00000100 	andeq	r0, r0, r0, lsl #2
    16d4:	73552f01 	cmpvc	r5, #1, 30
    16d8:	2f737265 	svccs	0x00737265
    16dc:	696d616a 	stmdbvs	sp!, {r1, r3, r5, r6, r8, sp, lr}^
    16e0:	6f442f65 	svcvs	0x00442f65
    16e4:	656d7563 	strbvs	r7, [sp, #-1379]!	; 0xfffffa9d
    16e8:	2f73746e 	svccs	0x0073746e
    16ec:	34315343 	ldrtcc	r5, [r1], #-835	; 0xfffffcbd
    16f0:	632f4530 			; <UNDEFINED> instruction: 0x632f4530
    16f4:	30343173 	eorscc	r3, r4, r3, ror r1
    16f8:	69662d45 	stmdbvs	r6!, {r0, r2, r6, r8, sl, fp, sp}^
    16fc:	2d6c616e 	stfcse	f6, [ip, #-440]!	; 0xfffffe48
    1700:	6a6f7270 	bvs	1bde0c8 <__bss_end__+0x1bd37b0>
    1704:	2f746365 	svccs	0x00746365
    1708:	7362696c 	cmnvc	r2, #108, 18	; 0x1b0000
    170c:	3034322d 	eorscc	r3, r4, sp, lsr #4
    1710:	6c2f786c 	stcvs	8, cr7, [pc], #-432	; 1568 <__code_start__-0x6a98>
    1714:	69706269 	ldmdbvs	r0!, {r0, r3, r5, r6, r9, sp, lr}^
    1718:	62696c2f 	rsbvs	r6, r9, #12032	; 0x2f00
    171c:	6e692f6d 	cdpvs	15, 6, cr2, cr9, cr13, {3}
    1720:	64756c63 	ldrbtvs	r6, [r5], #-3171	; 0xfffff39d
    1724:	752f0065 	strvc	r0, [pc, #-101]!	; 16c7 <__code_start__-0x6939>
    1728:	6c2f7273 	sfmvs	f7, 4, [pc], #-460	; 1564 <__code_start__-0x6a9c>
    172c:	6c61636f 	stclvs	3, cr6, [r1], #-444	; 0xfffffe44
    1730:	6c65432f 	stclvs	3, cr4, [r5], #-188	; 0xffffff44
    1734:	2f72616c 	svccs	0x0072616c
    1738:	2d6d7261 	sfmcs	f7, 2, [sp, #-388]!	; 0xfffffe7c
    173c:	656e6f6e 	strbvs	r6, [lr, #-3950]!	; 0xfffff092
    1740:	6261652d 	rsbvs	r6, r1, #188743680	; 0xb400000
    1744:	65742d69 	ldrbvs	r2, [r4, #-3433]!	; 0xfffff297
    1748:	392f7473 	stmdbcc	pc!, {r0, r1, r4, r5, r6, sl, ip, sp, lr}	; <UNPREDICTABLE>
    174c:	3130322d 	teqcc	r0, sp, lsr #4
    1750:	2d347139 	ldfcss	f7, [r4, #-228]!	; 0xffffff1c
    1754:	30317363 	eorscc	r7, r1, r3, ror #6
    1758:	6c2f6537 	cfstr32vs	mvfx6, [pc], #-220	; 1684 <__code_start__-0x697c>
    175c:	672f6269 	strvs	r6, [pc, -r9, ror #4]!
    1760:	612f6363 			; <UNDEFINED> instruction: 0x612f6363
    1764:	6e2d6d72 	mcrvs	13, 1, r6, cr13, cr2, {3}
    1768:	2d656e6f 	stclcs	14, cr6, [r5, #-444]!	; 0xfffffe44
    176c:	69626165 	stmdbvs	r2!, {r0, r2, r5, r6, r8, sp, lr}^
    1770:	322e392f 	eorcc	r3, lr, #770048	; 0xbc000
    1774:	692f312e 	stmdbvs	pc!, {r1, r2, r3, r5, r8, ip, sp}	; <UNPREDICTABLE>
    1778:	756c636e 	strbvc	r6, [ip, #-878]!	; 0xfffffc92
    177c:	00006564 	andeq	r6, r0, r4, ror #10
    1780:	6c665f73 	stclvs	15, cr5, [r6], #-460	; 0xfffffe34
    1784:	2e726f6f 	cdpcs	15, 7, cr6, cr2, cr15, {3}
    1788:	00000063 	andeq	r0, r0, r3, rrx
    178c:	65706f00 	ldrbvs	r6, [r0, #-3840]!	; 0xfffff100
    1790:	62696c6e 	rsbvs	r6, r9, #28160	; 0x6e00
    1794:	616d5f6d 	cmnvs	sp, sp, ror #30
    1798:	682e6874 	stmdavs	lr!, {r2, r4, r5, r6, fp, sp, lr}
    179c:	00000100 	andeq	r0, r0, r0, lsl #2
    17a0:	69647473 	stmdbvs	r4!, {r0, r1, r4, r5, r6, sl, ip, sp, lr}^
    17a4:	672d746e 	strvs	r7, [sp, -lr, ror #8]!
    17a8:	682e6363 	stmdavs	lr!, {r0, r1, r5, r6, r8, r9, sp, lr}
    17ac:	00000200 	andeq	r0, r0, r0, lsl #4
    17b0:	65707974 	ldrbvs	r7, [r0, #-2420]!	; 0xfffff68c
    17b4:	6f632d73 	svcvs	0x00632d73
    17b8:	7461706d 	strbtvc	r7, [r1], #-109	; 0xffffff93
    17bc:	0000682e 	andeq	r6, r0, lr, lsr #16
    17c0:	616d0000 	cmnvs	sp, r0
    17c4:	705f6874 	subsvc	r6, pc, r4, ror r8	; <UNPREDICTABLE>
    17c8:	61766972 	cmnvs	r6, r2, ror r9
    17cc:	682e6574 	stmdavs	lr!, {r2, r4, r5, r6, r8, sl, sp, lr}
    17d0:	00000000 	andeq	r0, r0, r0
    17d4:	00010500 	andeq	r0, r1, r0, lsl #10
    17d8:	90b80205 	adcsls	r0, r8, r5, lsl #4
    17dc:	21030000 	mrscs	r0, (UNDEF: 3)
    17e0:	05010601 	streq	r0, [r1, #-1537]	; 0xfffff9ff
    17e4:	13670602 	cmnne	r7, #2097152	; 0x200000
    17e8:	01010113 	tsteq	r1, r3, lsl r1
    17ec:	064a064a 	strbeq	r0, [sl], -sl, asr #12
    17f0:	0b051301 	bleq	1463fc <__bss_end__+0x13bae4>
    17f4:	10050106 	andne	r0, r5, r6, lsl #2
    17f8:	4a05052e 	bmi	142cb8 <__bss_end__+0x1383a0>
    17fc:	4b060205 	blmi	182018 <__bss_end__+0x177700>
    1800:	01060405 	tsteq	r6, r5, lsl #8
    1804:	4b060605 	blmi	183020 <__bss_end__+0x178708>
    1808:	01060805 	tsteq	r6, r5, lsl #16
    180c:	51060305 	tstpl	r6, r5, lsl #6
    1810:	01061305 	tsteq	r6, r5, lsl #6
    1814:	4b060305 	blmi	182430 <__bss_end__+0x177b18>
    1818:	01060a05 	tsteq	r6, r5, lsl #20
    181c:	2e2e0505 	cfsh64cs	mvdx0, mvdx14, #5
    1820:	2f060305 	svccs	0x00060305
    1824:	01060a05 	tsteq	r6, r5, lsl #20
    1828:	05660505 	strbeq	r0, [r6, #-1285]!	; 0xfffffafb
    182c:	05670607 	strbeq	r0, [r7, #-1543]!	; 0xfffff9f9
    1830:	05010609 	streq	r0, [r1, #-1545]	; 0xfffff9f7
    1834:	054b0607 	strbeq	r0, [fp, #-1543]	; 0xfffff9f9
    1838:	0501060a 	streq	r0, [r1, #-1546]	; 0xfffff9f6
    183c:	052e0613 	streq	r0, [lr, #-1555]!	; 0xfffff9ed
    1840:	05010615 	streq	r0, [r1, #-1557]	; 0xfffff9eb
    1844:	15030602 	strne	r0, [r3, #-1538]	; 0xfffff9fe
    1848:	2e01012e 	adfcssp	f0, f1, #0.5
    184c:	2e01062e 	cfmadd32cs	mvax1, mvfx0, mvfx1, mvfx14
    1850:	05130106 	ldreq	r0, [r3, #-262]	; 0xfffffefa
    1854:	05130601 	ldreq	r0, [r3, #-1537]	; 0xfffff9ff
    1858:	5f030603 	svcpl	0x00030603
    185c:	060a054a 	streq	r0, [sl], -sl, asr #10
    1860:	4a050501 	bmi	142c6c <__bss_end__+0x138354>
    1864:	67060705 	strvs	r0, [r6, -r5, lsl #14]
    1868:	01060905 	tsteq	r6, r5, lsl #18
    186c:	052e1705 	streq	r1, [lr, #-1797]!	; 0xfffff8fb
    1870:	0c052e14 	stceq	14, cr2, [r5], {20}
    1874:	13054b06 	movwne	r4, #23302	; 0x5b06
    1878:	0e050106 	adfeqs	f0, f5, f6
    187c:	2f16052e 	svccs	0x0016052e
    1880:	2e2e0805 	cdpcs	8, 2, cr0, cr14, cr5, {0}
    1884:	02001005 	andeq	r1, r0, #5, 0
    1888:	34060104 	strcc	r0, [r6], #-260	; 0xfffffefc
    188c:	02001305 	andeq	r1, r0, #335544320	; 0x14000000
    1890:	01060104 	tsteq	r6, r4, lsl #2
    1894:	01040200 	mrseq	r0, R12_usr
    1898:	0609054a 	streq	r0, [r9], -sl, asr #10
    189c:	060c0532 			; <UNDEFINED> instruction: 0x060c0532
    18a0:	06060501 	streq	r0, [r6], -r1, lsl #10
    18a4:	0608054b 	streq	r0, [r8], -fp, asr #10
    18a8:	2f120501 	svccs	0x00120501
    18ac:	0014052e 	andseq	r0, r4, lr, lsr #10
    18b0:	06010402 	streq	r0, [r1], -r2, lsl #8
    18b4:	001c052d 	andseq	r0, ip, sp, lsr #10
    18b8:	06010402 	streq	r0, [r1], -r2, lsl #8
    18bc:	04020001 	streq	r0, [r2], #-1
    18c0:	06054a01 	streq	r4, [r5], -r1, lsl #20
    18c4:	28053106 	stmdacs	r5, {r1, r2, r8, ip, sp}
    18c8:	08050106 	stmdaeq	r5, {r1, r2, r8}
    18cc:	0606054a 	streq	r0, [r6], -sl, asr #10
    18d0:	0608054b 	streq	r0, [r8], -fp, asr #10
    18d4:	06060501 	streq	r0, [r6], -r1, lsl #10
    18d8:	060d054b 	streq	r0, [sp], -fp, asr #10
    18dc:	66080501 	strvs	r0, [r8], -r1, lsl #10
    18e0:	67060305 	strvs	r0, [r6, -r5, lsl #6]
    18e4:	01060505 	tsteq	r6, r5, lsl #10
    18e8:	52060305 	andpl	r0, r6, #335544320	; 0x14000000
    18ec:	01060605 	tsteq	r6, r5, lsl #12
    18f0:	0607052e 	streq	r0, [r7], -lr, lsr #10
    18f4:	052e7903 	streq	r7, [lr, #-2307]!	; 0xfffff6fd
    18f8:	05010609 	streq	r0, [r1, #-1545]	; 0xfffff9f7
    18fc:	054c0604 	strbeq	r0, [ip, #-1540]	; 0xfffff9fc
    1900:	05010612 	streq	r0, [r1, #-1554]	; 0xfffff9ee
    1904:	04052e0a 	streq	r2, [r5], #-3594	; 0xfffff1f6
    1908:	06054b06 	streq	r4, [r5], -r6, lsl #22
    190c:	0d050106 	stfeqs	f0, [r5, #-24]	; 0xffffffe8
    1910:	01040200 	mrseq	r0, R12_usr
    1914:	10052e06 	andne	r2, r5, r6, lsl #28
    1918:	01040200 	mrseq	r0, R12_usr
    191c:	02000106 	andeq	r0, r0, #-2147483647	; 0x80000001
    1920:	052e0104 	streq	r0, [lr, #-260]!	; 0xfffffefc
    1924:	04020012 	streq	r0, [r2], #-18	; 0xffffffee
    1928:	052b0601 	streq	r0, [fp, #-1537]!	; 0xfffff9ff
    192c:	04020014 	streq	r0, [r2], #-20	; 0xffffffec
    1930:	00010601 	andeq	r0, r1, r1, lsl #12
    1934:	2e010402 	cdpcs	4, 0, cr0, cr1, cr2, {0}
    1938:	72031d05 	andvc	r1, r3, #320	; 0x140
    193c:	1b052e2e 	blne	14d1fc <__bss_end__+0x1428e4>
    1940:	2e2e0b03 	vmulcs.f64	d0, d14, d3
    1944:	01000c02 	tsteq	r0, r2, lsl #24
    1948:	00014c01 	andeq	r4, r1, r1, lsl #24
    194c:	14000300 	strne	r0, [r0], #-768	; 0xfffffd00
    1950:	02000001 	andeq	r0, r0, #1, 0
    1954:	0d0efb01 	vstreq	d15, [lr, #-4]
    1958:	01010100 	mrseq	r0, (UNDEF: 17)
    195c:	00000001 	andeq	r0, r0, r1
    1960:	01000001 	tsteq	r0, r1
    1964:	6573552f 	ldrbvs	r5, [r3, #-1327]!	; 0xfffffad1
    1968:	6a2f7372 	bvs	bde738 <__bss_end__+0xbd3e20>
    196c:	65696d61 	strbvs	r6, [r9, #-3425]!	; 0xfffff29f
    1970:	636f442f 	cmnvs	pc, #788529152	; 0x2f000000
    1974:	6e656d75 	mcrvs	13, 3, r6, cr5, cr5, {3}
    1978:	432f7374 			; <UNDEFINED> instruction: 0x432f7374
    197c:	30343153 	eorscc	r3, r4, r3, asr r1
    1980:	73632f45 	cmnvc	r3, #276	; 0x114
    1984:	45303431 	ldrmi	r3, [r0, #-1073]!	; 0xfffffbcf
    1988:	6e69662d 	cdpvs	6, 6, cr6, cr9, cr13, {1}
    198c:	702d6c61 	eorvc	r6, sp, r1, ror #24
    1990:	656a6f72 	strbvs	r6, [sl, #-3954]!	; 0xfffff08e
    1994:	6c2f7463 	cfstrsvs	mvf7, [pc], #-396	; 1810 <__code_start__-0x67f0>
    1998:	2d736269 	lfmcs	f6, 2, [r3, #-420]!	; 0xfffffe5c
    199c:	6c303432 	cfldrsvs	mvf3, [r0], #-200	; 0xffffff38
    19a0:	696c2f78 	stmdbvs	ip!, {r3, r4, r5, r6, r8, r9, sl, fp, sp}^
    19a4:	2f697062 	svccs	0x00697062
    19a8:	6d62696c 			; <UNDEFINED> instruction: 0x6d62696c
    19ac:	636e692f 	cmnvs	lr, #770048	; 0xbc000
    19b0:	6564756c 	strbvs	r7, [r4, #-1388]!	; 0xfffffa94
    19b4:	73752f00 	cmnvc	r5, #0, 30
    19b8:	6f6c2f72 	svcvs	0x006c2f72
    19bc:	2f6c6163 	svccs	0x006c6163
    19c0:	6c6c6543 	cfstr64vs	mvdx6, [ip], #-268	; 0xfffffef4
    19c4:	612f7261 			; <UNDEFINED> instruction: 0x612f7261
    19c8:	6e2d6d72 	mcrvs	13, 1, r6, cr13, cr2, {3}
    19cc:	2d656e6f 	stclcs	14, cr6, [r5, #-444]!	; 0xfffffe44
    19d0:	69626165 	stmdbvs	r2!, {r0, r2, r5, r6, r8, sp, lr}^
    19d4:	7365742d 	cmnvc	r5, #754974720	; 0x2d000000
    19d8:	2d392f74 	ldccs	15, cr2, [r9, #-464]!	; 0xfffffe30
    19dc:	39313032 	ldmdbcc	r1!, {r1, r4, r5, ip, sp}
    19e0:	632d3471 			; <UNDEFINED> instruction: 0x632d3471
    19e4:	37303173 			; <UNDEFINED> instruction: 0x37303173
    19e8:	696c2f65 	stmdbvs	ip!, {r0, r2, r5, r6, r8, r9, sl, fp, sp}^
    19ec:	63672f62 	cmnvs	r7, #392	; 0x188
    19f0:	72612f63 	rsbvc	r2, r1, #396	; 0x18c
    19f4:	6f6e2d6d 	svcvs	0x006e2d6d
    19f8:	652d656e 	strvs	r6, [sp, #-1390]!	; 0xfffffa92
    19fc:	2f696261 	svccs	0x00696261
    1a00:	2e322e39 	mrccs	14, 1, r2, cr2, cr9, {1}
    1a04:	6e692f31 	mcrvs	15, 3, r2, cr9, cr1, {1}
    1a08:	64756c63 	ldrbtvs	r6, [r5], #-3171	; 0xfffff39d
    1a0c:	73000065 	movwvc	r0, #101	; 0x65
    1a10:	706f635f 	rsbvc	r6, pc, pc, asr r3	; <UNPREDICTABLE>
    1a14:	67697379 			; <UNDEFINED> instruction: 0x67697379
    1a18:	00632e6e 	rsbeq	r2, r3, lr, ror #28
    1a1c:	6f000000 	svcvs	0x00000000
    1a20:	6c6e6570 	cfstr64vs	mvdx6, [lr], #-448	; 0xfffffe40
    1a24:	5f6d6269 	svcpl	0x006d6269
    1a28:	6874616d 	ldmdavs	r4!, {r0, r2, r3, r5, r6, r8, sp, lr}^
    1a2c:	0100682e 	tsteq	r0, lr, lsr #16
    1a30:	74730000 	ldrbtvc	r0, [r3], #-0
    1a34:	746e6964 	strbtvc	r6, [lr], #-2404	; 0xfffff69c
    1a38:	6363672d 	cmnvs	r3, #11796480	; 0xb40000
    1a3c:	0200682e 	andeq	r6, r0, #3014656	; 0x2e0000
    1a40:	79740000 	ldmdbvc	r4!, {}^	; <UNPREDICTABLE>
    1a44:	2d736570 	cfldr64cs	mvdx6, [r3, #-448]!	; 0xfffffe40
    1a48:	706d6f63 	rsbvc	r6, sp, r3, ror #30
    1a4c:	682e7461 	stmdavs	lr!, {r0, r5, r6, sl, ip, sp, lr}
    1a50:	00000000 	andeq	r0, r0, r0
    1a54:	6874616d 	ldmdavs	r4!, {r0, r2, r3, r5, r6, r8, sp, lr}^
    1a58:	6972705f 	ldmdbvs	r2!, {r0, r1, r2, r3, r4, r6, ip, sp, lr}^
    1a5c:	65746176 	ldrbvs	r6, [r4, #-374]!	; 0xfffffe8a
    1a60:	0000682e 	andeq	r6, r0, lr, lsr #16
    1a64:	05000000 	streq	r0, [r0, #-0]
    1a68:	02050001 	andeq	r0, r5, #1, 0
    1a6c:	00009238 	andeq	r9, r0, r8, lsr r2
    1a70:	06011b03 	streq	r1, [r1], -r3, lsl #22
    1a74:	06020501 	streq	r0, [r2], -r1, lsl #10
    1a78:	01011367 	tsteq	r1, r7, ror #6
    1a7c:	01130101 	tsteq	r3, r1, lsl #2
    1a80:	13010101 	movwne	r0, #4353	; 0x1101
    1a84:	822e0101 	eorhi	r0, lr, #1073741824	; 0x40000000
    1a88:	062e0106 	strteq	r0, [lr], -r6, lsl #2
    1a8c:	13090501 	movwne	r0, #38145	; 0x9501
    1a90:	13060105 	movwne	r0, #24837	; 0x6105
    1a94:	01000402 	tsteq	r0, r2, lsl #8
    1a98:	0001b801 	andeq	fp, r1, r1, lsl #16
    1a9c:	0f000300 	svceq	0x00000300
    1aa0:	02000001 	andeq	r0, r0, #1, 0
    1aa4:	0d0efb01 	vstreq	d15, [lr, #-4]
    1aa8:	01010100 	mrseq	r0, (UNDEF: 17)
    1aac:	00000001 	andeq	r0, r0, r1
    1ab0:	01000001 	tsteq	r0, r1
    1ab4:	6573552f 	ldrbvs	r5, [r3, #-1327]!	; 0xfffffad1
    1ab8:	6a2f7372 	bvs	bde888 <__bss_end__+0xbd3f70>
    1abc:	65696d61 	strbvs	r6, [r9, #-3425]!	; 0xfffff29f
    1ac0:	636f442f 	cmnvs	pc, #788529152	; 0x2f000000
    1ac4:	6e656d75 	mcrvs	13, 3, r6, cr5, cr5, {3}
    1ac8:	432f7374 			; <UNDEFINED> instruction: 0x432f7374
    1acc:	30343153 	eorscc	r3, r4, r3, asr r1
    1ad0:	73632f45 	cmnvc	r3, #276	; 0x114
    1ad4:	45303431 	ldrmi	r3, [r0, #-1073]!	; 0xfffffbcf
    1ad8:	6e69662d 	cdpvs	6, 6, cr6, cr9, cr13, {1}
    1adc:	702d6c61 	eorvc	r6, sp, r1, ror #24
    1ae0:	656a6f72 	strbvs	r6, [sl, #-3954]!	; 0xfffff08e
    1ae4:	6c2f7463 	cfstrsvs	mvf7, [pc], #-396	; 1960 <__code_start__-0x66a0>
    1ae8:	2d736269 	lfmcs	f6, 2, [r3, #-420]!	; 0xfffffe5c
    1aec:	6c303432 	cfldrsvs	mvf3, [r0], #-200	; 0xffffff38
    1af0:	696c2f78 	stmdbvs	ip!, {r3, r4, r5, r6, r8, r9, sl, fp, sp}^
    1af4:	2f697062 	svccs	0x00697062
    1af8:	6d62696c 			; <UNDEFINED> instruction: 0x6d62696c
    1afc:	636e692f 	cmnvs	lr, #770048	; 0xbc000
    1b00:	6564756c 	strbvs	r7, [r4, #-1388]!	; 0xfffffa94
    1b04:	73752f00 	cmnvc	r5, #0, 30
    1b08:	6f6c2f72 	svcvs	0x006c2f72
    1b0c:	2f6c6163 	svccs	0x006c6163
    1b10:	6c6c6543 	cfstr64vs	mvdx6, [ip], #-268	; 0xfffffef4
    1b14:	612f7261 			; <UNDEFINED> instruction: 0x612f7261
    1b18:	6e2d6d72 	mcrvs	13, 1, r6, cr13, cr2, {3}
    1b1c:	2d656e6f 	stclcs	14, cr6, [r5, #-444]!	; 0xfffffe44
    1b20:	69626165 	stmdbvs	r2!, {r0, r2, r5, r6, r8, sp, lr}^
    1b24:	7365742d 	cmnvc	r5, #754974720	; 0x2d000000
    1b28:	2d392f74 	ldccs	15, cr2, [r9, #-464]!	; 0xfffffe30
    1b2c:	39313032 	ldmdbcc	r1!, {r1, r4, r5, ip, sp}
    1b30:	632d3471 			; <UNDEFINED> instruction: 0x632d3471
    1b34:	37303173 			; <UNDEFINED> instruction: 0x37303173
    1b38:	696c2f65 	stmdbvs	ip!, {r0, r2, r5, r6, r8, r9, sl, fp, sp}^
    1b3c:	63672f62 	cmnvs	r7, #392	; 0x188
    1b40:	72612f63 	rsbvc	r2, r1, #396	; 0x18c
    1b44:	6f6e2d6d 	svcvs	0x006e2d6d
    1b48:	652d656e 	strvs	r6, [sp, #-1390]!	; 0xfffffa92
    1b4c:	2f696261 	svccs	0x00696261
    1b50:	2e322e39 	mrccs	14, 1, r2, cr2, cr9, {1}
    1b54:	6e692f31 	mcrvs	15, 3, r2, cr9, cr1, {1}
    1b58:	64756c63 	ldrbtvs	r6, [r5], #-3171	; 0xfffff39d
    1b5c:	73000065 	movwvc	r0, #101	; 0x65
    1b60:	6e69735f 	mcrvs	3, 3, r7, cr9, cr15, {2}
    1b64:	0000632e 	andeq	r6, r0, lr, lsr #6
    1b68:	706f0000 	rsbvc	r0, pc, r0
    1b6c:	696c6e65 	stmdbvs	ip!, {r0, r2, r5, r6, r9, sl, fp, sp, lr}^
    1b70:	6d5f6d62 	ldclvs	13, cr6, [pc, #-392]	; 19f0 <__code_start__-0x6610>
    1b74:	2e687461 	cdpcs	4, 6, cr7, cr8, cr1, {3}
    1b78:	00010068 	andeq	r0, r1, r8, rrx
    1b7c:	64747300 	ldrbtvs	r7, [r4], #-768	; 0xfffffd00
    1b80:	2d746e69 	ldclcs	14, cr6, [r4, #-420]!	; 0xfffffe5c
    1b84:	2e636367 	cdpcs	3, 6, cr6, cr3, cr7, {3}
    1b88:	00020068 	andeq	r0, r2, r8, rrx
    1b8c:	70797400 	rsbsvc	r7, r9, r0, lsl #8
    1b90:	632d7365 			; <UNDEFINED> instruction: 0x632d7365
    1b94:	61706d6f 	cmnvs	r0, pc, ror #26
    1b98:	00682e74 	rsbeq	r2, r8, r4, ror lr
    1b9c:	6d000000 	stcvs	0, cr0, [r0, #-0]
    1ba0:	5f687461 	svcpl	0x00687461
    1ba4:	76697270 			; <UNDEFINED> instruction: 0x76697270
    1ba8:	2e657461 	cdpcs	4, 6, cr7, cr5, cr1, {3}
    1bac:	00000068 	andeq	r0, r0, r8, rrx
    1bb0:	01050000 	mrseq	r0, (UNDEF: 5)
    1bb4:	68020500 	stmdavs	r2, {r8, sl}
    1bb8:	03000092 	movweq	r0, #146	; 0x92
    1bbc:	01060137 	tsteq	r6, r7, lsr r1
    1bc0:	4b060205 	blmi	1823dc <__bss_end__+0x177ac4>
    1bc4:	01011513 	tsteq	r1, r3, lsl r5
    1bc8:	062e0601 	strteq	r0, [lr], -r1, lsl #12
    1bcc:	05051501 	streq	r1, [r5, #-1281]	; 0xfffffaff
    1bd0:	02050106 	andeq	r0, r5, #-2147483647	; 0x80000001
    1bd4:	04052f06 	streq	r2, [r5], #-3846	; 0xfffff0fa
    1bd8:	06050106 	streq	r0, [r5], -r6, lsl #2
    1bdc:	08056706 	stmdaeq	r5, {r1, r2, r8, r9, sl, sp, lr}
    1be0:	0a050106 	beq	142000 <__bss_end__+0x1376e8>
    1be4:	0d056706 	stceq	7, cr6, [r5, #-24]	; 0xffffffe8
    1be8:	0c050106 	stfeqs	f0, [r5], {6}
    1bec:	0606054a 	streq	r0, [r6], -sl, asr #10
    1bf0:	060d054b 	streq	r0, [sp], -fp, asr #10
    1bf4:	03010501 	movweq	r0, #5377	; 0x1501
    1bf8:	07056611 	smladeq	r5, r1, r6, r6
    1bfc:	4a730306 	bmi	1cc281c <__bss_end__+0x1cb7f04>
    1c00:	01060a05 	tsteq	r6, r5, lsl #20
    1c04:	02001b05 	andeq	r1, r0, #5120	; 0x1400
    1c08:	4a060104 	bmi	182020 <__bss_end__+0x177708>
    1c0c:	02002305 	andeq	r2, r0, #335544320	; 0x14000000
    1c10:	01060104 	tsteq	r6, r4, lsl #2
    1c14:	01040200 	mrseq	r0, R12_usr
    1c18:	0606052e 	streq	r0, [r6], -lr, lsr #10
    1c1c:	060a0532 			; <UNDEFINED> instruction: 0x060a0532
    1c20:	06060501 	streq	r0, [r6], -r1, lsl #10
    1c24:	060e054b 	streq	r0, [lr], -fp, asr #10
    1c28:	2e060501 	cfsh32cs	mvfx0, mvfx6, #1
    1c2c:	bf060405 	svclt	0x00060405
    1c30:	01060c05 	tsteq	r6, r5, lsl #24
    1c34:	06660b05 	strbteq	r0, [r6], -r5, lsl #22
    1c38:	06130546 	ldreq	r0, [r3], -r6, asr #10
    1c3c:	060b0501 	streq	r0, [fp], -r1, lsl #10
    1c40:	0613059f 			; <UNDEFINED> instruction: 0x0613059f
    1c44:	060b0501 	streq	r0, [fp], -r1, lsl #10
    1c48:	06130583 	ldreq	r0, [r3], -r3, lsl #11
    1c4c:	82120501 	andshi	r0, r2, #4194304	; 0x400000
    1c50:	01000e02 	tsteq	r0, r2, lsl #28
    1c54:	00012f01 	andeq	r2, r1, r1, lsl #30
    1c58:	fd000300 	stc2	3, cr0, [r0, #-0]
    1c5c:	02000000 	andeq	r0, r0, #0, 0
    1c60:	0d0efb01 	vstreq	d15, [lr, #-4]
    1c64:	01010100 	mrseq	r0, (UNDEF: 17)
    1c68:	00000001 	andeq	r0, r0, r1
    1c6c:	01000001 	tsteq	r0, r1
    1c70:	696c2f2e 	stmdbvs	ip!, {r1, r2, r3, r5, r8, r9, sl, fp, sp}^
    1c74:	2f006362 	svccs	0x00006362
    1c78:	2f727375 	svccs	0x00727375
    1c7c:	61636f6c 	cmnvs	r3, ip, ror #30
    1c80:	65432f6c 	strbvs	r2, [r3, #-3948]	; 0xfffff094
    1c84:	72616c6c 	rsbvc	r6, r1, #108, 24	; 0x6c00
    1c88:	6d72612f 	ldfvse	f6, [r2, #-188]!	; 0xffffff44
    1c8c:	6e6f6e2d 	cdpvs	14, 6, cr6, cr15, cr13, {1}
    1c90:	61652d65 	cmnvs	r5, r5, ror #26
    1c94:	742d6962 	strtvc	r6, [sp], #-2402	; 0xfffff69e
    1c98:	2f747365 	svccs	0x00747365
    1c9c:	30322d39 	eorscc	r2, r2, r9, lsr sp
    1ca0:	34713931 	ldrbtcc	r3, [r1], #-2353	; 0xfffff6cf
    1ca4:	3173632d 	cmncc	r3, sp, lsr #6
    1ca8:	2f653730 	svccs	0x00653730
    1cac:	2f62696c 	svccs	0x0062696c
    1cb0:	2f636367 	svccs	0x00636367
    1cb4:	2d6d7261 	sfmcs	f7, 2, [sp, #-388]!	; 0xfffffe7c
    1cb8:	656e6f6e 	strbvs	r6, [lr, #-3950]!	; 0xfffff092
    1cbc:	6261652d 	rsbvs	r6, r1, #188743680	; 0xb400000
    1cc0:	2e392f69 	cdpcs	15, 3, cr2, cr9, cr9, {3}
    1cc4:	2f312e32 	svccs	0x00312e32
    1cc8:	6c636e69 	stclvs	14, cr6, [r3], #-420	; 0xfffffe5c
    1ccc:	00656475 	rsbeq	r6, r5, r5, ror r4
    1cd0:	6573552f 	ldrbvs	r5, [r3, #-1327]!	; 0xfffffad1
    1cd4:	6a2f7372 	bvs	bdeaa4 <__bss_end__+0xbd418c>
    1cd8:	65696d61 	strbvs	r6, [r9, #-3425]!	; 0xfffff29f
    1cdc:	636f442f 	cmnvs	pc, #788529152	; 0x2f000000
    1ce0:	6e656d75 	mcrvs	13, 3, r6, cr5, cr5, {3}
    1ce4:	432f7374 			; <UNDEFINED> instruction: 0x432f7374
    1ce8:	30343153 	eorscc	r3, r4, r3, asr r1
    1cec:	73632f45 	cmnvc	r3, #276	; 0x114
    1cf0:	45303431 	ldrmi	r3, [r0, #-1073]!	; 0xfffffbcf
    1cf4:	6e69662d 	cdpvs	6, 6, cr6, cr9, cr13, {1}
    1cf8:	702d6c61 	eorvc	r6, sp, r1, ror #24
    1cfc:	656a6f72 	strbvs	r6, [sl, #-3954]!	; 0xfffff08e
    1d00:	6c2f7463 	cfstrsvs	mvf7, [pc], #-396	; 1b7c <__code_start__-0x6484>
    1d04:	2d736269 	lfmcs	f6, 2, [r3, #-420]!	; 0xfffffe5c
    1d08:	6c303432 	cfldrsvs	mvf3, [r0], #-200	; 0xffffff38
    1d0c:	696c2f78 	stmdbvs	ip!, {r3, r4, r5, r6, r8, r9, sl, fp, sp}^
    1d10:	2f697062 	svccs	0x00697062
    1d14:	6c636e69 	stclvs	14, cr6, [r3], #-420	; 0xfffffe5c
    1d18:	00656475 	rsbeq	r6, r5, r5, ror r4
    1d1c:	69727000 	ldmdbvs	r2!, {ip, sp, lr}^
    1d20:	2e6b746e 	cdpcs	4, 6, cr7, cr11, cr14, {3}
    1d24:	00010063 	andeq	r0, r1, r3, rrx
    1d28:	64747300 	ldrbtvs	r7, [r4], #-768	; 0xfffffd00
    1d2c:	2e677261 	cdpcs	2, 6, cr7, cr7, cr1, {3}
    1d30:	00020068 	andeq	r0, r2, r8, rrx
    1d34:	69707200 	ldmdbvs	r0!, {r9, ip, sp, lr}^
    1d38:	0300682e 	movweq	r6, #2094	; 0x82e
    1d3c:	623c0000 	eorsvs	r0, ip, #0, 0
    1d40:	746c6975 	strbtvc	r6, [ip], #-2421	; 0xfffff68b
    1d44:	3e6e692d 	vmulcc.f16	s13, s28, s27	; <UNPREDICTABLE>
    1d48:	00000000 	andeq	r0, r0, r0
    1d4c:	702d6176 	eorvc	r6, sp, r6, ror r1
    1d50:	746e6972 	strbtvc	r6, [lr], #-2418	; 0xfffff68e
    1d54:	00682e6b 	rsbeq	r2, r8, fp, ror #28
    1d58:	00000001 	andeq	r0, r0, r1
    1d5c:	05002205 	streq	r2, [r0, #-517]	; 0xfffffdfb
    1d60:	00934c02 	addseq	r4, r3, r2, lsl #24
    1d64:	01061700 	tsteq	r6, r0, lsl #14
    1d68:	68060505 	stmdavs	r6, {r0, r2, r8, sl}
    1d6c:	09051413 	stmdbeq	r5, {r0, r1, r4, sl, ip}
    1d70:	0612054b 	ldreq	r0, [r2], -fp, asr #10
    1d74:	06050501 	streq	r0, [r5], -r1, lsl #10
    1d78:	660616bb 			; <UNDEFINED> instruction: 0x660616bb
    1d7c:	01053406 	tsteq	r5, r6, lsl #8
    1d80:	02661306 	rsbeq	r1, r6, #402653184	; 0x18000000
    1d84:	01010008 	tsteq	r1, r8
    1d88:	000000c7 	andeq	r0, r0, r7, asr #1
    1d8c:	00790003 	rsbseq	r0, r9, r3
    1d90:	01020000 	mrseq	r0, (UNDEF: 2)
    1d94:	000d0efb 	strdeq	r0, [sp], -fp
    1d98:	01010101 	tsteq	r1, r1, lsl #2
    1d9c:	01000000 	mrseq	r0, (UNDEF: 0)
    1da0:	2e010000 	cdpcs	0, 0, cr0, cr1, cr0, {0}
    1da4:	62696c2f 	rsbvs	r6, r9, #12032	; 0x2f00
    1da8:	552f0063 	strpl	r0, [pc, #-99]!	; 1d4d <__code_start__-0x62b3>
    1dac:	73726573 	cmnvc	r2, #482344960	; 0x1cc00000
    1db0:	6d616a2f 	vstmdbvs	r1!, {s13-s59}
    1db4:	442f6569 	strtmi	r6, [pc], #-1385	; 1dbc <__code_start__-0x6244>
    1db8:	6d75636f 	ldclvs	3, cr6, [r5, #-444]!	; 0xfffffe44
    1dbc:	73746e65 	cmnvc	r4, #1616	; 0x650
    1dc0:	3153432f 	cmpcc	r3, pc, lsr #6
    1dc4:	2f453034 	svccs	0x00453034
    1dc8:	34317363 	ldrtcc	r7, [r1], #-867	; 0xfffffc9d
    1dcc:	662d4530 			; <UNDEFINED> instruction: 0x662d4530
    1dd0:	6c616e69 	stclvs	14, cr6, [r1], #-420	; 0xfffffe5c
    1dd4:	6f72702d 	svcvs	0x0072702d
    1dd8:	7463656a 	strbtvc	r6, [r3], #-1386	; 0xfffffa96
    1ddc:	62696c2f 	rsbvs	r6, r9, #12032	; 0x2f00
    1de0:	34322d73 	ldrtcc	r2, [r2], #-3443	; 0xfffff28d
    1de4:	2f786c30 	svccs	0x00786c30
    1de8:	7062696c 	rsbvc	r6, r2, ip, ror #18
    1dec:	6e692f69 	cdpvs	15, 6, cr2, cr9, cr9, {3}
    1df0:	64756c63 	ldrbtvs	r6, [r5], #-3171	; 0xfffff39d
    1df4:	70000065 	andvc	r0, r0, r5, rrx
    1df8:	2e6b7475 	mcrcs	4, 3, r7, cr11, cr5, {3}
    1dfc:	00010063 	andeq	r0, r1, r3, rrx
    1e00:	69707200 	ldmdbvs	r0!, {r9, ip, sp, lr}^
    1e04:	0200682e 	andeq	r6, r0, #3014656	; 0x2e0000
    1e08:	05000000 	streq	r0, [r0, #-0]
    1e0c:	02050022 	andeq	r0, r5, #34, 0	; 0x22
    1e10:	000093a4 	andeq	r9, r0, r4, lsr #7
    1e14:	05010615 	streq	r0, [r1, #-1557]	; 0xfffff9eb
    1e18:	054b0605 	strbeq	r0, [fp, #-1541]	; 0xfffff9fb
    1e1c:	0402000b 	streq	r0, [r2], #-11
    1e20:	05050101 	streq	r0, [r5, #-257]	; 0xfffffeff
    1e24:	01040200 	mrseq	r0, R12_usr
    1e28:	09052e06 	stmdbeq	r5, {r1, r2, r9, sl, fp, sp}
    1e2c:	02040200 	andeq	r0, r4, #0, 4
    1e30:	0f054b06 	svceq	0x00054b06
    1e34:	02040200 	andeq	r0, r4, #0, 4
    1e38:	00100565 	andseq	r0, r0, r5, ror #10
    1e3c:	06020402 	streq	r0, [r2], -r2, lsl #8
    1e40:	04020001 	streq	r0, [r2], #-1
    1e44:	05052e02 	streq	r2, [r5, #-3586]	; 0xfffff1fe
    1e48:	01053206 	tsteq	r5, r6, lsl #4
    1e4c:	06021306 	streq	r1, [r2], -r6, lsl #6
    1e50:	15010100 	strne	r0, [r1, #-256]	; 0xffffff00
    1e54:	03000007 	movweq	r0, #7
    1e58:	00011300 	andeq	r1, r1, r0, lsl #6
    1e5c:	fb010200 	blx	42666 <__bss_end__+0x37d4e>
    1e60:	01000d0e 	tsteq	r0, lr, lsl #26
    1e64:	00010101 	andeq	r0, r1, r1, lsl #2
    1e68:	00010000 	andeq	r0, r1, r0
    1e6c:	2f2e0100 	svccs	0x002e0100
    1e70:	6362696c 	cmnvs	r2, #108, 18	; 0x1b0000
    1e74:	73752f00 	cmnvc	r5, #0, 30
    1e78:	6f6c2f72 	svcvs	0x006c2f72
    1e7c:	2f6c6163 	svccs	0x006c6163
    1e80:	6c6c6543 	cfstr64vs	mvdx6, [ip], #-268	; 0xfffffef4
    1e84:	612f7261 			; <UNDEFINED> instruction: 0x612f7261
    1e88:	6e2d6d72 	mcrvs	13, 1, r6, cr13, cr2, {3}
    1e8c:	2d656e6f 	stclcs	14, cr6, [r5, #-444]!	; 0xfffffe44
    1e90:	69626165 	stmdbvs	r2!, {r0, r2, r5, r6, r8, sp, lr}^
    1e94:	7365742d 	cmnvc	r5, #754974720	; 0x2d000000
    1e98:	2d392f74 	ldccs	15, cr2, [r9, #-464]!	; 0xfffffe30
    1e9c:	39313032 	ldmdbcc	r1!, {r1, r4, r5, ip, sp}
    1ea0:	632d3471 			; <UNDEFINED> instruction: 0x632d3471
    1ea4:	37303173 			; <UNDEFINED> instruction: 0x37303173
    1ea8:	696c2f65 	stmdbvs	ip!, {r0, r2, r5, r6, r8, r9, sl, fp, sp}^
    1eac:	63672f62 	cmnvs	r7, #392	; 0x188
    1eb0:	72612f63 	rsbvc	r2, r1, #396	; 0x18c
    1eb4:	6f6e2d6d 	svcvs	0x006e2d6d
    1eb8:	652d656e 	strvs	r6, [sp, #-1390]!	; 0xfffffa92
    1ebc:	2f696261 	svccs	0x00696261
    1ec0:	2e322e39 	mrccs	14, 1, r2, cr2, cr9, {1}
    1ec4:	6e692f31 	mcrvs	15, 3, r2, cr9, cr1, {1}
    1ec8:	64756c63 	ldrbtvs	r6, [r5], #-3171	; 0xfffff39d
    1ecc:	552f0065 	strpl	r0, [pc, #-101]!	; 1e6f <__code_start__-0x6191>
    1ed0:	73726573 	cmnvc	r2, #482344960	; 0x1cc00000
    1ed4:	6d616a2f 	vstmdbvs	r1!, {s13-s59}
    1ed8:	442f6569 	strtmi	r6, [pc], #-1385	; 1ee0 <__code_start__-0x6120>
    1edc:	6d75636f 	ldclvs	3, cr6, [r5, #-444]!	; 0xfffffe44
    1ee0:	73746e65 	cmnvc	r4, #1616	; 0x650
    1ee4:	3153432f 	cmpcc	r3, pc, lsr #6
    1ee8:	2f453034 	svccs	0x00453034
    1eec:	34317363 	ldrtcc	r7, [r1], #-867	; 0xfffffc9d
    1ef0:	662d4530 			; <UNDEFINED> instruction: 0x662d4530
    1ef4:	6c616e69 	stclvs	14, cr6, [r1], #-420	; 0xfffffe5c
    1ef8:	6f72702d 	svcvs	0x0072702d
    1efc:	7463656a 	strbtvc	r6, [r3], #-1386	; 0xfffffa96
    1f00:	62696c2f 	rsbvs	r6, r9, #12032	; 0x2f00
    1f04:	34322d73 	ldrtcc	r2, [r2], #-3443	; 0xfffff28d
    1f08:	2f786c30 	svccs	0x00786c30
    1f0c:	7062696c 	rsbvc	r6, r2, ip, ror #18
    1f10:	6e692f69 	cdpvs	15, 6, cr2, cr9, cr9, {3}
    1f14:	64756c63 	ldrbtvs	r6, [r5], #-3171	; 0xfffff39d
    1f18:	76000065 	strvc	r0, [r0], -r5, rrx
    1f1c:	72702d61 	rsbsvc	r2, r0, #6208	; 0x1840
    1f20:	6b746e69 	blvs	1d1d8cc <__bss_end__+0x1d12fb4>
    1f24:	0100632e 	tsteq	r0, lr, lsr #6
    1f28:	74730000 	ldrbtvc	r0, [r3], #-0
    1f2c:	746e6964 	strbtvc	r6, [lr], #-2404	; 0xfffff69c
    1f30:	6363672d 	cmnvs	r3, #11796480	; 0xb40000
    1f34:	0200682e 	andeq	r6, r0, #3014656	; 0x2e0000
    1f38:	70720000 	rsbsvc	r0, r2, r0
    1f3c:	00682e69 	rsbeq	r2, r8, r9, ror #28
    1f40:	72000003 	andvc	r0, r0, #3, 0
    1f44:	692d6970 	pushvs	{r4, r5, r6, r8, fp, sp, lr}
    1f48:	7265746e 	rsbvc	r7, r5, #1845493760	; 0x6e000000
    1f4c:	2e6c616e 	powcsez	f6, f4, #0.5
    1f50:	00030068 	andeq	r0, r3, r8, rrx
    1f54:	64747300 	ldrbtvs	r7, [r4], #-768	; 0xfffffd00
    1f58:	2e677261 	cdpcs	2, 6, cr7, cr7, cr1, {3}
    1f5c:	00020068 	andeq	r0, r2, r8, rrx
    1f60:	75623c00 	strbvc	r3, [r2, #-3072]!	; 0xfffff400
    1f64:	2d746c69 	ldclcs	12, cr6, [r4, #-420]!	; 0xfffffe5c
    1f68:	003e6e69 	eorseq	r6, lr, r9, ror #28
    1f6c:	00000000 	andeq	r0, r0, r0
    1f70:	05001b05 	streq	r1, [r0, #-2821]	; 0xfffff4fb
    1f74:	0093d802 	addseq	sp, r3, r2, lsl #16
    1f78:	01260300 			; <UNDEFINED> instruction: 0x01260300
    1f7c:	05011d05 	streq	r1, [r1, #-3333]	; 0xfffff2fb
    1f80:	0501062d 	streq	r0, [r1, #-1581]	; 0xfffff9d3
    1f84:	054a2e01 	strbeq	r2, [sl, #-3585]	; 0xfffff1ff
    1f88:	05510633 	ldrbeq	r0, [r1, #-1587]	; 0xfffff9cd
    1f8c:	06051302 	streq	r1, [r5], -r2, lsl #6
    1f90:	02050106 	andeq	r0, r5, #-2147483647	; 0x80000001
    1f94:	08053006 	stmdaeq	r5, {r1, r2, ip, sp}
    1f98:	01040200 	mrseq	r0, R12_usr
    1f9c:	00020501 	andeq	r0, r2, r1, lsl #10
    1fa0:	06010402 	streq	r0, [r1], -r2, lsl #8
    1fa4:	00030501 	andeq	r0, r3, r1, lsl #10
    1fa8:	06020402 	streq	r0, [r2], -r2, lsl #8
    1fac:	0008052f 	andeq	r0, r8, pc, lsr #10
    1fb0:	06020402 	streq	r0, [r2], -r2, lsl #8
    1fb4:	00150501 	andseq	r0, r5, r1, lsl #10
    1fb8:	06020402 	streq	r0, [r2], -r2, lsl #8
    1fbc:	00180549 	andseq	r0, r8, r9, asr #10
    1fc0:	06020402 	streq	r0, [r2], -r2, lsl #8
    1fc4:	04020001 	streq	r0, [r2], #-1
    1fc8:	02052e02 	andeq	r2, r5, #2, 28
    1fcc:	05053006 	streq	r3, [r5, #-6]
    1fd0:	02050106 	andeq	r0, r5, #-2147483647	; 0x80000001
    1fd4:	01054b06 	tsteq	r5, r6, lsl #22
    1fd8:	3e051306 	cdpcc	3, 0, cr1, cr5, cr6, {0}
    1fdc:	02053106 	andeq	r3, r5, #-2147483647	; 0x80000001
    1fe0:	060e0514 			; <UNDEFINED> instruction: 0x060e0514
    1fe4:	2e060501 	cfsh32cs	mvfx0, mvfx6, #1
    1fe8:	2f060205 	svccs	0x00060205
    1fec:	01060405 	tsteq	r6, r5, lsl #8
    1ff0:	2f060305 	svccs	0x00060305
    1ff4:	01061105 	tsteq	r6, r5, lsl #2
    1ff8:	052e0905 	streq	r0, [lr, #-2309]!	; 0xfffff6fb
    1ffc:	15300602 	ldrne	r0, [r0, #-1538]!	; 0xfffff9fe
    2000:	01060705 	tsteq	r6, r5, lsl #14
    2004:	052e0205 	streq	r0, [lr, #-517]!	; 0xfffffdfb
    2008:	0402000b 	streq	r0, [r2], #-11
    200c:	052e0601 	streq	r0, [lr, #-1537]!	; 0xfffff9ff
    2010:	04020002 	streq	r0, [r2], #-2
    2014:	05010601 	streq	r0, [r1, #-1537]	; 0xfffff9ff
    2018:	04020003 	streq	r0, [r2], #-3
    201c:	052f0603 	streq	r0, [pc, #-1539]!	; 1a21 <__code_start__-0x65df>
    2020:	0402000c 	streq	r0, [r2], #-12
    2024:	05010603 	streq	r0, [r1, #-1539]	; 0xfffff9fd
    2028:	0402000a 	streq	r0, [r2], #-10
    202c:	17052e03 	strne	r2, [r5, -r3, lsl #28]
    2030:	03040200 	movweq	r0, #16896	; 0x4200
    2034:	02002d06 	andeq	r2, r0, #384	; 0x180
    2038:	01060304 	tsteq	r6, r4, lsl #6
    203c:	30060205 	andcc	r0, r6, r5, lsl #4
    2040:	01060905 	tsteq	r6, r5, lsl #18
    2044:	0602052e 	streq	r0, [r2], -lr, lsr #10
    2048:	06010530 			; <UNDEFINED> instruction: 0x06010530
    204c:	061d0513 			; <UNDEFINED> instruction: 0x061d0513
    2050:	2e01ad03 	cdpcs	13, 0, cr10, cr1, cr3, {0}
    2054:	05130905 	ldreq	r0, [r3, #-2309]	; 0xfffff6fb
    2058:	05130601 	ldreq	r0, [r3, #-1537]	; 0xfffff9ff
    205c:	06680627 	strbteq	r0, [r8], -r7, lsr #12
    2060:	06020501 	streq	r0, [r2], -r1, lsl #10
    2064:	0604052f 	streq	r0, [r4], -pc, lsr #10
    2068:	06090501 	streq	r0, [r9], -r1, lsl #10
    206c:	0610056a 	ldreq	r0, [r0], -sl, ror #10
    2070:	22054a01 	andcs	r4, r5, #4096	; 0x1000
    2074:	d701052e 	strle	r0, [r1, -lr, lsr #10]
    2078:	46060305 	strmi	r0, [r6], -r5, lsl #6
    207c:	01060505 	tsteq	r6, r5, lsl #10
    2080:	0627052e 	strteq	r0, [r7], -lr, lsr #10
    2084:	050106a3 	streq	r0, [r1, #-1699]	; 0xfffff95d
    2088:	052f0609 	streq	r0, [pc, #-1545]!	; 1a87 <__code_start__-0x6579>
    208c:	05010610 	streq	r0, [r1, #-1552]	; 0xfffff9f0
    2090:	49052f01 	stmdbmi	r5, {r0, r8, r9, sl, fp, sp}
    2094:	7ec90306 	cdpvc	3, 12, cr0, cr9, cr6, {0}
    2098:	0501062e 	streq	r0, [r1, #-1582]	; 0xfffff9d2
    209c:	05a00602 	streq	r0, [r0, #1538]!	; 0x602
    20a0:	05010604 	streq	r0, [r1, #-1540]	; 0xfffff9fc
    20a4:	052f0603 	streq	r0, [pc, #-1539]!	; 1aa9 <__code_start__-0x6557>
    20a8:	05010609 	streq	r0, [r1, #-1545]	; 0xfffff9f7
    20ac:	13300602 	teqne	r0, #2097152	; 0x200000
    20b0:	01060b05 	tsteq	r6, r5, lsl #22
    20b4:	30060205 	andcc	r0, r6, r5, lsl #4
    20b8:	04052e06 	streq	r2, [r5], #-3590	; 0xfffff1fa
    20bc:	15240206 	strne	r0, [r4, #-518]!	; 0xfffffdfa
    20c0:	060f0513 			; <UNDEFINED> instruction: 0x060f0513
    20c4:	06052e01 	streq	r2, [r5], -r1, lsl #28
    20c8:	0605054a 	streq	r0, [r5], -sl, asr #10
    20cc:	0905134b 	stmdbeq	r5, {r0, r1, r3, r6, r8, r9, ip}
    20d0:	05050106 	streq	r0, [r5, #-262]	; 0xfffffefa
    20d4:	0b052f06 	bleq	14dcf4 <__bss_end__+0x1433dc>
    20d8:	0d051006 	stceq	0, cr1, [r5, #-24]	; 0xffffffe8
    20dc:	01040200 	mrseq	r0, R12_usr
    20e0:	0004052c 	andeq	r0, r4, ip, lsr #10
    20e4:	06010402 	streq	r0, [r1], -r2, lsl #8
    20e8:	00050534 	andeq	r0, r5, r4, lsr r5
    20ec:	13010402 	movwne	r0, #5122	; 0x1402
    20f0:	02001b05 	andeq	r1, r0, #5120	; 0x1400
    20f4:	01060104 	tsteq	r6, r4, lsl #2
    20f8:	02000705 	andeq	r0, r0, #1310720	; 0x140000
    20fc:	05d60104 	ldrbeq	r0, [r6, #260]	; 0x104
    2100:	04020018 	streq	r0, [r2], #-24	; 0xffffffe8
    2104:	0a052e01 	beq	14d910 <__bss_end__+0x142ff8>
    2108:	01040200 	mrseq	r0, R12_usr
    210c:	000b054a 	andeq	r0, fp, sl, asr #10
    2110:	06010402 	streq	r0, [r1], -r2, lsl #8
    2114:	000e052f 	andeq	r0, lr, pc, lsr #10
    2118:	06010402 	streq	r0, [r1], -r2, lsl #8
    211c:	0004052e 	andeq	r0, r4, lr, lsr #10
    2120:	2e010402 	cdpcs	4, 0, cr0, cr1, cr2, {0}
    2124:	06054b06 	streq	r4, [r5], -r6, lsl #22
    2128:	05050106 	streq	r0, [r5, #-262]	; 0xfffffefa
    212c:	0a052f06 	beq	14dd4c <__bss_end__+0x143434>
    2130:	07050106 	streq	r0, [r5, -r6, lsl #2]
    2134:	0d052e4a 	stceq	14, cr2, [r5, #-296]	; 0xfffffed8
    2138:	4a2e7603 	bmi	b9f94c <__bss_end__+0xb95034>
    213c:	050d0b05 	streq	r0, [sp, #-2821]	; 0xfffff4fb
    2140:	0402000d 	streq	r0, [r2], #-13
    2144:	14030601 	strne	r0, [r3], #-1537	; 0xfffff9ff
    2148:	0011052e 	andseq	r0, r1, lr, lsr #10
    214c:	13010402 	movwne	r0, #5122	; 0x1402
    2150:	02002d05 	andeq	r2, r0, #320	; 0x140
    2154:	01060104 	tsteq	r6, r4, lsl #2
    2158:	02002a05 	andeq	r2, r0, #20480	; 0x5000
    215c:	052e0104 	streq	r0, [lr, #-260]!	; 0xfffffefc
    2160:	04020016 	streq	r0, [r2], #-22	; 0xffffffea
    2164:	14054a01 	strne	r4, [r5], #-2561	; 0xfffff5ff
    2168:	01040200 	mrseq	r0, R12_usr
    216c:	0d054b06 	vstreq	d4, [r5, #-24]	; 0xffffffe8
    2170:	01040200 	mrseq	r0, R12_usr
    2174:	02000106 	andeq	r0, r0, #-2147483647	; 0x80000001
    2178:	064a0104 	strbeq	r0, [sl], -r4, lsl #2
    217c:	0612052f 	ldreq	r0, [r2], -pc, lsr #10
    2180:	0d054a01 	vstreq	s8, [r5, #-4]
    2184:	12052f06 	andne	r2, r5, #6, 30
    2188:	19050106 	stmdbne	r5, {r1, r2, r8}
    218c:	04054b06 	streq	r4, [r5], #-2822	; 0xfffff4fa
    2190:	02040200 	andeq	r0, r4, #0, 4
    2194:	00011103 	andeq	r1, r1, r3, lsl #2
    2198:	01020402 	tsteq	r2, r2, lsl #8
    219c:	02000205 	andeq	r0, r0, #1342177280	; 0x50000000
    21a0:	05150204 	ldreq	r0, [r5, #-516]	; 0xfffffdfc
    21a4:	04020009 	streq	r0, [r2], #-9
    21a8:	00010602 	andeq	r0, r1, r2, lsl #12
    21ac:	4a020402 	bmi	831bc <__bss_end__+0x788a4>
    21b0:	02000105 	andeq	r0, r0, #1073741825	; 0x40000001
    21b4:	059f0204 	ldreq	r0, [pc, #516]	; 23c0 <__code_start__-0x5c40>
    21b8:	6e030604 	cfmadd32vs	mvax0, mvfx0, mvfx3, mvfx4
    21bc:	0609054a 	streq	r0, [r9], -sl, asr #10
    21c0:	06040501 	streq	r0, [r4], -r1, lsl #10
    21c4:	0606052f 	streq	r0, [r6], -pc, lsr #10
    21c8:	2f040511 	svccs	0x00040511
    21cc:	63030b05 	movwvs	r0, #15109	; 0x3b05
    21d0:	0019052e 	andseq	r0, r9, lr, lsr #10
    21d4:	06010402 	streq	r0, [r1], -r2, lsl #8
    21d8:	052e2403 	streq	r2, [lr, #-1027]!	; 0xfffffbfd
    21dc:	0402001a 	streq	r0, [r2], #-26	; 0xffffffe6
    21e0:	28051301 	stmdacs	r5, {r0, r8, r9, ip}
    21e4:	01040200 	mrseq	r0, R12_usr
    21e8:	25050106 	strcs	r0, [r5, #-262]	; 0xfffffefa
    21ec:	01040200 	mrseq	r0, R12_usr
    21f0:	001f052e 	andseq	r0, pc, lr, lsr #10
    21f4:	4a010402 	bmi	43204 <__bss_end__+0x388ec>
    21f8:	02000b05 	andeq	r0, r0, #5120	; 0x1400
    21fc:	4b060104 	blmi	182614 <__bss_end__+0x177cfc>
    2200:	02000405 	andeq	r0, r0, #83886080	; 0x5000000
    2204:	01060104 	tsteq	r6, r4, lsl #2
    2208:	01040200 	mrseq	r0, R12_usr
    220c:	0402004a 	streq	r0, [r2], #-74	; 0xffffffb6
    2210:	004e0601 	subeq	r0, lr, r1, lsl #12
    2214:	01010402 	tsteq	r1, r2, lsl #8
    2218:	01040200 	mrseq	r0, R12_usr
    221c:	04020001 	streq	r0, [r2], #-1
    2220:	02000101 	andeq	r0, r0, #1073741824	; 0x40000000
    2224:	2e060104 	adfcss	f0, f6, f4
    2228:	01040200 	mrseq	r0, R12_usr
    222c:	04020066 	streq	r0, [r2], #-102	; 0xffffff9a
    2230:	02002e01 	andeq	r2, r0, #1, 28
    2234:	4a060104 	bmi	18264c <__bss_end__+0x177d34>
    2238:	a6034805 	strge	r4, [r3], -r5, lsl #16
    223c:	0520087f 	streq	r0, [r0, #-2175]!	; 0xfffff781
    2240:	06011305 	streq	r1, [r1], -r5, lsl #6
    2244:	0402002e 	streq	r0, [r2], #-46	; 0xffffffd2
    2248:	002e0602 	eoreq	r0, lr, r2, lsl #12
    224c:	01020402 	tsteq	r2, r2, lsl #8
    2250:	02040200 	andeq	r0, r4, #0, 4
    2254:	00110513 	andseq	r0, r1, r3, lsl r5
    2258:	06020402 	streq	r0, [r2], -r2, lsl #8
    225c:	00050501 	andeq	r0, r5, r1, lsl #10
    2260:	06020402 	streq	r0, [r2], -r2, lsl #8
    2264:	0007054b 	andeq	r0, r7, fp, asr #10
    2268:	06020402 	streq	r0, [r2], -r2, lsl #8
    226c:	06090501 	streq	r0, [r9], -r1, lsl #10
    2270:	060e054b 	streq	r0, [lr], -fp, asr #10
    2274:	00480501 	subeq	r0, r8, r1, lsl #10
    2278:	62010402 	andvs	r0, r1, #33554432	; 0x2000000
    227c:	02000505 	andeq	r0, r0, #20971520	; 0x1400000
    2280:	4b060104 	blmi	182698 <__bss_end__+0x177d80>
    2284:	01040200 	mrseq	r0, R12_usr
    2288:	04020001 	streq	r0, [r2], #-1
    228c:	009e0601 	addseq	r0, lr, r1, lsl #12
    2290:	2e010402 	cdpcs	4, 0, cr0, cr1, cr2, {0}
    2294:	01040200 	mrseq	r0, R12_usr
    2298:	3a052e06 	bcc	14dab8 <__bss_end__+0x1431a0>
    229c:	d601e303 	strle	lr, [r1], -r3, lsl #6
    22a0:	02050106 	andeq	r0, r5, #-2147483647	; 0x80000001
    22a4:	0514bb06 	ldreq	fp, [r4, #-2822]	; 0xfffff4fa
    22a8:	05010604 	streq	r0, [r1, #-1540]	; 0xfffff9fc
    22ac:	02056408 	andeq	r6, r5, #8, 8	; 0x8000000
    22b0:	05053406 	streq	r3, [r5, #-1030]	; 0xfffffbfa
    22b4:	02050106 	andeq	r0, r5, #-2147483647	; 0x80000001
    22b8:	12054c06 	andne	r4, r5, #1536	; 0x600
    22bc:	054a0106 	strbeq	r0, [sl, #-262]	; 0xfffffefa
    22c0:	052f0602 	streq	r0, [pc, #-1538]!	; 1cc6 <__code_start__-0x633a>
    22c4:	4a010611 	bmi	43b10 <__bss_end__+0x391f8>
    22c8:	30060205 	andcc	r0, r6, r5, lsl #4
    22cc:	06ba0613 	ssateq	r0, #27, r3, lsl #12
    22d0:	1368682f 	cmnne	r8, #3080192	; 0x2f0000
    22d4:	010605f5 	strdeq	r0, [r6, -r5]
    22d8:	01060a05 	tsteq	r6, r5, lsl #20
    22dc:	2e2e0205 	cdpcs	2, 2, cr0, cr14, cr5, {0}
    22e0:	03060305 	movweq	r0, #25349	; 0x6305
    22e4:	0505016e 	streq	r0, [r5, #-366]	; 0xfffffe92
    22e8:	08050106 	stmdaeq	r5, {r1, r2, r8}
    22ec:	0603052e 	streq	r0, [r3], -lr, lsr #10
    22f0:	0605054b 	streq	r0, [r5], -fp, asr #10
    22f4:	1f052e01 	svcne	0x00052e01
    22f8:	02040200 	andeq	r0, r4, #0, 4
    22fc:	2e110306 	cdpcs	3, 1, cr0, cr1, cr6, {0}
    2300:	02002005 	andeq	r2, r0, #5, 0
    2304:	01060204 	tsteq	r6, r4, lsl #4
    2308:	02001105 	andeq	r1, r0, #1073741825	; 0x40000001
    230c:	2e060104 	adfcss	f0, f6, f4
    2310:	02000205 	andeq	r0, r0, #1342177280	; 0x50000000
    2314:	01060104 	tsteq	r6, r4, lsl #2
    2318:	4b060305 	blmi	182f34 <__bss_end__+0x17861c>
    231c:	01060905 	tsteq	r6, r5, lsl #18
    2320:	05660505 	strbeq	r0, [r6, #-1285]!	; 0xfffffafb
    2324:	052f0604 	streq	r0, [pc, #-1540]!	; 1d28 <__code_start__-0x62d8>
    2328:	0501060b 	streq	r0, [r1, #-1547]	; 0xfffff9f5
    232c:	679f0602 	ldrvs	r0, [pc, r2, lsl #12]
    2330:	13060105 	movwne	r0, #24837	; 0x6105
    2334:	40052e66 	andmi	r2, r5, r6, ror #28
    2338:	02050006 	andeq	r0, r5, #6, 0
    233c:	000097d8 	ldrdeq	r9, [r0], -r8
    2340:	017ee303 	cmneq	lr, r3, lsl #6
    2344:	02050106 	andeq	r0, r5, #-2147483647	; 0x80000001
    2348:	1e059f06 	cdpne	15, 0, cr9, cr5, cr6, {0}
    234c:	12050106 	andne	r0, r5, #-2147483647	; 0x80000001
    2350:	0605052e 	streq	r0, [r5], -lr, lsr #10
    2354:	1402052f 	strne	r0, [r2], #-1327	; 0xfffffad1
    2358:	01060905 	tsteq	r6, r5, lsl #18
    235c:	4b060505 	blmi	183778 <__bss_end__+0x178e60>
    2360:	05130205 	ldreq	r0, [r3, #-517]	; 0xfffffdfb
    2364:	050d0608 	streq	r0, [sp, #-1544]	; 0xfffff9f8
    2368:	04053302 	streq	r3, [r5], #-770	; 0xfffffcfe
    236c:	0f054c06 	svceq	0x00054c06
    2370:	09050106 	stmdbeq	r5, {r1, r2, r8}
    2374:	0608052e 	streq	r0, [r8], -lr, lsr #10
    2378:	0602052c 	streq	r0, [r2], -ip, lsr #10
    237c:	000d052e 	andeq	r0, sp, lr, lsr #10
    2380:	4a010402 	bmi	43390 <__bss_end__+0x38a78>
    2384:	4b060305 	blmi	182fa0 <__bss_end__+0x178688>
    2388:	01060505 	tsteq	r6, r5, lsl #10
    238c:	4d060805 	stcmi	8, cr0, [r6, #-20]	; 0xffffffec
    2390:	01060e05 	tsteq	r6, r5, lsl #28
    2394:	052e0a05 	streq	r0, [lr, #-2565]!	; 0xfffff5fb
    2398:	052f0604 	streq	r0, [pc, #-1540]!	; 1d9c <__code_start__-0x6264>
    239c:	05010609 	streq	r0, [r1, #-1545]	; 0xfffff9f7
    23a0:	052f0604 	streq	r0, [pc, #-1540]!	; 1da4 <__code_start__-0x625c>
    23a4:	2e010607 	cfmadd32cs	mvax0, mvfx0, mvfx1, mvfx7
    23a8:	30060405 	andcc	r0, r6, r5, lsl #8
    23ac:	01060705 	tsteq	r6, r5, lsl #14
    23b0:	30060405 	andcc	r0, r6, r5, lsl #8
    23b4:	0d051413 	cfstrseq	mvf1, [r5, #-76]	; 0xffffffb4
    23b8:	09051006 	stmdbeq	r5, {r1, r2, ip}
    23bc:	12053006 	andne	r3, r5, #6, 0
    23c0:	0a050106 	beq	1427e0 <__bss_end__+0x137ec8>
    23c4:	6609052e 	strvs	r0, [r9], -lr, lsr #10
    23c8:	4b060505 	blmi	1837e4 <__bss_end__+0x178ecc>
    23cc:	01061205 	tsteq	r6, r5, lsl #4
    23d0:	052e1605 	streq	r1, [lr, #-1541]!	; 0xfffff9fb
    23d4:	05052e0b 	streq	r2, [r5, #-3595]	; 0xfffff1f5
    23d8:	08052f06 	stmdaeq	r5, {r1, r2, r8, r9, sl, fp, sp}
    23dc:	052e0106 	streq	r0, [lr, #-262]!	; 0xfffffefa
    23e0:	01300604 	teqeq	r0, r4, lsl #12
    23e4:	0015014a 	andseq	r0, r5, sl, asr #2
    23e8:	02010402 	andeq	r0, r1, #33554432	; 0x2000000
    23ec:	02000f36 	andeq	r0, r0, #216	; 0xd8
    23f0:	00010104 	andeq	r0, r1, r4, lsl #2
    23f4:	d6010402 	strle	r0, [r1], -r2, lsl #8
    23f8:	13341105 	teqne	r4, #1073741825	; 0x40000001
    23fc:	04020001 	streq	r0, [r2], #-1
    2400:	00ba0602 	adcseq	r0, sl, r2, lsl #12
    2404:	06030402 	streq	r0, [r3], -r2, lsl #8
    2408:	040200ba 	streq	r0, [r2], #-186	; 0xffffff46
    240c:	02000103 	andeq	r0, r0, #-1073741824	; 0xc0000000
    2410:	05140304 	ldreq	r0, [r4, #-772]	; 0xfffffcfc
    2414:	04020015 	streq	r0, [r2], #-21	; 0xffffffeb
    2418:	05010603 	streq	r0, [r1, #-1539]	; 0xfffff9fd
    241c:	04020011 	streq	r0, [r2], #-17	; 0xffffffef
    2420:	052f0603 	streq	r0, [pc, #-1539]!	; 1e25 <__code_start__-0x61db>
    2424:	0402001a 	streq	r0, [r2], #-26	; 0xffffffe6
    2428:	05010603 	streq	r0, [r1, #-1539]	; 0xfffff9fd
    242c:	04020011 	streq	r0, [r2], #-17	; 0xffffffef
    2430:	00d70603 	sbcseq	r0, r7, r3, lsl #12
    2434:	13030402 	movwne	r0, #13314	; 0x3402
    2438:	03040200 	movweq	r0, #16896	; 0x4200
    243c:	04020014 	streq	r0, [r2], #-20	; 0xffffffec
    2440:	02006703 	andeq	r6, r0, #786432	; 0xc0000
    2444:	05680304 	strbeq	r0, [r8, #-772]!	; 0xfffffcfc
    2448:	04020014 	streq	r0, [r2], #-20	; 0xffffffec
    244c:	05010603 	streq	r0, [r1, #-1539]	; 0xfffff9fd
    2450:	04020013 	streq	r0, [r2], #-19	; 0xffffffed
    2454:	18058203 	stmdane	r5, {r0, r1, r9, pc}
    2458:	1b054e06 	blne	155c78 <__bss_end__+0x14b360>
    245c:	1a050106 	bne	14287c <__bss_end__+0x137f64>
    2460:	06090582 	streq	r0, [r9], -r2, lsl #11
    2464:	060d054b 	streq	r0, [sp], -fp, asr #10
    2468:	09052e01 	stmdbeq	r5, {r0, r9, sl, fp, sp}
    246c:	ba06f306 	blt	1bf08c <__bss_end__+0x1b4774>
    2470:	30061505 	andcc	r1, r6, r5, lsl #10
    2474:	01061805 	tsteq	r6, r5, lsl #16
    2478:	05661705 	strbeq	r1, [r6, #-1797]!	; 0xfffff8fb
    247c:	054b0619 	strbeq	r0, [fp, #-1561]	; 0xfffff9e7
    2480:	6f030615 	svcvs	0x00030615
    2484:	06110566 	ldreq	r0, [r1], -r6, ror #10
    2488:	05d60148 	ldrbeq	r0, [r6, #328]	; 0x148
    248c:	2e0b0309 	cdpcs	3, 0, cr0, cr11, cr9, {0}
    2490:	01060d05 	tsteq	r6, r5, lsl #26
    2494:	0609052e 	streq	r0, [r9], -lr, lsr #10
    2498:	05ba06f3 	ldreq	r0, [sl, #1779]!	; 0x6f3
    249c:	062f0615 			; <UNDEFINED> instruction: 0x062f0615
    24a0:	05667503 	strbeq	r7, [r6, #-1283]!	; 0xfffffafd
    24a4:	13030619 	movwne	r0, #13849	; 0x3619
    24a8:	0615054a 	ldreq	r0, [r5], -sl, asr #10
    24ac:	06666d03 	strbteq	r6, [r6], -r3, lsl #26
    24b0:	014a1503 	cmpeq	sl, r3, lsl #10
    24b4:	052e06ba 	streq	r0, [lr, #-1722]!	; 0xfffff946
    24b8:	0f030605 	svceq	0x00030605
    24bc:	060c0501 	streq	r0, [ip], -r1, lsl #10
    24c0:	06050501 	streq	r0, [r5], -r1, lsl #10
    24c4:	0609059f 			; <UNDEFINED> instruction: 0x0609059f
    24c8:	06050501 	streq	r0, [r5], -r1, lsl #10
    24cc:	050106a0 	streq	r0, [r1, #-1696]	; 0xfffff960
    24d0:	1d030604 	stcne	6, cr0, [r3, #-16]
    24d4:	06070501 	streq	r0, [r7], -r1, lsl #10
    24d8:	06040501 	streq	r0, [r4], -r1, lsl #10
    24dc:	03050531 	movweq	r0, #21809	; 0x5531
    24e0:	09052e64 	stmdbeq	r5, {r2, r5, r6, r9, sl, fp, sp}
    24e4:	05050106 	streq	r0, [r5, #-262]	; 0xfffffefa
    24e8:	30750806 	rsbscc	r0, r5, r6, lsl #16
    24ec:	01061c05 	tsteq	r6, r5, lsl #24
    24f0:	05820905 	streq	r0, [r2, #2309]	; 0x905
    24f4:	31f30605 	mvnscc	r0, r5, lsl #12
    24f8:	01061c05 	tsteq	r6, r5, lsl #24
    24fc:	05820905 	streq	r0, [r2, #2309]	; 0x905
    2500:	30f30605 	rscscc	r0, r3, r5, lsl #12
    2504:	01061b05 	tsteq	r6, r5, lsl #22
    2508:	05820905 	streq	r0, [r2, #2309]	; 0x905
    250c:	30f30605 	rscscc	r0, r3, r5, lsl #12
    2510:	01060705 	tsteq	r6, r5, lsl #14
    2514:	83060505 	movwhi	r0, #25861	; 0x6505
    2518:	06090530 			; <UNDEFINED> instruction: 0x06090530
    251c:	06050501 	streq	r0, [r5], -r1, lsl #10
    2520:	11057508 	tstne	r5, r8, lsl #10
    2524:	06220530 			; <UNDEFINED> instruction: 0x06220530
    2528:	06050501 	streq	r0, [r5], -r1, lsl #10
    252c:	8311054b 	tsthi	r1, #314572800	; 0x12c00000
    2530:	01830505 	orreq	r0, r3, r5, lsl #10
    2534:	0e05359e 	mcreq	5, 0, r3, cr5, cr14, {4}
    2538:	0a050106 	beq	142958 <__bss_end__+0x138040>
    253c:	052d062e 	streq	r0, [sp, #-1582]!	; 0xfffff9d2
    2540:	05010604 	streq	r0, [r1, #-1540]	; 0xfffff9fc
    2544:	04020013 	streq	r0, [r2], #-19	; 0xffffffed
    2548:	10054a01 	andne	r4, r5, r1, lsl #20
    254c:	01040200 	mrseq	r0, R12_usr
    2550:	0402002e 	streq	r0, [r2], #-46	; 0xffffffd2
    2554:	02056601 	andeq	r6, r5, #1048576	; 0x100000
    2558:	07051606 	streq	r1, [r5, -r6, lsl #12]
    255c:	02050106 	andeq	r0, r5, #-2147483647	; 0x80000001
    2560:	01054b06 	tsteq	r5, r6, lsl #22
    2564:	02661306 	rsbeq	r1, r6, #402653184	; 0x18000000
    2568:	0101001c 	tsteq	r1, ip, lsl r0
    256c:	000000a1 	andeq	r0, r0, r1, lsr #1
    2570:	00860003 	addeq	r0, r6, r3
    2574:	01020000 	mrseq	r0, (UNDEF: 2)
    2578:	000d0efb 	strdeq	r0, [sp], -fp
    257c:	01010101 	tsteq	r1, r1, lsl #2
    2580:	01000000 	mrseq	r0, (UNDEF: 0)
    2584:	2e010000 	cdpcs	0, 0, cr0, cr1, cr0, {0}
    2588:	6174732f 	cmnvs	r4, pc, lsr #6
    258c:	732d6666 			; <UNDEFINED> instruction: 0x732d6666
    2590:	2f006372 	svccs	0x00006372
    2594:	72657355 	rsbvc	r7, r5, #1409286145	; 0x54000001
    2598:	616a2f73 	smcvs	41715	; 0xa2f3
    259c:	2f65696d 	svccs	0x0065696d
    25a0:	75636f44 	strbvc	r6, [r3, #-3908]!	; 0xfffff0bc
    25a4:	746e656d 	strbtvc	r6, [lr], #-1389	; 0xfffffa93
    25a8:	53432f73 	movtpl	r2, #16243	; 0x3f73
    25ac:	45303431 	ldrmi	r3, [r0, #-1073]!	; 0xfffffbcf
    25b0:	3173632f 	cmncc	r3, pc, lsr #6
    25b4:	2d453034 	stclcs	0, cr3, [r5, #-208]	; 0xffffff30
    25b8:	616e6966 	cmnvs	lr, r6, ror #18
    25bc:	72702d6c 	rsbsvc	r2, r0, #108, 26	; 0x1b00
    25c0:	63656a6f 	cmnvs	r5, #454656	; 0x6f000
    25c4:	696c2f74 	stmdbvs	ip!, {r2, r4, r5, r6, r8, r9, sl, fp, sp}^
    25c8:	322d7362 	eorcc	r7, sp, #-2013265919	; 0x88000001
    25cc:	786c3034 	stmdavc	ip!, {r2, r4, r5, ip, sp}^
    25d0:	62696c2f 	rsbvs	r6, r9, #12032	; 0x2f00
    25d4:	692f6970 	stmdbvs	pc!, {r4, r5, r6, r8, fp, sp, lr}	; <UNPREDICTABLE>
    25d8:	756c636e 	strbvc	r6, [ip, #-878]!	; 0xfffffc92
    25dc:	00006564 	andeq	r6, r0, r4, ror #10
    25e0:	61656c63 	cmnvs	r5, r3, ror #24
    25e4:	65722d6e 	ldrbvs	r2, [r2, #-3438]!	; 0xfffff292
    25e8:	746f6f62 	strbtvc	r6, [pc], #-3938	; 25f0 <__code_start__-0x5a10>
    25ec:	0100632e 	tsteq	r0, lr, lsr #6
    25f0:	70720000 	rsbsvc	r0, r2, r0
    25f4:	00682e69 	rsbeq	r2, r8, r9, ror #28
    25f8:	00000002 	andeq	r0, r0, r2
    25fc:	05001905 	streq	r1, [r0, #-2309]	; 0xfffff6fb
    2600:	009ca002 	addseq	sl, ip, r2
    2604:	05051500 	streq	r1, [r5, #-1280]	; 0xfffffb00
    2608:	4b2f832f 	blmi	be32cc <__bss_end__+0xbd89b4>
    260c:	01000602 	tsteq	r0, r2, lsl #12
    2610:	0000bb01 	andeq	fp, r0, r1, lsl #22
    2614:	80000300 	andhi	r0, r0, r0, lsl #6
    2618:	02000000 	andeq	r0, r0, #0, 0
    261c:	0d0efb01 	vstreq	d15, [lr, #-4]
    2620:	01010100 	mrseq	r0, (UNDEF: 17)
    2624:	00000001 	andeq	r0, r0, r1
    2628:	01000001 	tsteq	r0, r1
    262c:	74732f2e 	ldrbtvc	r2, [r3], #-3886	; 0xfffff0d2
    2630:	2d666661 	stclcs	6, cr6, [r6, #-388]!	; 0xfffffe7c
    2634:	00637273 	rsbeq	r7, r3, r3, ror r2
    2638:	6573552f 	ldrbvs	r5, [r3, #-1327]!	; 0xfffffad1
    263c:	6a2f7372 	bvs	bdf40c <__bss_end__+0xbd4af4>
    2640:	65696d61 	strbvs	r6, [r9, #-3425]!	; 0xfffff29f
    2644:	636f442f 	cmnvs	pc, #788529152	; 0x2f000000
    2648:	6e656d75 	mcrvs	13, 3, r6, cr5, cr5, {3}
    264c:	432f7374 			; <UNDEFINED> instruction: 0x432f7374
    2650:	30343153 	eorscc	r3, r4, r3, asr r1
    2654:	73632f45 	cmnvc	r3, #276	; 0x114
    2658:	45303431 	ldrmi	r3, [r0, #-1073]!	; 0xfffffbcf
    265c:	6e69662d 	cdpvs	6, 6, cr6, cr9, cr13, {1}
    2660:	702d6c61 	eorvc	r6, sp, r1, ror #24
    2664:	656a6f72 	strbvs	r6, [sl, #-3954]!	; 0xfffff08e
    2668:	6c2f7463 	cfstrsvs	mvf7, [pc], #-396	; 24e4 <__code_start__-0x5b1c>
    266c:	2d736269 	lfmcs	f6, 2, [r3, #-420]!	; 0xfffffe5c
    2670:	6c303432 	cfldrsvs	mvf3, [r0], #-200	; 0xffffff38
    2674:	696c2f78 	stmdbvs	ip!, {r3, r4, r5, r6, r8, r9, sl, fp, sp}^
    2678:	2f697062 	svccs	0x00697062
    267c:	6c636e69 	stclvs	14, cr6, [r3], #-420	; 0xfffffe5c
    2680:	00656475 	rsbeq	r6, r5, r5, ror r4
    2684:	74736300 	ldrbtvc	r6, [r3], #-768	; 0xfffffd00
    2688:	2e747261 	cdpcs	2, 7, cr7, cr4, cr1, {3}
    268c:	00010063 	andeq	r0, r1, r3, rrx
    2690:	69707200 	ldmdbvs	r0!, {r9, ip, sp, lr}^
    2694:	0200682e 	andeq	r6, r0, #3014656	; 0x2e0000
    2698:	05000000 	streq	r0, [r0, #-0]
    269c:	02050010 	andeq	r0, r5, #16, 0
    26a0:	00009ccc 	andeq	r9, r0, ip, asr #25
    26a4:	2f050515 	svccs	0x00050515
    26a8:	05130205 	ldreq	r0, [r3, #-517]	; 0xfffffdfb
    26ac:	13301405 	teqne	r0, #83886080	; 0x5000000
    26b0:	060a0514 			; <UNDEFINED> instruction: 0x060a0514
    26b4:	0531060f 	ldreq	r0, [r1, #-1551]!	; 0xfffff9f1
    26b8:	10054b09 	andne	r4, r5, r9, lsl #22
    26bc:	054a0106 	strbeq	r0, [sl, #-262]	; 0xfffffefa
    26c0:	32300605 	eorscc	r0, r0, #5242880	; 0x500000
    26c4:	144a0101 	strbne	r0, [sl], #-257	; 0xfffffeff
    26c8:	022f0205 	eoreq	r0, pc, #1342177280	; 0x50000000
    26cc:	01010006 	tsteq	r1, r6
    26d0:	0000009f 	muleq	r0, pc, r0	; <UNPREDICTABLE>
    26d4:	00870003 	addeq	r0, r7, r3
    26d8:	01020000 	mrseq	r0, (UNDEF: 2)
    26dc:	000d0efb 	strdeq	r0, [sp], -fp
    26e0:	01010101 	tsteq	r1, r1, lsl #2
    26e4:	01000000 	mrseq	r0, (UNDEF: 0)
    26e8:	2e010000 	cdpcs	0, 0, cr0, cr1, cr0, {0}
    26ec:	6174732f 	cmnvs	r4, pc, lsr #6
    26f0:	732d6666 			; <UNDEFINED> instruction: 0x732d6666
    26f4:	2f006372 	svccs	0x00006372
    26f8:	72657355 	rsbvc	r7, r5, #1409286145	; 0x54000001
    26fc:	616a2f73 	smcvs	41715	; 0xa2f3
    2700:	2f65696d 	svccs	0x0065696d
    2704:	75636f44 	strbvc	r6, [r3, #-3908]!	; 0xfffff0bc
    2708:	746e656d 	strbtvc	r6, [lr], #-1389	; 0xfffffa93
    270c:	53432f73 	movtpl	r2, #16243	; 0x3f73
    2710:	45303431 	ldrmi	r3, [r0, #-1073]!	; 0xfffffbcf
    2714:	3173632f 	cmncc	r3, pc, lsr #6
    2718:	2d453034 	stclcs	0, cr3, [r5, #-208]	; 0xffffff30
    271c:	616e6966 	cmnvs	lr, r6, ror #18
    2720:	72702d6c 	rsbsvc	r2, r0, #108, 26	; 0x1b00
    2724:	63656a6f 	cmnvs	r5, #454656	; 0x6f000
    2728:	696c2f74 	stmdbvs	ip!, {r2, r4, r5, r6, r8, r9, sl, fp, sp}^
    272c:	322d7362 	eorcc	r7, sp, #-2013265919	; 0x88000001
    2730:	786c3034 	stmdavc	ip!, {r2, r4, r5, ip, sp}^
    2734:	62696c2f 	rsbvs	r6, r9, #12032	; 0x2f00
    2738:	692f6970 	stmdbvs	pc!, {r4, r5, r6, r8, fp, sp, lr}	; <UNPREDICTABLE>
    273c:	756c636e 	strbvc	r6, [ip, #-878]!	; 0xfffffc92
    2740:	00006564 	andeq	r6, r0, r4, ror #10
    2744:	74737563 	ldrbtvc	r7, [r3], #-1379	; 0xfffffa9d
    2748:	6c2d6d6f 	stcvs	13, cr6, [sp], #-444	; 0xfffffe44
    274c:	6564616f 	strbvs	r6, [r4, #-367]!	; 0xfffffe91
    2750:	00632e72 	rsbeq	r2, r3, r2, ror lr
    2754:	72000001 	andvc	r0, r0, #1, 0
    2758:	682e6970 	stmdavs	lr!, {r4, r5, r6, r8, fp, sp, lr}
    275c:	00000200 	andeq	r0, r0, r0, lsl #4
    2760:	001a0500 	andseq	r0, sl, r0, lsl #10
    2764:	9d080205 	sfmls	f0, 4, [r8, #-20]	; 0xffffffec
    2768:	05150000 	ldreq	r0, [r5, #-0]
    276c:	02021401 	andeq	r1, r2, #16777216	; 0x1000000
    2770:	ef010100 	svc	0x00010100
    2774:	03000000 	movweq	r0, #0
    2778:	00008000 	andeq	r8, r0, r0
    277c:	fb010200 	blx	42f86 <__bss_end__+0x3866e>
    2780:	01000d0e 	tsteq	r0, lr, lsl #26
    2784:	00010101 	andeq	r0, r1, r1, lsl #2
    2788:	00010000 	andeq	r0, r1, r0
    278c:	2f2e0100 	svccs	0x002e0100
    2790:	66617473 			; <UNDEFINED> instruction: 0x66617473
    2794:	72732d66 	rsbsvc	r2, r3, #6528	; 0x1980
    2798:	552f0063 	strpl	r0, [pc, #-99]!	; 273d <__code_start__-0x58c3>
    279c:	73726573 	cmnvc	r2, #482344960	; 0x1cc00000
    27a0:	6d616a2f 	vstmdbvs	r1!, {s13-s59}
    27a4:	442f6569 	strtmi	r6, [pc], #-1385	; 27ac <__code_start__-0x5854>
    27a8:	6d75636f 	ldclvs	3, cr6, [r5, #-444]!	; 0xfffffe44
    27ac:	73746e65 	cmnvc	r4, #1616	; 0x650
    27b0:	3153432f 	cmpcc	r3, pc, lsr #6
    27b4:	2f453034 	svccs	0x00453034
    27b8:	34317363 	ldrtcc	r7, [r1], #-867	; 0xfffffc9d
    27bc:	662d4530 			; <UNDEFINED> instruction: 0x662d4530
    27c0:	6c616e69 	stclvs	14, cr6, [r1], #-420	; 0xfffffe5c
    27c4:	6f72702d 	svcvs	0x0072702d
    27c8:	7463656a 	strbtvc	r6, [r3], #-1386	; 0xfffffa96
    27cc:	62696c2f 	rsbvs	r6, r9, #12032	; 0x2f00
    27d0:	34322d73 	ldrtcc	r2, [r2], #-3443	; 0xfffff28d
    27d4:	2f786c30 	svccs	0x00786c30
    27d8:	7062696c 	rsbvc	r6, r2, ip, ror #18
    27dc:	6e692f69 	cdpvs	15, 6, cr2, cr9, cr9, {3}
    27e0:	64756c63 	ldrbtvs	r6, [r5], #-3171	; 0xfffff39d
    27e4:	72000065 	andvc	r0, r0, #101, 0	; 0x65
    27e8:	6f6f6265 	svcvs	0x006f6265
    27ec:	00632e74 	rsbeq	r2, r3, r4, ror lr
    27f0:	72000001 	andvc	r0, r0, #1, 0
    27f4:	682e6970 	stmdavs	lr!, {r4, r5, r6, r8, fp, sp, lr}
    27f8:	00000200 	andeq	r0, r0, r0, lsl #4
    27fc:	00190500 	andseq	r0, r9, r0, lsl #10
    2800:	9d0c0205 	sfmls	f0, 4, [ip, #-20]	; 0xffffffec
    2804:	0d030000 	stceq	0, cr0, [r3, #-0]
    2808:	13050501 	movwne	r0, #21761	; 0x5501
    280c:	13053113 	movwne	r3, #20755	; 0x5113
    2810:	01050106 	tsteq	r5, r6, lsl #2
    2814:	061b052f 	ldreq	r0, [fp], -pc, lsr #10
    2818:	13050585 	movwne	r0, #21893	; 0x5585
    281c:	2f090514 	svccs	0x00090514
    2820:	01061605 	tsteq	r6, r5, lsl #12
    2824:	052e0e05 	streq	r0, [lr, #-3589]!	; 0xfffff1fb
    2828:	052f0605 	streq	r0, [pc, #-1541]!	; 222b <__code_start__-0x5dd5>
    282c:	052f0601 	streq	r0, [pc, #-1537]!	; 2233 <__code_start__-0x5dcd>
    2830:	05300617 	ldreq	r0, [r0, #-1559]!	; 0xfffff9e9
    2834:	08052f05 	stmdaeq	r5, {r0, r2, r8, r9, sl, fp, sp}
    2838:	07050106 	streq	r0, [r5, -r6, lsl #2]
    283c:	0605052e 	streq	r0, [r5], -lr, lsr #10
    2840:	4d2f3050 	stcmi	0, cr3, [pc, #-320]!	; 2708 <__code_start__-0x58f8>
    2844:	15131313 	ldrne	r1, [r3, #-787]	; 0xfffffced
    2848:	04020067 	streq	r0, [r2], #-103	; 0xffffff99
    284c:	0d056701 	stceq	7, cr6, [r5, #-4]
    2850:	01040200 	mrseq	r0, R12_usr
    2854:	000a0501 	andeq	r0, sl, r1, lsl #10
    2858:	01010402 	tsteq	r1, r2, lsl #8
    285c:	6d030905 	vstrvs.16	s0, [r3, #-10]	; <UNPREDICTABLE>
    2860:	000c022e 	andeq	r0, ip, lr, lsr #4
    2864:	00f60101 	rscseq	r0, r6, r1, lsl #2
    2868:	00030000 	andeq	r0, r3, r0
    286c:	0000007f 	andeq	r0, r0, pc, ror r0
    2870:	0efb0102 	cdpeq	1, 15, cr0, cr11, cr2, {0}
    2874:	0101000d 	tsteq	r1, sp
    2878:	00000101 	andeq	r0, r0, r1, lsl #2
    287c:	00000100 	andeq	r0, r0, r0, lsl #2
    2880:	732f2e01 			; <UNDEFINED> instruction: 0x732f2e01
    2884:	66666174 			; <UNDEFINED> instruction: 0x66666174
    2888:	6372732d 	cmnvs	r2, #-1275068416	; 0xb4000000
    288c:	73552f00 	cmpvc	r5, #0, 30
    2890:	2f737265 	svccs	0x00737265
    2894:	696d616a 	stmdbvs	sp!, {r1, r3, r5, r6, r8, sp, lr}^
    2898:	6f442f65 	svcvs	0x00442f65
    289c:	656d7563 	strbvs	r7, [sp, #-1379]!	; 0xfffffa9d
    28a0:	2f73746e 	svccs	0x0073746e
    28a4:	34315343 	ldrtcc	r5, [r1], #-835	; 0xfffffcbd
    28a8:	632f4530 			; <UNDEFINED> instruction: 0x632f4530
    28ac:	30343173 	eorscc	r3, r4, r3, ror r1
    28b0:	69662d45 	stmdbvs	r6!, {r0, r2, r6, r8, sl, fp, sp}^
    28b4:	2d6c616e 	stfcse	f6, [ip, #-440]!	; 0xfffffe48
    28b8:	6a6f7270 	bvs	1bdf280 <__bss_end__+0x1bd4968>
    28bc:	2f746365 	svccs	0x00746365
    28c0:	7362696c 	cmnvc	r2, #108, 18	; 0x1b0000
    28c4:	3034322d 	eorscc	r3, r4, sp, lsr #4
    28c8:	6c2f786c 	stcvs	8, cr7, [pc], #-432	; 2720 <__code_start__-0x58e0>
    28cc:	69706269 	ldmdbvs	r0!, {r0, r3, r5, r6, r9, sp, lr}^
    28d0:	636e692f 	cmnvs	lr, #770048	; 0xbc000
    28d4:	6564756c 	strbvs	r7, [r4, #-1388]!	; 0xfffffa94
    28d8:	69740000 	ldmdbvs	r4!, {}^	; <UNPREDICTABLE>
    28dc:	2e72656d 	cdpcs	5, 7, cr6, cr2, cr13, {3}
    28e0:	00010063 	andeq	r0, r1, r3, rrx
    28e4:	69707200 	ldmdbvs	r0!, {r9, ip, sp, lr}^
    28e8:	0200682e 	andeq	r6, r0, #3014656	; 0x2e0000
    28ec:	05000000 	streq	r0, [r0, #-0]
    28f0:	02050023 	andeq	r0, r5, #35, 0	; 0x23
    28f4:	00009d8c 	andeq	r9, r0, ip, lsl #27
    28f8:	2f050515 	svccs	0x00050515
    28fc:	01060c05 	tsteq	r6, r5, lsl #24
    2900:	054b0105 	strbeq	r0, [fp, #-261]	; 0xfffffefb
    2904:	054d061f 	strbeq	r0, [sp, #-1567]	; 0xfffff9e1
    2908:	052f3105 	streq	r3, [pc, #-261]!	; 280b <__code_start__-0x57f5>
    290c:	05010612 	streq	r0, [r1, #-1554]	; 0xfffff9ee
    2910:	2f4b0605 	svccs	0x004b0605
    2914:	13060105 	movwne	r0, #24837	; 0x6105
    2918:	4c061c05 	stcmi	12, cr1, [r6], {5}
    291c:	05050106 	streq	r0, [r5, #-262]	; 0xfffffefa
    2920:	13054b06 	movwne	r4, #23302	; 0x5b06
    2924:	052e0106 	streq	r0, [lr, #-262]!	; 0xfffffefa
    2928:	052f0605 	streq	r0, [pc, #-1541]!	; 232b <__code_start__-0x5cd5>
    292c:	17051309 	strne	r1, [r5, -r9, lsl #6]
    2930:	09050106 	stmdbeq	r5, {r1, r2, r8}
    2934:	11052f06 	tstne	r5, r6, lsl #30
    2938:	0c050106 	stfeqs	f0, [r5], {6}
    293c:	061c052e 	ldreq	r0, [ip], -lr, lsr #10
    2940:	0501066b 	streq	r0, [r1, #-1643]	; 0xfffff995
    2944:	062f0605 	strteq	r0, [pc], -r5, lsl #12
    2948:	4b01054a 	blmi	43e78 <__bss_end__+0x39560>
    294c:	2f061e05 	svccs	0x00061e05
    2950:	05050106 	streq	r0, [r5, #-262]	; 0xfffffefa
    2954:	4a062f06 	bmi	18e574 <__bss_end__+0x183c5c>
    2958:	024b0105 	subeq	r0, fp, #1073741825	; 0x40000001
    295c:	01010002 	tsteq	r1, r2
    2960:	00000205 	andeq	r0, r0, r5, lsl #4
    2964:	00c90003 	sbceq	r0, r9, r3
    2968:	01020000 	mrseq	r0, (UNDEF: 2)
    296c:	000d0efb 	strdeq	r0, [sp], -fp
    2970:	01010101 	tsteq	r1, r1, lsl #2
    2974:	01000000 	mrseq	r0, (UNDEF: 0)
    2978:	2f010000 	svccs	0x00010000
    297c:	656d6f68 	strbvs	r6, [sp, #-3944]!	; 0xfffff098
    2980:	676e652f 	strbvs	r6, [lr, -pc, lsr #10]!
    2984:	2f72656c 	svccs	0x0072656c
    2988:	73616c63 	cmnvc	r1, #25344	; 0x6300
    298c:	73632f73 	cmnvc	r3, #460	; 0x1cc
    2990:	6c303432 	cfldrsvs	mvf3, [r0], #-200	; 0xffffff38
    2994:	32322d78 	eorscc	r2, r2, #120, 26	; 0x1e00
    2998:	2f727073 	svccs	0x00727073
    299c:	62696c2f 	rsbvs	r6, r9, #12032	; 0x2f00
    29a0:	692f6970 	stmdbvs	pc!, {r4, r5, r6, r8, fp, sp, lr}	; <UNPREDICTABLE>
    29a4:	756c636e 	strbvc	r6, [ip, #-878]!	; 0xfffffc92
    29a8:	2f006564 	svccs	0x00006564
    29ac:	2f727375 	svccs	0x00727375
    29b0:	72616873 	rsbvc	r6, r1, #7536640	; 0x730000
    29b4:	63672f65 	cmnvs	r7, #404	; 0x194
    29b8:	72612d63 	rsbvc	r2, r1, #6336	; 0x18c0
    29bc:	6f6e2d6d 	svcvs	0x006e2d6d
    29c0:	652d656e 	strvs	r6, [sp, #-1390]!	; 0xfffffa92
    29c4:	2d696261 	sfmcs	f6, 2, [r9, #-388]!	; 0xfffffe7c
    29c8:	332e3031 			; <UNDEFINED> instruction: 0x332e3031
    29cc:	3230322d 	eorscc	r3, r0, #-805306366	; 0xd0000002
    29d0:	30312e31 	eorscc	r2, r1, r1, lsr lr
    29d4:	62696c2f 	rsbvs	r6, r9, #12032	; 0x2f00
    29d8:	6363672f 	cmnvs	r3, #12320768	; 0xbc0000
    29dc:	6d72612f 	ldfvse	f6, [r2, #-188]!	; 0xffffff44
    29e0:	6e6f6e2d 	cdpvs	14, 6, cr6, cr15, cr13, {1}
    29e4:	61652d65 	cmnvs	r5, r5, ror #26
    29e8:	312f6962 			; <UNDEFINED> instruction: 0x312f6962
    29ec:	2e332e30 	mrccs	14, 1, r2, cr3, cr0, {1}
    29f0:	6e692f31 	mcrvs	15, 3, r2, cr9, cr1, {1}
    29f4:	64756c63 	ldrbtvs	r6, [r5], #-3171	; 0xfffff39d
    29f8:	75000065 	strvc	r0, [r0, #-101]	; 0xffffff9b
    29fc:	2e747261 	cdpcs	2, 7, cr7, cr4, cr1, {3}
    2a00:	00000063 	andeq	r0, r0, r3, rrx
    2a04:	72617500 	rsbvc	r7, r1, #0, 10
    2a08:	00682e74 	rsbeq	r2, r8, r4, ror lr
    2a0c:	72000001 	andvc	r0, r0, #1, 0
    2a10:	682e6970 	stmdavs	lr!, {r4, r5, r6, r8, fp, sp, lr}
    2a14:	00000100 	andeq	r0, r0, r0, lsl #2
    2a18:	6f697067 	svcvs	0x00697067
    2a1c:	0100682e 	tsteq	r0, lr, lsr #16
    2a20:	74730000 	ldrbtvc	r0, [r3], #-0
    2a24:	746e6964 	strbtvc	r6, [lr], #-2404	; 0xfffff69c
    2a28:	6363672d 	cmnvs	r3, #11796480	; 0xb40000
    2a2c:	0200682e 	andeq	r6, r0, #3014656	; 0x2e0000
    2a30:	05000000 	streq	r0, [r0, #-0]
    2a34:	02050039 	andeq	r0, r5, #57, 0	; 0x39
    2a38:	00009e10 	andeq	r9, r0, r0, lsl lr
    2a3c:	06013003 	streq	r3, [r1], -r3
    2a40:	06050501 	streq	r0, [r5], -r1, lsl #10
    2a44:	06110567 	ldreq	r0, [r1], -r7, ror #10
    2a48:	2e050501 	cfsh32cs	mvfx0, mvfx5, #1
    2a4c:	05670105 	strbeq	r0, [r7, #-261]!	; 0xfffffefb
    2a50:	06290638 			; <UNDEFINED> instruction: 0x06290638
    2a54:	06050501 	streq	r0, [r5], -r1, lsl #10
    2a58:	06110567 	ldreq	r0, [r1], -r7, ror #10
    2a5c:	2e050501 	cfsh32cs	mvfx0, mvfx5, #1
    2a60:	05670105 	strbeq	r0, [r7, #-261]!	; 0xfffffefb
    2a64:	15030616 	strne	r0, [r3, #-1558]	; 0xfffff9ea
    2a68:	3505052e 	strcc	r0, [r5, #-1326]	; 0xfffffad2
    2a6c:	68356867 	ldmdavs	r5!, {r0, r1, r2, r5, r6, fp, sp, lr}
    2a70:	852e0c03 	strhi	r0, [lr, #-3075]!	; 0xfffff3fd
    2a74:	0369696b 	cmneq	r9, #1753088	; 0x1ac000
    2a78:	6b13660c 	blvs	4dc2b0 <__bss_end__+0x4d1998>
    2a7c:	06010567 	streq	r0, [r1], -r7, ror #10
    2a80:	0619052f 	ldreq	r0, [r9], -pc, lsr #10
    2a84:	05052508 	streq	r2, [r5, #-1288]	; 0xfffffaf8
    2a88:	060d0534 			; <UNDEFINED> instruction: 0x060d0534
    2a8c:	4c010501 	cfstr32mi	mvfx0, [r1], {1}
    2a90:	67061905 	strvs	r1, [r6, -r5, lsl #18]
    2a94:	05360505 	ldreq	r0, [r6, #-1285]!	; 0xfffffafb
    2a98:	0501060d 	streq	r0, [r1, #-1549]	; 0xfffff9f3
    2a9c:	01054a28 	tsteq	r5, r8, lsr #20
    2aa0:	06150530 			; <UNDEFINED> instruction: 0x06150530
    2aa4:	2f050587 	svccs	0x00050587
    2aa8:	0009052f 	andeq	r0, r9, pc, lsr #10
    2aac:	13010402 	movwne	r0, #5122	; 0x1402
    2ab0:	02000a05 	andeq	r0, r0, #20480	; 0x5000
    2ab4:	05110104 	ldreq	r0, [r1, #-260]	; 0xfffffefc
    2ab8:	0402000c 	streq	r0, [r2], #-12
    2abc:	05010601 	streq	r0, [r1, #-1537]	; 0xfffff9ff
    2ac0:	0402000a 	streq	r0, [r2], #-10
    2ac4:	05052e01 	streq	r2, [r5, #-3585]	; 0xfffff1ff
    2ac8:	0e054c06 	cdpeq	12, 0, cr4, cr5, cr6, {0}
    2acc:	09050106 	stmdbeq	r5, {r1, r2, r8}
    2ad0:	0605054a 	streq	r0, [r5], -sl, asr #10
    2ad4:	01052f2f 	tsteq	r5, pc, lsr #30
    2ad8:	1c051306 	stcne	3, cr1, [r5], {6}
    2adc:	01066706 	tsteq	r6, r6, lsl #14
    2ae0:	4b060505 	blmi	183efc <__bss_end__+0x1795e4>
    2ae4:	0009052f 	andeq	r0, r9, pc, lsr #10
    2ae8:	13010402 	movwne	r0, #5122	; 0x1402
    2aec:	02000a05 	andeq	r0, r0, #20480	; 0x5000
    2af0:	05110104 	ldreq	r0, [r1, #-260]	; 0xfffffefc
    2af4:	0402000c 	streq	r0, [r2], #-12
    2af8:	05010601 	streq	r0, [r1, #-1537]	; 0xfffff9ff
    2afc:	0402000a 	streq	r0, [r2], #-10
    2b00:	05052e01 	streq	r2, [r5, #-3585]	; 0xfffff1ff
    2b04:	05674c06 	strbeq	r4, [r7, #-3078]!	; 0xfffff3fa
    2b08:	052f0601 	streq	r0, [pc, #-1537]!	; 250f <__code_start__-0x5af1>
    2b0c:	054c0619 	strbeq	r0, [ip, #-1561]	; 0xfffff9e7
    2b10:	2a052e1b 	bcs	14e384 <__bss_end__+0x143a6c>
    2b14:	0631052e 	ldrteq	r0, [r1], -lr, lsr #10
    2b18:	2e420501 	cdpcs	5, 4, cr0, cr2, cr1, {0}
    2b1c:	31061c05 	tstcc	r6, r5, lsl #24
    2b20:	032f0505 			; <UNDEFINED> instruction: 0x032f0505
    2b24:	0e052e09 	cdpeq	14, 0, cr2, cr5, cr9, {0}
    2b28:	21050106 	tstcs	r5, r6, lsl #2
    2b2c:	0301054a 	movweq	r0, #5450	; 0x154a
    2b30:	1a052e0a 	bne	14e360 <__bss_end__+0x143a48>
    2b34:	09056806 	stmdbeq	r5, {r1, r2, fp, sp, lr}
    2b38:	01040200 	mrseq	r0, R12_usr
    2b3c:	000a0530 	andeq	r0, sl, r0, lsr r5
    2b40:	11010402 	tstne	r1, r2, lsl #8
    2b44:	02000c05 	andeq	r0, r0, #1280	; 0x500
    2b48:	01060104 	tsteq	r6, r4, lsl #2
    2b4c:	02000a05 	andeq	r0, r0, #20480	; 0x5000
    2b50:	052e0104 	streq	r0, [lr, #-260]!	; 0xfffffefc
    2b54:	e8030619 	stmda	r3, {r0, r3, r4, r9, sl}
    2b58:	0505667e 	streq	r6, [r5, #-1662]	; 0xfffff982
    2b5c:	672f2f2f 	strvs	r2, [pc, -pc, lsr #30]!
    2b60:	2f060105 	svccs	0x00060105
    2b64:	01000402 	tsteq	r0, r2, lsl #8
    2b68:	0000ba01 	andeq	fp, r0, r1, lsl #20
    2b6c:	7c000300 	stcvc	3, cr0, [r0], {-0}
    2b70:	02000000 	andeq	r0, r0, #0, 0
    2b74:	0d0efb01 	vstreq	d15, [lr, #-4]
    2b78:	01010100 	mrseq	r0, (UNDEF: 17)
    2b7c:	00000001 	andeq	r0, r0, r1
    2b80:	01000001 	tsteq	r0, r1
    2b84:	696c2f2e 	stmdbvs	ip!, {r1, r2, r3, r5, r8, r9, sl, fp, sp}^
    2b88:	2f006362 	svccs	0x00006362
    2b8c:	72657355 	rsbvc	r7, r5, #1409286145	; 0x54000001
    2b90:	616a2f73 	smcvs	41715	; 0xa2f3
    2b94:	2f65696d 	svccs	0x0065696d
    2b98:	75636f44 	strbvc	r6, [r3, #-3908]!	; 0xfffff0bc
    2b9c:	746e656d 	strbtvc	r6, [lr], #-1389	; 0xfffffa93
    2ba0:	53432f73 	movtpl	r2, #16243	; 0x3f73
    2ba4:	45303431 	ldrmi	r3, [r0, #-1073]!	; 0xfffffbcf
    2ba8:	3173632f 	cmncc	r3, pc, lsr #6
    2bac:	2d453034 	stclcs	0, cr3, [r5, #-208]	; 0xffffff30
    2bb0:	616e6966 	cmnvs	lr, r6, ror #18
    2bb4:	72702d6c 	rsbsvc	r2, r0, #108, 26	; 0x1b00
    2bb8:	63656a6f 	cmnvs	r5, #454656	; 0x6f000
    2bbc:	696c2f74 	stmdbvs	ip!, {r2, r4, r5, r6, r8, r9, sl, fp, sp}^
    2bc0:	322d7362 	eorcc	r7, sp, #-2013265919	; 0x88000001
    2bc4:	786c3034 	stmdavc	ip!, {r2, r4, r5, ip, sp}^
    2bc8:	62696c2f 	rsbvs	r6, r9, #12032	; 0x2f00
    2bcc:	692f6970 	stmdbvs	pc!, {r4, r5, r6, r8, fp, sp, lr}	; <UNPREDICTABLE>
    2bd0:	756c636e 	strbvc	r6, [ip, #-878]!	; 0xfffffc92
    2bd4:	00006564 	andeq	r6, r0, r4, ror #10
    2bd8:	63747570 	cmnvs	r4, #112, 10	; 0x1c000000
    2bdc:	2e726168 	rpwcssz	f6, f2, #0.0
    2be0:	00010063 	andeq	r0, r1, r3, rrx
    2be4:	69707200 	ldmdbvs	r0!, {r9, ip, sp, lr}^
    2be8:	0200682e 	andeq	r6, r0, #3014656	; 0x2e0000
    2bec:	05000000 	streq	r0, [r0, #-0]
    2bf0:	02050024 	andeq	r0, r5, #36, 0	; 0x24
    2bf4:	0000a000 	andeq	sl, r0, r0
    2bf8:	05010614 	streq	r0, [r1, #-1556]	; 0xfffff9ec
    2bfc:	054a0626 	strbeq	r0, [sl, #-1574]	; 0xfffff9da
    2c00:	01052e34 	tsteq	r5, r4, lsr lr
    2c04:	1b050106 	blne	143024 <__bss_end__+0x13870c>
    2c08:	05054f06 	streq	r4, [r5, #-3846]	; 0xfffff0fa
    2c0c:	06110513 			; <UNDEFINED> instruction: 0x06110513
    2c10:	67010501 	strvs	r0, [r1, -r1, lsl #10]
    2c14:	67062305 	strvs	r2, [r6, -r5, lsl #6]
    2c18:	05130505 	ldreq	r0, [r3, #-1285]	; 0xfffffafb
    2c1c:	05010611 	streq	r0, [r1, #-1553]	; 0xfffff9ef
    2c20:	04024b01 	streq	r4, [r2], #-2817	; 0xfffff4ff
    2c24:	06010100 	streq	r0, [r1], -r0, lsl #2
    2c28:	03000001 	movweq	r0, #1
    2c2c:	00007b00 	andeq	r7, r0, r0, lsl #22
    2c30:	fb010200 	blx	4343a <__bss_end__+0x38b22>
    2c34:	01000d0e 	tsteq	r0, lr, lsl #26
    2c38:	00010101 	andeq	r0, r1, r1, lsl #2
    2c3c:	00010000 	andeq	r0, r1, r0
    2c40:	2f2e0100 	svccs	0x002e0100
    2c44:	6362696c 	cmnvs	r2, #108, 18	; 0x1b0000
    2c48:	73552f00 	cmpvc	r5, #0, 30
    2c4c:	2f737265 	svccs	0x00737265
    2c50:	696d616a 	stmdbvs	sp!, {r1, r3, r5, r6, r8, sp, lr}^
    2c54:	6f442f65 	svcvs	0x00442f65
    2c58:	656d7563 	strbvs	r7, [sp, #-1379]!	; 0xfffffa9d
    2c5c:	2f73746e 	svccs	0x0073746e
    2c60:	34315343 	ldrtcc	r5, [r1], #-835	; 0xfffffcbd
    2c64:	632f4530 			; <UNDEFINED> instruction: 0x632f4530
    2c68:	30343173 	eorscc	r3, r4, r3, ror r1
    2c6c:	69662d45 	stmdbvs	r6!, {r0, r2, r6, r8, sl, fp, sp}^
    2c70:	2d6c616e 	stfcse	f6, [ip, #-440]!	; 0xfffffe48
    2c74:	6a6f7270 	bvs	1bdf63c <__bss_end__+0x1bd4d24>
    2c78:	2f746365 	svccs	0x00746365
    2c7c:	7362696c 	cmnvc	r2, #108, 18	; 0x1b0000
    2c80:	3034322d 	eorscc	r3, r4, sp, lsr #4
    2c84:	6c2f786c 	stcvs	8, cr7, [pc], #-432	; 2adc <__code_start__-0x5524>
    2c88:	69706269 	ldmdbvs	r0!, {r0, r3, r5, r6, r9, sp, lr}^
    2c8c:	636e692f 	cmnvs	lr, #770048	; 0xbc000
    2c90:	6564756c 	strbvs	r7, [r4, #-1388]!	; 0xfffffa94
    2c94:	74730000 	ldrbtvc	r0, [r3], #-0
    2c98:	74616372 	strbtvc	r6, [r1], #-882	; 0xfffffc8e
    2c9c:	0100632e 	tsteq	r0, lr, lsr #6
    2ca0:	70720000 	rsbsvc	r0, r2, r0
    2ca4:	00682e69 	rsbeq	r2, r8, r9, ror #28
    2ca8:	00000002 	andeq	r0, r0, r2
    2cac:	05002c05 	streq	r2, [r0, #-3077]	; 0xfffff3fb
    2cb0:	00a03c02 	adceq	r3, r0, r2, lsl #24
    2cb4:	05051500 	streq	r1, [r5, #-1280]	; 0xfffffb00
    2cb8:	0b051313 	bleq	14790c <__bss_end__+0x13cff4>
    2cbc:	05051106 	streq	r1, [r5, #-262]	; 0xfffffefa
    2cc0:	01040200 	mrseq	r0, R12_usr
    2cc4:	02003006 	andeq	r3, r0, #6, 0
    2cc8:	05150104 	ldreq	r0, [r5, #-260]	; 0xfffffefc
    2ccc:	04020009 	streq	r0, [r2], #-9
    2cd0:	10051301 	andne	r1, r5, r1, lsl #6
    2cd4:	01040200 	mrseq	r0, R12_usr
    2cd8:	0b052e06 	bleq	14e4f8 <__bss_end__+0x143be0>
    2cdc:	01040200 	mrseq	r0, R12_usr
    2ce0:	0402002e 	streq	r0, [r2], #-46	; 0xffffffd2
    2ce4:	052f0601 	streq	r0, [pc, #-1537]!	; 26eb <__code_start__-0x5915>
    2ce8:	04020005 	streq	r0, [r2], #-5
    2cec:	06010601 	streq	r0, [r1], -r1, lsl #12
    2cf0:	0608054e 	streq	r0, [r8], -lr, asr #10
    2cf4:	00050501 	andeq	r0, r5, r1, lsl #10
    2cf8:	06010402 	streq	r0, [r1], -r2, lsl #8
    2cfc:	0009052f 	andeq	r0, r9, pc, lsr #10
    2d00:	13010402 	movwne	r0, #5122	; 0x1402
    2d04:	02000b05 	andeq	r0, r0, #5120	; 0x1400
    2d08:	01060104 	tsteq	r6, r4, lsl #2
    2d0c:	02000905 	andeq	r0, r0, #81920	; 0x14000
    2d10:	4b060104 	blmi	183128 <__bss_end__+0x178810>
    2d14:	02000f05 	andeq	r0, r0, #5, 30
    2d18:	01060104 	tsteq	r6, r4, lsl #2
    2d1c:	02000d05 	andeq	r0, r0, #320	; 0x140
    2d20:	2f060104 	svccs	0x00060104
    2d24:	02000505 	andeq	r0, r0, #20971520	; 0x1400000
    2d28:	01060104 	tsteq	r6, r4, lsl #2
    2d2c:	01000602 	tsteq	r0, r2, lsl #12
    2d30:	0000bf01 	andeq	fp, r0, r1, lsl #30
    2d34:	7b000300 	blvc	393c <__code_start__-0x46c4>
    2d38:	02000000 	andeq	r0, r0, #0, 0
    2d3c:	0d0efb01 	vstreq	d15, [lr, #-4]
    2d40:	01010100 	mrseq	r0, (UNDEF: 17)
    2d44:	00000001 	andeq	r0, r0, r1
    2d48:	01000001 	tsteq	r0, r1
    2d4c:	696c2f2e 	stmdbvs	ip!, {r1, r2, r3, r5, r8, r9, sl, fp, sp}^
    2d50:	2f006362 	svccs	0x00006362
    2d54:	72657355 	rsbvc	r7, r5, #1409286145	; 0x54000001
    2d58:	616a2f73 	smcvs	41715	; 0xa2f3
    2d5c:	2f65696d 	svccs	0x0065696d
    2d60:	75636f44 	strbvc	r6, [r3, #-3908]!	; 0xfffff0bc
    2d64:	746e656d 	strbtvc	r6, [lr], #-1389	; 0xfffffa93
    2d68:	53432f73 	movtpl	r2, #16243	; 0x3f73
    2d6c:	45303431 	ldrmi	r3, [r0, #-1073]!	; 0xfffffbcf
    2d70:	3173632f 	cmncc	r3, pc, lsr #6
    2d74:	2d453034 	stclcs	0, cr3, [r5, #-208]	; 0xffffff30
    2d78:	616e6966 	cmnvs	lr, r6, ror #18
    2d7c:	72702d6c 	rsbsvc	r2, r0, #108, 26	; 0x1b00
    2d80:	63656a6f 	cmnvs	r5, #454656	; 0x6f000
    2d84:	696c2f74 	stmdbvs	ip!, {r2, r4, r5, r6, r8, r9, sl, fp, sp}^
    2d88:	322d7362 	eorcc	r7, sp, #-2013265919	; 0x88000001
    2d8c:	786c3034 	stmdavc	ip!, {r2, r4, r5, ip, sp}^
    2d90:	62696c2f 	rsbvs	r6, r9, #12032	; 0x2f00
    2d94:	692f6970 	stmdbvs	pc!, {r4, r5, r6, r8, fp, sp, lr}	; <UNPREDICTABLE>
    2d98:	756c636e 	strbvc	r6, [ip, #-878]!	; 0xfffffc92
    2d9c:	00006564 	andeq	r6, r0, r4, ror #10
    2da0:	63727473 	cmnvs	r2, #1929379840	; 0x73000000
    2da4:	632e706d 			; <UNDEFINED> instruction: 0x632e706d
    2da8:	00000100 	andeq	r0, r0, r0, lsl #2
    2dac:	2e697072 	mcrcs	0, 3, r7, cr9, cr2, {3}
    2db0:	00020068 	andeq	r0, r2, r8, rrx
    2db4:	2a050000 	bcs	142dbc <__bss_end__+0x1384a4>
    2db8:	70020500 	andvc	r0, r2, r0, lsl #10
    2dbc:	140000a0 	strne	r0, [r0], #-160	; 0xffffff60
    2dc0:	05130905 	ldreq	r0, [r3, #-2309]	; 0xfffff6fb
    2dc4:	1005010f 	andne	r0, r5, pc, lsl #2
    2dc8:	0f050106 	svceq	0x00050106
    2dcc:	001c052e 	andseq	r0, ip, lr, lsr #10
    2dd0:	4a010402 	bmi	43de0 <__bss_end__+0x394c8>
    2dd4:	02001305 	andeq	r1, r0, #335544320	; 0x14000000
    2dd8:	052e0104 	streq	r0, [lr, #-260]!	; 0xfffffefc
    2ddc:	052f0611 	streq	r0, [pc, #-1553]!	; 27d3 <__code_start__-0x582d>
    2de0:	2e2e0616 	mcrcs	6, 1, r0, cr14, cr6, {0}
    2de4:	2f060905 	svccs	0x00060905
    2de8:	01061505 	tsteq	r6, r5, lsl #10
    2dec:	022f0105 	eoreq	r0, pc, #1073741825	; 0x40000001
    2df0:	01010004 	tsteq	r1, r4
    2df4:	000000bd 	strheq	r0, [r0], -sp
    2df8:	007b0003 	rsbseq	r0, fp, r3
    2dfc:	01020000 	mrseq	r0, (UNDEF: 2)
    2e00:	000d0efb 	strdeq	r0, [sp], -fp
    2e04:	01010101 	tsteq	r1, r1, lsl #2
    2e08:	01000000 	mrseq	r0, (UNDEF: 0)
    2e0c:	2e010000 	cdpcs	0, 0, cr0, cr1, cr0, {0}
    2e10:	62696c2f 	rsbvs	r6, r9, #12032	; 0x2f00
    2e14:	552f0063 	strpl	r0, [pc, #-99]!	; 2db9 <__code_start__-0x5247>
    2e18:	73726573 	cmnvc	r2, #482344960	; 0x1cc00000
    2e1c:	6d616a2f 	vstmdbvs	r1!, {s13-s59}
    2e20:	442f6569 	strtmi	r6, [pc], #-1385	; 2e28 <__code_start__-0x51d8>
    2e24:	6d75636f 	ldclvs	3, cr6, [r5, #-444]!	; 0xfffffe44
    2e28:	73746e65 	cmnvc	r4, #1616	; 0x650
    2e2c:	3153432f 	cmpcc	r3, pc, lsr #6
    2e30:	2f453034 	svccs	0x00453034
    2e34:	34317363 	ldrtcc	r7, [r1], #-867	; 0xfffffc9d
    2e38:	662d4530 			; <UNDEFINED> instruction: 0x662d4530
    2e3c:	6c616e69 	stclvs	14, cr6, [r1], #-420	; 0xfffffe5c
    2e40:	6f72702d 	svcvs	0x0072702d
    2e44:	7463656a 	strbtvc	r6, [r3], #-1386	; 0xfffffa96
    2e48:	62696c2f 	rsbvs	r6, r9, #12032	; 0x2f00
    2e4c:	34322d73 	ldrtcc	r2, [r2], #-3443	; 0xfffff28d
    2e50:	2f786c30 	svccs	0x00786c30
    2e54:	7062696c 	rsbvc	r6, r2, ip, ror #18
    2e58:	6e692f69 	cdpvs	15, 6, cr2, cr9, cr9, {3}
    2e5c:	64756c63 	ldrbtvs	r6, [r5], #-3171	; 0xfffff39d
    2e60:	73000065 	movwvc	r0, #101	; 0x65
    2e64:	70637274 	rsbvc	r7, r3, r4, ror r2
    2e68:	00632e79 	rsbeq	r2, r3, r9, ror lr
    2e6c:	72000001 	andvc	r0, r0, #1, 0
    2e70:	682e6970 	stmdavs	lr!, {r4, r5, r6, r8, fp, sp, lr}
    2e74:	00000200 	andeq	r0, r0, r0, lsl #4
    2e78:	002a0500 	eoreq	r0, sl, r0, lsl #10
    2e7c:	a09c0205 	addsge	r0, ip, r5, lsl #4
    2e80:	05140000 	ldreq	r0, [r4, #-0]
    2e84:	05131305 	ldreq	r1, [r3, #-773]	; 0xfffffcfb
    2e88:	05110614 	ldreq	r0, [r1, #-1556]	; 0xfffff9ec
    2e8c:	04020022 	streq	r0, [r2], #-34	; 0xffffffde
    2e90:	052f0601 	streq	r0, [pc, #-1537]!	; 2897 <__code_start__-0x5769>
    2e94:	0402000b 	streq	r0, [r2], #-11
    2e98:	15050101 	strne	r0, [r5, #-257]	; 0xfffffeff
    2e9c:	01040200 	mrseq	r0, R12_usr
    2ea0:	13050106 	movwne	r0, #20742	; 0x5106
    2ea4:	01040200 	mrseq	r0, R12_usr
    2ea8:	000b054a 	andeq	r0, fp, sl, asr #10
    2eac:	4a010402 	bmi	43ebc <__bss_end__+0x395a4>
    2eb0:	01000602 	tsteq	r0, r2, lsl #12
    2eb4:	00011d01 	andeq	r1, r1, r1, lsl #26
    2eb8:	e1000300 	mrs	r0, LR_irq
    2ebc:	02000000 	andeq	r0, r0, #0, 0
    2ec0:	0d0efb01 	vstreq	d15, [lr, #-4]
    2ec4:	01010100 	mrseq	r0, (UNDEF: 17)
    2ec8:	00000001 	andeq	r0, r0, r1
    2ecc:	01000001 	tsteq	r0, r1
    2ed0:	696c2f2e 	stmdbvs	ip!, {r1, r2, r3, r5, r8, r9, sl, fp, sp}^
    2ed4:	2f006362 	svccs	0x00006362
    2ed8:	72657355 	rsbvc	r7, r5, #1409286145	; 0x54000001
    2edc:	616a2f73 	smcvs	41715	; 0xa2f3
    2ee0:	2f65696d 	svccs	0x0065696d
    2ee4:	75636f44 	strbvc	r6, [r3, #-3908]!	; 0xfffff0bc
    2ee8:	746e656d 	strbtvc	r6, [lr], #-1389	; 0xfffffa93
    2eec:	53432f73 	movtpl	r2, #16243	; 0x3f73
    2ef0:	45303431 	ldrmi	r3, [r0, #-1073]!	; 0xfffffbcf
    2ef4:	3173632f 	cmncc	r3, pc, lsr #6
    2ef8:	2d453034 	stclcs	0, cr3, [r5, #-208]	; 0xffffff30
    2efc:	616e6966 	cmnvs	lr, r6, ror #18
    2f00:	72702d6c 	rsbsvc	r2, r0, #108, 26	; 0x1b00
    2f04:	63656a6f 	cmnvs	r5, #454656	; 0x6f000
    2f08:	696c2f74 	stmdbvs	ip!, {r2, r4, r5, r6, r8, r9, sl, fp, sp}^
    2f0c:	322d7362 	eorcc	r7, sp, #-2013265919	; 0x88000001
    2f10:	786c3034 	stmdavc	ip!, {r2, r4, r5, ip, sp}^
    2f14:	62696c2f 	rsbvs	r6, r9, #12032	; 0x2f00
    2f18:	692f6970 	stmdbvs	pc!, {r4, r5, r6, r8, fp, sp, lr}	; <UNPREDICTABLE>
    2f1c:	756c636e 	strbvc	r6, [ip, #-878]!	; 0xfffffc92
    2f20:	2f006564 	svccs	0x00006564
    2f24:	2f727375 	svccs	0x00727375
    2f28:	61636f6c 	cmnvs	r3, ip, ror #30
    2f2c:	65432f6c 	strbvs	r2, [r3, #-3948]	; 0xfffff094
    2f30:	72616c6c 	rsbvc	r6, r1, #108, 24	; 0x6c00
    2f34:	6d72612f 	ldfvse	f6, [r2, #-188]!	; 0xffffff44
    2f38:	6e6f6e2d 	cdpvs	14, 6, cr6, cr15, cr13, {1}
    2f3c:	61652d65 	cmnvs	r5, r5, ror #26
    2f40:	742d6962 	strtvc	r6, [sp], #-2402	; 0xfffff69e
    2f44:	2f747365 	svccs	0x00747365
    2f48:	30322d39 	eorscc	r2, r2, r9, lsr sp
    2f4c:	34713931 	ldrbtcc	r3, [r1], #-2353	; 0xfffff6cf
    2f50:	3173632d 	cmncc	r3, sp, lsr #6
    2f54:	2f653730 	svccs	0x00653730
    2f58:	2f62696c 	svccs	0x0062696c
    2f5c:	2f636367 	svccs	0x00636367
    2f60:	2d6d7261 	sfmcs	f7, 2, [sp, #-388]!	; 0xfffffe7c
    2f64:	656e6f6e 	strbvs	r6, [lr, #-3950]!	; 0xfffff092
    2f68:	6261652d 	rsbvs	r6, r1, #188743680	; 0xb400000
    2f6c:	2e392f69 	cdpcs	15, 3, cr2, cr9, cr9, {3}
    2f70:	2f312e32 	svccs	0x00312e32
    2f74:	6c636e69 	stclvs	14, cr6, [r3], #-420	; 0xfffffe5c
    2f78:	00656475 	rsbeq	r6, r5, r5, ror r4
    2f7c:	72747300 	rsbsvc	r7, r4, #0, 6
    2f80:	706d636e 	rsbvc	r6, sp, lr, ror #6
    2f84:	0100632e 	tsteq	r0, lr, lsr #6
    2f88:	70720000 	rsbsvc	r0, r2, r0
    2f8c:	00682e69 	rsbeq	r2, r8, r9, ror #28
    2f90:	73000002 	movwvc	r0, #2
    2f94:	65646474 	strbvs	r6, [r4, #-1140]!	; 0xfffffb8c
    2f98:	00682e66 	rsbeq	r2, r8, r6, ror #28
    2f9c:	00000003 	andeq	r0, r0, r3
    2fa0:	05003905 	streq	r3, [r0, #-2309]	; 0xfffff6fb
    2fa4:	00a0bc02 	adceq	fp, r0, r2, lsl #24
    2fa8:	05051500 	streq	r1, [r5, #-1280]	; 0xfffffb00
    2fac:	0a051313 	beq	147c00 <__bss_end__+0x13d2e8>
    2fb0:	4a010601 	bmi	447bc <__bss_end__+0x39ea4>
    2fb4:	2f060905 	svccs	0x00060905
    2fb8:	01060c05 	tsteq	r6, r5, lsl #24
    2fbc:	052e1305 	streq	r1, [lr, #-773]!	; 0xfffffcfb
    2fc0:	0d052e0b 	stceq	14, cr2, [r5, #-44]	; 0xffffffd4
    2fc4:	1b054b06 	blne	155be4 <__bss_end__+0x14b2cc>
    2fc8:	052e0106 	streq	r0, [lr, #-262]!	; 0xfffffefa
    2fcc:	0105300c 	tsteq	r5, ip
    2fd0:	0002022f 	andeq	r0, r2, pc, lsr #4
    2fd4:	00ac0101 	adceq	r0, ip, r1, lsl #2
    2fd8:	00030000 	andeq	r0, r3, r0
    2fdc:	00000090 	muleq	r0, r0, r0
    2fe0:	0efb0102 	cdpeq	1, 15, cr0, cr11, cr2, {0}
    2fe4:	0101000d 	tsteq	r1, sp
    2fe8:	00000101 	andeq	r0, r0, r1, lsl #2
    2fec:	00000100 	andeq	r0, r0, r0, lsl #2
    2ff0:	732f2e01 			; <UNDEFINED> instruction: 0x732f2e01
    2ff4:	66666174 			; <UNDEFINED> instruction: 0x66666174
    2ff8:	6372732d 	cmnvs	r2, #-1275068416	; 0xb4000000
    2ffc:	73552f00 	cmpvc	r5, #0, 30
    3000:	2f737265 	svccs	0x00737265
    3004:	696d616a 	stmdbvs	sp!, {r1, r3, r5, r6, r8, sp, lr}^
    3008:	6f442f65 	svcvs	0x00442f65
    300c:	656d7563 	strbvs	r7, [sp, #-1379]!	; 0xfffffa9d
    3010:	2f73746e 	svccs	0x0073746e
    3014:	34315343 	ldrtcc	r5, [r1], #-835	; 0xfffffcbd
    3018:	632f4530 			; <UNDEFINED> instruction: 0x632f4530
    301c:	30343173 	eorscc	r3, r4, r3, ror r1
    3020:	69662d45 	stmdbvs	r6!, {r0, r2, r6, r8, sl, fp, sp}^
    3024:	2d6c616e 	stfcse	f6, [ip, #-440]!	; 0xfffffe48
    3028:	6a6f7270 	bvs	1bdf9f0 <__bss_end__+0x1bd50d8>
    302c:	2f746365 	svccs	0x00746365
    3030:	7362696c 	cmnvc	r2, #108, 18	; 0x1b0000
    3034:	3034322d 	eorscc	r3, r4, sp, lsr #4
    3038:	6c2f786c 	stcvs	8, cr7, [pc], #-432	; 2e90 <__code_start__-0x5170>
    303c:	69706269 	ldmdbvs	r0!, {r0, r3, r5, r6, r9, sp, lr}^
    3040:	636e692f 	cmnvs	lr, #770048	; 0xbc000
    3044:	6564756c 	strbvs	r7, [r4, #-1388]!	; 0xfffffa94
    3048:	65640000 	strbvs	r0, [r4, #-0]!
    304c:	6c756166 	ldfvse	f6, [r5], #-408	; 0xfffffe68
    3050:	65722d74 	ldrbvs	r2, [r2, #-3444]!	; 0xfffff28c
    3054:	746f6f62 	strbtvc	r6, [pc], #-3938	; 305c <__code_start__-0x4fa4>
    3058:	6c61632d 	stclvs	3, cr6, [r1], #-180	; 0xffffff4c
    305c:	74756f6c 	ldrbtvc	r6, [r5], #-3948	; 0xfffff094
    3060:	0100632e 	tsteq	r0, lr, lsr #6
    3064:	70720000 	rsbsvc	r0, r2, r0
    3068:	00682e69 	rsbeq	r2, r8, r9, ror #28
    306c:	00000002 	andeq	r0, r0, r2
    3070:	05001b05 	streq	r1, [r0, #-2821]	; 0xfffff4fb
    3074:	00a0e802 	adceq	lr, r0, r2, lsl #16
    3078:	1c051400 	cfstrsne	mvf1, [r5], {-0}
    307c:	06010501 	streq	r0, [r1], -r1, lsl #10
    3080:	00020201 	andeq	r0, r2, r1, lsl #4
    3084:	01bb0101 			; <UNDEFINED> instruction: 0x01bb0101
    3088:	00030000 	andeq	r0, r3, r0
    308c:	000000bf 	strheq	r0, [r0], -pc	; <UNPREDICTABLE>
    3090:	0efb0102 	cdpeq	1, 15, cr0, cr11, cr2, {0}
    3094:	0101000d 	tsteq	r1, sp
    3098:	00000101 	andeq	r0, r0, r1, lsl #2
    309c:	00000100 	andeq	r0, r0, r0, lsl #2
    30a0:	6f682f01 	svcvs	0x00682f01
    30a4:	652f656d 	strvs	r6, [pc, #-1389]!	; 2b3f <__code_start__-0x54c1>
    30a8:	656c676e 	strbvs	r6, [ip, #-1902]!	; 0xfffff892
    30ac:	6c632f72 	stclvs	15, cr2, [r3], #-456	; 0xfffffe38
    30b0:	2f737361 	svccs	0x00737361
    30b4:	34327363 	ldrtcc	r7, [r2], #-867	; 0xfffffc9d
    30b8:	2d786c30 	ldclcs	12, cr6, [r8, #-192]!	; 0xffffff40
    30bc:	70733232 	rsbsvc	r3, r3, r2, lsr r2
    30c0:	6c2f2f72 	stcvs	15, cr2, [pc], #-456	; 2f00 <__code_start__-0x5100>
    30c4:	69706269 	ldmdbvs	r0!, {r0, r3, r5, r6, r9, sp, lr}^
    30c8:	636e692f 	cmnvs	lr, #770048	; 0xbc000
    30cc:	6564756c 	strbvs	r7, [r4, #-1388]!	; 0xfffffa94
    30d0:	73752f00 	cmnvc	r5, #0, 30
    30d4:	68732f72 	ldmdavs	r3!, {r1, r4, r5, r6, r8, r9, sl, fp, sp}^
    30d8:	2f657261 	svccs	0x00657261
    30dc:	2d636367 	stclcs	3, cr6, [r3, #-412]!	; 0xfffffe64
    30e0:	2d6d7261 	sfmcs	f7, 2, [sp, #-388]!	; 0xfffffe7c
    30e4:	656e6f6e 	strbvs	r6, [lr, #-3950]!	; 0xfffff092
    30e8:	6261652d 	rsbvs	r6, r1, #188743680	; 0xb400000
    30ec:	30312d69 	eorscc	r2, r1, r9, ror #26
    30f0:	322d332e 	eorcc	r3, sp, #-1207959552	; 0xb8000000
    30f4:	2e313230 	mrccs	2, 1, r3, cr1, cr0, {1}
    30f8:	6c2f3031 	stcvs	0, cr3, [pc], #-196	; 303c <__code_start__-0x4fc4>
    30fc:	672f6269 	strvs	r6, [pc, -r9, ror #4]!
    3100:	612f6363 			; <UNDEFINED> instruction: 0x612f6363
    3104:	6e2d6d72 	mcrvs	13, 1, r6, cr13, cr2, {3}
    3108:	2d656e6f 	stclcs	14, cr6, [r5, #-444]!	; 0xfffffe44
    310c:	69626165 	stmdbvs	r2!, {r0, r2, r5, r6, r8, sp, lr}^
    3110:	2e30312f 	rsfcssp	f3, f0, #10.0
    3114:	2f312e33 	svccs	0x00312e33
    3118:	6c636e69 	stclvs	14, cr6, [r3], #-420	; 0xfffffe5c
    311c:	00656475 	rsbeq	r6, r5, r5, ror r4
    3120:	69706700 	ldmdbvs	r0!, {r8, r9, sl, sp, lr}^
    3124:	00632e6f 	rsbeq	r2, r3, pc, ror #28
    3128:	72000000 	andvc	r0, r0, #0, 0
    312c:	682e6970 	stmdavs	lr!, {r4, r5, r6, r8, fp, sp, lr}
    3130:	00000100 	andeq	r0, r0, r0, lsl #2
    3134:	69647473 	stmdbvs	r4!, {r0, r1, r4, r5, r6, sl, ip, sp, lr}^
    3138:	672d746e 	strvs	r7, [sp, -lr, ror #8]!
    313c:	682e6363 	stmdavs	lr!, {r0, r1, r5, r6, r8, r9, sp, lr}
    3140:	00000200 	andeq	r0, r0, r0, lsl #4
    3144:	6f697067 	svcvs	0x00697067
    3148:	0100682e 	tsteq	r0, lr, lsr #16
    314c:	05000000 	streq	r0, [r0, #-0]
    3150:	02050038 	andeq	r0, r5, #56, 0	; 0x38
    3154:	0000a104 	andeq	sl, r0, r4, lsl #2
    3158:	05012703 	streq	r2, [r1, #-1795]	; 0xfffff8fd
    315c:	07051305 	streq	r1, [r5, -r5, lsl #6]
    3160:	38050106 	stmdacc	r5, {r1, r2, r8}
    3164:	06050549 	streq	r0, [r5], -r9, asr #10
    3168:	0607054d 	streq	r0, [r7], -sp, asr #10
    316c:	06050501 	streq	r0, [r5], -r1, lsl #10
    3170:	0618054c 	ldreq	r0, [r8], -ip, asr #10
    3174:	ba0e0501 	blt	384580 <__bss_end__+0x379c68>
    3178:	2f060505 	svccs	0x00060505
    317c:	01061c05 	tsteq	r6, r5, lsl #24
    3180:	2e0e052e 	cfsh32cs	mvfx0, mvfx14, #30
    3184:	30060505 	andcc	r0, r6, r5, lsl #10
    3188:	01061205 	tsteq	r6, r5, lsl #4
    318c:	4b060505 	blmi	1845a8 <__bss_end__+0x179c90>
    3190:	01060705 	tsteq	r6, r5, lsl #14
    3194:	4b060505 	blmi	1845b0 <__bss_end__+0x179c98>
    3198:	052e0613 	streq	r0, [lr, #-1555]!	; 0xfffff9ed
    319c:	24054b01 	strcs	r4, [r5], #-2817	; 0xfffff4ff
    31a0:	01064c06 	tsteq	r6, r6, lsl #24
    31a4:	2f060505 	svccs	0x00060505
    31a8:	4b060105 	blmi	1835c4 <__bss_end__+0x178cac>
    31ac:	31062005 	tstcc	r6, r5
    31b0:	05130505 	ldreq	r0, [r3, #-1285]	; 0xfffffafb
    31b4:	05010607 	streq	r0, [r1, #-1543]	; 0xfffff9f9
    31b8:	05054920 	streq	r4, [r5, #-2336]	; 0xfffff6e0
    31bc:	66063106 	strvs	r3, [r6], -r6, lsl #2
    31c0:	052f0105 	streq	r0, [pc, #-261]!	; 30c3 <__code_start__-0x4f3d>
    31c4:	054d0621 	strbeq	r0, [sp, #-1569]	; 0xfffff9df
    31c8:	07051305 	streq	r1, [r5, -r5, lsl #6]
    31cc:	21050106 	tstcs	r5, r6, lsl #2
    31d0:	06050549 	streq	r0, [r5], -r9, asr #10
    31d4:	05660631 	strbeq	r0, [r6, #-1585]!	; 0xfffff9cf
    31d8:	23052f01 	movwcs	r2, #24321	; 0x5f01
    31dc:	01064d06 	tsteq	r6, r6, lsl #26
    31e0:	2f060505 	svccs	0x00060505
    31e4:	4b060105 	blmi	183600 <__bss_end__+0x178ce8>
    31e8:	31062b05 	tstcc	r6, r5, lsl #22
    31ec:	05050106 	streq	r0, [r5, #-262]	; 0xfffffefa
    31f0:	07052f06 	streq	r2, [r5, -r6, lsl #30]
    31f4:	09050106 	stmdbeq	r5, {r1, r2, r8}
    31f8:	2e064b06 	vmlacs.f64	d4, d6, d6
    31fc:	01053006 	tsteq	r5, r6
    3200:	1d052f06 	stcne	15, cr2, [r5, #-24]	; 0xffffffe8
    3204:	05053006 	streq	r3, [r5, #-6]
    3208:	06070513 			; <UNDEFINED> instruction: 0x06070513
    320c:	491d0501 	ldmdbmi	sp, {r0, r8, sl}
    3210:	31060505 	tstcc	r6, r5, lsl #10
    3214:	060e0513 			; <UNDEFINED> instruction: 0x060e0513
    3218:	06050501 	streq	r0, [r5], -r1, lsl #10
    321c:	0617052f 	ldreq	r0, [r7], -pc, lsr #10
    3220:	23054a01 	movwcs	r4, #23041	; 0x5a01
    3224:	0502042e 	streq	r0, [r2, #-1070]	; 0xfffffbd2
    3228:	dc030630 	stcle	6, cr0, [r3], {48}	; 0x30
    322c:	01042e00 	tsteq	r4, r0, lsl #28
    3230:	03060c05 	movweq	r0, #27653	; 0x6c05
    3234:	05017fa4 	streq	r7, [r1, #-4004]	; 0xfffff05c
    3238:	10052f01 	andne	r2, r5, r1, lsl #30
    323c:	3201052a 	andcc	r0, r1, #176160768	; 0xa800000
    3240:	01000402 	tsteq	r0, r2, lsl #8
    3244:	Address 0x0000000000003244 is out of bounds.


Disassembly of section .debug_str:

00000000 <.debug_str>:
   0:	63755f5f 	cmnvs	r5, #380	; 0x17c
   4:	755f5f00 	ldrbvc	r5, [pc, #-3840]	; fffff10c <__bss_end__+0xffff47f4>
   8:	5f5f0064 	svcpl	0x005f0064
   c:	6e006675 	mcrvs	6, 0, r6, cr0, cr5, {3}
  10:	616d746f 	cmnvs	sp, pc, ror #8
  14:	66006e69 	strvs	r6, [r0], -r9, ror #28
  18:	74616f6c 	strbtvc	r6, [r1], #-3948	; 0xfffff094
  1c:	5f00632e 	svcpl	0x0000632e
  20:	6e616e5f 	mcrvs	14, 3, r6, cr1, cr15, {2}
  24:	006e755f 	rsbeq	r7, lr, pc, asr r5
  28:	766e6566 	strbtvc	r6, [lr], -r6, ror #10
  2c:	7500745f 	strvc	r7, [r0, #-1119]	; 0xfffffba1
  30:	6769736e 	strbvs	r7, [r9, -lr, ror #6]!
  34:	2064656e 	rsbcs	r6, r4, lr, ror #10
  38:	72616863 	rsbvc	r6, r1, #6488064	; 0x630000
  3c:	6c656400 	cfstrdvs	mvd6, [r5], #-0
  40:	6d5f7961 	vldrvs.16	s15, [pc, #-194]	; ffffff86 <__bss_end__+0xffff566e>	; <UNPREDICTABLE>
  44:	5f5f0073 	svcpl	0x005f0073
  48:	69666e69 	stmdbvs	r6!, {r0, r3, r5, r6, r9, sl, fp, sp, lr}^
  4c:	7974696e 	ldmdbvc	r4!, {r1, r2, r3, r5, r6, r8, fp, sp, lr}^
  50:	6f687300 	svcvs	0x00687300
  54:	75207472 	strvc	r7, [r0, #-1138]!	; 0xfffffb8e
  58:	6769736e 	strbvs	r7, [r9, -lr, ror #6]!
  5c:	2064656e 	rsbcs	r6, r4, lr, ror #10
  60:	00746e69 	rsbseq	r6, r4, r9, ror #28
  64:	616e5f5f 	cmnvs	lr, pc, asr pc
  68:	4e47006e 	cdpmi	0, 4, cr0, cr7, cr14, {3}
  6c:	39432055 	stmdbcc	r3, {r0, r2, r4, r6, sp}^
  70:	2e392039 	mrccs	0, 1, r2, cr9, cr9, {1}
  74:	20312e32 	eorscs	r2, r1, r2, lsr lr
  78:	39313032 	ldmdbcc	r1!, {r1, r4, r5, ip, sp}
  7c:	35323031 	ldrcc	r3, [r2, #-49]!	; 0xffffffcf
  80:	65722820 	ldrbvs	r2, [r2, #-2080]!	; 0xfffff7e0
  84:	7361656c 	cmnvc	r1, #108, 10	; 0x1b000000
  88:	5b202965 	blpl	80a624 <__bss_end__+0x7ffd0c>
  8c:	2f4d5241 	svccs	0x004d5241
  90:	2d6d7261 	sfmcs	f7, 2, [sp, #-388]!	; 0xfffffe7c
  94:	72622d39 	rsbvc	r2, r2, #3648	; 0xe40
  98:	68636e61 	stmdavs	r3!, {r0, r5, r6, r9, sl, fp, sp, lr}^
  9c:	76657220 	strbtvc	r7, [r5], -r0, lsr #4
  a0:	6f697369 	svcvs	0x00697369
  a4:	3732206e 	ldrcc	r2, [r2, -lr, rrx]!
  a8:	39393537 	ldmdbcc	r9!, {r0, r1, r2, r4, r5, r8, sl, ip, sp}
  ac:	6d2d205d 	stcvs	0, cr2, [sp, #-372]!	; 0xfffffe8c
  b0:	3d757063 	ldclcc	0, cr7, [r5, #-396]!	; 0xfffffe74
  b4:	316d7261 	cmncc	sp, r1, ror #4
  b8:	6a363731 	bvs	d8dd84 <__bss_end__+0xd8346c>
  bc:	732d667a 			; <UNDEFINED> instruction: 0x732d667a
  c0:	746d2d20 	strbtvc	r2, [sp], #-3360	; 0xfffff2e0
  c4:	3d656e75 	stclcc	14, cr6, [r5, #-468]!	; 0xfffffe2c
  c8:	316d7261 	cmncc	sp, r1, ror #4
  cc:	6a363731 	bvs	d8dd98 <__bss_end__+0xd83480>
  d0:	732d667a 			; <UNDEFINED> instruction: 0x732d667a
  d4:	666d2d20 	strbtvs	r2, [sp], -r0, lsr #26
  d8:	74616f6c 	strbtvc	r6, [r1], #-3948	; 0xfffff094
  dc:	6962612d 	stmdbvs	r2!, {r0, r2, r3, r5, r8, sp, lr}^
  e0:	7261683d 	rsbvc	r6, r1, #3997696	; 0x3d0000
  e4:	6d2d2064 	stcvs	0, cr2, [sp, #-400]!	; 0xfffffe70
  e8:	3d757066 	ldclcc	0, cr7, [r5, #-408]!	; 0xfffffe68
  ec:	20706676 	rsbscs	r6, r0, r6, ror r6
  f0:	72616d2d 	rsbvc	r6, r1, #2880	; 0xb40
  f4:	6d2d206d 	stcvs	0, cr2, [sp, #-436]!	; 0xfffffe4c
  f8:	68637261 	stmdavs	r3!, {r0, r5, r6, r9, ip, sp, lr}^
  fc:	6d72613d 	ldfvse	f6, [r2, #-244]!	; 0xffffff0c
 100:	7a6b3676 	bvc	1acdae0 <__bss_end__+0x1ac31c8>
 104:	2070662b 	rsbscs	r6, r0, fp, lsr #12
 108:	6467672d 	strbtvs	r6, [r7], #-1837	; 0xfffff8d3
 10c:	4f2d2062 	svcmi	0x002d2062
 110:	732d2067 			; <UNDEFINED> instruction: 0x732d2067
 114:	673d6474 			; <UNDEFINED> instruction: 0x673d6474
 118:	3939756e 	ldmdbcc	r9!, {r1, r2, r3, r5, r6, r8, sl, ip, sp, lr}
 11c:	66662d20 	strbtvs	r2, [r6], -r0, lsr #26
 120:	73656572 	cmnvc	r5, #478150656	; 0x1c800000
 124:	646e6174 	strbtvs	r6, [lr], #-372	; 0xfffffe8c
 128:	00676e69 	rsbeq	r6, r7, r9, ror #28
 12c:	6e695f5f 	mcrvs	15, 3, r5, cr9, cr15, {2}
 130:	696e6966 	stmdbvs	lr!, {r1, r2, r5, r6, r8, fp, sp, lr}^
 134:	755f7974 	ldrbvc	r7, [pc, #-2420]	; fffff7c8 <__bss_end__+0xffff4eb0>
 138:	5f5f006e 	svcpl	0x005f006e
 13c:	645f6566 	ldrbvs	r6, [pc], #-1382	; 144 <__code_start__-0x7ebc>
 140:	655f6c66 	ldrbvs	r6, [pc, #-3174]	; fffff4e2 <__bss_end__+0xffff4bca>
 144:	6c00766e 	stcvs	6, cr7, [r0], {110}	; 0x6e
 148:	20676e6f 	rsbcs	r6, r7, pc, ror #28
 14c:	676e6f6c 	strbvs	r6, [lr, -ip, ror #30]!
 150:	736e7520 	cmnvc	lr, #32, 10	; 0x8000000
 154:	656e6769 	strbvs	r6, [lr, #-1897]!	; 0xfffff897
 158:	6e692064 	cdpvs	0, 6, cr2, cr9, cr4, {3}
 15c:	6f6c0074 	svcvs	0x006c0074
 160:	6c20676e 	stcvs	7, cr6, [r0], #-440	; 0xfffffe48
 164:	20676e6f 	rsbcs	r6, r7, pc, ror #28
 168:	00746e69 	rsbseq	r6, r4, r9, ror #28
 16c:	5f697072 	svcpl	0x00697072
 170:	63747570 	cmnvs	r4, #112, 10	; 0x1c000000
 174:	00726168 	rsbseq	r6, r2, r8, ror #2
 178:	6573552f 	ldrbvs	r5, [r3, #-1327]!	; 0xfffffad1
 17c:	6a2f7372 	bvs	bdcf4c <__bss_end__+0xbd2634>
 180:	65696d61 	strbvs	r6, [r9, #-3425]!	; 0xfffff29f
 184:	636f442f 	cmnvs	pc, #788529152	; 0x2f000000
 188:	6e656d75 	mcrvs	13, 3, r6, cr5, cr5, {3}
 18c:	432f7374 			; <UNDEFINED> instruction: 0x432f7374
 190:	30343153 	eorscc	r3, r4, r3, asr r1
 194:	73632f45 	cmnvc	r3, #276	; 0x114
 198:	45303431 	ldrmi	r3, [r0, #-1073]!	; 0xfffffbcf
 19c:	6e69662d 	cdpvs	6, 6, cr6, cr9, cr13, {1}
 1a0:	702d6c61 	eorvc	r6, sp, r1, ror #24
 1a4:	656a6f72 	strbvs	r6, [sl, #-3954]!	; 0xfffff08e
 1a8:	722f7463 	eorvc	r7, pc, #1660944384	; 0x63000000
 1ac:	76656c65 	strbtvc	r6, [r5], -r5, ror #24
 1b0:	2d746e61 	ldclcs	14, cr6, [r4, #-388]!	; 0xfffffe7c
 1b4:	7362616c 	cmnvc	r2, #27
 1b8:	63696d2f 	cmnvs	r9, #3008	; 0xbc0
 1bc:	68706f72 	ldmdavs	r0!, {r1, r4, r5, r6, r8, r9, sl, fp, sp, lr}^
 1c0:	2d656e6f 	stclcs	14, cr6, [r5, #-444]!	; 0xfffffe44
 1c4:	6c303432 	cfldrsvs	mvf3, [r0], #-200	; 0xffffff38
 1c8:	2d382d78 	ldccs	13, cr2, [r8, #-480]!	; 0xfffffe20
 1cc:	2d633269 	sfmcs	f3, 2, [r3, #-420]!	; 0xfffffe5c
 1d0:	2f636461 	svccs	0x00636461
 1d4:	616f6c66 	cmnvs	pc, r6, ror #24
 1d8:	65742d74 	ldrbvs	r2, [r4, #-3444]!	; 0xfffff28c
 1dc:	73007473 	movwvc	r7, #1139	; 0x473
 1e0:	74726f68 	ldrbtvc	r6, [r2], #-3944	; 0xfffff098
 1e4:	746e6920 	strbtvc	r6, [lr], #-2336	; 0xfffff6e0
 1e8:	6e697500 	cdpvs	5, 6, cr7, cr9, cr0, {0}
 1ec:	5f323374 	svcpl	0x00323374
 1f0:	552f0074 	strpl	r0, [pc, #-116]!	; 184 <__code_start__-0x7e7c>
 1f4:	73726573 	cmnvc	r2, #482344960	; 0x1cc00000
 1f8:	6d616a2f 	vstmdbvs	r1!, {s13-s59}
 1fc:	442f6569 	strtmi	r6, [pc], #-1385	; 204 <__code_start__-0x7dfc>
 200:	6d75636f 	ldclvs	3, cr6, [r5, #-444]!	; 0xfffffe44
 204:	73746e65 	cmnvc	r4, #1616	; 0x650
 208:	3153432f 	cmpcc	r3, pc, lsr #6
 20c:	2f453034 	svccs	0x00453034
 210:	34317363 	ldrtcc	r7, [r1], #-867	; 0xfffffc9d
 214:	662d4530 			; <UNDEFINED> instruction: 0x662d4530
 218:	6c616e69 	stclvs	14, cr6, [r1], #-420	; 0xfffffe5c
 21c:	6f72702d 	svcvs	0x0072702d
 220:	7463656a 	strbtvc	r6, [r3], #-1386	; 0xfffffa96
 224:	62696c2f 	rsbvs	r6, r9, #12032	; 0x2f00
 228:	34322d73 	ldrtcc	r2, [r2], #-3443	; 0xfffff28d
 22c:	2f786c30 	svccs	0x00786c30
 230:	7062696c 	rsbvc	r6, r2, ip, ror #18
 234:	696c2f69 	stmdbvs	ip!, {r0, r3, r5, r6, r8, r9, sl, fp, sp}^
 238:	75006d62 	strvc	r6, [r0, #-3426]	; 0xfffff29e
 23c:	36746e69 	ldrbtcc	r6, [r4], -r9, ror #28
 240:	00745f34 	rsbseq	r5, r4, r4, lsr pc
 244:	755f6867 	ldrbvc	r6, [pc, #-2151]	; fffff9e5 <__bss_end__+0xffff50cd>
 248:	695f7500 	ldmdbvs	pc, {r8, sl, ip, sp, lr}^	; <UNPREDICTABLE>
 24c:	3436746e 	ldrtcc	r7, [r6], #-1134	; 0xfffffb92
 250:	7600745f 			; <UNDEFINED> instruction: 0x7600745f
 254:	65756c61 	ldrbvs	r6, [r5, #-3169]!	; 0xfffff39f
 258:	6b5f5f00 	blvs	17d7e60 <__bss_end__+0x17cd548>
 25c:	656e7265 	strbvs	r7, [lr, #-613]!	; 0xfffffd9b
 260:	69735f6c 	ldmdbvs	r3!, {r2, r3, r5, r6, r8, r9, sl, fp, ip, lr}^
 264:	6f6c006e 	svcvs	0x006c006e
 268:	6420676e 	strtvs	r6, [r0], #-1902	; 0xfffff892
 26c:	6c62756f 	cfstr64vs	mvdx7, [r2], #-444	; 0xfffffe44
 270:	5f5f0065 	svcpl	0x005f0065
 274:	65656569 	strbvs	r6, [r5, #-1385]!	; 0xfffffa97
 278:	5f343537 	svcpl	0x00343537
 27c:	5f6d6572 	svcpl	0x006d6572
 280:	326f6970 	rsbcc	r6, pc, #112, 18	; 0x1c0000
 284:	635f7300 	cmpvs	pc, #0, 6
 288:	632e736f 			; <UNDEFINED> instruction: 0x632e736f
 28c:	695f7500 	ldmdbvs	pc, {r8, sl, ip, sp, lr}^	; <UNPREDICTABLE>
 290:	3233746e 	eorscc	r7, r3, #1845493760	; 0x6e000000
 294:	7800745f 	stmdavc	r0, {r0, r1, r2, r3, r4, r6, sl, ip, sp, lr}
 298:	74726170 	ldrbtvc	r6, [r2], #-368	; 0xfffffe90
 29c:	5f5f0073 	svcpl	0x005f0073
 2a0:	6e72656b 	cdpvs	5, 7, cr6, cr2, cr11, {3}
 2a4:	635f6c65 	cmpvs	pc, #25856	; 0x6500
 2a8:	6900736f 	stmdbvs	r0, {r0, r1, r2, r3, r5, r6, r8, r9, ip, sp, lr}
 2ac:	5f656565 	svcpl	0x00656565
 2b0:	62756f64 	rsbsvs	r6, r5, #100, 30	; 0x190
 2b4:	735f656c 	cmpvc	pc, #108, 10	; 0x1b000000
 2b8:	65706168 	ldrbvs	r6, [r0, #-360]!	; 0xfffffe98
 2bc:	7079745f 	rsbsvc	r7, r9, pc, asr r4
 2c0:	5f6b0065 	svcpl	0x006b0065
 2c4:	2e736f63 	cdpcs	15, 7, cr6, cr3, cr3, {3}
 2c8:	5f6b0063 	svcpl	0x006b0063
 2cc:	2e6e6973 			; <UNDEFINED> instruction: 0x2e6e6973
 2d0:	61680063 	cmnvs	r8, r3, rrx
 2d4:	7000666c 	andvc	r6, r0, ip, ror #12
 2d8:	5f326f69 	svcpl	0x00326f69
 2dc:	70007431 	andvc	r7, r0, r1, lsr r4
 2e0:	5f326f69 	svcpl	0x00326f69
 2e4:	68007432 	stmdavs	r0, {r1, r4, r5, sl, ip, sp, lr}
 2e8:	00686769 	rsbeq	r6, r8, r9, ror #14
 2ec:	6964656d 	stmdbvs	r4!, {r0, r2, r3, r5, r6, r8, sl, sp, lr}^
 2f0:	5f006d75 	svcpl	0x00006d75
 2f4:	72656b5f 	rsbvc	r6, r5, #97280	; 0x17c00
 2f8:	5f6c656e 	svcpl	0x006c656e
 2fc:	5f6d6572 	svcpl	0x006d6572
 300:	326f6970 	rsbcc	r6, pc, #112, 18	; 0x1c0000
 304:	5f6c6700 	svcpl	0x006c6700
 308:	69700075 	ldmdbvs	r0!, {r0, r2, r4, r5, r6}^
 30c:	335f326f 	cmpcc	pc, #-268435450	; 0xf0000006
 310:	6e690074 	mcrvs	0, 3, r0, cr9, cr4, {3}
 314:	6f697076 	svcvs	0x00697076
 318:	5f650032 	svcpl	0x00650032
 31c:	5f6d6572 	svcpl	0x006d6572
 320:	326f6970 	rsbcc	r6, pc, #112, 18	; 0x1c0000
 324:	7400632e 	strvc	r6, [r0], #-814	; 0xfffffcd2
 328:	34326f77 	ldrtcc	r6, [r2], #-3959	; 0xfffff089
 32c:	6f697000 	svcvs	0x00697000
 330:	00315f32 	eorseq	r5, r1, r2, lsr pc
 334:	326f6970 	rsbcc	r6, pc, #112, 18	; 0x1c0000
 338:	7000325f 	andvc	r3, r0, pc, asr r2
 33c:	5f326f69 	svcpl	0x00326f69
 340:	77690033 			; <UNDEFINED> instruction: 0x77690033
 344:	7a00755f 	bvc	1d8c8 <__bss_end__+0x12fb0>
 348:	006f7265 	rsbeq	r7, pc, r5, ror #4
 34c:	6f6f6c66 	svcvs	0x006f6c66
 350:	63730072 	cmnvs	r3, #114, 0	; 0x72
 354:	6e626c61 	cdpvs	12, 6, cr6, cr2, cr1, {3}
 358:	63657200 	cmnvs	r5, #0, 4
 35c:	75706d6f 	ldrbvc	r6, [r0, #-3439]!	; 0xfffff291
 360:	69006574 	stmdbvs	r0, {r2, r4, r5, r6, r8, sl, sp, lr}
 364:	5f74696e 	svcpl	0x0074696e
 368:	74006b6a 	strvc	r6, [r0], #-2922	; 0xfffff496
 36c:	326e6f77 	rsbcc	r6, lr, #476	; 0x1dc
 370:	5f6b0034 	svcpl	0x006b0034
 374:	5f6d6572 	svcpl	0x006d6572
 378:	326f6970 	rsbcc	r6, pc, #112, 18	; 0x1c0000
 37c:	6900632e 	stmdbvs	r0, {r1, r2, r3, r5, r8, r9, sp, lr}
 380:	326f6970 	rsbcc	r6, pc, #112, 18	; 0x1c0000
 384:	72616300 	rsbvc	r6, r1, #0, 6
 388:	50007972 	andpl	r7, r0, r2, ror r9
 38c:	00326f49 	eorseq	r6, r2, r9, asr #30
 390:	63657270 	cmnvs	r5, #112, 4
 394:	735f7300 	cmpvc	pc, #0, 6
 398:	626c6163 	rsbvs	r6, ip, #-1073741800	; 0xc0000018
 39c:	00632e6e 	rsbeq	r2, r3, lr, ror #28
 3a0:	796e6974 	stmdbvc	lr!, {r2, r4, r5, r6, r8, fp, sp, lr}^
 3a4:	6f777400 	svcvs	0x00777400
 3a8:	0034356d 	eorseq	r3, r4, sp, ror #10
 3ac:	356f7774 	strbcc	r7, [pc, #-1908]!	; fffffc40 <__bss_end__+0xffff5328>
 3b0:	6f630034 	svcvs	0x00630034
 3b4:	69737970 	ldmdbvs	r3!, {r4, r5, r6, r8, fp, ip, sp, lr}^
 3b8:	73006e67 	movwvc	r6, #3687	; 0xe67
 3bc:	00755f68 	rsbseq	r5, r5, r8, ror #30
 3c0:	755f7765 	ldrbvc	r7, [pc, #-1893]	; fffffc63 <__bss_end__+0xffff534b>
 3c4:	67756800 	ldrbvs	r6, [r5, -r0, lsl #16]!
 3c8:	5f730065 	svcpl	0x00730065
 3cc:	6f6f6c66 	svcvs	0x006f6c66
 3d0:	00632e72 	rsbeq	r2, r3, r2, ror lr
 3d4:	6f635f73 	svcvs	0x00635f73
 3d8:	69737970 	ldmdbvs	r3!, {r4, r5, r6, r8, fp, ip, sp, lr}^
 3dc:	632e6e67 			; <UNDEFINED> instruction: 0x632e6e67
 3e0:	735f7300 	cmpvc	pc, #0, 6
 3e4:	632e6e69 			; <UNDEFINED> instruction: 0x632e6e69
 3e8:	67726100 	ldrbvs	r6, [r2, -r0, lsl #2]!
 3ec:	61760073 	cmnvs	r6, r3, ror r0
 3f0:	6972705f 	ldmdbvs	r2!, {r0, r1, r2, r3, r4, r6, ip, sp, lr}^
 3f4:	006b746e 	rsbeq	r7, fp, lr, ror #8
 3f8:	6e675f5f 	mcrvs	15, 3, r5, cr7, cr15, {2}
 3fc:	765f6375 			; <UNDEFINED> instruction: 0x765f6375
 400:	696c5f61 	stmdbvs	ip!, {r0, r5, r6, r8, r9, sl, fp, ip, lr}^
 404:	47007473 	smlsdxmi	r0, r3, r4, r7
 408:	4320554e 			; <UNDEFINED> instruction: 0x4320554e
 40c:	39203939 	stmdbcc	r0!, {r0, r3, r4, r5, r8, fp, ip, sp}
 410:	312e322e 			; <UNDEFINED> instruction: 0x312e322e
 414:	31303220 	teqcc	r0, r0, lsr #4
 418:	32303139 	eorscc	r3, r0, #1073741838	; 0x4000000e
 41c:	72282035 	eorvc	r2, r8, #53, 0	; 0x35
 420:	61656c65 	cmnvs	r5, r5, ror #24
 424:	20296573 	eorcs	r6, r9, r3, ror r5
 428:	4d52415b 	ldfmie	f4, [r2, #-364]	; 0xfffffe94
 42c:	6d72612f 	ldfvse	f6, [r2, #-188]!	; 0xffffff44
 430:	622d392d 	eorvs	r3, sp, #737280	; 0xb4000
 434:	636e6172 	cmnvs	lr, #-2147483620	; 0x8000001c
 438:	65722068 	ldrbvs	r2, [r2, #-104]!	; 0xffffff98
 43c:	69736976 	ldmdbvs	r3!, {r1, r2, r4, r5, r6, r8, fp, sp, lr}^
 440:	32206e6f 	eorcc	r6, r0, #1776	; 0x6f0
 444:	39353737 	ldmdbcc	r5!, {r0, r1, r2, r4, r5, r8, r9, sl, ip, sp}
 448:	2d205d39 	stccs	13, cr5, [r0, #-228]!	; 0xffffff1c
 44c:	6f6c666d 	svcvs	0x006c666d
 450:	612d7461 			; <UNDEFINED> instruction: 0x612d7461
 454:	683d6962 	ldmdavs	sp!, {r1, r5, r6, r8, fp, sp, lr}
 458:	20647261 	rsbcs	r7, r4, r1, ror #4
 45c:	70666d2d 	rsbvc	r6, r6, sp, lsr #26
 460:	66763d75 			; <UNDEFINED> instruction: 0x66763d75
 464:	6d2d2070 	stcvs	0, cr2, [sp, #-448]!	; 0xfffffe40
 468:	3d757063 	ldclcc	0, cr7, [r5, #-396]!	; 0xfffffe74
 46c:	316d7261 	cmncc	sp, r1, ror #4
 470:	6a363731 	bvs	d8e13c <__bss_end__+0xd83824>
 474:	732d667a 			; <UNDEFINED> instruction: 0x732d667a
 478:	746d2d20 	strbtvc	r2, [sp], #-3360	; 0xfffff2e0
 47c:	3d656e75 	stclcc	14, cr6, [r5, #-468]!	; 0xfffffe2c
 480:	316d7261 	cmncc	sp, r1, ror #4
 484:	6a363731 	bvs	d8e150 <__bss_end__+0xd83838>
 488:	732d667a 			; <UNDEFINED> instruction: 0x732d667a
 48c:	666d2d20 	strbtvs	r2, [sp], -r0, lsr #26
 490:	74616f6c 	strbtvc	r6, [r1], #-3948	; 0xfffff094
 494:	6962612d 	stmdbvs	r2!, {r0, r2, r3, r5, r8, sp, lr}^
 498:	7261683d 	rsbvc	r6, r1, #3997696	; 0x3d0000
 49c:	6d2d2064 	stcvs	0, cr2, [sp, #-400]!	; 0xfffffe70
 4a0:	3d757066 	ldclcc	0, cr7, [r5, #-408]!	; 0xfffffe68
 4a4:	20706676 	rsbscs	r6, r0, r6, ror r6
 4a8:	72616d2d 	rsbvc	r6, r1, #2880	; 0xb40
 4ac:	6d2d206d 	stcvs	0, cr2, [sp, #-436]!	; 0xfffffe4c
 4b0:	68637261 	stmdavs	r3!, {r0, r5, r6, r9, ip, sp, lr}^
 4b4:	6d72613d 	ldfvse	f6, [r2, #-244]!	; 0xffffff0c
 4b8:	7a6b3676 	bvc	1acde98 <__bss_end__+0x1ac3580>
 4bc:	2070662b 	rsbscs	r6, r0, fp, lsr #12
 4c0:	6467672d 	strbtvs	r6, [r7], #-1837	; 0xfffff8d3
 4c4:	672d2062 	strvs	r2, [sp, -r2, rrx]!
 4c8:	20626467 	rsbcs	r6, r2, r7, ror #8
 4cc:	20674f2d 	rsbcs	r4, r7, sp, lsr #30
 4d0:	20674f2d 	rsbcs	r4, r7, sp, lsr #30
 4d4:	6474732d 	ldrbtvs	r7, [r4], #-813	; 0xfffffcd3
 4d8:	756e673d 	strbvc	r6, [lr, #-1853]!	; 0xfffff8c3
 4dc:	2d203939 			; <UNDEFINED> instruction: 0x2d203939
 4e0:	3d647473 	cfstrdcc	mvd7, [r4, #-460]!	; 0xfffffe34
 4e4:	39756e67 	ldmdbcc	r5!, {r0, r1, r2, r5, r6, r9, sl, fp, sp, lr}^
 4e8:	662d2039 			; <UNDEFINED> instruction: 0x662d2039
 4ec:	65657266 	strbvs	r7, [r5, #-614]!	; 0xfffffd9a
 4f0:	6e617473 	mcrvs	4, 3, r7, cr1, cr3, {3}
 4f4:	676e6964 	strbvs	r6, [lr, -r4, ror #18]!
 4f8:	615f5f00 	cmpvs	pc, r0, lsl #30
 4fc:	552f0070 	strpl	r0, [pc, #-112]!	; 494 <__code_start__-0x7b6c>
 500:	73726573 	cmnvc	r2, #482344960	; 0x1cc00000
 504:	6d616a2f 	vstmdbvs	r1!, {s13-s59}
 508:	442f6569 	strtmi	r6, [pc], #-1385	; 510 <__code_start__-0x7af0>
 50c:	6d75636f 	ldclvs	3, cr6, [r5, #-444]!	; 0xfffffe44
 510:	73746e65 	cmnvc	r4, #1616	; 0x650
 514:	3153432f 	cmpcc	r3, pc, lsr #6
 518:	2f453034 	svccs	0x00453034
 51c:	34317363 	ldrtcc	r7, [r1], #-867	; 0xfffffc9d
 520:	662d4530 			; <UNDEFINED> instruction: 0x662d4530
 524:	6c616e69 	stclvs	14, cr6, [r1], #-420	; 0xfffffe5c
 528:	6f72702d 	svcvs	0x0072702d
 52c:	7463656a 	strbtvc	r6, [r3], #-1386	; 0xfffffa96
 530:	62696c2f 	rsbvs	r6, r9, #12032	; 0x2f00
 534:	34322d73 	ldrtcc	r2, [r2], #-3443	; 0xfffff28d
 538:	2f786c30 	svccs	0x00786c30
 53c:	7062696c 	rsbvc	r6, r2, ip, ror #18
 540:	2f2e0069 	svccs	0x002e0069
 544:	6362696c 	cmnvs	r2, #108, 18	; 0x1b0000
 548:	6972702f 	ldmdbvs	r2!, {r0, r1, r2, r3, r5, ip, sp, lr}^
 54c:	2e6b746e 	cdpcs	4, 6, cr7, cr11, cr14, {3}
 550:	5f5f0063 	svcpl	0x005f0063
 554:	6c5f6176 	ldfvse	f6, [pc], {118}	; 0x76
 558:	00747369 	rsbseq	r7, r4, r9, ror #6
 55c:	65746e69 	ldrbvs	r6, [r4, #-3689]!	; 0xfffff197
 560:	6c616e72 	stclvs	14, cr6, [r1], #-456	; 0xfffffe38
 564:	7475705f 	ldrbtvc	r7, [r5], #-95	; 0xffffffa1
 568:	2f2e006b 	svccs	0x002e006b
 56c:	6362696c 	cmnvs	r2, #108, 18	; 0x1b0000
 570:	7475702f 	ldrbtvc	r7, [r5], #-47	; 0xffffffd1
 574:	00632e6b 	rsbeq	r2, r3, fp, ror #28
 578:	675f7066 	ldrbvs	r7, [pc, -r6, rrx]
 57c:	665f7465 	ldrbvs	r7, [pc], -r5, ror #8
 580:	00636172 	rsbeq	r6, r3, r2, ror r1
 584:	69647369 	stmdbvs	r4!, {r0, r3, r5, r6, r8, r9, ip, sp, lr}^
 588:	00746967 	rsbseq	r6, r4, r7, ror #18
 58c:	696c2f2e 	stmdbvs	ip!, {r1, r2, r3, r5, r8, r9, sl, fp, sp}^
 590:	762f6362 	strtvc	r6, [pc], -r2, ror #6
 594:	72702d61 	rsbsvc	r2, r0, #6208	; 0x1840
 598:	6b746e69 	blvs	1d1bf44 <__bss_end__+0x1d1162c>
 59c:	6600632e 	strvs	r6, [r0], -lr, lsr #6
 5a0:	5f636172 	svcpl	0x00636172
 5a4:	006e656c 	rsbeq	r6, lr, ip, ror #10
 5a8:	6f635f5f 	svcvs	0x00635f5f
 5ac:	735f6564 	cmpvc	pc, #100, 10	; 0x19000000
 5b0:	74726174 	ldrbtvc	r6, [r2], #-372	; 0xfffffe8c
 5b4:	5f005f5f 	svcpl	0x00005f5f
 5b8:	7373625f 	cmnvc	r3, #-268435451	; 0xf0000005
 5bc:	6174735f 	cmnvs	r4, pc, asr r3
 5c0:	5f5f7472 	svcpl	0x005f7472
 5c4:	64697700 	strbtvs	r7, [r9], #-1792	; 0xfffff900
 5c8:	66006874 			; <UNDEFINED> instruction: 0x66006874
 5cc:	65675f70 	strbvs	r5, [r7, #-3952]!	; 0xfffff090
 5d0:	6e695f74 	mcrvs	15, 3, r5, cr9, cr4, {3}
 5d4:	72676574 	rsbvc	r6, r7, #116, 10	; 0x1d000000
 5d8:	5f006c61 	svcpl	0x00006c61
 5dc:	4e55465f 	mrcmi	6, 2, r4, cr5, cr15, {2}
 5e0:	4f495443 	svcmi	0x00495443
 5e4:	005f5f4e 	subseq	r5, pc, lr, asr #30
 5e8:	61656c63 	cmnvs	r5, r3, ror #24
 5ec:	65725f6e 	ldrbvs	r5, [r2, #-3950]!	; 0xfffff092
 5f0:	746f6f62 	strbtvc	r6, [pc], #-3938	; 5f8 <__code_start__-0x7a08>
 5f4:	645f5f00 	ldrbvs	r5, [pc], #-3840	; 5fc <__code_start__-0x7a04>
 5f8:	5f617461 	svcpl	0x00617461
 5fc:	5f646e65 	svcpl	0x00646e65
 600:	7570005f 	ldrbvc	r0, [r0, #-95]!	; 0xffffffa1
 604:	665f6374 			; <UNDEFINED> instruction: 0x665f6374
 608:	5f5f0070 	svcpl	0x005f0070
 60c:	5f737362 	svcpl	0x00737362
 610:	5f646e65 	svcpl	0x00646e65
 614:	5f5f005f 	svcpl	0x005f005f
 618:	70616568 	rsbvc	r6, r1, r8, ror #10
 61c:	6174735f 	cmnvs	r4, pc, asr r3
 620:	5f5f7472 	svcpl	0x005f7472
 624:	69707200 	ldmdbvs	r0!, {r9, ip, sp, lr}^
 628:	7465735f 	strbtvc	r7, [r5], #-863	; 0xfffffca1
 62c:	74756f5f 	ldrbtvc	r6, [r5], #-3935	; 0xfffff0a1
 630:	00747570 	rsbseq	r7, r4, r0, ror r5
 634:	5f746d66 	svcpl	0x00746d66
 638:	72617473 	rsbvc	r7, r1, #1929379840	; 0x73000000
 63c:	74730074 	ldrbtvc	r0, [r3], #-116	; 0xffffff8c
 640:	74616372 	strbtvc	r6, [r1], #-882	; 0xfffffc8e
 644:	72747300 	rsbsvc	r7, r4, #0, 6
 648:	00797063 	rsbseq	r7, r9, r3, rrx
 64c:	5f67656e 	svcpl	0x0067656e
 650:	5f5f0070 	svcpl	0x005f0070
 654:	65646f63 	strbvs	r6, [r4, #-3939]!	; 0xfffff09d
 658:	646e655f 	strbtvs	r6, [lr], #-1375	; 0xfffffaa1
 65c:	65005f5f 	strvs	r5, [r0, #-3935]	; 0xfffff0a1
 660:	0074696d 	rsbseq	r6, r4, sp, ror #18
 664:	73747570 	cmnvc	r4, #112, 10	; 0x1c000000
 668:	0070665f 	rsbseq	r6, r0, pc, asr r6
 66c:	65766572 	ldrbvs	r6, [r6, #-1394]!	; 0xfffffa8e
 670:	00657372 	rsbeq	r7, r5, r2, ror r3
 674:	63727473 	cmnvs	r2, #1929379840	; 0x73000000
 678:	5f00706d 	svcpl	0x0000706d
 67c:	7461645f 	strbtvc	r6, [r1], #-1119	; 0xfffffba1
 680:	74735f61 	ldrbtvc	r5, [r3], #-3937	; 0xfffff09f
 684:	5f747261 	svcpl	0x00747261
 688:	5f5f005f 	svcpl	0x005f005f
 68c:	676f7270 			; <UNDEFINED> instruction: 0x676f7270
 690:	646e655f 	strbtvs	r6, [lr], #-1375	; 0xfffffaa1
 694:	6e005f5f 	mcrvs	15, 0, r5, cr0, cr15, {2}
 698:	00316d75 	eorseq	r6, r1, r5, ror sp
 69c:	6e727473 	mrcvs	4, 3, r7, cr2, cr3, {3}
 6a0:	00706d63 	rsbseq	r6, r0, r3, ror #26
 6a4:	65736162 	ldrbvs	r6, [r3, #-354]!	; 0xfffffe9e
 6a8:	67697300 	strbvs	r7, [r9, -r0, lsl #6]!
 6ac:	5f64656e 	svcpl	0x0064656e
 6b0:	5f5f0070 	svcpl	0x005f0070
 6b4:	74696d65 	strbtvc	r6, [r9], #-3429	; 0xfffff29b
 6b8:	6f6c665f 	svcvs	0x006c665f
 6bc:	74007461 	strvc	r7, [r0], #-1121	; 0xfffffb9f
 6c0:	636e7572 	cmnvs	lr, #478150656	; 0x1c800000
 6c4:	69707200 	ldmdbvs	r0!, {r9, ip, sp, lr}^
 6c8:	6265725f 	rsbvs	r7, r5, #-268435451	; 0xf0000005
 6cc:	00746f6f 	rsbseq	r6, r4, pc, ror #30
 6d0:	74732f2e 	ldrbtvc	r2, [r3], #-3886	; 0xfffff0d2
 6d4:	2d666661 	stclcs	6, cr6, [r6, #-388]!	; 0xfffffe7c
 6d8:	2f637273 	svccs	0x00637273
 6dc:	61656c63 	cmnvs	r5, r3, ror #24
 6e0:	65722d6e 	ldrbvs	r2, [r2, #-3438]!	; 0xfffff292
 6e4:	746f6f62 	strbtvc	r6, [pc], #-3938	; 6ec <__code_start__-0x7914>
 6e8:	7500632e 	strvc	r6, [r0, #-814]	; 0xfffffcd2
 6ec:	5f747261 	svcpl	0x00747261
 6f0:	73756c66 	cmnvc	r5, #26112	; 0x6600
 6f4:	78745f68 	ldmdavc	r4!, {r3, r5, r6, r8, r9, sl, fp, ip, lr}^
 6f8:	73635f00 	cmnvc	r3, #0, 30
 6fc:	74726174 	ldrbtvc	r6, [r2], #-372	; 0xfffffe8c
 700:	73736200 	cmnvc	r3, #0, 4
 704:	646e655f 	strbtvs	r6, [lr], #-1375	; 0xfffffaa1
 708:	72617500 	rsbvc	r7, r1, #0, 10
 70c:	6e695f74 	mcrvs	15, 3, r5, cr9, cr4, {3}
 710:	63007469 	movwvs	r7, #1129	; 0x469
 714:	6f747375 	svcvs	0x00747375
 718:	6f6c5f6d 	svcvs	0x006c5f6d
 71c:	72656461 	rsbvc	r6, r5, #1627389952	; 0x61000000
 720:	732f2e00 			; <UNDEFINED> instruction: 0x732f2e00
 724:	66666174 			; <UNDEFINED> instruction: 0x66666174
 728:	6372732d 	cmnvs	r2, #-1275068416	; 0xb4000000
 72c:	7473632f 	ldrbtvc	r6, [r3], #-815	; 0xfffffcd1
 730:	2e747261 	cdpcs	2, 7, cr7, cr4, cr1, {3}
 734:	2f2e0063 	svccs	0x002e0063
 738:	66617473 			; <UNDEFINED> instruction: 0x66617473
 73c:	72732d66 	rsbsvc	r2, r3, #6528	; 0x1980
 740:	75632f63 	strbvc	r2, [r3, #-3939]!	; 0xfffff09d
 744:	6d6f7473 	cfstrdvs	mvd7, [pc, #-460]!	; 580 <__code_start__-0x7a80>
 748:	616f6c2d 	cmnvs	pc, sp, lsr #24
 74c:	2e726564 	cdpcs	5, 7, cr6, cr2, cr4, {3}
 750:	65720063 	ldrbvs	r0, [r2, #-99]!	; 0xffffff9d
 754:	746f6f62 	strbtvc	r6, [pc], #-3938	; 75c <__code_start__-0x78a4>
 758:	6c61635f 	stclvs	3, cr6, [r1], #-380	; 0xfffffe84
 75c:	74756f6c 	ldrbtvc	r6, [r5], #-3948	; 0xfffff094
 760:	5f4d5000 	svcpl	0x004d5000
 764:	474f4457 	smlsldmi	r4, pc, r7, r4	; <UNPREDICTABLE>
 768:	54555000 	ldrbpl	r5, [r5], #-0
 76c:	73003233 	movwvc	r3, #563	; 0x233
 770:	755f7465 	ldrbvc	r7, [pc, #-1125]	; 313 <__code_start__-0x7ced>
 774:	5f726573 	svcpl	0x00726573
 778:	6576656c 	ldrbvs	r6, [r6, #-1388]!	; 0xfffffa94
 77c:	2f2e006c 	svccs	0x002e006c
 780:	66617473 			; <UNDEFINED> instruction: 0x66617473
 784:	72732d66 	rsbsvc	r2, r3, #6528	; 0x1980
 788:	65722f63 	ldrbvs	r2, [r2, #-3939]!	; 0xfffff09d
 78c:	746f6f62 	strbtvc	r6, [pc], #-3938	; 794 <__code_start__-0x786c>
 790:	5000632e 	andpl	r6, r0, lr, lsr #6
 794:	41505f4d 	cmpmi	r0, sp, asr #30
 798:	4f575353 	svcmi	0x00575353
 79c:	61004452 	tstvs	r0, r2, asr r4
 7a0:	73755f74 	cmnvc	r5, #116, 30	; 0x1d0
 7a4:	6c5f7265 	lfmvs	f7, 2, [pc], {101}	; 0x65
 7a8:	6c657665 	stclvs	6, cr7, [r5], #-404	; 0xfffffe6c
 7ac:	5f4d5000 	svcpl	0x004d5000
 7b0:	43545352 	cmpmi	r4, #1207959553	; 0x48000001
 7b4:	4352575f 	cmpmi	r2, #24903680	; 0x17c0000
 7b8:	465f4746 	ldrbmi	r4, [pc], -r6, asr #14
 7bc:	5f4c4c55 	svcpl	0x004c4c55
 7c0:	45534552 	ldrbmi	r4, [r3, #-1362]	; 0xfffffaae
 7c4:	4d500054 	ldclmi	0, cr0, [r0, #-336]	; 0xfffffeb0
 7c8:	5453525f 	ldrbpl	r5, [r3], #-607	; 0xfffffda1
 7cc:	70630043 	rsbvc	r0, r3, r3, asr #32
 7d0:	64007273 	strvs	r7, [r0], #-627	; 0xfffffd8d
 7d4:	625f7665 	subsvs	r7, pc, #105906176	; 0x6500000
 7d8:	69727261 	ldmdbvs	r2!, {r0, r5, r6, r9, ip, sp, lr}^
 7dc:	64007265 	strvs	r7, [r0], #-613	; 0xfffffd9b
 7e0:	79616c65 	stmdbvc	r1!, {r0, r2, r5, r6, sl, fp, sp, lr}^
 7e4:	6365735f 	cmnvs	r5, #2080374785	; 0x7c000001
 7e8:	732f2e00 			; <UNDEFINED> instruction: 0x732f2e00
 7ec:	66666174 			; <UNDEFINED> instruction: 0x66666174
 7f0:	6372732d 	cmnvs	r2, #-1275068416	; 0xb4000000
 7f4:	6d69742f 	cfstrdvs	mvd7, [r9, #-188]!	; 0xffffff44
 7f8:	632e7265 			; <UNDEFINED> instruction: 0x632e7265
 7fc:	54454700 	strbpl	r4, [r5], #-1792	; 0xfffff900
 800:	74003233 	strvc	r3, [r0], #-563	; 0xfffffdcd
 804:	72656d69 	rsbvc	r6, r5, #6720	; 0x1a40
 808:	7465675f 	strbtvc	r6, [r5], #-1887	; 0xfffff8a1
 80c:	6573755f 	ldrbvs	r7, [r3, #-1375]!	; 0xfffffaa1
 810:	65640063 	strbvs	r0, [r4, #-99]!	; 0xffffff9d
 814:	5f79616c 	svcpl	0x0079616c
 818:	74007375 	strvc	r7, [r0], #-885	; 0xfffffc8b
 81c:	72656d69 	rsbvc	r6, r5, #6720	; 0x1a40
 820:	7465675f 	strbtvc	r6, [r5], #-1887	; 0xfffff8a1
 824:	6573755f 	ldrbvs	r7, [r3, #-1375]!	; 0xfffffaa1
 828:	61725f63 	cmnvs	r2, r3, ror #30
 82c:	75700077 	ldrbvc	r0, [r0, #-119]!	; 0xffffff89
 830:	00323374 	eorseq	r3, r2, r4, ror r3
 834:	64756162 	ldrbtvs	r6, [r5], #-354	; 0xfffffe9e
 838:	6c61765f 	stclvs	6, cr7, [r1], #-380	; 0xfffffe84
 83c:	61747300 	cmnvs	r4, r0, lsl #6
 840:	61750074 	cmnvs	r5, r4, ror r0
 844:	635f7472 	cmpvs	pc, #1912602624	; 0x72000000
 848:	675f6e61 	ldrbvs	r6, [pc, -r1, ror #28]
 84c:	00637465 	rsbeq	r7, r3, r5, ror #8
 850:	4f495047 	svcmi	0x00495047
 854:	4e55465f 	mrcmi	6, 2, r4, cr5, cr15, {2}
 858:	554f5f43 	strbpl	r5, [pc, #-3907]	; fffff91d <__bss_end__+0xffff5005>
 85c:	54555054 	ldrbpl	r5, [r5], #-84	; 0xffffffac
 860:	78756100 	ldmdavc	r5!, {r8, sp, lr}^
 864:	7265705f 	rsbvc	r7, r5, #95, 0	; 0x5f
 868:	73687069 	cmnvc	r8, #105, 0	; 0x69
 86c:	72617500 	rsbvc	r7, r1, #0, 10
 870:	00632e74 	rsbeq	r2, r3, r4, ror lr
 874:	74726175 	ldrbtvc	r6, [r2], #-373	; 0xfffffe8b
 878:	6e61635f 	mcrvs	3, 3, r6, cr1, cr15, {2}
 87c:	7475705f 	ldrbtvc	r7, [r5], #-95	; 0xffffffa1
 880:	64610063 	strbtvs	r0, [r1], #-99	; 0xffffff9d
 884:	75007264 	strvc	r7, [r0, #-612]	; 0xfffffd9c
 888:	5f747261 	svcpl	0x00747261
 88c:	695f7874 	ldmdbvs	pc, {r2, r4, r5, r6, fp, ip, sp, lr}^	; <UNPREDICTABLE>
 890:	6d655f73 	stclvs	15, cr5, [r5, #-460]!	; 0xfffffe34
 894:	00797470 	rsbseq	r7, r9, r0, ror r4
 898:	4f495047 	svcmi	0x00495047
 89c:	4e55465f 	mrcmi	6, 2, r4, cr5, cr15, {2}
 8a0:	4c415f43 	mcrrmi	15, 4, r5, r1, cr3
 8a4:	47003054 	smlsdmi	r0, r4, r0, r3
 8a8:	5f4f4950 	svcpl	0x004f4950
 8ac:	434e5546 	movtmi	r5, #58694	; 0xe546
 8b0:	544c415f 	strbpl	r4, [ip], #-351	; 0xfffffea1
 8b4:	50470031 	subpl	r0, r7, r1, lsr r0
 8b8:	465f4f49 	ldrbmi	r4, [pc], -r9, asr #30
 8bc:	5f434e55 	svcpl	0x00434e55
 8c0:	32544c41 	subscc	r4, r4, #16640	; 0x4100
 8c4:	49504700 	ldmdbmi	r0, {r8, r9, sl, lr}^
 8c8:	55465f4f 	strbpl	r5, [r6, #-3919]	; 0xfffff0b1
 8cc:	415f434e 	cmpmi	pc, lr, asr #6
 8d0:	0033544c 	eorseq	r5, r3, ip, asr #8
 8d4:	4f495047 	svcmi	0x00495047
 8d8:	4e55465f 	mrcmi	6, 2, r4, cr5, cr15, {2}
 8dc:	4c415f43 	mcrrmi	15, 4, r5, r1, cr3
 8e0:	2f003554 	svccs	0x00003554
 8e4:	656d6f68 	strbvs	r6, [sp, #-3944]!	; 0xfffff098
 8e8:	676e652f 	strbvs	r6, [lr, -pc, lsr #10]!
 8ec:	2f72656c 	svccs	0x0072656c
 8f0:	73616c63 	cmnvc	r1, #25344	; 0x6300
 8f4:	73632f73 	cmnvc	r3, #460	; 0x1cc
 8f8:	6c303432 	cfldrsvs	mvf3, [r0], #-200	; 0xffffff38
 8fc:	32322d78 	eorscc	r2, r2, #120, 26	; 0x1e00
 900:	2f727073 	svccs	0x00727073
 904:	7062696c 	rsbvc	r6, r2, ip, ror #18
 908:	74732f69 	ldrbtvc	r2, [r3], #-3945	; 0xfffff097
 90c:	2d666661 	stclcs	6, cr6, [r6, #-388]!	; 0xfffffe7c
 910:	76697270 			; <UNDEFINED> instruction: 0x76697270
 914:	00657461 	rsbeq	r7, r5, r1, ror #8
 918:	64756162 	ldrbtvs	r6, [r5], #-354	; 0xfffffe9e
 91c:	78756100 	ldmdavc	r5!, {r8, sp, lr}^
 920:	616e655f 	cmnvs	lr, pc, asr r5
 924:	73656c62 	cmnvc	r5, #25088	; 0x6200
 928:	72617500 	rsbvc	r7, r1, #0, 10
 92c:	65675f74 	strbvs	r5, [r7, #-3956]!	; 0xfffff08c
 930:	63006374 	movwvs	r6, #884	; 0x374
 934:	006c746e 	rsbeq	r7, ip, lr, ror #8
 938:	74726175 	ldrbtvc	r6, [r2], #-373	; 0xfffffe8b
 93c:	7369645f 	cmnvc	r9, #1593835520	; 0x5f000000
 940:	656c6261 	strbvs	r6, [ip, #-609]!	; 0xfffffd9f
 944:	72617500 	rsbvc	r7, r1, #0, 10
 948:	61685f74 	smcvs	34292	; 0x85f4
 94c:	61645f73 	smcvs	17907	; 0x45f3
 950:	47006174 	smlsdxmi	r0, r4, r1, r6
 954:	5f4f4950 	svcpl	0x004f4950
 958:	434e5546 	movtmi	r5, #58694	; 0xe546
 95c:	544c415f 	strbpl	r4, [ip], #-351	; 0xfffffea1
 960:	4e470034 	mcrmi	0, 2, r0, cr7, cr4, {1}
 964:	39432055 	stmdbcc	r3, {r0, r2, r4, r6, sp}^
 968:	30312039 	eorscc	r2, r1, r9, lsr r0
 96c:	312e332e 			; <UNDEFINED> instruction: 0x312e332e
 970:	32303220 	eorscc	r3, r0, #32, 4
 974:	32383031 	eorscc	r3, r8, #49, 0	; 0x31
 978:	72282034 	eorvc	r2, r8, #52, 0	; 0x34
 97c:	61656c65 	cmnvs	r5, r5, ror #24
 980:	20296573 	eorcs	r6, r9, r3, ror r5
 984:	70636d2d 	rsbvc	r6, r3, sp, lsr #26
 988:	72613d75 	rsbvc	r3, r1, #7488	; 0x1d40
 98c:	3731316d 	ldrcc	r3, [r1, -sp, ror #2]!
 990:	667a6a36 			; <UNDEFINED> instruction: 0x667a6a36
 994:	2d20732d 	stccs	3, cr7, [r0, #-180]!	; 0xffffff4c
 998:	6e75746d 	cdpvs	4, 7, cr7, cr5, cr13, {3}
 99c:	72613d65 	rsbvc	r3, r1, #6464	; 0x1940
 9a0:	3731316d 	ldrcc	r3, [r1, -sp, ror #2]!
 9a4:	667a6a36 			; <UNDEFINED> instruction: 0x667a6a36
 9a8:	2d20732d 	stccs	3, cr7, [r0, #-180]!	; 0xffffff4c
 9ac:	6f6c666d 	svcvs	0x006c666d
 9b0:	612d7461 			; <UNDEFINED> instruction: 0x612d7461
 9b4:	683d6962 	ldmdavs	sp!, {r1, r5, r6, r8, fp, sp, lr}
 9b8:	20647261 	rsbcs	r7, r4, r1, ror #4
 9bc:	70666d2d 	rsbvc	r6, r6, sp, lsr #26
 9c0:	66763d75 			; <UNDEFINED> instruction: 0x66763d75
 9c4:	6d2d2070 	stcvs	0, cr2, [sp, #-448]!	; 0xfffffe40
 9c8:	206d7261 	rsbcs	r7, sp, r1, ror #4
 9cc:	72616d2d 	rsbvc	r6, r1, #2880	; 0xb40
 9d0:	613d6863 	teqvs	sp, r3, ror #16
 9d4:	36766d72 			; <UNDEFINED> instruction: 0x36766d72
 9d8:	662b7a6b 	strtvs	r7, [fp], -fp, ror #20
 9dc:	672d2070 			; <UNDEFINED> instruction: 0x672d2070
 9e0:	20626467 	rsbcs	r6, r2, r7, ror #8
 9e4:	20674f2d 	rsbcs	r4, r7, sp, lsr #30
 9e8:	6474732d 	ldrbtvs	r7, [r4], #-813	; 0xfffffcd3
 9ec:	756e673d 	strbvc	r6, [lr, #-1853]!	; 0xfffff8c3
 9f0:	2d203939 			; <UNDEFINED> instruction: 0x2d203939
 9f4:	65726666 	ldrbvs	r6, [r2, #-1638]!	; 0xfffff99a
 9f8:	61747365 	cmnvs	r4, r5, ror #6
 9fc:	6e69646e 	cdpvs	4, 6, cr6, cr9, cr14, {3}
 a00:	726f0067 	rsbvc	r0, pc, #103, 0	; 0x67
 a04:	336e695f 	cmncc	lr, #1556480	; 0x17c000
 a08:	63730032 	cmnvs	r3, #50, 0	; 0x32
 a0c:	63746172 	cmnvs	r4, #-2147483620	; 0x8000001c
 a10:	61750068 	cmnvs	r5, r8, rrx
 a14:	61007472 	tstvs	r0, r2, ror r4
 a18:	695f646e 	ldmdbvs	pc, {r1, r2, r3, r5, r6, sl, sp, lr}^	; <UNPREDICTABLE>
 a1c:	0032336e 	eorseq	r3, r2, lr, ror #6
 a20:	74726175 	ldrbtvc	r6, [r2], #-373	; 0xfffffe8b
 a24:	7475705f 	ldrbtvc	r7, [r5], #-95	; 0xffffffa1
 a28:	50470063 	subpl	r0, r7, r3, rrx
 a2c:	465f4f49 	ldrbmi	r4, [pc], -r9, asr #30
 a30:	5f434e55 	svcpl	0x00434e55
 a34:	55504e49 	ldrbpl	r4, [r0, #-3657]	; 0xfffff1b7
 a38:	70670054 	rsbvc	r0, r7, r4, asr r0
 a3c:	735f6f69 	cmpvc	pc, #420	; 0x1a4
 a40:	665f7465 	ldrbvs	r7, [pc], -r5, ror #8
 a44:	74636e75 	strbtvc	r6, [r3], #-3701	; 0xfffff18b
 a48:	006e6f69 	rsbeq	r6, lr, r9, ror #30
 a4c:	33746567 	cmncc	r4, #432013312	; 0x19c00000
 a50:	6e690032 	mcrvs	0, 3, r0, cr9, cr2, {1}
 a54:	6e726574 	mrcvs	5, 3, r6, cr2, cr4, {3}
 a58:	705f6c61 	subsvc	r6, pc, r1, ror #24
 a5c:	68637475 	stmdavs	r3!, {r0, r2, r4, r5, r6, sl, ip, sp, lr}^
 a60:	72007261 	andvc	r7, r0, #268435462	; 0x10000006
 a64:	735f6970 	cmpvc	pc, #112, 18	; 0x1c0000
 a68:	705f7465 	subsvc	r7, pc, r5, ror #8
 a6c:	00637475 	rsbeq	r7, r3, r5, ror r4
 a70:	696c2f2e 	stmdbvs	ip!, {r1, r2, r3, r5, r8, r9, sl, fp, sp}^
 a74:	702f6362 	eorvc	r6, pc, r2, ror #6
 a78:	68637475 	stmdavs	r3!, {r0, r2, r4, r5, r6, sl, ip, sp, lr}^
 a7c:	632e7261 			; <UNDEFINED> instruction: 0x632e7261
 a80:	69707200 	ldmdbvs	r0!, {r9, ip, sp, lr}^
 a84:	7365725f 	cmnvc	r5, #-268435451	; 0xf0000005
 a88:	705f7465 	subsvc	r7, pc, r5, ror #8
 a8c:	00637475 	rsbeq	r7, r3, r5, ror r4
 a90:	74736564 	ldrbtvc	r6, [r3], #-1380	; 0xfffffa9c
 a94:	6c2f2e00 	stcvs	14, cr2, [pc], #-0	; a9c <__code_start__-0x7564>
 a98:	2f636269 	svccs	0x00636269
 a9c:	63727473 	cmnvs	r2, #1929379840	; 0x73000000
 aa0:	632e7461 			; <UNDEFINED> instruction: 0x632e7461
 aa4:	6c2f2e00 	stcvs	14, cr2, [pc], #-0	; aac <__code_start__-0x7554>
 aa8:	2f636269 	svccs	0x00636269
 aac:	63727473 	cmnvs	r2, #1929379840	; 0x73000000
 ab0:	632e706d 			; <UNDEFINED> instruction: 0x632e706d
 ab4:	6c2f2e00 	stcvs	14, cr2, [pc], #-0	; abc <__code_start__-0x7544>
 ab8:	2f636269 	svccs	0x00636269
 abc:	63727473 	cmnvs	r2, #1929379840	; 0x73000000
 ac0:	632e7970 			; <UNDEFINED> instruction: 0x632e7970
 ac4:	7a697300 	bvc	1a5d6cc <__bss_end__+0x1a52db4>
 ac8:	00745f65 	rsbseq	r5, r4, r5, ror #30
 acc:	696c2f2e 	stmdbvs	ip!, {r1, r2, r3, r5, r8, r9, sl, fp, sp}^
 ad0:	732f6362 			; <UNDEFINED> instruction: 0x732f6362
 ad4:	636e7274 	cmnvs	lr, #116, 4	; 0x40000007
 ad8:	632e706d 			; <UNDEFINED> instruction: 0x632e706d
 adc:	732f2e00 			; <UNDEFINED> instruction: 0x732f2e00
 ae0:	66666174 			; <UNDEFINED> instruction: 0x66666174
 ae4:	6372732d 	cmnvs	r2, #-1275068416	; 0xb4000000
 ae8:	6665642f 	strbtvs	r6, [r5], -pc, lsr #8
 aec:	746c7561 	strbtvc	r7, [ip], #-1377	; 0xfffffa9f
 af0:	6265722d 	rsbvs	r7, r5, #-805306366	; 0xd0000002
 af4:	2d746f6f 	ldclcs	15, cr6, [r4, #-444]!	; 0xfffffe44
 af8:	6c6c6163 	stfvse	f6, [ip], #-396	; 0xfffffe74
 afc:	2e74756f 	cdpcs	5, 7, cr7, cr4, cr15, {3}
 b00:	70670063 	rsbvc	r0, r7, r3, rrx
 b04:	635f6f69 	cmpvs	pc, #420	; 0x1a4
 b08:	0030726c 	eorseq	r7, r0, ip, ror #4
 b0c:	6f697067 	svcvs	0x00697067
 b10:	7465735f 	strbtvc	r7, [r5], #-863	; 0xfffffca1
 b14:	70670030 	rsbvc	r0, r7, r0, lsr r0
 b18:	775f6f69 	ldrbvc	r6, [pc, -r9, ror #30]
 b1c:	65746972 	ldrbvs	r6, [r4, #-2418]!	; 0xfffff68e
 b20:	56454400 	strbpl	r4, [r5], -r0, lsl #8
 b24:	4c41565f 	mcrrmi	6, 5, r5, r1, cr15
 b28:	67003233 	smladxvs	r0, r3, r2, r3
 b2c:	5f6f6970 	svcpl	0x006f6970
 b30:	64616572 	strbtvs	r6, [r1], #-1394	; 0xfffffa8e
 b34:	69706700 	ldmdbvs	r0!, {r8, r9, sl, sp, lr}^
 b38:	65735f6f 	ldrbvs	r5, [r3, #-3951]!	; 0xfffff091
 b3c:	6e695f74 	mcrvs	15, 3, r5, cr9, cr4, {3}
 b40:	00747570 	rsbseq	r7, r4, r0, ror r5
 b44:	6f697067 	svcvs	0x00697067
 b48:	7465735f 	strbtvc	r7, [r5], #-863	; 0xfffffca1
 b4c:	66666f5f 	uqsaxvs	r6, r6, pc	; <UNPREDICTABLE>
 b50:	69706700 	ldmdbvs	r0!, {r8, r9, sl, sp, lr}^
 b54:	65735f6f 	ldrbvs	r5, [r3, #-3951]!	; 0xfffff091
 b58:	756f5f74 	strbvc	r5, [pc, #-3956]!	; fffffbec <__bss_end__+0xffff52d4>
 b5c:	74757074 	ldrbtvc	r7, [r5], #-116	; 0xffffff8c
 b60:	6e756600 	cdpvs	6, 7, cr6, cr5, cr0, {0}
 b64:	70670063 	rsbvc	r0, r7, r3, rrx
 b68:	665f6f69 	ldrbvs	r6, [pc], -r9, ror #30
 b6c:	5f636e75 	svcpl	0x00636e75
 b70:	70670074 	rsbvc	r0, r7, r4, ror r0
 b74:	6c5f6f69 	mrrcvs	15, 6, r6, pc, cr9	; <UNPREDICTABLE>
 b78:	00307665 	eorseq	r7, r0, r5, ror #12
 b7c:	6b6e6162 	blvs	1b9910c <__bss_end__+0x1b8e7f4>
 b80:	69706700 	ldmdbvs	r0!, {r8, r9, sl, sp, lr}^
 b84:	00632e6f 	rsbeq	r2, r3, pc, ror #28
 b88:	6f697067 	svcvs	0x00697067
 b8c:	7465735f 	strbtvc	r7, [r5], #-863	; 0xfffffca1
 b90:	006e6f5f 	rsbeq	r6, lr, pc, asr pc

Disassembly of section .debug_frame:

00000000 <.debug_frame>:
   0:	0000000c 	andeq	r0, r0, ip
   4:	ffffffff 			; <UNDEFINED> instruction: 0xffffffff
   8:	7c020001 	stcvc	0, cr0, [r2], {1}
   c:	000d0c0e 	andeq	r0, sp, lr, lsl #24
  10:	0000001c 	andeq	r0, r0, ip, lsl r0
  14:	00000000 	andeq	r0, r0, r0
  18:	000080d8 	ldrdeq	r8, [r0], -r8	; <UNPREDICTABLE>
  1c:	00000088 	andeq	r0, r0, r8, lsl #1
  20:	840c0e42 	strhi	r0, [ip], #-3650	; 0xfffff1be
  24:	8e028503 	cfsh32hi	mvfx8, mvfx2, #3
  28:	180e4201 	stmdane	lr, {r0, r9, lr}
  2c:	000c0e72 	andeq	r0, ip, r2, ror lr
  30:	0000000c 	andeq	r0, r0, ip
  34:	ffffffff 			; <UNDEFINED> instruction: 0xffffffff
  38:	7c020001 	stcvc	0, cr0, [r2], {1}
  3c:	000d0c0e 	andeq	r0, sp, lr, lsl #24
  40:	0000001c 	andeq	r0, r0, ip, lsl r0
  44:	00000030 	andeq	r0, r0, r0, lsr r0
  48:	00008160 	andeq	r8, r0, r0, ror #2
  4c:	000000f4 	strdeq	r0, [r0], -r4
  50:	8e040e42 	cdphi	14, 0, cr0, cr4, cr2, {2}
  54:	180e4201 	stmdane	lr, {r0, r9, lr}
  58:	040e0a5e 	streq	r0, [lr], #-2654	; 0xfffff5a2
  5c:	00000b42 	andeq	r0, r0, r2, asr #22
  60:	0000000c 	andeq	r0, r0, ip
  64:	ffffffff 			; <UNDEFINED> instruction: 0xffffffff
  68:	7c020001 	stcvc	0, cr0, [r2], {1}
  6c:	000d0c0e 	andeq	r0, sp, lr, lsl #24
  70:	0000000c 	andeq	r0, r0, ip
  74:	00000060 	andeq	r0, r0, r0, rrx
  78:	00008258 	andeq	r8, r0, r8, asr r2
  7c:	000000a8 	andeq	r0, r0, r8, lsr #1
  80:	0000000c 	andeq	r0, r0, ip
  84:	ffffffff 			; <UNDEFINED> instruction: 0xffffffff
  88:	7c020001 	stcvc	0, cr0, [r2], {1}
  8c:	000d0c0e 	andeq	r0, sp, lr, lsl #24
  90:	0000000c 	andeq	r0, r0, ip
  94:	00000080 	andeq	r0, r0, r0, lsl #1
  98:	00008300 	andeq	r8, r0, r0, lsl #6
  9c:	000000a8 	andeq	r0, r0, r8, lsr #1
  a0:	0000000c 	andeq	r0, r0, ip
  a4:	ffffffff 			; <UNDEFINED> instruction: 0xffffffff
  a8:	7c020001 	stcvc	0, cr0, [r2], {1}
  ac:	000d0c0e 	andeq	r0, sp, lr, lsl #24
  b0:	00000020 	andeq	r0, r0, r0, lsr #32
  b4:	000000a0 	andeq	r0, r0, r0, lsr #1
  b8:	000083a8 	andeq	r8, r0, r8, lsr #7
  bc:	00000438 	andeq	r0, r0, r8, lsr r4
  c0:	840c0e42 	strhi	r0, [ip], #-3650	; 0xfffff1be
  c4:	8e028503 	cfsh32hi	mvfx8, mvfx2, #3
  c8:	400e4201 	andmi	r4, lr, r1, lsl #4
  cc:	0c0e0a74 			; <UNDEFINED> instruction: 0x0c0e0a74
  d0:	00000b42 	andeq	r0, r0, r2, asr #22
  d4:	0000000c 	andeq	r0, r0, ip
  d8:	ffffffff 			; <UNDEFINED> instruction: 0xffffffff
  dc:	7c020001 	stcvc	0, cr0, [r2], {1}
  e0:	000d0c0e 	andeq	r0, sp, lr, lsl #24
  e4:	00000048 	andeq	r0, r0, r8, asr #32
  e8:	000000d4 	ldrdeq	r0, [r0], -r4
  ec:	000087e0 	andeq	r8, r0, r0, ror #15
  f0:	0000075c 	andeq	r0, r0, ip, asr r7
  f4:	84240e42 	strthi	r0, [r4], #-3650	; 0xfffff1be
  f8:	86088509 	strhi	r8, [r8], -r9, lsl #10
  fc:	88068707 	stmdahi	r6, {r0, r1, r2, r8, r9, sl, pc}
 100:	8a048905 	bhi	12251c <__bss_end__+0x117c04>
 104:	8e028b03 	vmlahi.f64	d8, d2, d3
 108:	340e4201 	strcc	r4, [lr], #-513	; 0xfffffdff
 10c:	050d5005 	streq	r5, [sp, #-5]
 110:	52050c51 	andpl	r0, r5, #20736	; 0x5100
 114:	0a53050b 	beq	14c1548 <__bss_end__+0x14b6c30>
 118:	04e80e42 	strbteq	r0, [r8], #3650	; 0xe42
 11c:	0a02e403 	beq	b9130 <__bss_end__+0xae818>
 120:	0642340e 	strbeq	r3, [r2], -lr, lsl #8
 124:	06530652 			; <UNDEFINED> instruction: 0x06530652
 128:	0e510650 	mrceq	6, 2, r0, cr1, cr0, {2}
 12c:	000b4224 	andeq	r4, fp, r4, lsr #4
 130:	0000000c 	andeq	r0, r0, ip
 134:	ffffffff 			; <UNDEFINED> instruction: 0xffffffff
 138:	7c020001 	stcvc	0, cr0, [r2], {1}
 13c:	000d0c0e 	andeq	r0, sp, lr, lsl #24
 140:	0000002c 	andeq	r0, r0, ip, lsr #32
 144:	00000130 	andeq	r0, r0, r0, lsr r1
 148:	00008f40 	andeq	r8, r0, r0, asr #30
 14c:	00000178 	andeq	r0, r0, r8, ror r1
 150:	8e040e42 	cdphi	14, 0, cr0, cr4, cr2, {2}
 154:	0c0e4201 	sfmeq	f4, 4, [lr], {1}
 158:	05035005 	streq	r5, [r3, #-5]
 15c:	0e420251 	mcreq	2, 2, r0, cr2, cr1, {2}
 160:	0a780218 	beq	1e009c8 <__bss_end__+0x1df60b0>
 164:	06420c0e 	strbeq	r0, [r2], -lr, lsl #24
 168:	0e510650 	mrceq	6, 2, r0, cr1, cr0, {2}
 16c:	000b4204 	andeq	r4, fp, r4, lsl #4
 170:	0000000c 	andeq	r0, r0, ip
 174:	ffffffff 			; <UNDEFINED> instruction: 0xffffffff
 178:	7c020001 	stcvc	0, cr0, [r2], {1}
 17c:	000d0c0e 	andeq	r0, sp, lr, lsl #24
 180:	00000020 	andeq	r0, r0, r0, lsr #32
 184:	00000170 	andeq	r0, r0, r0, ror r1
 188:	000090b8 	strheq	r9, [r0], -r8
 18c:	00000180 	andeq	r0, r0, r0, lsl #3
 190:	84080e42 	strhi	r0, [r8], #-3650	; 0xfffff1be
 194:	42018e02 	andmi	r8, r1, #2, 28
 198:	4202100e 	andmi	r1, r2, #14, 0
 19c:	42080e0a 	andmi	r0, r8, #160	; 0xa0
 1a0:	0000000b 	andeq	r0, r0, fp
 1a4:	0000000c 	andeq	r0, r0, ip
 1a8:	ffffffff 			; <UNDEFINED> instruction: 0xffffffff
 1ac:	7c020001 	stcvc	0, cr0, [r2], {1}
 1b0:	000d0c0e 	andeq	r0, sp, lr, lsl #24
 1b4:	00000014 	andeq	r0, r0, r4, lsl r0
 1b8:	000001a4 	andeq	r0, r0, r4, lsr #3
 1bc:	00009238 	andeq	r9, r0, r8, lsr r2
 1c0:	0000002c 	andeq	r0, r0, ip, lsr #32
 1c4:	52080e42 	andpl	r0, r8, #1056	; 0x420
 1c8:	0000000e 	andeq	r0, r0, lr
 1cc:	0000000c 	andeq	r0, r0, ip
 1d0:	ffffffff 			; <UNDEFINED> instruction: 0xffffffff
 1d4:	7c020001 	stcvc	0, cr0, [r2], {1}
 1d8:	000d0c0e 	andeq	r0, sp, lr, lsl #24
 1dc:	0000001c 	andeq	r0, r0, ip, lsl r0
 1e0:	000001cc 	andeq	r0, r0, ip, asr #3
 1e4:	00009268 	andeq	r9, r0, r8, ror #4
 1e8:	000000e4 	andeq	r0, r0, r4, ror #1
 1ec:	8e040e42 	cdphi	14, 0, cr0, cr4, cr2, {2}
 1f0:	180e4201 	stmdane	lr, {r0, r9, lr}
 1f4:	040e0a60 	streq	r0, [lr], #-2656	; 0xfffff5a0
 1f8:	00000b42 	andeq	r0, r0, r2, asr #22
 1fc:	0000000c 	andeq	r0, r0, ip
 200:	ffffffff 			; <UNDEFINED> instruction: 0xffffffff
 204:	7c020001 	stcvc	0, cr0, [r2], {1}
 208:	000d0c0e 	andeq	r0, sp, lr, lsl #24
 20c:	00000034 	andeq	r0, r0, r4, lsr r0
 210:	000001fc 	strdeq	r0, [r0], -ip
 214:	0000934c 	andeq	r9, r0, ip, asr #6
 218:	00000058 	andeq	r0, r0, r8, asr r0
 21c:	80100e42 	andshi	r0, r0, r2, asr #28
 220:	82038104 	andhi	r8, r3, #1
 224:	42018302 	andmi	r8, r1, #134217728	; 0x8000000
 228:	07841c0e 	streq	r1, [r4, lr, lsl #24]
 22c:	058e0685 	streq	r0, [lr, #1669]	; 0x685
 230:	5c280e42 	stcpl	14, cr0, [r8], #-264	; 0xfffffef8
 234:	ce421c0e 	cdpgt	12, 4, cr1, cr2, cr14, {0}
 238:	100ec4c5 	andne	ip, lr, r5, asr #9
 23c:	c1c2c342 	bicgt	ip, r2, r2, asr #6
 240:	00000ec0 	andeq	r0, r0, r0, asr #29
 244:	0000000c 	andeq	r0, r0, ip
 248:	ffffffff 			; <UNDEFINED> instruction: 0xffffffff
 24c:	7c020001 	stcvc	0, cr0, [r2], {1}
 250:	000d0c0e 	andeq	r0, sp, lr, lsl #24
 254:	00000014 	andeq	r0, r0, r4, lsl r0
 258:	00000244 	andeq	r0, r0, r4, asr #4
 25c:	000093a4 	andeq	r9, r0, r4, lsr #7
 260:	00000034 	andeq	r0, r0, r4, lsr r0
 264:	84080e42 	strhi	r0, [r8], #-3650	; 0xfffff1be
 268:	00018e02 	andeq	r8, r1, r2, lsl #28
 26c:	0000000c 	andeq	r0, r0, ip
 270:	ffffffff 			; <UNDEFINED> instruction: 0xffffffff
 274:	7c020001 	stcvc	0, cr0, [r2], {1}
 278:	000d0c0e 	andeq	r0, sp, lr, lsl #24
 27c:	0000000c 	andeq	r0, r0, ip
 280:	0000026c 	andeq	r0, r0, ip, ror #4
 284:	000093d8 	ldrdeq	r9, [r0], -r8
 288:	00000014 	andeq	r0, r0, r4, lsl r0
 28c:	0000000c 	andeq	r0, r0, ip
 290:	0000026c 	andeq	r0, r0, ip, ror #4
 294:	000093ec 	andeq	r9, r0, ip, ror #7
 298:	00000024 	andeq	r0, r0, r4, lsr #32
 29c:	0000000c 	andeq	r0, r0, ip
 2a0:	0000026c 	andeq	r0, r0, ip, ror #4
 2a4:	00009410 	andeq	r9, r0, r0, lsl r4
 2a8:	00000038 	andeq	r0, r0, r8, lsr r0
 2ac:	0000000c 	andeq	r0, r0, ip
 2b0:	0000026c 	andeq	r0, r0, ip, ror #4
 2b4:	00009448 	andeq	r9, r0, r8, asr #8
 2b8:	0000000c 	andeq	r0, r0, ip
 2bc:	00000014 	andeq	r0, r0, r4, lsl r0
 2c0:	0000026c 	andeq	r0, r0, ip, ror #4
 2c4:	00009454 	andeq	r9, r0, r4, asr r4
 2c8:	00000058 	andeq	r0, r0, r8, asr r0
 2cc:	84080e42 	strhi	r0, [r8], #-3650	; 0xfffff1be
 2d0:	00018e02 	andeq	r8, r1, r2, lsl #28
 2d4:	00000014 	andeq	r0, r0, r4, lsl r0
 2d8:	0000026c 	andeq	r0, r0, ip, ror #4
 2dc:	000094ac 	andeq	r9, r0, ip, lsr #9
 2e0:	0000000c 	andeq	r0, r0, ip
 2e4:	84080e42 	strhi	r0, [r8], #-3650	; 0xfffff1be
 2e8:	00018e02 	andeq	r8, r1, r2, lsl #28
 2ec:	00000024 	andeq	r0, r0, r4, lsr #32
 2f0:	0000026c 	andeq	r0, r0, ip, ror #4
 2f4:	000094b8 			; <UNDEFINED> instruction: 0x000094b8
 2f8:	000001b4 			; <UNDEFINED> instruction: 0x000001b4
 2fc:	84140e42 	ldrhi	r0, [r4], #-3650	; 0xfffff1be
 300:	86048505 	strhi	r8, [r4], -r5, lsl #10
 304:	8e028703 	cdphi	7, 0, cr8, cr2, cr3, {0}
 308:	600e4201 	andvs	r4, lr, r1, lsl #4
 30c:	0e0a9a02 	vmlaeq.f32	s18, s20, s4
 310:	000b4214 	andeq	r4, fp, r4, lsl r2
 314:	00000014 	andeq	r0, r0, r4, lsl r0
 318:	0000026c 	andeq	r0, r0, ip, ror #4
 31c:	0000966c 	andeq	r9, r0, ip, ror #12
 320:	00000064 	andeq	r0, r0, r4, rrx
 324:	8e040e54 	mcrhi	14, 0, r0, cr4, cr4, {2}
 328:	100e4201 	andne	r4, lr, r1, lsl #4
 32c:	00000034 	andeq	r0, r0, r4, lsr r0
 330:	0000026c 	andeq	r0, r0, ip, ror #4
 334:	000096d0 	ldrdeq	r9, [r0], -r0
 338:	00000108 	andeq	r0, r0, r8, lsl #2
 33c:	84180e42 	ldrhi	r0, [r8], #-3650	; 0xfffff1be
 340:	86058506 	strhi	r8, [r5], -r6, lsl #10
 344:	88038704 	stmdahi	r3, {r2, r8, r9, sl, pc}
 348:	42018e02 	andmi	r8, r1, #2, 28
 34c:	5005200e 	andpl	r2, r5, lr
 350:	07510508 	ldrbeq	r0, [r1, -r8, lsl #10]
 354:	01a80e42 			; <UNDEFINED> instruction: 0x01a80e42
 358:	200e7802 	andcs	r7, lr, r2, lsl #16
 35c:	06500642 	ldrbeq	r0, [r0], -r2, asr #12
 360:	00180e51 	andseq	r0, r8, r1, asr lr
 364:	0000002c 	andeq	r0, r0, ip, lsr #32
 368:	0000026c 	andeq	r0, r0, ip, ror #4
 36c:	000097d8 	ldrdeq	r9, [r0], -r8
 370:	000004c8 	andeq	r0, r0, r8, asr #9
 374:	84240e42 	strthi	r0, [r4], #-3650	; 0xfffff1be
 378:	86088509 	strhi	r8, [r8], -r9, lsl #10
 37c:	88068707 	stmdahi	r6, {r0, r1, r2, r8, r9, sl, pc}
 380:	8a048905 	bhi	12279c <__bss_end__+0x117e84>
 384:	8e028b03 	vmlahi.f64	d8, d2, d3
 388:	b80e4201 	stmdalt	lr, {r0, r9, lr}
 38c:	02420302 	subeq	r0, r2, #134217728	; 0x8000000
 390:	0000240e 	andeq	r2, r0, lr, lsl #8
 394:	0000000c 	andeq	r0, r0, ip
 398:	ffffffff 			; <UNDEFINED> instruction: 0xffffffff
 39c:	7c020001 	stcvc	0, cr0, [r2], {1}
 3a0:	000d0c0e 	andeq	r0, sp, lr, lsl #24
 3a4:	00000014 	andeq	r0, r0, r4, lsl r0
 3a8:	00000394 	muleq	r0, r4, r3
 3ac:	00009ca0 	andeq	r9, r0, r0, lsr #25
 3b0:	0000002c 	andeq	r0, r0, ip, lsr #32
 3b4:	84080e42 	strhi	r0, [r8], #-3650	; 0xfffff1be
 3b8:	00018e02 	andeq	r8, r1, r2, lsl #28
 3bc:	0000000c 	andeq	r0, r0, ip
 3c0:	ffffffff 			; <UNDEFINED> instruction: 0xffffffff
 3c4:	7c020001 	stcvc	0, cr0, [r2], {1}
 3c8:	000d0c0e 	andeq	r0, sp, lr, lsl #24
 3cc:	00000014 	andeq	r0, r0, r4, lsl r0
 3d0:	000003bc 			; <UNDEFINED> instruction: 0x000003bc
 3d4:	00009ccc 	andeq	r9, r0, ip, asr #25
 3d8:	0000003c 	andeq	r0, r0, ip, lsr r0
 3dc:	84080e42 	strhi	r0, [r8], #-3650	; 0xfffff1be
 3e0:	00018e02 	andeq	r8, r1, r2, lsl #28
 3e4:	0000000c 	andeq	r0, r0, ip
 3e8:	ffffffff 			; <UNDEFINED> instruction: 0xffffffff
 3ec:	7c020001 	stcvc	0, cr0, [r2], {1}
 3f0:	000d0c0e 	andeq	r0, sp, lr, lsl #24
 3f4:	0000000c 	andeq	r0, r0, ip
 3f8:	000003e4 	andeq	r0, r0, r4, ror #7
 3fc:	00009d08 	andeq	r9, r0, r8, lsl #26
 400:	00000004 	andeq	r0, r0, r4
 404:	0000000c 	andeq	r0, r0, ip
 408:	ffffffff 			; <UNDEFINED> instruction: 0xffffffff
 40c:	7c020001 	stcvc	0, cr0, [r2], {1}
 410:	000d0c0e 	andeq	r0, sp, lr, lsl #24
 414:	0000000c 	andeq	r0, r0, ip
 418:	00000404 	andeq	r0, r0, r4, lsl #8
 41c:	00009d0c 	andeq	r9, r0, ip, lsl #26
 420:	00000018 	andeq	r0, r0, r8, lsl r0
 424:	0000000c 	andeq	r0, r0, ip
 428:	00000404 	andeq	r0, r0, r4, lsl #8
 42c:	00009d24 	andeq	r9, r0, r4, lsr #26
 430:	00000014 	andeq	r0, r0, r4, lsl r0
 434:	00000014 	andeq	r0, r0, r4, lsl r0
 438:	00000404 	andeq	r0, r0, r4, lsl #8
 43c:	00009d38 	andeq	r9, r0, r8, lsr sp
 440:	00000054 	andeq	r0, r0, r4, asr r0
 444:	84080e42 	strhi	r0, [r8], #-3650	; 0xfffff1be
 448:	00018e02 	andeq	r8, r1, r2, lsl #28
 44c:	0000000c 	andeq	r0, r0, ip
 450:	ffffffff 			; <UNDEFINED> instruction: 0xffffffff
 454:	7c020001 	stcvc	0, cr0, [r2], {1}
 458:	000d0c0e 	andeq	r0, sp, lr, lsl #24
 45c:	00000014 	andeq	r0, r0, r4, lsl r0
 460:	0000044c 	andeq	r0, r0, ip, asr #8
 464:	00009d8c 	andeq	r9, r0, ip, lsl #27
 468:	00000014 	andeq	r0, r0, r4, lsl r0
 46c:	84080e42 	strhi	r0, [r8], #-3650	; 0xfffff1be
 470:	00018e02 	andeq	r8, r1, r2, lsl #28
 474:	00000014 	andeq	r0, r0, r4, lsl r0
 478:	0000044c 	andeq	r0, r0, ip, asr #8
 47c:	00009da0 	andeq	r9, r0, r0, lsr #27
 480:	0000001c 	andeq	r0, r0, ip, lsl r0
 484:	84080e42 	strhi	r0, [r8], #-3650	; 0xfffff1be
 488:	00018e02 	andeq	r8, r1, r2, lsl #28
 48c:	00000018 	andeq	r0, r0, r8, lsl r0
 490:	0000044c 	andeq	r0, r0, ip, asr #8
 494:	00009dbc 			; <UNDEFINED> instruction: 0x00009dbc
 498:	00000024 	andeq	r0, r0, r4, lsr #32
 49c:	84100e42 	ldrhi	r0, [r0], #-3650	; 0xfffff1be
 4a0:	86038504 	strhi	r8, [r3], -r4, lsl #10
 4a4:	00018e02 	andeq	r8, r1, r2, lsl #28
 4a8:	00000014 	andeq	r0, r0, r4, lsl r0
 4ac:	0000044c 	andeq	r0, r0, ip, asr #8
 4b0:	00009de0 	andeq	r9, r0, r0, ror #27
 4b4:	00000018 	andeq	r0, r0, r8, lsl r0
 4b8:	84080e42 	strhi	r0, [r8], #-3650	; 0xfffff1be
 4bc:	00018e02 	andeq	r8, r1, r2, lsl #28
 4c0:	00000014 	andeq	r0, r0, r4, lsl r0
 4c4:	0000044c 	andeq	r0, r0, ip, asr #8
 4c8:	00009df8 	strdeq	r9, [r0], -r8
 4cc:	00000018 	andeq	r0, r0, r8, lsl r0
 4d0:	84080e42 	strhi	r0, [r8], #-3650	; 0xfffff1be
 4d4:	00018e02 	andeq	r8, r1, r2, lsl #28
 4d8:	0000000c 	andeq	r0, r0, ip
 4dc:	ffffffff 			; <UNDEFINED> instruction: 0xffffffff
 4e0:	7c020001 	stcvc	0, cr0, [r2], {1}
 4e4:	000d0c0e 	andeq	r0, sp, lr, lsl #24
 4e8:	00000018 	andeq	r0, r0, r8, lsl r0
 4ec:	000004d8 	ldrdeq	r0, [r0], -r8
 4f0:	00009e10 	andeq	r9, r0, r0, lsl lr
 4f4:	00000020 	andeq	r0, r0, r0, lsr #32
 4f8:	84100e42 	ldrhi	r0, [r0], #-3650	; 0xfffff1be
 4fc:	86038504 	strhi	r8, [r3], -r4, lsl #10
 500:	00018e02 	andeq	r8, r1, r2, lsl #28
 504:	00000018 	andeq	r0, r0, r8, lsl r0
 508:	000004d8 	ldrdeq	r0, [r0], -r8
 50c:	00009e30 	andeq	r9, r0, r0, lsr lr
 510:	00000020 	andeq	r0, r0, r0, lsr #32
 514:	84100e42 	ldrhi	r0, [r0], #-3650	; 0xfffff1be
 518:	86038504 	strhi	r8, [r3], -r4, lsl #10
 51c:	00018e02 	andeq	r8, r1, r2, lsl #28
 520:	00000014 	andeq	r0, r0, r4, lsl r0
 524:	000004d8 	ldrdeq	r0, [r0], -r8
 528:	00009e50 	andeq	r9, r0, r0, asr lr
 52c:	000000b0 	strheq	r0, [r0], -r0	; <UNPREDICTABLE>
 530:	84080e42 	strhi	r0, [r8], #-3650	; 0xfffff1be
 534:	00018e02 	andeq	r8, r1, r2, lsl #28
 538:	00000014 	andeq	r0, r0, r4, lsl r0
 53c:	000004d8 	ldrdeq	r0, [r0], -r8
 540:	00009f00 	andeq	r9, r0, r0, lsl #30
 544:	00000018 	andeq	r0, r0, r8, lsl r0
 548:	84080e42 	strhi	r0, [r8], #-3650	; 0xfffff1be
 54c:	00018e02 	andeq	r8, r1, r2, lsl #28
 550:	00000014 	andeq	r0, r0, r4, lsl r0
 554:	000004d8 	ldrdeq	r0, [r0], -r8
 558:	00009f18 	andeq	r9, r0, r8, lsl pc
 55c:	00000020 	andeq	r0, r0, r0, lsr #32
 560:	84080e42 	strhi	r0, [r8], #-3650	; 0xfffff1be
 564:	00018e02 	andeq	r8, r1, r2, lsl #28
 568:	00000014 	andeq	r0, r0, r4, lsl r0
 56c:	000004d8 	ldrdeq	r0, [r0], -r8
 570:	00009f38 	andeq	r9, r0, r8, lsr pc
 574:	00000030 	andeq	r0, r0, r0, lsr r0
 578:	84080e42 	strhi	r0, [r8], #-3650	; 0xfffff1be
 57c:	00018e02 	andeq	r8, r1, r2, lsl #28
 580:	00000014 	andeq	r0, r0, r4, lsl r0
 584:	000004d8 	ldrdeq	r0, [r0], -r8
 588:	00009f68 	andeq	r9, r0, r8, ror #30
 58c:	00000030 	andeq	r0, r0, r0, lsr r0
 590:	84080e42 	strhi	r0, [r8], #-3650	; 0xfffff1be
 594:	00018e02 	andeq	r8, r1, r2, lsl #28
 598:	00000014 	andeq	r0, r0, r4, lsl r0
 59c:	000004d8 	ldrdeq	r0, [r0], -r8
 5a0:	00009f98 	muleq	r0, r8, pc	; <UNPREDICTABLE>
 5a4:	00000010 	andeq	r0, r0, r0, lsl r0
 5a8:	84080e42 	strhi	r0, [r8], #-3650	; 0xfffff1be
 5ac:	00018e02 	andeq	r8, r1, r2, lsl #28
 5b0:	00000014 	andeq	r0, r0, r4, lsl r0
 5b4:	000004d8 	ldrdeq	r0, [r0], -r8
 5b8:	00009fa8 	andeq	r9, r0, r8, lsr #31
 5bc:	00000020 	andeq	r0, r0, r0, lsr #32
 5c0:	84080e42 	strhi	r0, [r8], #-3650	; 0xfffff1be
 5c4:	00018e02 	andeq	r8, r1, r2, lsl #28
 5c8:	00000014 	andeq	r0, r0, r4, lsl r0
 5cc:	000004d8 	ldrdeq	r0, [r0], -r8
 5d0:	00009fc8 	andeq	r9, r0, r8, asr #31
 5d4:	00000014 	andeq	r0, r0, r4, lsl r0
 5d8:	84080e42 	strhi	r0, [r8], #-3650	; 0xfffff1be
 5dc:	00018e02 	andeq	r8, r1, r2, lsl #28
 5e0:	00000014 	andeq	r0, r0, r4, lsl r0
 5e4:	000004d8 	ldrdeq	r0, [r0], -r8
 5e8:	00009fdc 	ldrdeq	r9, [r0], -ip
 5ec:	00000024 	andeq	r0, r0, r4, lsr #32
 5f0:	84080e42 	strhi	r0, [r8], #-3650	; 0xfffff1be
 5f4:	00018e02 	andeq	r8, r1, r2, lsl #28
 5f8:	0000000c 	andeq	r0, r0, ip
 5fc:	ffffffff 			; <UNDEFINED> instruction: 0xffffffff
 600:	7c020001 	stcvc	0, cr0, [r2], {1}
 604:	000d0c0e 	andeq	r0, sp, lr, lsl #24
 608:	00000014 	andeq	r0, r0, r4, lsl r0
 60c:	000005f8 	strdeq	r0, [r0], -r8
 610:	0000a000 	andeq	sl, r0, r0
 614:	00000014 	andeq	r0, r0, r4, lsl r0
 618:	84080e42 	strhi	r0, [r8], #-3650	; 0xfffff1be
 61c:	00018e02 	andeq	r8, r1, r2, lsl #28
 620:	0000000c 	andeq	r0, r0, ip
 624:	000005f8 	strdeq	r0, [r0], -r8
 628:	0000a014 	andeq	sl, r0, r4, lsl r0
 62c:	00000018 	andeq	r0, r0, r8, lsl r0
 630:	0000000c 	andeq	r0, r0, ip
 634:	000005f8 	strdeq	r0, [r0], -r8
 638:	0000a02c 	andeq	sl, r0, ip, lsr #32
 63c:	00000010 	andeq	r0, r0, r0, lsl r0
 640:	0000000c 	andeq	r0, r0, ip
 644:	ffffffff 			; <UNDEFINED> instruction: 0xffffffff
 648:	7c020001 	stcvc	0, cr0, [r2], {1}
 64c:	000d0c0e 	andeq	r0, sp, lr, lsl #24
 650:	0000000c 	andeq	r0, r0, ip
 654:	00000640 	andeq	r0, r0, r0, asr #12
 658:	0000a03c 	andeq	sl, r0, ip, lsr r0
 65c:	00000034 	andeq	r0, r0, r4, lsr r0
 660:	0000000c 	andeq	r0, r0, ip
 664:	ffffffff 			; <UNDEFINED> instruction: 0xffffffff
 668:	7c020001 	stcvc	0, cr0, [r2], {1}
 66c:	000d0c0e 	andeq	r0, sp, lr, lsl #24
 670:	0000000c 	andeq	r0, r0, ip
 674:	00000660 	andeq	r0, r0, r0, ror #12
 678:	0000a070 	andeq	sl, r0, r0, ror r0
 67c:	0000002c 	andeq	r0, r0, ip, lsr #32
 680:	0000000c 	andeq	r0, r0, ip
 684:	ffffffff 			; <UNDEFINED> instruction: 0xffffffff
 688:	7c020001 	stcvc	0, cr0, [r2], {1}
 68c:	000d0c0e 	andeq	r0, sp, lr, lsl #24
 690:	0000000c 	andeq	r0, r0, ip
 694:	00000680 	andeq	r0, r0, r0, lsl #13
 698:	0000a09c 	muleq	r0, ip, r0
 69c:	00000020 	andeq	r0, r0, r0, lsr #32
 6a0:	0000000c 	andeq	r0, r0, ip
 6a4:	ffffffff 			; <UNDEFINED> instruction: 0xffffffff
 6a8:	7c020001 	stcvc	0, cr0, [r2], {1}
 6ac:	000d0c0e 	andeq	r0, sp, lr, lsl #24
 6b0:	0000000c 	andeq	r0, r0, ip
 6b4:	000006a0 	andeq	r0, r0, r0, lsr #13
 6b8:	0000a0bc 	strheq	sl, [r0], -ip
 6bc:	0000002c 	andeq	r0, r0, ip, lsr #32
 6c0:	0000000c 	andeq	r0, r0, ip
 6c4:	ffffffff 			; <UNDEFINED> instruction: 0xffffffff
 6c8:	7c020001 	stcvc	0, cr0, [r2], {1}
 6cc:	000d0c0e 	andeq	r0, sp, lr, lsl #24
 6d0:	0000000c 	andeq	r0, r0, ip
 6d4:	000006c0 	andeq	r0, r0, r0, asr #13
 6d8:	0000a0e8 	andeq	sl, r0, r8, ror #1
 6dc:	00000004 	andeq	r0, r0, r4
 6e0:	0000000c 	andeq	r0, r0, ip
 6e4:	ffffffff 			; <UNDEFINED> instruction: 0xffffffff
 6e8:	7c020001 	stcvc	0, cr0, [r2], {1}
 6ec:	000d0c0e 	andeq	r0, sp, lr, lsl #24
 6f0:	00000018 	andeq	r0, r0, r8, lsl r0
 6f4:	000006e0 	andeq	r0, r0, r0, ror #13
 6f8:	0000a104 	andeq	sl, r0, r4, lsl #2
 6fc:	00000064 	andeq	r0, r0, r4, rrx
 700:	84100e46 	ldrhi	r0, [r0], #-3654	; 0xfffff1ba
 704:	86038504 	strhi	r8, [r3], -r4, lsl #10
 708:	00018e02 	andeq	r8, r1, r2, lsl #28
 70c:	00000014 	andeq	r0, r0, r4, lsl r0
 710:	000006e0 	andeq	r0, r0, r0, ror #13
 714:	0000a168 	andeq	sl, r0, r8, ror #2
 718:	00000010 	andeq	r0, r0, r0, lsl r0
 71c:	84080e42 	strhi	r0, [r8], #-3650	; 0xfffff1be
 720:	00018e02 	andeq	r8, r1, r2, lsl #28
 724:	00000014 	andeq	r0, r0, r4, lsl r0
 728:	000006e0 	andeq	r0, r0, r0, ror #13
 72c:	0000a178 	andeq	sl, r0, r8, ror r1
 730:	00000024 	andeq	r0, r0, r4, lsr #32
 734:	84080e46 	strhi	r0, [r8], #-3654	; 0xfffff1ba
 738:	00018e02 	andeq	r8, r1, r2, lsl #28
 73c:	00000014 	andeq	r0, r0, r4, lsl r0
 740:	000006e0 	andeq	r0, r0, r0, ror #13
 744:	0000a19c 	muleq	r0, ip, r1
 748:	00000024 	andeq	r0, r0, r4, lsr #32
 74c:	84080e46 	strhi	r0, [r8], #-3654	; 0xfffff1ba
 750:	00018e02 	andeq	r8, r1, r2, lsl #28
 754:	00000014 	andeq	r0, r0, r4, lsl r0
 758:	000006e0 	andeq	r0, r0, r0, ror #13
 75c:	0000a1c0 	andeq	sl, r0, r0, asr #3
 760:	00000010 	andeq	r0, r0, r0, lsl r0
 764:	84080e42 	strhi	r0, [r8], #-3650	; 0xfffff1be
 768:	00018e02 	andeq	r8, r1, r2, lsl #28
 76c:	00000014 	andeq	r0, r0, r4, lsl r0
 770:	000006e0 	andeq	r0, r0, r0, ror #13
 774:	0000a1d0 	ldrdeq	sl, [r0], -r0
 778:	0000001c 	andeq	r0, r0, ip, lsl r0
 77c:	84080e42 	strhi	r0, [r8], #-3650	; 0xfffff1be
 780:	00018e02 	andeq	r8, r1, r2, lsl #28
 784:	00000018 	andeq	r0, r0, r8, lsl r0
 788:	000006e0 	andeq	r0, r0, r0, ror #13
 78c:	0000a1ec 	andeq	sl, r0, ip, ror #3
 790:	00000034 	andeq	r0, r0, r4, lsr r0
 794:	84080e46 	strhi	r0, [r8], #-3654	; 0xfffff1ba
 798:	4e018e02 	cdpmi	14, 0, cr8, cr1, cr2, {0}
 79c:	cec4000e 	cdpgt	0, 12, cr0, cr4, cr14, {0}

Disassembly of section .debug_loc:

00000000 <.debug_loc>:
	...
      14:	0000003f 	andeq	r0, r0, pc, lsr r0
      18:	40900008 	addsmi	r0, r0, r8
      1c:	41900493 			; <UNDEFINED> instruction: 0x41900493
      20:	003f0493 	mlaseq	pc, r3, r4, r0	; <UNPREDICTABLE>
      24:	00480000 	subeq	r0, r8, r0
      28:	00060000 	andeq	r0, r6, r0
      2c:	40f503f3 	ldrshtmi	r0, [r5], #51	; 0x33
      30:	00489f25 	subeq	r9, r8, r5, lsr #30
      34:	00540000 	subseq	r0, r4, r0
      38:	00080000 	andeq	r0, r8, r0
      3c:	04934090 	ldreq	r4, [r3], #144	; 0x90
      40:	04934190 	ldreq	r4, [r3], #400	; 0x190
      44:	00000054 	andeq	r0, r0, r4, asr r0
      48:	00000058 	andeq	r0, r0, r8, asr r0
      4c:	03f30006 	mvnseq	r0, #6, 0
      50:	9f2540f5 	svcls	0x002540f5
      54:	00000058 	andeq	r0, r0, r8, asr r0
      58:	0000005f 	andeq	r0, r0, pc, asr r0
      5c:	40900008 	addsmi	r0, r0, r8
      60:	41900493 			; <UNDEFINED> instruction: 0x41900493
      64:	005f0493 			; <UNDEFINED> instruction: 0x005f0493
      68:	00cc0000 	sbceq	r0, ip, r0
      6c:	00060000 	andeq	r0, r6, r0
      70:	40f503f3 	ldrshtmi	r0, [r5], #51	; 0x33
      74:	00cc9f25 	sbceq	r9, ip, r5, lsr #30
      78:	00d00000 	sbcseq	r0, r0, r0
      7c:	00080000 	andeq	r0, r8, r0
      80:	04934090 	ldreq	r4, [r3], #144	; 0x90
      84:	04934190 	ldreq	r4, [r3], #400	; 0x190
      88:	000000d0 	ldrdeq	r0, [r0], -r0	; <UNPREDICTABLE>
      8c:	000000f4 	strdeq	r0, [r0], -r4
      90:	03f30006 	mvnseq	r0, #6, 0
      94:	9f2540f5 	svcls	0x002540f5
	...
      a0:	00600000 	rsbeq	r0, r0, r0
      a4:	00640000 	rsbeq	r0, r4, r0
      a8:	00010000 	andeq	r0, r1, r0
      ac:	00000050 	andeq	r0, r0, r0, asr r0
	...
      bc:	00000c00 	andeq	r0, r0, r0, lsl #24
      c0:	00003000 	andeq	r3, r0, r0
      c4:	53000100 	movwpl	r0, #256	; 0x100
      c8:	00000030 	andeq	r0, r0, r0, lsr r0
      cc:	0000003f 	andeq	r0, r0, pc, lsr r0
      d0:	4192000a 	orrsmi	r0, r2, sl
      d4:	ffff0c00 			; <UNDEFINED> instruction: 0xffff0c00
      d8:	9f1a7fff 	svcls	0x001a7fff
      dc:	00000048 	andeq	r0, r0, r8, asr #32
      e0:	0000005f 	andeq	r0, r0, pc, asr r0
      e4:	cc530001 	mrrcgt	0, 0, r0, r3, cr1
      e8:	f4000000 	vst4.8	{d0-d3}, [r0], r0
      ec:	0a000000 	beq	f4 <__code_start__-0x7f0c>
      f0:	00419200 	subeq	r9, r1, r0, lsl #4
      f4:	ffffff0c 			; <UNDEFINED> instruction: 0xffffff0c
      f8:	009f1a7f 	addseq	r1, pc, pc, ror sl	; <UNPREDICTABLE>
	...
     108:	58000000 	stmdapl	r0, {}	; <UNPREDICTABLE>
     10c:	08000000 	stmdaeq	r0, {}	; <UNPREDICTABLE>
     110:	93409000 	movtls	r9, #0
     114:	93419004 	movtls	r9, #4100	; 0x1004
     118:	00005804 	andeq	r5, r0, r4, lsl #16
     11c:	0000a800 	andeq	sl, r0, r0, lsl #16
     120:	f3000600 	vmax.u8	d0, d0, d0
     124:	2540f503 	strbcs	pc, [r0, #-1283]	; 0xfffffafd	; <UNPREDICTABLE>
     128:	0000009f 	muleq	r0, pc, r0	; <UNPREDICTABLE>
     12c:	00000000 	andeq	r0, r0, r0
     130:	44000000 	strmi	r0, [r0], #-0
     134:	a8000000 	stmdage	r0, {}	; <UNPREDICTABLE>
     138:	08000000 	stmdaeq	r0, {}	; <UNPREDICTABLE>
     13c:	93469000 	movtls	r9, #24576	; 0x6000
     140:	93479004 	movtls	r9, #28676	; 0x7004
     144:	00000004 	andeq	r0, r0, r4
     148:	00000000 	andeq	r0, r0, r0
     14c:	04000000 	streq	r0, [r0], #-0
     150:	a8000000 	stmdage	r0, {}	; <UNPREDICTABLE>
     154:	08000000 	stmdaeq	r0, {}	; <UNPREDICTABLE>
     158:	93489000 	movtls	r9, #32768	; 0x8000
     15c:	93499004 	movtls	r9, #36868	; 0x9004
     160:	00000004 	andeq	r0, r0, r4
     164:	00000000 	andeq	r0, r0, r0
     168:	3c000000 	stccc	0, cr0, [r0], {-0}
     16c:	a8000000 	stmdage	r0, {}	; <UNPREDICTABLE>
     170:	08000000 	stmdaeq	r0, {}	; <UNPREDICTABLE>
     174:	934c9000 	movtls	r9, #49152	; 0xc000
     178:	934d9004 	movtls	r9, #53252	; 0xd004
     17c:	00000004 	andeq	r0, r0, r4
	...
     188:	08000000 	stmdaeq	r0, {}	; <UNPREDICTABLE>
     18c:	24000000 	strcs	r0, [r0], #-0
     190:	08000000 	stmdaeq	r0, {}	; <UNPREDICTABLE>
     194:	934c9000 	movtls	r9, #49152	; 0xc000
     198:	934d9004 	movtls	r9, #53252	; 0xd004
     19c:	00002404 	andeq	r2, r0, r4, lsl #8
     1a0:	00004c00 	andeq	r4, r0, r0, lsl #24
     1a4:	f5000800 			; <UNDEFINED> instruction: 0xf5000800
     1a8:	48f52548 	ldmmi	r5!, {r3, r6, r8, sl, sp}^
     1ac:	4c9f1e25 	ldcmi	14, cr1, [pc], {37}	; 0x25
     1b0:	a8000000 	stmdage	r0, {}	; <UNPREDICTABLE>
     1b4:	08000000 	stmdaeq	r0, {}	; <UNPREDICTABLE>
     1b8:	934a9000 	movtls	r9, #40960	; 0xa000
     1bc:	934b9004 	movtls	r9, #45060	; 0xb004
     1c0:	00000004 	andeq	r0, r0, r4
	...
     1d4:	00004800 	andeq	r4, r0, r0, lsl #16
     1d8:	90000800 	andls	r0, r0, r0, lsl #16
     1dc:	90049340 	andls	r9, r4, r0, asr #6
     1e0:	48049341 	stmdami	r4, {r0, r6, r8, r9, ip, pc}
     1e4:	4c000000 	stcmi	0, cr0, [r0], {-0}
     1e8:	06000000 	streq	r0, [r0], -r0
     1ec:	f503f300 			; <UNDEFINED> instruction: 0xf503f300
     1f0:	4c9f2540 	cfldr32mi	mvfx2, [pc], {64}	; 0x40
     1f4:	68000000 	stmdavs	r0, {}	; <UNPREDICTABLE>
     1f8:	08000000 	stmdaeq	r0, {}	; <UNPREDICTABLE>
     1fc:	93409000 	movtls	r9, #0
     200:	93419004 	movtls	r9, #4100	; 0x1004
     204:	00006804 	andeq	r6, r0, r4, lsl #16
     208:	0000a800 	andeq	sl, r0, r0, lsl #16
     20c:	f3000600 	vmax.u8	d0, d0, d0
     210:	2540f503 	strbcs	pc, [r0, #-1283]	; 0xfffffafd	; <UNPREDICTABLE>
     214:	0000009f 	muleq	r0, pc, r0	; <UNPREDICTABLE>
	...
     224:	00005c00 	andeq	r5, r0, r0, lsl #24
     228:	90000800 	andls	r0, r0, r0, lsl #16
     22c:	90049342 	andls	r9, r4, r2, asr #6
     230:	5c049343 	stcpl	3, cr9, [r4], {67}	; 0x43
     234:	a8000000 	stmdage	r0, {}	; <UNPREDICTABLE>
     238:	06000000 	streq	r0, [r0], -r0
     23c:	f503f300 			; <UNDEFINED> instruction: 0xf503f300
     240:	009f2542 	addseq	r2, pc, r2, asr #10
	...
     250:	00000400 	andeq	r0, r0, r0, lsl #8
     254:	00006000 	andeq	r6, r0, r0
     258:	90000800 	andls	r0, r0, r0, lsl #16
     25c:	9004934e 	andls	r9, r4, lr, asr #6
     260:	6004934f 	andvs	r9, r4, pc, asr #6
     264:	68000000 	stmdavs	r0, {}	; <UNPREDICTABLE>
     268:	08000000 	stmdaeq	r0, {}	; <UNPREDICTABLE>
     26c:	2540f500 	strbcs	pc, [r0, #-1280]	; 0xfffffb00	; <UNPREDICTABLE>
     270:	1e2540f5 	mcrne	0, 1, r4, cr5, cr5, {7}
     274:	0000689f 	muleq	r0, pc, r8	; <UNPREDICTABLE>
     278:	0000a800 	andeq	sl, r0, r0, lsl #16
     27c:	f3000c00 			; <UNDEFINED> instruction: 0xf3000c00
     280:	2540f503 	strbcs	pc, [r0, #-1283]	; 0xfffffafd	; <UNPREDICTABLE>
     284:	40f503f3 	ldrshtmi	r0, [r5], #51	; 0x33
     288:	009f1e25 	addseq	r1, pc, r5, lsr #28
	...
     29c:	00003000 	andeq	r3, r0, r0
     2a0:	00005000 	andeq	r5, r0, r0
     2a4:	90000800 	andls	r0, r0, r0, lsl #16
     2a8:	9004934c 	andls	r9, r4, ip, asr #6
     2ac:	5004934d 	andpl	r9, r4, sp, asr #6
     2b0:	54000000 	strpl	r0, [r0], #-0
     2b4:	44000000 	strmi	r0, [r0], #-0
     2b8:	254ef500 	strbcs	pc, [lr, #-1280]	; 0xfffffb00	; <UNPREDICTABLE>
     2bc:	1e2546f5 	mcrne	6, 1, r4, cr5, cr5, {7}
     2c0:	eb0825f4 	bl	209a98 <__bss_end__+0x1ff180>
     2c4:	e68a2b9c 	pkhbt	r2, sl, ip, lsl #23
     2c8:	1c3e5ae5 			; <UNDEFINED> instruction: 0x1c3e5ae5
     2cc:	1e2548f5 	mcrne	8, 1, r4, cr5, cr5, {7}
     2d0:	f4254ef5 			; <UNDEFINED> instruction: 0xf4254ef5
     2d4:	fe7d0825 	vcmla.f16	d16, d13, d5[1], #270
     2d8:	1de357b1 	stclne	7, cr5, [r3, #708]!	; 0x2c4
     2dc:	f41e3ec7 			; <UNDEFINED> instruction: 0xf41e3ec7
     2e0:	61d50825 	bicsvs	r0, r5, r5, lsr #16
     2e4:	01a019c1 	asreq	r1, r1, #19
     2e8:	f51c3f2a 			; <UNDEFINED> instruction: 0xf51c3f2a
     2ec:	f41e254e 			; <UNDEFINED> instruction: 0xf41e254e
     2f0:	f8a60825 			; <UNDEFINED> instruction: 0xf8a60825
     2f4:	11111110 	tstne	r1, r0, lsl r1
     2f8:	22223f81 	eorcs	r3, r2, #516	; 0x204
     2fc:	0000549f 	muleq	r0, pc, r4	; <UNPREDICTABLE>
     300:	00006000 	andeq	r6, r0, r0
     304:	f5004c00 			; <UNDEFINED> instruction: 0xf5004c00
     308:	4ef5254e 	cdpmi	5, 15, cr2, cr5, cr14, {2}
     30c:	4ef51e25 	cdpmi	14, 15, cr1, cr5, cr5, {1}
     310:	4ef51e25 	cdpmi	14, 15, cr1, cr5, cr5, {1}
     314:	2546f525 	strbcs	pc, [r6, #-1317]	; 0xfffffadb	; <UNPREDICTABLE>
     318:	0825f41e 	stmdaeq	r5!, {r1, r2, r3, r4, sl, ip, sp, lr, pc}
     31c:	8a2b9ceb 	bhi	ae76d0 <__bss_end__+0xadcdb8>
     320:	3e5ae5e6 	cdpcc	5, 5, cr14, cr10, cr6, {7}
     324:	4ef51e1c 	mrcmi	14, 7, r1, cr5, cr12, {0}
     328:	0825f425 	stmdaeq	r5!, {r0, r2, r5, sl, ip, sp, lr, pc}
     32c:	57b1fe7d 			; <UNDEFINED> instruction: 0x57b1fe7d
     330:	3ec71de3 	cdpcc	13, 12, cr1, cr7, cr3, {7}
     334:	0825f41e 	stmdaeq	r5!, {r1, r2, r3, r4, sl, ip, sp, lr, pc}
     338:	19c161d5 	stmibne	r1, {r0, r2, r4, r6, r7, r8, sp, lr}^
     33c:	3f2a01a0 	svccc	0x002a01a0
     340:	254ef51c 	strbcs	pc, [lr, #-1308]	; 0xfffffae4	; <UNPREDICTABLE>
     344:	0825f41e 	stmdaeq	r5!, {r1, r2, r3, r4, sl, ip, sp, lr, pc}
     348:	1110f8a6 	tstne	r0, r6, lsr #17	; <UNPREDICTABLE>
     34c:	3f811111 	svccc	0x00811111
     350:	609f2222 	addsvs	r2, pc, r2, lsr #4
     354:	68000000 	stmdavs	r0, {}	; <UNPREDICTABLE>
     358:	64000000 	strvs	r0, [r0], #-0
     35c:	2540f500 	strbcs	pc, [r0, #-1280]	; 0xfffffb00	; <UNPREDICTABLE>
     360:	1e2540f5 	mcrne	0, 1, r4, cr5, cr5, {7}
     364:	f52540f5 			; <UNDEFINED> instruction: 0xf52540f5
     368:	f51e2540 			; <UNDEFINED> instruction: 0xf51e2540
     36c:	40f52540 	rscsmi	r2, r5, r0, asr #10
     370:	1e1e1e25 	cdpne	14, 1, cr1, cr14, cr5, {1}
     374:	f52540f5 			; <UNDEFINED> instruction: 0xf52540f5
     378:	f51e2540 			; <UNDEFINED> instruction: 0xf51e2540
     37c:	f41e2546 			; <UNDEFINED> instruction: 0xf41e2546
     380:	9ceb0825 	stclls	8, cr0, [fp], #148	; 0x94
     384:	e5e68a2b 	strb	r8, [r6, #2603]!	; 0xa2b
     388:	1e1c3e5a 	mrcne	14, 0, r3, cr12, cr10, {2}
     38c:	f52540f5 			; <UNDEFINED> instruction: 0xf52540f5
     390:	f51e2540 			; <UNDEFINED> instruction: 0xf51e2540
     394:	40f52540 	rscsmi	r2, r5, r0, asr #10
     398:	25f41e25 	ldrbcs	r1, [r4, #3621]!	; 0xe25
     39c:	b1fe7d08 	mvnslt	r7, r8, lsl #26
     3a0:	c71de357 			; <UNDEFINED> instruction: 0xc71de357
     3a4:	25f41e3e 	ldrbcs	r1, [r4, #3646]!	; 0xe3e
     3a8:	c161d508 	cmngt	r1, r8, lsl #10
     3ac:	2a01a019 	bcs	68418 <__bss_end__+0x5db00>
     3b0:	f41e1c3f 			; <UNDEFINED> instruction: 0xf41e1c3f
     3b4:	f8a60825 			; <UNDEFINED> instruction: 0xf8a60825
     3b8:	11111110 	tstne	r1, r0, lsl r1
     3bc:	22223f81 	eorcs	r3, r2, #516	; 0x204
     3c0:	0000689f 	muleq	r0, pc, r8	; <UNPREDICTABLE>
     3c4:	0000a800 	andeq	sl, r0, r0, lsl #16
     3c8:	f3007c00 			; <UNDEFINED> instruction: 0xf3007c00
     3cc:	2540f503 	strbcs	pc, [r0, #-1283]	; 0xfffffafd	; <UNPREDICTABLE>
     3d0:	40f503f3 	ldrshtmi	r0, [r5], #51	; 0x33
     3d4:	03f31e25 	mvnseq	r1, #592	; 0x250
     3d8:	f32540f5 	vqadd.u32	q2, <illegal reg q10.5>, <illegal reg q10.5>
     3dc:	2540f503 	strbcs	pc, [r0, #-1283]	; 0xfffffafd	; <UNPREDICTABLE>
     3e0:	f503f31e 			; <UNDEFINED> instruction: 0xf503f31e
     3e4:	03f32540 	mvnseq	r2, #64, 10	; 0x10000000
     3e8:	1e2540f5 	mcrne	0, 1, r4, cr5, cr5, {7}
     3ec:	03f31e1e 	mvnseq	r1, #480	; 0x1e0
     3f0:	f32540f5 	vqadd.u32	q2, <illegal reg q10.5>, <illegal reg q10.5>
     3f4:	2540f503 	strbcs	pc, [r0, #-1283]	; 0xfffffafd	; <UNPREDICTABLE>
     3f8:	2546f51e 	strbcs	pc, [r6, #-1310]	; 0xfffffae2	; <UNPREDICTABLE>
     3fc:	0825f41e 	stmdaeq	r5!, {r1, r2, r3, r4, sl, ip, sp, lr, pc}
     400:	8a2b9ceb 	bhi	ae77b4 <__bss_end__+0xadce9c>
     404:	3e5ae5e6 	cdpcc	5, 5, cr14, cr10, cr6, {7}
     408:	03f31e1c 	mvnseq	r1, #28, 28	; 0x1c0
     40c:	f32540f5 	vqadd.u32	q2, <illegal reg q10.5>, <illegal reg q10.5>
     410:	2540f503 	strbcs	pc, [r0, #-1283]	; 0xfffffafd	; <UNPREDICTABLE>
     414:	f503f31e 			; <UNDEFINED> instruction: 0xf503f31e
     418:	03f32540 	mvnseq	r2, #64, 10	; 0x10000000
     41c:	1e2540f5 	mcrne	0, 1, r4, cr5, cr5, {7}
     420:	7d0825f4 	cfstr32vc	mvfx2, [r8, #-976]	; 0xfffffc30
     424:	e357b1fe 	cmp	r7, #-2147483585	; 0x8000003f
     428:	1e3ec71d 	mrcne	7, 1, ip, cr14, cr13, {0}
     42c:	d50825f4 	strle	r2, [r8, #-1524]	; 0xfffffa0c
     430:	a019c161 	andsge	ip, r9, r1, ror #2
     434:	1c3f2a01 			; <UNDEFINED> instruction: 0x1c3f2a01
     438:	0825f41e 	stmdaeq	r5!, {r1, r2, r3, r4, sl, ip, sp, lr, pc}
     43c:	1110f8a6 	tstne	r0, r6, lsr #17	; <UNPREDICTABLE>
     440:	3f811111 	svccc	0x00811111
     444:	009f2222 	addseq	r2, pc, r2, lsr #4
	...
     450:	00003400 	andeq	r3, r0, r0, lsl #8
     454:	0000a800 	andeq	sl, r0, r0, lsl #16
     458:	90000800 	andls	r0, r0, r0, lsl #16
     45c:	9004934a 	andls	r9, r4, sl, asr #6
     460:	0004934b 	andeq	r9, r4, fp, asr #6
	...
     470:	08000000 	stmdaeq	r0, {}	; <UNPREDICTABLE>
     474:	20000000 	andcs	r0, r0, r0
     478:	08000000 	stmdaeq	r0, {}	; <UNPREDICTABLE>
     47c:	93489000 	movtls	r9, #32768	; 0x8000
     480:	93499004 	movtls	r9, #36868	; 0x9004
     484:	00002004 	andeq	r2, r0, r4
     488:	00006000 	andeq	r6, r0, r0
     48c:	f5000800 			; <UNDEFINED> instruction: 0xf5000800
     490:	4ef5254e 	cdpmi	5, 15, cr2, cr5, cr14, {2}
     494:	609f1e25 	addsvs	r1, pc, r5, lsr #28
     498:	68000000 	stmdavs	r0, {}	; <UNPREDICTABLE>
     49c:	10000000 	andne	r0, r0, r0
     4a0:	2540f500 	strbcs	pc, [r0, #-1280]	; 0xfffffb00	; <UNPREDICTABLE>
     4a4:	1e2540f5 	mcrne	0, 1, r4, cr5, cr5, {7}
     4a8:	f52540f5 			; <UNDEFINED> instruction: 0xf52540f5
     4ac:	1e1e2540 	cfmac32ne	mvfx2, mvfx14, mvfx0
     4b0:	0000689f 	muleq	r0, pc, r8	; <UNPREDICTABLE>
     4b4:	0000a800 	andeq	sl, r0, r0, lsl #16
     4b8:	f3001800 	vsub.i8	d1, d0, d0
     4bc:	2540f503 	strbcs	pc, [r0, #-1283]	; 0xfffffafd	; <UNPREDICTABLE>
     4c0:	40f503f3 	ldrshtmi	r0, [r5], #51	; 0x33
     4c4:	03f31e25 	mvnseq	r1, #592	; 0x250
     4c8:	f32540f5 	vqadd.u32	q2, <illegal reg q10.5>, <illegal reg q10.5>
     4cc:	2540f503 	strbcs	pc, [r0, #-1283]	; 0xfffffafd	; <UNPREDICTABLE>
     4d0:	009f1e1e 	addseq	r1, pc, lr, lsl lr	; <UNPREDICTABLE>
	...
     508:	50000000 	andpl	r0, r0, r0
     50c:	08000000 	stmdaeq	r0, {}	; <UNPREDICTABLE>
     510:	93409000 	movtls	r9, #0
     514:	93419004 	movtls	r9, #4100	; 0x1004
     518:	00005004 	andeq	r5, r0, r4
     51c:	00007400 	andeq	r7, r0, r0, lsl #8
     520:	f3000600 	vmax.u8	d0, d0, d0
     524:	2540f503 	strbcs	pc, [r0, #-1283]	; 0xfffffafd	; <UNPREDICTABLE>
     528:	0000749f 	muleq	r0, pc, r4	; <UNPREDICTABLE>
     52c:	00007c00 	andeq	r7, r0, r0, lsl #24
     530:	90000800 	andls	r0, r0, r0, lsl #16
     534:	90049340 	andls	r9, r4, r0, asr #6
     538:	7c049341 	stcvc	3, cr9, [r4], {65}	; 0x41
     53c:	9c000000 	stcls	0, cr0, [r0], {-0}
     540:	06000000 	streq	r0, [r0], -r0
     544:	f503f300 			; <UNDEFINED> instruction: 0xf503f300
     548:	9c9f2540 	cfldr32ls	mvfx2, [pc], {64}	; 0x40
     54c:	ac000000 	stcge	0, cr0, [r0], {-0}
     550:	08000000 	stmdaeq	r0, {}	; <UNPREDICTABLE>
     554:	93409000 	movtls	r9, #0
     558:	93419004 	movtls	r9, #4100	; 0x1004
     55c:	0000ac04 	andeq	sl, r0, r4, lsl #24
     560:	0000cc00 	andeq	ip, r0, r0, lsl #24
     564:	f3000600 	vmax.u8	d0, d0, d0
     568:	2540f503 	strbcs	pc, [r0, #-1283]	; 0xfffffafd	; <UNPREDICTABLE>
     56c:	0000cc9f 	muleq	r0, pc, ip	; <UNPREDICTABLE>
     570:	0000d400 	andeq	sp, r0, r0, lsl #8
     574:	90000800 	andls	r0, r0, r0, lsl #16
     578:	90049340 	andls	r9, r4, r0, asr #6
     57c:	d4049341 	strle	r9, [r4], #-833	; 0xfffffcbf
     580:	f4000000 	vst4.8	{d0-d3}, [r0], r0
     584:	06000000 	streq	r0, [r0], -r0
     588:	f503f300 			; <UNDEFINED> instruction: 0xf503f300
     58c:	f49f2540 			; <UNDEFINED> instruction: 0xf49f2540
     590:	2c000000 	stccs	0, cr0, [r0], {-0}
     594:	08000001 	stmdaeq	r0, {r0}
     598:	93409000 	movtls	r9, #0
     59c:	93419004 	movtls	r9, #4100	; 0x1004
     5a0:	00012c04 	andeq	r2, r1, r4, lsl #24
     5a4:	00014c00 	andeq	r4, r1, r0, lsl #24
     5a8:	f3000600 	vmax.u8	d0, d0, d0
     5ac:	2540f503 	strbcs	pc, [r0, #-1283]	; 0xfffffafd	; <UNPREDICTABLE>
     5b0:	00014c9f 	muleq	r1, pc, ip	; <UNPREDICTABLE>
     5b4:	00015400 	andeq	r5, r1, r0, lsl #8
     5b8:	90000800 	andls	r0, r0, r0, lsl #16
     5bc:	90049340 	andls	r9, r4, r0, asr #6
     5c0:	54049341 	strpl	r9, [r4], #-833	; 0xfffffcbf
     5c4:	74000001 	strvc	r0, [r0], #-1
     5c8:	06000001 	streq	r0, [r0], -r1
     5cc:	f503f300 			; <UNDEFINED> instruction: 0xf503f300
     5d0:	749f2540 	ldrvc	r2, [pc], #1344	; 5d8 <__code_start__-0x7a28>
     5d4:	90000001 	andls	r0, r0, r1
     5d8:	08000001 	stmdaeq	r0, {r0}
     5dc:	93409000 	movtls	r9, #0
     5e0:	93419004 	movtls	r9, #4100	; 0x1004
     5e4:	00019004 	andeq	r9, r1, r4
     5e8:	0001b000 	andeq	fp, r1, r0
     5ec:	f3000600 	vmax.u8	d0, d0, d0
     5f0:	2540f503 	strbcs	pc, [r0, #-1283]	; 0xfffffafd	; <UNPREDICTABLE>
     5f4:	0001b09f 	muleq	r1, pc, r0	; <UNPREDICTABLE>
     5f8:	0001b800 	andeq	fp, r1, r0, lsl #16
     5fc:	90000800 	andls	r0, r0, r0, lsl #16
     600:	90049340 	andls	r9, r4, r0, asr #6
     604:	b8049341 	stmdalt	r4, {r0, r6, r8, r9, ip, pc}
     608:	d8000001 	stmdale	r0, {r0}
     60c:	06000001 	streq	r0, [r0], -r1
     610:	f503f300 			; <UNDEFINED> instruction: 0xf503f300
     614:	d89f2540 	ldmle	pc, {r6, r8, sl, sp}	; <UNPREDICTABLE>
     618:	34000001 	strcc	r0, [r0], #-1
     61c:	08000002 	stmdaeq	r0, {r1}
     620:	93409000 	movtls	r9, #0
     624:	93419004 	movtls	r9, #4100	; 0x1004
     628:	00023404 	andeq	r3, r2, r4, lsl #8
     62c:	0002e400 	andeq	lr, r2, r0, lsl #8
     630:	f3000600 	vmax.u8	d0, d0, d0
     634:	2540f503 	strbcs	pc, [r0, #-1283]	; 0xfffffafd	; <UNPREDICTABLE>
     638:	0002e49f 	muleq	r2, pc, r4	; <UNPREDICTABLE>
     63c:	0002e800 	andeq	lr, r2, r0, lsl #16
     640:	90000800 	andls	r0, r0, r0, lsl #16
     644:	90049340 	andls	r9, r4, r0, asr #6
     648:	e8049341 	stmda	r4, {r0, r6, r8, r9, ip, pc}
     64c:	f8000002 			; <UNDEFINED> instruction: 0xf8000002
     650:	06000002 	streq	r0, [r0], -r2
     654:	f503f300 			; <UNDEFINED> instruction: 0xf503f300
     658:	f89f2540 			; <UNDEFINED> instruction: 0xf89f2540
     65c:	5f000002 	svcpl	0x00000002
     660:	08000003 	stmdaeq	r0, {r0, r1}
     664:	93409000 	movtls	r9, #0
     668:	93419004 	movtls	r9, #4100	; 0x1004
     66c:	00035f04 	andeq	r5, r3, r4, lsl #30
     670:	00043800 	andeq	r3, r4, r0, lsl #16
     674:	f3000600 	vmax.u8	d0, d0, d0
     678:	2540f503 	strbcs	pc, [r0, #-1283]	; 0xfffffafd	; <UNPREDICTABLE>
     67c:	0000009f 	muleq	r0, pc, r0	; <UNPREDICTABLE>
	...
     6b4:	00006c00 	andeq	r6, r0, r0, lsl #24
     6b8:	50000100 	andpl	r0, r0, r0, lsl #2
     6bc:	0000006c 	andeq	r0, r0, ip, rrx
     6c0:	00000074 	andeq	r0, r0, r4, ror r0
     6c4:	74540001 	ldrbvc	r0, [r4], #-1
     6c8:	98000000 	stmdals	r0, {}	; <UNPREDICTABLE>
     6cc:	01000000 	mrseq	r0, (UNDEF: 0)
     6d0:	00985000 	addseq	r5, r8, r0
     6d4:	009c0000 	addseq	r0, ip, r0
     6d8:	00010000 	andeq	r0, r1, r0
     6dc:	00009c54 	andeq	r9, r0, r4, asr ip
     6e0:	0000c800 	andeq	ip, r0, r0, lsl #16
     6e4:	50000100 	andpl	r0, r0, r0, lsl #2
     6e8:	000000c8 	andeq	r0, r0, r8, asr #1
     6ec:	000000cc 	andeq	r0, r0, ip, asr #1
     6f0:	cc540001 	mrrcgt	0, 0, r0, r4, cr1
     6f4:	f0000000 			; <UNDEFINED> instruction: 0xf0000000
     6f8:	01000000 	mrseq	r0, (UNDEF: 0)
     6fc:	00f05000 	rscseq	r5, r0, r0
     700:	00f40000 	rscseq	r0, r4, r0
     704:	00010000 	andeq	r0, r1, r0
     708:	0000f454 	andeq	pc, r0, r4, asr r4	; <UNPREDICTABLE>
     70c:	00014800 	andeq	r4, r1, r0, lsl #16
     710:	50000100 	andpl	r0, r0, r0, lsl #2
     714:	00000148 	andeq	r0, r0, r8, asr #2
     718:	0000014c 	andeq	r0, r0, ip, asr #2
     71c:	4c540001 	mrrcmi	0, 0, r0, r4, cr1
     720:	70000001 	andvc	r0, r0, r1
     724:	01000001 	tsteq	r0, r1
     728:	01705000 	cmneq	r0, r0
     72c:	01740000 	cmneq	r4, r0
     730:	00010000 	andeq	r0, r1, r0
     734:	00017454 	andeq	r7, r1, r4, asr r4
     738:	0001ac00 	andeq	sl, r1, r0, lsl #24
     73c:	50000100 	andpl	r0, r0, r0, lsl #2
     740:	000001ac 	andeq	r0, r0, ip, lsr #3
     744:	000001b0 			; <UNDEFINED> instruction: 0x000001b0
     748:	b0540001 	subslt	r0, r4, r1
     74c:	d4000001 	strle	r0, [r0], #-1
     750:	01000001 	tsteq	r0, r1
     754:	01d45000 	bicseq	r5, r4, r0
     758:	01d80000 	bicseq	r0, r8, r0
     75c:	00010000 	andeq	r0, r1, r0
     760:	0001d854 	andeq	sp, r1, r4, asr r8
     764:	00020400 	andeq	r0, r2, r0, lsl #8
     768:	50000100 	andpl	r0, r0, r0, lsl #2
     76c:	00000204 	andeq	r0, r0, r4, lsl #4
     770:	00000210 	andeq	r0, r0, r0, lsl r2
     774:	10540001 	subsne	r0, r4, r1
     778:	2c000002 	stccs	0, cr0, [r0], {2}
     77c:	01000002 	tsteq	r0, r2
     780:	022c5000 	eoreq	r5, ip, #0, 0
     784:	02e40000 	rsceq	r0, r4, #0, 0
     788:	00010000 	andeq	r0, r1, r0
     78c:	0002e454 	andeq	lr, r2, r4, asr r4
     790:	0002f400 	andeq	pc, r2, r0, lsl #8
     794:	50000100 	andpl	r0, r0, r0, lsl #2
     798:	000002f4 	strdeq	r0, [r0], -r4
     79c:	00000438 	andeq	r0, r0, r8, lsr r4
     7a0:	00540001 	subseq	r0, r4, r1
	...
     7d0:	50000000 	andpl	r0, r0, r0
     7d4:	60000000 	andvs	r0, r0, r0
     7d8:	08000000 	stmdaeq	r0, {}	; <UNPREDICTABLE>
     7dc:	93409000 	movtls	r9, #0
     7e0:	93419004 	movtls	r9, #4100	; 0x1004
     7e4:	00006004 	andeq	r6, r0, r4
     7e8:	00006c00 	andeq	r6, r0, r0, lsl #24
     7ec:	f3001200 	vhsub.u8	d1, d0, d0
     7f0:	2540f503 	strbcs	pc, [r0, #-1283]	; 0xfffffafd	; <UNPREDICTABLE>
     7f4:	000825f4 	strdeq	r2, [r8], -r4
     7f8:	fb544000 	blx	1510802 <__bss_end__+0x1505eea>
     7fc:	1c3ff921 			; <UNDEFINED> instruction: 0x1c3ff921
     800:	00007c9f 	muleq	r0, pc, ip	; <UNPREDICTABLE>
     804:	00008c00 	andeq	r8, r0, r0, lsl #24
     808:	90000800 	andls	r0, r0, r0, lsl #16
     80c:	90049340 	andls	r9, r4, r0, asr #6
     810:	8c049341 	stchi	3, cr9, [r4], {65}	; 0x41
     814:	9c000000 	stcls	0, cr0, [r0], {-0}
     818:	12000000 	andne	r0, r0, #0, 0
     81c:	f503f300 			; <UNDEFINED> instruction: 0xf503f300
     820:	25f42540 	ldrbcs	r2, [r4, #1344]!	; 0x540
     824:	40000008 	andmi	r0, r0, r8
     828:	f921fb54 			; <UNDEFINED> instruction: 0xf921fb54
     82c:	ac9f223f 	lfmge	f2, 4, [pc], {63}	; 0x3f
     830:	bc000000 	stclt	0, cr0, [r0], {-0}
     834:	08000000 	stmdaeq	r0, {}	; <UNPREDICTABLE>
     838:	93409000 	movtls	r9, #0
     83c:	93419004 	movtls	r9, #4100	; 0x1004
     840:	0000bc04 	andeq	fp, r0, r4, lsl #24
     844:	0000cc00 	andeq	ip, r0, r0, lsl #24
     848:	f3001200 	vhsub.u8	d1, d0, d0
     84c:	2540f503 	strbcs	pc, [r0, #-1283]	; 0xfffffafd	; <UNPREDICTABLE>
     850:	000825f4 	strdeq	r2, [r8], -r4
     854:	fb544000 	blx	151085e <__bss_end__+0x1505f46>
     858:	1c400921 	mcrrne	9, 2, r0, r0, cr1	; <UNPREDICTABLE>
     85c:	0000d49f 	muleq	r0, pc, r4	; <UNPREDICTABLE>
     860:	0000e400 	andeq	lr, r0, r0, lsl #8
     864:	90000800 	andls	r0, r0, r0, lsl #16
     868:	90049340 	andls	r9, r4, r0, asr #6
     86c:	e4049341 	str	r9, [r4], #-833	; 0xfffffcbf
     870:	f4000000 	vst4.8	{d0-d3}, [r0], r0
     874:	12000000 	andne	r0, r0, #0, 0
     878:	f503f300 			; <UNDEFINED> instruction: 0xf503f300
     87c:	25f42540 	ldrbcs	r2, [r4, #1344]!	; 0x540
     880:	40000008 	andmi	r0, r0, r8
     884:	0921fb54 	stmdbeq	r1!, {r2, r4, r6, r8, r9, fp, ip, sp, lr, pc}
     888:	2c9f2240 	lfmcs	f2, 4, [pc], {64}	; 0x40
     88c:	3c000001 	stccc	0, cr0, [r0], {1}
     890:	08000001 	stmdaeq	r0, {r0}
     894:	93409000 	movtls	r9, #0
     898:	93419004 	movtls	r9, #4100	; 0x1004
     89c:	00013c04 	andeq	r3, r1, r4, lsl #24
     8a0:	00014c00 	andeq	r4, r1, r0, lsl #24
     8a4:	f3001200 	vhsub.u8	d1, d0, d0
     8a8:	2540f503 	strbcs	pc, [r0, #-1283]	; 0xfffffafd	; <UNPREDICTABLE>
     8ac:	000825f4 	strdeq	r2, [r8], -r4
     8b0:	7c7f3000 	ldclvc	0, cr3, [pc], #-0	; 8b8 <__code_start__-0x7748>
     8b4:	1c4012d9 	sfmne	f1, 2, [r0], {217}	; 0xd9
     8b8:	0001549f 	muleq	r1, pc, r4	; <UNPREDICTABLE>
     8bc:	00016400 	andeq	r6, r1, r0, lsl #8
     8c0:	90000800 	andls	r0, r0, r0, lsl #16
     8c4:	90049340 	andls	r9, r4, r0, asr #6
     8c8:	64049341 	strvs	r9, [r4], #-833	; 0xfffffcbf
     8cc:	74000001 	strvc	r0, [r0], #-1
     8d0:	12000001 	andne	r0, r0, #1, 0
     8d4:	f503f300 			; <UNDEFINED> instruction: 0xf503f300
     8d8:	25f42540 	ldrbcs	r2, [r4, #1344]!	; 0x540
     8dc:	30000008 	andcc	r0, r0, r8
     8e0:	12d97c7f 	sbcsne	r7, r9, #32512	; 0x7f00
     8e4:	909f2240 	addsls	r2, pc, r0, asr #4
     8e8:	a0000001 	andge	r0, r0, r1
     8ec:	08000001 	stmdaeq	r0, {r0}
     8f0:	93409000 	movtls	r9, #0
     8f4:	93419004 	movtls	r9, #4100	; 0x1004
     8f8:	0001a004 	andeq	sl, r1, r4
     8fc:	0001b000 	andeq	fp, r1, r0
     900:	f3001200 	vhsub.u8	d1, d0, d0
     904:	2540f503 	strbcs	pc, [r0, #-1283]	; 0xfffffafd	; <UNPREDICTABLE>
     908:	000825f4 	strdeq	r2, [r8], -r4
     90c:	fb544000 	blx	1510916 <__bss_end__+0x1505ffe>
     910:	1c401921 	mcrrne	9, 2, r1, r0, cr1	; <UNPREDICTABLE>
     914:	0001b89f 	muleq	r1, pc, r8	; <UNPREDICTABLE>
     918:	0001c800 	andeq	ip, r1, r0, lsl #16
     91c:	90000800 	andls	r0, r0, r0, lsl #16
     920:	90049340 	andls	r9, r4, r0, asr #6
     924:	c8049341 	stmdagt	r4, {r0, r6, r8, r9, ip, pc}
     928:	d8000001 	stmdale	r0, {r0}
     92c:	12000001 	andne	r0, r0, #1, 0
     930:	f503f300 			; <UNDEFINED> instruction: 0xf503f300
     934:	25f42540 	ldrbcs	r2, [r4, #1344]!	; 0x540
     938:	40000008 	andmi	r0, r0, r8
     93c:	1921fb54 	stmdbne	r1!, {r2, r4, r6, r8, r9, fp, ip, sp, lr, pc}
     940:	089f2240 	ldmeq	pc, {r6, r9, sp}	; <UNPREDICTABLE>
     944:	10000002 	andne	r0, r0, r2
     948:	06000002 	streq	r0, [r0], -r2
     94c:	04935000 	ldreq	r5, [r3], #0
     950:	f8049351 			; <UNDEFINED> instruction: 0xf8049351
     954:	10000002 	andne	r0, r0, r2
     958:	08000003 	stmdaeq	r0, {r0, r1}
     95c:	934e9000 	movtls	r9, #57344	; 0xe000
     960:	934f9004 	movtls	r9, #61444	; 0xf004
     964:	00031804 	andeq	r1, r3, r4, lsl #16
     968:	00032c00 	andeq	r2, r3, r0, lsl #24
     96c:	90000800 	andls	r0, r0, r0, lsl #16
     970:	9004934e 	andls	r9, r4, lr, asr #6
     974:	2c04934f 	stccs	3, cr9, [r4], {79}	; 0x4f
     978:	5f000003 	svcpl	0x00000003
     97c:	02000003 	andeq	r0, r0, #3, 0
     980:	00609100 	rsbeq	r9, r0, r0, lsl #2
	...
     998:	3c000000 	stccc	0, cr0, [r0], {-0}
     99c:	6c000002 	stcvs	0, cr0, [r0], {2}
     9a0:	08000002 	stmdaeq	r0, {r1}
     9a4:	934e9000 	movtls	r9, #57344	; 0xe000
     9a8:	934f9004 	movtls	r9, #61444	; 0xf004
     9ac:	00026c04 	andeq	r6, r2, r4, lsl #24
     9b0:	00027c00 	andeq	r7, r2, r0, lsl #24
     9b4:	90000800 	andls	r0, r0, r0, lsl #16
     9b8:	9004934c 	andls	r9, r4, ip, asr #6
     9bc:	7c04934d 	stcvc	3, cr9, [r4], {77}	; 0x4d
     9c0:	80000002 	andhi	r0, r0, r2
     9c4:	10000002 	andne	r0, r0, r2
     9c8:	254af500 	strbcs	pc, [sl, #-1280]	; 0xfffffb00	; <UNPREDICTABLE>
     9cc:	000825f4 	strdeq	r2, [r8], -r4
     9d0:	611a6000 	tstvs	sl, r0
     9d4:	1e3dd0b4 	mrcne	0, 1, sp, cr13, cr4, {5}
     9d8:	0002809f 	muleq	r2, pc, r0	; <UNPREDICTABLE>
     9dc:	0002ac00 	andeq	sl, r2, r0, lsl #24
     9e0:	90000800 	andls	r0, r0, r0, lsl #16
     9e4:	9004934e 	andls	r9, r4, lr, asr #6
     9e8:	ac04934f 	stcge	3, cr9, [r4], {79}	; 0x4f
     9ec:	bc000002 	stclt	0, cr0, [r0], {2}
     9f0:	08000002 	stmdaeq	r0, {r1}
     9f4:	934c9000 	movtls	r9, #49152	; 0xc000
     9f8:	934d9004 	movtls	r9, #53252	; 0xd004
     9fc:	0002bc04 	andeq	fp, r2, r4, lsl #24
     a00:	0002c000 	andeq	ip, r2, r0
     a04:	f5001000 			; <UNDEFINED> instruction: 0xf5001000
     a08:	25f4254a 	ldrbcs	r2, [r4, #1354]!	; 0x54a
     a0c:	00000008 	andeq	r0, r0, r8
     a10:	a3198a2e 	tstge	r9, #188416	; 0x2e000
     a14:	c09f1e3b 	addsgt	r1, pc, fp, lsr lr	; <UNPREDICTABLE>
     a18:	d4000002 	strle	r0, [r0], #-2
     a1c:	08000002 	stmdaeq	r0, {r1}
     a20:	934e9000 	movtls	r9, #57344	; 0xe000
     a24:	934f9004 	movtls	r9, #61444	; 0xf004
     a28:	0002dc04 	andeq	sp, r2, r4, lsl #24
     a2c:	0002e400 	andeq	lr, r2, r0, lsl #8
     a30:	90000800 	andls	r0, r0, r0, lsl #16
     a34:	9004934e 	andls	r9, r4, lr, asr #6
     a38:	0004934f 	andeq	r9, r4, pc, asr #6
     a3c:	00000000 	andeq	r0, r0, r0
     a40:	01000000 	mrseq	r0, (UNDEF: 0)
     a44:	00000101 	andeq	r0, r0, r1, lsl #2
     a48:	64000000 	strvs	r0, [r0], #-0
     a4c:	a4000002 	strge	r0, [r0], #-2
     a50:	08000002 	stmdaeq	r0, {r1}
     a54:	93409000 	movtls	r9, #0
     a58:	93419004 	movtls	r9, #4100	; 0x1004
     a5c:	0002a404 	andeq	sl, r2, r4, lsl #8
     a60:	0002c800 	andeq	ip, r2, r0, lsl #16
     a64:	90000800 	andls	r0, r0, r0, lsl #16
     a68:	90049348 	andls	r9, r4, r8, asr #6
     a6c:	dc049349 	stcle	3, cr9, [r4], {73}	; 0x49
     a70:	e0000002 	and	r0, r0, r2
     a74:	08000002 	stmdaeq	r0, {r1}
     a78:	93409000 	movtls	r9, #0
     a7c:	93419004 	movtls	r9, #4100	; 0x1004
     a80:	0002e004 	andeq	lr, r2, r4
     a84:	0002e400 	andeq	lr, r2, r0, lsl #8
     a88:	f3001600 	vmax.u8	d1, d0, d0
     a8c:	2540f503 	strbcs	pc, [r0, #-1283]	; 0xfffffafd	; <UNPREDICTABLE>
     a90:	f4254af5 	vld1.64	{d4-d5}, [r5 :256], r5
     a94:	00000825 	andeq	r0, r0, r5, lsr #16
     a98:	21fb5440 	mvnscs	r5, r0, asr #8
     a9c:	1c1e3ff9 	ldcne	15, cr3, [lr], {249}	; 0xf9
     aa0:	0000009f 	muleq	r0, pc, r0	; <UNPREDICTABLE>
	...
     ab0:	00023400 	andeq	r3, r2, r0, lsl #8
     ab4:	00027000 	andeq	r7, r2, r0
     ab8:	90000800 	andls	r0, r0, r0, lsl #16
     abc:	90049340 	andls	r9, r4, r0, asr #6
     ac0:	70049341 	andvc	r9, r4, r1, asr #6
     ac4:	b0000002 	andlt	r0, r0, r2
     ac8:	08000002 	stmdaeq	r0, {r1}
     acc:	93489000 	movtls	r9, #32768	; 0x8000
     ad0:	93499004 	movtls	r9, #36868	; 0x9004
     ad4:	0002b004 	andeq	fp, r2, r4
     ad8:	0002d000 	andeq	sp, r2, r0
     adc:	90000800 	andls	r0, r0, r0, lsl #16
     ae0:	90049340 	andls	r9, r4, r0, asr #6
     ae4:	dc049341 	stcle	3, cr9, [r4], {65}	; 0x41
     ae8:	e4000002 	str	r0, [r0], #-2
     aec:	08000002 	stmdaeq	r0, {r1}
     af0:	93489000 	movtls	r9, #32768	; 0x8000
     af4:	93499004 	movtls	r9, #36868	; 0x9004
     af8:	00000004 	andeq	r0, r0, r4
     afc:	00000000 	andeq	r0, r0, r0
     b00:	20000000 	andcs	r0, r0, r0
     b04:	e4000002 	str	r0, [r0], #-2
     b08:	08000002 	stmdaeq	r0, {r1}
     b0c:	934a9000 	movtls	r9, #40960	; 0xa000
     b10:	934b9004 	movtls	r9, #45060	; 0xb004
     b14:	00000004 	andeq	r0, r0, r4
	...
     b20:	fc000000 	stc2	0, cr0, [r0], {-0}
     b24:	10000001 	andne	r0, r0, r1
     b28:	01000002 	tsteq	r0, r2
     b2c:	02f85200 	rscseq	r5, r8, #0, 4
     b30:	035f0000 	cmpeq	pc, #0, 0
     b34:	00010000 	andeq	r0, r1, r0
     b38:	00035f52 	andeq	r5, r3, r2, asr pc
     b3c:	00043800 	andeq	r3, r4, r0, lsl #16
     b40:	75000f00 	strvc	r0, [r0, #-3840]	; 0xfffff100
     b44:	ffff0c00 			; <UNDEFINED> instruction: 0xffff0c00
     b48:	441a7fff 	ldrmi	r7, [sl], #-4095	; 0xfffff001
     b4c:	04160a26 	ldreq	r0, [r6], #-2598	; 0xfffff5da
     b50:	00009f1c 	andeq	r9, r0, ip, lsl pc
     b54:	00000000 	andeq	r0, r0, r0
     b58:	00030000 	andeq	r0, r3, r0
	...
     b64:	00000208 	andeq	r0, r0, r8, lsl #4
     b68:	00000210 	andeq	r0, r0, r0, lsl r2
     b6c:	9f300002 	svcls	0x00300002
     b70:	0000025c 	andeq	r0, r0, ip, asr r2
     b74:	0000028c 	andeq	r0, r0, ip, lsl #5
     b78:	8c530001 	mrrchi	0, 0, r0, r3, cr1
     b7c:	9c000002 	stcls	0, cr0, [r0], {2}
     b80:	0e000002 	cdpeq	0, 0, cr0, cr0, cr2, {0}
     b84:	0c007500 	cfstr32eq	mvfx7, [r0], {-0}
     b88:	7fffffff 	svcvc	0x00ffffff
     b8c:	7226441a 	eorvc	r4, r6, #436207616	; 0x1a000000
     b90:	9c9f1c00 	ldcls	12, cr1, [pc], {0}
     b94:	e4000002 	str	r0, [r0], #-2
     b98:	01000002 	tsteq	r0, r2
     b9c:	02f85300 	rscseq	r5, r8, #0, 6
     ba0:	032c0000 			; <UNDEFINED> instruction: 0x032c0000
     ba4:	00010000 	andeq	r0, r1, r0
     ba8:	00000053 	andeq	r0, r0, r3, asr r0
     bac:	00000000 	andeq	r0, r0, r0
     bb0:	40000000 	andmi	r0, r0, r0
     bb4:	e4000002 	str	r0, [r0], #-2
     bb8:	01000002 	tsteq	r0, r2
     bbc:	00005100 	andeq	r5, r0, r0, lsl #2
     bc0:	00000000 	andeq	r0, r0, r0
     bc4:	00010000 	andeq	r0, r1, r0
     bc8:	00000000 	andeq	r0, r0, r0
     bcc:	00000328 	andeq	r0, r0, r8, lsr #6
     bd0:	0000032c 	andeq	r0, r0, ip, lsr #6
     bd4:	9f330002 	svcls	0x00330002
     bd8:	0000032c 	andeq	r0, r0, ip, lsr #6
     bdc:	00000334 	andeq	r0, r0, r4, lsr r3
     be0:	34510001 	ldrbcc	r0, [r1], #-1
     be4:	5f000003 	svcpl	0x00000003
     be8:	01000003 	tsteq	r0, r3
     bec:	00005300 	andeq	r5, r0, r0, lsl #6
	...
     bfc:	0000022c 	andeq	r0, r0, ip, lsr #4
     c00:	000002e4 	andeq	r0, r0, r4, ror #5
     c04:	60500001 	subsvs	r0, r0, r1
     c08:	98000003 	stmdals	r0, {r0, r1}
     c0c:	01000003 	tsteq	r0, r3
     c10:	03985000 	orrseq	r5, r8, #0, 0
     c14:	04380000 	ldrteq	r0, [r8], #-0
     c18:	00040000 	andeq	r0, r4, r0
     c1c:	9f1f0070 	svcls	0x001f0070
	...
     c38:	00000014 	andeq	r0, r0, r4, lsl r0
     c3c:	0000006c 	andeq	r0, r0, ip, rrx
     c40:	6c530001 	mrrcvs	0, 0, r0, r3, cr1
     c44:	74000000 	strvc	r0, [r0], #-0
     c48:	09000000 	stmdbeq	r0, {}	; <UNPREDICTABLE>
     c4c:	0c007500 	cfstr32eq	mvfx7, [r0], {-0}
     c50:	7fffffff 	svcvc	0x00ffffff
     c54:	00749f1a 	rsbseq	r9, r4, sl, lsl pc
     c58:	020c0000 	andeq	r0, ip, #0, 0
     c5c:	00010000 	andeq	r0, r1, r0
     c60:	00020c53 	andeq	r0, r2, r3, asr ip
     c64:	00021000 	andeq	r1, r2, r0
     c68:	75000900 	strvc	r0, [r0, #-2304]	; 0xfffff700
     c6c:	ffff0c00 			; <UNDEFINED> instruction: 0xffff0c00
     c70:	9f1a7fff 	svcls	0x001a7fff
     c74:	00000210 	andeq	r0, r0, r0, lsl r2
     c78:	0000025c 	andeq	r0, r0, ip, asr r2
     c7c:	5c530001 	mrrcpl	0, 0, r0, r3, cr1
     c80:	e4000002 	str	r0, [r0], #-2
     c84:	09000002 	stmdbeq	r0, {r1}
     c88:	0c007500 	cfstr32eq	mvfx7, [r0], {-0}
     c8c:	7fffffff 	svcvc	0x00ffffff
     c90:	02e49f1a 	rsceq	r9, r4, #104	; 0x68
     c94:	02f80000 	rscseq	r0, r8, #0, 0
     c98:	00010000 	andeq	r0, r1, r0
     c9c:	0002f853 	andeq	pc, r2, r3, asr r8	; <UNPREDICTABLE>
     ca0:	00043800 	andeq	r3, r4, r0, lsl #16
     ca4:	75000900 	strvc	r0, [r0, #-2304]	; 0xfffff700
     ca8:	ffff0c00 			; <UNDEFINED> instruction: 0xffff0c00
     cac:	9f1a7fff 	svcls	0x001a7fff
	...
     cb8:	00100000 	andseq	r0, r0, r0
     cbc:	04380000 	ldrteq	r0, [r8], #-0
     cc0:	00010000 	andeq	r0, r1, r0
     cc4:	00000055 	andeq	r0, r0, r5, asr r0
     cc8:	00000000 	andeq	r0, r0, r0
     ccc:	00000100 	andeq	r0, r0, r0, lsl #2
     cd0:	00020400 	andeq	r0, r2, r0, lsl #8
     cd4:	00021000 	andeq	r1, r2, r0
     cd8:	50000600 	andpl	r0, r0, r0, lsl #12
     cdc:	93510493 	cmpls	r1, #-1828716544	; 0x93000000
     ce0:	0002f804 	andeq	pc, r2, r4, lsl #16
     ce4:	00033800 	andeq	r3, r3, r0, lsl #16
     ce8:	50000600 	andpl	r0, r0, r0, lsl #12
     cec:	93510493 	cmpls	r1, #-1828716544	; 0x93000000
     cf0:	00000004 	andeq	r0, r0, r4
	...
     d00:	00005800 	andeq	r5, r0, r0, lsl #16
     d04:	50000100 	andpl	r0, r0, r0, lsl #2
     d08:	00000058 	andeq	r0, r0, r8, asr r0
     d0c:	0000075c 	andeq	r0, r0, ip, asr r7
     d10:	00550001 	subseq	r0, r5, r1
	...
     d20:	20000000 	andcs	r0, r0, r0
     d24:	01000000 	mrseq	r0, (UNDEF: 0)
     d28:	00205100 	eoreq	r5, r0, r0, lsl #2
     d2c:	075c0000 	ldrbeq	r0, [ip, -r0]
     d30:	00010000 	andeq	r0, r1, r0
     d34:	0000005b 	andeq	r0, r0, fp, asr r0
	...
     d44:	1c000000 	stcne	0, cr0, [r0], {-0}
     d48:	01000000 	mrseq	r0, (UNDEF: 0)
     d4c:	001c5200 	andseq	r5, ip, r0, lsl #4
     d50:	00500000 	subseq	r0, r0, r0
     d54:	00010000 	andeq	r0, r1, r0
     d58:	0000505a 	andeq	r5, r0, sl, asr r0
     d5c:	00075c00 	andeq	r5, r7, r0, lsl #24
     d60:	f3000400 	vshl.u8	d0, d0, d0
     d64:	009f5201 	addseq	r5, pc, r1, lsl #4
	...
     d78:	00002c00 	andeq	r2, r0, r0, lsl #24
     d7c:	53000100 	movwpl	r0, #256	; 0x100
     d80:	0000002c 	andeq	r0, r0, ip, lsr #32
     d84:	000005dc 	ldrdeq	r0, [r0], -ip
     d88:	01740003 	cmneq	r4, r3
     d8c:	0005dc9f 	muleq	r5, pc, ip	; <UNPREDICTABLE>
     d90:	00075c00 	andeq	r5, r7, r0, lsl #24
     d94:	f3000400 	vshl.u8	d0, d0, d0
     d98:	009f5301 	addseq	r5, pc, r1, lsl #6
	...
     da4:	f8000000 			; <UNDEFINED> instruction: 0xf8000000
     da8:	a0000000 	andge	r0, r0, r0
     dac:	01000005 	tsteq	r0, r5
     db0:	05dc5600 	ldrbeq	r5, [ip, #1536]	; 0x600
     db4:	06e00000 	strbteq	r0, [r0], r0
     db8:	00010000 	andeq	r0, r1, r0
     dbc:	00000056 	andeq	r0, r0, r6, asr r0
     dc0:	00000000 	andeq	r0, r0, r0
     dc4:	28000000 	stmdacs	r0, {}	; <UNPREDICTABLE>
     dc8:	5c000000 	stcpl	0, cr0, [r0], {-0}
     dcc:	01000007 	tsteq	r0, r7
     dd0:	00005400 	andeq	r5, r0, r0, lsl #8
	...
     ddc:	0000003c 	andeq	r0, r0, ip, lsr r0
     de0:	0000075c 	andeq	r0, r0, ip, asr r7
     de4:	00580001 	subseq	r0, r8, r1
     de8:	00000000 	andeq	r0, r0, r0
     dec:	01000000 	mrseq	r0, (UNDEF: 0)
     df0:	00002400 	andeq	r2, r0, r0, lsl #8
     df4:	00075c00 	andeq	r5, r7, r0, lsl #24
     df8:	57000100 	strpl	r0, [r0, -r0, lsl #2]
	...
     e04:	00240000 	eoreq	r0, r4, r0
     e08:	075c0000 	ldrbeq	r0, [ip, -r0]
     e0c:	00010000 	andeq	r0, r1, r0
     e10:	00000057 	andeq	r0, r0, r7, asr r0
     e14:	00000000 	andeq	r0, r0, r0
     e18:	00000100 	andeq	r0, r0, r0, lsl #2
     e1c:	00000101 	andeq	r0, r0, r1, lsl #2
     e20:	0c000000 	stceq	0, cr0, [r0], {-0}
     e24:	18000002 	stmdane	r0, {r1}
     e28:	02000002 	andeq	r0, r0, #2, 0
     e2c:	189f3000 	ldmne	pc, {ip, sp}	; <UNPREDICTABLE>
     e30:	58000002 	stmdapl	r0, {r1}
     e34:	01000002 	tsteq	r0, r2
     e38:	02585100 	subseq	r5, r8, #0
     e3c:	02700000 	rsbseq	r0, r0, #0, 0
     e40:	00020000 	andeq	r0, r2, r0
     e44:	02709f31 	rsbseq	r9, r0, #196	; 0xc4
     e48:	02ab0000 	adceq	r0, fp, #0, 0
     e4c:	00010000 	andeq	r0, r1, r0
     e50:	0002b451 	andeq	fp, r2, r1, asr r4
     e54:	0002f400 	andeq	pc, r2, r0, lsl #8
     e58:	51000100 	mrspl	r0, (UNDEF: 16)
	...
     e74:	00000164 	andeq	r0, r0, r4, ror #2
     e78:	00000198 	muleq	r0, r8, r1
     e7c:	52900002 	addspl	r0, r0, #2, 0
     e80:	00000198 	muleq	r0, r8, r1
     e84:	000001a8 	andeq	r0, r0, r8, lsr #3
     e88:	a8500001 	ldmdage	r0, {r0}^
     e8c:	00000001 	andeq	r0, r0, r1
     e90:	02000002 	andeq	r0, r0, #2, 0
     e94:	0c529000 	mraeq	r9, r2, acc0
     e98:	10000002 	andne	r0, r0, r2
     e9c:	01000002 	tsteq	r0, r2
     ea0:	02105300 	andseq	r5, r0, #0, 6
     ea4:	03bc0000 			; <UNDEFINED> instruction: 0x03bc0000
     ea8:	00020000 	andeq	r0, r2, r0
     eac:	03d45290 	bicseq	r5, r4, #144, 4
     eb0:	05d80000 	ldrbeq	r0, [r8]
     eb4:	00020000 	andeq	r0, r2, r0
     eb8:	05d85290 	ldrbeq	r5, [r8, #656]	; 0x290
     ebc:	05dc0000 	ldrbeq	r0, [ip]
     ec0:	00010000 	andeq	r0, r1, r0
     ec4:	0005dc53 	andeq	sp, r5, r3, asr ip
     ec8:	00075c00 	andeq	r5, r7, r0, lsl #24
     ecc:	90000200 	andls	r0, r0, r0, lsl #4
     ed0:	00000052 	andeq	r0, r0, r2, asr r0
     ed4:	00000000 	andeq	r0, r0, r0
     ed8:	00000100 	andeq	r0, r0, r0, lsl #2
	...
     ee4:	00000200 	andeq	r0, r0, r0, lsl #4
	...
     ef0:	01000100 	mrseq	r0, (UNDEF: 16)
     ef4:	00000000 	andeq	r0, r0, r0
     ef8:	00010000 	andeq	r0, r1, r0
     efc:	00000101 	andeq	r0, r0, r1, lsl #2
     f00:	00000000 	andeq	r0, r0, r0
     f04:	00000101 	andeq	r0, r0, r1, lsl #2
     f08:	00000000 	andeq	r0, r0, r0
     f0c:	00000101 	andeq	r0, r0, r1, lsl #2
     f10:	58000000 	stmdapl	r0, {}	; <UNPREDICTABLE>
     f14:	60000000 	andvs	r0, r0, r0
     f18:	02000000 	andeq	r0, r0, #0, 0
     f1c:	609f3000 	addsvs	r3, pc, r0
     f20:	a4000000 	strge	r0, [r0], #-0
     f24:	01000000 	mrseq	r0, (UNDEF: 0)
     f28:	00a45300 	adceq	r5, r4, r0, lsl #6
     f2c:	00f80000 	rscseq	r0, r8, r0
     f30:	00010000 	andeq	r0, r1, r0
     f34:	0000f851 	andeq	pc, r0, r1, asr r8	; <UNPREDICTABLE>
     f38:	00014700 	andeq	r4, r1, r0, lsl #14
     f3c:	52000100 	andpl	r0, r0, #0
     f40:	0000018c 	andeq	r0, r0, ip, lsl #3
     f44:	000001a8 	andeq	r0, r0, r8, lsr #3
     f48:	c0510001 	subsgt	r0, r1, r1
     f4c:	c8000001 	stmdagt	r0, {r0}
     f50:	01000001 	tsteq	r0, r1
     f54:	020c5300 	andeq	r5, ip, #0, 6
     f58:	02180000 	andseq	r0, r8, #0, 0
     f5c:	00020000 	andeq	r0, r2, r0
     f60:	02189f30 	andseq	r9, r8, #48, 30	; 0xc0
     f64:	02880000 	addeq	r0, r8, #0, 0
     f68:	00010000 	andeq	r0, r1, r0
     f6c:	0002b453 	andeq	fp, r2, r3, asr r4
     f70:	0002bc00 	andeq	fp, r2, r0, lsl #24
     f74:	53000100 	movwpl	r0, #256	; 0x100
     f78:	000002d4 	ldrdeq	r0, [r0], -r4
     f7c:	000002dc 	ldrdeq	r0, [r0], -ip
     f80:	f4530001 			; <UNDEFINED> instruction: 0xf4530001
     f84:	20000002 	andcs	r0, r0, r2
     f88:	01000003 	tsteq	r0, r3
     f8c:	03405300 	movteq	r5, #768	; 0x300
     f90:	03bc0000 			; <UNDEFINED> instruction: 0x03bc0000
     f94:	00010000 	andeq	r0, r1, r0
     f98:	0003bc50 	andeq	fp, r3, r0, asr ip
     f9c:	0003d400 	andeq	sp, r3, r0, lsl #8
     fa0:	30000200 	andcc	r0, r0, r0, lsl #4
     fa4:	0004149f 	muleq	r4, pc, r4	; <UNPREDICTABLE>
     fa8:	00046000 	andeq	r6, r4, r0
     fac:	56000100 	strpl	r0, [r0], -r0, lsl #2
     fb0:	000004d4 	ldrdeq	r0, [r0], -r4
     fb4:	00000510 	andeq	r0, r0, r0, lsl r5
     fb8:	10530001 	subsne	r0, r3, r1
     fbc:	a0000005 	andge	r0, r0, r5
     fc0:	01000005 	tsteq	r0, r5
     fc4:	05a05100 	streq	r5, [r0, #256]!	; 0x100
     fc8:	05c80000 	strbeq	r0, [r8]
     fcc:	00010000 	andeq	r0, r1, r0
     fd0:	0005dc56 	andeq	sp, r5, r6, asr ip
     fd4:	00061000 	andeq	r1, r6, r0
     fd8:	53000100 	movwpl	r0, #256	; 0x100
     fdc:	00000610 	andeq	r0, r0, r0, lsl r6
     fe0:	00000618 	andeq	r0, r0, r8, lsl r6
     fe4:	9f310002 	svcls	0x00310002
     fe8:	00000618 	andeq	r0, r0, r8, lsl r6
     fec:	00000624 	andeq	r0, r0, r4, lsr #12
     ff0:	24510001 	ldrbcs	r0, [r1], #-1
     ff4:	70000006 	andvc	r0, r0, r6
     ff8:	01000006 	tsteq	r0, r6
     ffc:	06705300 	ldrbteq	r5, [r0], -r0, lsl #6
    1000:	06880000 	streq	r0, [r8], r0
    1004:	00030000 	andeq	r0, r3, r0
    1008:	889f0172 	ldmhi	pc, {r1, r4, r5, r6, r8}	; <UNPREDICTABLE>
    100c:	8c000006 	stchi	0, cr0, [r0], {6}
    1010:	01000006 	tsteq	r0, r6
    1014:	068c5200 	streq	r5, [ip], r0, lsl #4
    1018:	06980000 	ldreq	r0, [r8], r0
    101c:	00010000 	andeq	r0, r1, r0
    1020:	00069c53 	andeq	r9, r6, r3, asr ip
    1024:	0006b400 	andeq	fp, r6, r0, lsl #8
    1028:	53000100 	movwpl	r0, #256	; 0x100
    102c:	000006b4 			; <UNDEFINED> instruction: 0x000006b4
    1030:	000006cc 	andeq	r0, r0, ip, asr #13
    1034:	01720003 	cmneq	r2, r3
    1038:	0006cc9f 	muleq	r6, pc, ip	; <UNPREDICTABLE>
    103c:	0006d000 	andeq	sp, r6, r0
    1040:	52000100 	andpl	r0, r0, #0
    1044:	000006d0 	ldrdeq	r0, [r0], -r0	; <UNPREDICTABLE>
    1048:	000006e0 	andeq	r0, r0, r0, ror #13
    104c:	e0530001 	subs	r0, r3, r1
    1050:	5c000006 	stcpl	0, cr0, [r0], {6}
    1054:	01000007 	tsteq	r0, r7
    1058:	00005600 	andeq	r5, r0, r0, lsl #12
	...
    106c:	00000001 	andeq	r0, r0, r1
	...
    1080:	00010000 	andeq	r0, r1, r0
    1084:	00540001 	subseq	r0, r4, r1
    1088:	00ec0000 	rsceq	r0, ip, r0
    108c:	00010000 	andeq	r0, r1, r0
    1090:	0000f052 	andeq	pc, r0, r2, asr r0	; <UNPREDICTABLE>
    1094:	0000f800 	andeq	pc, r0, r0, lsl #16
    1098:	52000100 	andpl	r0, r0, #0
    109c:	000000f8 	strdeq	r0, [r0], -r8
    10a0:	00000124 	andeq	r0, r0, r4, lsr #2
    10a4:	24530001 	ldrbcs	r0, [r3], #-1
    10a8:	38000001 	stmdacc	r0, {r0}
    10ac:	03000001 	movweq	r0, #1
    10b0:	9f017300 	svcls	0x00017300
    10b4:	00000138 	andeq	r0, r0, r8, lsr r1
    10b8:	00000147 	andeq	r0, r0, r7, asr #2
    10bc:	bc530001 	mrrclt	0, 0, r0, r3, cr1
    10c0:	c8000001 	stmdagt	r0, {r0}
    10c4:	02000001 	andeq	r0, r0, #1, 0
    10c8:	189f3000 	ldmne	pc, {ip, sp}	; <UNPREDICTABLE>
    10cc:	1c000002 	stcne	0, cr0, [r0], {2}
    10d0:	01000002 	tsteq	r0, r2
    10d4:	021c5200 	andseq	r5, ip, #0, 4
    10d8:	02280000 	eoreq	r0, r8, #0, 0
    10dc:	000a0000 	andeq	r0, sl, r0
    10e0:	24320073 	ldrtcs	r0, [r2], #-115	; 0xffffff8d
    10e4:	08227c91 	stmdaeq	r2!, {r0, r4, r7, sl, fp, ip, sp, lr}
    10e8:	02281c8c 	eoreq	r1, r8, #140, 24	; 0x8c00
    10ec:	022c0000 	eoreq	r0, ip, #0, 0
    10f0:	000a0000 	andeq	r0, sl, r0
    10f4:	24320073 	ldrtcs	r0, [r2], #-115	; 0xffffff8d
    10f8:	08220070 	stmdaeq	r2!, {r4, r5, r6}
    10fc:	022c1c50 	eoreq	r1, ip, #80, 24	; 0x5000
    1100:	02300000 	eorseq	r0, r0, #0, 0
    1104:	000a0000 	andeq	r0, sl, r0
    1108:	24320073 	ldrtcs	r0, [r2], #-115	; 0xffffff8d
    110c:	08227c91 	stmdaeq	r2!, {r0, r4, r7, sl, fp, ip, sp, lr}
    1110:	02481c8c 	subeq	r1, r8, #140, 24	; 0x8c00
    1114:	025c0000 	subseq	r0, ip, #0, 0
    1118:	00010000 	andeq	r0, r1, r0
    111c:	00025c52 	andeq	r5, r2, r2, asr ip
    1120:	00026000 	andeq	r6, r2, r0
    1124:	73000a00 	movwvc	r0, #2560	; 0xa00
    1128:	91243200 			; <UNDEFINED> instruction: 0x91243200
    112c:	8c08227c 	sfmhi	f2, 4, [r8], {124}	; 0x7c
    1130:	0002601c 	andeq	r6, r2, ip, lsl r0
    1134:	00026400 	andeq	r6, r2, r0, lsl #8
    1138:	73000a00 	movwvc	r0, #2560	; 0xa00
    113c:	71243200 			; <UNDEFINED> instruction: 0x71243200
    1140:	50082200 	andpl	r2, r8, r0, lsl #4
    1144:	0002641c 	andeq	r6, r2, ip, lsl r4
    1148:	00026800 	andeq	r6, r2, r0, lsl #16
    114c:	71000300 	mrsvc	r0, LR_irq
    1150:	02f47fb0 	rscseq	r7, r4, #176, 30	; 0x2c0
    1154:	03440000 	movteq	r0, #16384	; 0x4000
    1158:	00010000 	andeq	r0, r1, r0
    115c:	0003445e 	andeq	r4, r3, lr, asr r4
    1160:	00037000 	andeq	r7, r3, r0
    1164:	53000100 	movwpl	r0, #256	; 0x100
    1168:	000003ac 	andeq	r0, r0, ip, lsr #7
    116c:	000003b8 			; <UNDEFINED> instruction: 0x000003b8
    1170:	9f300002 	svcls	0x00300002
    1174:	000003bc 			; <UNDEFINED> instruction: 0x000003bc
    1178:	000003d4 	ldrdeq	r0, [r0], -r4
    117c:	00560001 	subseq	r0, r6, r1
	...
    1188:	20000000 	andcs	r0, r0, r0
    118c:	bc000003 	stclt	0, cr0, [r0], {3}
    1190:	01000003 	tsteq	r0, r3
    1194:	05105c00 	ldreq	r5, [r0, #-3072]	; 0xfffff400
    1198:	054c0000 	strbeq	r0, [ip, #-0]
    119c:	00010000 	andeq	r0, r1, r0
    11a0:	00000053 	andeq	r0, r0, r3, asr r0
	...
    11ac:	00005800 	andeq	r5, r0, r0, lsl #16
    11b0:	0000a400 	andeq	sl, r0, r0, lsl #8
    11b4:	50000100 	andpl	r0, r0, r0, lsl #2
    11b8:	000000a4 	andeq	r0, r0, r4, lsr #1
    11bc:	0000075c 	andeq	r0, r0, ip, asr r7
    11c0:	00770006 	rsbseq	r0, r7, r6
    11c4:	9f220074 	svcls	0x00220074
	...
    11d0:	00500000 	subseq	r0, r0, r0
    11d4:	075c0000 	ldrbeq	r0, [ip, -r0]
    11d8:	00010000 	andeq	r0, r1, r0
    11dc:	0000005a 	andeq	r0, r0, sl, asr r0
    11e0:	00000000 	andeq	r0, r0, r0
    11e4:	00000100 	andeq	r0, r0, r0, lsl #2
    11e8:	00000000 	andeq	r0, r0, r0
    11ec:	6c000000 	stcvs	0, cr0, [r0], {-0}
    11f0:	a8000001 	stmdage	r0, {r0}
    11f4:	02000001 	andeq	r0, r0, #1, 0
    11f8:	a89f3000 	ldmge	pc, {ip, sp}	; <UNPREDICTABLE>
    11fc:	b0000001 	andlt	r0, r0, r1
    1200:	01000001 	tsteq	r0, r1
    1204:	01c85900 	biceq	r5, r8, r0, lsl #18
    1208:	01e40000 	mvneq	r0, r0
    120c:	00020000 	andeq	r0, r2, r0
    1210:	01e49f30 	mvneq	r9, r0, lsr pc
    1214:	01e80000 	mvneq	r0, r0
    1218:	00010000 	andeq	r0, r1, r0
    121c:	0001e859 	andeq	lr, r1, r9, asr r8
    1220:	00020000 	andeq	r0, r2, r0
    1224:	30000200 	andcc	r0, r0, r0, lsl #4
    1228:	0000009f 	muleq	r0, pc, r0	; <UNPREDICTABLE>
	...
    1240:	0000f800 	andeq	pc, r0, r0, lsl #16
    1244:	00011000 	andeq	r1, r1, r0
    1248:	90000800 	andls	r0, r0, r0, lsl #16
    124c:	90049340 	andls	r9, r4, r0, asr #6
    1250:	34049341 	strcc	r9, [r4], #-833	; 0xfffffcbf
    1254:	47000001 	strmi	r0, [r0, -r1]
    1258:	08000001 	stmdaeq	r0, {r0}
    125c:	93409000 	movtls	r9, #0
    1260:	93419004 	movtls	r9, #4100	; 0x1004
    1264:	00014c04 	andeq	r4, r1, r4, lsl #24
    1268:	00015000 	andeq	r5, r1, r0
    126c:	90000800 	andls	r0, r0, r0, lsl #16
    1270:	90049340 	andls	r9, r4, r0, asr #6
    1274:	50049341 	andpl	r9, r4, r1, asr #6
    1278:	bc000001 	stclt	0, cr0, [r0], {1}
    127c:	08000003 	stmdaeq	r0, {r0, r1}
    1280:	93509000 	cmpls	r0, #0, 0
    1284:	93519004 	cmpls	r1, #4, 0
    1288:	0003c804 	andeq	ip, r3, r4, lsl #16
    128c:	0003d400 	andeq	sp, r3, r0, lsl #8
    1290:	90000800 	andls	r0, r0, r0, lsl #16
    1294:	90049340 	andls	r9, r4, r0, asr #6
    1298:	d4049341 	strle	r9, [r4], #-833	; 0xfffffcbf
    129c:	08000003 	stmdaeq	r0, {r0, r1}
    12a0:	08000004 	stmdaeq	r0, {r2}
    12a4:	93509000 	cmpls	r0, #0, 0
    12a8:	93519004 	cmpls	r1, #4, 0
    12ac:	00046004 	andeq	r6, r4, r4
    12b0:	00047000 	andeq	r7, r4, r0
    12b4:	90000800 	andls	r0, r0, r0, lsl #16
    12b8:	90049350 	andls	r9, r4, r0, asr r3
    12bc:	70049351 	andvc	r9, r4, r1, asr r3
    12c0:	d4000004 	strle	r0, [r0], #-4
    12c4:	08000004 	stmdaeq	r0, {r2}
    12c8:	93409000 	movtls	r9, #0
    12cc:	93419004 	movtls	r9, #4100	; 0x1004
    12d0:	00000004 	andeq	r0, r0, r4
	...
    12dc:	01000000 	mrseq	r0, (UNDEF: 0)
	...
    12f8:	0000a400 	andeq	sl, r0, r0, lsl #8
    12fc:	0000e000 	andeq	lr, r0, r0
    1300:	90000800 	andls	r0, r0, r0, lsl #16
    1304:	9004934e 	andls	r9, r4, lr, asr #6
    1308:	0804934f 	stmdaeq	r4, {r0, r1, r2, r3, r6, r8, r9, ip, pc}
    130c:	38000001 	stmdacc	r0, {r0}
    1310:	08000001 	stmdaeq	r0, {r0}
    1314:	934e9000 	movtls	r9, #57344	; 0xe000
    1318:	934f9004 	movtls	r9, #61444	; 0xf004
    131c:	00034404 	andeq	r4, r3, r4, lsl #8
    1320:	00037c00 	andeq	r7, r3, r0, lsl #24
    1324:	90000800 	andls	r0, r0, r0, lsl #16
    1328:	9004934e 	andls	r9, r4, lr, asr #6
    132c:	ac04934f 	stcge	3, cr9, [r4], {79}	; 0x4f
    1330:	b8000003 	stmdalt	r0, {r0, r1}
    1334:	0a000003 	beq	1348 <__code_start__-0x6cb8>
    1338:	00089e00 	andeq	r9, r8, r0, lsl #28
    133c:	00000000 	andeq	r0, r0, r0
    1340:	14000000 	strne	r0, [r0], #-0
    1344:	60000004 	andvs	r0, r0, r4
    1348:	08000004 	stmdaeq	r0, {r2}
    134c:	93409000 	movtls	r9, #0
    1350:	93419004 	movtls	r9, #4100	; 0x1004
    1354:	00049004 	andeq	r9, r4, r4
    1358:	0004c000 	andeq	ip, r4, r0
    135c:	90000800 	andls	r0, r0, r0, lsl #16
    1360:	90049348 	andls	r9, r4, r8, asr #6
    1364:	d4049349 	strle	r9, [r4], #-841	; 0xfffffcb7
    1368:	10000004 	andne	r0, r0, r4
    136c:	08000005 	stmdaeq	r0, {r0, r2}
    1370:	93409000 	movtls	r9, #0
    1374:	93419004 	movtls	r9, #4100	; 0x1004
    1378:	00051004 	andeq	r1, r5, r4
    137c:	00055c00 	andeq	r5, r5, r0, lsl #24
    1380:	90000800 	andls	r0, r0, r0, lsl #16
    1384:	9004934e 	andls	r9, r4, lr, asr #6
    1388:	a004934f 	andge	r9, r4, pc, asr #6
    138c:	c4000005 	strgt	r0, [r0], #-5
    1390:	08000005 	stmdaeq	r0, {r0, r2}
    1394:	934e9000 	movtls	r9, #57344	; 0xe000
    1398:	934f9004 	movtls	r9, #61444	; 0xf004
    139c:	0005dc04 	andeq	sp, r5, r4, lsl #24
    13a0:	00061000 	andeq	r1, r6, r0
    13a4:	90000800 	andls	r0, r0, r0, lsl #16
    13a8:	9004934c 	andls	r9, r4, ip, asr #6
    13ac:	1004934d 	andne	r9, r4, sp, asr #6
    13b0:	18000006 	stmdane	r0, {r1, r2}
    13b4:	08000006 	stmdaeq	r0, {r1, r2}
    13b8:	934e9000 	movtls	r9, #57344	; 0xe000
    13bc:	934f9004 	movtls	r9, #61444	; 0xf004
    13c0:	00062404 	andeq	r2, r6, r4, lsl #8
    13c4:	00062c00 	andeq	r2, r6, r0, lsl #24
    13c8:	90000800 	andls	r0, r0, r0, lsl #16
    13cc:	9004934c 	andls	r9, r4, ip, asr #6
    13d0:	2c04934d 	stccs	3, cr9, [r4], {77}	; 0x4d
    13d4:	50000006 	andpl	r0, r0, r6
    13d8:	08000006 	stmdaeq	r0, {r1, r2}
    13dc:	934e9000 	movtls	r9, #57344	; 0xe000
    13e0:	934f9004 	movtls	r9, #61444	; 0xf004
    13e4:	00067804 	andeq	r7, r6, r4, lsl #16
    13e8:	00068c00 	andeq	r8, r6, r0, lsl #24
    13ec:	90000800 	andls	r0, r0, r0, lsl #16
    13f0:	9004934a 	andls	r9, r4, sl, asr #6
    13f4:	bc04934b 	stclt	3, cr9, [r4], {75}	; 0x4b
    13f8:	d0000006 	andle	r0, r0, r6
    13fc:	08000006 	stmdaeq	r0, {r1, r2}
    1400:	934a9000 	movtls	r9, #40960	; 0xa000
    1404:	934b9004 	movtls	r9, #45060	; 0xb004
    1408:	0006e004 	andeq	lr, r6, r4
    140c:	00073800 	andeq	r3, r7, r0, lsl #16
    1410:	90000800 	andls	r0, r0, r0, lsl #16
    1414:	9004934e 	andls	r9, r4, lr, asr #6
    1418:	0004934f 	andeq	r9, r4, pc, asr #6
	...
    142c:	00030000 	andeq	r0, r3, r0
	...
    1438:	44000000 	strmi	r0, [r0], #-0
    143c:	08000000 	stmdaeq	r0, {}	; <UNPREDICTABLE>
    1440:	93409000 	movtls	r9, #0
    1444:	93419004 	movtls	r9, #4100	; 0x1004
    1448:	00004404 	andeq	r4, r0, r4, lsl #8
    144c:	00006400 	andeq	r6, r0, r0, lsl #8
    1450:	90000800 	andls	r0, r0, r0, lsl #16
    1454:	9004934e 	andls	r9, r4, lr, asr #6
    1458:	6404934f 	strvs	r9, [r4], #-847	; 0xfffffcb1
    145c:	b4000000 	strlt	r0, [r0], #-0
    1460:	02000000 	andeq	r0, r0, #0, 0
    1464:	b4007d00 	strlt	r7, [r0], #-3328	; 0xfffff300
    1468:	c0000000 	andgt	r0, r0, r0
    146c:	08000000 	stmdaeq	r0, {}	; <UNPREDICTABLE>
    1470:	934e9000 	movtls	r9, #57344	; 0xe000
    1474:	934f9004 	movtls	r9, #61444	; 0xf004
    1478:	0000c004 	andeq	ip, r0, r4
    147c:	0000f800 	andeq	pc, r0, r0, lsl #16
    1480:	7d000200 	sfmvc	f0, 4, [r0, #-0]
    1484:	0000f800 	andeq	pc, r0, r0, lsl #16
    1488:	0000f800 	andeq	pc, r0, r0, lsl #16
    148c:	50000600 	andpl	r0, r0, r0, lsl #12
    1490:	93510493 	cmpls	r1, #-1828716544	; 0x93000000
    1494:	00010404 	andeq	r0, r1, r4, lsl #8
    1498:	00013400 	andeq	r3, r1, r0, lsl #8
    149c:	7d000200 	sfmvc	f0, 4, [r0, #-0]
    14a0:	00013400 	andeq	r3, r1, r0, lsl #8
    14a4:	00014000 	andeq	r4, r1, r0
    14a8:	50000600 	andpl	r0, r0, r0, lsl #12
    14ac:	93510493 	cmpls	r1, #-1828716544	; 0x93000000
    14b0:	00014004 	andeq	r4, r1, r4
    14b4:	00014400 	andeq	r4, r1, r0, lsl #8
    14b8:	90000800 	andls	r0, r0, r0, lsl #16
    14bc:	90049340 	andls	r9, r4, r0, asr #6
    14c0:	44049341 	strmi	r9, [r4], #-833	; 0xfffffcbf
    14c4:	78000001 	stmdavc	r0, {r0}
    14c8:	02000001 	andeq	r0, r0, #1, 0
    14cc:	00007d00 	andeq	r7, r0, r0, lsl #26
	...
    14f0:	0000ab00 	andeq	sl, r0, r0, lsl #22
    14f4:	50000100 	andpl	r0, r0, r0, lsl #2
    14f8:	000000ab 	andeq	r0, r0, fp, lsr #1
    14fc:	000000b4 	strheq	r0, [r0], -r4
    1500:	01f30004 	mvnseq	r0, r4
    1504:	00b49f50 	adcseq	r9, r4, r0, asr pc
    1508:	00db0000 	sbcseq	r0, fp, r0
    150c:	00010000 	andeq	r0, r1, r0
    1510:	0000db50 	andeq	sp, r0, r0, asr fp
    1514:	0000e400 	andeq	lr, r0, r0, lsl #8
    1518:	f3000400 	vshl.u8	d0, d0, d0
    151c:	e49f5001 	ldr	r5, [pc], #1	; 1524 <__code_start__-0x6adc>
    1520:	e8000000 	stmda	r0, {}	; <UNPREDICTABLE>
    1524:	01000000 	mrseq	r0, (UNDEF: 0)
    1528:	00e85000 	rsceq	r5, r8, r0
    152c:	01040000 	mrseq	r0, (UNDEF: 4)
    1530:	00040000 	andeq	r0, r4, r0
    1534:	9f5001f3 	svcls	0x005001f3
    1538:	00000104 	andeq	r0, r0, r4, lsl #2
    153c:	00000113 	andeq	r0, r0, r3, lsl r1
    1540:	13500001 	cmpne	r0, #1, 0
    1544:	1c000001 	stcne	0, cr0, [r0], {1}
    1548:	04000001 	streq	r0, [r0], #-1
    154c:	5001f300 	andpl	pc, r1, r0, lsl #6
    1550:	00011c9f 	muleq	r1, pc, ip	; <UNPREDICTABLE>
    1554:	00012400 	andeq	r2, r1, r0, lsl #8
    1558:	50000100 	andpl	r0, r0, r0, lsl #2
    155c:	00000124 	andeq	r0, r0, r4, lsr #2
    1560:	00000140 	andeq	r0, r0, r0, asr #2
    1564:	01f30004 	mvnseq	r0, r4
    1568:	01409f50 	cmpeq	r0, r0, asr pc
    156c:	01780000 	cmneq	r8, r0
    1570:	00010000 	andeq	r0, r1, r0
    1574:	00000050 	andeq	r0, r0, r0, asr r0
	...
    1584:	00030000 	andeq	r0, r3, r0
    1588:	24000000 	strcs	r0, [r0], #-0
    158c:	34000000 	strcc	r0, [r0], #-0
    1590:	01000000 	mrseq	r0, (UNDEF: 0)
    1594:	00345300 	eorseq	r5, r4, r0, lsl #6
    1598:	00440000 	subeq	r0, r4, r0
    159c:	000a0000 	andeq	r0, sl, r0
    15a0:	44066491 	strmi	r6, [r6], #-1169	; 0xfffffb6f
    15a4:	45244526 	strmi	r4, [r4, #-1318]!	; 0xfffffada
    15a8:	00589f25 	subseq	r9, r8, r5, lsr #30
    15ac:	00940000 	addseq	r0, r4, r0
    15b0:	00010000 	andeq	r0, r1, r0
    15b4:	0000b453 	andeq	fp, r0, r3, asr r4
    15b8:	0000db00 	andeq	sp, r0, r0, lsl #22
    15bc:	53000100 	movwpl	r0, #256	; 0x100
    15c0:	000000e4 	andeq	r0, r0, r4, ror #1
    15c4:	000000f8 	strdeq	r0, [r0], -r8
    15c8:	1c530001 	mrrcne	0, 0, r0, r3, cr1
    15cc:	40000001 	andmi	r0, r0, r1
    15d0:	01000001 	tsteq	r0, r1
    15d4:	01405300 	mrseq	r5, SPSR_irq
    15d8:	01780000 	cmneq	r8, r0
    15dc:	000a0000 	andeq	r0, sl, r0
    15e0:	44066491 	strmi	r6, [r6], #-1169	; 0xfffffb6f
    15e4:	45244526 	strmi	r4, [r4, #-1318]!	; 0xfffffada
    15e8:	00009f25 	andeq	r9, r0, r5, lsr #30
	...
    1608:	00140000 	andseq	r0, r4, r0
    160c:	00300000 	eorseq	r0, r0, r0
    1610:	00010000 	andeq	r0, r1, r0
    1614:	00003052 	andeq	r3, r0, r2, asr r0
    1618:	00004400 	andeq	r4, r0, r0, lsl #8
    161c:	91000200 	mrsls	r0, R8_usr
    1620:	00004864 	andeq	r4, r0, r4, ror #16
    1624:	0000ab00 	andeq	sl, r0, r0, lsl #22
    1628:	52000100 	andpl	r0, r0, #0
    162c:	000000ab 	andeq	r0, r0, fp, lsr #1
    1630:	000000b4 	strheq	r0, [r0], -r4
    1634:	64910002 	ldrvs	r0, [r1], #2
    1638:	000000b4 	strheq	r0, [r0], -r4
    163c:	000000db 	ldrdeq	r0, [r0], -fp
    1640:	db520001 	blle	148164c <__bss_end__+0x1476d34>
    1644:	e4000000 	str	r0, [r0], #-0
    1648:	02000000 	andeq	r0, r0, #0, 0
    164c:	e4649100 	strbt	r9, [r4], #-256	; 0xffffff00
    1650:	ec000000 	stc	0, cr0, [r0], {-0}
    1654:	01000000 	mrseq	r0, (UNDEF: 0)
    1658:	00ec5200 	rsceq	r5, ip, r0, lsl #4
    165c:	01040000 	mrseq	r0, (UNDEF: 4)
    1660:	00020000 	andeq	r0, r2, r0
    1664:	01046491 			; <UNDEFINED> instruction: 0x01046491
    1668:	01130000 	tsteq	r3, r0
    166c:	00010000 	andeq	r0, r1, r0
    1670:	00011352 	andeq	r1, r1, r2, asr r3
    1674:	00011c00 	andeq	r1, r1, r0, lsl #24
    1678:	91000200 	mrsls	r0, R8_usr
    167c:	00011c64 	andeq	r1, r1, r4, ror #24
    1680:	00012800 	andeq	r2, r1, r0, lsl #16
    1684:	52000100 	andpl	r0, r0, #0
    1688:	00000128 	andeq	r0, r0, r8, lsr #2
    168c:	00000178 	andeq	r0, r0, r8, ror r1
    1690:	64910002 	ldrvs	r0, [r1], #2
	...
    16a0:	00000018 	andeq	r0, r0, r8, lsl r0
    16a4:	0000005c 	andeq	r0, r0, ip, asr r0
    16a8:	40510001 	subsmi	r0, r1, r1
    16ac:	78000001 	stmdavc	r0, {r0}
    16b0:	01000001 	tsteq	r0, r1
    16b4:	00005100 	andeq	r5, r0, r0, lsl #2
    16b8:	00000000 	andeq	r0, r0, r0
    16bc:	00010000 	andeq	r0, r1, r0
    16c0:	000000f4 	strdeq	r0, [r0], -r4
    16c4:	00000104 	andeq	r0, r0, r4, lsl #2
    16c8:	93500006 	cmpls	r0, #6, 0
    16cc:	04935104 	ldreq	r5, [r3], #260	; 0x104
	...
    16d8:	00010003 	andeq	r0, r1, r3
    16dc:	000000f8 	strdeq	r0, [r0], -r8
    16e0:	00000104 	andeq	r0, r0, r4, lsl #2
    16e4:	93500006 	cmpls	r0, #6, 0
    16e8:	04935104 	ldreq	r5, [r3], #260	; 0x104
    16ec:	00000130 	andeq	r0, r0, r0, lsr r1
    16f0:	00000140 	andeq	r0, r0, r0, asr #2
    16f4:	93500006 	cmpls	r0, #6, 0
    16f8:	04935104 	ldreq	r5, [r3], #260	; 0x104
	...
    1704:	03000000 	movweq	r0, #0
	...
    171c:	00000088 	andeq	r0, r0, r8, lsl #1
    1720:	40900008 	addsmi	r0, r0, r8
    1724:	41900493 			; <UNDEFINED> instruction: 0x41900493
    1728:	00880493 	umulleq	r0, r8, r3, r4
    172c:	00880000 	addeq	r0, r8, r0
    1730:	00060000 	andeq	r0, r6, r0
    1734:	53049352 	movwpl	r9, #17234	; 0x4352
    1738:	00900493 	umullseq	r0, r0, r3, r4	; <UNPREDICTABLE>
    173c:	00e40000 	rsceq	r0, r4, r0
    1740:	00080000 	andeq	r0, r8, r0
    1744:	04934090 	ldreq	r4, [r3], #144	; 0x90
    1748:	04934190 	ldreq	r4, [r3], #400	; 0x190
    174c:	000000e4 	andeq	r0, r0, r4, ror #1
    1750:	000000e8 	andeq	r0, r0, r8, ror #1
    1754:	007d0002 	rsbseq	r0, sp, r2
    1758:	000000e8 	andeq	r0, r0, r8, ror #1
    175c:	000000f0 	strdeq	r0, [r0], -r0	; <UNPREDICTABLE>
    1760:	40900008 	addsmi	r0, r0, r8
    1764:	41900493 			; <UNDEFINED> instruction: 0x41900493
    1768:	00f00493 	smlalseq	r0, r0, r3, r4	; <UNPREDICTABLE>
    176c:	00f40000 	rscseq	r0, r4, r0
    1770:	00020000 	andeq	r0, r2, r0
    1774:	00f4007d 	rscseq	r0, r4, sp, ror r0
    1778:	01600000 	cmneq	r0, r0
    177c:	00080000 	andeq	r0, r8, r0
    1780:	04934090 	ldreq	r4, [r3], #144	; 0x90
    1784:	04934190 	ldreq	r4, [r3], #400	; 0x190
    1788:	00000160 	andeq	r0, r0, r0, ror #2
    178c:	00000164 	andeq	r0, r0, r4, ror #2
    1790:	007d0002 	rsbseq	r0, sp, r2
    1794:	00000164 	andeq	r0, r0, r4, ror #2
    1798:	00000168 	andeq	r0, r0, r8, ror #2
    179c:	40900008 	addsmi	r0, r0, r8
    17a0:	41900493 			; <UNDEFINED> instruction: 0x41900493
    17a4:	01680493 			; <UNDEFINED> instruction: 0x01680493
    17a8:	01800000 	orreq	r0, r0, r0
    17ac:	00020000 	andeq	r0, r2, r0
    17b0:	0000007d 	andeq	r0, r0, sp, ror r0
	...
    17d4:	00140000 	andseq	r0, r4, r0
    17d8:	00740000 	rsbseq	r0, r4, r0
    17dc:	00010000 	andeq	r0, r1, r0
    17e0:	00007451 	andeq	r7, r0, r1, asr r4
    17e4:	00009000 	andeq	r9, r0, r0
    17e8:	5e000100 	adfpls	f0, f0, f0
    17ec:	00000090 	muleq	r0, r0, r0
    17f0:	000000b8 	strheq	r0, [r0], -r8
    17f4:	b8510001 	ldmdalt	r1, {r0}^
    17f8:	c4000000 	strgt	r0, [r0], #-0
    17fc:	01000000 	mrseq	r0, (UNDEF: 0)
    1800:	00c45e00 	sbceq	r5, r4, r0, lsl #28
    1804:	00c80000 	sbceq	r0, r8, r0
    1808:	00020000 	andeq	r0, r2, r0
    180c:	00c86c91 	smulleq	r6, r8, r1, ip
    1810:	00d00000 	sbcseq	r0, r0, r0
    1814:	00010000 	andeq	r0, r1, r0
    1818:	0000d051 	andeq	sp, r0, r1, asr r0
    181c:	0000d400 	andeq	sp, r0, r0, lsl #8
    1820:	5e000100 	adfpls	f0, f0, f0
    1824:	000000d4 	ldrdeq	r0, [r0], -r4
    1828:	0000012c 	andeq	r0, r0, ip, lsr #2
    182c:	2c510001 	mrrccs	0, 0, r0, r1, cr1
    1830:	34000001 	strcc	r0, [r0], #-1
    1834:	01000001 	tsteq	r0, r1
    1838:	01345e00 	teqeq	r4, r0, lsl #28
    183c:	01500000 	cmpeq	r0, r0
    1840:	00010000 	andeq	r0, r1, r0
    1844:	00015051 	andeq	r5, r1, r1, asr r0
    1848:	00015400 	andeq	r5, r1, r0, lsl #8
    184c:	5e000100 	adfpls	f0, f0, f0
    1850:	00000154 	andeq	r0, r0, r4, asr r1
    1854:	00000158 	andeq	r0, r0, r8, asr r1
    1858:	58510001 	ldmdapl	r1, {r0}^
    185c:	5c000001 	stcpl	0, cr0, [r0], {1}
    1860:	01000001 	tsteq	r0, r1
    1864:	015c5e00 	cmpeq	ip, r0, lsl #28
    1868:	01800000 	orreq	r0, r0, r0
    186c:	00010000 	andeq	r0, r1, r0
    1870:	00000051 	andeq	r0, r0, r1, asr r0
	...
    187c:	00000101 	andeq	r0, r0, r1, lsl #2
	...
    188c:	1c000000 	stcne	0, cr0, [r0], {-0}
    1890:	50000000 	andpl	r0, r0, r0
    1894:	01000000 	mrseq	r0, (UNDEF: 0)
    1898:	00505000 	subseq	r5, r0, r0
    189c:	00780000 	rsbseq	r0, r8, r0
    18a0:	00010000 	andeq	r0, r1, r0
    18a4:	0000785c 	andeq	r7, r0, ip, asr r8
    18a8:	00007c00 	andeq	r7, r0, r0, lsl #24
    18ac:	30000200 	andcc	r0, r0, r0, lsl #4
    18b0:	00007c9f 	muleq	r0, pc, ip	; <UNPREDICTABLE>
    18b4:	00009000 	andeq	r9, r0, r0
    18b8:	5c000100 	stfpls	f0, [r0], {-0}
    18bc:	00000090 	muleq	r0, r0, r0
    18c0:	000000c8 	andeq	r0, r0, r8, asr #1
    18c4:	c8500001 	ldmdagt	r0, {r0}^
    18c8:	d4000000 	strle	r0, [r0], #-0
    18cc:	01000000 	mrseq	r0, (UNDEF: 0)
    18d0:	00d45c00 	sbcseq	r5, r4, r0, lsl #24
    18d4:	012c0000 			; <UNDEFINED> instruction: 0x012c0000
    18d8:	00010000 	andeq	r0, r1, r0
    18dc:	00012c50 	andeq	r2, r1, r0, asr ip
    18e0:	00013400 	andeq	r3, r1, r0, lsl #8
    18e4:	5c000100 	stfpls	f0, [r0], {-0}
    18e8:	00000134 	andeq	r0, r0, r4, lsr r1
    18ec:	0000015c 	andeq	r0, r0, ip, asr r1
    18f0:	5c500001 	mrrcpl	0, 0, r0, r0, cr1	; <UNPREDICTABLE>
    18f4:	64000001 	strvs	r0, [r0], #-1
    18f8:	01000001 	tsteq	r0, r1
    18fc:	01645c00 	cmneq	r4, r0, lsl #24
    1900:	01800000 	orreq	r0, r0, r0
    1904:	00010000 	andeq	r0, r1, r0
    1908:	00000050 	andeq	r0, r0, r0, asr r0
	...
    191c:	30000000 	andcc	r0, r0, r0
    1920:	7c000000 	stcvc	0, cr0, [r0], {-0}
    1924:	01000000 	mrseq	r0, (UNDEF: 0)
    1928:	007c5200 	rsbseq	r5, ip, r0, lsl #4
    192c:	00900000 	addseq	r0, r0, r0
    1930:	000e0000 	andeq	r0, lr, r0
    1934:	44066c91 	strmi	r6, [r6], #-3217	; 0xfffff36f
    1938:	45244526 	strmi	r4, [r4, #-1318]!	; 0xfffffada
    193c:	03ff0a25 	mvnseq	r0, #151552	; 0x25000
    1940:	00909f1c 	addseq	r9, r0, ip, lsl pc
    1944:	012c0000 			; <UNDEFINED> instruction: 0x012c0000
    1948:	00010000 	andeq	r0, r1, r0
    194c:	00012c52 	andeq	r2, r1, r2, asr ip
    1950:	00013400 	andeq	r3, r1, r0, lsl #8
    1954:	71000d00 	tstvc	r0, r0, lsl #26
    1958:	45264400 	strmi	r4, [r6, #-1024]!	; 0xfffffc00
    195c:	0a254524 	beq	952df4 <__bss_end__+0x9484dc>
    1960:	9f1c03ff 	svcls	0x001c03ff
    1964:	00000134 	andeq	r0, r0, r4, lsr r1
    1968:	00000140 	andeq	r0, r0, r0, asr #2
    196c:	40520001 	subsmi	r0, r2, r1
    1970:	54000001 	strpl	r0, [r0], #-1
    1974:	0d000001 	stceq	0, cr0, [r0, #-4]
    1978:	44007100 	strmi	r7, [r0], #-256	; 0xffffff00
    197c:	45244526 	strmi	r4, [r4, #-1318]!	; 0xfffffada
    1980:	03ff0a25 	mvnseq	r0, #151552	; 0x25000
    1984:	01549f1c 	cmpeq	r4, ip, lsl pc
    1988:	01800000 	orreq	r0, r0, r0
    198c:	00010000 	andeq	r0, r1, r0
    1990:	00000052 	andeq	r0, r0, r2, asr r0
	...
    199c:	48000000 	stmdami	r0, {}	; <UNPREDICTABLE>
    19a0:	7c000000 	stcvc	0, cr0, [r0], {-0}
    19a4:	01000000 	mrseq	r0, (UNDEF: 0)
    19a8:	00c85300 	sbceq	r5, r8, r0, lsl #6
    19ac:	00d40000 	sbcseq	r0, r4, r0
    19b0:	00010000 	andeq	r0, r1, r0
    19b4:	00010453 	andeq	r0, r1, r3, asr r4
    19b8:	00018000 	andeq	r8, r1, r0
    19bc:	53000100 	movwpl	r0, #256	; 0x100
	...
    19c8:	01480000 	mrseq	r0, (UNDEF: 72)
    19cc:	01540000 	cmpeq	r4, r0
    19d0:	00010000 	andeq	r0, r1, r0
    19d4:	0000005c 	andeq	r0, r0, ip, asr r0
    19d8:	00000000 	andeq	r0, r0, r0
    19dc:	84000100 	strhi	r0, [r0], #-256	; 0xffffff00
    19e0:	90000000 	andls	r0, r0, r0
    19e4:	06000000 	streq	r0, [r0], -r0
    19e8:	04935200 	ldreq	r5, [r3], #512	; 0x200
    19ec:	00049353 	andeq	r9, r4, r3, asr r3
	...
    19fc:	24000000 	strcs	r0, [r0], #-0
    1a00:	08000000 	stmdaeq	r0, {}	; <UNPREDICTABLE>
    1a04:	93409000 	movtls	r9, #0
    1a08:	93419004 	movtls	r9, #4100	; 0x1004
    1a0c:	00002404 	andeq	r2, r0, r4, lsl #8
    1a10:	00002c00 	andeq	r2, r0, r0, lsl #24
    1a14:	52000600 	andpl	r0, r0, #0, 12
    1a18:	93530493 	cmpls	r3, #-1828716544	; 0x93000000
    1a1c:	00000004 	andeq	r0, r0, r4
    1a20:	00000000 	andeq	r0, r0, r0
    1a24:	20000100 	andcs	r0, r0, r0, lsl #2
    1a28:	2c000000 	stccs	0, cr0, [r0], {-0}
    1a2c:	06000000 	streq	r0, [r0], -r0
    1a30:	04935200 	ldreq	r5, [r3], #512	; 0x200
    1a34:	00049353 	andeq	r9, r4, r3, asr r3
	...
    1a4c:	43000000 	movwmi	r0, #0
    1a50:	08000000 	stmdaeq	r0, {}	; <UNPREDICTABLE>
    1a54:	93409000 	movtls	r9, #0
    1a58:	93419004 	movtls	r9, #4100	; 0x1004
    1a5c:	00004304 	andeq	r4, r0, r4, lsl #6
    1a60:	00004c00 	andeq	r4, r0, r0, lsl #24
    1a64:	f3000600 	vmax.u8	d0, d0, d0
    1a68:	2540f503 	strbcs	pc, [r0, #-1283]	; 0xfffffafd	; <UNPREDICTABLE>
    1a6c:	00004c9f 	muleq	r0, pc, ip	; <UNPREDICTABLE>
    1a70:	00005800 	andeq	r5, r0, r0, lsl #16
    1a74:	90000800 	andls	r0, r0, r0, lsl #16
    1a78:	90049340 	andls	r9, r4, r0, asr #6
    1a7c:	58049341 	stmdapl	r4, {r0, r6, r8, r9, ip, pc}
    1a80:	5c000000 	stcpl	0, cr0, [r0], {-0}
    1a84:	06000000 	streq	r0, [r0], -r0
    1a88:	f503f300 			; <UNDEFINED> instruction: 0xf503f300
    1a8c:	5c9f2540 	cfldr32pl	mvfx2, [pc], {64}	; 0x40
    1a90:	63000000 	movwvs	r0, #0
    1a94:	08000000 	stmdaeq	r0, {}	; <UNPREDICTABLE>
    1a98:	93409000 	movtls	r9, #0
    1a9c:	93419004 	movtls	r9, #4100	; 0x1004
    1aa0:	00006304 	andeq	r6, r0, r4, lsl #6
    1aa4:	0000e400 	andeq	lr, r0, r0, lsl #8
    1aa8:	f3000600 	vmax.u8	d0, d0, d0
    1aac:	2540f503 	strbcs	pc, [r0, #-1283]	; 0xfffffafd	; <UNPREDICTABLE>
    1ab0:	0000009f 	muleq	r0, pc, r0	; <UNPREDICTABLE>
    1ab4:	00000000 	andeq	r0, r0, r0
    1ab8:	64000000 	strvs	r0, [r0], #-0
    1abc:	68000000 	stmdavs	r0, {}	; <UNPREDICTABLE>
    1ac0:	01000000 	mrseq	r0, (UNDEF: 0)
    1ac4:	00005000 	andeq	r5, r0, r0
	...
    1ad4:	0000000c 	andeq	r0, r0, ip
    1ad8:	00000030 	andeq	r0, r0, r0, lsr r0
    1adc:	30530001 	subscc	r0, r3, r1
    1ae0:	43000000 	movwmi	r0, #0
    1ae4:	0a000000 	beq	1aec <__code_start__-0x6514>
    1ae8:	00419200 	subeq	r9, r1, r0, lsl #4
    1aec:	ffffff0c 			; <UNDEFINED> instruction: 0xffffff0c
    1af0:	4c9f1a7f 	vldmiami	pc, {s2-s128}
    1af4:	63000000 	movwvs	r0, #0
    1af8:	01000000 	mrseq	r0, (UNDEF: 0)
    1afc:	00005300 	andeq	r5, r0, r0, lsl #6
	...
    1b0c:	0000002c 	andeq	r0, r0, ip, lsr #32
    1b10:	00000038 	andeq	r0, r0, r8, lsr r0
    1b14:	38500001 	ldmdacc	r0, {r0}^
    1b18:	48000000 	stmdami	r0, {}	; <UNPREDICTABLE>
    1b1c:	01000000 	mrseq	r0, (UNDEF: 0)
    1b20:	00485400 	subeq	r5, r8, r0, lsl #8
    1b24:	00580000 	subseq	r0, r8, r0
    1b28:	00010000 	andeq	r0, r1, r0
    1b2c:	00000050 	andeq	r0, r0, r0, asr r0
    1b30:	00000000 	andeq	r0, r0, r0
    1b34:	01010000 	mrseq	r0, (UNDEF: 1)
    1b38:	00000000 	andeq	r0, r0, r0
    1b3c:	00000800 	andeq	r0, r0, r0, lsl #16
    1b40:	50000100 	andpl	r0, r0, r0, lsl #2
    1b44:	00000008 	andeq	r0, r0, r8
    1b48:	00000034 	andeq	r0, r0, r4, lsr r0
    1b4c:	00540001 	subseq	r0, r4, r1
	...
    1b60:	0002f800 	andeq	pc, r2, r0, lsl #16
    1b64:	00032f00 	andeq	r2, r3, r0, lsl #30
    1b68:	50000100 	andpl	r0, r0, r0, lsl #2
    1b6c:	0000032f 	andeq	r0, r0, pc, lsr #6
    1b70:	0000039c 	muleq	r0, ip, r3
    1b74:	9c560001 	mrrcls	0, 0, r0, r6, cr1
    1b78:	b0000003 	andlt	r0, r0, r3
    1b7c:	01000003 	tsteq	r0, r3
    1b80:	03b05000 	movseq	r5, #0, 0
    1b84:	03fc0000 	mvnseq	r0, #0, 0
    1b88:	00010000 	andeq	r0, r1, r0
    1b8c:	0003fc56 	andeq	pc, r3, r6, asr ip	; <UNPREDICTABLE>
    1b90:	00040000 	andeq	r0, r4, r0
    1b94:	50000100 	andpl	r0, r0, r0, lsl #2
	...
    1ba8:	000002f8 	strdeq	r0, [r0], -r8
    1bac:	00000320 	andeq	r0, r0, r0, lsr #6
    1bb0:	40900008 	addsmi	r0, r0, r8
    1bb4:	41900493 			; <UNDEFINED> instruction: 0x41900493
    1bb8:	03200493 			; <UNDEFINED> instruction: 0x03200493
    1bbc:	039c0000 	orrseq	r0, ip, #0, 0
    1bc0:	00080000 	andeq	r0, r8, r0
    1bc4:	04935090 	ldreq	r5, [r3], #144	; 0x90
    1bc8:	04935190 	ldreq	r5, [r3], #400	; 0x190
    1bcc:	0000039c 	muleq	r0, ip, r3
    1bd0:	000003ac 	andeq	r0, r0, ip, lsr #7
    1bd4:	40900008 	addsmi	r0, r0, r8
    1bd8:	41900493 			; <UNDEFINED> instruction: 0x41900493
    1bdc:	03ac0493 			; <UNDEFINED> instruction: 0x03ac0493
    1be0:	03f80000 	mvnseq	r0, #0, 0
    1be4:	00080000 	andeq	r0, r8, r0
    1be8:	04935090 	ldreq	r5, [r3], #144	; 0x90
    1bec:	04935190 	ldreq	r5, [r3], #400	; 0x190
	...
    1c00:	02f80000 	rscseq	r0, r8, #0, 0
    1c04:	032f0000 			; <UNDEFINED> instruction: 0x032f0000
    1c08:	00010000 	andeq	r0, r1, r0
    1c0c:	00032f51 	andeq	r2, r3, r1, asr pc
    1c10:	00039c00 	andeq	r9, r3, r0, lsl #24
    1c14:	58000100 	stmdapl	r0, {r8}
    1c18:	0000039c 	muleq	r0, ip, r3
    1c1c:	000003b0 			; <UNDEFINED> instruction: 0x000003b0
    1c20:	b0510001 	subslt	r0, r1, r1
    1c24:	fc000003 	stc2	0, cr0, [r0], {3}
    1c28:	01000003 	tsteq	r0, r3
    1c2c:	03fc5800 	mvnseq	r5, #0, 16
    1c30:	04000000 	streq	r0, [r0], #-0
    1c34:	00040000 	andeq	r0, r4, r0
    1c38:	9f5101f3 	svcls	0x005101f3
	...
    1c44:	00000001 	andeq	r0, r0, r1
    1c48:	00000000 	andeq	r0, r0, r0
    1c4c:	03100000 	tsteq	r0, #0, 0
    1c50:	03200000 	nopeq	{0}	; <UNPREDICTABLE>
    1c54:	00010000 	andeq	r0, r1, r0
    1c58:	00032050 	andeq	r2, r3, r0, asr r0
    1c5c:	00039c00 	andeq	r9, r3, r0, lsl #24
    1c60:	55000100 	strpl	r0, [r0, #-256]	; 0xffffff00
    1c64:	0000039c 	muleq	r0, ip, r3
    1c68:	000003a0 	andeq	r0, r0, r0, lsr #7
    1c6c:	a0500001 	subsge	r0, r0, r1
    1c70:	a8000003 	stmdage	r0, {r0, r1}
    1c74:	03000003 	movweq	r0, #3
    1c78:	9f017500 	svcls	0x00017500
    1c7c:	000003a8 	andeq	r0, r0, r8, lsr #7
    1c80:	000003fc 	strdeq	r0, [r0], -ip
    1c84:	00550001 	subseq	r0, r5, r1
	...
    1c94:	00033400 	andeq	r3, r3, r0, lsl #8
    1c98:	00033b00 	andeq	r3, r3, r0, lsl #22
    1c9c:	50000100 	andpl	r0, r0, r0, lsl #2
    1ca0:	0000033b 	andeq	r0, r0, fp, lsr r3
    1ca4:	0000039c 	muleq	r0, ip, r3
    1ca8:	b0570001 	subslt	r0, r7, r1
    1cac:	fc000003 	stc2	0, cr0, [r0], {3}
    1cb0:	01000003 	tsteq	r0, r3
    1cb4:	00005700 	andeq	r5, r0, r0, lsl #14
	...
    1cc0:	03400000 	movteq	r0, #0
    1cc4:	03580000 	cmpeq	r8, #0, 0
    1cc8:	00010000 	andeq	r0, r1, r0
    1ccc:	00035850 	andeq	r5, r3, r0, asr r8
    1cd0:	00035b00 	andeq	r5, r3, r0, lsl #22
    1cd4:	53000100 	movwpl	r0, #256	; 0x100
	...
    1ce0:	00000001 	andeq	r0, r0, r1
    1ce4:	00000374 	andeq	r0, r0, r4, ror r3
    1ce8:	0000039c 	muleq	r0, ip, r3
    1cec:	9f340002 	svcls	0x00340002
    1cf0:	000003b0 			; <UNDEFINED> instruction: 0x000003b0
    1cf4:	00000400 	andeq	r0, r0, r0, lsl #8
    1cf8:	9f340002 	svcls	0x00340002
	...
    1d04:	00000002 	andeq	r0, r0, r2
    1d08:	00000394 	muleq	r0, r4, r3
    1d0c:	0000039c 	muleq	r0, ip, r3
    1d10:	9f300002 	svcls	0x00300002
    1d14:	000003b0 			; <UNDEFINED> instruction: 0x000003b0
    1d18:	000003eb 	andeq	r0, r0, fp, ror #7
    1d1c:	00530001 	subseq	r0, r3, r1
	...
    1d28:	d4000000 	strle	r0, [r0], #-0
    1d2c:	db000000 	blle	1d34 <__code_start__-0x62cc>
    1d30:	08000000 	stmdaeq	r0, {}	; <UNPREDICTABLE>
    1d34:	93409000 	movtls	r9, #0
    1d38:	93419004 	movtls	r9, #4100	; 0x1004
    1d3c:	0000db04 	andeq	sp, r0, r4, lsl #22
    1d40:	0000e000 	andeq	lr, r0, r0
    1d44:	f3000600 	vmax.u8	d0, d0, d0
    1d48:	2540f503 	strbcs	pc, [r0, #-1283]	; 0xfffffafd	; <UNPREDICTABLE>
    1d4c:	0000009f 	muleq	r0, pc, r0	; <UNPREDICTABLE>
	...
    1d58:	00007c00 	andeq	r7, r0, r0, lsl #24
    1d5c:	00009400 	andeq	r9, r0, r0, lsl #8
    1d60:	90000800 	andls	r0, r0, r0, lsl #16
    1d64:	90049340 	andls	r9, r4, r0, asr #6
    1d68:	bc049341 	stclt	3, cr9, [r4], {65}	; 0x41
    1d6c:	d4000000 	strle	r0, [r0], #-0
    1d70:	08000000 	stmdaeq	r0, {}	; <UNPREDICTABLE>
    1d74:	93409000 	movtls	r9, #0
    1d78:	93419004 	movtls	r9, #4100	; 0x1004
    1d7c:	00000004 	andeq	r0, r0, r4
	...
    1d8c:	30000004 	andcc	r0, r0, r4
    1d90:	01000004 	tsteq	r0, r4
    1d94:	04305000 	ldrteq	r5, [r0], #-0
    1d98:	08900000 	ldmeq	r0, {}	; <UNPREDICTABLE>
    1d9c:	00010000 	andeq	r0, r1, r0
    1da0:	00089059 	andeq	r9, r8, r9, asr r0
    1da4:	0008c800 	andeq	ip, r8, r0, lsl #16
    1da8:	f3000400 	vshl.u8	d0, d0, d0
    1dac:	009f5001 	addseq	r5, pc, r1
	...
    1dbc:	00040000 	andeq	r0, r4, r0
    1dc0:	00041800 	andeq	r1, r4, r0, lsl #16
    1dc4:	51000100 	mrspl	r0, (UNDEF: 16)
    1dc8:	00000418 	andeq	r0, r0, r8, lsl r4
    1dcc:	00000430 	andeq	r0, r0, r0, lsr r4
    1dd0:	01710003 	cmneq	r1, r3
    1dd4:	0004309f 	muleq	r4, pc, r0	; <UNPREDICTABLE>
    1dd8:	0008c800 	andeq	ip, r8, r0, lsl #16
    1ddc:	f3000400 	vshl.u8	d0, d0, d0
    1de0:	009f5101 	addseq	r5, pc, r1, lsl #2
	...
    1df8:	30000004 	andcc	r0, r0, r4
    1dfc:	01000004 	tsteq	r0, r4
    1e00:	04305200 	ldrteq	r5, [r0], #-512	; 0xfffffe00
    1e04:	05640000 	strbeq	r0, [r4, #-0]!
    1e08:	00010000 	andeq	r0, r1, r0
    1e0c:	00056456 	andeq	r6, r5, r6, asr r4
    1e10:	00063000 	andeq	r3, r6, r0
    1e14:	5b000100 	blpl	221c <__code_start__-0x5de4>
    1e18:	00000630 	andeq	r0, r0, r0, lsr r6
    1e1c:	00000650 	andeq	r0, r0, r0, asr r6
    1e20:	50560001 	subspl	r0, r6, r1
    1e24:	d4000006 	strle	r0, [r0], #-6
    1e28:	01000006 	tsteq	r0, r6
    1e2c:	06d45b00 	ldrbeq	r5, [r4], r0, lsl #22
    1e30:	08900000 	ldmeq	r0, {}	; <UNPREDICTABLE>
    1e34:	00010000 	andeq	r0, r1, r0
    1e38:	00000056 	andeq	r0, r0, r6, asr r0
    1e3c:	00000000 	andeq	r0, r0, r0
    1e40:	00000100 	andeq	r0, r0, r0, lsl #2
    1e44:	00000000 	andeq	r0, r0, r0
    1e48:	00000101 	andeq	r0, r0, r1, lsl #2
    1e4c:	00000000 	andeq	r0, r0, r0
    1e50:	00000202 	andeq	r0, r0, r2, lsl #4
    1e54:	00041400 	andeq	r1, r4, r0, lsl #8
    1e58:	00043000 	andeq	r3, r4, r0
    1e5c:	50000100 	andpl	r0, r0, r0, lsl #2
    1e60:	00000430 	andeq	r0, r0, r0, lsr r4
    1e64:	00000434 	andeq	r0, r0, r4, lsr r4
    1e68:	34540001 	ldrbcc	r0, [r4], #-1
    1e6c:	38000004 	stmdacc	r0, {r2}
    1e70:	03000004 	movweq	r0, #4
    1e74:	9f017400 	svcls	0x00017400
    1e78:	00000438 	andeq	r0, r0, r8, lsr r4
    1e7c:	0000045c 	andeq	r0, r0, ip, asr r4
    1e80:	5c540001 	mrrcpl	0, 0, r0, r4, cr1
    1e84:	60000004 	andvs	r0, r0, r4
    1e88:	03000004 	movweq	r0, #4
    1e8c:	9f017400 	svcls	0x00017400
    1e90:	00000460 	andeq	r0, r0, r0, ror #8
    1e94:	00000860 	andeq	r0, r0, r0, ror #16
    1e98:	60540001 	subsvs	r0, r4, r1
    1e9c:	64000008 	strvs	r0, [r0], #-8
    1ea0:	03000008 	movweq	r0, #8
    1ea4:	9f017400 	svcls	0x00017400
    1ea8:	00000864 	andeq	r0, r0, r4, ror #16
    1eac:	0000087c 	andeq	r0, r0, ip, ror r8
    1eb0:	7c540001 	mrrcvc	0, 0, r0, r4, cr1
    1eb4:	84000008 	strhi	r0, [r0], #-8
    1eb8:	03000008 	movweq	r0, #8
    1ebc:	9f017400 	svcls	0x00017400
    1ec0:	00000884 	andeq	r0, r0, r4, lsl #17
    1ec4:	00000890 	muleq	r0, r0, r8
    1ec8:	00540001 	subseq	r0, r4, r1
	...
    1ed4:	1c000000 	stcne	0, cr0, [r0], {-0}
    1ed8:	90000004 	andls	r0, r0, r4
    1edc:	01000008 	tsteq	r0, r8
    1ee0:	08905800 	ldmeq	r0, {fp, ip, lr}
    1ee4:	08c80000 	stmiaeq	r8, {}^	; <UNPREDICTABLE>
    1ee8:	000a0000 	andeq	r0, sl, r0
    1eec:	f35101f3 	vbsl	q8, <illegal reg q8.5>, <illegal reg q9.5>
    1ef0:	31225001 			; <UNDEFINED> instruction: 0x31225001
    1ef4:	00009f1c 	andeq	r9, r0, ip, lsl pc
    1ef8:	00000000 	andeq	r0, r0, r0
    1efc:	00010000 	andeq	r0, r1, r0
    1f00:	00000000 	andeq	r0, r0, r0
    1f04:	00000580 	andeq	r0, r0, r0, lsl #11
    1f08:	000005ec 	andeq	r0, r0, ip, ror #11
    1f0c:	50570001 	subspl	r0, r7, r1
    1f10:	74000006 	strvc	r0, [r0], #-6
    1f14:	01000006 	tsteq	r0, r6
    1f18:	06b85700 	ldrteq	r5, [r8], r0, lsl #14
    1f1c:	06d40000 	ldrbeq	r0, [r4], r0
    1f20:	00010000 	andeq	r0, r1, r0
    1f24:	00000057 	andeq	r0, r0, r7, asr r0
    1f28:	00000000 	andeq	r0, r0, r0
    1f2c:	00000200 	andeq	r0, r0, r0, lsl #4
    1f30:	00058000 	andeq	r8, r5, r0
    1f34:	00063000 	andeq	r3, r6, r0
    1f38:	5a000100 	bpl	2340 <__code_start__-0x5cc0>
    1f3c:	00000650 	andeq	r0, r0, r0, asr r6
    1f40:	000006d4 	ldrdeq	r0, [r0], -r4
    1f44:	005a0001 	subseq	r0, sl, r1
    1f48:	00000000 	andeq	r0, r0, r0
    1f4c:	01000000 	mrseq	r0, (UNDEF: 0)
    1f50:	24000000 	strcs	r0, [r0], #-0
    1f54:	30000004 	andcc	r0, r0, r4
    1f58:	01000004 	tsteq	r0, r4
    1f5c:	04305200 	ldrteq	r5, [r0], #-512	; 0xfffffe00
    1f60:	08c80000 	stmiaeq	r8, {}^	; <UNPREDICTABLE>
    1f64:	00030000 	andeq	r0, r3, r0
    1f68:	007dc891 			; <UNDEFINED> instruction: 0x007dc891
	...
    1f7c:	00000101 	andeq	r0, r0, r1, lsl #2
	...
    1f88:	ec000000 	stc	0, cr0, [r0], {-0}
    1f8c:	04000005 	streq	r0, [r0], #-5
    1f90:	01000006 	tsteq	r0, r6
    1f94:	06045000 	streq	r5, [r4], -r0
    1f98:	06300000 	ldrteq	r0, [r0], -r0
    1f9c:	00010000 	andeq	r0, r1, r0
    1fa0:	00067457 	andeq	r7, r6, r7, asr r4
    1fa4:	00068c00 	andeq	r8, r6, r0, lsl #24
    1fa8:	50000100 	andpl	r0, r0, r0, lsl #2
    1fac:	0000068c 	andeq	r0, r0, ip, lsl #13
    1fb0:	000006b8 			; <UNDEFINED> instruction: 0x000006b8
    1fb4:	fc570001 	mrrc2	0, 0, r0, r7, cr1
    1fb8:	fc000006 	stc2	0, cr0, [r0], {6}
    1fbc:	01000006 	tsteq	r0, r6
    1fc0:	06fc5000 	ldrbteq	r5, [ip], r0
    1fc4:	07040000 	streq	r0, [r4, -r0]
    1fc8:	00010000 	andeq	r0, r1, r0
    1fcc:	00073457 	andeq	r3, r7, r7, asr r4
    1fd0:	00073800 	andeq	r3, r7, r0, lsl #16
    1fd4:	50000100 	andpl	r0, r0, r0, lsl #2
    1fd8:	00000768 	andeq	r0, r0, r8, ror #14
    1fdc:	0000076c 	andeq	r0, r0, ip, ror #14
    1fe0:	9c500001 	mrrcls	0, 0, r0, r0, cr1	; <UNPREDICTABLE>
    1fe4:	a0000007 	andge	r0, r0, r7
    1fe8:	01000007 	tsteq	r0, r7
    1fec:	07d05000 	ldrbeq	r5, [r0, r0]
    1ff0:	07d40000 	ldrbeq	r0, [r4, r0]
    1ff4:	00010000 	andeq	r0, r1, r0
    1ff8:	00081850 	andeq	r1, r8, r0, asr r8
    1ffc:	00081c00 	andeq	r1, r8, r0, lsl #24
    2000:	50000100 	andpl	r0, r0, r0, lsl #2
    2004:	0000085c 	andeq	r0, r0, ip, asr r8
    2008:	0000087c 	andeq	r0, r0, ip, ror r8
    200c:	00570001 	subseq	r0, r7, r1
    2010:	00000000 	andeq	r0, r0, r0
    2014:	02000000 	andeq	r0, r0, #0, 0
    2018:	00000000 	andeq	r0, r0, r0
    201c:	00046c00 	andeq	r6, r4, r0, lsl #24
    2020:	00047000 	andeq	r7, r4, r0
    2024:	30000200 	andcc	r0, r0, r0, lsl #4
    2028:	0004709f 	muleq	r4, pc, r0	; <UNPREDICTABLE>
    202c:	00048c00 	andeq	r8, r4, r0, lsl #24
    2030:	55000100 	strpl	r0, [r0, #-256]	; 0xffffff00
    2034:	00000494 	muleq	r0, r4, r4
    2038:	0000087c 	andeq	r0, r0, ip, ror r8
    203c:	00550001 	subseq	r0, r5, r1
    2040:	00000000 	andeq	r0, r0, r0
    2044:	01000000 	mrseq	r0, (UNDEF: 0)
	...
    2050:	00053000 	andeq	r3, r5, r0
    2054:	0005cc00 	andeq	ip, r5, r0, lsl #24
    2058:	56000100 	strpl	r0, [r0], -r0, lsl #2
    205c:	000005cc 	andeq	r0, r0, ip, asr #11
    2060:	00000630 	andeq	r0, r0, r0, lsr r6
    2064:	7e7b0003 	cdpvc	0, 7, cr0, cr11, cr3, {0}
    2068:	0006309f 	muleq	r6, pc, r0	; <UNPREDICTABLE>
    206c:	00065400 	andeq	r5, r6, r0, lsl #8
    2070:	56000100 	strpl	r0, [r0], -r0, lsl #2
    2074:	00000654 	andeq	r0, r0, r4, asr r6
    2078:	000006b8 			; <UNDEFINED> instruction: 0x000006b8
    207c:	7e7b0003 	cdpvc	0, 7, cr0, cr11, cr3, {0}
    2080:	0006b89f 	muleq	r6, pc, r8	; <UNPREDICTABLE>
    2084:	0006d400 	andeq	sp, r6, r0, lsl #8
    2088:	56000100 	strpl	r0, [r0], -r0, lsl #2
	...
    2098:	00e00000 	rsceq	r0, r0, r0
    209c:	01040000 	mrseq	r0, (UNDEF: 4)
    20a0:	00010000 	andeq	r0, r1, r0
    20a4:	00010450 	andeq	r0, r1, r0, asr r4
    20a8:	00016c00 	andeq	r6, r1, r0, lsl #24
    20ac:	70000300 	andvc	r0, r0, r0, lsl #6
    20b0:	016c9f02 	cmneq	ip, r2, lsl #30
    20b4:	02940000 	addseq	r0, r4, #0, 0
    20b8:	00040000 	andeq	r0, r4, r0
    20bc:	9f5001f3 	svcls	0x005001f3
	...
    20d8:	000000e0 	andeq	r0, r0, r0, ror #1
    20dc:	00000150 	andeq	r0, r0, r0, asr r1
    20e0:	50510001 	subspl	r0, r1, r1
    20e4:	c4000001 	strgt	r0, [r0], #-1
    20e8:	01000001 	tsteq	r0, r1
    20ec:	01c45500 	biceq	r5, r4, r0, lsl #10
    20f0:	01c80000 	biceq	r0, r8, r0
    20f4:	00010000 	andeq	r0, r1, r0
    20f8:	0001c851 	andeq	ip, r1, r1, asr r8
    20fc:	00022000 	andeq	r2, r2, r0
    2100:	55000100 	strpl	r0, [r0, #-256]	; 0xffffff00
    2104:	00000220 	andeq	r0, r0, r0, lsr #4
    2108:	00000230 	andeq	r0, r0, r0, lsr r2
    210c:	30510001 	subscc	r0, r1, r1
    2110:	54000002 	strpl	r0, [r0], #-2
    2114:	01000002 	tsteq	r0, r2
    2118:	02545500 	subseq	r5, r4, #0, 10
    211c:	02680000 	rsbeq	r0, r8, #0, 0
    2120:	00010000 	andeq	r0, r1, r0
    2124:	00026851 	andeq	r6, r2, r1, asr r8
    2128:	00029400 	andeq	r9, r2, r0, lsl #8
    212c:	55000100 	strpl	r0, [r0, #-256]	; 0xffffff00
	...
    213c:	000000e0 	andeq	r0, r0, r0, ror #1
    2140:	000000f4 	strdeq	r0, [r0], -r4
    2144:	f4520001 			; <UNDEFINED> instruction: 0xf4520001
    2148:	94000000 	strls	r0, [r0], #-0
    214c:	01000002 	tsteq	r0, r2
    2150:	00005400 	andeq	r5, r0, r0, lsl #8
	...
    215c:	01000000 	mrseq	r0, (UNDEF: 0)
    2160:	00000000 	andeq	r0, r0, r0
    2164:	00e00000 	rsceq	r0, r0, r0
    2168:	01640000 	cmneq	r4, r0
    216c:	00010000 	andeq	r0, r1, r0
    2170:	0001bc53 	andeq	fp, r1, r3, asr ip
    2174:	0001f000 	andeq	pc, r1, r0
    2178:	53000100 	movwpl	r0, #256	; 0x100
    217c:	000001f0 	strdeq	r0, [r0], -r0	; <UNPREDICTABLE>
    2180:	000001fc 	strdeq	r0, [r0], -ip
    2184:	01f30004 	mvnseq	r0, r4
    2188:	02209f53 	eoreq	r9, r0, #332	; 0x14c
    218c:	02580000 	subseq	r0, r8, #0, 0
    2190:	00010000 	andeq	r0, r1, r0
    2194:	00025853 	andeq	r5, r2, r3, asr r8
    2198:	00026f00 	andeq	r6, r2, r0, lsl #30
    219c:	5c000100 	stfpls	f0, [r0], {-0}
    21a0:	0000026f 	andeq	r0, r0, pc, ror #4
    21a4:	00000294 	muleq	r0, r4, r2
    21a8:	01f30004 	mvnseq	r0, r4
    21ac:	00009f53 	andeq	r9, r0, r3, asr pc
	...
    21bc:	000000e0 	andeq	r0, r0, r0, ror #1
    21c0:	000000fc 	strdeq	r0, [r0], -ip
    21c4:	00910002 	addseq	r0, r1, r2
    21c8:	000000fc 	strdeq	r0, [r0], -ip
    21cc:	00000203 	andeq	r0, r0, r3, lsl #4
    21d0:	20520001 	subscs	r0, r2, r1
    21d4:	64000002 	strvs	r0, [r0], #-2
    21d8:	01000002 	tsteq	r0, r2
    21dc:	00005200 	andeq	r5, r0, r0, lsl #4
    21e0:	00000000 	andeq	r0, r0, r0
    21e4:	00010000 	andeq	r0, r1, r0
    21e8:	00010100 	andeq	r0, r1, r0, lsl #2
    21ec:	00000000 	andeq	r0, r0, r0
    21f0:	01000000 	mrseq	r0, (UNDEF: 0)
    21f4:	00010101 	andeq	r0, r1, r1, lsl #2
    21f8:	00010100 	andeq	r0, r1, r0, lsl #2
	...
    2204:	00fc0000 	rscseq	r0, ip, r0
    2208:	016c0000 	cmneq	ip, r0
    220c:	00040000 	andeq	r0, r4, r0
    2210:	9f7fa091 	svcls	0x007fa091
    2214:	0000016c 	andeq	r0, r0, ip, ror #2
    2218:	000001ac 	andeq	r0, r0, ip, lsr #3
    221c:	ac500001 	mrrcge	0, 0, r0, r0, cr1	; <UNPREDICTABLE>
    2220:	b8000001 	stmdalt	r0, {r0}
    2224:	03000001 	movweq	r0, #1
    2228:	9f027100 	svcls	0x00027100
    222c:	000001b8 			; <UNDEFINED> instruction: 0x000001b8
    2230:	000001bc 			; <UNDEFINED> instruction: 0x000001bc
    2234:	bc500001 	mrrclt	0, 0, r0, r0, cr1	; <UNPREDICTABLE>
    2238:	c8000001 	stmdagt	r0, {r0}
    223c:	04000001 	streq	r0, [r0], #-1
    2240:	7fa09100 	svcvc	0x00a09100
    2244:	0001c89f 	muleq	r1, pc, r8	; <UNPREDICTABLE>
    2248:	0001dc00 	andeq	sp, r1, r0, lsl #24
    224c:	51000100 	mrspl	r0, (UNDEF: 16)
    2250:	000001dc 	ldrdeq	r0, [r0], -ip
    2254:	000001e8 	andeq	r0, r0, r8, ror #3
    2258:	7f710003 	svcvc	0x00710003
    225c:	0001e89f 	muleq	r1, pc, r8	; <UNPREDICTABLE>
    2260:	0001f400 	andeq	pc, r1, r0, lsl #8
    2264:	71000300 	mrsvc	r0, LR_irq
    2268:	01f49f01 	mvnseq	r9, r1, lsl #30
    226c:	02030000 	andeq	r0, r3, #0, 0
    2270:	00010000 	andeq	r0, r1, r0
    2274:	00022050 	andeq	r2, r2, r0, asr r0
    2278:	00022000 	andeq	r2, r2, r0
    227c:	91000400 	tstls	r0, r0, lsl #8
    2280:	209f7fa0 	addscs	r7, pc, r0, lsr #31
    2284:	28000002 	stmdacs	r0, {r1}
    2288:	04000002 	streq	r0, [r0], #-2
    228c:	7fa19100 	svcvc	0x00a19100
    2290:	0002289f 	muleq	r2, pc, r8	; <UNPREDICTABLE>
    2294:	00022c00 	andeq	r2, r2, r0, lsl #24
    2298:	50000100 	andpl	r0, r0, r0, lsl #2
    229c:	0000022c 	andeq	r0, r0, ip, lsr #4
    22a0:	00000230 	andeq	r0, r0, r0, lsr r2
    22a4:	a0910004 	addsge	r0, r1, r4
    22a8:	02309f7f 	eorseq	r9, r0, #508	; 0x1fc
    22ac:	02440000 	subeq	r0, r4, #0, 0
    22b0:	00010000 	andeq	r0, r1, r0
    22b4:	00024450 	andeq	r4, r2, r0, asr r4
    22b8:	00025400 	andeq	r5, r2, r0, lsl #8
    22bc:	70000300 	andvc	r0, r0, r0, lsl #6
    22c0:	02549f7f 	subseq	r9, r4, #508	; 0x1fc
    22c4:	02940000 	addseq	r0, r4, #0, 0
    22c8:	00040000 	andeq	r0, r4, r0
    22cc:	9f7fa091 	svcls	0x007fa091
	...
    22d8:	01000000 	mrseq	r0, (UNDEF: 0)
    22dc:	00000001 	andeq	r0, r0, r1
	...
    22ec:	00000100 	andeq	r0, r0, r0, lsl #2
    22f0:	0000014c 	andeq	r0, r0, ip, asr #2
    22f4:	4c5c0001 	mrrcmi	0, 0, r0, ip, cr1
    22f8:	64000001 	strvs	r0, [r0], #-1
    22fc:	01000001 	tsteq	r0, r1
    2300:	01645300 	cmneq	r4, r0, lsl #6
    2304:	01bc0000 			; <UNDEFINED> instruction: 0x01bc0000
    2308:	00010000 	andeq	r0, r1, r0
    230c:	0001bc5c 	andeq	fp, r1, ip, asr ip
    2310:	0001c800 	andeq	ip, r1, r0, lsl #16
    2314:	53000100 	movwpl	r0, #256	; 0x100
    2318:	000001c8 	andeq	r0, r0, r8, asr #3
    231c:	000001e4 	andeq	r0, r0, r4, ror #3
    2320:	205c0001 	subscs	r0, ip, r1
    2324:	30000002 	andcc	r0, r0, r2
    2328:	01000002 	tsteq	r0, r2
    232c:	02305300 	eorseq	r5, r0, #0, 6
    2330:	024c0000 	subeq	r0, ip, #0, 0
    2334:	00010000 	andeq	r0, r1, r0
    2338:	0002545c 	andeq	r5, r2, ip, asr r4
    233c:	00025800 	andeq	r5, r2, r0, lsl #16
    2340:	53000100 	movwpl	r0, #256	; 0x100
    2344:	00000258 	andeq	r0, r0, r8, asr r2
    2348:	0000026f 	andeq	r0, r0, pc, ror #4
    234c:	6f5c0001 	svcvs	0x005c0001
    2350:	94000002 	strls	r0, [r0], #-2
    2354:	04000002 	streq	r0, [r0], #-2
    2358:	5301f300 	movwpl	pc, #4864	; 0x1300	; <UNPREDICTABLE>
    235c:	0000009f 	muleq	r0, pc, r0	; <UNPREDICTABLE>
    2360:	00000000 	andeq	r0, r0, r0
    2364:	01010100 	mrseq	r0, (UNDEF: 17)
    2368:	00000000 	andeq	r0, r0, r0
    236c:	00014c00 	andeq	r4, r1, r0, lsl #24
    2370:	00016000 	andeq	r6, r1, r0
    2374:	30000200 	andcc	r0, r0, r0, lsl #4
    2378:	0001609f 	muleq	r1, pc, r0	; <UNPREDICTABLE>
    237c:	00016800 	andeq	r6, r1, r0, lsl #16
    2380:	31000200 	mrscc	r0, R8_usr
    2384:	00016c9f 	muleq	r1, pc, ip	; <UNPREDICTABLE>
    2388:	0001bc00 	andeq	fp, r1, r0, lsl #24
    238c:	56000100 	strpl	r0, [r0], -r0, lsl #2
    2390:	000001bc 			; <UNDEFINED> instruction: 0x000001bc
    2394:	000001c4 	andeq	r0, r0, r4, asr #3
    2398:	9f300002 	svcls	0x00300002
	...
    23a4:	01000000 	mrseq	r0, (UNDEF: 0)
    23a8:	01000001 	tsteq	r0, r1
    23ac:	00380001 	eorseq	r0, r8, r1
    23b0:	00540000 	subseq	r0, r4, r0
    23b4:	00010000 	andeq	r0, r1, r0
    23b8:	00005450 	andeq	r5, r0, r0, asr r4
    23bc:	00005800 	andeq	r5, r0, r0, lsl #16
    23c0:	52000100 	andpl	r0, r0, #0
    23c4:	00000058 	andeq	r0, r0, r8, asr r0
    23c8:	00000060 	andeq	r0, r0, r0, rrx
    23cc:	01720003 	cmneq	r2, r3
    23d0:	0000609f 	muleq	r0, pc, r0	; <UNPREDICTABLE>
    23d4:	00006400 	andeq	r6, r0, r0, lsl #8
    23d8:	52000100 	andpl	r0, r0, #0
    23dc:	00000064 	andeq	r0, r0, r4, rrx
    23e0:	00000070 	andeq	r0, r0, r0, ror r0
    23e4:	01720003 	cmneq	r2, r3
    23e8:	0000009f 	muleq	r0, pc, r0	; <UNPREDICTABLE>
	...
    23f4:	00003800 	andeq	r3, r0, r0, lsl #16
    23f8:	00005000 	andeq	r5, r0, r0
    23fc:	51000100 	mrspl	r0, (UNDEF: 16)
    2400:	00000050 	andeq	r0, r0, r0, asr r0
    2404:	00000070 	andeq	r0, r0, r0, ror r0
    2408:	01f30004 	mvnseq	r0, r4
    240c:	00009f51 	andeq	r9, r0, r1, asr pc
	...
    2418:	01000000 	mrseq	r0, (UNDEF: 0)
    241c:	00380001 	eorseq	r0, r8, r1
    2420:	00500000 	subseq	r0, r0, r0
    2424:	00010000 	andeq	r0, r1, r0
    2428:	00005052 	andeq	r5, r0, r2, asr r0
    242c:	00005c00 	andeq	r5, r0, r0, lsl #24
    2430:	51000100 	mrspl	r0, (UNDEF: 16)
    2434:	0000005c 	andeq	r0, r0, ip, asr r0
    2438:	00000060 	andeq	r0, r0, r0, rrx
    243c:	01710003 	cmneq	r1, r3
    2440:	0000609f 	muleq	r0, pc, r0	; <UNPREDICTABLE>
    2444:	00007000 	andeq	r7, r0, r0
    2448:	51000100 	mrspl	r0, (UNDEF: 16)
	...
    2458:	00000038 	andeq	r0, r0, r8, lsr r0
    245c:	0000004c 	andeq	r0, r0, ip, asr #32
    2460:	4c530001 	mrrcmi	0, 0, r0, r3, cr1
    2464:	68000000 	stmdavs	r0, {}	; <UNPREDICTABLE>
    2468:	01000000 	mrseq	r0, (UNDEF: 0)
    246c:	00005300 	andeq	r5, r0, r0, lsl #6
	...
    247c:	00400000 	subeq	r0, r0, r0
    2480:	00480000 	subeq	r0, r8, r0
    2484:	00010000 	andeq	r0, r1, r0
    2488:	0000485c 	andeq	r4, r0, ip, asr r8
    248c:	00004c00 	andeq	r4, r0, r0, lsl #24
    2490:	72000800 	andvc	r0, r0, #0, 16
    2494:	1c007300 	stcne	3, cr7, [r0], {-0}
    2498:	4c9f0123 	ldfmis	f0, [pc], {35}	; 0x23
    249c:	54000000 	strpl	r0, [r0], #-0
    24a0:	09000000 	stmdbeq	r0, {}	; <UNPREDICTABLE>
    24a4:	f3007200 	vhsub.u8	d7, d0, d0
    24a8:	231c5301 	tstcs	ip, #67108864	; 0x4000000
    24ac:	00549f01 	subseq	r9, r4, r1, lsl #30
    24b0:	00700000 	rsbseq	r0, r0, r0
    24b4:	000a0000 	andeq	r0, sl, r0
    24b8:	f35201f3 	vbsl	q8, q9, <illegal reg q9.5>
    24bc:	231c5301 	tstcs	ip, #67108864	; 0x4000000
    24c0:	00009f01 	andeq	r9, r0, r1, lsl #30
    24c4:	00000000 	andeq	r0, r0, r0
    24c8:	00010000 	andeq	r0, r1, r0
    24cc:	0000004c 	andeq	r0, r0, ip, asr #32
    24d0:	00000070 	andeq	r0, r0, r0, ror r0
    24d4:	00500001 	subseq	r0, r0, r1
	...
    24e0:	00000101 	andeq	r0, r0, r1, lsl #2
    24e4:	00001400 	andeq	r1, r0, r0, lsl #8
    24e8:	00001c00 	andeq	r1, r0, r0, lsl #24
    24ec:	50000100 	andpl	r0, r0, r0, lsl #2
    24f0:	0000001c 	andeq	r0, r0, ip, lsl r0
    24f4:	00000024 	andeq	r0, r0, r4, lsr #32
    24f8:	01700003 	cmneq	r0, r3
    24fc:	0000249f 	muleq	r0, pc, r4	; <UNPREDICTABLE>
    2500:	00003800 	andeq	r3, r0, r0, lsl #16
    2504:	50000100 	andpl	r0, r0, r0, lsl #2
	...
    2514:	00000014 	andeq	r0, r0, r4, lsl r0
    2518:	00000018 	andeq	r0, r0, r8, lsl r0
    251c:	18510001 	ldmdane	r1, {r0}^
    2520:	38000000 	stmdacc	r0, {}	; <UNPREDICTABLE>
    2524:	04000000 	streq	r0, [r0], #-0
    2528:	5101f300 	mrspl	pc, SP_irq	; <UNPREDICTABLE>
    252c:	0000009f 	muleq	r0, pc, r0	; <UNPREDICTABLE>
    2530:	00000000 	andeq	r0, r0, r0
    2534:	18000000 	stmdane	r0, {}	; <UNPREDICTABLE>
    2538:	38000000 	stmdacc	r0, {}	; <UNPREDICTABLE>
    253c:	01000000 	mrseq	r0, (UNDEF: 0)
    2540:	00005100 	andeq	r5, r0, r0, lsl #2
	...
    2554:	00000004 	andeq	r0, r0, r4
    2558:	04500001 	ldrbeq	r0, [r0], #-1
    255c:	0c000000 	stceq	0, cr0, [r0], {-0}
    2560:	03000000 	movweq	r0, #0
    2564:	9f307000 	svcls	0x00307000
    2568:	0000000c 	andeq	r0, r0, ip
    256c:	00000014 	andeq	r0, r0, r4, lsl r0
    2570:	01f30004 	mvnseq	r0, r4
    2574:	00009f50 	andeq	r9, r0, r0, asr pc
	...
    2580:	02940000 	addseq	r0, r4, #0, 0
    2584:	02d80000 	sbcseq	r0, r8, #0, 0
    2588:	00010000 	andeq	r0, r1, r0
    258c:	0002d850 	andeq	sp, r2, r0, asr r8
    2590:	0002f800 	andeq	pc, r2, r0, lsl #16
    2594:	f3000400 	vshl.u8	d0, d0, d0
    2598:	009f5001 	addseq	r5, pc, r1
	...
    25a4:	94000000 	strls	r0, [r0], #-0
    25a8:	d4000002 	strle	r0, [r0], #-2
    25ac:	01000002 	tsteq	r0, r2
    25b0:	02d45100 	sbcseq	r5, r4, #0
    25b4:	02f80000 	rscseq	r0, r8, #0, 0
    25b8:	00040000 	andeq	r0, r4, r0
    25bc:	9f5101f3 	svcls	0x005101f3
	...
    25c8:	00010100 	andeq	r0, r1, r0, lsl #2
    25cc:	000c0000 	andeq	r0, ip, r0
    25d0:	00140000 	andseq	r0, r4, r0
    25d4:	00010000 	andeq	r0, r1, r0
    25d8:	00001453 	andeq	r1, r0, r3, asr r4
    25dc:	00001c00 	andeq	r1, r0, r0, lsl #24
    25e0:	73000300 	movwvc	r0, #768	; 0x300
    25e4:	001c9f04 	andseq	r9, ip, r4, lsl #30
    25e8:	00230000 	eoreq	r0, r3, r0
    25ec:	00010000 	andeq	r0, r1, r0
    25f0:	00000053 	andeq	r0, r0, r3, asr r0
    25f4:	00000000 	andeq	r0, r0, r0
    25f8:	58000100 	stmdapl	r0, {r8}
    25fc:	7400009d 	strvc	r0, [r0], #-157	; 0xffffff63
    2600:	0600009d 			; <UNDEFINED> instruction: 0x0600009d
    2604:	001c0c00 	andseq	r0, ip, r0, lsl #24
    2608:	009f2010 	addseq	r2, pc, r0, lsl r0	; <UNPREDICTABLE>
    260c:	00000000 	andeq	r0, r0, r0
    2610:	02000000 	andeq	r0, r0, #0, 0
    2614:	009d5800 	addseq	r5, sp, r0, lsl #16
    2618:	009d7400 	addseq	r7, sp, r0, lsl #8
    261c:	0c000600 	stceq	6, cr0, [r0], {-0}
    2620:	20100024 	andscs	r0, r0, r4, lsr #32
    2624:	0000009f 	muleq	r0, pc, r0	; <UNPREDICTABLE>
    2628:	00000000 	andeq	r0, r0, r0
    262c:	58000300 	stmdapl	r0, {r8, r9}
    2630:	7400009d 	strvc	r0, [r0], #-157	; 0xffffff63
    2634:	0500009d 	streq	r0, [r0, #-157]	; 0xffffff63
    2638:	47b40800 	ldrmi	r0, [r4, r0, lsl #16]!
    263c:	00009f24 	andeq	r9, r0, r4, lsr #30
    2640:	00000000 	andeq	r0, r0, r0
    2644:	00040000 	andeq	r0, r4, r0
    2648:	00009d58 	andeq	r9, r0, r8, asr sp
    264c:	00009d74 	andeq	r9, r0, r4, ror sp
    2650:	20080003 	andcs	r0, r8, r3
    2654:	0000009f 	muleq	r0, pc, r0	; <UNPREDICTABLE>
    2658:	00000000 	andeq	r0, r0, r0
    265c:	00000200 	andeq	r0, r0, r0, lsl #4
    2660:	24000000 	strcs	r0, [r0], #-0
    2664:	2800009d 	stmdacs	r0, {r0, r2, r3, r4, r7}
    2668:	0200009d 	andeq	r0, r0, #157, 0	; 0x9d
    266c:	289f3000 	ldmcs	pc, {ip, sp}	; <UNPREDICTABLE>
    2670:	2c00009d 	stccs	0, cr0, [r0], {157}	; 0x9d
    2674:	0100009d 	swpeq	r0, sp, [r0]	; <UNPREDICTABLE>
    2678:	9d305300 	ldcls	3, cr5, [r0, #-0]
    267c:	9d380000 	ldcls	0, cr0, [r8, #-0]
    2680:	00010000 	andeq	r0, r1, r0
    2684:	00000053 	andeq	r0, r0, r3, asr r0
    2688:	00000000 	andeq	r0, r0, r0
    268c:	00000200 	andeq	r0, r0, r0, lsl #4
    2690:	009d0c00 	addseq	r0, sp, r0, lsl #24
    2694:	009d1000 	addseq	r1, sp, r0
    2698:	30000200 	andcc	r0, r0, r0, lsl #4
    269c:	009d109f 	umullseq	r1, sp, pc, r0	; <UNPREDICTABLE>
    26a0:	009d1400 	addseq	r1, sp, r0, lsl #8
    26a4:	50000100 	andpl	r0, r0, r0, lsl #2
	...
    26b4:	0000006c 	andeq	r0, r0, ip, rrx
    26b8:	00000078 	andeq	r0, r0, r8, ror r0
    26bc:	78500001 	ldmdavc	r0, {r0}^
    26c0:	84000000 	strhi	r0, [r0], #-0
    26c4:	04000000 	streq	r0, [r0], #-0
    26c8:	5001f300 	andpl	pc, r1, r0, lsl #6
    26cc:	0000009f 	muleq	r0, pc, r0	; <UNPREDICTABLE>
	...
    26d8:	00005400 	andeq	r5, r0, r0, lsl #8
    26dc:	00006000 	andeq	r6, r0, r0
    26e0:	50000100 	andpl	r0, r0, r0, lsl #2
    26e4:	00000060 	andeq	r0, r0, r0, rrx
    26e8:	0000006c 	andeq	r0, r0, ip, rrx
    26ec:	01f30004 	mvnseq	r0, r4
    26f0:	00009f50 	andeq	r9, r0, r0, asr pc
	...
    26fc:	00300000 	eorseq	r0, r0, r0
    2700:	003b0000 	eorseq	r0, fp, r0
    2704:	00010000 	andeq	r0, r1, r0
    2708:	00003b50 	andeq	r3, r0, r0, asr fp
    270c:	00005400 	andeq	r5, r0, r0, lsl #8
    2710:	55000100 	strpl	r0, [r0, #-256]	; 0xffffff00
	...
    271c:	00400000 	subeq	r0, r0, r0
    2720:	00540000 	subseq	r0, r4, r0
    2724:	00010000 	andeq	r0, r1, r0
    2728:	00000054 	andeq	r0, r0, r4, asr r0
    272c:	00000000 	andeq	r0, r0, r0
    2730:	44000000 	strmi	r0, [r0], #-0
    2734:	48000000 	stmdami	r0, {}	; <UNPREDICTABLE>
    2738:	01000000 	mrseq	r0, (UNDEF: 0)
    273c:	00005000 	andeq	r5, r0, r0
	...
    2748:	00240000 	eoreq	r0, r4, r0
    274c:	00270000 	eoreq	r0, r7, r0
    2750:	00010000 	andeq	r0, r1, r0
    2754:	00002750 	andeq	r2, r0, r0, asr r7
    2758:	00003000 	andeq	r3, r0, r0
    275c:	54000100 	strpl	r0, [r0], #-256	; 0xffffff00
	...
    276c:	00000158 	andeq	r0, r0, r8, asr r1
    2770:	00000163 	andeq	r0, r0, r3, ror #2
    2774:	63500001 	cmpvs	r0, #1, 0
    2778:	88000001 	stmdahi	r0, {r0}
    277c:	01000001 	tsteq	r0, r1
    2780:	00005400 	andeq	r5, r0, r0, lsl #8
	...
    278c:	00000148 	andeq	r0, r0, r8, asr #2
    2790:	00000158 	andeq	r0, r0, r8, asr r1
    2794:	00540001 	subseq	r0, r4, r1
	...
    27a4:	0f000000 	svceq	0x00000000
    27a8:	01000000 	mrseq	r0, (UNDEF: 0)
    27ac:	000f5000 	andeq	r5, pc, r0
    27b0:	00200000 	eoreq	r0, r0, r0
    27b4:	00010000 	andeq	r0, r1, r0
    27b8:	00000054 	andeq	r0, r0, r4, asr r0
	...
    27c8:	00000f00 	andeq	r0, r0, r0, lsl #30
    27cc:	51000100 	mrspl	r0, (UNDEF: 16)
    27d0:	0000000f 	andeq	r0, r0, pc
    27d4:	00000020 	andeq	r0, r0, r0, lsr #32
    27d8:	00550001 	subseq	r0, r5, r1
	...
    27e4:	20000000 	andcs	r0, r0, r0
    27e8:	2f000000 	svccs	0x00000000
    27ec:	01000000 	mrseq	r0, (UNDEF: 0)
    27f0:	002f5000 	eoreq	r5, pc, r0
    27f4:	00400000 	subeq	r0, r0, r0
    27f8:	00010000 	andeq	r0, r1, r0
    27fc:	00000054 	andeq	r0, r0, r4, asr r0
	...
    2808:	00002000 	andeq	r2, r0, r0
    280c:	00002f00 	andeq	r2, r0, r0, lsl #30
    2810:	51000100 	mrspl	r0, (UNDEF: 16)
    2814:	0000002f 	andeq	r0, r0, pc, lsr #32
    2818:	00000040 	andeq	r0, r0, r0, asr #32
    281c:	00550001 	subseq	r0, r5, r1
	...
    282c:	0b000000 	bleq	2834 <__code_start__-0x57cc>
    2830:	01000000 	mrseq	r0, (UNDEF: 0)
    2834:	000b5000 	andeq	r5, fp, r0
    2838:	00140000 	andseq	r0, r4, r0
    283c:	00010000 	andeq	r0, r1, r0
    2840:	00000054 	andeq	r0, r0, r4, asr r0
	...
    2850:	00001c00 	andeq	r1, r0, r0, lsl #24
    2854:	51000100 	mrspl	r0, (UNDEF: 16)
    2858:	0000001c 	andeq	r0, r0, ip, lsl r0
    285c:	00000034 	andeq	r0, r0, r4, lsr r0
    2860:	01f30004 	mvnseq	r0, r4
    2864:	00009f51 	andeq	r9, r0, r1, asr pc
    2868:	00000000 	andeq	r0, r0, r0
    286c:	00020000 	andeq	r0, r2, r0
    2870:	01000000 	mrseq	r0, (UNDEF: 0)
    2874:	00000001 	andeq	r0, r0, r1
    2878:	00000000 	andeq	r0, r0, r0
    287c:	00000004 	andeq	r0, r0, r4
    2880:	04500001 	ldrbeq	r0, [r0], #-1
    2884:	1c000000 	stcne	0, cr0, [r0], {-0}
    2888:	01000000 	mrseq	r0, (UNDEF: 0)
    288c:	001c5200 	andseq	r5, ip, r0, lsl #4
    2890:	00240000 	eoreq	r0, r4, r0
    2894:	00010000 	andeq	r0, r1, r0
    2898:	00002453 	andeq	r2, r0, r3, asr r4
    289c:	00002800 	andeq	r2, r0, r0, lsl #16
    28a0:	73000300 	movwvc	r0, #768	; 0x300
    28a4:	00289f01 	eoreq	r9, r8, r1, lsl #30
    28a8:	00340000 	eorseq	r0, r4, r0
    28ac:	00010000 	andeq	r0, r1, r0
    28b0:	00000053 	andeq	r0, r0, r3, asr r0
    28b4:	00000000 	andeq	r0, r0, r0
    28b8:	00000300 	andeq	r0, r0, r0, lsl #6
    28bc:	00000000 	andeq	r0, r0, r0
    28c0:	00002400 	andeq	r2, r0, r0, lsl #8
    28c4:	51000100 	mrspl	r0, (UNDEF: 16)
    28c8:	00000024 	andeq	r0, r0, r4, lsr #32
    28cc:	00000034 	andeq	r0, r0, r4, lsr r0
    28d0:	7f710003 	svcvc	0x00710003
    28d4:	0000009f 	muleq	r0, pc, r0	; <UNPREDICTABLE>
	...
    28e0:	00001000 	andeq	r1, r0, r0
    28e4:	00001c00 	andeq	r1, r0, r0, lsl #24
    28e8:	5c000100 	stfpls	f0, [r0], {-0}
    28ec:	00000024 	andeq	r0, r0, r4, lsr #32
    28f0:	00000034 	andeq	r0, r0, r4, lsr r0
    28f4:	00520001 	subseq	r0, r2, r1
	...
    2904:	18000000 	stmdane	r0, {}	; <UNPREDICTABLE>
    2908:	01000000 	mrseq	r0, (UNDEF: 0)
    290c:	00185000 	andseq	r5, r8, r0
    2910:	00240000 	eoreq	r0, r4, r0
    2914:	00010000 	andeq	r0, r1, r0
    2918:	00000050 	andeq	r0, r0, r0, asr r0
	...
    2928:	00001c00 	andeq	r1, r0, r0, lsl #24
    292c:	51000100 	mrspl	r0, (UNDEF: 16)
    2930:	0000001c 	andeq	r0, r0, ip, lsl r0
    2934:	0000002c 	andeq	r0, r0, ip, lsr #32
    2938:	00510001 	subseq	r0, r1, r1
	...
    294c:	00000400 	andeq	r0, r0, r0, lsl #8
    2950:	51000100 	mrspl	r0, (UNDEF: 16)
    2954:	00000004 	andeq	r0, r0, r4
    2958:	0000000c 	andeq	r0, r0, ip
    295c:	0c510001 	mrrceq	0, 0, r0, r1, cr1
    2960:	20000000 	andcs	r0, r0, r0
    2964:	03000000 	movweq	r0, #0
    2968:	9f7f7100 	svcls	0x007f7100
	...
    2974:	00000002 	andeq	r0, r0, r2
    2978:	00000000 	andeq	r0, r0, r0
    297c:	00040000 	andeq	r0, r4, r0
    2980:	00010000 	andeq	r0, r1, r0
    2984:	00000450 	andeq	r0, r0, r0, asr r4
    2988:	00001400 	andeq	r1, r0, r0, lsl #8
    298c:	5c000100 	stfpls	f0, [r0], {-0}
    2990:	00000014 	andeq	r0, r0, r4, lsl r0
    2994:	00000020 	andeq	r0, r0, r0, lsr #32
    2998:	7f7c0003 	svcvc	0x007c0003
    299c:	0000009f 	muleq	r0, pc, r0	; <UNPREDICTABLE>
    29a0:	00000000 	andeq	r0, r0, r0
    29a4:	03030000 	movweq	r0, #12288	; 0x3000
    29a8:	00a0bc00 	adceq	fp, r0, r0, lsl #24
    29ac:	00a0bc00 	adceq	fp, r0, r0, lsl #24
    29b0:	50000100 	andpl	r0, r0, r0, lsl #2
    29b4:	0000a0bc 	strheq	sl, [r0], -ip
    29b8:	0000a0e8 	andeq	sl, r0, r8, ror #1
    29bc:	01f30004 	mvnseq	r0, r4
    29c0:	00009f50 	andeq	r9, r0, r0, asr pc
    29c4:	00000000 	andeq	r0, r0, r0
    29c8:	03000000 	movweq	r0, #0
    29cc:	a0bc0003 	adcsge	r0, ip, r3
    29d0:	a0bc0000 	adcsge	r0, ip, r0
    29d4:	00010000 	andeq	r0, r1, r0
    29d8:	00a0bc51 	adceq	fp, r0, r1, asr ip
    29dc:	00a0e800 	adceq	lr, r0, r0, lsl #16
    29e0:	f3000400 	vshl.u8	d0, d0, d0
    29e4:	009f5101 	addseq	r5, pc, r1, lsl #2
	...
    29f0:	00000303 	andeq	r0, r0, r3, lsl #6
    29f4:	00a0bc00 	adceq	fp, r0, r0, lsl #24
    29f8:	00a0bc00 	adceq	fp, r0, r0, lsl #24
    29fc:	52000100 	andpl	r0, r0, #0
    2a00:	0000a0bc 	strheq	sl, [r0], -ip
    2a04:	0000a0c4 	andeq	sl, r0, r4, asr #1
    2a08:	c4520001 	ldrbgt	r0, [r2], #-1
    2a0c:	e80000a0 	stmda	r0, {r5, r7}
    2a10:	030000a0 	movweq	r0, #160	; 0xa0
    2a14:	9f017200 	svcls	0x00017200
	...
    2a20:	00010102 	andeq	r0, r1, r2, lsl #2
    2a24:	00000000 	andeq	r0, r0, r0
    2a28:	0000a0bc 	strheq	sl, [r0], -ip
    2a2c:	0000a0c8 	andeq	sl, r0, r8, asr #1
    2a30:	c8500001 	ldmdagt	r0, {r0}^
    2a34:	cc0000a0 	stcgt	0, cr0, [r0], {160}	; 0xa0
    2a38:	030000a0 	movweq	r0, #160	; 0xa0
    2a3c:	9f017000 	svcls	0x00017000
    2a40:	0000a0cc 	andeq	sl, r0, ip, asr #1
    2a44:	0000a0dc 	ldrdeq	sl, [r0], -ip
    2a48:	e0500001 	subs	r0, r0, r1
    2a4c:	e40000a0 	str	r0, [r0], #-160	; 0xffffff60
    2a50:	010000a0 	smlatbeq	r0, r0, r0, r0
    2a54:	00005000 	andeq	r5, r0, r0
    2a58:	00000000 	andeq	r0, r0, r0
    2a5c:	00020000 	andeq	r0, r2, r0
    2a60:	00000000 	andeq	r0, r0, r0
    2a64:	0000a0bc 	strheq	sl, [r0], -ip
    2a68:	0000a0cc 	andeq	sl, r0, ip, asr #1
    2a6c:	cc510001 	mrrcgt	0, 0, r0, r1, cr1
    2a70:	d00000a0 	andle	r0, r0, r0, lsr #1
    2a74:	030000a0 	movweq	r0, #160	; 0xa0
    2a78:	9f017100 	svcls	0x00017100
    2a7c:	0000a0d0 	ldrdeq	sl, [r0], -r0
    2a80:	0000a0e8 	andeq	sl, r0, r8, ror #1
    2a84:	00510001 	subseq	r0, r1, r1
	...
    2a94:	e8000000 	stmda	r0, {}	; <UNPREDICTABLE>
    2a98:	00000000 	andeq	r0, r0, r0
    2a9c:	01000001 	tsteq	r0, r1
    2aa0:	01005000 	mrseq	r5, (UNDEF: 0)
    2aa4:	01100000 	tsteq	r0, r0
    2aa8:	00040000 	andeq	r0, r4, r0
    2aac:	9f5001f3 	svcls	0x005001f3
    2ab0:	00000110 	andeq	r0, r0, r0, lsl r1
    2ab4:	00000114 	andeq	r0, r0, r4, lsl r1
    2ab8:	14500001 	ldrbne	r0, [r0], #-1
    2abc:	1c000001 	stcne	0, cr0, [r0], {1}
    2ac0:	04000001 	streq	r0, [r0], #-1
    2ac4:	5001f300 	andpl	pc, r1, r0, lsl #6
    2ac8:	0000009f 	muleq	r0, pc, r0	; <UNPREDICTABLE>
    2acc:	00000000 	andeq	r0, r0, r0
    2ad0:	00000100 	andeq	r0, r0, r0, lsl #2
    2ad4:	f4000000 	vst4.8	{d0-d3}, [r0], r0
    2ad8:	00000000 	andeq	r0, r0, r0
    2adc:	0b000001 	bleq	2ae8 <__code_start__-0x5518>
    2ae0:	35007000 	strcc	r7, [r0, #-0]
    2ae4:	80b42325 	adcshi	r2, r4, r5, lsr #6
    2ae8:	9f028180 	svcls	0x00028180
    2aec:	00000100 	andeq	r0, r0, r0, lsl #2
    2af0:	00000103 	andeq	r0, r0, r3, lsl #2
    2af4:	03500001 	cmpeq	r0, #1, 0
    2af8:	10000001 	andne	r0, r0, r1
    2afc:	0c000001 	stceq	0, cr0, [r0], {1}
    2b00:	5001f300 	andpl	pc, r1, r0, lsl #6
    2b04:	b4232535 	strtlt	r2, [r3], #-1333	; 0xfffffacb
    2b08:	02818080 	addeq	r8, r1, #128, 0	; 0x80
    2b0c:	0000009f 	muleq	r0, pc, r0	; <UNPREDICTABLE>
    2b10:	00000000 	andeq	r0, r0, r0
    2b14:	f8000000 			; <UNDEFINED> instruction: 0xf8000000
    2b18:	10000000 	andne	r0, r0, r0
    2b1c:	01000001 	tsteq	r0, r1
    2b20:	00005400 	andeq	r5, r0, r0, lsl #8
	...
    2b30:	00cc0000 	sbceq	r0, ip, r0
    2b34:	00db0000 	sbcseq	r0, fp, r0
    2b38:	00010000 	andeq	r0, r1, r0
    2b3c:	0000db50 	andeq	sp, r0, r0, asr fp
    2b40:	0000e000 	andeq	lr, r0, r0
    2b44:	f3000400 	vshl.u8	d0, d0, d0
    2b48:	e09f5001 	adds	r5, pc, r1
    2b4c:	e3000000 	movw	r0, #0
    2b50:	01000000 	mrseq	r0, (UNDEF: 0)
    2b54:	00e35000 	rsceq	r5, r3, r0
    2b58:	00e80000 	rsceq	r0, r8, r0
    2b5c:	00040000 	andeq	r0, r4, r0
    2b60:	9f5001f3 	svcls	0x005001f3
	...
    2b74:	000000cc 	andeq	r0, r0, ip, asr #1
    2b78:	000000db 	ldrdeq	r0, [r0], -fp
    2b7c:	db510001 	blle	1442b88 <__bss_end__+0x1438270>
    2b80:	e0000000 	and	r0, r0, r0
    2b84:	04000000 	streq	r0, [r0], #-0
    2b88:	5101f300 	mrspl	pc, SP_irq	; <UNPREDICTABLE>
    2b8c:	0000e09f 	muleq	r0, pc, r0	; <UNPREDICTABLE>
    2b90:	0000e300 	andeq	lr, r0, r0, lsl #6
    2b94:	51000100 	mrspl	r0, (UNDEF: 16)
    2b98:	000000e3 	andeq	r0, r0, r3, ror #1
    2b9c:	000000e8 	andeq	r0, r0, r8, ror #1
    2ba0:	01f30004 	mvnseq	r0, r4
    2ba4:	00009f51 	andeq	r9, r0, r1, asr pc
	...
    2bb0:	00bc0000 	adcseq	r0, ip, r0
    2bb4:	00c70000 	sbceq	r0, r7, r0
    2bb8:	00010000 	andeq	r0, r1, r0
    2bbc:	0000c750 	andeq	ip, r0, r0, asr r7
    2bc0:	0000cc00 	andeq	ip, r0, r0, lsl #24
    2bc4:	f3000400 	vshl.u8	d0, d0, d0
    2bc8:	009f5001 	addseq	r5, pc, r1
	...
    2bd4:	98000000 	stmdals	r0, {}	; <UNPREDICTABLE>
    2bd8:	b0000000 	andlt	r0, r0, r0
    2bdc:	01000000 	mrseq	r0, (UNDEF: 0)
    2be0:	00b05000 	adcseq	r5, r0, r0
    2be4:	00bc0000 	adcseq	r0, ip, r0
    2be8:	00040000 	andeq	r0, r4, r0
    2bec:	9f5001f3 	svcls	0x005001f3
	...
    2bfc:	00000074 	andeq	r0, r0, r4, ror r0
    2c00:	0000008c 	andeq	r0, r0, ip, lsl #1
    2c04:	8c500001 	mrrchi	0, 0, r0, r0, cr1	; <UNPREDICTABLE>
    2c08:	98000000 	stmdals	r0, {}	; <UNPREDICTABLE>
    2c0c:	04000000 	streq	r0, [r0], #-0
    2c10:	5001f300 	andpl	pc, r1, r0, lsl #6
    2c14:	0000009f 	muleq	r0, pc, r0	; <UNPREDICTABLE>
	...
    2c20:	00006400 	andeq	r6, r0, r0, lsl #8
    2c24:	00006f00 	andeq	r6, r0, r0, lsl #30
    2c28:	50000100 	andpl	r0, r0, r0, lsl #2
    2c2c:	0000006f 	andeq	r0, r0, pc, rrx
    2c30:	00000074 	andeq	r0, r0, r4, ror r0
    2c34:	01f30004 	mvnseq	r0, r4
    2c38:	00009f50 	andeq	r9, r0, r0, asr pc
	...
    2c48:	00380000 	eorseq	r0, r8, r0
    2c4c:	00010000 	andeq	r0, r1, r0
    2c50:	00003850 	andeq	r3, r0, r0, asr r8
    2c54:	00006400 	andeq	r6, r0, r0, lsl #8
    2c58:	f3000400 	vshl.u8	d0, d0, d0
    2c5c:	009f5001 	addseq	r5, pc, r1
	...
    2c6c:	47000000 	strmi	r0, [r0, -r0]
    2c70:	01000000 	mrseq	r0, (UNDEF: 0)
    2c74:	00475100 	subeq	r5, r7, r0, lsl #2
    2c78:	00640000 	rsbeq	r0, r4, r0
    2c7c:	00040000 	andeq	r0, r4, r0
    2c80:	9f5101f3 	svcls	0x005101f3
	...
    2c8c:	00340000 	eorseq	r0, r4, r0
    2c90:	00640000 	rsbeq	r0, r4, r0
    2c94:	00010000 	andeq	r0, r1, r0
    2c98:	00000054 	andeq	r0, r0, r4, asr r0
    2c9c:	00000000 	andeq	r0, r0, r0
    2ca0:	40000000 	andmi	r0, r0, r0
    2ca4:	64000000 	strvs	r0, [r0], #-0
    2ca8:	01000000 	mrseq	r0, (UNDEF: 0)
    2cac:	00005600 	andeq	r5, r0, r0, lsl #12
	...
    2cb8:	00010100 	andeq	r0, r1, r0, lsl #2
    2cbc:	00480000 	subeq	r0, r8, r0
    2cc0:	00500000 	subseq	r0, r0, r0
    2cc4:	00010000 	andeq	r0, r1, r0
    2cc8:	00005050 	andeq	r5, r0, r0, asr r0
    2ccc:	00005000 	andeq	r5, r0, r0
    2cd0:	51000100 	mrspl	r0, (UNDEF: 16)
    2cd4:	00000050 	andeq	r0, r0, r0, asr r0
    2cd8:	00000054 	andeq	r0, r0, r4, asr r0
    2cdc:	00750009 	rsbseq	r0, r5, r9
    2ce0:	71240074 			; <UNDEFINED> instruction: 0x71240074
    2ce4:	549f2100 	ldrpl	r2, [pc], #256	; 2cec <__code_start__-0x5314>
    2ce8:	5b000000 	blpl	2cf0 <__code_start__-0x5310>
    2cec:	01000000 	mrseq	r0, (UNDEF: 0)
    2cf0:	00005100 	andeq	r5, r0, r0, lsl #2
    2cf4:	00000000 	andeq	r0, r0, r0
	...

Disassembly of section .debug_ranges:

00000000 <.debug_ranges>:
   0:	0000023c 	andeq	r0, r0, ip, lsr r2
   4:	00000248 	andeq	r0, r0, r8, asr #4
   8:	00000248 	andeq	r0, r0, r8, asr #4
   c:	00000288 	andeq	r0, r0, r8, lsl #5
  10:	00000288 	andeq	r0, r0, r8, lsl #5
  14:	000002c8 	andeq	r0, r0, r8, asr #5
  18:	000002dc 	ldrdeq	r0, [r0], -ip
  1c:	000002e4 	andeq	r0, r0, r4, ror #5
	...
  28:	00000394 	muleq	r0, r4, r3
  2c:	0000039c 	muleq	r0, ip, r3
  30:	000003b0 			; <UNDEFINED> instruction: 0x000003b0
  34:	000003e0 	andeq	r0, r0, r0, ror #7
	...
  40:	00009d0c 	andeq	r9, r0, ip, lsl #26
  44:	00009d8c 	andeq	r9, r0, ip, lsl #27
	...
  50:	0000a0bc 	strheq	sl, [r0], -ip
  54:	0000a0e8 	andeq	sl, r0, r8, ror #1
	...
