
driver.elf:     file format elf32-littlearm


Disassembly of section .text:

00008000 <__code_start__>:
    8000:	ee110f50 	mrc	15, 0, r0, cr1, cr0, {2}
    8004:	e3800603 	orr	r0, r0, #3145728	; 0x300000
    8008:	e3800503 	orr	r0, r0, #12582912	; 0xc00000
    800c:	ee010f50 	mcr	15, 0, r0, cr1, cr0, {2}
    8010:	e3a00101 	mov	r0, #1073741824	; 0x40000000
    8014:	eee80a10 	vmsr	fpexc, r0
    8018:	e3a000db 	mov	r0, #219, 0	; 0xdb
    801c:	e121f000 	msr	CPSR_c, r0
    8020:	e3a0d601 	mov	sp, #1048576	; 0x100000
    8024:	e3a000d3 	mov	r0, #211, 0	; 0xd3
    8028:	e121f000 	msr	CPSR_c, r0
    802c:	e3a00013 	mov	r0, #19, 0
    8030:	e3800080 	orr	r0, r0, #128, 0	; 0x80
    8034:	e129f000 	msr	CPSR_fc, r0
    8038:	e3a01000 	mov	r1, #0, 0
    803c:	ee071f95 	mcr	15, 0, r1, cr7, cr5, {4}
    8040:	ee110f50 	mrc	15, 0, r0, cr1, cr0, {2}
    8044:	e3800603 	orr	r0, r0, #3145728	; 0x300000
    8048:	e3800503 	orr	r0, r0, #12582912	; 0xc00000
    804c:	ee010f50 	mcr	15, 0, r0, cr1, cr0, {2}
    8050:	e3a00101 	mov	r0, #1073741824	; 0x40000000
    8054:	eee80a10 	vmsr	fpexc, r0
    8058:	e3a000db 	mov	r0, #219, 0	; 0xdb
    805c:	e121f000 	msr	CPSR_c, r0
    8060:	e3a000d3 	mov	r0, #211, 0	; 0xd3
    8064:	e121f000 	msr	CPSR_c, r0
    8068:	e3a0d302 	mov	sp, #134217728	; 0x8000000
    806c:	e3a0b000 	mov	fp, #0, 0
    8070:	eb000463 	bl	9204 <_cstart>
    8074:	eb000483 	bl	9288 <rpi_reboot>

00008078 <PUT32>:
    8078:	e5801000 	str	r1, [r0]
    807c:	e12fff1e 	bx	lr

00008080 <GET32>:
    8080:	e5900000 	ldr	r0, [r0]
    8084:	e12fff1e 	bx	lr

00008088 <BRANCHTO>:
    8088:	e12fff10 	bx	r0

0000808c <m4add>:
    808c:	ee000a10 	vmov	s0, r0
    8090:	ee001a90 	vmov	s1, r1
    8094:	ee012a10 	vmov	s2, r2
    8098:	ee013a90 	vmov	s3, r3
    809c:	ee302a20 	vadd.f32	s4, s0, s1
    80a0:	ee712a21 	vadd.f32	s5, s2, s3
    80a4:	ee120a90 	vmov	r0, s5
    80a8:	e12fff1e 	bx	lr

000080ac <m4add2>:
    80ac:	ee000a10 	vmov	s0, r0
    80b0:	ee001a90 	vmov	s1, r1
    80b4:	ee012a10 	vmov	s2, r2
    80b8:	ee013a90 	vmov	s3, r3
    80bc:	ee302a20 	vadd.f32	s4, s0, s1
    80c0:	ee712a21 	vadd.f32	s5, s2, s3
    80c4:	ee120a10 	vmov	r0, s4
    80c8:	e12fff1e 	bx	lr

000080cc <m4vmov>:
    80cc:	ee020a10 	vmov	s4, r0
    80d0:	ee020a90 	vmov	s5, r0
    80d4:	e12fff1e 	bx	lr

000080d8 <notmain>:
    80d8:	e92d4070 	push	{r4, r5, r6, lr}
    80dc:	eb00006a 	bl	828c <ads1115_config>
    80e0:	e1a05000 	mov	r5, r0
    80e4:	e3a04000 	mov	r4, #0, 0
    80e8:	e3540009 	cmp	r4, #9, 0
    80ec:	ca000009 	bgt	8118 <notmain+0x40>
    80f0:	e3a01000 	mov	r1, #0, 0
    80f4:	e1a00005 	mov	r0, r5
    80f8:	eb000050 	bl	8240 <ads1115_read16>
    80fc:	e6bf1070 	sxth	r1, r0
    8100:	e59f0014 	ldr	r0, [pc, #20]	; 811c <notmain+0x44>
    8104:	eb000240 	bl	8a0c <printk>
    8108:	e3a00ffa 	mov	r0, #1000	; 0x3e8
    810c:	eb000487 	bl	9330 <delay_ms>
    8110:	e2844001 	add	r4, r4, #1, 0
    8114:	eafffff3 	b	80e8 <notmain+0x10>
    8118:	eb00042e 	bl	91d8 <clean_reboot>
    811c:	00009758 	andeq	r9, r0, r8, asr r7

00008120 <ads1115_print>:
    8120:	e92d4010 	push	{r4, lr}
    8124:	e1a04001 	mov	r4, r1
    8128:	e1a01000 	mov	r1, r0
    812c:	e59f0090 	ldr	r0, [pc, #144]	; 81c4 <ads1115_print+0xa4>
    8130:	eb000235 	bl	8a0c <printk>
    8134:	e1a017a4 	lsr	r1, r4, #15
    8138:	e2011001 	and	r1, r1, #1, 0
    813c:	e59f0084 	ldr	r0, [pc, #132]	; 81c8 <ads1115_print+0xa8>
    8140:	eb000231 	bl	8a0c <printk>
    8144:	e1a01624 	lsr	r1, r4, #12
    8148:	e2011007 	and	r1, r1, #7, 0
    814c:	e59f0078 	ldr	r0, [pc, #120]	; 81cc <ads1115_print+0xac>
    8150:	eb00022d 	bl	8a0c <printk>
    8154:	e1a014a4 	lsr	r1, r4, #9
    8158:	e2011007 	and	r1, r1, #7, 0
    815c:	e59f006c 	ldr	r0, [pc, #108]	; 81d0 <ads1115_print+0xb0>
    8160:	eb000229 	bl	8a0c <printk>
    8164:	e1a01424 	lsr	r1, r4, #8
    8168:	e2011001 	and	r1, r1, #1, 0
    816c:	e59f0060 	ldr	r0, [pc, #96]	; 81d4 <ads1115_print+0xb4>
    8170:	eb000225 	bl	8a0c <printk>
    8174:	e1a012a4 	lsr	r1, r4, #5
    8178:	e2011007 	and	r1, r1, #7, 0
    817c:	e59f0054 	ldr	r0, [pc, #84]	; 81d8 <ads1115_print+0xb8>
    8180:	eb000221 	bl	8a0c <printk>
    8184:	e1a01224 	lsr	r1, r4, #4
    8188:	e2011001 	and	r1, r1, #1, 0
    818c:	e59f0048 	ldr	r0, [pc, #72]	; 81dc <ads1115_print+0xbc>
    8190:	eb00021d 	bl	8a0c <printk>
    8194:	e1a011a4 	lsr	r1, r4, #3
    8198:	e2011001 	and	r1, r1, #1, 0
    819c:	e59f003c 	ldr	r0, [pc, #60]	; 81e0 <ads1115_print+0xc0>
    81a0:	eb000219 	bl	8a0c <printk>
    81a4:	e1a01124 	lsr	r1, r4, #2
    81a8:	e2011001 	and	r1, r1, #1, 0
    81ac:	e59f0030 	ldr	r0, [pc, #48]	; 81e4 <ads1115_print+0xc4>
    81b0:	eb000215 	bl	8a0c <printk>
    81b4:	e2041003 	and	r1, r4, #3, 0
    81b8:	e59f0028 	ldr	r0, [pc, #40]	; 81e8 <ads1115_print+0xc8>
    81bc:	eb000212 	bl	8a0c <printk>
    81c0:	e8bd8010 	pop	{r4, pc}
    81c4:	00009760 	andeq	r9, r0, r0, ror #14
    81c8:	00009770 	andeq	r9, r0, r0, ror r7
    81cc:	0000977c 	andeq	r9, r0, ip, ror r7
    81d0:	0000978c 	andeq	r9, r0, ip, lsl #15
    81d4:	0000979c 	muleq	r0, ip, r7
    81d8:	000097ac 	andeq	r9, r0, ip, lsr #15
    81dc:	000097bc 			; <UNDEFINED> instruction: 0x000097bc
    81e0:	000097d0 	ldrdeq	r9, [r0], -r0
    81e4:	000097e4 	andeq	r9, r0, r4, ror #15
    81e8:	000097f8 	strdeq	r9, [r0], -r8

000081ec <ads1115_reset>:
    81ec:	e52de004 	push	{lr}		; (str lr, [sp, #-4]!)
    81f0:	e24dd00c 	sub	sp, sp, #12, 0
    81f4:	e3a03006 	mov	r3, #6, 0
    81f8:	e5cd3007 	strb	r3, [sp, #7]
    81fc:	e3a02001 	mov	r2, #1, 0
    8200:	e28d1007 	add	r1, sp, #7, 0
    8204:	e3a00000 	mov	r0, #0, 0
    8208:	eb00016f 	bl	87cc <i2c_write>
    820c:	e28dd00c 	add	sp, sp, #12, 0
    8210:	e49df004 	pop	{pc}		; (ldr pc, [sp], #4)

00008214 <ads1115_write16>:
    8214:	e52de004 	push	{lr}		; (str lr, [sp, #-4]!)
    8218:	e24dd00c 	sub	sp, sp, #12, 0
    821c:	e5cd1004 	strb	r1, [sp, #4]
    8220:	e1a03422 	lsr	r3, r2, #8
    8224:	e5cd3005 	strb	r3, [sp, #5]
    8228:	e5cd2006 	strb	r2, [sp, #6]
    822c:	e3a02003 	mov	r2, #3, 0
    8230:	e28d1004 	add	r1, sp, #4, 0
    8234:	eb000164 	bl	87cc <i2c_write>
    8238:	e28dd00c 	add	sp, sp, #12, 0
    823c:	e49df004 	pop	{pc}		; (ldr pc, [sp], #4)

00008240 <ads1115_read16>:
    8240:	e92d4010 	push	{r4, lr}
    8244:	e24dd010 	sub	sp, sp, #16, 0
    8248:	e1a04000 	mov	r4, r0
    824c:	e5cd1007 	strb	r1, [sp, #7]
    8250:	e3a02001 	mov	r2, #1, 0
    8254:	e28d1007 	add	r1, sp, #7, 0
    8258:	eb00015b 	bl	87cc <i2c_write>
    825c:	e3a03000 	mov	r3, #0, 0
    8260:	e5cd300d 	strb	r3, [sp, #13]
    8264:	e5cd300c 	strb	r3, [sp, #12]
    8268:	e3a02002 	mov	r2, #2, 0
    826c:	e28d100c 	add	r1, sp, #12, 0
    8270:	e1a00004 	mov	r0, r4
    8274:	eb000183 	bl	8888 <i2c_read>
    8278:	e5dd000c 	ldrb	r0, [sp, #12]
    827c:	e5dd300d 	ldrb	r3, [sp, #13]
    8280:	e1830400 	orr	r0, r3, r0, lsl #8
    8284:	e28dd010 	add	sp, sp, #16, 0
    8288:	e8bd8010 	pop	{r4, pc}

0000828c <ads1115_config>:
    828c:	e92d4030 	push	{r4, r5, lr}
    8290:	e24dd00c 	sub	sp, sp, #12, 0
    8294:	e3a0001e 	mov	r0, #30, 0
    8298:	eb000424 	bl	9330 <delay_ms>
    829c:	eb0001ac 	bl	8954 <i2c_init>
    82a0:	e3a0001e 	mov	r0, #30, 0
    82a4:	eb000421 	bl	9330 <delay_ms>
    82a8:	ebffffcf 	bl	81ec <ads1115_reset>
    82ac:	e3a00019 	mov	r0, #25, 0
    82b0:	eb000415 	bl	930c <delay_us>
    82b4:	e3a01001 	mov	r1, #1, 0
    82b8:	e3a00048 	mov	r0, #72, 0	; 0x48
    82bc:	ebffffdf 	bl	8240 <ads1115_read16>
    82c0:	e1a04000 	mov	r4, r0
    82c4:	e1a05420 	lsr	r5, r0, #8
    82c8:	e6ff3075 	uxth	r3, r5
    82cc:	e6ef2070 	uxtb	r2, r0
    82d0:	e1a01000 	mov	r1, r0
    82d4:	e59f017c 	ldr	r0, [pc, #380]	; 8458 <ads1115_config+0x1cc>
    82d8:	eb0001cb 	bl	8a0c <printk>
    82dc:	e1a01004 	mov	r1, r4
    82e0:	e59f0174 	ldr	r0, [pc, #372]	; 845c <ads1115_config+0x1d0>
    82e4:	ebffff8d 	bl	8120 <ads1115_print>
    82e8:	e3150001 	tst	r5, #1, 0
    82ec:	0a000029 	beq	8398 <ads1115_config+0x10c>
    82f0:	e1a032a4 	lsr	r3, r4, #5
    82f4:	e2033007 	and	r3, r3, #7, 0
    82f8:	e3530004 	cmp	r3, #4, 0
    82fc:	1a00002d 	bne	83b8 <ads1115_config+0x12c>
    8300:	e1a044a4 	lsr	r4, r4, #9
    8304:	e2044007 	and	r4, r4, #7, 0
    8308:	e3540002 	cmp	r4, #2, 0
    830c:	1a000031 	bne	83d8 <ads1115_config+0x14c>
    8310:	e59f4148 	ldr	r4, [pc, #328]	; 8460 <ads1115_config+0x1d4>
    8314:	e1a01004 	mov	r1, r4
    8318:	e59f0144 	ldr	r0, [pc, #324]	; 8464 <ads1115_config+0x1d8>
    831c:	eb0001ba 	bl	8a0c <printk>
    8320:	e1a02004 	mov	r2, r4
    8324:	e3a01001 	mov	r1, #1, 0
    8328:	e3a00048 	mov	r0, #72, 0	; 0x48
    832c:	ebffffb8 	bl	8214 <ads1115_write16>
    8330:	e3a01001 	mov	r1, #1, 0
    8334:	e3a00048 	mov	r0, #72, 0	; 0x48
    8338:	ebffffc0 	bl	8240 <ads1115_read16>
    833c:	e1a04000 	mov	r4, r0
    8340:	e1a05420 	lsr	r5, r0, #8
    8344:	e6ef3070 	uxtb	r3, r0
    8348:	e6ff2075 	uxth	r2, r5
    834c:	e1a01000 	mov	r1, r0
    8350:	e59f0110 	ldr	r0, [pc, #272]	; 8468 <ads1115_config+0x1dc>
    8354:	eb0001ac 	bl	8a0c <printk>
    8358:	e1a01004 	mov	r1, r4
    835c:	e59f0108 	ldr	r0, [pc, #264]	; 846c <ads1115_config+0x1e0>
    8360:	ebffff6e 	bl	8120 <ads1115_print>
    8364:	e3150001 	tst	r5, #1, 0
    8368:	1a000022 	bne	83f8 <ads1115_config+0x16c>
    836c:	e1a034a4 	lsr	r3, r4, #9
    8370:	e2033007 	and	r3, r3, #7, 0
    8374:	e3530001 	cmp	r3, #1, 0
    8378:	1a000026 	bne	8418 <ads1115_config+0x18c>
    837c:	e1a042a4 	lsr	r4, r4, #5
    8380:	e2044007 	and	r4, r4, #7, 0
    8384:	e3540007 	cmp	r4, #7, 0
    8388:	1a00002a 	bne	8438 <ads1115_config+0x1ac>
    838c:	e3a00048 	mov	r0, #72, 0	; 0x48
    8390:	e28dd00c 	add	sp, sp, #12, 0
    8394:	e8bd8030 	pop	{r4, r5, pc}
    8398:	e59f30d0 	ldr	r3, [pc, #208]	; 8470 <ads1115_config+0x1e4>
    839c:	e58d3000 	str	r3, [sp]
    83a0:	e3a03075 	mov	r3, #117, 0	; 0x75
    83a4:	e59f20c8 	ldr	r2, [pc, #200]	; 8474 <ads1115_config+0x1e8>
    83a8:	e59f10c8 	ldr	r1, [pc, #200]	; 8478 <ads1115_config+0x1ec>
    83ac:	e59f00c8 	ldr	r0, [pc, #200]	; 847c <ads1115_config+0x1f0>
    83b0:	eb000195 	bl	8a0c <printk>
    83b4:	eb000387 	bl	91d8 <clean_reboot>
    83b8:	e59f30c0 	ldr	r3, [pc, #192]	; 8480 <ads1115_config+0x1f4>
    83bc:	e58d3000 	str	r3, [sp]
    83c0:	e3a03077 	mov	r3, #119, 0	; 0x77
    83c4:	e59f20a8 	ldr	r2, [pc, #168]	; 8474 <ads1115_config+0x1e8>
    83c8:	e59f10a8 	ldr	r1, [pc, #168]	; 8478 <ads1115_config+0x1ec>
    83cc:	e59f00a8 	ldr	r0, [pc, #168]	; 847c <ads1115_config+0x1f0>
    83d0:	eb00018d 	bl	8a0c <printk>
    83d4:	eb00037f 	bl	91d8 <clean_reboot>
    83d8:	e59f30a4 	ldr	r3, [pc, #164]	; 8484 <ads1115_config+0x1f8>
    83dc:	e58d3000 	str	r3, [sp]
    83e0:	e3a03079 	mov	r3, #121, 0	; 0x79
    83e4:	e59f2088 	ldr	r2, [pc, #136]	; 8474 <ads1115_config+0x1e8>
    83e8:	e59f1088 	ldr	r1, [pc, #136]	; 8478 <ads1115_config+0x1ec>
    83ec:	e59f0088 	ldr	r0, [pc, #136]	; 847c <ads1115_config+0x1f0>
    83f0:	eb000185 	bl	8a0c <printk>
    83f4:	eb000377 	bl	91d8 <clean_reboot>
    83f8:	e59f3088 	ldr	r3, [pc, #136]	; 8488 <ads1115_config+0x1fc>
    83fc:	e58d3000 	str	r3, [sp]
    8400:	e3a0308d 	mov	r3, #141, 0	; 0x8d
    8404:	e59f2068 	ldr	r2, [pc, #104]	; 8474 <ads1115_config+0x1e8>
    8408:	e59f1068 	ldr	r1, [pc, #104]	; 8478 <ads1115_config+0x1ec>
    840c:	e59f0068 	ldr	r0, [pc, #104]	; 847c <ads1115_config+0x1f0>
    8410:	eb00017d 	bl	8a0c <printk>
    8414:	eb00036f 	bl	91d8 <clean_reboot>
    8418:	e59f306c 	ldr	r3, [pc, #108]	; 848c <ads1115_config+0x200>
    841c:	e58d3000 	str	r3, [sp]
    8420:	e3a0308e 	mov	r3, #142, 0	; 0x8e
    8424:	e59f2048 	ldr	r2, [pc, #72]	; 8474 <ads1115_config+0x1e8>
    8428:	e59f1048 	ldr	r1, [pc, #72]	; 8478 <ads1115_config+0x1ec>
    842c:	e59f0048 	ldr	r0, [pc, #72]	; 847c <ads1115_config+0x1f0>
    8430:	eb000175 	bl	8a0c <printk>
    8434:	eb000367 	bl	91d8 <clean_reboot>
    8438:	e59f3050 	ldr	r3, [pc, #80]	; 8490 <ads1115_config+0x204>
    843c:	e58d3000 	str	r3, [sp]
    8440:	e3a0308f 	mov	r3, #143, 0	; 0x8f
    8444:	e59f2028 	ldr	r2, [pc, #40]	; 8474 <ads1115_config+0x1e8>
    8448:	e59f1028 	ldr	r1, [pc, #40]	; 8478 <ads1115_config+0x1ec>
    844c:	e59f0028 	ldr	r0, [pc, #40]	; 847c <ads1115_config+0x1f0>
    8450:	eb00016d 	bl	8a0c <printk>
    8454:	eb00035f 	bl	91d8 <clean_reboot>
    8458:	0000980c 	andeq	r9, r0, ip, lsl #16
    845c:	00009838 	andeq	r9, r0, r8, lsr r8
    8460:	000042e0 	andeq	r4, r0, r0, ror #5
    8464:	0000989c 	muleq	r0, ip, r8
    8468:	000098b4 			; <UNDEFINED> instruction: 0x000098b4
    846c:	000098dc 	ldrdeq	r9, [r0], -ip
    8470:	00009864 	andeq	r9, r0, r4, ror #16
    8474:	00009914 	andeq	r9, r0, r4, lsl r9
    8478:	00009840 	andeq	r9, r0, r0, asr #16
    847c:	00009850 	andeq	r9, r0, r0, asr r8
    8480:	00009874 	andeq	r9, r0, r4, ror r8
    8484:	00009888 	andeq	r9, r0, r8, lsl #17
    8488:	000098e4 	andeq	r9, r0, r4, ror #17
    848c:	000098f4 	strdeq	r9, [r0], -r4
    8490:	00009904 	andeq	r9, r0, r4, lsl #18

00008494 <clear_c>:
    8494:	e3c00b1e 	bic	r0, r0, #30720	; 0x7800
    8498:	e3c0004e 	bic	r0, r0, #78, 0	; 0x4e
    849c:	e6ff0070 	uxth	r0, r0
    84a0:	e12fff1e 	bx	lr

000084a4 <clear_s>:
    84a4:	e1a00b00 	lsl	r0, r0, #22
    84a8:	e1a00b20 	lsr	r0, r0, #22
    84ac:	e12fff1e 	bx	lr

000084b0 <xfer_end>:
    84b0:	e52de004 	push	{lr}		; (str lr, [sp, #-4]!)
    84b4:	e24dd00c 	sub	sp, sp, #12, 0
    84b8:	e59f30c4 	ldr	r3, [pc, #196]	; 8584 <xfer_end+0xd4>
    84bc:	e5933004 	ldr	r3, [r3, #4]
    84c0:	e3130002 	tst	r3, #2, 0
    84c4:	1a000013 	bne	8518 <xfer_end+0x68>
    84c8:	e59f30b4 	ldr	r3, [pc, #180]	; 8584 <xfer_end+0xd4>
    84cc:	e5933004 	ldr	r3, [r3, #4]
    84d0:	e3130c01 	tst	r3, #256	; 0x100
    84d4:	1a000009 	bne	8500 <xfer_end+0x50>
    84d8:	e59f30a4 	ldr	r3, [pc, #164]	; 8584 <xfer_end+0xd4>
    84dc:	e5933004 	ldr	r3, [r3, #4]
    84e0:	e3130c02 	tst	r3, #512	; 0x200
    84e4:	0afffff3 	beq	84b8 <xfer_end+0x8>
    84e8:	e59f3098 	ldr	r3, [pc, #152]	; 8588 <xfer_end+0xd8>
    84ec:	e59f2098 	ldr	r2, [pc, #152]	; 858c <xfer_end+0xdc>
    84f0:	e59f1098 	ldr	r1, [pc, #152]	; 8590 <xfer_end+0xe0>
    84f4:	e59f0098 	ldr	r0, [pc, #152]	; 8594 <xfer_end+0xe4>
    84f8:	eb000143 	bl	8a0c <printk>
    84fc:	eb000335 	bl	91d8 <clean_reboot>
    8500:	e59f3080 	ldr	r3, [pc, #128]	; 8588 <xfer_end+0xd8>
    8504:	e59f2080 	ldr	r2, [pc, #128]	; 858c <xfer_end+0xdc>
    8508:	e59f1080 	ldr	r1, [pc, #128]	; 8590 <xfer_end+0xe0>
    850c:	e59f0084 	ldr	r0, [pc, #132]	; 8598 <xfer_end+0xe8>
    8510:	eb00013d 	bl	8a0c <printk>
    8514:	eb00032f 	bl	91d8 <clean_reboot>
    8518:	e59f3064 	ldr	r3, [pc, #100]	; 8584 <xfer_end+0xd4>
    851c:	e5933004 	ldr	r3, [r3, #4]
    8520:	e3130001 	tst	r3, #1, 0
    8524:	1a000006 	bne	8544 <xfer_end+0x94>
    8528:	e59f3054 	ldr	r3, [pc, #84]	; 8584 <xfer_end+0xd4>
    852c:	e5933004 	ldr	r3, [r3, #4]
    8530:	e3130c01 	tst	r3, #256	; 0x100
    8534:	1a00000a 	bne	8564 <xfer_end+0xb4>
    8538:	eb000341 	bl	9244 <dev_barrier>
    853c:	e28dd00c 	add	sp, sp, #12, 0
    8540:	e49df004 	pop	{pc}		; (ldr pc, [sp], #4)
    8544:	e59f3050 	ldr	r3, [pc, #80]	; 859c <xfer_end+0xec>
    8548:	e58d3000 	str	r3, [sp]
    854c:	e59f304c 	ldr	r3, [pc, #76]	; 85a0 <xfer_end+0xf0>
    8550:	e59f2034 	ldr	r2, [pc, #52]	; 858c <xfer_end+0xdc>
    8554:	e59f1034 	ldr	r1, [pc, #52]	; 8590 <xfer_end+0xe0>
    8558:	e59f0044 	ldr	r0, [pc, #68]	; 85a4 <xfer_end+0xf4>
    855c:	eb00012a 	bl	8a0c <printk>
    8560:	eb00031c 	bl	91d8 <clean_reboot>
    8564:	e59f303c 	ldr	r3, [pc, #60]	; 85a8 <xfer_end+0xf8>
    8568:	e58d3000 	str	r3, [sp]
    856c:	e59f3038 	ldr	r3, [pc, #56]	; 85ac <xfer_end+0xfc>
    8570:	e59f2014 	ldr	r2, [pc, #20]	; 858c <xfer_end+0xdc>
    8574:	e59f1014 	ldr	r1, [pc, #20]	; 8590 <xfer_end+0xe0>
    8578:	e59f0024 	ldr	r0, [pc, #36]	; 85a4 <xfer_end+0xf4>
    857c:	eb000122 	bl	8a0c <printk>
    8580:	eb000314 	bl	91d8 <clean_reboot>
    8584:	20804000 	addcs	r4, r0, r0
    8588:	00000116 	andeq	r0, r0, r6, lsl r1
    858c:	000099f0 	strdeq	r9, [r0], -r0
    8590:	00009924 	andeq	r9, r0, r4, lsr #18
    8594:	00009954 	andeq	r9, r0, r4, asr r9
    8598:	00009930 	andeq	r9, r0, r0, lsr r9
    859c:	00009984 	andeq	r9, r0, r4, lsl #19
    85a0:	00000119 	andeq	r0, r0, r9, lsl r1
    85a4:	00009850 	andeq	r9, r0, r0, asr r8
    85a8:	00009998 	muleq	r0, r8, r9
    85ac:	0000011b 	andeq	r0, r0, fp, lsl r1

000085b0 <read_s>:
    85b0:	e92d4010 	push	{r4, lr}
    85b4:	ebfffeb1 	bl	8080 <GET32>
    85b8:	ebffffb9 	bl	84a4 <clear_s>
    85bc:	e8bd8010 	pop	{r4, pc}

000085c0 <reset_status>:
    85c0:	e92d4010 	push	{r4, lr}
    85c4:	e59f4018 	ldr	r4, [pc, #24]	; 85e4 <reset_status+0x24>
    85c8:	e1a00004 	mov	r0, r4
    85cc:	ebfffff7 	bl	85b0 <read_s>
    85d0:	e3801c03 	orr	r1, r0, #768	; 0x300
    85d4:	e3811002 	orr	r1, r1, #2, 0
    85d8:	e1a00004 	mov	r0, r4
    85dc:	ebfffea5 	bl	8078 <PUT32>
    85e0:	e8bd8010 	pop	{r4, pc}
    85e4:	20804004 	addcs	r4, r0, r4

000085e8 <read_c>:
    85e8:	e92d4010 	push	{r4, lr}
    85ec:	ebfffea3 	bl	8080 <GET32>
    85f0:	ebffffa7 	bl	8494 <clear_c>
    85f4:	e8bd8010 	pop	{r4, pc}

000085f8 <xfer_start>:
    85f8:	e92d4070 	push	{r4, r5, r6, lr}
    85fc:	e24dd008 	sub	sp, sp, #8, 0
    8600:	e1a06000 	mov	r6, r0
    8604:	e1a05001 	mov	r5, r1
    8608:	e1a04002 	mov	r4, r2
    860c:	eb00030c 	bl	9244 <dev_barrier>
    8610:	e59f3180 	ldr	r3, [pc, #384]	; 8798 <xfer_start+0x1a0>
    8614:	e5933004 	ldr	r3, [r3, #4]
    8618:	e3130001 	tst	r3, #1, 0
    861c:	0a000013 	beq	8670 <xfer_start+0x78>
    8620:	e59f3170 	ldr	r3, [pc, #368]	; 8798 <xfer_start+0x1a0>
    8624:	e5933004 	ldr	r3, [r3, #4]
    8628:	e3130c01 	tst	r3, #256	; 0x100
    862c:	1a000009 	bne	8658 <xfer_start+0x60>
    8630:	e59f3160 	ldr	r3, [pc, #352]	; 8798 <xfer_start+0x1a0>
    8634:	e5933004 	ldr	r3, [r3, #4]
    8638:	e3130c02 	tst	r3, #512	; 0x200
    863c:	0afffff3 	beq	8610 <xfer_start+0x18>
    8640:	e3a030f6 	mov	r3, #246, 0	; 0xf6
    8644:	e59f2150 	ldr	r2, [pc, #336]	; 879c <xfer_start+0x1a4>
    8648:	e59f1150 	ldr	r1, [pc, #336]	; 87a0 <xfer_start+0x1a8>
    864c:	e59f0150 	ldr	r0, [pc, #336]	; 87a4 <xfer_start+0x1ac>
    8650:	eb0000ed 	bl	8a0c <printk>
    8654:	eb0002df 	bl	91d8 <clean_reboot>
    8658:	e3a030f6 	mov	r3, #246, 0	; 0xf6
    865c:	e59f2138 	ldr	r2, [pc, #312]	; 879c <xfer_start+0x1a4>
    8660:	e59f1138 	ldr	r1, [pc, #312]	; 87a0 <xfer_start+0x1a8>
    8664:	e59f013c 	ldr	r0, [pc, #316]	; 87a8 <xfer_start+0x1b0>
    8668:	eb0000e7 	bl	8a0c <printk>
    866c:	eb0002d9 	bl	91d8 <clean_reboot>
    8670:	e59f3120 	ldr	r3, [pc, #288]	; 8798 <xfer_start+0x1a0>
    8674:	e5933004 	ldr	r3, [r3, #4]
    8678:	e3130040 	tst	r3, #64, 0	; 0x40
    867c:	0a000025 	beq	8718 <xfer_start+0x120>
    8680:	ebffffce 	bl	85c0 <reset_status>
    8684:	e1b033a6 	lsrs	r3, r6, #7
    8688:	1a00002a 	bne	8738 <xfer_start+0x140>
    868c:	e1a01006 	mov	r1, r6
    8690:	e59f0114 	ldr	r0, [pc, #276]	; 87ac <xfer_start+0x1b4>
    8694:	ebfffe77 	bl	8078 <PUT32>
    8698:	e1b03825 	lsrs	r3, r5, #16
    869c:	1a00002d 	bne	8758 <xfer_start+0x160>
    86a0:	e1a01005 	mov	r1, r5
    86a4:	e59f0104 	ldr	r0, [pc, #260]	; 87b0 <xfer_start+0x1b8>
    86a8:	ebfffe72 	bl	8078 <PUT32>
    86ac:	e59f50e4 	ldr	r5, [pc, #228]	; 8798 <xfer_start+0x1a0>
    86b0:	e1a00005 	mov	r0, r5
    86b4:	ebffffcb 	bl	85e8 <read_c>
    86b8:	e38030b0 	orr	r3, r0, #176, 0	; 0xb0
    86bc:	e2041001 	and	r1, r4, #1, 0
    86c0:	e3c33001 	bic	r3, r3, #1, 0
    86c4:	e1811003 	orr	r1, r1, r3
    86c8:	e1a00005 	mov	r0, r5
    86cc:	ebfffe69 	bl	8078 <PUT32>
    86d0:	e59f30c0 	ldr	r3, [pc, #192]	; 8798 <xfer_start+0x1a0>
    86d4:	e5933004 	ldr	r3, [r3, #4]
    86d8:	e3130001 	tst	r3, #1, 0
    86dc:	1a00002b 	bne	8790 <xfer_start+0x198>
    86e0:	e59f30b0 	ldr	r3, [pc, #176]	; 8798 <xfer_start+0x1a0>
    86e4:	e5933004 	ldr	r3, [r3, #4]
    86e8:	e3130c01 	tst	r3, #256	; 0x100
    86ec:	1a000021 	bne	8778 <xfer_start+0x180>
    86f0:	e59f30a0 	ldr	r3, [pc, #160]	; 8798 <xfer_start+0x1a0>
    86f4:	e5933004 	ldr	r3, [r3, #4]
    86f8:	e3130c02 	tst	r3, #512	; 0x200
    86fc:	0afffff3 	beq	86d0 <xfer_start+0xd8>
    8700:	e59f30ac 	ldr	r3, [pc, #172]	; 87b4 <xfer_start+0x1bc>
    8704:	e59f2090 	ldr	r2, [pc, #144]	; 879c <xfer_start+0x1a4>
    8708:	e59f1090 	ldr	r1, [pc, #144]	; 87a0 <xfer_start+0x1a8>
    870c:	e59f0090 	ldr	r0, [pc, #144]	; 87a4 <xfer_start+0x1ac>
    8710:	eb0000bd 	bl	8a0c <printk>
    8714:	eb0002af 	bl	91d8 <clean_reboot>
    8718:	e59f3098 	ldr	r3, [pc, #152]	; 87b8 <xfer_start+0x1c0>
    871c:	e58d3000 	str	r3, [sp]
    8720:	e3a030f9 	mov	r3, #249, 0	; 0xf9
    8724:	e59f2070 	ldr	r2, [pc, #112]	; 879c <xfer_start+0x1a4>
    8728:	e59f1070 	ldr	r1, [pc, #112]	; 87a0 <xfer_start+0x1a8>
    872c:	e59f0088 	ldr	r0, [pc, #136]	; 87bc <xfer_start+0x1c4>
    8730:	eb0000b5 	bl	8a0c <printk>
    8734:	eb0002a7 	bl	91d8 <clean_reboot>
    8738:	e59f3080 	ldr	r3, [pc, #128]	; 87c0 <xfer_start+0x1c8>
    873c:	e58d3000 	str	r3, [sp]
    8740:	e3a030fe 	mov	r3, #254, 0	; 0xfe
    8744:	e59f2050 	ldr	r2, [pc, #80]	; 879c <xfer_start+0x1a4>
    8748:	e59f1050 	ldr	r1, [pc, #80]	; 87a0 <xfer_start+0x1a8>
    874c:	e59f0068 	ldr	r0, [pc, #104]	; 87bc <xfer_start+0x1c4>
    8750:	eb0000ad 	bl	8a0c <printk>
    8754:	eb00029f 	bl	91d8 <clean_reboot>
    8758:	e59f3064 	ldr	r3, [pc, #100]	; 87c4 <xfer_start+0x1cc>
    875c:	e58d3000 	str	r3, [sp]
    8760:	e59f3060 	ldr	r3, [pc, #96]	; 87c8 <xfer_start+0x1d0>
    8764:	e59f2030 	ldr	r2, [pc, #48]	; 879c <xfer_start+0x1a4>
    8768:	e59f1030 	ldr	r1, [pc, #48]	; 87a0 <xfer_start+0x1a8>
    876c:	e59f0048 	ldr	r0, [pc, #72]	; 87bc <xfer_start+0x1c4>
    8770:	eb0000a5 	bl	8a0c <printk>
    8774:	eb000297 	bl	91d8 <clean_reboot>
    8778:	e59f3034 	ldr	r3, [pc, #52]	; 87b4 <xfer_start+0x1bc>
    877c:	e59f2018 	ldr	r2, [pc, #24]	; 879c <xfer_start+0x1a4>
    8780:	e59f1018 	ldr	r1, [pc, #24]	; 87a0 <xfer_start+0x1a8>
    8784:	e59f001c 	ldr	r0, [pc, #28]	; 87a8 <xfer_start+0x1b0>
    8788:	eb00009f 	bl	8a0c <printk>
    878c:	eb000291 	bl	91d8 <clean_reboot>
    8790:	e28dd008 	add	sp, sp, #8, 0
    8794:	e8bd8070 	pop	{r4, r5, r6, pc}
    8798:	20804000 	addcs	r4, r0, r0
    879c:	000099fc 	strdeq	r9, [r0], -ip
    87a0:	00009924 	andeq	r9, r0, r4, lsr #18
    87a4:	00009954 	andeq	r9, r0, r4, asr r9
    87a8:	00009930 	andeq	r9, r0, r0, lsr r9
    87ac:	2080400c 	addcs	r4, r0, ip
    87b0:	20804008 	addcs	r4, r0, r8
    87b4:	00000111 	andeq	r0, r0, r1, lsl r1
    87b8:	000099ac 	andeq	r9, r0, ip, lsr #19
    87bc:	00009850 	andeq	r9, r0, r0, asr r8
    87c0:	000099c4 	andeq	r9, r0, r4, asr #19
    87c4:	000099d8 	ldrdeq	r9, [r0], -r8
    87c8:	00000102 	andeq	r0, r0, r2, lsl #2

000087cc <i2c_write>:
    87cc:	e92d4070 	push	{r4, r5, r6, lr}
    87d0:	e1a05001 	mov	r5, r1
    87d4:	e1a04002 	mov	r4, r2
    87d8:	e3a02000 	mov	r2, #0, 0
    87dc:	e1a01004 	mov	r1, r4
    87e0:	ebffff84 	bl	85f8 <xfer_start>
    87e4:	e3a02000 	mov	r2, #0, 0
    87e8:	ea000009 	b	8814 <i2c_write+0x48>
    87ec:	e59f307c 	ldr	r3, [pc, #124]	; 8870 <i2c_write+0xa4>
    87f0:	e59f207c 	ldr	r2, [pc, #124]	; 8874 <i2c_write+0xa8>
    87f4:	e59f107c 	ldr	r1, [pc, #124]	; 8878 <i2c_write+0xac>
    87f8:	e59f007c 	ldr	r0, [pc, #124]	; 887c <i2c_write+0xb0>
    87fc:	eb000082 	bl	8a0c <printk>
    8800:	eb000274 	bl	91d8 <clean_reboot>
    8804:	e7d51002 	ldrb	r1, [r5, r2]
    8808:	e59f3070 	ldr	r3, [pc, #112]	; 8880 <i2c_write+0xb4>
    880c:	e5831010 	str	r1, [r3, #16]
    8810:	e2822001 	add	r2, r2, #1, 0
    8814:	e1520004 	cmp	r2, r4
    8818:	2a000011 	bcs	8864 <i2c_write+0x98>
    881c:	e59f305c 	ldr	r3, [pc, #92]	; 8880 <i2c_write+0xb4>
    8820:	e5933004 	ldr	r3, [r3, #4]
    8824:	e3130010 	tst	r3, #16, 0
    8828:	1afffff5 	bne	8804 <i2c_write+0x38>
    882c:	e59f304c 	ldr	r3, [pc, #76]	; 8880 <i2c_write+0xb4>
    8830:	e5933004 	ldr	r3, [r3, #4]
    8834:	e3130c01 	tst	r3, #256	; 0x100
    8838:	1affffeb 	bne	87ec <i2c_write+0x20>
    883c:	e59f303c 	ldr	r3, [pc, #60]	; 8880 <i2c_write+0xb4>
    8840:	e5933004 	ldr	r3, [r3, #4]
    8844:	e3130c02 	tst	r3, #512	; 0x200
    8848:	0afffff3 	beq	881c <i2c_write+0x50>
    884c:	e59f301c 	ldr	r3, [pc, #28]	; 8870 <i2c_write+0xa4>
    8850:	e59f201c 	ldr	r2, [pc, #28]	; 8874 <i2c_write+0xa8>
    8854:	e59f101c 	ldr	r1, [pc, #28]	; 8878 <i2c_write+0xac>
    8858:	e59f0024 	ldr	r0, [pc, #36]	; 8884 <i2c_write+0xb8>
    885c:	eb00006a 	bl	8a0c <printk>
    8860:	eb00025c 	bl	91d8 <clean_reboot>
    8864:	ebffff11 	bl	84b0 <xfer_end>
    8868:	e3a00001 	mov	r0, #1, 0
    886c:	e8bd8070 	pop	{r4, r5, r6, pc}
    8870:	00000126 	andeq	r0, r0, r6, lsr #2
    8874:	00009a08 	andeq	r9, r0, r8, lsl #20
    8878:	00009924 	andeq	r9, r0, r4, lsr #18
    887c:	00009930 	andeq	r9, r0, r0, lsr r9
    8880:	20804000 	addcs	r4, r0, r0
    8884:	00009954 	andeq	r9, r0, r4, asr r9

00008888 <i2c_read>:
    8888:	e92d4070 	push	{r4, r5, r6, lr}
    888c:	e1a05001 	mov	r5, r1
    8890:	e1a04002 	mov	r4, r2
    8894:	e3a02001 	mov	r2, #1, 0
    8898:	e1a01004 	mov	r1, r4
    889c:	ebffff55 	bl	85f8 <xfer_start>
    88a0:	e3a02000 	mov	r2, #0, 0
    88a4:	ea000009 	b	88d0 <i2c_read+0x48>
    88a8:	e59f307c 	ldr	r3, [pc, #124]	; 892c <i2c_read+0xa4>
    88ac:	e59f207c 	ldr	r2, [pc, #124]	; 8930 <i2c_read+0xa8>
    88b0:	e59f107c 	ldr	r1, [pc, #124]	; 8934 <i2c_read+0xac>
    88b4:	e59f007c 	ldr	r0, [pc, #124]	; 8938 <i2c_read+0xb0>
    88b8:	eb000053 	bl	8a0c <printk>
    88bc:	eb000245 	bl	91d8 <clean_reboot>
    88c0:	e59f3074 	ldr	r3, [pc, #116]	; 893c <i2c_read+0xb4>
    88c4:	e5933010 	ldr	r3, [r3, #16]
    88c8:	e7c53002 	strb	r3, [r5, r2]
    88cc:	e2822001 	add	r2, r2, #1, 0
    88d0:	e1520004 	cmp	r2, r4
    88d4:	2a000011 	bcs	8920 <i2c_read+0x98>
    88d8:	e59f305c 	ldr	r3, [pc, #92]	; 893c <i2c_read+0xb4>
    88dc:	e5933004 	ldr	r3, [r3, #4]
    88e0:	e3130020 	tst	r3, #32, 0
    88e4:	1afffff5 	bne	88c0 <i2c_read+0x38>
    88e8:	e59f304c 	ldr	r3, [pc, #76]	; 893c <i2c_read+0xb4>
    88ec:	e5933004 	ldr	r3, [r3, #4]
    88f0:	e3130c01 	tst	r3, #256	; 0x100
    88f4:	1affffeb 	bne	88a8 <i2c_read+0x20>
    88f8:	e59f303c 	ldr	r3, [pc, #60]	; 893c <i2c_read+0xb4>
    88fc:	e5933004 	ldr	r3, [r3, #4]
    8900:	e3130c02 	tst	r3, #512	; 0x200
    8904:	0afffff3 	beq	88d8 <i2c_read+0x50>
    8908:	e59f301c 	ldr	r3, [pc, #28]	; 892c <i2c_read+0xa4>
    890c:	e59f201c 	ldr	r2, [pc, #28]	; 8930 <i2c_read+0xa8>
    8910:	e59f101c 	ldr	r1, [pc, #28]	; 8934 <i2c_read+0xac>
    8914:	e59f0024 	ldr	r0, [pc, #36]	; 8940 <i2c_read+0xb8>
    8918:	eb00003b 	bl	8a0c <printk>
    891c:	eb00022d 	bl	91d8 <clean_reboot>
    8920:	ebfffee2 	bl	84b0 <xfer_end>
    8924:	e3a00001 	mov	r0, #1, 0
    8928:	e8bd8070 	pop	{r4, r5, r6, pc}
    892c:	00000137 	andeq	r0, r0, r7, lsr r1
    8930:	00009a14 	andeq	r9, r0, r4, lsl sl
    8934:	00009924 	andeq	r9, r0, r4, lsr #18
    8938:	00009930 	andeq	r9, r0, r0, lsr r9
    893c:	20804000 	addcs	r4, r0, r0
    8940:	00009954 	andeq	r9, r0, r4, asr r9

00008944 <i2c_is_initialized>:
    8944:	e59f3004 	ldr	r3, [pc, #4]	; 8950 <i2c_is_initialized+0xc>
    8948:	e5930000 	ldr	r0, [r3]
    894c:	e12fff1e 	bx	lr
    8950:	00009ba4 	andeq	r9, r0, r4, lsr #23

00008954 <i2c_init>:
    8954:	e92d4010 	push	{r4, lr}
    8958:	e24dd008 	sub	sp, sp, #8, 0
    895c:	eb000238 	bl	9244 <dev_barrier>
    8960:	e3a01004 	mov	r1, #4, 0
    8964:	e3a00002 	mov	r0, #2, 0
    8968:	eb00027c 	bl	9360 <gpio_set_function>
    896c:	e3a01004 	mov	r1, #4, 0
    8970:	e3a00003 	mov	r0, #3, 0
    8974:	eb000279 	bl	9360 <gpio_set_function>
    8978:	eb000231 	bl	9244 <dev_barrier>
    897c:	e59f4054 	ldr	r4, [pc, #84]	; 89d8 <i2c_init+0x84>
    8980:	e3a01902 	mov	r1, #32768	; 0x8000
    8984:	e1a00004 	mov	r0, r4
    8988:	ebfffdba 	bl	8078 <PUT32>
    898c:	eb00022c 	bl	9244 <dev_barrier>
    8990:	ebffff0a 	bl	85c0 <reset_status>
    8994:	eb00022a 	bl	9244 <dev_barrier>
    8998:	e5943004 	ldr	r3, [r4, #4]
    899c:	e3130001 	tst	r3, #1, 0
    89a0:	1a000004 	bne	89b8 <i2c_init+0x64>
    89a4:	e59f3030 	ldr	r3, [pc, #48]	; 89dc <i2c_init+0x88>
    89a8:	e3a02001 	mov	r2, #1, 0
    89ac:	e5832000 	str	r2, [r3]
    89b0:	e28dd008 	add	sp, sp, #8, 0
    89b4:	e8bd8010 	pop	{r4, pc}
    89b8:	e59f3020 	ldr	r3, [pc, #32]	; 89e0 <i2c_init+0x8c>
    89bc:	e58d3000 	str	r3, [sp]
    89c0:	e59f301c 	ldr	r3, [pc, #28]	; 89e4 <i2c_init+0x90>
    89c4:	e59f201c 	ldr	r2, [pc, #28]	; 89e8 <i2c_init+0x94>
    89c8:	e59f101c 	ldr	r1, [pc, #28]	; 89ec <i2c_init+0x98>
    89cc:	e59f001c 	ldr	r0, [pc, #28]	; 89f0 <i2c_init+0x9c>
    89d0:	eb00000d 	bl	8a0c <printk>
    89d4:	eb0001ff 	bl	91d8 <clean_reboot>
    89d8:	20804000 	addcs	r4, r0, r0
    89dc:	00009ba4 	andeq	r9, r0, r4, lsr #23
    89e0:	00009984 	andeq	r9, r0, r4, lsl #19
    89e4:	0000016e 	andeq	r0, r0, lr, ror #2
    89e8:	00009a20 	andeq	r9, r0, r0, lsr #20
    89ec:	00009924 	andeq	r9, r0, r4, lsr #18
    89f0:	00009850 	andeq	r9, r0, r0, asr r8

000089f4 <i2c_init_once>:
    89f4:	e92d4010 	push	{r4, lr}
    89f8:	ebffffd1 	bl	8944 <i2c_is_initialized>
    89fc:	e3500000 	cmp	r0, #0, 0
    8a00:	18bd8010 	popne	{r4, pc}
    8a04:	ebffffd2 	bl	8954 <i2c_init>
    8a08:	e8bd8010 	pop	{r4, pc}

00008a0c <printk>:
    8a0c:	e92d000f 	push	{r0, r1, r2, r3}
    8a10:	e92d4030 	push	{r4, r5, lr}
    8a14:	e24dd00c 	sub	sp, sp, #12, 0
    8a18:	e28d301c 	add	r3, sp, #28, 0
    8a1c:	e58d3004 	str	r3, [sp, #4]
    8a20:	e59f5034 	ldr	r5, [pc, #52]	; 8a5c <printk+0x50>
    8a24:	e59d2018 	ldr	r2, [sp, #24]
    8a28:	e3a01b01 	mov	r1, #1024	; 0x400
    8a2c:	e1a00005 	mov	r0, r5
    8a30:	eb0000ba 	bl	8d20 <va_printk>
    8a34:	e1a04000 	mov	r4, r0
    8a38:	e59f3020 	ldr	r3, [pc, #32]	; 8a60 <printk+0x54>
    8a3c:	e5933000 	ldr	r3, [r3]
    8a40:	e1a00005 	mov	r0, r5
    8a44:	e12fff33 	blx	r3
    8a48:	e1a00004 	mov	r0, r4
    8a4c:	e28dd00c 	add	sp, sp, #12, 0
    8a50:	e8bd4030 	pop	{r4, r5, lr}
    8a54:	e28dd010 	add	sp, sp, #16, 0
    8a58:	e12fff1e 	bx	lr
    8a5c:	00009ba8 	andeq	r9, r0, r8, lsr #23
    8a60:	00009b9c 	muleq	r0, ip, fp

00008a64 <internal_putk>:
    8a64:	e92d4010 	push	{r4, lr}
    8a68:	e1a04000 	mov	r4, r0
    8a6c:	e5d40000 	ldrb	r0, [r4]
    8a70:	e3500000 	cmp	r0, #0, 0
    8a74:	0a000004 	beq	8a8c <internal_putk+0x28>
    8a78:	e59f3014 	ldr	r3, [pc, #20]	; 8a94 <internal_putk+0x30>
    8a7c:	e5933000 	ldr	r3, [r3]
    8a80:	e12fff33 	blx	r3
    8a84:	e2844001 	add	r4, r4, #1, 0
    8a88:	eafffff7 	b	8a6c <internal_putk+0x8>
    8a8c:	e3a00001 	mov	r0, #1, 0
    8a90:	e8bd8010 	pop	{r4, pc}
    8a94:	00009ba0 	andeq	r9, r0, r0, lsr #23

00008a98 <isdigit>:
    8a98:	e2400030 	sub	r0, r0, #48, 0	; 0x30
    8a9c:	e3500009 	cmp	r0, #9, 0
    8aa0:	83a00000 	movhi	r0, #0, 0
    8aa4:	93a00001 	movls	r0, #1, 0
    8aa8:	e12fff1e 	bx	lr

00008aac <pad>:
    8aac:	e0401001 	sub	r1, r0, r1
    8ab0:	e1510002 	cmp	r1, r2
    8ab4:	b3a03020 	movlt	r3, #32, 0
    8ab8:	b4c03001 	strblt	r3, [r0], #1
    8abc:	b2811001 	addlt	r1, r1, #1, 0
    8ac0:	bafffffa 	blt	8ab0 <pad+0x4>
    8ac4:	e3a03000 	mov	r3, #0, 0
    8ac8:	e5c03000 	strb	r3, [r0]
    8acc:	e12fff1e 	bx	lr

00008ad0 <reverse>:
    8ad0:	e042c003 	sub	ip, r2, r3
    8ad4:	e28cc001 	add	ip, ip, #1, 0
    8ad8:	e15c0001 	cmp	ip, r1
    8adc:	c04cc001 	subgt	ip, ip, r1
    8ae0:	c083300c 	addgt	r3, r3, ip
    8ae4:	e2421001 	sub	r1, r2, #1, 0
    8ae8:	e1a02000 	mov	r2, r0
    8aec:	e1510003 	cmp	r1, r3
    8af0:	2451c001 	ldrbcs	ip, [r1], #-1
    8af4:	24c2c001 	strbcs	ip, [r2], #1
    8af8:	2afffffb 	bcs	8aec <reverse+0x1c>
    8afc:	e3a03000 	mov	r3, #0, 0
    8b00:	e5c23000 	strb	r3, [r2]
    8b04:	e12fff1e 	bx	lr

00008b08 <emit>:
    8b08:	e92d40f0 	push	{r4, r5, r6, r7, lr}
    8b0c:	e24dd04c 	sub	sp, sp, #76, 0	; 0x4c
    8b10:	e1a05001 	mov	r5, r1
    8b14:	e1a04002 	mov	r4, r2
    8b18:	e59d2060 	ldr	r2, [sp, #96]	; 0x60
    8b1c:	e1520004 	cmp	r2, r4
    8b20:	c2442001 	subgt	r2, r4, #1, 0
    8b24:	e1a0c003 	mov	ip, r3
    8b28:	e2400002 	sub	r0, r0, #2, 0
    8b2c:	e350000e 	cmp	r0, #14, 0
    8b30:	979ff100 	ldrls	pc, [pc, r0, lsl #2]
    8b34:	ea000050 	b	8c7c <emit+0x174>
    8b38:	00008c54 	andeq	r8, r0, r4, asr ip
    8b3c:	00008c7c 	andeq	r8, r0, ip, ror ip
    8b40:	00008c7c 	andeq	r8, r0, ip, ror ip
    8b44:	00008c7c 	andeq	r8, r0, ip, ror ip
    8b48:	00008c7c 	andeq	r8, r0, ip, ror ip
    8b4c:	00008c7c 	andeq	r8, r0, ip, ror ip
    8b50:	00008c48 	andeq	r8, r0, r8, asr #24
    8b54:	00008c7c 	andeq	r8, r0, ip, ror ip
    8b58:	00008b74 	andeq	r8, r0, r4, ror fp
    8b5c:	00008c7c 	andeq	r8, r0, ip, ror ip
    8b60:	00008c7c 	andeq	r8, r0, ip, ror ip
    8b64:	00008c7c 	andeq	r8, r0, ip, ror ip
    8b68:	00008c7c 	andeq	r8, r0, ip, ror ip
    8b6c:	00008c7c 	andeq	r8, r0, ip, ror ip
    8b70:	00008bec 	andeq	r8, r0, ip, ror #23
    8b74:	e59d1064 	ldr	r1, [sp, #100]	; 0x64
    8b78:	e2511000 	subs	r1, r1, #0, 0
    8b7c:	13a01001 	movne	r1, #1, 0
    8b80:	e0111fa3 	ands	r1, r1, r3, lsr #31
    8b84:	0a000016 	beq	8be4 <emit+0xdc>
    8b88:	e263c000 	rsb	ip, r3, #0, 0
    8b8c:	e3a06001 	mov	r6, #1, 0
    8b90:	e28d0008 	add	r0, sp, #8, 0
    8b94:	e59f3100 	ldr	r3, [pc, #256]	; 8c9c <emit+0x194>
    8b98:	e0831c93 	umull	r1, r3, r3, ip
    8b9c:	e1a031a3 	lsr	r3, r3, #3
    8ba0:	e1a0e003 	mov	lr, r3
    8ba4:	e0833103 	add	r3, r3, r3, lsl #2
    8ba8:	e04c3083 	sub	r3, ip, r3, lsl #1
    8bac:	e1a01000 	mov	r1, r0
    8bb0:	e2800001 	add	r0, r0, #1, 0
    8bb4:	e59f70e4 	ldr	r7, [pc, #228]	; 8ca0 <emit+0x198>
    8bb8:	e7d73003 	ldrb	r3, [r7, r3]
    8bbc:	e5c13000 	strb	r3, [r1]
    8bc0:	e1a0300c 	mov	r3, ip
    8bc4:	e1a0c00e 	mov	ip, lr
    8bc8:	e3530009 	cmp	r3, #9, 0
    8bcc:	8afffff0 	bhi	8b94 <emit+0x8c>
    8bd0:	e3560000 	cmp	r6, #0, 0
    8bd4:	13a0302d 	movne	r3, #45, 0	; 0x2d
    8bd8:	15c03000 	strbne	r3, [r0]
    8bdc:	12810002 	addne	r0, r1, #2, 0
    8be0:	ea00000f 	b	8c24 <emit+0x11c>
    8be4:	e3a06000 	mov	r6, #0, 0
    8be8:	eaffffe8 	b	8b90 <emit+0x88>
    8bec:	e28d1008 	add	r1, sp, #8, 0
    8bf0:	e20c000f 	and	r0, ip, #15, 0
    8bf4:	e59fe0a8 	ldr	lr, [pc, #168]	; 8ca4 <emit+0x19c>
    8bf8:	e7de0000 	ldrb	r0, [lr, r0]
    8bfc:	e5c10000 	strb	r0, [r1]
    8c00:	e2811001 	add	r1, r1, #1, 0
    8c04:	e35c000f 	cmp	ip, #15, 0
    8c08:	e1a0c22c 	lsr	ip, ip, #4
    8c0c:	8afffff7 	bhi	8bf0 <emit+0xe8>
    8c10:	e1a00001 	mov	r0, r1
    8c14:	e3a03078 	mov	r3, #120, 0	; 0x78
    8c18:	e4c03002 	strb	r3, [r0], #2
    8c1c:	e3a03030 	mov	r3, #48, 0	; 0x30
    8c20:	e5c13001 	strb	r3, [r1, #1]
    8c24:	e28d1008 	add	r1, sp, #8, 0
    8c28:	ebffff9f 	bl	8aac <pad>
    8c2c:	e1a02000 	mov	r2, r0
    8c30:	e28d3008 	add	r3, sp, #8, 0
    8c34:	e1a01004 	mov	r1, r4
    8c38:	e1a00005 	mov	r0, r5
    8c3c:	ebffffa3 	bl	8ad0 <reverse>
    8c40:	e28dd04c 	add	sp, sp, #76, 0	; 0x4c
    8c44:	e8bd80f0 	pop	{r4, r5, r6, r7, pc}
    8c48:	e5cd3008 	strb	r3, [sp, #8]
    8c4c:	e28d0009 	add	r0, sp, #9, 0
    8c50:	eafffff3 	b	8c24 <emit+0x11c>
    8c54:	e28d0008 	add	r0, sp, #8, 0
    8c58:	e20c1001 	and	r1, ip, #1, 0
    8c5c:	e59fe044 	ldr	lr, [pc, #68]	; 8ca8 <emit+0x1a0>
    8c60:	e7de1001 	ldrb	r1, [lr, r1]
    8c64:	e5c01000 	strb	r1, [r0]
    8c68:	e2800001 	add	r0, r0, #1, 0
    8c6c:	e35c0001 	cmp	ip, #1, 0
    8c70:	e1a0c0ac 	lsr	ip, ip, #1
    8c74:	8afffff7 	bhi	8c58 <emit+0x150>
    8c78:	eaffffe9 	b	8c24 <emit+0x11c>
    8c7c:	e59f3028 	ldr	r3, [pc, #40]	; 8cac <emit+0x1a4>
    8c80:	e58d3000 	str	r3, [sp]
    8c84:	e3a03079 	mov	r3, #121, 0	; 0x79
    8c88:	e59f2020 	ldr	r2, [pc, #32]	; 8cb0 <emit+0x1a8>
    8c8c:	e59f1020 	ldr	r1, [pc, #32]	; 8cb4 <emit+0x1ac>
    8c90:	e59f0020 	ldr	r0, [pc, #32]	; 8cb8 <emit+0x1b0>
    8c94:	ebffff5c 	bl	8a0c <printk>
    8c98:	eb00014e 	bl	91d8 <clean_reboot>
    8c9c:	cccccccd 	stclgt	12, cr12, [ip], {205}	; 0xcd
    8ca0:	00009a40 	andeq	r9, r0, r0, asr #20
    8ca4:	00009a4c 	andeq	r9, r0, ip, asr #20
    8ca8:	00009a60 	andeq	r9, r0, r0, ror #20
    8cac:	000099ec 	andeq	r9, r0, ip, ror #19
    8cb0:	00009b6c 	andeq	r9, r0, ip, ror #22
    8cb4:	00009a2c 	andeq	r9, r0, ip, lsr #20
    8cb8:	00009850 	andeq	r9, r0, r0, asr r8

00008cbc <rpi_set_output>:
    8cbc:	e3500000 	cmp	r0, #0, 0
    8cc0:	0a000006 	beq	8ce0 <rpi_set_output+0x24>
    8cc4:	e59f303c 	ldr	r3, [pc, #60]	; 8d08 <rpi_set_output+0x4c>
    8cc8:	e5830000 	str	r0, [r3]
    8ccc:	e3510000 	cmp	r1, #0, 0
    8cd0:	012fff1e 	bxeq	lr
    8cd4:	e59f3030 	ldr	r3, [pc, #48]	; 8d0c <rpi_set_output+0x50>
    8cd8:	e5831000 	str	r1, [r3]
    8cdc:	e12fff1e 	bx	lr
    8ce0:	e52de004 	push	{lr}		; (str lr, [sp, #-4]!)
    8ce4:	e24dd00c 	sub	sp, sp, #12, 0
    8ce8:	e59f3020 	ldr	r3, [pc, #32]	; 8d10 <rpi_set_output+0x54>
    8cec:	e58d3000 	str	r3, [sp]
    8cf0:	e3a03020 	mov	r3, #32, 0
    8cf4:	e59f2018 	ldr	r2, [pc, #24]	; 8d14 <rpi_set_output+0x58>
    8cf8:	e59f1018 	ldr	r1, [pc, #24]	; 8d18 <rpi_set_output+0x5c>
    8cfc:	e59f0018 	ldr	r0, [pc, #24]	; 8d1c <rpi_set_output+0x60>
    8d00:	ebffff41 	bl	8a0c <printk>
    8d04:	eb000133 	bl	91d8 <clean_reboot>
    8d08:	00009ba0 	andeq	r9, r0, r0, lsr #23
    8d0c:	00009b9c 	muleq	r0, ip, fp
    8d10:	00009a64 	andeq	r9, r0, r4, ror #20
    8d14:	00009b74 	andeq	r9, r0, r4, ror fp
    8d18:	00009a2c 	andeq	r9, r0, ip, lsr #20
    8d1c:	00009850 	andeq	r9, r0, r0, asr r8

00008d20 <va_printk>:
    8d20:	e92d4ff0 	push	{r4, r5, r6, r7, r8, r9, sl, fp, lr}
    8d24:	e24ddf45 	sub	sp, sp, #276	; 0x114
    8d28:	e1a09000 	mov	r9, r0
    8d2c:	e58d2008 	str	r2, [sp, #8]
    8d30:	e58d300c 	str	r3, [sp, #12]
    8d34:	e2411001 	sub	r1, r1, #1, 0
    8d38:	e0808001 	add	r8, r0, r1
    8d3c:	e3a03000 	mov	r3, #0, 0
    8d40:	e5c03000 	strb	r3, [r0]
    8d44:	e1a04000 	mov	r4, r0
    8d48:	e1a06002 	mov	r6, r2
    8d4c:	ea000001 	b	8d58 <va_printk+0x38>
    8d50:	e2866001 	add	r6, r6, #1, 0
    8d54:	e4c43001 	strb	r3, [r4], #1
    8d58:	e5d63000 	ldrb	r3, [r6]
    8d5c:	e3530000 	cmp	r3, #0, 0
    8d60:	0a000108 	beq	9188 <va_printk+0x468>
    8d64:	e1540008 	cmp	r4, r8
    8d68:	2a000106 	bcs	9188 <va_printk+0x468>
    8d6c:	e3530025 	cmp	r3, #37, 0	; 0x25
    8d70:	1afffff6 	bne	8d50 <va_printk+0x30>
    8d74:	e5d62001 	ldrb	r2, [r6, #1]
    8d78:	e3520025 	cmp	r2, #37, 0	; 0x25
    8d7c:	04c43001 	strbeq	r3, [r4], #1
    8d80:	02866002 	addeq	r6, r6, #2, 0
    8d84:	0afffff3 	beq	8d58 <va_printk+0x38>
    8d88:	e2866001 	add	r6, r6, #1, 0
    8d8c:	e3a05000 	mov	r5, #0, 0
    8d90:	e5d67000 	ldrb	r7, [r6]
    8d94:	e1a0a007 	mov	sl, r7
    8d98:	e1a00007 	mov	r0, r7
    8d9c:	ebffff3d 	bl	8a98 <isdigit>
    8da0:	e3500000 	cmp	r0, #0, 0
    8da4:	0a000004 	beq	8dbc <va_printk+0x9c>
    8da8:	e0855105 	add	r5, r5, r5, lsl #2
    8dac:	e0875085 	add	r5, r7, r5, lsl #1
    8db0:	e2455030 	sub	r5, r5, #48, 0	; 0x30
    8db4:	e2866001 	add	r6, r6, #1, 0
    8db8:	eafffff4 	b	8d90 <va_printk+0x70>
    8dbc:	e355001f 	cmp	r5, #31, 0
    8dc0:	8a00001a 	bhi	8e30 <va_printk+0x110>
    8dc4:	e2477062 	sub	r7, r7, #98, 0	; 0x62
    8dc8:	e3570016 	cmp	r7, #22, 0
    8dcc:	979ff107 	ldrls	pc, [pc, r7, lsl #2]
    8dd0:	ea0000d4 	b	9128 <va_printk+0x408>
    8dd4:	000090ac 	andeq	r9, r0, ip, lsr #1
    8dd8:	000090f4 	strdeq	r9, [r0], -r4
    8ddc:	0000900c 	andeq	r9, r0, ip
    8de0:	00009128 	andeq	r9, r0, r8, lsr #2
    8de4:	00008ff4 	strdeq	r8, [r0], -r4
    8de8:	00009128 	andeq	r9, r0, r8, lsr #2
    8dec:	00009128 	andeq	r9, r0, r8, lsr #2
    8df0:	00009128 	andeq	r9, r0, r8, lsr #2
    8df4:	00009128 	andeq	r9, r0, r8, lsr #2
    8df8:	00009128 	andeq	r9, r0, r8, lsr #2
    8dfc:	00008e50 	andeq	r8, r0, r0, asr lr
    8e00:	00009128 	andeq	r9, r0, r8, lsr #2
    8e04:	00009128 	andeq	r9, r0, r8, lsr #2
    8e08:	00009128 	andeq	r9, r0, r8, lsr #2
    8e0c:	00009078 	andeq	r9, r0, r8, ror r0
    8e10:	00009128 	andeq	r9, r0, r8, lsr #2
    8e14:	00009128 	andeq	r9, r0, r8, lsr #2
    8e18:	000090e0 	andeq	r9, r0, r0, ror #1
    8e1c:	00009128 	andeq	r9, r0, r8, lsr #2
    8e20:	00009044 	andeq	r9, r0, r4, asr #32
    8e24:	00009128 	andeq	r9, r0, r8, lsr #2
    8e28:	00009128 	andeq	r9, r0, r8, lsr #2
    8e2c:	00009078 	andeq	r9, r0, r8, ror r0
    8e30:	e59f3364 	ldr	r3, [pc, #868]	; 919c <va_printk+0x47c>
    8e34:	e58d3000 	str	r3, [sp]
    8e38:	e3a03098 	mov	r3, #152, 0	; 0x98
    8e3c:	e59f235c 	ldr	r2, [pc, #860]	; 91a0 <va_printk+0x480>
    8e40:	e59f135c 	ldr	r1, [pc, #860]	; 91a4 <va_printk+0x484>
    8e44:	e59f035c 	ldr	r0, [pc, #860]	; 91a8 <va_printk+0x488>
    8e48:	ebfffeef 	bl	8a0c <printk>
    8e4c:	eb0000e1 	bl	91d8 <clean_reboot>
    8e50:	e3a02003 	mov	r2, #3, 0
    8e54:	e59f1350 	ldr	r1, [pc, #848]	; 91ac <va_printk+0x48c>
    8e58:	e1a00006 	mov	r0, r6
    8e5c:	eb000231 	bl	9728 <strncmp>
    8e60:	e3500000 	cmp	r0, #0, 0
    8e64:	0a000005 	beq	8e80 <va_printk+0x160>
    8e68:	e3a02003 	mov	r2, #3, 0
    8e6c:	e59f133c 	ldr	r1, [pc, #828]	; 91b0 <va_printk+0x490>
    8e70:	e1a00006 	mov	r0, r6
    8e74:	eb00022b 	bl	9728 <strncmp>
    8e78:	e3500000 	cmp	r0, #0, 0
    8e7c:	1a000033 	bne	8f50 <va_printk+0x230>
    8e80:	e286b002 	add	fp, r6, #2, 0
    8e84:	e59d300c 	ldr	r3, [sp, #12]
    8e88:	e2833007 	add	r3, r3, #7, 0
    8e8c:	e3c33007 	bic	r3, r3, #7, 0
    8e90:	e2832008 	add	r2, r3, #8, 0
    8e94:	e58d200c 	str	r2, [sp, #12]
    8e98:	e593a000 	ldr	sl, [r3]
    8e9c:	e5937004 	ldr	r7, [r3, #4]
    8ea0:	e1a01007 	mov	r1, r7
    8ea4:	e59f0308 	ldr	r0, [pc, #776]	; 91b4 <va_printk+0x494>
    8ea8:	ebfffed7 	bl	8a0c <printk>
    8eac:	e1a0100a 	mov	r1, sl
    8eb0:	e59f0300 	ldr	r0, [pc, #768]	; 91b8 <va_printk+0x498>
    8eb4:	ebfffed4 	bl	8a0c <printk>
    8eb8:	e3a02003 	mov	r2, #3, 0
    8ebc:	e59f12e8 	ldr	r1, [pc, #744]	; 91ac <va_printk+0x48c>
    8ec0:	e1a00006 	mov	r0, r6
    8ec4:	eb000217 	bl	9728 <strncmp>
    8ec8:	e3500000 	cmp	r0, #0, 0
    8ecc:	0a000027 	beq	8f70 <va_printk+0x250>
    8ed0:	e3a02003 	mov	r2, #3, 0
    8ed4:	e59f12d4 	ldr	r1, [pc, #724]	; 91b0 <va_printk+0x490>
    8ed8:	e1a00006 	mov	r0, r6
    8edc:	eb000211 	bl	9728 <strncmp>
    8ee0:	e3500000 	cmp	r0, #0, 0
    8ee4:	1a00003b 	bne	8fd8 <va_printk+0x2b8>
    8ee8:	e3a06000 	mov	r6, #0, 0
    8eec:	e58d6004 	str	r6, [sp, #4]
    8ef0:	e58d5000 	str	r5, [sp]
    8ef4:	e1a03007 	mov	r3, r7
    8ef8:	e3a02080 	mov	r2, #128, 0	; 0x80
    8efc:	e28d1010 	add	r1, sp, #16, 0
    8f00:	e3a0000a 	mov	r0, #10, 0
    8f04:	ebfffeff 	bl	8b08 <emit>
    8f08:	e1a07000 	mov	r7, r0
    8f0c:	e58d6004 	str	r6, [sp, #4]
    8f10:	e58d5000 	str	r5, [sp]
    8f14:	e1a0300a 	mov	r3, sl
    8f18:	e3a02080 	mov	r2, #128, 0	; 0x80
    8f1c:	e28d1090 	add	r1, sp, #144, 0	; 0x90
    8f20:	e3a0000a 	mov	r0, #10, 0
    8f24:	ebfffef7 	bl	8b08 <emit>
    8f28:	e59f128c 	ldr	r1, [pc, #652]	; 91bc <va_printk+0x49c>
    8f2c:	e28d0010 	add	r0, sp, #16, 0
    8f30:	eb0001e9 	bl	96dc <strcmp>
    8f34:	e1500006 	cmp	r0, r6
    8f38:	1a000021 	bne	8fc4 <va_printk+0x2a4>
    8f3c:	e28d1090 	add	r1, sp, #144, 0	; 0x90
    8f40:	e28d0010 	add	r0, sp, #16, 0
    8f44:	eb0001ef 	bl	9708 <strcpy>
    8f48:	e1a0600b 	mov	r6, fp
    8f4c:	ea00003a 	b	903c <va_printk+0x31c>
    8f50:	e59f3268 	ldr	r3, [pc, #616]	; 91c0 <va_printk+0x4a0>
    8f54:	e58d3000 	str	r3, [sp]
    8f58:	e3a0309f 	mov	r3, #159, 0	; 0x9f
    8f5c:	e59f223c 	ldr	r2, [pc, #572]	; 91a0 <va_printk+0x480>
    8f60:	e59f123c 	ldr	r1, [pc, #572]	; 91a4 <va_printk+0x484>
    8f64:	e59f023c 	ldr	r0, [pc, #572]	; 91a8 <va_printk+0x488>
    8f68:	ebfffea7 	bl	8a0c <printk>
    8f6c:	eb000099 	bl	91d8 <clean_reboot>
    8f70:	e3a06000 	mov	r6, #0, 0
    8f74:	e58d6004 	str	r6, [sp, #4]
    8f78:	e58d5000 	str	r5, [sp]
    8f7c:	e1a03007 	mov	r3, r7
    8f80:	e3a02080 	mov	r2, #128, 0	; 0x80
    8f84:	e28d1010 	add	r1, sp, #16, 0
    8f88:	e3a00010 	mov	r0, #16, 0
    8f8c:	ebfffedd 	bl	8b08 <emit>
    8f90:	e1a07000 	mov	r7, r0
    8f94:	e58d6004 	str	r6, [sp, #4]
    8f98:	e58d5000 	str	r5, [sp]
    8f9c:	e1a0300a 	mov	r3, sl
    8fa0:	e3a02080 	mov	r2, #128, 0	; 0x80
    8fa4:	e28d1090 	add	r1, sp, #144, 0	; 0x90
    8fa8:	e3a00010 	mov	r0, #16, 0
    8fac:	ebfffed5 	bl	8b08 <emit>
    8fb0:	e28d1092 	add	r1, sp, #146, 0	; 0x92
    8fb4:	e28d0010 	add	r0, sp, #16, 0
    8fb8:	eb0001ba 	bl	96a8 <strcat>
    8fbc:	e1a0600b 	mov	r6, fp
    8fc0:	ea00001d 	b	903c <va_printk+0x31c>
    8fc4:	e28d1090 	add	r1, sp, #144, 0	; 0x90
    8fc8:	e28d0010 	add	r0, sp, #16, 0
    8fcc:	eb0001b5 	bl	96a8 <strcat>
    8fd0:	e1a0600b 	mov	r6, fp
    8fd4:	ea000018 	b	903c <va_printk+0x31c>
    8fd8:	e58d6000 	str	r6, [sp]
    8fdc:	e3a030b6 	mov	r3, #182, 0	; 0xb6
    8fe0:	e59f21b8 	ldr	r2, [pc, #440]	; 91a0 <va_printk+0x480>
    8fe4:	e59f11b8 	ldr	r1, [pc, #440]	; 91a4 <va_printk+0x484>
    8fe8:	e59f01d4 	ldr	r0, [pc, #468]	; 91c4 <va_printk+0x4a4>
    8fec:	ebfffe86 	bl	8a0c <printk>
    8ff0:	eb000078 	bl	91d8 <clean_reboot>
    8ff4:	e3a030be 	mov	r3, #190, 0	; 0xbe
    8ff8:	e59f21a0 	ldr	r2, [pc, #416]	; 91a0 <va_printk+0x480>
    8ffc:	e59f11a0 	ldr	r1, [pc, #416]	; 91a4 <va_printk+0x484>
    9000:	e59f01c0 	ldr	r0, [pc, #448]	; 91c8 <va_printk+0x4a8>
    9004:	ebfffe80 	bl	8a0c <printk>
    9008:	eb000072 	bl	91d8 <clean_reboot>
    900c:	e59d300c 	ldr	r3, [sp, #12]
    9010:	e2832004 	add	r2, r3, #4, 0
    9014:	e58d200c 	str	r2, [sp, #12]
    9018:	e5933000 	ldr	r3, [r3]
    901c:	e3a02001 	mov	r2, #1, 0
    9020:	e58d2004 	str	r2, [sp, #4]
    9024:	e58d5000 	str	r5, [sp]
    9028:	e3a02080 	mov	r2, #128, 0	; 0x80
    902c:	e28d1010 	add	r1, sp, #16, 0
    9030:	e3a0000a 	mov	r0, #10, 0
    9034:	ebfffeb3 	bl	8b08 <emit>
    9038:	e1a07000 	mov	r7, r0
    903c:	e2866001 	add	r6, r6, #1, 0
    9040:	ea00004a 	b	9170 <va_printk+0x450>
    9044:	e59d300c 	ldr	r3, [sp, #12]
    9048:	e2832004 	add	r2, r3, #4, 0
    904c:	e58d200c 	str	r2, [sp, #12]
    9050:	e5933000 	ldr	r3, [r3]
    9054:	e3a02000 	mov	r2, #0, 0
    9058:	e58d2004 	str	r2, [sp, #4]
    905c:	e58d5000 	str	r5, [sp]
    9060:	e3a02080 	mov	r2, #128, 0	; 0x80
    9064:	e28d1010 	add	r1, sp, #16, 0
    9068:	e3a0000a 	mov	r0, #10, 0
    906c:	ebfffea5 	bl	8b08 <emit>
    9070:	e1a07000 	mov	r7, r0
    9074:	eafffff0 	b	903c <va_printk+0x31c>
    9078:	e59d300c 	ldr	r3, [sp, #12]
    907c:	e2832004 	add	r2, r3, #4, 0
    9080:	e58d200c 	str	r2, [sp, #12]
    9084:	e5933000 	ldr	r3, [r3]
    9088:	e3a02000 	mov	r2, #0, 0
    908c:	e58d2004 	str	r2, [sp, #4]
    9090:	e58d5000 	str	r5, [sp]
    9094:	e3a02080 	mov	r2, #128, 0	; 0x80
    9098:	e28d1010 	add	r1, sp, #16, 0
    909c:	e3a00010 	mov	r0, #16, 0
    90a0:	ebfffe98 	bl	8b08 <emit>
    90a4:	e1a07000 	mov	r7, r0
    90a8:	eaffffe3 	b	903c <va_printk+0x31c>
    90ac:	e59d300c 	ldr	r3, [sp, #12]
    90b0:	e2832004 	add	r2, r3, #4, 0
    90b4:	e58d200c 	str	r2, [sp, #12]
    90b8:	e5933000 	ldr	r3, [r3]
    90bc:	e3a02000 	mov	r2, #0, 0
    90c0:	e58d2004 	str	r2, [sp, #4]
    90c4:	e58d5000 	str	r5, [sp]
    90c8:	e3a02080 	mov	r2, #128, 0	; 0x80
    90cc:	e28d1010 	add	r1, sp, #16, 0
    90d0:	e3a00002 	mov	r0, #2, 0
    90d4:	ebfffe8b 	bl	8b08 <emit>
    90d8:	e1a07000 	mov	r7, r0
    90dc:	eaffffd6 	b	903c <va_printk+0x31c>
    90e0:	e59d300c 	ldr	r3, [sp, #12]
    90e4:	e2832004 	add	r2, r3, #4, 0
    90e8:	e58d200c 	str	r2, [sp, #12]
    90ec:	e5937000 	ldr	r7, [r3]
    90f0:	eaffffd1 	b	903c <va_printk+0x31c>
    90f4:	e59d300c 	ldr	r3, [sp, #12]
    90f8:	e2832004 	add	r2, r3, #4, 0
    90fc:	e58d200c 	str	r2, [sp, #12]
    9100:	e5933000 	ldr	r3, [r3]
    9104:	e3a02000 	mov	r2, #0, 0
    9108:	e58d2004 	str	r2, [sp, #4]
    910c:	e58d5000 	str	r5, [sp]
    9110:	e3a02080 	mov	r2, #128, 0	; 0x80
    9114:	e28d1010 	add	r1, sp, #16, 0
    9118:	e3a00008 	mov	r0, #8, 0
    911c:	ebfffe79 	bl	8b08 <emit>
    9120:	e1a07000 	mov	r7, r0
    9124:	eaffffc4 	b	903c <va_printk+0x31c>
    9128:	e3a03000 	mov	r3, #0, 0
    912c:	e5c63001 	strb	r3, [r6, #1]
    9130:	e1a0200a 	mov	r2, sl
    9134:	e1a0100a 	mov	r1, sl
    9138:	e59f008c 	ldr	r0, [pc, #140]	; 91cc <va_printk+0x4ac>
    913c:	ebfffe32 	bl	8a0c <printk>
    9140:	e59f3088 	ldr	r3, [pc, #136]	; 91d0 <va_printk+0x4b0>
    9144:	e5933000 	ldr	r3, [r3]
    9148:	e59d0008 	ldr	r0, [sp, #8]
    914c:	e12fff33 	blx	r3
    9150:	e3a030e2 	mov	r3, #226, 0	; 0xe2
    9154:	e59f2044 	ldr	r2, [pc, #68]	; 91a0 <va_printk+0x480>
    9158:	e59f1044 	ldr	r1, [pc, #68]	; 91a4 <va_printk+0x484>
    915c:	e59f0070 	ldr	r0, [pc, #112]	; 91d4 <va_printk+0x4b4>
    9160:	ebfffe29 	bl	8a0c <printk>
    9164:	eb00001b 	bl	91d8 <clean_reboot>
    9168:	e2877001 	add	r7, r7, #1, 0
    916c:	e4c43001 	strb	r3, [r4], #1
    9170:	e1540008 	cmp	r4, r8
    9174:	2afffef7 	bcs	8d58 <va_printk+0x38>
    9178:	e5d73000 	ldrb	r3, [r7]
    917c:	e3530000 	cmp	r3, #0, 0
    9180:	1afffff8 	bne	9168 <va_printk+0x448>
    9184:	eafffef3 	b	8d58 <va_printk+0x38>
    9188:	e3a03000 	mov	r3, #0, 0
    918c:	e4c43001 	strb	r3, [r4], #1
    9190:	e0440009 	sub	r0, r4, r9
    9194:	e28ddf45 	add	sp, sp, #276	; 0x114
    9198:	e8bd8ff0 	pop	{r4, r5, r6, r7, r8, r9, sl, fp, pc}
    919c:	00009a6c 	andeq	r9, r0, ip, ror #20
    91a0:	00009b84 	andeq	r9, r0, r4, lsl #23
    91a4:	00009a2c 	andeq	r9, r0, ip, lsr #20
    91a8:	00009850 	andeq	r9, r0, r0, asr r8
    91ac:	00009a78 	andeq	r9, r0, r8, ror sl
    91b0:	00009a7c 	andeq	r9, r0, ip, ror sl
    91b4:	00009a80 	andeq	r9, r0, r0, lsl #21
    91b8:	00009a88 	andeq	r9, r0, r8, lsl #21
    91bc:	000099ec 	andeq	r9, r0, ip, ror #19
    91c0:	00009a90 	muleq	r0, r0, sl
    91c4:	00009acc 	andeq	r9, r0, ip, asr #21
    91c8:	00009af4 	strdeq	r9, [r0], -r4
    91cc:	00009b1c 	andeq	r9, r0, ip, lsl fp
    91d0:	00009b9c 	muleq	r0, ip, fp
    91d4:	00009b4c 	andeq	r9, r0, ip, asr #22

000091d8 <clean_reboot>:
    91d8:	e92d4010 	push	{r4, lr}
    91dc:	e59f3018 	ldr	r3, [pc, #24]	; 91fc <clean_reboot+0x24>
    91e0:	e5933000 	ldr	r3, [r3]
    91e4:	e59f0014 	ldr	r0, [pc, #20]	; 9200 <clean_reboot+0x28>
    91e8:	e12fff33 	blx	r3
    91ec:	eb000110 	bl	9634 <uart_flush_tx>
    91f0:	e3a0000a 	mov	r0, #10, 0
    91f4:	eb00004d 	bl	9330 <delay_ms>
    91f8:	eb000022 	bl	9288 <rpi_reboot>
    91fc:	00009b9c 	muleq	r0, ip, fp
    9200:	00009b90 	muleq	r0, r0, fp

00009204 <_cstart>:
    9204:	e92d4010 	push	{r4, lr}
    9208:	eb00000c 	bl	9240 <custom_loader>
    920c:	e59f3024 	ldr	r3, [pc, #36]	; 9238 <_cstart+0x34>
    9210:	e59f2024 	ldr	r2, [pc, #36]	; 923c <_cstart+0x38>
    9214:	e1530002 	cmp	r3, r2
    9218:	33a02000 	movcc	r2, #0, 0
    921c:	34832004 	strcc	r2, [r3], #4
    9220:	3afffffa 	bcc	9210 <_cstart+0xc>
    9224:	eb0000a4 	bl	94bc <uart_init>
    9228:	e3a03001 	mov	r3, #1, 0
    922c:	ee0f3f1c 	mcr	15, 0, r3, cr15, cr12, {0}
    9230:	ebfffba8 	bl	80d8 <notmain>
    9234:	ebffffe7 	bl	91d8 <clean_reboot>
    9238:	00009ba4 	andeq	r9, r0, r4, lsr #23
    923c:	00009fa8 	andeq	r9, r0, r8, lsr #31

00009240 <custom_loader>:
    9240:	e12fff1e 	bx	lr

00009244 <dev_barrier>:
    9244:	ea000002 	b	9254 <dsb>

00009248 <dmb>:
    9248:	e3a00000 	mov	r0, #0, 0
    924c:	ee070fba 	mcr	15, 0, r0, cr7, cr10, {5}
    9250:	e12fff1e 	bx	lr

00009254 <dsb>:
    9254:	ee070f9a 	mcr	15, 0, r0, cr7, cr10, {4}
    9258:	e12fff1e 	bx	lr

0000925c <at_user_level>:
    925c:	e10f0000 	mrs	r0, CPSR
    9260:	e200001f 	and	r0, r0, #31, 0
    9264:	e3500010 	cmp	r0, #16, 0
    9268:	13a00000 	movne	r0, #0, 0
    926c:	03a00001 	moveq	r0, #1, 0
    9270:	e12fff1e 	bx	lr

00009274 <set_user_level>:
    9274:	e10f3000 	mrs	r3, CPSR
    9278:	e3c3301f 	bic	r3, r3, #31, 0
    927c:	e3833010 	orr	r3, r3, #16, 0
    9280:	e129f003 	msr	CPSR_fc, r3
    9284:	e12fff1e 	bx	lr

00009288 <rpi_reboot>:
    9288:	e92d4010 	push	{r4, lr}
    928c:	ebfffff2 	bl	925c <at_user_level>
    9290:	e3500000 	cmp	r0, #0, 0
    9294:	1a00000a 	bne	92c4 <rpi_reboot+0x3c>
    9298:	eb00012d 	bl	9754 <reboot_callout>
    929c:	eb0000e4 	bl	9634 <uart_flush_tx>
    92a0:	e3a0000a 	mov	r0, #10, 0
    92a4:	eb000021 	bl	9330 <delay_ms>
    92a8:	e59f101c 	ldr	r1, [pc, #28]	; 92cc <rpi_reboot+0x44>
    92ac:	e59f001c 	ldr	r0, [pc, #28]	; 92d0 <rpi_reboot+0x48>
    92b0:	ebfffb70 	bl	8078 <PUT32>
    92b4:	e59f1018 	ldr	r1, [pc, #24]	; 92d4 <rpi_reboot+0x4c>
    92b8:	e59f0018 	ldr	r0, [pc, #24]	; 92d8 <rpi_reboot+0x50>
    92bc:	ebfffb6d 	bl	8078 <PUT32>
    92c0:	eafffffe 	b	92c0 <rpi_reboot+0x38>
    92c4:	ebffffea 	bl	9274 <set_user_level>
    92c8:	eafffff2 	b	9298 <rpi_reboot+0x10>
    92cc:	5a000001 	bpl	92d8 <rpi_reboot+0x50>
    92d0:	20100024 	andscs	r0, r0, r4, lsr #32
    92d4:	5a000020 	bpl	935c <delay_sec+0x14>
    92d8:	2010001c 	andscs	r0, r0, ip, lsl r0

000092dc <timer_get_usec_raw>:
    92dc:	e92d4010 	push	{r4, lr}
    92e0:	e59f0004 	ldr	r0, [pc, #4]	; 92ec <timer_get_usec_raw+0x10>
    92e4:	ebfffb65 	bl	8080 <GET32>
    92e8:	e8bd8010 	pop	{r4, pc}
    92ec:	20003004 	andcs	r3, r0, r4

000092f0 <timer_get_usec>:
    92f0:	e92d4010 	push	{r4, lr}
    92f4:	ebffffd2 	bl	9244 <dev_barrier>
    92f8:	ebfffff7 	bl	92dc <timer_get_usec_raw>
    92fc:	e1a04000 	mov	r4, r0
    9300:	ebffffcf 	bl	9244 <dev_barrier>
    9304:	e1a00004 	mov	r0, r4
    9308:	e8bd8010 	pop	{r4, pc}

0000930c <delay_us>:
    930c:	e92d4070 	push	{r4, r5, r6, lr}
    9310:	e1a05000 	mov	r5, r0
    9314:	ebfffff5 	bl	92f0 <timer_get_usec>
    9318:	e1a04000 	mov	r4, r0
    931c:	ebfffff3 	bl	92f0 <timer_get_usec>
    9320:	e0400004 	sub	r0, r0, r4
    9324:	e1500005 	cmp	r0, r5
    9328:	3afffffb 	bcc	931c <delay_us+0x10>
    932c:	e8bd8070 	pop	{r4, r5, r6, pc}

00009330 <delay_ms>:
    9330:	e92d4010 	push	{r4, lr}
    9334:	e0603280 	rsb	r3, r0, r0, lsl #5
    9338:	e0800103 	add	r0, r0, r3, lsl #2
    933c:	e1a00180 	lsl	r0, r0, #3
    9340:	ebfffff1 	bl	930c <delay_us>
    9344:	e8bd8010 	pop	{r4, pc}

00009348 <delay_sec>:
    9348:	e92d4010 	push	{r4, lr}
    934c:	e0603280 	rsb	r3, r0, r0, lsl #5
    9350:	e0800103 	add	r0, r0, r3, lsl #2
    9354:	e1a00180 	lsl	r0, r0, #3
    9358:	ebfffff4 	bl	9330 <delay_ms>
    935c:	e8bd8010 	pop	{r4, pc}

00009360 <gpio_set_function>:
    9360:	e350001f 	cmp	r0, #31, 0
    9364:	812fff1e 	bxhi	lr
    9368:	e92d4070 	push	{r4, r5, r6, lr}
    936c:	e1a05001 	mov	r5, r1
    9370:	e3d13007 	bics	r3, r1, #7, 0
    9374:	18bd8070 	popne	{r4, r5, r6, pc}
    9378:	e59f3040 	ldr	r3, [pc, #64]	; 93c0 <gpio_set_function+0x60>
    937c:	e0832093 	umull	r2, r3, r3, r0
    9380:	e1a031a3 	lsr	r3, r3, #3
    9384:	e1a02003 	mov	r2, r3
    9388:	e0833103 	add	r3, r3, r3, lsl #2
    938c:	e0403083 	sub	r3, r0, r3, lsl #1
    9390:	e0834083 	add	r4, r3, r3, lsl #1
    9394:	e2820302 	add	r0, r2, #134217728	; 0x8000000
    9398:	e2800702 	add	r0, r0, #524288	; 0x80000
    939c:	e1a06100 	lsl	r6, r0, #2
    93a0:	e1a00006 	mov	r0, r6
    93a4:	ebfffb35 	bl	8080 <GET32>
    93a8:	e3a01007 	mov	r1, #7, 0
    93ac:	e1c01411 	bic	r1, r0, r1, lsl r4
    93b0:	e1811415 	orr	r1, r1, r5, lsl r4
    93b4:	e1a00006 	mov	r0, r6
    93b8:	ebfffb2e 	bl	8078 <PUT32>
    93bc:	e8bd8070 	pop	{r4, r5, r6, pc}
    93c0:	cccccccd 	stclgt	12, cr12, [ip], {205}	; 0xcd

000093c4 <gpio_set_output>:
    93c4:	e92d4010 	push	{r4, lr}
    93c8:	e3a01001 	mov	r1, #1, 0
    93cc:	ebffffe3 	bl	9360 <gpio_set_function>
    93d0:	e8bd8010 	pop	{r4, pc}

000093d4 <gpio_set_on>:
    93d4:	e350001f 	cmp	r0, #31, 0
    93d8:	812fff1e 	bxhi	lr
    93dc:	e92d4010 	push	{r4, lr}
    93e0:	e3a01001 	mov	r1, #1, 0
    93e4:	e1a01011 	lsl	r1, r1, r0
    93e8:	e59f0004 	ldr	r0, [pc, #4]	; 93f4 <gpio_set_on+0x20>
    93ec:	ebfffb21 	bl	8078 <PUT32>
    93f0:	e8bd8010 	pop	{r4, pc}
    93f4:	2020001c 	eorcs	r0, r0, ip, lsl r0

000093f8 <gpio_set_off>:
    93f8:	e350001f 	cmp	r0, #31, 0
    93fc:	812fff1e 	bxhi	lr
    9400:	e92d4010 	push	{r4, lr}
    9404:	e3a01001 	mov	r1, #1, 0
    9408:	e1a01011 	lsl	r1, r1, r0
    940c:	e59f0004 	ldr	r0, [pc, #4]	; 9418 <gpio_set_off+0x20>
    9410:	ebfffb18 	bl	8078 <PUT32>
    9414:	e8bd8010 	pop	{r4, pc}
    9418:	20200028 	eorcs	r0, r0, r8, lsr #32

0000941c <gpio_set_input>:
    941c:	e92d4010 	push	{r4, lr}
    9420:	e3a01000 	mov	r1, #0, 0
    9424:	ebffffcd 	bl	9360 <gpio_set_function>
    9428:	e8bd8010 	pop	{r4, pc}

0000942c <gpio_write>:
    942c:	e92d4010 	push	{r4, lr}
    9430:	e3510000 	cmp	r1, #0, 0
    9434:	0a000001 	beq	9440 <gpio_write+0x14>
    9438:	ebffffe5 	bl	93d4 <gpio_set_on>
    943c:	e8bd8010 	pop	{r4, pc}
    9440:	ebffffec 	bl	93f8 <gpio_set_off>
    9444:	e8bd8010 	pop	{r4, pc}

00009448 <gpio_read>:
    9448:	e350001f 	cmp	r0, #31, 0
    944c:	8a000007 	bhi	9470 <gpio_read+0x28>
    9450:	e92d4010 	push	{r4, lr}
    9454:	e200401f 	and	r4, r0, #31, 0
    9458:	e59f3018 	ldr	r3, [pc, #24]	; 9478 <gpio_read+0x30>
    945c:	e08302a0 	add	r0, r3, r0, lsr #5
    9460:	ebfffb06 	bl	8080 <GET32>
    9464:	e1a00430 	lsr	r0, r0, r4
    9468:	e2000001 	and	r0, r0, #1, 0
    946c:	e8bd8010 	pop	{r4, pc}
    9470:	e3e00000 	mvn	r0, #0, 0
    9474:	e12fff1e 	bx	lr
    9478:	20200034 	eorcs	r0, r0, r4, lsr r0

0000947c <and_in32>:
    947c:	e92d4070 	push	{r4, r5, r6, lr}
    9480:	e1a04000 	mov	r4, r0
    9484:	e1a05001 	mov	r5, r1
    9488:	ebfffafc 	bl	8080 <GET32>
    948c:	e0001005 	and	r1, r0, r5
    9490:	e1a00004 	mov	r0, r4
    9494:	ebfffaf7 	bl	8078 <PUT32>
    9498:	e8bd8070 	pop	{r4, r5, r6, pc}

0000949c <or_in32>:
    949c:	e92d4070 	push	{r4, r5, r6, lr}
    94a0:	e1a04000 	mov	r4, r0
    94a4:	e1a05001 	mov	r5, r1
    94a8:	ebfffaf4 	bl	8080 <GET32>
    94ac:	e1801005 	orr	r1, r0, r5
    94b0:	e1a00004 	mov	r0, r4
    94b4:	ebfffaef 	bl	8078 <PUT32>
    94b8:	e8bd8070 	pop	{r4, r5, r6, pc}

000094bc <uart_init>:
    94bc:	e92d4010 	push	{r4, lr}
    94c0:	e3a01002 	mov	r1, #2, 0
    94c4:	e3a0000e 	mov	r0, #14, 0
    94c8:	ebffffa4 	bl	9360 <gpio_set_function>
    94cc:	e3a01002 	mov	r1, #2, 0
    94d0:	e3a0000f 	mov	r0, #15, 0
    94d4:	ebffffa1 	bl	9360 <gpio_set_function>
    94d8:	ebffff59 	bl	9244 <dev_barrier>
    94dc:	e3a01001 	mov	r1, #1, 0
    94e0:	e59f0064 	ldr	r0, [pc, #100]	; 954c <uart_init+0x90>
    94e4:	ebffffec 	bl	949c <or_in32>
    94e8:	ebffff55 	bl	9244 <dev_barrier>
    94ec:	e59f405c 	ldr	r4, [pc, #92]	; 9550 <uart_init+0x94>
    94f0:	e3a01000 	mov	r1, #0, 0
    94f4:	e1a00004 	mov	r0, r4
    94f8:	ebfffade 	bl	8078 <PUT32>
    94fc:	e3a01000 	mov	r1, #0, 0
    9500:	e59f004c 	ldr	r0, [pc, #76]	; 9554 <uart_init+0x98>
    9504:	ebfffadb 	bl	8078 <PUT32>
    9508:	e3a01003 	mov	r1, #3, 0
    950c:	e59f0044 	ldr	r0, [pc, #68]	; 9558 <uart_init+0x9c>
    9510:	ebfffad8 	bl	8078 <PUT32>
    9514:	e3a01000 	mov	r1, #0, 0
    9518:	e59f003c 	ldr	r0, [pc, #60]	; 955c <uart_init+0xa0>
    951c:	ebfffad5 	bl	8078 <PUT32>
    9520:	e3a010c7 	mov	r1, #199, 0	; 0xc7
    9524:	e59f0034 	ldr	r0, [pc, #52]	; 9560 <uart_init+0xa4>
    9528:	ebfffad2 	bl	8078 <PUT32>
    952c:	e59f1030 	ldr	r1, [pc, #48]	; 9564 <uart_init+0xa8>
    9530:	e59f0030 	ldr	r0, [pc, #48]	; 9568 <uart_init+0xac>
    9534:	ebfffacf 	bl	8078 <PUT32>
    9538:	e3a01003 	mov	r1, #3, 0
    953c:	e1a00004 	mov	r0, r4
    9540:	ebfffacc 	bl	8078 <PUT32>
    9544:	ebffff3e 	bl	9244 <dev_barrier>
    9548:	e8bd8010 	pop	{r4, pc}
    954c:	20215004 	eorcs	r5, r1, r4
    9550:	20215060 	eorcs	r5, r1, r0, rrx
    9554:	20215044 	eorcs	r5, r1, r4, asr #32
    9558:	2021504c 	eorcs	r5, r1, ip, asr #32
    955c:	20215050 	eorcs	r5, r1, r0, asr r0
    9560:	20215048 	eorcs	r5, r1, r8, asr #32
    9564:	0000010e 	andeq	r0, r0, lr, lsl #2
    9568:	20215068 	eorcs	r5, r1, r8, rrx

0000956c <uart_can_getc>:
    956c:	e92d4010 	push	{r4, lr}
    9570:	e59f0008 	ldr	r0, [pc, #8]	; 9580 <uart_can_getc+0x14>
    9574:	ebfffac1 	bl	8080 <GET32>
    9578:	e2000001 	and	r0, r0, #1, 0
    957c:	e8bd8010 	pop	{r4, pc}
    9580:	20215064 	eorcs	r5, r1, r4, rrx

00009584 <uart_can_putc>:
    9584:	e92d4010 	push	{r4, lr}
    9588:	e59f0010 	ldr	r0, [pc, #16]	; 95a0 <uart_can_putc+0x1c>
    958c:	ebfffabb 	bl	8080 <GET32>
    9590:	e3100002 	tst	r0, #2, 0
    9594:	13a00001 	movne	r0, #1, 0
    9598:	03a00000 	moveq	r0, #0, 0
    959c:	e8bd8010 	pop	{r4, pc}
    95a0:	20215064 	eorcs	r5, r1, r4, rrx

000095a4 <uart_getc>:
    95a4:	e92d4010 	push	{r4, lr}
    95a8:	ebffff25 	bl	9244 <dev_barrier>
    95ac:	ebffffee 	bl	956c <uart_can_getc>
    95b0:	e3500000 	cmp	r0, #0, 0
    95b4:	0afffffc 	beq	95ac <uart_getc+0x8>
    95b8:	e59f0010 	ldr	r0, [pc, #16]	; 95d0 <uart_getc+0x2c>
    95bc:	ebfffaaf 	bl	8080 <GET32>
    95c0:	e6ef4070 	uxtb	r4, r0
    95c4:	ebffff1e 	bl	9244 <dev_barrier>
    95c8:	e1a00004 	mov	r0, r4
    95cc:	e8bd8010 	pop	{r4, pc}
    95d0:	20215040 	eorcs	r5, r1, r0, asr #32

000095d4 <uart_putc>:
    95d4:	e92d4010 	push	{r4, lr}
    95d8:	e1a04000 	mov	r4, r0
    95dc:	ebffff18 	bl	9244 <dev_barrier>
    95e0:	ebffffe7 	bl	9584 <uart_can_putc>
    95e4:	e3500000 	cmp	r0, #0, 0
    95e8:	0afffffc 	beq	95e0 <uart_putc+0xc>
    95ec:	e6ef1074 	uxtb	r1, r4
    95f0:	e59f0008 	ldr	r0, [pc, #8]	; 9600 <uart_putc+0x2c>
    95f4:	ebfffa9f 	bl	8078 <PUT32>
    95f8:	ebffff11 	bl	9244 <dev_barrier>
    95fc:	e8bd8010 	pop	{r4, pc}
    9600:	20215040 	eorcs	r5, r1, r0, asr #32

00009604 <uart_has_data>:
    9604:	e92d4010 	push	{r4, lr}
    9608:	ebffff0d 	bl	9244 <dev_barrier>
    960c:	ebffffd6 	bl	956c <uart_can_getc>
    9610:	e8bd8010 	pop	{r4, pc}

00009614 <uart_tx_is_empty>:
    9614:	e92d4010 	push	{r4, lr}
    9618:	ebffff09 	bl	9244 <dev_barrier>
    961c:	e59f000c 	ldr	r0, [pc, #12]	; 9630 <uart_tx_is_empty+0x1c>
    9620:	ebfffa96 	bl	8080 <GET32>
    9624:	e1a004a0 	lsr	r0, r0, #9
    9628:	e2000001 	and	r0, r0, #1, 0
    962c:	e8bd8010 	pop	{r4, pc}
    9630:	20215064 	eorcs	r5, r1, r4, rrx

00009634 <uart_flush_tx>:
    9634:	e92d4010 	push	{r4, lr}
    9638:	ebfffff5 	bl	9614 <uart_tx_is_empty>
    963c:	e3500000 	cmp	r0, #0, 0
    9640:	0afffffc 	beq	9638 <uart_flush_tx+0x4>
    9644:	e8bd8010 	pop	{r4, pc}

00009648 <uart_disable>:
    9648:	e92d4010 	push	{r4, lr}
    964c:	ebfffff8 	bl	9634 <uart_flush_tx>
    9650:	ebfffefb 	bl	9244 <dev_barrier>
    9654:	e3e01001 	mvn	r1, #1, 0
    9658:	e59f0008 	ldr	r0, [pc, #8]	; 9668 <uart_disable+0x20>
    965c:	ebffff86 	bl	947c <and_in32>
    9660:	ebfffef7 	bl	9244 <dev_barrier>
    9664:	e8bd8010 	pop	{r4, pc}
    9668:	20215004 	eorcs	r5, r1, r4

0000966c <internal_putchar>:
    966c:	e92d4010 	push	{r4, lr}
    9670:	e1a04000 	mov	r4, r0
    9674:	ebffffd6 	bl	95d4 <uart_putc>
    9678:	e1a00004 	mov	r0, r4
    967c:	e8bd8010 	pop	{r4, pc}

00009680 <rpi_reset_putc>:
    9680:	e59f3008 	ldr	r3, [pc, #8]	; 9690 <rpi_reset_putc+0x10>
    9684:	e59f2008 	ldr	r2, [pc, #8]	; 9694 <rpi_reset_putc+0x14>
    9688:	e5832000 	str	r2, [r3]
    968c:	e12fff1e 	bx	lr
    9690:	00009ba0 	andeq	r9, r0, r0, lsr #23
    9694:	0000966c 	andeq	r9, r0, ip, ror #12

00009698 <rpi_set_putc>:
    9698:	e59f3004 	ldr	r3, [pc, #4]	; 96a4 <rpi_set_putc+0xc>
    969c:	e5830000 	str	r0, [r3]
    96a0:	e12fff1e 	bx	lr
    96a4:	00009ba0 	andeq	r9, r0, r0, lsr #23

000096a8 <strcat>:
    96a8:	e1a02000 	mov	r2, r0
    96ac:	e1a03002 	mov	r3, r2
    96b0:	e2822001 	add	r2, r2, #1, 0
    96b4:	e5d3c000 	ldrb	ip, [r3]
    96b8:	e35c0000 	cmp	ip, #0, 0
    96bc:	1afffffa 	bne	96ac <strcat+0x4>
    96c0:	e2433001 	sub	r3, r3, #1, 0
    96c4:	e5d12000 	ldrb	r2, [r1]
    96c8:	e2811001 	add	r1, r1, #1, 0
    96cc:	e5e32001 	strb	r2, [r3, #1]!
    96d0:	e3520000 	cmp	r2, #0, 0
    96d4:	1afffffa 	bne	96c4 <strcat+0x1c>
    96d8:	e12fff1e 	bx	lr

000096dc <strcmp>:
    96dc:	e5d03000 	ldrb	r3, [r0]
    96e0:	e3530000 	cmp	r3, #0, 0
    96e4:	0a000004 	beq	96fc <strcmp+0x20>
    96e8:	e5d12000 	ldrb	r2, [r1]
    96ec:	e1530002 	cmp	r3, r2
    96f0:	02800001 	addeq	r0, r0, #1, 0
    96f4:	02811001 	addeq	r1, r1, #1, 0
    96f8:	0afffff7 	beq	96dc <strcmp>
    96fc:	e5d10000 	ldrb	r0, [r1]
    9700:	e0430000 	sub	r0, r3, r0
    9704:	e12fff1e 	bx	lr

00009708 <strcpy>:
    9708:	e1a0c000 	mov	ip, r0
    970c:	e5d12000 	ldrb	r2, [r1]
    9710:	e2811001 	add	r1, r1, #1, 0
    9714:	e5cc2000 	strb	r2, [ip]
    9718:	e28cc001 	add	ip, ip, #1, 0
    971c:	e3520000 	cmp	r2, #0, 0
    9720:	1afffff9 	bne	970c <strcpy+0x4>
    9724:	e12fff1e 	bx	lr

00009728 <strncmp>:
    9728:	e3520000 	cmp	r2, #0, 0
    972c:	e2422001 	sub	r2, r2, #1, 0
    9730:	0a000005 	beq	974c <strncmp+0x24>
    9734:	e4d03001 	ldrb	r3, [r0], #1
    9738:	e4d1c001 	ldrb	ip, [r1], #1
    973c:	e153000c 	cmp	r3, ip
    9740:	0afffff8 	beq	9728 <strncmp>
    9744:	e043000c 	sub	r0, r3, ip
    9748:	e12fff1e 	bx	lr
    974c:	e3a00000 	mov	r0, #0, 0
    9750:	e12fff1e 	bx	lr

00009754 <reboot_callout>:
    9754:	e12fff1e 	bx	lr

Disassembly of section .rodata:

00009758 <__FUNCTION__.0-0x1bc>:
    9758:	3d74756f 	cfldr64cc	mvdx7, [r4, #-444]!	; 0xfffffe44
    975c:	000a6425 	andeq	r6, sl, r5, lsr #8
    9760:	3e73253c 	mrccc	5, 3, r2, cr3, cr12, {1}
    9764:	6e6f6320 	cdpvs	3, 6, cr6, cr15, cr0, {1}
    9768:	3a676966 	bcc	19e3d08 <__bss_end__+0x19d9d60>
    976c:	0000000a 	andeq	r0, r0, sl
    9770:	5b534f09 	blpl	14dd39c <__bss_end__+0x14d33f4>
    9774:	3d5d3531 	cfldr64cc	mvdx3, [sp, #-196]	; 0xffffff3c
    9778:	000a6225 	andeq	r6, sl, r5, lsr #4
    977c:	58554d09 	ldmdapl	r5, {r0, r3, r8, sl, fp, lr}^
    9780:	3a32315b 	bcc	c95cf4 <__bss_end__+0xc8bd4c>
    9784:	3d5d3431 	cfldrdcc	mvd3, [sp, #-196]	; 0xffffff3c
    9788:	000a6225 	andeq	r6, sl, r5, lsr #4
    978c:	41475009 	cmpmi	r7, r9
    9790:	313a395b 	teqcc	sl, fp, asr r9
    9794:	253d5d31 	ldrcs	r5, [sp, #-3377]!	; 0xfffff2cf
    9798:	00000a62 	andeq	r0, r0, r2, ror #20
    979c:	444f4d09 	strbmi	r4, [pc], #-3337	; 97a4 <__code_end__+0x4c>
    97a0:	5d385b45 	fldmdbxpl	r8!, {d5-d38}	;@ Deprecated
    97a4:	0a62253d 	beq	1892ca0 <__bss_end__+0x1888cf8>
    97a8:	00000000 	andeq	r0, r0, r0
    97ac:	5b524409 	blpl	149a7d8 <__bss_end__+0x1490830>
    97b0:	5d373a35 	vldmdbpl	r7!, {s6-s58}
    97b4:	0a62253d 	beq	1892cb0 <__bss_end__+0x1888d08>
    97b8:	00000000 	andeq	r0, r0, r0
    97bc:	4d4f4309 	stclmi	3, cr4, [pc, #-36]	; 97a0 <__code_end__+0x48>
    97c0:	4f4d5f50 	svcmi	0x004d5f50
    97c4:	345b4544 	ldrbcc	r4, [fp], #-1348	; 0xfffffabc
    97c8:	62253d5d 	eorvs	r3, r5, #5952	; 0x1740
    97cc:	0000000a 	andeq	r0, r0, sl
    97d0:	4d4f4309 	stclmi	3, cr4, [pc, #-36]	; 97b4 <__code_end__+0x5c>
    97d4:	4f505f50 	svcmi	0x00505f50
    97d8:	5d335b4c 	vldmdbpl	r3!, {d5-<overflow reg d42>}
    97dc:	0a62253d 	beq	1892cd8 <__bss_end__+0x1888d30>
    97e0:	00000000 	andeq	r0, r0, r0
    97e4:	4d4f4309 	stclmi	3, cr4, [pc, #-36]	; 97c8 <__code_end__+0x70>
    97e8:	414c5f50 	cmpmi	ip, r0, asr pc
    97ec:	5d325b54 	vldmdbpl	r2!, {d5-<overflow reg d46>}
    97f0:	0a62253d 	beq	1892cec <__bss_end__+0x1888d44>
    97f4:	00000000 	andeq	r0, r0, r0
    97f8:	4d4f4309 	stclmi	3, cr4, [pc, #-36]	; 97dc <__code_end__+0x84>
    97fc:	5b515f50 	blpl	1461544 <__bss_end__+0x145759c>
    9800:	5d313a30 	vldmdbpl	r1!, {s6-s53}
    9804:	0a62253d 	beq	1892d00 <__bss_end__+0x1888d58>
    9808:	00000000 	andeq	r0, r0, r0
    980c:	74696e69 	strbtvc	r6, [r9], #-3689	; 0xfffff197
    9810:	3a6c6169 	bcc	1b21dbc <__bss_end__+0x1b17e14>
    9814:	6e6f6320 	cdpvs	3, 6, cr6, cr15, cr0, {1}
    9818:	20676966 	rsbcs	r6, r7, r6, ror #18
    981c:	20676572 	rsbcs	r6, r7, r2, ror r5
    9820:	253d203d 	ldrcs	r2, [sp, #-61]!	; 0xffffffc3
    9824:	6c282062 	stcvs	0, cr2, [r8], #-392	; 0xfffffe78
    9828:	62253d6f 	eorvs	r3, r5, #7104	; 0x1bc0
    982c:	3d69682c 	stclcc	8, cr6, [r9, #-176]!	; 0xffffff50
    9830:	0a296225 	beq	a620cc <__bss_end__+0xa58124>
    9834:	00000000 	andeq	r0, r0, r0
    9838:	74696e69 	strbtvc	r6, [r9], #-3689	; 0xfffff197
    983c:	006c6169 	rsbeq	r6, ip, r9, ror #2
    9840:	66617473 			; <UNDEFINED> instruction: 0x66617473
    9844:	64612d66 	strbtvs	r2, [r1], #-3430	; 0xfffff29a
    9848:	31313173 	teqcc	r1, r3, ror r1
    984c:	00632e35 	rsbeq	r2, r3, r5, lsr lr
    9850:	494e4150 	stmdbmi	lr, {r4, r6, r8, lr}^
    9854:	73253a43 			; <UNDEFINED> instruction: 0x73253a43
    9858:	3a73253a 	bcc	1cd2d48 <__bss_end__+0x1cc8da0>
    985c:	253a6425 	ldrcs	r6, [sl, #-1061]!	; 0xfffffbdb
    9860:	00000a73 	andeq	r0, r0, r3, ror sl
    9864:	45444f4d 	strbmi	r4, [r4, #-3917]	; 0xfffff0b3
    9868:	6328565f 			; <UNDEFINED> instruction: 0x6328565f
    986c:	3d3d2029 	ldccc	0, cr2, [sp, #-164]!	; 0xffffff5c
    9870:	00003120 	andeq	r3, r0, r0, lsr #2
    9874:	565f5244 	ldrbpl	r5, [pc], -r4, asr #4
    9878:	20296328 	eorcs	r6, r9, r8, lsr #6
    987c:	30203d3d 	eorcc	r3, r0, sp, lsr sp
    9880:	30303162 	eorscc	r3, r0, r2, ror #2
    9884:	00000000 	andeq	r0, r0, r0
    9888:	5f414750 	svcpl	0x00414750
    988c:	29632856 	stmdbcs	r3!, {r1, r2, r4, r6, fp, sp}^
    9890:	203d3d20 	eorscs	r3, sp, r0, lsr #26
    9894:	31306230 	teqcc	r0, r0, lsr r2
    9898:	00000030 	andeq	r0, r0, r0, lsr r0
    989c:	74697277 	strbtvc	r7, [r9], #-631	; 0xfffffd89
    98a0:	20676e69 	rsbcs	r6, r7, r9, ror #28
    98a4:	666e6f63 	strbtvs	r6, [lr], -r3, ror #30
    98a8:	203a6769 	eorscs	r6, sl, r9, ror #14
    98ac:	78257830 	stmdavc	r5!, {r4, r5, fp, ip, sp, lr}
    98b0:	0000000a 	andeq	r0, r0, sl
    98b4:	65746661 	ldrbvs	r6, [r4, #-1633]!	; 0xfffff99f
    98b8:	63203a72 			; <UNDEFINED> instruction: 0x63203a72
    98bc:	69666e6f 	stmdbvs	r6!, {r0, r1, r2, r3, r5, r6, r9, sl, fp, sp, lr}^
    98c0:	65722067 	ldrbvs	r2, [r2, #-103]!	; 0xffffff99
    98c4:	203d2067 	eorscs	r2, sp, r7, rrx
    98c8:	78257830 	stmdavc	r5!, {r4, r5, fp, ip, sp, lr}
    98cc:	69682820 	stmdbvs	r8!, {r5, fp, sp}^
    98d0:	2c62253d 	cfstr64cs	mvdx2, [r2], #-244	; 0xffffff0c
    98d4:	253d6f6c 	ldrcs	r6, [sp, #-3948]!	; 0xfffff094
    98d8:	000a2962 	andeq	r2, sl, r2, ror #18
    98dc:	65746661 	ldrbvs	r6, [r4, #-1633]!	; 0xfffff99f
    98e0:	00000072 	andeq	r0, r0, r2, ror r0
    98e4:	45444f4d 	strbmi	r4, [r4, #-3917]	; 0xfffff0b3
    98e8:	6328565f 			; <UNDEFINED> instruction: 0x6328565f
    98ec:	3d3d2029 	ldccc	0, cr2, [sp, #-164]!	; 0xffffff5c
    98f0:	00003020 	andeq	r3, r0, r0, lsr #32
    98f4:	5f414750 	svcpl	0x00414750
    98f8:	29632856 	stmdbcs	r3!, {r1, r2, r4, r6, fp, sp}^
    98fc:	203d3d20 	eorscs	r3, sp, r0, lsr #26
    9900:	00616770 	rsbeq	r6, r1, r0, ror r7
    9904:	565f5244 	ldrbpl	r5, [pc], -r4, asr #4
    9908:	20296328 	eorcs	r6, r9, r8, lsr #6
    990c:	64203d3d 	strtvs	r3, [r0], #-3389	; 0xfffff2c3
    9910:	00000072 	andeq	r0, r0, r2, ror r0

00009914 <__FUNCTION__.0>:
    9914:	31736461 	cmncc	r3, r1, ror #8
    9918:	5f353131 	svcpl	0x00353131
    991c:	666e6f63 	strbtvs	r6, [lr], -r3, ror #30
    9920:	00006769 	andeq	r6, r0, r9, ror #14
    9924:	66617473 			; <UNDEFINED> instruction: 0x66617473
    9928:	32692d66 	rsbcc	r2, r9, #6528	; 0x1980
    992c:	00632e63 	rsbeq	r2, r3, r3, ror #28
    9930:	494e4150 	stmdbmi	lr, {r4, r6, r8, lr}^
    9934:	73253a43 			; <UNDEFINED> instruction: 0x73253a43
    9938:	3a73253a 	bcc	1cd2e28 <__bss_end__+0x1cc8e80>
    993c:	693a6425 	ldmdbvs	sl!, {r0, r2, r5, sl, sp, lr}
    9940:	73206332 			; <UNDEFINED> instruction: 0x73206332
    9944:	6576616c 	ldrbvs	r6, [r6, #-364]!	; 0xfffffe94
    9948:	6b636120 	blvs	18e1dd0 <__bss_end__+0x18d7e28>
    994c:	72726520 	rsbsvc	r6, r2, #32, 10	; 0x8000000
    9950:	000a726f 	andeq	r7, sl, pc, ror #4
    9954:	494e4150 	stmdbmi	lr, {r4, r6, r8, lr}^
    9958:	73253a43 			; <UNDEFINED> instruction: 0x73253a43
    995c:	3a73253a 	bcc	1cd2e4c <__bss_end__+0x1cc8ea4>
    9960:	693a6425 	ldmdbvs	sl!, {r0, r2, r5, sl, sp, lr}
    9964:	73206332 			; <UNDEFINED> instruction: 0x73206332
    9968:	6576616c 	ldrbvs	r6, [r6, #-364]!	; 0xfffffe94
    996c:	6c656820 	stclvs	8, cr6, [r5], #-128	; 0xffffff80
    9970:	696c2064 	stmdbvs	ip!, {r2, r5, r6, sp}^
    9974:	7420656e 	strtvc	r6, [r0], #-1390	; 0xfffffa92
    9978:	6c206f6f 	stcvs	15, cr6, [r0], #-444	; 0xfffffe44
    997c:	0a676e6f 	beq	19e5340 <__bss_end__+0x19db398>
    9980:	00000000 	andeq	r0, r0, r0
    9984:	2d633269 	sfmcs	f3, 2, [r3, #-420]!	; 0xfffffe5c
    9988:	6174733e 	cmnvs	r4, lr, lsr r3
    998c:	2e737574 	mrccs	5, 3, r7, cr3, cr4, {3}
    9990:	3d206174 	stfccs	f6, [r0, #-464]!	; 0xfffffe30
    9994:	0030203d 	eorseq	r2, r0, sp, lsr r0
    9998:	63326921 	teqvs	r2, #540672	; 0x84000
    999c:	74733e2d 	ldrbtvc	r3, [r3], #-3629	; 0xfffff1d3
    99a0:	73757461 	cmnvc	r5, #1627389952	; 0x61000000
    99a4:	7272652e 	rsbsvc	r6, r2, #192937984	; 0xb800000
    99a8:	00000000 	andeq	r0, r0, r0
    99ac:	2d633269 	sfmcs	f3, 2, [r3, #-420]!	; 0xfffffe5c
    99b0:	6174733e 	cmnvs	r4, lr, lsr r3
    99b4:	2e737574 	mrccs	5, 3, r7, cr3, cr4, {3}
    99b8:	20657874 	rsbcs	r7, r5, r4, ror r8
    99bc:	31203d3d 			; <UNDEFINED> instruction: 0x31203d3d
    99c0:	00000000 	andeq	r0, r0, r0
    99c4:	64612828 	strbtvs	r2, [r1], #-2088	; 0xfffff7d8
    99c8:	20297264 	eorcs	r7, r9, r4, ror #4
    99cc:	37203e3e 			; <UNDEFINED> instruction: 0x37203e3e
    99d0:	3d3d2029 	ldccc	0, cr2, [sp, #-164]!	; 0xffffff5c
    99d4:	00003020 	andeq	r3, r0, r0, lsr #32
    99d8:	626e2828 	rsbvs	r2, lr, #40, 16	; 0x280000
    99dc:	73657479 	cmnvc	r5, #2030043136	; 0x79000000
    99e0:	3e3e2029 	cdpcc	0, 3, cr2, cr14, cr9, {1}
    99e4:	29363120 	ldmdbcs	r6!, {r5, r8, ip, sp}
    99e8:	203d3d20 	eorscs	r3, sp, r0, lsr #26
    99ec:	00000030 	andeq	r0, r0, r0, lsr r0

000099f0 <__FUNCTION__.3>:
    99f0:	72656678 	rsbvc	r6, r5, #120, 12	; 0x7800000
    99f4:	646e655f 	strbtvs	r6, [lr], #-1375	; 0xfffffaa1
    99f8:	00000000 	andeq	r0, r0, r0

000099fc <__FUNCTION__.4>:
    99fc:	72656678 	rsbvc	r6, r5, #120, 12	; 0x7800000
    9a00:	6174735f 	cmnvs	r4, pc, asr r3
    9a04:	00007472 	andeq	r7, r0, r2, ror r4

00009a08 <__FUNCTION__.5>:
    9a08:	5f633269 	svcpl	0x00633269
    9a0c:	74697277 	strbtvc	r7, [r9], #-631	; 0xfffffd89
    9a10:	00000065 	andeq	r0, r0, r5, rrx

00009a14 <__FUNCTION__.2>:
    9a14:	5f633269 	svcpl	0x00633269
    9a18:	64616572 	strbtvs	r6, [r1], #-1394	; 0xfffffa8e
    9a1c:	00000000 	andeq	r0, r0, r0

00009a20 <__FUNCTION__.1>:
    9a20:	5f633269 	svcpl	0x00633269
    9a24:	74696e69 	strbtvc	r6, [r9], #-3689	; 0xfffff197
    9a28:	00000000 	andeq	r0, r0, r0
    9a2c:	696c2f2e 	stmdbvs	ip!, {r1, r2, r3, r5, r8, r9, sl, fp, sp}^
    9a30:	762f6362 	strtvc	r6, [pc], -r2, ror #6
    9a34:	72702d61 	rsbsvc	r2, r0, #6208	; 0x1840
    9a38:	6b746e69 	blvs	1d253e4 <__bss_end__+0x1d1b43c>
    9a3c:	0000632e 	andeq	r6, r0, lr, lsr #6
    9a40:	33323130 	teqcc	r2, #12
    9a44:	37363534 			; <UNDEFINED> instruction: 0x37363534
    9a48:	00003938 	andeq	r3, r0, r8, lsr r9
    9a4c:	33323130 	teqcc	r2, #12
    9a50:	37363534 			; <UNDEFINED> instruction: 0x37363534
    9a54:	62613938 	rsbvs	r3, r1, #56, 18	; 0xe0000
    9a58:	66656463 	strbtvs	r6, [r5], -r3, ror #8
    9a5c:	00000000 	andeq	r0, r0, r0
    9a60:	00003130 	andeq	r3, r0, r0, lsr r1
    9a64:	63747570 	cmnvs	r4, #112, 10	; 0x1c000000
    9a68:	0070665f 	rsbseq	r6, r0, pc, asr r6
    9a6c:	74646977 	strbtvc	r6, [r4], #-2423	; 0xfffff689
    9a70:	203c2068 	eorscs	r2, ip, r8, rrx
    9a74:	00003233 	andeq	r3, r0, r3, lsr r2
    9a78:	00786c6c 	rsbseq	r6, r8, ip, ror #24
    9a7c:	00646c6c 	rsbeq	r6, r4, ip, ror #24
    9a80:	253d3078 	ldrcs	r3, [sp, #-120]!	; 0xffffff88
    9a84:	00000a78 	andeq	r0, r0, r8, ror sl
    9a88:	253d3178 	ldrcs	r3, [sp, #-376]!	; 0xfffffe88
    9a8c:	00000a78 	andeq	r0, r0, r8, ror sl
    9a90:	6e727473 	mrcvs	4, 3, r7, cr2, cr3, {3}
    9a94:	28706d63 	ldmdacs	r0!, {r0, r1, r5, r6, r8, sl, fp, sp, lr}^
    9a98:	202c7974 	eorcs	r7, ip, r4, ror r9
    9a9c:	786c6c22 	stmdavc	ip!, {r1, r5, sl, fp, sp, lr}^
    9aa0:	33202c22 			; <UNDEFINED> instruction: 0x33202c22
    9aa4:	3d3d2029 	ldccc	0, cr2, [sp, #-164]!	; 0xffffff5c
    9aa8:	7c203020 	stcvc	0, cr3, [r0], #-128	; 0xffffff80
    9aac:	7473207c 	ldrbtvc	r2, [r3], #-124	; 0xffffff84
    9ab0:	6d636e72 	stclvs	14, cr6, [r3, #-456]!	; 0xfffffe38
    9ab4:	79742870 	ldmdbvc	r4!, {r4, r5, r6, fp, sp}^
    9ab8:	6c22202c 	stcvs	0, cr2, [r2], #-176	; 0xffffff50
    9abc:	2c22646c 	cfstrscs	mvf6, [r2], #-432	; 0xfffffe50
    9ac0:	20293320 	eorcs	r3, r9, r0, lsr #6
    9ac4:	30203d3d 	eorcc	r3, r0, sp, lsr sp
    9ac8:	00000000 	andeq	r0, r0, r0
    9acc:	494e4150 	stmdbmi	lr, {r4, r6, r8, lr}^
    9ad0:	73253a43 			; <UNDEFINED> instruction: 0x73253a43
    9ad4:	3a73253a 	bcc	1cd2fc4 <__bss_end__+0x1cc901c>
    9ad8:	693a6425 	ldmdbvs	sl!, {r0, r2, r5, sl, sp, lr}
    9adc:	736f706d 	cmnvc	pc, #109, 0	; 0x6d
    9ae0:	6c626973 			; <UNDEFINED> instruction: 0x6c626973
    9ae4:	66203a65 	strtvs	r3, [r0], -r5, ror #20
    9ae8:	3c3d746d 	cfldrscc	mvf7, [sp], #-436	; 0xfffffe4c
    9aec:	0a3e7325 	beq	fa6788 <__bss_end__+0xf9c7e0>
    9af0:	0000000a 	andeq	r0, r0, sl
    9af4:	494e4150 	stmdbmi	lr, {r4, r6, r8, lr}^
    9af8:	73253a43 			; <UNDEFINED> instruction: 0x73253a43
    9afc:	3a73253a 	bcc	1cd2fec <__bss_end__+0x1cc9044>
    9b00:	663a6425 	ldrtvs	r6, [sl], -r5, lsr #8
    9b04:	74616f6c 	strbtvc	r6, [r1], #-3948	; 0xfffff094
    9b08:	746f6e20 	strbtvc	r6, [pc], #-3616	; 9b10 <__FUNCTION__.1+0xf0>
    9b0c:	616e6520 	cmnvs	lr, r0, lsr #10
    9b10:	64656c62 	strbtvs	r6, [r5], #-3170	; 0xfffff39e
    9b14:	0a212121 	beq	851fa0 <__bss_end__+0x847ff8>
    9b18:	00000000 	andeq	r0, r0, r0
    9b1c:	6e697270 	mcrvs	2, 3, r7, cr9, cr0, {3}
    9b20:	203a6b74 	eorscs	r6, sl, r4, ror fp
    9b24:	20746f6e 	rsbscs	r6, r4, lr, ror #30
    9b28:	646e6168 	strbtvs	r6, [lr], #-360	; 0xfffffe98
    9b2c:	676e696c 	strbvs	r6, [lr, -ip, ror #18]!
    9b30:	65707320 	ldrbvs	r7, [r0, #-800]!	; 0xfffffce0
    9b34:	69666963 	stmdbvs	r6!, {r0, r1, r5, r6, r8, fp, sp, lr}^
    9b38:	27207265 	strcs	r7, [r0, -r5, ror #4]!
    9b3c:	20276325 	eorcs	r6, r7, r5, lsr #6
    9b40:	63736128 	cmnvs	r3, #10
    9b44:	253d6969 	ldrcs	r6, [sp, #-2409]!	; 0xfffff697
    9b48:	000a2964 	andeq	r2, sl, r4, ror #18
    9b4c:	494e4150 	stmdbmi	lr, {r4, r6, r8, lr}^
    9b50:	73253a43 			; <UNDEFINED> instruction: 0x73253a43
    9b54:	3a73253a 	bcc	1cd3044 <__bss_end__+0x1cc909c>
    9b58:	703a6425 	eorsvc	r6, sl, r5, lsr #8
    9b5c:	746e6972 	strbtvc	r6, [lr], #-2418	; 0xfffff68e
    9b60:	7265206b 	rsbvc	r2, r5, #107, 0	; 0x6b
    9b64:	0a726f72 	beq	1ca5934 <__bss_end__+0x1c9b98c>
    9b68:	0000000a 	andeq	r0, r0, sl

00009b6c <__FUNCTION__.4008>:
    9b6c:	74696d65 	strbtvc	r6, [r9], #-3429	; 0xfffff29b
    9b70:	00000000 	andeq	r0, r0, r0

00009b74 <__FUNCTION__.3956>:
    9b74:	5f697072 	svcpl	0x00697072
    9b78:	5f746573 	svcpl	0x00746573
    9b7c:	7074756f 	rsbsvc	r7, r4, pc, ror #10
    9b80:	00007475 	andeq	r7, r0, r5, ror r4

00009b84 <__FUNCTION__.4034>:
    9b84:	705f6176 	subsvc	r6, pc, r6, ror r1	; <UNPREDICTABLE>
    9b88:	746e6972 	strbtvc	r6, [lr], #-2418	; 0xfffff68e
    9b8c:	0000006b 	andeq	r0, r0, fp, rrx
    9b90:	454e4f44 	strbmi	r4, [lr, #-3908]	; 0xfffff0bc
    9b94:	0a212121 	beq	852020 <__bss_end__+0x848078>
	...

Disassembly of section .data:

00009b9c <putk>:
    9b9c:	00008a64 	andeq	r8, r0, r4, ror #20

00009ba0 <rpi_putchar>:
    9ba0:	0000966c 	andeq	r9, r0, ip, ror #12

Disassembly of section .bss:

00009ba4 <__bss_start__>:
    9ba4:	00000000 	andeq	r0, r0, r0

00009ba8 <buf.3948>:
	...

Disassembly of section .ARM.attributes:

00000000 <.ARM.attributes>:
   0:	00002c41 	andeq	r2, r0, r1, asr #24
   4:	61656100 	cmnvs	r5, r0, lsl #2
   8:	01006962 	tsteq	r0, r2, ror #18
   c:	00000022 	andeq	r0, r0, r2, lsr #32
  10:	4b5a3605 	blmi	168d82c <__bss_end__+0x1683884>
  14:	08070600 	stmdaeq	r7, {r9, sl}
  18:	0a010901 	beq	42424 <__bss_end__+0x3847c>
  1c:	14041202 	strne	r1, [r4], #-514	; 0xfffffdfe
  20:	17011501 	strne	r1, [r1, -r1, lsl #10]
  24:	1a011803 	bne	46038 <__bss_end__+0x3c090>
  28:	44012201 	strmi	r2, [r1], #-513	; 0xfffffdff
  2c:	Address 0x000000000000002c is out of bounds.


Disassembly of section .comment:

00000000 <.comment>:
   0:	3a434347 	bcc	10d0d24 <__bss_end__+0x10c6d7c>
   4:	4e472820 	cdpmi	8, 4, cr2, cr7, cr0, {1}
   8:	6f542055 	svcvs	0x00542055
   c:	20736c6f 	rsbscs	r6, r3, pc, ror #24
  10:	20726f66 	rsbscs	r6, r2, r6, ror #30
  14:	206d7241 	rsbcs	r7, sp, r1, asr #4
  18:	65626d45 	strbvs	r6, [r2, #-3397]!	; 0xfffff2bb
  1c:	64656464 	strbtvs	r6, [r5], #-1124	; 0xfffffb9c
  20:	6f725020 	svcvs	0x00725020
  24:	73736563 	cmnvc	r3, #415236096	; 0x18c00000
  28:	2073726f 	rsbscs	r7, r3, pc, ror #4
  2c:	30322d39 	eorscc	r2, r2, r9, lsr sp
  30:	712d3931 			; <UNDEFINED> instruction: 0x712d3931
  34:	616d2d34 	cmnvs	sp, r4, lsr sp
  38:	29726f6a 	ldmdbcs	r2!, {r1, r3, r5, r6, r8, r9, sl, fp, sp, lr}^
  3c:	322e3920 	eorcc	r3, lr, #32, 18	; 0x80000
  40:	3220312e 	eorcc	r3, r0, #-2147483637	; 0x8000000b
  44:	31393130 	teqcc	r9, r0, lsr r1
  48:	20353230 	eorscs	r3, r5, r0, lsr r2
  4c:	6c657228 	sfmvs	f7, 2, [r5], #-160	; 0xffffff60
  50:	65736165 	ldrbvs	r6, [r3, #-357]!	; 0xfffffe9b
  54:	415b2029 	cmpmi	fp, r9, lsr #32
  58:	612f4d52 			; <UNDEFINED> instruction: 0x612f4d52
  5c:	392d6d72 	pushcc	{r1, r4, r5, r6, r8, sl, fp, sp, lr}
  60:	6172622d 	cmnvs	r2, sp, lsr #4
  64:	2068636e 	rsbcs	r6, r8, lr, ror #6
  68:	69766572 	ldmdbvs	r6!, {r1, r4, r5, r6, r8, sl, sp, lr}^
  6c:	6e6f6973 			; <UNDEFINED> instruction: 0x6e6f6973
  70:	37373220 	ldrcc	r3, [r7, -r0, lsr #4]!
  74:	5d393935 			; <UNDEFINED> instruction: 0x5d393935
  78:	43434700 	movtmi	r4, #14080	; 0x3700
  7c:	4728203a 			; <UNDEFINED> instruction: 0x4728203a
  80:	4120554e 			; <UNDEFINED> instruction: 0x4120554e
  84:	45206d72 	strmi	r6, [r0, #-3442]!	; 0xfffff28e
  88:	6465626d 	strbtvs	r6, [r5], #-621	; 0xfffffd93
  8c:	20646564 	rsbcs	r6, r4, r4, ror #10
  90:	6c6f6f54 	stclvs	15, cr6, [pc], #-336	; ffffff48 <__bss_end__+0xffff5fa0>
  94:	69616863 	stmdbvs	r1!, {r0, r1, r5, r6, fp, sp, lr}^
  98:	3031206e 	eorscc	r2, r1, lr, rrx
  9c:	322d332e 	eorcc	r3, sp, #-1207959552	; 0xb8000000
  a0:	2e313230 	mrccs	2, 1, r3, cr1, cr0, {1}
  a4:	20293031 	eorcs	r3, r9, r1, lsr r0
  a8:	332e3031 			; <UNDEFINED> instruction: 0x332e3031
  ac:	3220312e 	eorcc	r3, r0, #-2147483637	; 0x8000000b
  b0:	30313230 	eorscc	r3, r1, r0, lsr r2
  b4:	20343238 	eorscs	r3, r4, r8, lsr r2
  b8:	6c657228 	sfmvs	f7, 2, [r5], #-160	; 0xffffff60
  bc:	65736165 	ldrbvs	r6, [r3, #-357]!	; 0xfffffe9b
  c0:	Address 0x00000000000000c0 is out of bounds.


Disassembly of section .debug_info:

00000000 <.debug_info>:
       0:	000001cd 	andeq	r0, r0, sp, asr #3
       4:	00000004 	andeq	r0, r0, r4
       8:	01040000 	mrseq	r0, (UNDEF: 4)
       c:	00000125 	andeq	r0, r0, r5, lsr #2
      10:	0000d80c 	andeq	sp, r0, ip, lsl #16
      14:	00001a00 	andeq	r1, r0, r0, lsl #20
      18:	0080d800 	addeq	sp, r0, r0, lsl #16
      1c:	00004800 	andeq	r4, r0, r0, lsl #16
      20:	00000000 	andeq	r0, r0, r0
      24:	05040200 	streq	r0, [r4, #-512]	; 0xfffffe00
      28:	00746e69 	rsbseq	r6, r4, r9, ror #28
      2c:	eb070403 	bl	1c1040 <__bss_end__+0x1b7098>
      30:	03000000 	movweq	r0, #0
      34:	00850601 	addeq	r0, r5, r1, lsl #12
      38:	02030000 	andeq	r0, r3, #0, 0
      3c:	00011205 	andeq	r1, r1, r5, lsl #4
      40:	05040300 	streq	r0, [r4, #-768]	; 0xfffffd00
      44:	000000fd 	strdeq	r0, [r0], -sp
      48:	f8050803 			; <UNDEFINED> instruction: 0xf8050803
      4c:	03000000 	movweq	r0, #0
      50:	00830801 	addeq	r0, r3, r1, lsl #16
      54:	02030000 	andeq	r0, r3, #0, 0
      58:	0000a707 	andeq	sl, r0, r7, lsl #14
      5c:	07040300 	streq	r0, [r4, -r0, lsl #6]
      60:	000000e6 	andeq	r0, r0, r6, ror #1
      64:	e1070803 	tst	r7, r3, lsl #16
      68:	04000000 	streq	r0, [r0], #-0
      6c:	00000025 	andeq	r0, r0, r5, lsr #32
      70:	0000007a 	andeq	r0, r0, sl, ror r0
      74:	00002505 	andeq	r2, r0, r5, lsl #10
      78:	06060000 	streq	r0, [r6], -r0
      7c:	02000001 	andeq	r0, r0, #1, 0
      80:	00860e1c 	addeq	r0, r6, ip, lsl lr
      84:	04070000 	streq	r0, [r7], #-0
      88:	0000006b 	andeq	r0, r0, fp, rrx
      8c:	00002504 	andeq	r2, r0, r4, lsl #10
      90:	00009b00 	andeq	r9, r0, r0, lsl #22
      94:	009b0500 	addseq	r0, fp, r0, lsl #10
      98:	07000000 	streq	r0, [r0, -r0]
      9c:	0000a804 	andeq	sl, r0, r4, lsl #16
      a0:	08010300 	stmdaeq	r1, {r8, r9}
      a4:	0000008c 	andeq	r0, r0, ip, lsl #1
      a8:	0000a108 	andeq	sl, r0, r8, lsl #2
      ac:	06990600 	ldreq	r0, [r9], r0, lsl #12
      b0:	21020000 	mrscs	r0, (UNDEF: 2)
      b4:	0000b90e 	andeq	fp, r0, lr, lsl #18
      b8:	8c040700 	stchi	7, cr0, [r4], {-0}
      bc:	09000000 	stmdbeq	r0, {}	; <UNPREDICTABLE>
      c0:	004f0107 	subeq	r0, pc, r7, lsl #2
      c4:	0d030000 	stceq	0, cr0, [r3, #-0]
      c8:	0000da06 	andeq	sp, r0, r6, lsl #20
      cc:	000b0a00 	andeq	r0, fp, r0, lsl #20
      d0:	0a000000 	beq	d8 <__code_start__-0x7f28>
      d4:	00000000 	andeq	r0, r0, r0
      d8:	7b0b0001 	blvc	2c00e4 <__bss_end__+0x2b613c>
      dc:	01000000 	mrseq	r0, (UNDEF: 0)
      e0:	80d80611 	sbcshi	r0, r8, r1, lsl r6
      e4:	00480000 	subeq	r0, r8, r0
      e8:	9c010000 	stcls	0, cr0, [r1], {-0}
      ec:	00000194 	muleq	r0, r4, r1
      f0:	00011c0c 	andeq	r1, r1, ip, lsl #24
      f4:	0e120100 	mufeqs	f0, f2, f0
      f8:	0000002c 	andeq	r0, r0, ip, lsr #32
      fc:	00000002 	andeq	r0, r0, r2
     100:	00000000 	andeq	r0, r0, r0
     104:	0080e40d 	addeq	lr, r0, sp, lsl #8
     108:	00003400 	andeq	r3, r0, r0, lsl #8
     10c:	00018100 	andeq	r8, r1, r0, lsl #2
     110:	00690e00 	rsbeq	r0, r9, r0, lsl #28
     114:	250a1c01 	strcs	r1, [sl, #-3073]	; 0xfffff3ff
     118:	1e000000 	cdpne	0, 0, cr0, cr0, cr0, {0}
     11c:	1a000000 	bne	124 <__code_start__-0x7edc>
     120:	0f000000 	svceq	0x00000000
     124:	000080f0 	strdeq	r8, [r0], -r0
     128:	00000020 	andeq	r0, r0, r0, lsr #32
     12c:	0100760e 	tsteq	r0, lr, lsl #12
     130:	003a0f1d 	eorseq	r0, sl, sp, lsl pc
     134:	00410000 	subeq	r0, r1, r0
     138:	003d0000 	eorseq	r0, sp, r0
     13c:	fc100000 	ldc2	0, cr0, [r0], {-0}
     140:	94000080 	strls	r0, [r0], #-128	; 0xffffff80
     144:	57000001 	strpl	r0, [r0, -r1]
     148:	11000001 	tstne	r0, r1
     14c:	75025001 	strvc	r5, [r2, #-1]
     150:	51011100 	mrspl	r1, (UNDEF: 17)
     154:	10003001 	andne	r3, r0, r1
     158:	00008108 	andeq	r8, r0, r8, lsl #2
     15c:	000001a0 	andeq	r0, r0, r0, lsr #3
     160:	0000016e 	andeq	r0, r0, lr, ror #2
     164:	05500111 	ldrbeq	r0, [r0, #-273]	; 0xfffffeef
     168:	00975803 	addseq	r5, r7, r3, lsl #16
     16c:	10120000 	andsne	r0, r2, r0
     170:	ac000081 	stcge	0, cr0, [r0], {129}	; 0x81
     174:	11000001 	tstne	r0, r1
     178:	0a035001 	beq	d4184 <__bss_end__+0xca1dc>
     17c:	000003e8 	andeq	r0, r0, r8, ror #7
     180:	80e01300 	rschi	r1, r0, r0, lsl #6
     184:	01b80000 			; <UNDEFINED> instruction: 0x01b80000
     188:	1c130000 	ldcne	0, cr0, [r3], {-0}
     18c:	c4000081 	strgt	r0, [r0], #-129	; 0xffffff7f
     190:	00000001 	andeq	r0, r0, r1
     194:	0000ba14 	andeq	fp, r0, r4, lsl sl
     198:	0000ba00 	andeq	fp, r0, r0, lsl #20
     19c:	0a080300 	beq	200da4 <__bss_end__+0x1f6dfc>
     1a0:	00061714 	andeq	r1, r6, r4, lsl r7
     1a4:	00061700 	andeq	r1, r6, r0, lsl #14
     1a8:	06280200 	strteq	r0, [r8], -r0, lsl #4
     1ac:	00009114 	andeq	r9, r0, r4, lsl r1
     1b0:	00009100 	andeq	r9, r0, r0, lsl #2
     1b4:	06580200 	ldrbeq	r0, [r8], -r0, lsl #4
     1b8:	0000c914 	andeq	ip, r0, r4, lsl r9
     1bc:	0000c900 	andeq	ip, r0, r0, lsl #18
     1c0:	090a0300 	stmdbeq	sl, {r8, r9}
     1c4:	00009a14 	andeq	r9, r0, r4, lsl sl
     1c8:	00009a00 	andeq	r9, r0, r0, lsl #20
     1cc:	066e0200 	strbteq	r0, [lr], -r0, lsl #4
     1d0:	000b9900 	andeq	r9, fp, r0, lsl #18
     1d4:	15000400 	strne	r0, [r0, #-1024]	; 0xfffffc00
     1d8:	04000001 	streq	r0, [r0], #-1
     1dc:	00026501 	andeq	r6, r2, r1, lsl #10
     1e0:	02f80c00 	rscseq	r0, r8, #0, 24
     1e4:	01e90000 	mvneq	r0, r0
     1e8:	81200000 			; <UNDEFINED> instruction: 0x81200000
     1ec:	03740000 	cmneq	r4, #0, 0
     1f0:	01030000 	mrseq	r0, (UNDEF: 3)
     1f4:	04020000 	streq	r0, [r2], #-0
     1f8:	746e6905 	strbtvc	r6, [lr], #-2309	; 0xfffff6fb
     1fc:	07040300 	streq	r0, [r4, -r0, lsl #6]
     200:	000000eb 	andeq	r0, r0, fp, ror #1
     204:	85060103 	strhi	r0, [r6, #-259]	; 0xfffffefd
     208:	03000000 	movweq	r0, #0
     20c:	01120502 	tsteq	r2, r2, lsl #10
     210:	04030000 	streq	r0, [r3], #-0
     214:	0000fd05 	andeq	pc, r0, r5, lsl #26
     218:	05080300 	streq	r0, [r8, #-768]	; 0xfffffd00
     21c:	000000f8 	strdeq	r0, [r0], -r8
     220:	00030804 	andeq	r0, r3, r4, lsl #16
     224:	182e0300 	stmdane	lr!, {r8, r9}
     228:	0000005b 	andeq	r0, r0, fp, asr r0
     22c:	83080103 	movwhi	r0, #33027	; 0x8103
     230:	04000000 	streq	r0, [r0], #-0
     234:	00000328 	andeq	r0, r0, r8, lsr #6
     238:	6e193103 	mufvse	f3, f1, f3
     23c:	03000000 	movweq	r0, #0
     240:	00a70702 	adceq	r0, r7, r2, lsl #14
     244:	3a040000 	bcc	10024c <__bss_end__+0xf62a4>
     248:	03000003 	movweq	r0, #3
     24c:	00811934 	addeq	r1, r1, r4, lsr r9
     250:	04030000 	streq	r0, [r3], #-0
     254:	0000e607 	andeq	lr, r0, r7, lsl #12
     258:	07080300 	streq	r0, [r8, -r0, lsl #6]
     25c:	000000e1 	andeq	r0, r0, r1, ror #1
     260:	009c0405 	addseq	r0, ip, r5, lsl #8
     264:	01030000 	mrseq	r0, (UNDEF: 3)
     268:	00008c08 	andeq	r8, r0, r8, lsl #24
     26c:	00950600 	addseq	r0, r5, r0, lsl #12
     270:	07070000 	streq	r0, [r7, -r0]
     274:	00005b01 	andeq	r5, r0, r1, lsl #22
     278:	060d0400 	streq	r0, [sp], -r0, lsl #8
     27c:	000000bc 	strheq	r0, [r0], -ip
     280:	00000b08 	andeq	r0, r0, r8, lsl #22
     284:	00080000 	andeq	r0, r8, r0
     288:	01000000 	mrseq	r0, (UNDEF: 0)
     28c:	00c90900 	sbceq	r0, r9, r0, lsl #18
     290:	50010000 	andpl	r0, r1, r0
     294:	00004f09 	andeq	r4, r0, r9, lsl #30
     298:	00828c00 	addeq	r8, r2, r0, lsl #24
     29c:	00020800 	andeq	r0, r2, r0, lsl #16
     2a0:	8b9c0100 	blhi	fe7006a8 <__bss_end__+0xfe6f6700>
     2a4:	07000005 	streq	r0, [r0, -r5]
     2a8:	005b0107 	subseq	r0, fp, r7, lsl #2
     2ac:	56010000 	strpl	r0, [r1], -r0
     2b0:	0000eb0a 	andeq	lr, r0, sl, lsl #22
     2b4:	011c0800 	tsteq	ip, r0, lsl #16
     2b8:	00480000 	subeq	r0, r8, r0
     2bc:	0100630a 	tsteq	r0, sl, lsl #6
     2c0:	00620b6f 	rsbeq	r0, r2, pc, ror #22
     2c4:	00650000 	rsbeq	r0, r5, r0
     2c8:	005f0000 	subseq	r0, pc, r0
     2cc:	450b0000 	strmi	r0, [fp, #-0]
     2d0:	9b000002 	blls	2e0 <__code_start__-0x7d20>
     2d4:	05000005 	streq	r0, [r0, #-5]
     2d8:	00991403 	addseq	r1, r9, r3, lsl #8
     2dc:	67700a00 	ldrbvs	r0, [r0, -r0, lsl #20]!
     2e0:	80010061 	andhi	r0, r1, r1, rrx
     2e4:	00002c0e 	andeq	r2, r0, lr, lsl #24
     2e8:	00009500 	andeq	r9, r0, r0, lsl #10
     2ec:	00009100 	andeq	r9, r0, r0, lsl #2
     2f0:	72640a00 	rsbvc	r0, r4, #0, 20
     2f4:	0e810100 	rmfeqs	f0, f1, f0
     2f8:	0000002c 	andeq	r0, r0, ip, lsr #32
     2fc:	000000b9 	strheq	r0, [r0], -r9
     300:	000000b5 	strheq	r0, [r0], -r5
     304:	000a870c 	andeq	r8, sl, ip, lsl #14
     308:	0082e800 	addeq	lr, r2, r0, lsl #16
     30c:	82e80200 	rschi	r0, r8, #0, 4
     310:	00000000 	andeq	r0, r0, r0
     314:	75010000 	strvc	r0, [r1, #-0]
     318:	00017405 	andeq	r7, r1, r5, lsl #8
     31c:	0aad0d00 	beq	feb43724 <__bss_end__+0xfeb3977c>
     320:	00db0000 	sbcseq	r0, fp, r0
     324:	00d90000 	sbcseq	r0, r9, r0
     328:	a20d0000 	andge	r0, sp, #0, 0
     32c:	db00000a 	blle	35c <__code_start__-0x7ca4>
     330:	d9000000 	stmdble	r0, {}	; <UNPREDICTABLE>
     334:	0d000000 	stceq	0, cr0, [r0, #-0]
     338:	00000a98 	muleq	r0, r8, sl
     33c:	000000f1 	strdeq	r0, [r0], -r1
     340:	000000ef 	andeq	r0, r0, pc, ror #1
     344:	0a870e00 	beq	fe1c3b4c <__bss_end__+0xfe1b9ba4>
     348:	82f00000 	rscshi	r0, r0, #0, 0
     34c:	00040000 	andeq	r0, r4, r0
     350:	01000000 	mrseq	r0, (UNDEF: 0)
     354:	01b60577 			; <UNDEFINED> instruction: 0x01b60577
     358:	ad0d0000 	stcge	0, cr0, [sp, #-0]
     35c:	0600000a 	streq	r0, [r0], -sl
     360:	04000001 	streq	r0, [r0], #-1
     364:	0d000001 	stceq	0, cr0, [r0, #-4]
     368:	00000aa2 	andeq	r0, r0, r2, lsr #21
     36c:	0000011c 	andeq	r0, r0, ip, lsl r1
     370:	0000011a 	andeq	r0, r0, sl, lsl r1
     374:	000a980d 	andeq	r9, sl, sp, lsl #16
     378:	00013200 	andeq	r3, r1, r0, lsl #4
     37c:	00013000 	andeq	r3, r1, r0
     380:	00000f00 	andeq	r0, r0, r0, lsl #30
     384:	0e000000 	cdpeq	0, 0, cr0, cr0, cr0, {0}
     388:	00000a87 	andeq	r0, r0, r7, lsl #21
     38c:	00008300 	andeq	r8, r0, r0, lsl #6
     390:	00001804 	andeq	r1, r0, r4, lsl #16
     394:	05790100 	ldrbeq	r0, [r9, #-256]!	; 0xffffff00
     398:	000001f8 	strdeq	r0, [r0], -r8
     39c:	000aad0d 	andeq	sl, sl, sp, lsl #26
     3a0:	00014700 	andeq	r4, r1, r0, lsl #14
     3a4:	00014500 	andeq	r4, r1, r0, lsl #10
     3a8:	0aa20d00 	beq	fe8837b0 <__bss_end__+0xfe879808>
     3ac:	015d0000 	cmpeq	sp, r0
     3b0:	015b0000 	cmpeq	fp, r0
     3b4:	980d0000 	stmdals	sp, {}	; <UNPREDICTABLE>
     3b8:	7300000a 	movwvc	r0, #10
     3bc:	71000001 	tstvc	r0, r1
     3c0:	0f000001 	svceq	0x00000001
     3c4:	00000018 	andeq	r0, r0, r8, lsl r0
     3c8:	0a870c00 	beq	fe1c33d0 <__bss_end__+0xfe1b9428>
     3cc:	83640000 	cmnhi	r4, #0, 0
     3d0:	64020000 	strvs	r0, [r2], #-0
     3d4:	00000083 	andeq	r0, r0, r3, lsl #1
     3d8:	01000000 	mrseq	r0, (UNDEF: 0)
     3dc:	0239058d 	eorseq	r0, r9, #591396864	; 0x23400000
     3e0:	ad0d0000 	stcge	0, cr0, [sp, #-0]
     3e4:	8800000a 	stmdahi	r0, {r1, r3}
     3e8:	86000001 	strhi	r0, [r0], -r1
     3ec:	0d000001 	stceq	0, cr0, [r0, #-4]
     3f0:	00000aa2 	andeq	r0, r0, r2, lsr #21
     3f4:	00000188 	andeq	r0, r0, r8, lsl #3
     3f8:	00000186 	andeq	r0, r0, r6, lsl #3
     3fc:	000a980d 	andeq	r9, sl, sp, lsl #16
     400:	00019e00 	andeq	r9, r1, r0, lsl #28
     404:	00019c00 	andeq	r9, r1, r0, lsl #24
     408:	870e0000 	strhi	r0, [lr, -r0]
     40c:	6c00000a 	stcvs	0, cr0, [r0], {10}
     410:	04000083 	streq	r0, [r0], #-131	; 0xffffff7d
     414:	00000030 	andeq	r0, r0, r0, lsr r0
     418:	7b058e01 	blvc	163c24 <__bss_end__+0x159c7c>
     41c:	0d000002 	stceq	0, cr0, [r0, #-8]
     420:	00000aad 	andeq	r0, r0, sp, lsr #21
     424:	000001b3 			; <UNDEFINED> instruction: 0x000001b3
     428:	000001b1 			; <UNDEFINED> instruction: 0x000001b1
     42c:	000aa20d 	andeq	sl, sl, sp, lsl #4
     430:	0001c900 	andeq	ip, r1, r0, lsl #18
     434:	0001c700 	andeq	ip, r1, r0, lsl #14
     438:	0a980d00 	beq	fe603840 <__bss_end__+0xfe5f9898>
     43c:	01df0000 	bicseq	r0, pc, r0
     440:	01dd0000 	bicseq	r0, sp, r0
     444:	300f0000 	andcc	r0, pc, r0
     448:	00000000 	andeq	r0, r0, r0
     44c:	000a870e 	andeq	r8, sl, lr, lsl #14
     450:	00837c00 	addeq	r7, r3, r0, lsl #24
     454:	00480400 	subeq	r0, r8, r0, lsl #8
     458:	8f010000 	svchi	0x00010000
     45c:	0002bd05 	andeq	fp, r2, r5, lsl #26
     460:	0aad0d00 	beq	feb43868 <__bss_end__+0xfeb398c0>
     464:	01f40000 	mvnseq	r0, r0
     468:	01f20000 	mvnseq	r0, r0
     46c:	a20d0000 	andge	r0, sp, #0, 0
     470:	0a00000a 	beq	4a0 <__code_start__-0x7b60>
     474:	08000002 	stmdaeq	r0, {r1}
     478:	0d000002 	stceq	0, cr0, [r0, #-8]
     47c:	00000a98 	muleq	r0, r8, sl
     480:	00000220 	andeq	r0, r0, r0, lsr #4
     484:	0000021e 	andeq	r0, r0, lr, lsl r2
     488:	0000480f 	andeq	r4, r0, pc, lsl #16
     48c:	9c100000 	ldcls	0, cr0, [r0], {-0}
     490:	48000082 	stmdami	r0, {r1, r7}
     494:	d000000b 	andle	r0, r0, fp
     498:	11000002 	tstne	r0, r2
     49c:	4e015001 	cdpmi	0, 0, cr5, cr1, cr1, {0}
     4a0:	82a01200 	adchi	r1, r0, #0, 4
     4a4:	0b540000 	bleq	15004ac <__bss_end__+0x14f6504>
     4a8:	a8100000 	ldmdage	r0, {}	; <UNPREDICTABLE>
     4ac:	48000082 	stmdami	r0, {r1, r7}
     4b0:	ec00000b 	stc	0, cr0, [r0], {11}
     4b4:	11000002 	tstne	r0, r2
     4b8:	4e015001 	cdpmi	0, 0, cr5, cr1, cr1, {0}
     4bc:	82ac1200 	adchi	r1, ip, #0, 4
     4c0:	06c10000 	strbeq	r0, [r1], r0
     4c4:	b4100000 	ldrlt	r0, [r0], #-0
     4c8:	60000082 	andvs	r0, r0, r2, lsl #1
     4cc:	0800000b 	stmdaeq	r0, {r0, r1, r3}
     4d0:	11000003 	tstne	r0, r3
     4d4:	49015001 	stmdbmi	r1, {r0, ip, lr}
     4d8:	82c01000 	sbchi	r1, r0, #0, 0
     4dc:	05a00000 	streq	r0, [r0, #0]!
     4e0:	03210000 			; <UNDEFINED> instruction: 0x03210000
     4e4:	01110000 	tsteq	r1, r0
     4e8:	48080250 	stmdami	r8, {r4, r6, r9}
     4ec:	01510111 	cmpeq	r1, r1, lsl r1
     4f0:	dc100031 	ldcle	0, cr0, [r0], {49}	; 0x31
     4f4:	6c000082 	stcvs	0, cr0, [r0], {130}	; 0x82
     4f8:	4800000b 	stmdami	r0, {r0, r1, r3}
     4fc:	11000003 	tstne	r0, r3
     500:	03055001 	movweq	r5, #20481	; 0x5001
     504:	0000980c 	andeq	r9, r0, ip, lsl #16
     508:	02510111 	subseq	r0, r1, #1073741828	; 0x40000004
     50c:	01110074 	tsteq	r1, r4, ror r0
     510:	00750653 	rsbseq	r0, r5, r3, asr r6
     514:	1affff0a 	bne	144 <__code_start__-0x7ebc>
     518:	82e81000 	rschi	r1, r8, #0, 0
     51c:	07010000 	streq	r0, [r1, -r0]
     520:	03650000 	cmneq	r5, #0, 0
     524:	01110000 	tsteq	r1, r0
     528:	38030550 	stmdacc	r3, {r4, r6, r8, sl}
     52c:	11000098 	swpne	r0, r8, [r0]	; <UNPREDICTABLE>
     530:	74025101 	strvc	r5, [r2], #-257	; 0xfffffeff
     534:	20100000 	andscs	r0, r0, r0
     538:	6c000083 	stcvs	0, cr0, [r0], {131}	; 0x83
     53c:	8200000b 	andhi	r0, r0, #11, 0
     540:	11000003 	tstne	r0, r3
     544:	03055001 	movweq	r5, #20481	; 0x5001
     548:	0000989c 	muleq	r0, ip, r8
     54c:	02510111 	subseq	r0, r1, #1073741828	; 0x40000004
     550:	10000074 	andne	r0, r0, r4, ror r0
     554:	00008330 	andeq	r8, r0, r0, lsr r3
     558:	0000063c 	andeq	r0, r0, ip, lsr r6
     55c:	000003a1 	andeq	r0, r0, r1, lsr #7
     560:	02500111 	subseq	r0, r0, #1073741828	; 0x40000004
     564:	01114808 	tsteq	r1, r8, lsl #16
     568:	11310151 	teqne	r1, r1, asr r1
     56c:	74025201 	strvc	r5, [r2], #-513	; 0xfffffdff
     570:	3c100000 	ldccc	0, cr0, [r0], {-0}
     574:	a0000083 	andge	r0, r0, r3, lsl #1
     578:	ba000005 	blt	594 <__code_start__-0x7a6c>
     57c:	11000003 	tstne	r0, r3
     580:	08025001 	stmdaeq	r2, {r0, ip, lr}
     584:	51011148 	tstpl	r1, r8, asr #2
     588:	10003101 	andne	r3, r0, r1, lsl #2
     58c:	00008358 	andeq	r8, r0, r8, asr r3
     590:	00000b6c 	andeq	r0, r0, ip, ror #22
     594:	000003e1 	andeq	r0, r0, r1, ror #7
     598:	05500111 	ldrbeq	r0, [r0, #-273]	; 0xfffffeef
     59c:	0098b403 	addseq	fp, r8, r3, lsl #8
     5a0:	51011100 	mrspl	r1, (UNDEF: 17)
     5a4:	11007402 	tstne	r0, r2, lsl #8
     5a8:	75065201 	strvc	r5, [r6, #-513]	; 0xfffffdff
     5ac:	ffff0a00 			; <UNDEFINED> instruction: 0xffff0a00
     5b0:	6410001a 	ldrvs	r0, [r0], #-26	; 0xffffffe6
     5b4:	01000083 	smlabbeq	r0, r3, r0, r0
     5b8:	fe000007 	cdp2	0, 0, cr0, cr0, cr7, {0}
     5bc:	11000003 	tstne	r0, r3
     5c0:	03055001 	movweq	r5, #20481	; 0x5001
     5c4:	000098dc 	ldrdeq	r9, [r0], -ip
     5c8:	02510111 	subseq	r0, r1, #1073741828	; 0x40000004
     5cc:	10000074 	andne	r0, r0, r4, ror r0
     5d0:	000083b4 			; <UNDEFINED> instruction: 0x000083b4
     5d4:	00000b6c 	andeq	r0, r0, ip, ror #22
     5d8:	00000437 	andeq	r0, r0, r7, lsr r4
     5dc:	05500111 	ldrbeq	r0, [r0, #-273]	; 0xfffffeef
     5e0:	00985003 	addseq	r5, r8, r3
     5e4:	51011100 	mrspl	r1, (UNDEF: 17)
     5e8:	98400305 	stmdals	r0, {r0, r2, r8, r9}^
     5ec:	01110000 	tsteq	r1, r0
     5f0:	14030552 	strne	r0, [r3], #-1362	; 0xfffffaae
     5f4:	11000099 	swpne	r0, r9, [r0]	; <UNPREDICTABLE>
     5f8:	08025301 	stmdaeq	r2, {r0, r8, r9, ip, lr}
     5fc:	7d021175 	stfvcs	f1, [r2, #-468]	; 0xfffffe2c
     600:	64030500 	strvs	r0, [r3], #-1280	; 0xfffffb00
     604:	00000098 	muleq	r0, r8, r0
     608:	0083b812 	addeq	fp, r3, r2, lsl r8
     60c:	000b7800 	andeq	r7, fp, r0, lsl #16
     610:	83d41000 	bicshi	r1, r4, #0, 0
     614:	0b6c0000 	bleq	1b0061c <__bss_end__+0x1af6674>
     618:	04790000 	ldrbteq	r0, [r9], #-0
     61c:	01110000 	tsteq	r1, r0
     620:	50030550 	andpl	r0, r3, r0, asr r5
     624:	11000098 	swpne	r0, r8, [r0]	; <UNPREDICTABLE>
     628:	03055101 	movweq	r5, #20737	; 0x5101
     62c:	00009840 	andeq	r9, r0, r0, asr #16
     630:	05520111 	ldrbeq	r0, [r2, #-273]	; 0xfffffeef
     634:	00991403 	addseq	r1, r9, r3, lsl #8
     638:	53011100 	movwpl	r1, #4352	; 0x1100
     63c:	11770802 	cmnne	r7, r2, lsl #16
     640:	05007d02 	streq	r7, [r0, #-3330]	; 0xfffff2fe
     644:	00987403 	addseq	r7, r8, r3, lsl #8
     648:	d8120000 	ldmdale	r2, {}	; <UNPREDICTABLE>
     64c:	78000083 	stmdavc	r0, {r0, r1, r7}
     650:	1000000b 	andne	r0, r0, fp
     654:	000083f4 	strdeq	r8, [r0], -r4
     658:	00000b6c 	andeq	r0, r0, ip, ror #22
     65c:	000004bb 			; <UNDEFINED> instruction: 0x000004bb
     660:	05500111 	ldrbeq	r0, [r0, #-273]	; 0xfffffeef
     664:	00985003 	addseq	r5, r8, r3
     668:	51011100 	mrspl	r1, (UNDEF: 17)
     66c:	98400305 	stmdals	r0, {r0, r2, r8, r9}^
     670:	01110000 	tsteq	r1, r0
     674:	14030552 	strne	r0, [r3], #-1362	; 0xfffffaae
     678:	11000099 	swpne	r0, r9, [r0]	; <UNPREDICTABLE>
     67c:	08025301 	stmdaeq	r2, {r0, r8, r9, ip, lr}
     680:	7d021179 	stfvcs	f1, [r2, #-484]	; 0xfffffe1c
     684:	88030500 	stmdahi	r3, {r8, sl}
     688:	00000098 	muleq	r0, r8, r0
     68c:	0083f812 	addeq	pc, r3, r2, lsl r8	; <UNPREDICTABLE>
     690:	000b7800 	andeq	r7, fp, r0, lsl #16
     694:	84141000 	ldrhi	r1, [r4], #-0
     698:	0b6c0000 	bleq	1b006a0 <__bss_end__+0x1af66f8>
     69c:	04fd0000 	ldrbteq	r0, [sp], #0
     6a0:	01110000 	tsteq	r1, r0
     6a4:	50030550 	andpl	r0, r3, r0, asr r5
     6a8:	11000098 	swpne	r0, r8, [r0]	; <UNPREDICTABLE>
     6ac:	03055101 	movweq	r5, #20737	; 0x5101
     6b0:	00009840 	andeq	r9, r0, r0, asr #16
     6b4:	05520111 	ldrbeq	r0, [r2, #-273]	; 0xfffffeef
     6b8:	00991403 	addseq	r1, r9, r3, lsl #8
     6bc:	53011100 	movwpl	r1, #4352	; 0x1100
     6c0:	118d0802 	orrne	r0, sp, r2, lsl #16
     6c4:	05007d02 	streq	r7, [r0, #-3330]	; 0xfffff2fe
     6c8:	0098e403 	addseq	lr, r8, r3, lsl #8
     6cc:	18120000 	ldmdane	r2, {}	; <UNPREDICTABLE>
     6d0:	78000084 	stmdavc	r0, {r2, r7}
     6d4:	1000000b 	andne	r0, r0, fp
     6d8:	00008434 	andeq	r8, r0, r4, lsr r4
     6dc:	00000b6c 	andeq	r0, r0, ip, ror #22
     6e0:	0000053f 	andeq	r0, r0, pc, lsr r5
     6e4:	05500111 	ldrbeq	r0, [r0, #-273]	; 0xfffffeef
     6e8:	00985003 	addseq	r5, r8, r3
     6ec:	51011100 	mrspl	r1, (UNDEF: 17)
     6f0:	98400305 	stmdals	r0, {r0, r2, r8, r9}^
     6f4:	01110000 	tsteq	r1, r0
     6f8:	14030552 	strne	r0, [r3], #-1362	; 0xfffffaae
     6fc:	11000099 	swpne	r0, r9, [r0]	; <UNPREDICTABLE>
     700:	08025301 	stmdaeq	r2, {r0, r8, r9, ip, lr}
     704:	7d02118e 	stfvcs	f1, [r2, #-568]	; 0xfffffdc8
     708:	f4030500 	vst3.8	{d0,d2,d4}, [r3], r0
     70c:	00000098 	muleq	r0, r8, r0
     710:	00843812 	addeq	r3, r4, r2, lsl r8
     714:	000b7800 	andeq	r7, fp, r0, lsl #16
     718:	84541000 	ldrbhi	r1, [r4], #-0
     71c:	0b6c0000 	bleq	1b00724 <__bss_end__+0x1af677c>
     720:	05810000 	streq	r0, [r1]
     724:	01110000 	tsteq	r1, r0
     728:	50030550 	andpl	r0, r3, r0, asr r5
     72c:	11000098 	swpne	r0, r8, [r0]	; <UNPREDICTABLE>
     730:	03055101 	movweq	r5, #20737	; 0x5101
     734:	00009840 	andeq	r9, r0, r0, asr #16
     738:	05520111 	ldrbeq	r0, [r2, #-273]	; 0xfffffeef
     73c:	00991403 	addseq	r1, r9, r3, lsl #8
     740:	53011100 	movwpl	r1, #4352	; 0x1100
     744:	118f0802 	orrne	r0, pc, r2, lsl #16
     748:	05007d02 	streq	r7, [r0, #-3330]	; 0xfffff2fe
     74c:	00990403 	addseq	r0, r9, r3, lsl #8
     750:	58120000 	ldmdapl	r2, {}	; <UNPREDICTABLE>
     754:	78000084 	stmdavc	r0, {r2, r7}
     758:	0000000b 	andeq	r0, r0, fp
     75c:	00009c13 	andeq	r9, r0, r3, lsl ip
     760:	00059b00 	andeq	r9, r5, r0, lsl #22
     764:	002c1400 	eoreq	r1, ip, r0, lsl #8
     768:	000e0000 	andeq	r0, lr, r0
     76c:	00058b06 	andeq	r8, r5, r6, lsl #22
     770:	00ba0900 	adcseq	r0, sl, r0, lsl #18
     774:	46010000 	strmi	r0, [r1], -r0
     778:	0000620a 	andeq	r6, r0, sl, lsl #4
     77c:	00824000 	addeq	r4, r2, r0
     780:	00004c00 	andeq	r4, r0, r0, lsl #24
     784:	2c9c0100 	ldfcss	f0, [ip], {0}
     788:	15000006 	strne	r0, [r0, #-6]
     78c:	0000011c 	andeq	r0, r0, ip, lsl r1
     790:	4f214601 	svcmi	0x00214601
     794:	37000000 	strcc	r0, [r0, -r0]
     798:	33000002 	movwcc	r0, #2
     79c:	16000002 	strne	r0, [r0], -r2
     7a0:	00676572 	rsbeq	r6, r7, r2, ror r5
     7a4:	4f334601 	svcmi	0x00334601
     7a8:	5a000000 	bpl	7b0 <__code_start__-0x7850>
     7ac:	58000002 	stmdapl	r0, {r1}
     7b0:	17000002 	strne	r0, [r0, -r2]
     7b4:	00000a4f 	andeq	r0, r0, pc, asr #20
     7b8:	2c0a4801 	stccs	8, cr4, [sl], {1}
     7bc:	02000006 	andeq	r0, r0, #6, 0
     7c0:	5c107491 	cfldrspl	mvf7, [r0], {145}	; 0x91
     7c4:	84000082 	strhi	r0, [r0], #-130	; 0xffffff7e
     7c8:	1000000b 	andne	r0, r0, fp
     7cc:	11000006 	tstne	r0, r6
     7d0:	74025001 	strvc	r5, [r2], #-1
     7d4:	51011100 	mrspl	r1, (UNDEF: 17)
     7d8:	11679102 	cmnne	r7, r2, lsl #2
     7dc:	31015201 	tstcc	r1, r1, lsl #4
     7e0:	82781800 	rsbshi	r1, r8, #0, 16
     7e4:	0b900000 	bleq	fe4007ec <__bss_end__+0xfe3f6844>
     7e8:	01110000 	tsteq	r1, r0
     7ec:	00740250 	rsbseq	r0, r4, r0, asr r2
     7f0:	02510111 	subseq	r0, r1, #1073741828	; 0x40000004
     7f4:	01116c91 			; <UNDEFINED> instruction: 0x01116c91
     7f8:	00320152 	eorseq	r0, r2, r2, asr r1
     7fc:	004f1300 	subeq	r1, pc, r0, lsl #6
     800:	063c0000 	ldrteq	r0, [ip], -r0
     804:	2c140000 	ldccs	0, cr0, [r4], {-0}
     808:	01000000 	mrseq	r0, (UNDEF: 0)
     80c:	03431900 	movteq	r1, #14592	; 0x3900
     810:	3d010000 	stccc	0, cr0, [r1, #-0]
     814:	00821406 	addeq	r1, r2, r6, lsl #8
     818:	00002c00 	andeq	r2, r0, r0, lsl #24
     81c:	b19c0100 	orrslt	r0, ip, r0, lsl #2
     820:	15000006 	strne	r0, [r0, #-6]
     824:	0000011c 	andeq	r0, r0, ip, lsl r1
     828:	4f1e3d01 	svcmi	0x001e3d01
     82c:	71000000 	mrsvc	r0, (UNDEF: 0)
     830:	6d000002 	stcvs	0, cr0, [r0, #-8]
     834:	16000002 	strne	r0, [r0], -r2
     838:	00676572 	rsbeq	r6, r7, r2, ror r5
     83c:	4f303d01 	svcmi	0x00303d01
     840:	96000000 	strls	r0, [r0], -r0
     844:	92000002 	andls	r0, r0, #2, 0
     848:	16000002 	strne	r0, [r0], -r2
     84c:	3d010076 	stccc	0, cr0, [r1, #-472]	; 0xfffffe28
     850:	0000623e 	andeq	r6, r0, lr, lsr r2
     854:	0002bb00 	andeq	fp, r2, r0, lsl #22
     858:	0002b700 	andeq	fp, r2, r0, lsl #14
     85c:	0a4f1700 	beq	13c6464 <__bss_end__+0x13bc4bc>
     860:	3e010000 	cdpcc	0, 0, cr0, cr1, cr0, {0}
     864:	0006b10a 	andeq	fp, r6, sl, lsl #2
     868:	74910200 	ldrvc	r0, [r1], #512	; 0x200
     86c:	00823818 	addeq	r3, r2, r8, lsl r8
     870:	000b8400 	andeq	r8, fp, r0, lsl #8
     874:	51011100 	mrspl	r1, (UNDEF: 17)
     878:	116c9102 	cmnne	ip, r2, lsl #2
     87c:	33015201 	movwcc	r5, #4609	; 0x1201
     880:	4f130000 	svcmi	0x00130000
     884:	c1000000 	mrsgt	r0, (UNDEF: 0)
     888:	14000006 	strne	r0, [r0], #-6
     88c:	0000002c 	andeq	r0, r0, ip, lsr #32
     890:	24190002 	ldrcs	r0, [r9], #-2
     894:	01000002 	tsteq	r0, r2
     898:	81ec0634 	mvnhi	r0, r4, lsr r6
     89c:	00280000 	eoreq	r0, r8, r0
     8a0:	9c010000 	stcls	0, cr0, [r1], {-0}
     8a4:	00000701 	andeq	r0, r0, r1, lsl #14
     8a8:	7473721a 	ldrbtvc	r7, [r3], #-538	; 0xfffffde6
     8ac:	0d350100 	ldfeqs	f0, [r5, #-0]
     8b0:	0000004f 	andeq	r0, r0, pc, asr #32
     8b4:	18779102 	ldmdane	r7!, {r1, r8, ip, pc}^
     8b8:	0000820c 	andeq	r8, r0, ip, lsl #4
     8bc:	00000b84 	andeq	r0, r0, r4, lsl #23
     8c0:	01500111 	cmpeq	r0, r1, lsl r1
     8c4:	51011130 	tstpl	r1, r0, lsr r1
     8c8:	116f9102 	cmnne	pc, r2, lsl #2
     8cc:	31015201 	tstcc	r1, r1, lsl #4
     8d0:	1a190000 	bne	6408d8 <__bss_end__+0x636930>
     8d4:	01000003 	tsteq	r0, r3
     8d8:	81200617 			; <UNDEFINED> instruction: 0x81200617
     8dc:	00cc0000 	sbceq	r0, ip, r0
     8e0:	9c010000 	stcls	0, cr0, [r1], {-0}
     8e4:	00000a87 	andeq	r0, r0, r7, lsl #21
     8e8:	67736d16 			; <UNDEFINED> instruction: 0x67736d16
     8ec:	20170100 	andscs	r0, r7, r0, lsl #2
     8f0:	0000008f 	andeq	r0, r0, pc, lsl #1
     8f4:	000002e2 	andeq	r0, r0, r2, ror #5
     8f8:	000002dc 	ldrdeq	r0, [r0], -ip
     8fc:	01006316 	tsteq	r0, r6, lsl r3
     900:	00752e17 	rsbseq	r2, r5, r7, lsl lr
     904:	03120000 	tsteq	r2, #0, 0
     908:	030e0000 	movweq	r0, #57344	; 0xe000
     90c:	130c0000 	movwne	r0, #49152	; 0xc000
     910:	3400000b 	strcc	r0, [r0], #-11
     914:	01000081 	smlabbeq	r0, r1, r0, r0
     918:	00008134 	andeq	r8, r0, r4, lsr r1
     91c:	00000004 	andeq	r0, r0, r4
     920:	71051901 	tstvc	r5, r1, lsl #18
     924:	0d000007 	stceq	0, cr0, [r0, #-28]	; 0xffffffe4
     928:	00000b2e 	andeq	r0, r0, lr, lsr #22
     92c:	00000332 	andeq	r0, r0, r2, lsr r3
     930:	00000330 	andeq	r0, r0, r0, lsr r3
     934:	000b240d 	andeq	r2, fp, sp, lsl #8
     938:	00034800 	andeq	r4, r3, r0, lsl #16
     93c:	00034600 	andeq	r4, r3, r0, lsl #12
     940:	870c0000 	strhi	r0, [ip, -r0]
     944:	4400000a 	strmi	r0, [r0], #-10
     948:	01000081 	smlabbeq	r0, r1, r0, r0
     94c:	00008144 	andeq	r8, r0, r4, asr #2
     950:	00000004 	andeq	r0, r0, r4
     954:	b2051a01 	andlt	r1, r5, #4096	; 0x1000
     958:	0d000007 	stceq	0, cr0, [r0, #-28]	; 0xffffffe4
     95c:	00000aad 	andeq	r0, r0, sp, lsr #21
     960:	0000035d 	andeq	r0, r0, sp, asr r3
     964:	0000035b 	andeq	r0, r0, fp, asr r3
     968:	000aa20d 	andeq	sl, sl, sp, lsl #4
     96c:	00037300 	andeq	r7, r3, r0, lsl #6
     970:	00037100 	andeq	r7, r3, r0, lsl #2
     974:	0a980d00 	beq	fe603d7c <__bss_end__+0xfe5f9dd4>
     978:	03890000 	orreq	r0, r9, #0, 0
     97c:	03870000 	orreq	r0, r7, #0, 0
     980:	0c000000 	stceq	0, cr0, [r0], {-0}
     984:	00000a87 	andeq	r0, r0, r7, lsl #21
     988:	00008154 	andeq	r8, r0, r4, asr r1
     98c:	00815401 	addeq	r5, r1, r1, lsl #8
     990:	00000400 	andeq	r0, r0, r0, lsl #8
     994:	051b0100 	ldreq	r0, [fp, #-256]	; 0xffffff00
     998:	000007f3 	strdeq	r0, [r0], -r3
     99c:	000aad0d 	andeq	sl, sl, sp, lsl #26
     9a0:	00039e00 	andeq	r9, r3, r0, lsl #28
     9a4:	00039c00 	andeq	r9, r3, r0, lsl #24
     9a8:	0aa20d00 	beq	fe883db0 <__bss_end__+0xfe879e08>
     9ac:	03b40000 			; <UNDEFINED> instruction: 0x03b40000
     9b0:	03b20000 			; <UNDEFINED> instruction: 0x03b20000
     9b4:	980d0000 	stmdals	sp, {}	; <UNPREDICTABLE>
     9b8:	ca00000a 	bgt	9e8 <__code_start__-0x7618>
     9bc:	c8000003 	stmdagt	r0, {r0, r1}
     9c0:	00000003 	andeq	r0, r0, r3
     9c4:	000b130c 	andeq	r1, fp, ip, lsl #6
     9c8:	00816400 	addeq	r6, r1, r0, lsl #8
     9cc:	81640100 	cmnhi	r4, r0, lsl #2
     9d0:	00040000 	andeq	r0, r4, r0
     9d4:	1c010000 	stcne	0, cr0, [r1], {-0}
     9d8:	00082705 	andeq	r2, r8, r5, lsl #14
     9dc:	0b2e0d00 	bleq	b83de4 <__bss_end__+0xb79e3c>
     9e0:	03df0000 	bicseq	r0, pc, #0, 0
     9e4:	03dd0000 	bicseq	r0, sp, #0, 0
     9e8:	240d0000 	strcs	r0, [sp], #-0
     9ec:	f500000b 			; <UNDEFINED> instruction: 0xf500000b
     9f0:	f3000003 	vhadd.u8	d0, d0, d3
     9f4:	00000003 	andeq	r0, r0, r3
     9f8:	000a870c 	andeq	r8, sl, ip, lsl #14
     9fc:	00817400 	addeq	r7, r1, r0, lsl #8
     a00:	81740100 	cmnhi	r4, r0, lsl #2
     a04:	00040000 	andeq	r0, r4, r0
     a08:	1d010000 	stcne	0, cr0, [r1, #-0]
     a0c:	00086805 	andeq	r6, r8, r5, lsl #16
     a10:	0aad0d00 	beq	feb43e18 <__bss_end__+0xfeb39e70>
     a14:	040a0000 	streq	r0, [sl], #-0
     a18:	04080000 	streq	r0, [r8], #-0
     a1c:	a20d0000 	andge	r0, sp, #0, 0
     a20:	2000000a 	andcs	r0, r0, sl
     a24:	1e000004 	cdpne	0, 0, cr0, cr0, cr4, {0}
     a28:	0d000004 	stceq	0, cr0, [r0, #-16]
     a2c:	00000a98 	muleq	r0, r8, sl
     a30:	00000436 	andeq	r0, r0, r6, lsr r4
     a34:	00000434 	andeq	r0, r0, r4, lsr r4
     a38:	0b130c00 	bleq	4c3a40 <__bss_end__+0x4b9a98>
     a3c:	81840000 	orrhi	r0, r4, r0
     a40:	84010000 	strhi	r0, [r1], #-0
     a44:	04000081 	streq	r0, [r0], #-129	; 0xffffff7f
     a48:	01000000 	mrseq	r0, (UNDEF: 0)
     a4c:	089c051e 	ldmeq	ip, {r1, r2, r3, r4, r8, sl}
     a50:	2e0d0000 	cdpcs	0, 0, cr0, cr13, cr0, {0}
     a54:	4b00000b 	blmi	a88 <__code_start__-0x7578>
     a58:	49000004 	stmdbmi	r0, {r2}
     a5c:	0d000004 	stceq	0, cr0, [r0, #-16]
     a60:	00000b24 	andeq	r0, r0, r4, lsr #22
     a64:	00000461 	andeq	r0, r0, r1, ror #8
     a68:	0000045f 	andeq	r0, r0, pc, asr r4
     a6c:	0b130c00 	bleq	4c3a74 <__bss_end__+0x4b9acc>
     a70:	81940000 	orrshi	r0, r4, r0
     a74:	94010000 	strls	r0, [r1], #-0
     a78:	04000081 	streq	r0, [r0], #-129	; 0xffffff7f
     a7c:	01000000 	mrseq	r0, (UNDEF: 0)
     a80:	08d0051f 	ldmeq	r0, {r0, r1, r2, r3, r4, r8, sl}^
     a84:	2e0d0000 	cdpcs	0, 0, cr0, cr13, cr0, {0}
     a88:	7600000b 	strvc	r0, [r0], -fp
     a8c:	74000004 	strvc	r0, [r0], #-4
     a90:	0d000004 	stceq	0, cr0, [r0, #-16]
     a94:	00000b24 	andeq	r0, r0, r4, lsr #22
     a98:	0000048c 	andeq	r0, r0, ip, lsl #9
     a9c:	0000048a 	andeq	r0, r0, sl, lsl #9
     aa0:	0b130c00 	bleq	4c3aa8 <__bss_end__+0x4b9b00>
     aa4:	81a40000 			; <UNDEFINED> instruction: 0x81a40000
     aa8:	a4010000 	strge	r0, [r1], #-0
     aac:	04000081 	streq	r0, [r0], #-129	; 0xffffff7f
     ab0:	01000000 	mrseq	r0, (UNDEF: 0)
     ab4:	09040520 	stmdbeq	r4, {r5, r8, sl}
     ab8:	2e0d0000 	cdpcs	0, 0, cr0, cr13, cr0, {0}
     abc:	a100000b 	tstge	r0, fp
     ac0:	9f000004 	svcls	0x00000004
     ac4:	0d000004 	stceq	0, cr0, [r0, #-16]
     ac8:	00000b24 	andeq	r0, r0, r4, lsr #22
     acc:	000004b7 			; <UNDEFINED> instruction: 0x000004b7
     ad0:	000004b5 			; <UNDEFINED> instruction: 0x000004b5
     ad4:	0a870c00 	beq	fe1c3adc <__bss_end__+0xfe1b9b34>
     ad8:	81b40000 			; <UNDEFINED> instruction: 0x81b40000
     adc:	b4010000 	strlt	r0, [r1], #-0
     ae0:	00000081 	andeq	r0, r0, r1, lsl #1
     ae4:	01000000 	mrseq	r0, (UNDEF: 0)
     ae8:	09450521 	stmdbeq	r5, {r0, r5, r8, sl}^
     aec:	ad0d0000 	stcge	0, cr0, [sp, #-0]
     af0:	cc00000a 	stcgt	0, cr0, [r0], {10}
     af4:	ca000004 	bgt	b0c <__code_start__-0x74f4>
     af8:	0d000004 	stceq	0, cr0, [r0, #-16]
     afc:	00000aa2 	andeq	r0, r0, r2, lsr #21
     b00:	000004e2 	andeq	r0, r0, r2, ror #9
     b04:	000004e0 	andeq	r0, r0, r0, ror #9
     b08:	000a980d 	andeq	r9, sl, sp, lsl #16
     b0c:	0004f800 	andeq	pc, r4, r0, lsl #16
     b10:	0004f600 	andeq	pc, r4, r0, lsl #12
     b14:	34100000 	ldrcc	r0, [r0], #-0
     b18:	6c000081 	stcvs	0, cr0, [r0], {129}	; 0x81
     b1c:	6300000b 	movwvs	r0, #11
     b20:	11000009 	tstne	r0, r9
     b24:	03055001 	movweq	r5, #20481	; 0x5001
     b28:	00009760 	andeq	r9, r0, r0, ror #14
     b2c:	03510111 	cmpeq	r1, #1073741828	; 0x40000004
     b30:	005001f3 	ldrsheq	r0, [r0], #-19	; 0xffffffed
     b34:	00814410 	addeq	r4, r1, r0, lsl r4
     b38:	000b6c00 	andeq	r6, fp, r0, lsl #24
     b3c:	00098400 	andeq	r8, r9, r0, lsl #8
     b40:	50011100 	andpl	r1, r1, r0, lsl #2
     b44:	97700305 	ldrbls	r0, [r0, -r5, lsl #6]!
     b48:	01110000 	tsteq	r1, r0
     b4c:	00740651 	rsbseq	r0, r4, r1, asr r6
     b50:	1a31253f 	bne	c4a054 <__bss_end__+0xc400ac>
     b54:	81541000 	cmphi	r4, r0
     b58:	0b6c0000 	bleq	1b00b60 <__bss_end__+0x1af6bb8>
     b5c:	09a50000 	stmibeq	r5!, {}	; <UNPREDICTABLE>
     b60:	01110000 	tsteq	r1, r0
     b64:	7c030550 	cfstr32vc	mvfx0, [r3], {80}	; 0x50
     b68:	11000097 	swpne	r0, r7, [r0]	; <UNPREDICTABLE>
     b6c:	74065101 	strvc	r5, [r6], #-257	; 0xfffffeff
     b70:	37253c00 	strcc	r3, [r5, -r0, lsl #24]!
     b74:	6410001a 	ldrvs	r0, [r0], #-26	; 0xffffffe6
     b78:	6c000081 	stcvs	0, cr0, [r0], {129}	; 0x81
     b7c:	c600000b 	strgt	r0, [r0], -fp
     b80:	11000009 	tstne	r0, r9
     b84:	03055001 	movweq	r5, #20481	; 0x5001
     b88:	0000978c 	andeq	r9, r0, ip, lsl #15
     b8c:	06510111 			; <UNDEFINED> instruction: 0x06510111
     b90:	25390074 	ldrcs	r0, [r9, #-116]!	; 0xffffff8c
     b94:	10001a37 	andne	r1, r0, r7, lsr sl
     b98:	00008174 	andeq	r8, r0, r4, ror r1
     b9c:	00000b6c 	andeq	r0, r0, ip, ror #22
     ba0:	000009e7 	andeq	r0, r0, r7, ror #19
     ba4:	05500111 	ldrbeq	r0, [r0, #-273]	; 0xfffffeef
     ba8:	00979c03 	addseq	r9, r7, r3, lsl #24
     bac:	51011100 	mrspl	r1, (UNDEF: 17)
     bb0:	38007406 	stmdacc	r0, {r1, r2, sl, ip, sp, lr}
     bb4:	001a3125 	andseq	r3, sl, r5, lsr #2
     bb8:	00818410 	addeq	r8, r1, r0, lsl r4
     bbc:	000b6c00 	andeq	r6, fp, r0, lsl #24
     bc0:	000a0800 	andeq	r0, sl, r0, lsl #16
     bc4:	50011100 	andpl	r1, r1, r0, lsl #2
     bc8:	97ac0305 	strls	r0, [ip, r5, lsl #6]!
     bcc:	01110000 	tsteq	r1, r0
     bd0:	00740651 	rsbseq	r0, r4, r1, asr r6
     bd4:	1a372535 	bne	dca0b0 <__bss_end__+0xdc0108>
     bd8:	81941000 	orrshi	r1, r4, r0
     bdc:	0b6c0000 	bleq	1b00be4 <__bss_end__+0x1af6c3c>
     be0:	0a290000 	beq	a40be8 <__bss_end__+0xa36c40>
     be4:	01110000 	tsteq	r1, r0
     be8:	bc030550 	cfstr32lt	mvfx0, [r3], {80}	; 0x50
     bec:	11000097 	swpne	r0, r7, [r0]	; <UNPREDICTABLE>
     bf0:	74065101 	strvc	r5, [r6], #-257	; 0xfffffeff
     bf4:	31253400 			; <UNDEFINED> instruction: 0x31253400
     bf8:	a410001a 	ldrge	r0, [r0], #-26	; 0xffffffe6
     bfc:	6c000081 	stcvs	0, cr0, [r0], {129}	; 0x81
     c00:	4a00000b 	bmi	c34 <__code_start__-0x73cc>
     c04:	1100000a 	tstne	r0, sl
     c08:	03055001 	movweq	r5, #20481	; 0x5001
     c0c:	000097d0 	ldrdeq	r9, [r0], -r0
     c10:	06510111 			; <UNDEFINED> instruction: 0x06510111
     c14:	25330074 	ldrcs	r0, [r3, #-116]!	; 0xffffff8c
     c18:	10001a31 	andne	r1, r0, r1, lsr sl
     c1c:	000081b4 			; <UNDEFINED> instruction: 0x000081b4
     c20:	00000b6c 	andeq	r0, r0, ip, ror #22
     c24:	00000a6b 	andeq	r0, r0, fp, ror #20
     c28:	05500111 	ldrbeq	r0, [r0, #-273]	; 0xfffffeef
     c2c:	0097e403 	addseq	lr, r7, r3, lsl #8
     c30:	51011100 	mrspl	r1, (UNDEF: 17)
     c34:	32007406 	andcc	r7, r0, #100663296	; 0x6000000
     c38:	001a3125 	andseq	r3, sl, r5, lsr #2
     c3c:	0081c018 	addeq	ip, r1, r8, lsl r0
     c40:	000b6c00 	andeq	r6, fp, r0, lsl #24
     c44:	50011100 	andpl	r1, r1, r0, lsl #2
     c48:	97f80305 	ldrbls	r0, [r8, r5, lsl #6]!
     c4c:	01110000 	tsteq	r1, r0
     c50:	00740451 	rsbseq	r0, r4, r1, asr r4
     c54:	00001a33 	andeq	r1, r0, r3, lsr sl
     c58:	0001e01b 	andeq	lr, r1, fp, lsl r0
     c5c:	01390200 	teqeq	r9, r0, lsl #4
     c60:	00000075 	andeq	r0, r0, r5, ror r0
     c64:	000ac203 	andeq	ip, sl, r3, lsl #4
     c68:	00781c00 	rsbseq	r1, r8, r0, lsl #24
     c6c:	75133902 	ldrvc	r3, [r3, #-2306]	; 0xfffff6fe
     c70:	1c000000 	stcne	0, cr0, [r0], {-0}
     c74:	0200626c 	andeq	r6, r0, #108, 4	; 0xc0000006
     c78:	002c1f39 	eoreq	r1, ip, r9, lsr pc
     c7c:	751c0000 	ldrvc	r0, [ip, #-0]
     c80:	39020062 	stmdbcc	r2, {r1, r5, r6}
     c84:	00002c2c 	andeq	r2, r0, ip, lsr #24
     c88:	02451d00 	subeq	r1, r5, #0, 26
     c8c:	0ad20000 	beq	ff480c94 <__bss_end__+0xff476cec>
     c90:	13000000 	movwne	r0, #0
     c94:	0000009c 	muleq	r0, ip, r0
     c98:	00000ad2 	ldrdeq	r0, [r0], -r2
     c9c:	00002c14 	andeq	r2, r0, r4, lsl ip
     ca0:	06000800 	streq	r0, [r0], -r0, lsl #16
     ca4:	00000ac2 	andeq	r0, r0, r2, asr #21
     ca8:	0003101b 	andeq	r1, r3, fp, lsl r0
     cac:	182f0200 	stmdane	pc!, {r9}	; <UNPREDICTABLE>
     cb0:	00000075 	andeq	r0, r0, r5, ror r0
     cb4:	000afe03 	andeq	pc, sl, r3, lsl #28
     cb8:	01da1e00 	bicseq	r1, sl, r0, lsl #28
     cbc:	2f020000 	svccs	0x00020000
     cc0:	00002c2b 	andeq	r2, r0, fp, lsr #24
     cc4:	02451d00 	subeq	r1, r5, #0, 26
     cc8:	0b0e0000 	bleq	380cd0 <__bss_end__+0x376d28>
     ccc:	13000000 	movwne	r0, #0
     cd0:	0000009c 	muleq	r0, ip, r0
     cd4:	00000b0e 	andeq	r0, r0, lr, lsl #22
     cd8:	00002c14 	andeq	r2, r0, r4, lsl ip
     cdc:	06000900 	streq	r0, [r0], -r0, lsl #18
     ce0:	00000afe 	strdeq	r0, [r0], -lr
     ce4:	00025b1b 	andeq	r5, r2, fp, lsl fp
     ce8:	011e0200 	tsteq	lr, r0, lsl #4
     cec:	0000002c 	andeq	r0, r0, ip, lsr #32
     cf0:	000b4803 	andeq	r4, fp, r3, lsl #16
     cf4:	00781c00 	rsbseq	r1, r8, r0, lsl #24
     cf8:	75141e02 	ldrvc	r1, [r4, #-3586]	; 0xfffff1fe
     cfc:	1c000000 	stcne	0, cr0, [r0], {-0}
     d00:	00746962 	rsbseq	r6, r4, r2, ror #18
     d04:	2c201e02 	stccs	14, cr1, [r0], #-8
     d08:	1f000000 	svcne	0x00000000
     d0c:	00000245 	andeq	r0, r0, r5, asr #4
     d10:	00000b0e 	andeq	r0, r0, lr, lsl #22
     d14:	0000025b 	andeq	r0, r0, fp, asr r2
     d18:	00912000 	addseq	r2, r1, r0
     d1c:	00910000 	addseq	r0, r1, r0
     d20:	51050000 	mrspl	r0, (UNDEF: 5)
     d24:	02322006 	eorseq	r2, r2, #6, 0
     d28:	02320000 	eorseq	r0, r2, #0, 0
     d2c:	06060000 	streq	r0, [r6], -r0
     d30:	02522006 	subseq	r2, r2, #6, 0
     d34:	02520000 	subseq	r0, r2, #0, 0
     d38:	4f050000 	svcmi	0x00050000
     d3c:	06172006 	ldreq	r2, [r7], -r6
     d40:	06170000 	ldreq	r0, [r7], -r0
     d44:	28050000 	stmdacs	r5, {}	; <UNPREDICTABLE>
     d48:	009a2006 	addseq	r2, sl, r6
     d4c:	009a0000 	addseq	r0, sl, r0
     d50:	67050000 	strvs	r0, [r5, -r0]
     d54:	023b2006 	eorseq	r2, fp, #6, 0
     d58:	023b0000 	eorseq	r0, fp, #0, 0
     d5c:	0c060000 	stceq	0, cr0, [r6], {-0}
     d60:	03312005 	teqeq	r1, #5, 0
     d64:	03310000 	teqeq	r1, #0, 0
     d68:	0e060000 	cdpeq	0, 0, cr0, cr6, cr0, {0}
     d6c:	13d60005 	bicsne	r0, r6, #5, 0
     d70:	00040000 	andeq	r0, r4, r0
     d74:	000002ff 	strdeq	r0, [r0], -pc	; <UNPREDICTABLE>
     d78:	02650104 	rsbeq	r0, r5, #1
     d7c:	6f0c0000 	svcvs	0x000c0000
     d80:	e9000004 	stmdb	r0, {r2}
     d84:	94000001 	strls	r0, [r0], #-1
     d88:	78000084 	stmdavc	r0, {r2, r7}
     d8c:	07000005 	streq	r0, [r0, -r5]
     d90:	02000006 	andeq	r0, r0, #6, 0
     d94:	6e690504 	cdpvs	5, 6, cr0, cr9, cr4, {0}
     d98:	04030074 	streq	r0, [r3], #-116	; 0xffffff8c
     d9c:	0000eb07 	andeq	lr, r0, r7, lsl #22
     da0:	002c0400 	eoreq	r0, ip, r0, lsl #8
     da4:	01030000 	mrseq	r0, (UNDEF: 3)
     da8:	00008506 	andeq	r8, r0, r6, lsl #10
     dac:	05020300 	streq	r0, [r2, #-768]	; 0xfffffd00
     db0:	00000112 	andeq	r0, r0, r2, lsl r1
     db4:	fd050403 	stc2	4, cr0, [r5, #-12]
     db8:	03000000 	movweq	r0, #0
     dbc:	00f80508 	rscseq	r0, r8, r8, lsl #10
     dc0:	08050000 	stmdaeq	r5, {}	; <UNPREDICTABLE>
     dc4:	02000003 	andeq	r0, r0, #3, 0
     dc8:	0060182e 	rsbeq	r1, r0, lr, lsr #16
     dcc:	01030000 	mrseq	r0, (UNDEF: 3)
     dd0:	00008308 	andeq	r8, r0, r8, lsl #6
     dd4:	07020300 	streq	r0, [r2, -r0, lsl #6]
     dd8:	000000a7 	andeq	r0, r0, r7, lsr #1
     ddc:	00033a05 	andeq	r3, r3, r5, lsl #20
     de0:	19340200 	ldmdbne	r4!, {r9}
     de4:	0000007a 	andeq	r0, r0, sl, ror r0
     de8:	e6070403 	str	r0, [r7], -r3, lsl #8
     dec:	03000000 	movweq	r0, #0
     df0:	00e10708 	rsceq	r0, r1, r8, lsl #14
     df4:	01030000 	mrseq	r0, (UNDEF: 3)
     df8:	00008c08 	andeq	r8, r0, r8, lsl #24
     dfc:	00880400 	addeq	r0, r8, r0, lsl #8
     e00:	07060000 	streq	r0, [r6, -r0]
     e04:	00006001 	andeq	r6, r0, r1
     e08:	0e0c0400 	cfcpyseq	mvf0, mvf12
     e0c:	000000d3 	ldrdeq	r0, [r0], -r3
     e10:	00044307 	andeq	r4, r4, r7, lsl #6
     e14:	94070000 	strls	r0, [r7], #-0
     e18:	01000003 	tsteq	r0, r3
     e1c:	0003ad07 	andeq	sl, r3, r7, lsl #26
     e20:	bc070400 	cfstrslt	mvf0, [r7], {-0}
     e24:	05000003 	streq	r0, [r0, #-3]
     e28:	0003cb07 	andeq	ip, r3, r7, lsl #22
     e2c:	da070600 	ble	1c2634 <__bss_end__+0x1b868c>
     e30:	07000003 	streq	r0, [r0, -r3]
     e34:	0003e907 	andeq	lr, r3, r7, lsl #18
     e38:	f8070300 			; <UNDEFINED> instruction: 0xf8070300
     e3c:	02000003 	andeq	r0, r0, #3, 0
     e40:	01040800 	tsteq	r4, r0, lsl #16
     e44:	018c0959 	orreq	r0, ip, r9, asr r9
     e48:	35090000 	strcc	r0, [r9, #-0]
     e4c:	01000003 	tsteq	r0, r3
     e50:	006e0b5a 	rsbeq	r0, lr, sl, asr fp
     e54:	01040000 	mrseq	r0, (UNDEF: 4)
     e58:	0409001f 	streq	r0, [r9], #-31	; 0xffffffe1
     e5c:	01000005 	tsteq	r0, r5
     e60:	006e035c 	rsbeq	r0, lr, ip, asr r3
     e64:	03040000 	movweq	r0, #16384	; 0x4000
     e68:	3809001c 	stmdacc	r9, {r2, r3, r4}
     e6c:	01000004 	tsteq	r0, r4
     e70:	006e035d 	rsbeq	r0, lr, sp, asr r3
     e74:	02040000 	andeq	r0, r4, #0, 0
     e78:	0e09001a 	mcreq	0, 0, r0, cr9, cr10, {0}
     e7c:	01000005 	tsteq	r0, r5
     e80:	006e0363 	rsbeq	r0, lr, r3, ror #6
     e84:	01040000 	mrseq	r0, (UNDEF: 4)
     e88:	730a0019 	movwvc	r0, #40985	; 0xa019
     e8c:	64010074 	strvs	r0, [r1], #-116	; 0xffffff8c
     e90:	00006e03 	andeq	r6, r0, r3, lsl #28
     e94:	18010400 	stmdane	r1, {sl}
     e98:	04530900 	ldrbeq	r0, [r3], #-2304	; 0xfffff700
     e9c:	68010000 	stmdavs	r1, {}	; <UNPREDICTABLE>
     ea0:	00006e03 	andeq	r6, r0, r3, lsl #28
     ea4:	17010400 	strne	r0, [r1, -r0, lsl #8]
     ea8:	045d0900 	ldrbeq	r0, [sp], #-2304	; 0xfffff700
     eac:	6b010000 	blvs	40eb4 <__bss_end__+0x36f0c>
     eb0:	00006e03 	andeq	r6, r0, r3, lsl #28
     eb4:	16010400 	strne	r0, [r1], -r0, lsl #8
     eb8:	04580900 	ldrbeq	r0, [r8], #-2304	; 0xfffff700
     ebc:	6e010000 	cdpvs	0, 0, cr0, cr1, cr0, {0}
     ec0:	00006e03 	andeq	r6, r0, r3, lsl #28
     ec4:	15010400 	strne	r0, [r1, #-1024]	; 0xfffffc00
     ec8:	05180900 	ldreq	r0, [r8, #-2304]	; 0xfffff700
     ecc:	71010000 	mrsvc	r0, (UNDEF: 1)
     ed0:	00006e03 	andeq	r6, r0, r3, lsl #28
     ed4:	11040400 	tstne	r4, r0, lsl #8
     ed8:	04950900 	ldreq	r0, [r5], #2304	; 0x900
     edc:	72010000 	andvc	r0, r1, #0, 0
     ee0:	00006e03 	andeq	r6, r0, r3, lsl #28
     ee4:	10010400 	andne	r0, r1, r0, lsl #8
     ee8:	05220900 	streq	r0, [r2, #-2304]!	; 0xfffff700
     eec:	75010000 	strvc	r0, [r1, #-0]
     ef0:	00006e03 	andeq	r6, r0, r3, lsl #28
     ef4:	00100400 	andseq	r0, r0, r0, lsl #8
     ef8:	1d050000 	stcne	0, cr0, [r5, #-0]
     efc:	01000004 	tsteq	r0, r4
     f00:	00d30376 	sbcseq	r0, r3, r6, ror r3
     f04:	8c0b0000 	stchi	0, cr0, [fp], {-0}
     f08:	08000001 	stmdaeq	r0, {r0}
     f0c:	09840104 	stmibeq	r4, {r2, r8}
     f10:	00000256 	andeq	r0, r0, r6, asr r2
     f14:	0061740a 	rsbeq	r7, r1, sl, lsl #8
     f18:	2c0b8501 	cfstr32cs	mvfx8, [fp], {1}
     f1c:	04000000 	streq	r0, [r0], #-0
     f20:	09001f01 	stmdbeq	r0, {r0, r8, r9, sl, fp, ip}
     f24:	0000043e 	andeq	r0, r0, lr, lsr r4
     f28:	2c038801 	stccs	8, cr8, [r3], {1}
     f2c:	04000000 	streq	r0, [r0], #-0
     f30:	0a001e01 	beq	873c <xfer_start+0x144>
     f34:	00777874 	rsbseq	r7, r7, r4, ror r8
     f38:	2c038c01 	stccs	12, cr8, [r3], {1}
     f3c:	04000000 	streq	r0, [r0], #-0
     f40:	0a001d01 	beq	834c <ads1115_config+0xc0>
     f44:	00727872 	rsbseq	r7, r2, r2, ror r8
     f48:	2c039201 	sfmcs	f1, 1, [r3], {1}
     f4c:	04000000 	streq	r0, [r0], #-0
     f50:	0a001c01 	beq	7f5c <__code_start__-0xa4>
     f54:	00647874 	rsbeq	r7, r4, r4, ror r8
     f58:	2c039801 	stccs	8, cr9, [r3], {1}
     f5c:	04000000 	streq	r0, [r0], #-0
     f60:	0a001b01 	beq	7b6c <__code_start__-0x494>
     f64:	00647872 	rsbeq	r7, r4, r2, ror r8
     f68:	2c039b01 			; <UNDEFINED> instruction: 0x2c039b01
     f6c:	04000000 	streq	r0, [r0], #-0
     f70:	0a001a01 	beq	777c <__code_start__-0x884>
     f74:	00657874 	rsbeq	r7, r5, r4, ror r8
     f78:	2c039f01 	stccs	15, cr9, [r3], {1}
     f7c:	04000000 	streq	r0, [r0], #-0
     f80:	0a001901 	beq	738c <__code_start__-0xc74>
     f84:	00667872 	rsbeq	r7, r6, r2, ror r8
     f88:	2c03a401 	cfstrscs	mvf10, [r3], {1}
     f8c:	04000000 	streq	r0, [r0], #-0
     f90:	0a001801 	beq	6f9c <__code_start__-0x1064>
     f94:	00727265 	rsbseq	r7, r2, r5, ror #4
     f98:	2c03a701 	stccs	7, cr10, [r3], {1}
     f9c:	04000000 	streq	r0, [r0], #-0
     fa0:	09001701 	stmdbeq	r0, {r0, r8, r9, sl, ip}
     fa4:	000004ce 	andeq	r0, r0, lr, asr #9
     fa8:	2c03ab01 			; <UNDEFINED> instruction: 0x2c03ab01
     fac:	04000000 	streq	r0, [r0], #-0
     fb0:	09001601 	stmdbeq	r0, {r0, r9, sl, ip}
     fb4:	00000504 	andeq	r0, r0, r4, lsl #10
     fb8:	2c03b001 	stccs	0, cr11, [r3], {1}
     fbc:	04000000 	streq	r0, [r0], #-0
     fc0:	00000016 	andeq	r0, r0, r6, lsl r0
     fc4:	00040705 	andeq	r0, r4, r5, lsl #14
     fc8:	03b10100 			; <UNDEFINED> instruction: 0x03b10100
     fcc:	0000019d 	muleq	r0, sp, r1
     fd0:	0002560b 	andeq	r5, r2, fp, lsl #12
     fd4:	048d0c00 	streq	r0, [sp], #3072	; 0xc00
     fd8:	01200000 			; <UNDEFINED> instruction: 0x01200000
     fdc:	02dd10bc 	sbcseq	r1, sp, #188, 0	; 0xbc
     fe0:	670d0000 	strvs	r0, [sp, -r0]
     fe4:	01000004 	tsteq	r0, r4
     fe8:	018c0dbd 			; <UNDEFINED> instruction: 0x018c0dbd
     fec:	0d000000 	stceq	0, cr0, [r0, #-0]
     ff0:	00000532 	andeq	r0, r0, r2, lsr r5
     ff4:	560dbe01 	strpl	fp, [sp], -r1, lsl #28
     ff8:	04000002 	streq	r0, [r0], #-2
     ffc:	0004120d 	andeq	r1, r4, sp, lsl #4
    1000:	0bc10100 	bleq	ff041408 <__bss_end__+0xff037460>
    1004:	0000006e 	andeq	r0, r0, lr, rrx
    1008:	011c0d08 	tsteq	ip, r8, lsl #26
    100c:	ca010000 	bgt	41014 <__bss_end__+0x3706c>
    1010:	00006e0c 	andeq	r6, r0, ip, lsl #28
    1014:	620d0c00 	andvs	r0, sp, #0, 24
    1018:	01000004 	tsteq	r0, r4
    101c:	006e0bcc 	rsbeq	r0, lr, ip, asr #23
    1020:	0d100000 	ldceq	0, cr0, [r0, #-0]
    1024:	0000042e 	andeq	r0, r0, lr, lsr #8
    1028:	6e0bce01 	cdpvs	14, 0, cr12, cr11, cr1, {0}
    102c:	14000000 	strne	r0, [r0], #-0
    1030:	0005390d 	andeq	r3, r5, sp, lsl #18
    1034:	0bd00100 	bleq	ff40143c <__bss_end__+0xff3f7494>
    1038:	0000006e 	andeq	r0, r0, lr, rrx
    103c:	03760d18 	cmneq	r6, #24, 26	; 0x600
    1040:	d2010000 	andle	r0, r1, #0, 0
    1044:	00006e0b 	andeq	r6, r0, fp, lsl #28
    1048:	05001c00 	streq	r1, [r0, #-3072]	; 0xfffff400
    104c:	0000048d 	andeq	r0, r0, sp, lsl #9
    1050:	6703d301 	strvs	sp, [r3, -r1, lsl #6]
    1054:	0b000002 	bleq	1064 <__code_start__-0x6f9c>
    1058:	000002dd 	ldrdeq	r0, [r0], -sp
    105c:	6332690e 	teqvs	r2, #229376	; 0x38000
    1060:	1ad70100 	bne	ff5c1468 <__bss_end__+0xff5b74c0>
    1064:	000002fa 	strdeq	r0, [r0], -sl
    1068:	02e9040f 	rsceq	r0, r9, #251658240	; 0xf000000
    106c:	5b100000 	blpl	401074 <__bss_end__+0x3f70cc>
    1070:	01000003 	tsteq	r0, r3
    1074:	250c0142 	strcs	r0, [ip, #-322]	; 0xfffffebe
    1078:	05000000 	streq	r0, [r0, #-0]
    107c:	009ba403 	addseq	sl, fp, r3, lsl #8
    1080:	03691100 	cmneq	r9, #0
    1084:	75010000 	strvc	r0, [r1, #-0]
    1088:	09460d01 	stmdbeq	r6, {r0, r8, sl, fp}^
    108c:	45120000 	ldrmi	r0, [r2, #-0]
    1090:	56000002 	strpl	r0, [r0], -r2
    1094:	69000009 	stmdbvs	r0, {r0, r3}
    1098:	13000003 	movwne	r0, #3
    109c:	00000389 	andeq	r0, r0, r9, lsl #7
    10a0:	00755f14 	rsbseq	r5, r5, r4, lsl pc
    10a4:	01800104 	orreq	r0, r0, r4, lsl #2
    10a8:	00035602 	andeq	r5, r3, r2, lsl #12
    10ac:	00731500 	rsbseq	r1, r3, r0, lsl #10
    10b0:	02018001 	andeq	r8, r1, #1, 0
    10b4:	0000018c 	andeq	r0, r0, ip, lsl #3
    10b8:	01007515 	tsteq	r0, r5, lsl r5
    10bc:	2c020180 	stfcss	f0, [r2], {128}	; 0x80
    10c0:	00000000 	andeq	r0, r0, r0
    10c4:	01007816 	tsteq	r0, r6, lsl r8
    10c8:	32020180 	andcc	r0, r2, #32
    10cc:	16000003 	strne	r0, [r0], -r3
    10d0:	00707865 	rsbseq	r7, r0, r5, ror #16
    10d4:	02018001 	andeq	r8, r1, #1, 0
    10d8:	0000002c 	andeq	r0, r0, ip, lsr #32
    10dc:	00042817 	andeq	r2, r4, r7, lsl r8
    10e0:	01800100 	orreq	r0, r0, r0, lsl #2
    10e4:	00002c02 	andeq	r2, r0, r2, lsl #24
    10e8:	03531700 	cmpeq	r3, #0, 14
    10ec:	80010000 	andhi	r0, r1, r0
    10f0:	002c0201 	eoreq	r0, ip, r1, lsl #4
    10f4:	13000000 	movwne	r0, #0
    10f8:	000003e5 	andeq	r0, r0, r5, ror #7
    10fc:	00755f14 	rsbseq	r5, r5, r4, lsl pc
    1100:	01810104 	orreq	r0, r1, r4, lsl #2
    1104:	0003b202 	andeq	fp, r3, r2, lsl #4
    1108:	00731500 	rsbseq	r1, r3, r0, lsl #10
    110c:	02018101 	andeq	r8, r1, #1073741824	; 0x40000000
    1110:	0000018c 	andeq	r0, r0, ip, lsl #3
    1114:	01007515 	tsteq	r0, r5, lsl r5
    1118:	2c020181 	stfcss	f0, [r2], {129}	; 0x81
    111c:	00000000 	andeq	r0, r0, r0
    1120:	01007816 	tsteq	r0, r6, lsl r8
    1124:	8e020181 	adfhid	f0, f2, f1
    1128:	16000003 	strne	r0, [r0], -r3
    112c:	00707865 	rsbseq	r7, r0, r5, ror #16
    1130:	02018101 	andeq	r8, r1, #1073741824	; 0x40000000
    1134:	0000002c 	andeq	r0, r0, ip, lsr #32
    1138:	00042817 	andeq	r2, r4, r7, lsl r8
    113c:	01810100 	orreq	r0, r1, r0, lsl #2
    1140:	00002c02 	andeq	r2, r0, r2, lsl #24
    1144:	03531700 	cmpeq	r3, #0, 14
    1148:	81010000 	mrshi	r0, (UNDEF: 1)
    114c:	002c0201 	eoreq	r0, ip, r1, lsl #4
    1150:	13000000 	movwne	r0, #0
    1154:	00000441 	andeq	r0, r0, r1, asr #8
    1158:	00755f14 	rsbseq	r5, r5, r4, lsl pc
    115c:	01820104 	orreq	r0, r2, r4, lsl #2
    1160:	00040e02 	andeq	r0, r4, r2, lsl #28
    1164:	00731500 	rsbseq	r1, r3, r0, lsl #10
    1168:	02018201 	andeq	r8, r1, #268435456	; 0x10000000
    116c:	0000018c 	andeq	r0, r0, ip, lsl #3
    1170:	01007515 	tsteq	r0, r5, lsl r5
    1174:	2c020182 	stfcss	f0, [r2], {130}	; 0x82
    1178:	00000000 	andeq	r0, r0, r0
    117c:	01007816 	tsteq	r0, r6, lsl r8
    1180:	ea020182 	b	81790 <__bss_end__+0x777e8>
    1184:	16000003 	strne	r0, [r0], -r3
    1188:	00707865 	rsbseq	r7, r0, r5, ror #16
    118c:	02018201 	andeq	r8, r1, #268435456	; 0x10000000
    1190:	0000002c 	andeq	r0, r0, ip, lsr #32
    1194:	00042817 	andeq	r2, r4, r7, lsl r8
    1198:	01820100 	orreq	r0, r2, r0, lsl #2
    119c:	00002c02 	andeq	r2, r0, r2, lsl #24
    11a0:	03531700 	cmpeq	r3, #0, 14
    11a4:	82010000 	andhi	r0, r1, #0, 0
    11a8:	002c0201 	eoreq	r0, ip, r1, lsl #4
    11ac:	13000000 	movwne	r0, #0
    11b0:	0000049d 	muleq	r0, sp, r4
    11b4:	00755f14 	rsbseq	r5, r5, r4, lsl pc
    11b8:	01830104 	orreq	r0, r3, r4, lsl #2
    11bc:	00046a02 	andeq	r6, r4, r2, lsl #20
    11c0:	00731500 	rsbseq	r1, r3, r0, lsl #10
    11c4:	02018301 	andeq	r8, r1, #67108864	; 0x4000000
    11c8:	0000018c 	andeq	r0, r0, ip, lsl #3
    11cc:	01007515 	tsteq	r0, r5, lsl r5
    11d0:	2c020183 	stfcss	f0, [r2], {131}	; 0x83
    11d4:	00000000 	andeq	r0, r0, r0
    11d8:	01007816 	tsteq	r0, r6, lsl r8
    11dc:	46020183 	strmi	r0, [r2], -r3, lsl #3
    11e0:	16000004 	strne	r0, [r0], -r4
    11e4:	00707865 	rsbseq	r7, r0, r5, ror #16
    11e8:	02018301 	andeq	r8, r1, #67108864	; 0x4000000
    11ec:	0000002c 	andeq	r0, r0, ip, lsr #32
    11f0:	00042817 	andeq	r2, r4, r7, lsl r8
    11f4:	01830100 	orreq	r0, r3, r0, lsl #2
    11f8:	00002c02 	andeq	r2, r0, r2, lsl #24
    11fc:	03531700 	cmpeq	r3, #0, 14
    1200:	83010000 	movwhi	r0, #4096	; 0x1000
    1204:	002c0201 	eoreq	r0, ip, r1, lsl #4
    1208:	13000000 	movwne	r0, #0
    120c:	000004f9 	strdeq	r0, [r0], -r9
    1210:	00755f14 	rsbseq	r5, r5, r4, lsl pc
    1214:	01840104 	orreq	r0, r4, r4, lsl #2
    1218:	0004c602 	andeq	ip, r4, r2, lsl #12
    121c:	00731500 	rsbseq	r1, r3, r0, lsl #10
    1220:	02018401 	andeq	r8, r1, #16777216	; 0x1000000
    1224:	0000018c 	andeq	r0, r0, ip, lsl #3
    1228:	01007515 	tsteq	r0, r5, lsl r5
    122c:	2c020184 	stfcss	f0, [r2], {132}	; 0x84
    1230:	00000000 	andeq	r0, r0, r0
    1234:	01007816 	tsteq	r0, r6, lsl r8
    1238:	a2020184 	andge	r0, r2, #33	; 0x21
    123c:	16000004 	strne	r0, [r0], -r4
    1240:	00707865 	rsbseq	r7, r0, r5, ror #16
    1244:	02018401 	andeq	r8, r1, #16777216	; 0x1000000
    1248:	0000002c 	andeq	r0, r0, ip, lsr #32
    124c:	00042817 	andeq	r2, r4, r7, lsl r8
    1250:	01840100 	orreq	r0, r4, r0, lsl #2
    1254:	00002c02 	andeq	r2, r0, r2, lsl #24
    1258:	03531700 	cmpeq	r3, #0, 14
    125c:	84010000 	strhi	r0, [r1], #-0
    1260:	002c0201 	eoreq	r0, ip, r1, lsl #4
    1264:	13000000 	movwne	r0, #0
    1268:	00000555 	andeq	r0, r0, r5, asr r5
    126c:	00755f14 	rsbseq	r5, r5, r4, lsl pc
    1270:	01850104 	orreq	r0, r5, r4, lsl #2
    1274:	00052202 	andeq	r2, r5, r2, lsl #4
    1278:	00731500 	rsbseq	r1, r3, r0, lsl #10
    127c:	02018501 	andeq	r8, r1, #4194304	; 0x400000
    1280:	0000018c 	andeq	r0, r0, ip, lsl #3
    1284:	01007515 	tsteq	r0, r5, lsl r5
    1288:	2c020185 	stfcss	f0, [r2], {133}	; 0x85
    128c:	00000000 	andeq	r0, r0, r0
    1290:	01007816 	tsteq	r0, r6, lsl r8
    1294:	fe020185 	cdp2	1, 0, cr0, cr2, cr5, {4}
    1298:	16000004 	strne	r0, [r0], -r4
    129c:	00707865 	rsbseq	r7, r0, r5, ror #16
    12a0:	02018501 	andeq	r8, r1, #4194304	; 0x400000
    12a4:	0000002c 	andeq	r0, r0, ip, lsr #32
    12a8:	00042817 	andeq	r2, r4, r7, lsl r8
    12ac:	01850100 	orreq	r0, r5, r0, lsl #2
    12b0:	00002c02 	andeq	r2, r0, r2, lsl #24
    12b4:	03531700 	cmpeq	r3, #0, 14
    12b8:	85010000 	strhi	r0, [r1, #-0]
    12bc:	002c0201 	eoreq	r0, ip, r1, lsl #4
    12c0:	13000000 	movwne	r0, #0
    12c4:	000005b1 			; <UNDEFINED> instruction: 0x000005b1
    12c8:	00755f14 	rsbseq	r5, r5, r4, lsl pc
    12cc:	01860104 	orreq	r0, r6, r4, lsl #2
    12d0:	00057e02 	andeq	r7, r5, r2, lsl #28
    12d4:	00731500 	rsbseq	r1, r3, r0, lsl #10
    12d8:	02018601 	andeq	r8, r1, #1048576	; 0x100000
    12dc:	0000018c 	andeq	r0, r0, ip, lsl #3
    12e0:	01007515 	tsteq	r0, r5, lsl r5
    12e4:	2c020186 	stfcss	f0, [r2], {134}	; 0x86
    12e8:	00000000 	andeq	r0, r0, r0
    12ec:	01007816 	tsteq	r0, r6, lsl r8
    12f0:	5a020186 	bpl	81910 <__bss_end__+0x77968>
    12f4:	16000005 	strne	r0, [r0], -r5
    12f8:	00707865 	rsbseq	r7, r0, r5, ror #16
    12fc:	02018601 	andeq	r8, r1, #1048576	; 0x100000
    1300:	0000002c 	andeq	r0, r0, ip, lsr #32
    1304:	00042817 	andeq	r2, r4, r7, lsl r8
    1308:	01860100 	orreq	r0, r6, r0, lsl #2
    130c:	00002c02 	andeq	r2, r0, r2, lsl #24
    1310:	03531700 	cmpeq	r3, #0, 14
    1314:	86010000 	strhi	r0, [r1], -r0
    1318:	002c0201 	eoreq	r0, ip, r1, lsl #4
    131c:	13000000 	movwne	r0, #0
    1320:	0000060d 	andeq	r0, r0, sp, lsl #12
    1324:	00755f14 	rsbseq	r5, r5, r4, lsl pc
    1328:	01890104 	orreq	r0, r9, r4, lsl #2
    132c:	0005da02 	andeq	sp, r5, r2, lsl #20
    1330:	00731500 	rsbseq	r1, r3, r0, lsl #10
    1334:	02018901 	andeq	r8, r1, #16384	; 0x4000
    1338:	00000256 	andeq	r0, r0, r6, asr r2
    133c:	01007515 	tsteq	r0, r5, lsl r5
    1340:	2c020189 	stfcss	f0, [r2], {137}	; 0x89
    1344:	00000000 	andeq	r0, r0, r0
    1348:	01007816 	tsteq	r0, r6, lsl r8
    134c:	b6020189 	strlt	r0, [r2], -r9, lsl #3
    1350:	16000005 	strne	r0, [r0], -r5
    1354:	00707865 	rsbseq	r7, r0, r5, ror #16
    1358:	02018901 	andeq	r8, r1, #16384	; 0x4000
    135c:	0000002c 	andeq	r0, r0, ip, lsr #32
    1360:	00042817 	andeq	r2, r4, r7, lsl r8
    1364:	01890100 	orreq	r0, r9, r0, lsl #2
    1368:	00002c02 	andeq	r2, r0, r2, lsl #24
    136c:	03531700 	cmpeq	r3, #0, 14
    1370:	89010000 	stmdbhi	r1, {}	; <UNPREDICTABLE>
    1374:	002c0201 	eoreq	r0, ip, r1, lsl #4
    1378:	13000000 	movwne	r0, #0
    137c:	00000669 	andeq	r0, r0, r9, ror #12
    1380:	00755f14 	rsbseq	r5, r5, r4, lsl pc
    1384:	018a0104 	orreq	r0, sl, r4, lsl #2
    1388:	00063602 	andeq	r3, r6, r2, lsl #12
    138c:	00731500 	rsbseq	r1, r3, r0, lsl #10
    1390:	02018a01 	andeq	r8, r1, #4096	; 0x1000
    1394:	00000256 	andeq	r0, r0, r6, asr r2
    1398:	01007515 	tsteq	r0, r5, lsl r5
    139c:	2c02018a 	stfcss	f0, [r2], {138}	; 0x8a
    13a0:	00000000 	andeq	r0, r0, r0
    13a4:	01007816 	tsteq	r0, r6, lsl r8
    13a8:	1202018a 	andne	r0, r2, #-2147483614	; 0x80000022
    13ac:	16000006 	strne	r0, [r0], -r6
    13b0:	00707865 	rsbseq	r7, r0, r5, ror #16
    13b4:	02018a01 	andeq	r8, r1, #4096	; 0x1000
    13b8:	0000002c 	andeq	r0, r0, ip, lsr #32
    13bc:	00042817 	andeq	r2, r4, r7, lsl r8
    13c0:	018a0100 	orreq	r0, sl, r0, lsl #2
    13c4:	00002c02 	andeq	r2, r0, r2, lsl #24
    13c8:	03531700 	cmpeq	r3, #0, 14
    13cc:	8a010000 	bhi	413d4 <__bss_end__+0x3742c>
    13d0:	002c0201 	eoreq	r0, ip, r1, lsl #4
    13d4:	13000000 	movwne	r0, #0
    13d8:	000006c5 	andeq	r0, r0, r5, asr #13
    13dc:	00755f14 	rsbseq	r5, r5, r4, lsl pc
    13e0:	018b0104 	orreq	r0, fp, r4, lsl #2
    13e4:	00069202 	andeq	r9, r6, r2, lsl #4
    13e8:	00731500 	rsbseq	r1, r3, r0, lsl #10
    13ec:	02018b01 	andeq	r8, r1, #1024	; 0x400
    13f0:	00000256 	andeq	r0, r0, r6, asr r2
    13f4:	01007515 	tsteq	r0, r5, lsl r5
    13f8:	2c02018b 	stfcss	f0, [r2], {139}	; 0x8b
    13fc:	00000000 	andeq	r0, r0, r0
    1400:	01007816 	tsteq	r0, r6, lsl r8
    1404:	6e02018b 	adfvsd	f0, f2, #3.0
    1408:	16000006 	strne	r0, [r0], -r6
    140c:	00707865 	rsbseq	r7, r0, r5, ror #16
    1410:	02018b01 	andeq	r8, r1, #1024	; 0x400
    1414:	0000002c 	andeq	r0, r0, ip, lsr #32
    1418:	00042817 	andeq	r2, r4, r7, lsl r8
    141c:	018b0100 	orreq	r0, fp, r0, lsl #2
    1420:	00002c02 	andeq	r2, r0, r2, lsl #24
    1424:	03531700 	cmpeq	r3, #0, 14
    1428:	8b010000 	blhi	41430 <__bss_end__+0x37488>
    142c:	002c0201 	eoreq	r0, ip, r1, lsl #4
    1430:	13000000 	movwne	r0, #0
    1434:	00000721 	andeq	r0, r0, r1, lsr #14
    1438:	00755f14 	rsbseq	r5, r5, r4, lsl pc
    143c:	018c0104 	orreq	r0, ip, r4, lsl #2
    1440:	0006ee02 	andeq	lr, r6, r2, lsl #28
    1444:	00731500 	rsbseq	r1, r3, r0, lsl #10
    1448:	02018c01 	andeq	r8, r1, #256	; 0x100
    144c:	00000256 	andeq	r0, r0, r6, asr r2
    1450:	01007515 	tsteq	r0, r5, lsl r5
    1454:	2c02018c 	stfcss	f0, [r2], {140}	; 0x8c
    1458:	00000000 	andeq	r0, r0, r0
    145c:	01007816 	tsteq	r0, r6, lsl r8
    1460:	ca02018c 	bgt	81a98 <__bss_end__+0x77af0>
    1464:	16000006 	strne	r0, [r0], -r6
    1468:	00707865 	rsbseq	r7, r0, r5, ror #16
    146c:	02018c01 	andeq	r8, r1, #256	; 0x100
    1470:	0000002c 	andeq	r0, r0, ip, lsr #32
    1474:	00042817 	andeq	r2, r4, r7, lsl r8
    1478:	018c0100 	orreq	r0, ip, r0, lsl #2
    147c:	00002c02 	andeq	r2, r0, r2, lsl #24
    1480:	03531700 	cmpeq	r3, #0, 14
    1484:	8c010000 	stchi	0, cr0, [r1], {-0}
    1488:	002c0201 	eoreq	r0, ip, r1, lsl #4
    148c:	13000000 	movwne	r0, #0
    1490:	0000077d 	andeq	r0, r0, sp, ror r7
    1494:	00755f14 	rsbseq	r5, r5, r4, lsl pc
    1498:	018d0104 	orreq	r0, sp, r4, lsl #2
    149c:	00074a02 	andeq	r4, r7, r2, lsl #20
    14a0:	00731500 	rsbseq	r1, r3, r0, lsl #10
    14a4:	02018d01 	andeq	r8, r1, #64	; 0x40
    14a8:	00000256 	andeq	r0, r0, r6, asr r2
    14ac:	01007515 	tsteq	r0, r5, lsl r5
    14b0:	2c02018d 	stfcss	f0, [r2], {141}	; 0x8d
    14b4:	00000000 	andeq	r0, r0, r0
    14b8:	01007816 	tsteq	r0, r6, lsl r8
    14bc:	2602018d 	strcs	r0, [r2], -sp, lsl #3
    14c0:	16000007 	strne	r0, [r0], -r7
    14c4:	00707865 	rsbseq	r7, r0, r5, ror #16
    14c8:	02018d01 	andeq	r8, r1, #64	; 0x40
    14cc:	0000002c 	andeq	r0, r0, ip, lsr #32
    14d0:	00042817 	andeq	r2, r4, r7, lsl r8
    14d4:	018d0100 	orreq	r0, sp, r0, lsl #2
    14d8:	00002c02 	andeq	r2, r0, r2, lsl #24
    14dc:	03531700 	cmpeq	r3, #0, 14
    14e0:	8d010000 	stchi	0, cr0, [r1, #-0]
    14e4:	002c0201 	eoreq	r0, ip, r1, lsl #4
    14e8:	13000000 	movwne	r0, #0
    14ec:	000007d9 	ldrdeq	r0, [r0], -r9
    14f0:	00755f14 	rsbseq	r5, r5, r4, lsl pc
    14f4:	018e0104 	orreq	r0, lr, r4, lsl #2
    14f8:	0007a602 	andeq	sl, r7, r2, lsl #12
    14fc:	00731500 	rsbseq	r1, r3, r0, lsl #10
    1500:	02018e01 	andeq	r8, r1, #1, 28
    1504:	00000256 	andeq	r0, r0, r6, asr r2
    1508:	01007515 	tsteq	r0, r5, lsl r5
    150c:	2c02018e 	stfcss	f0, [r2], {142}	; 0x8e
    1510:	00000000 	andeq	r0, r0, r0
    1514:	01007816 	tsteq	r0, r6, lsl r8
    1518:	8202018e 	andhi	r0, r2, #-2147483613	; 0x80000023
    151c:	16000007 	strne	r0, [r0], -r7
    1520:	00707865 	rsbseq	r7, r0, r5, ror #16
    1524:	02018e01 	andeq	r8, r1, #1, 28
    1528:	0000002c 	andeq	r0, r0, ip, lsr #32
    152c:	00042817 	andeq	r2, r4, r7, lsl r8
    1530:	018e0100 	orreq	r0, lr, r0, lsl #2
    1534:	00002c02 	andeq	r2, r0, r2, lsl #24
    1538:	03531700 	cmpeq	r3, #0, 14
    153c:	8e010000 	cdphi	0, 0, cr0, cr1, cr0, {0}
    1540:	002c0201 	eoreq	r0, ip, r1, lsl #4
    1544:	13000000 	movwne	r0, #0
    1548:	00000835 	andeq	r0, r0, r5, lsr r8
    154c:	00755f14 	rsbseq	r5, r5, r4, lsl pc
    1550:	018f0104 	orreq	r0, pc, r4, lsl #2
    1554:	00080202 	andeq	r0, r8, r2, lsl #4
    1558:	00731500 	rsbseq	r1, r3, r0, lsl #10
    155c:	02018f01 	andeq	r8, r1, #1, 30
    1560:	00000256 	andeq	r0, r0, r6, asr r2
    1564:	01007515 	tsteq	r0, r5, lsl r5
    1568:	2c02018f 	stfcss	f0, [r2], {143}	; 0x8f
    156c:	00000000 	andeq	r0, r0, r0
    1570:	01007816 	tsteq	r0, r6, lsl r8
    1574:	de02018f 	adfled	f0, f2, #10.0
    1578:	16000007 	strne	r0, [r0], -r7
    157c:	00707865 	rsbseq	r7, r0, r5, ror #16
    1580:	02018f01 	andeq	r8, r1, #1, 30
    1584:	0000002c 	andeq	r0, r0, ip, lsr #32
    1588:	00042817 	andeq	r2, r4, r7, lsl r8
    158c:	018f0100 	orreq	r0, pc, r0, lsl #2
    1590:	00002c02 	andeq	r2, r0, r2, lsl #24
    1594:	03531700 	cmpeq	r3, #0, 14
    1598:	8f010000 	svchi	0x00010000
    159c:	002c0201 	eoreq	r0, ip, r1, lsl #4
    15a0:	13000000 	movwne	r0, #0
    15a4:	00000891 	muleq	r0, r1, r8
    15a8:	00755f14 	rsbseq	r5, r5, r4, lsl pc
    15ac:	01900104 	orrseq	r0, r0, r4, lsl #2
    15b0:	00085e02 	andeq	r5, r8, r2, lsl #28
    15b4:	00731500 	rsbseq	r1, r3, r0, lsl #10
    15b8:	02019001 	andeq	r9, r1, #1, 0
    15bc:	00000256 	andeq	r0, r0, r6, asr r2
    15c0:	01007515 	tsteq	r0, r5, lsl r5
    15c4:	2c020190 	stfcss	f0, [r2], {144}	; 0x90
    15c8:	00000000 	andeq	r0, r0, r0
    15cc:	01007816 	tsteq	r0, r6, lsl r8
    15d0:	3a020190 	bcc	81c18 <__bss_end__+0x77c70>
    15d4:	16000008 	strne	r0, [r0], -r8
    15d8:	00707865 	rsbseq	r7, r0, r5, ror #16
    15dc:	02019001 	andeq	r9, r1, #1, 0
    15e0:	0000002c 	andeq	r0, r0, ip, lsr #32
    15e4:	00042817 	andeq	r2, r4, r7, lsl r8
    15e8:	01900100 	orrseq	r0, r0, r0, lsl #2
    15ec:	00002c02 	andeq	r2, r0, r2, lsl #24
    15f0:	03531700 	cmpeq	r3, #0, 14
    15f4:	90010000 	andls	r0, r1, r0
    15f8:	002c0201 	eoreq	r0, ip, r1, lsl #4
    15fc:	13000000 	movwne	r0, #0
    1600:	000008ed 	andeq	r0, r0, sp, ror #17
    1604:	00755f14 	rsbseq	r5, r5, r4, lsl pc
    1608:	01910104 	orrseq	r0, r1, r4, lsl #2
    160c:	0008ba02 	andeq	fp, r8, r2, lsl #20
    1610:	00731500 	rsbseq	r1, r3, r0, lsl #10
    1614:	02019101 	andeq	r9, r1, #1073741824	; 0x40000000
    1618:	00000256 	andeq	r0, r0, r6, asr r2
    161c:	01007515 	tsteq	r0, r5, lsl r5
    1620:	2c020191 	stfcss	f0, [r2], {145}	; 0x91
    1624:	00000000 	andeq	r0, r0, r0
    1628:	01007816 	tsteq	r0, r6, lsl r8
    162c:	96020191 			; <UNDEFINED> instruction: 0x96020191
    1630:	16000008 	strne	r0, [r0], -r8
    1634:	00707865 	rsbseq	r7, r0, r5, ror #16
    1638:	02019101 	andeq	r9, r1, #1073741824	; 0x40000000
    163c:	0000002c 	andeq	r0, r0, ip, lsr #32
    1640:	00042817 	andeq	r2, r4, r7, lsl r8
    1644:	01910100 	orrseq	r0, r1, r0, lsl #2
    1648:	00002c02 	andeq	r2, r0, r2, lsl #24
    164c:	03531700 	cmpeq	r3, #0, 14
    1650:	91010000 	mrsls	r0, (UNDEF: 1)
    1654:	002c0201 	eoreq	r0, ip, r1, lsl #4
    1658:	18000000 	stmdane	r0, {}	; <UNPREDICTABLE>
    165c:	00755f14 	rsbseq	r5, r5, r4, lsl pc
    1660:	01920104 	orrseq	r0, r2, r4, lsl #2
    1664:	00091202 	andeq	r1, r9, r2, lsl #4
    1668:	00731500 	rsbseq	r1, r3, r0, lsl #10
    166c:	02019201 	andeq	r9, r1, #268435456	; 0x10000000
    1670:	00000256 	andeq	r0, r0, r6, asr r2
    1674:	01007515 	tsteq	r0, r5, lsl r5
    1678:	2c020192 	stfcss	f0, [r2], {146}	; 0x92
    167c:	00000000 	andeq	r0, r0, r0
    1680:	01007816 	tsteq	r0, r6, lsl r8
    1684:	ee020192 	mcr	1, 0, r0, cr2, cr2, {4}
    1688:	16000008 	strne	r0, [r0], -r8
    168c:	00707865 	rsbseq	r7, r0, r5, ror #16
    1690:	02019201 	andeq	r9, r1, #268435456	; 0x10000000
    1694:	0000002c 	andeq	r0, r0, ip, lsr #32
    1698:	00042817 	andeq	r2, r4, r7, lsl r8
    169c:	01920100 	orrseq	r0, r2, r0, lsl #2
    16a0:	00002c02 	andeq	r2, r0, r2, lsl #24
    16a4:	03531700 	cmpeq	r3, #0, 14
    16a8:	92010000 	andls	r0, r1, #0, 0
    16ac:	002c0201 	eoreq	r0, ip, r1, lsl #4
    16b0:	00000000 	andeq	r0, r0, r0
    16b4:	00008f19 	andeq	r8, r0, r9, lsl pc
    16b8:	00095600 	andeq	r5, r9, r0, lsl #12
    16bc:	002c1a00 	eoreq	r1, ip, r0, lsl #20
    16c0:	000c0000 	andeq	r0, ip, r0
    16c4:	00094604 	andeq	r4, r9, r4, lsl #12
    16c8:	02321b00 	eorseq	r1, r2, #0, 22
    16cc:	51010000 	mrspl	r0, (UNDEF: 1)
    16d0:	89540601 	ldmdbhi	r4, {r0, r9, sl}^
    16d4:	00a00000 	adceq	r0, r0, r0
    16d8:	9c010000 	stcls	0, cr0, [r1], {-0}
    16dc:	00000ae0 	andeq	r0, r0, r0, ror #21
    16e0:	4144531c 	cmpmi	r4, ip, lsl r3
    16e4:	01590100 	cmpeq	r9, r0, lsl #2
    16e8:	00003312 	andeq	r3, r0, r2, lsl r3
    16ec:	531c0200 	tstpl	ip, #0, 4
    16f0:	01004c43 	tsteq	r0, r3, asr #24
    16f4:	3312015a 	tstcc	r2, #-2147483626	; 0x80000016
    16f8:	03000000 	movweq	r0, #0
    16fc:	01006316 	tsteq	r0, r6, lsl r3
    1700:	8c0e0163 	stfhis	f0, [lr], {99}	; 0x63
    1704:	1d000001 	stcne	0, cr0, [r0, #-4]
    1708:	00000245 	andeq	r0, r0, r5, asr #4
    170c:	00000af0 	strdeq	r0, [r0], -r0	; <UNPREDICTABLE>
    1710:	9a200305 	bls	80232c <__bss_end__+0x7f8384>
    1714:	7c1e0000 	ldcvc	0, cr0, [lr], {-0}
    1718:	00000089 	andeq	r0, r0, r9, lsl #1
    171c:	e5000000 	str	r0, [r0, #-0]
    1720:	14000009 	strne	r0, [r0], #-9
    1724:	0400755f 	streq	r7, [r0], #-1375	; 0xfffffaa1
    1728:	12016301 	andne	r6, r1, #67108864	; 0x4000000
    172c:	000009d9 	ldrdeq	r0, [r0], -r9
    1730:	01007615 	tsteq	r0, r5, lsl r6
    1734:	8c120163 	ldfhis	f0, [r2], {99}	; 0x63
    1738:	15000001 	strne	r0, [r0, #-1]
    173c:	63010075 	movwvs	r0, #4213	; 0x1075
    1740:	002c1201 	eoreq	r1, ip, r1, lsl #4
    1744:	16000000 	strne	r0, [r0], -r0
    1748:	63010075 	movwvs	r0, #4213	; 0x1075
    174c:	09b51201 	ldmibeq	r5!, {r0, r9, ip}
    1750:	1e000000 	cdpne	0, 0, cr0, cr0, cr0, {0}
    1754:	00008980 	andeq	r8, r0, r0, lsl #19
    1758:	00000000 	andeq	r0, r0, r0
    175c:	00000a24 	andeq	r0, r0, r4, lsr #20
    1760:	00755f14 	rsbseq	r5, r5, r4, lsl pc
    1764:	01650104 	cmneq	r5, r4, lsl #2
    1768:	000a1803 	andeq	r1, sl, r3, lsl #16
    176c:	76761500 	ldrbtvc	r1, [r6], -r0, lsl #10
    1770:	01650100 	cmneq	r5, r0, lsl #2
    1774:	00018c03 	andeq	r8, r1, r3, lsl #24
    1778:	75751500 	ldrbvc	r1, [r5, #-1280]!	; 0xfffffb00
    177c:	01650100 	cmneq	r5, r0, lsl #2
    1780:	00006e03 	andeq	r6, r0, r3, lsl #28
    1784:	75160000 	ldrvc	r0, [r6, #-0]
    1788:	01650100 	cmneq	r5, r0, lsl #2
    178c:	0009f203 	andeq	pc, r9, r3, lsl #4
    1790:	601f0000 	andsvs	r0, pc, r0
    1794:	91000089 	smlabbls	r0, r9, r0, r0
    1798:	20000013 	andcs	r0, r0, r3, lsl r0
    179c:	0000896c 	andeq	r8, r0, ip, ror #18
    17a0:	0000139d 	muleq	r0, sp, r3
    17a4:	00000a45 	andeq	r0, r0, r5, asr #20
    17a8:	01500121 	cmpeq	r0, r1, lsr #2
    17ac:	51012132 	tstpl	r1, r2, lsr r1
    17b0:	20003401 	andcs	r3, r0, r1, lsl #8
    17b4:	00008978 	andeq	r8, r0, r8, ror r9
    17b8:	0000139d 	muleq	r0, sp, r3
    17bc:	00000a5d 	andeq	r0, r0, sp, asr sl
    17c0:	01500121 	cmpeq	r0, r1, lsr #2
    17c4:	51012133 	tstpl	r1, r3, lsr r1
    17c8:	1f003401 	svcne	0x00003401
    17cc:	0000897c 	andeq	r8, r0, ip, ror r9
    17d0:	00001391 	muleq	r0, r1, r3
    17d4:	00898c20 	addeq	r8, r9, r0, lsr #24
    17d8:	0013a900 	andseq	sl, r3, r0, lsl #18
    17dc:	000a8100 	andeq	r8, sl, r0, lsl #2
    17e0:	50012100 	andpl	r2, r1, r0, lsl #2
    17e4:	21007402 	tstcs	r0, r2, lsl #8
    17e8:	0a035101 	beq	d5bf4 <__bss_end__+0xcbc4c>
    17ec:	1f008000 	svcne	0x00008000
    17f0:	00008990 	muleq	r0, r0, r9
    17f4:	00001391 	muleq	r0, r1, r3
    17f8:	0089941f 	addeq	r9, r9, pc, lsl r4
    17fc:	0011ab00 	andseq	sl, r1, r0, lsl #22
    1800:	89981f00 	ldmibhi	r8, {r8, r9, sl, fp, ip}
    1804:	13910000 	orrsne	r0, r1, #0, 0
    1808:	d4200000 	strtle	r0, [r0], #-0
    180c:	b5000089 	strlt	r0, [r0, #-137]	; 0xffffff77
    1810:	d6000013 			; <UNDEFINED> instruction: 0xd6000013
    1814:	2100000a 	tstcs	r0, sl
    1818:	03055001 	movweq	r5, #20481	; 0x5001
    181c:	00009850 	andeq	r9, r0, r0, asr r8
    1820:	05510121 	ldrbeq	r0, [r1, #-289]	; 0xfffffedf
    1824:	00992403 	addseq	r2, r9, r3, lsl #8
    1828:	52012100 	andpl	r2, r1, #0
    182c:	9a200305 	bls	802448 <__bss_end__+0x7f84a0>
    1830:	01210000 			; <UNDEFINED> instruction: 0x01210000
    1834:	6e0a0353 	mcrvs	3, 0, r0, cr10, cr3, {2}
    1838:	7d022101 	stfvcs	f2, [r2, #-4]
    183c:	84030500 	strhi	r0, [r3], #-1280	; 0xfffffb00
    1840:	00000099 	muleq	r0, r9, r0
    1844:	0089d81f 	addeq	sp, r9, pc, lsl r8
    1848:	0013c100 	andseq	ip, r3, r0, lsl #2
    184c:	8f190000 	svchi	0x00190000
    1850:	f0000000 			; <UNDEFINED> instruction: 0xf0000000
    1854:	1a00000a 	bne	1884 <__code_start__-0x677c>
    1858:	0000002c 	andeq	r0, r0, ip, lsr #32
    185c:	e0040008 	and	r0, r4, r8
    1860:	1b00000a 	blne	1890 <__code_start__-0x6770>
    1864:	000004f6 	strdeq	r0, [r0], -r6
    1868:	06014701 	streq	r4, [r1], -r1, lsl #14
    186c:	000089f4 	strdeq	r8, [r0], -r4
    1870:	00000018 	andeq	r0, r0, r8, lsl r0
    1874:	0b1f9c01 	bleq	7e8880 <__bss_end__+0x7de8d8>
    1878:	fc1f0000 	ldc2	0, cr0, [pc], {-0}
    187c:	1f000089 	svcne	0x00000089
    1880:	1f00000b 	svcne	0x0000000b
    1884:	00008a08 	andeq	r8, r0, r8, lsl #20
    1888:	0000095b 	andeq	r0, r0, fp, asr r9
    188c:	04a92200 	strteq	r2, [r9], #512	; 0x200
    1890:	44010000 	strmi	r0, [r1], #-0
    1894:	00250501 	eoreq	r0, r5, r1, lsl #10
    1898:	89440000 	stmdbhi	r4, {}^	; <UNPREDICTABLE>
    189c:	00100000 	andseq	r0, r0, r0
    18a0:	9c010000 	stcls	0, cr0, [r1], {-0}
    18a4:	00033123 	andeq	r3, r3, r3, lsr #2
    18a8:	01310100 	teqeq	r1, r0, lsl #2
    18ac:	00002505 	andeq	r2, r0, r5, lsl #10
    18b0:	00888800 	addeq	r8, r8, r0, lsl #16
    18b4:	0000bc00 	andeq	fp, r0, r0, lsl #24
    18b8:	5c9c0100 	ldfpls	f0, [ip], {0}
    18bc:	2400000c 	strcs	r0, [r0], #-12
    18c0:	00000120 	andeq	r0, r0, r0, lsr #2
    18c4:	17013101 	strne	r3, [r1, -r1, lsl #2]
    18c8:	0000002c 	andeq	r0, r0, ip, lsr #32
    18cc:	0000050f 	andeq	r0, r0, pc, lsl #10
    18d0:	0000050b 	andeq	r0, r0, fp, lsl #10
    18d4:	000a4f24 	andeq	r4, sl, r4, lsr #30
    18d8:	01310100 	teqeq	r1, r0, lsl #2
    18dc:	000c5c25 	andeq	r5, ip, r5, lsr #24
    18e0:	00053400 	andeq	r3, r5, r0, lsl #8
    18e4:	00053000 	andeq	r3, r5, r0
    18e8:	049b2400 	ldreq	r2, [fp], #1024	; 0x400
    18ec:	31010000 	mrscc	r0, (UNDEF: 1)
    18f0:	002c3601 	eoreq	r3, ip, r1, lsl #12
    18f4:	05560000 	ldrbeq	r0, [r6, #-0]
    18f8:	05520000 	ldrbeq	r0, [r2, #-0]
    18fc:	451d0000 	ldrmi	r0, [sp, #-0]
    1900:	f0000002 			; <UNDEFINED> instruction: 0xf0000002
    1904:	0500000a 	streq	r0, [r0, #-10]
    1908:	009a1403 	addseq	r1, sl, r3, lsl #8
    190c:	88a01e00 	stmiahi	r0!, {r9, sl, fp, ip}
    1910:	00800000 	addeq	r0, r0, r0
    1914:	0c320000 	ldceq	0, cr0, [r2], #-0
    1918:	69250000 	stmdbvs	r5!, {}	; <UNPREDICTABLE>
    191c:	01350100 	teqeq	r5, r0, lsl #2
    1920:	00002c0f 	andeq	r2, r0, pc, lsl #24
    1924:	00057c00 	andeq	r7, r5, r0, lsl #24
    1928:	00057400 	andeq	r7, r5, r0, lsl #8
    192c:	88bc2000 	ldmhi	ip!, {sp}
    1930:	13b50000 			; <UNDEFINED> instruction: 0x13b50000
    1934:	0bef0000 	bleq	ffbc193c <__bss_end__+0xffbb7994>
    1938:	01210000 			; <UNDEFINED> instruction: 0x01210000
    193c:	30030550 	andcc	r0, r3, r0, asr r5
    1940:	21000099 	swpcs	r0, r9, [r0]	; <UNPREDICTABLE>
    1944:	03055101 	movweq	r5, #20737	; 0x5101
    1948:	00009924 	andeq	r9, r0, r4, lsr #18
    194c:	05520121 	ldrbeq	r0, [r2, #-289]	; 0xfffffedf
    1950:	009a1403 	addseq	r1, sl, r3, lsl #8
    1954:	53012100 	movwpl	r2, #4352	; 0x1100
    1958:	01370a03 	teqeq	r7, r3, lsl #20
    195c:	88c01f00 	stmiahi	r0, {r8, r9, sl, fp, ip}^
    1960:	13c10000 	bicne	r0, r1, #0, 0
    1964:	1c200000 	stcne	0, cr0, [r0], #-0
    1968:	b5000089 	strlt	r0, [r0, #-137]	; 0xffffff77
    196c:	28000013 	stmdacs	r0, {r0, r1, r4}
    1970:	2100000c 	tstcs	r0, ip
    1974:	03055001 	movweq	r5, #20481	; 0x5001
    1978:	00009954 	andeq	r9, r0, r4, asr r9
    197c:	05510121 	ldrbeq	r0, [r1, #-289]	; 0xfffffedf
    1980:	00992403 	addseq	r2, r9, r3, lsl #8
    1984:	52012100 	andpl	r2, r1, #0
    1988:	9a140305 	bls	5025a4 <__bss_end__+0x4f85fc>
    198c:	01210000 			; <UNDEFINED> instruction: 0x01210000
    1990:	370a0353 	smlsdcc	sl, r3, r3, r0
    1994:	201f0001 	andscs	r0, pc, r1
    1998:	c1000089 	smlabbgt	r0, r9, r0, r0
    199c:	00000013 	andeq	r0, r0, r3, lsl r0
    19a0:	0088a020 	addeq	sl, r8, r0, lsr #32
    19a4:	000ec500 	andeq	ip, lr, r0, lsl #10
    19a8:	000c5200 	andeq	r5, ip, r0, lsl #4
    19ac:	50012100 	andpl	r2, r1, r0, lsl #2
    19b0:	5001f303 	andpl	pc, r1, r3, lsl #6
    19b4:	02510121 	subseq	r0, r1, #1073741832	; 0x40000008
    19b8:	01210074 			; <UNDEFINED> instruction: 0x01210074
    19bc:	00310152 	eorseq	r0, r1, r2, asr r1
    19c0:	0089241f 	addeq	r2, r9, pc, lsl r4
    19c4:	000d9d00 	andeq	r9, sp, r0, lsl #26
    19c8:	040f0000 	streq	r0, [pc], #-0	; 19d0 <__code_start__-0x6630>
    19cc:	00000054 	andeq	r0, r0, r4, asr r0
    19d0:	00023b23 	andeq	r3, r2, r3, lsr #22
    19d4:	01210100 			; <UNDEFINED> instruction: 0x01210100
    19d8:	00002505 	andeq	r2, r0, r5, lsl #10
    19dc:	0087cc00 	addeq	ip, r7, r0, lsl #24
    19e0:	0000bc00 	andeq	fp, r0, r0, lsl #24
    19e4:	889c0100 	ldmhi	ip, {r8}
    19e8:	2400000d 	strcs	r0, [r0], #-13
    19ec:	00000120 	andeq	r0, r0, r0, lsr #2
    19f0:	18012101 	stmdane	r1, {r0, r8, sp}
    19f4:	0000002c 	andeq	r0, r0, ip, lsr #32
    19f8:	000005b5 			; <UNDEFINED> instruction: 0x000005b5
    19fc:	000005b1 			; <UNDEFINED> instruction: 0x000005b1
    1a00:	000a4f24 	andeq	r4, sl, r4, lsr #30
    1a04:	01210100 			; <UNDEFINED> instruction: 0x01210100
    1a08:	000c5c26 	andeq	r5, ip, r6, lsr #24
    1a0c:	0005da00 	andeq	sp, r5, r0, lsl #20
    1a10:	0005d600 	andeq	sp, r5, r0, lsl #12
    1a14:	049b2400 	ldreq	r2, [fp], #1024	; 0x400
    1a18:	21010000 	mrscs	r0, (UNDEF: 1)
    1a1c:	002c3701 	eoreq	r3, ip, r1, lsl #14
    1a20:	05fc0000 	ldrbeq	r0, [ip, #0]!
    1a24:	05f80000 	ldrbeq	r0, [r8, #0]!
    1a28:	451d0000 	ldrmi	r0, [sp, #-0]
    1a2c:	98000002 	stmdals	r0, {r1}
    1a30:	0500000d 	streq	r0, [r0, #-13]
    1a34:	009a0803 	addseq	r0, sl, r3, lsl #16
    1a38:	87e41e00 	strbhi	r1, [r4, r0, lsl #28]!
    1a3c:	00800000 	addeq	r0, r0, r0
    1a40:	0d5e0000 	ldcleq	0, cr0, [lr, #-0]
    1a44:	69250000 	stmdbvs	r5!, {}	; <UNPREDICTABLE>
    1a48:	01240100 			; <UNDEFINED> instruction: 0x01240100
    1a4c:	00002c0f 	andeq	r2, r0, pc, lsl #24
    1a50:	00062200 	andeq	r2, r6, r0, lsl #4
    1a54:	00061a00 	andeq	r1, r6, r0, lsl #20
    1a58:	88002000 	stmdahi	r0, {sp}
    1a5c:	13b50000 			; <UNDEFINED> instruction: 0x13b50000
    1a60:	0d1b0000 	ldceq	0, cr0, [fp, #-0]
    1a64:	01210000 			; <UNDEFINED> instruction: 0x01210000
    1a68:	30030550 	andcc	r0, r3, r0, asr r5
    1a6c:	21000099 	swpcs	r0, r9, [r0]	; <UNPREDICTABLE>
    1a70:	03055101 	movweq	r5, #20737	; 0x5101
    1a74:	00009924 	andeq	r9, r0, r4, lsr #18
    1a78:	05520121 	ldrbeq	r0, [r2, #-289]	; 0xfffffedf
    1a7c:	009a0803 	addseq	r0, sl, r3, lsl #16
    1a80:	53012100 	movwpl	r2, #4352	; 0x1100
    1a84:	01260a03 			; <UNDEFINED> instruction: 0x01260a03
    1a88:	88041f00 	stmdahi	r4, {r8, r9, sl, fp, ip}
    1a8c:	13c10000 	bicne	r0, r1, #0, 0
    1a90:	60200000 	eorvs	r0, r0, r0
    1a94:	b5000088 	strlt	r0, [r0, #-136]	; 0xffffff78
    1a98:	54000013 	strpl	r0, [r0], #-19	; 0xffffffed
    1a9c:	2100000d 	tstcs	r0, sp
    1aa0:	03055001 	movweq	r5, #20481	; 0x5001
    1aa4:	00009954 	andeq	r9, r0, r4, asr r9
    1aa8:	05510121 	ldrbeq	r0, [r1, #-289]	; 0xfffffedf
    1aac:	00992403 	addseq	r2, r9, r3, lsl #8
    1ab0:	52012100 	andpl	r2, r1, #0
    1ab4:	9a080305 	bls	2026d0 <__bss_end__+0x1f8728>
    1ab8:	01210000 			; <UNDEFINED> instruction: 0x01210000
    1abc:	260a0353 			; <UNDEFINED> instruction: 0x260a0353
    1ac0:	641f0001 	ldrvs	r0, [pc], #-1	; 1ac8 <__code_start__-0x6538>
    1ac4:	c1000088 	smlabbgt	r0, r8, r0, r0
    1ac8:	00000013 	andeq	r0, r0, r3, lsl r0
    1acc:	0087e420 	addeq	lr, r7, r0, lsr #8
    1ad0:	000ec500 	andeq	ip, lr, r0, lsl #10
    1ad4:	000d7e00 	andeq	r7, sp, r0, lsl #28
    1ad8:	50012100 	andpl	r2, r1, r0, lsl #2
    1adc:	5001f303 	andpl	pc, r1, r3, lsl #6
    1ae0:	02510121 	subseq	r0, r1, #1073741832	; 0x40000008
    1ae4:	01210074 			; <UNDEFINED> instruction: 0x01210074
    1ae8:	00300152 	eorseq	r0, r0, r2, asr r1
    1aec:	0088681f 	addeq	r6, r8, pc, lsl r8
    1af0:	000d9d00 	andeq	r9, sp, r0, lsl #26
    1af4:	8f190000 	svchi	0x00190000
    1af8:	98000000 	stmdals	r0, {}	; <UNPREDICTABLE>
    1afc:	1a00000d 	bne	1b38 <__code_start__-0x64c8>
    1b00:	0000002c 	andeq	r0, r0, ip, lsr #32
    1b04:	88040009 	stmdahi	r4, {r0, r3}
    1b08:	2600000d 	strcs	r0, [r0], -sp
    1b0c:	000004e6 	andeq	r0, r0, r6, ror #9
    1b10:	0d011401 	cfstrseq	mvf1, [r1, #-4]
    1b14:	000084b0 			; <UNDEFINED> instruction: 0x000084b0
    1b18:	00000100 	andeq	r0, r0, r0, lsl #2
    1b1c:	0ec59c01 	cdpeq	12, 12, cr9, cr5, cr1, {0}
    1b20:	451d0000 	ldrmi	r0, [sp, #-0]
    1b24:	f0000002 			; <UNDEFINED> instruction: 0xf0000002
    1b28:	0500000a 	streq	r0, [r0, #-10]
    1b2c:	0099f003 	addseq	pc, r9, r3
    1b30:	84fc2000 	ldrbthi	r2, [ip], #0
    1b34:	13b50000 			; <UNDEFINED> instruction: 0x13b50000
    1b38:	0df30000 	ldcleq	0, cr0, [r3]
    1b3c:	01210000 			; <UNDEFINED> instruction: 0x01210000
    1b40:	54030550 	strpl	r0, [r3], #-1360	; 0xfffffab0
    1b44:	21000099 	swpcs	r0, r9, [r0]	; <UNPREDICTABLE>
    1b48:	03055101 	movweq	r5, #20737	; 0x5101
    1b4c:	00009924 	andeq	r9, r0, r4, lsr #18
    1b50:	05520121 	ldrbeq	r0, [r2, #-289]	; 0xfffffedf
    1b54:	0099f003 	addseq	pc, r9, r3
    1b58:	53012100 	movwpl	r2, #4352	; 0x1100
    1b5c:	01160a03 	tsteq	r6, r3, lsl #20
    1b60:	85001f00 	strhi	r1, [r0, #-3840]	; 0xfffff100
    1b64:	13c10000 	bicne	r0, r1, #0, 0
    1b68:	14200000 	strtne	r0, [r0], #-0
    1b6c:	b5000085 	strlt	r0, [r0, #-133]	; 0xffffff7b
    1b70:	2c000013 	stccs	0, cr0, [r0], {19}
    1b74:	2100000e 	tstcs	r0, lr
    1b78:	03055001 	movweq	r5, #20481	; 0x5001
    1b7c:	00009930 	andeq	r9, r0, r0, lsr r9
    1b80:	05510121 	ldrbeq	r0, [r1, #-289]	; 0xfffffedf
    1b84:	00992403 	addseq	r2, r9, r3, lsl #8
    1b88:	52012100 	andpl	r2, r1, #0
    1b8c:	99f00305 	ldmibls	r0!, {r0, r2, r8, r9}^
    1b90:	01210000 			; <UNDEFINED> instruction: 0x01210000
    1b94:	160a0353 			; <UNDEFINED> instruction: 0x160a0353
    1b98:	181f0001 	ldmdane	pc, {r0}	; <UNPREDICTABLE>
    1b9c:	c1000085 	smlabbgt	r0, r5, r0, r0
    1ba0:	1f000013 	svcne	0x00000013
    1ba4:	0000853c 	andeq	r8, r0, ip, lsr r5
    1ba8:	00001391 	muleq	r0, r1, r3
    1bac:	00856020 	addeq	r6, r5, r0, lsr #32
    1bb0:	0013b500 	andseq	fp, r3, r0, lsl #10
    1bb4:	000e7800 	andeq	r7, lr, r0, lsl #16
    1bb8:	50012100 	andpl	r2, r1, r0, lsl #2
    1bbc:	98500305 	ldmdals	r0, {r0, r2, r8, r9}^
    1bc0:	01210000 			; <UNDEFINED> instruction: 0x01210000
    1bc4:	24030551 	strcs	r0, [r3], #-1361	; 0xfffffaaf
    1bc8:	21000099 	swpcs	r0, r9, [r0]	; <UNPREDICTABLE>
    1bcc:	03055201 	movweq	r5, #20993	; 0x5201
    1bd0:	000099f0 	strdeq	r9, [r0], -r0
    1bd4:	03530121 	cmpeq	r3, #1073741832	; 0x40000008
    1bd8:	2101190a 	tstcs	r1, sl, lsl #18
    1bdc:	05007d02 	streq	r7, [r0, #-3330]	; 0xfffff2fe
    1be0:	00998403 	addseq	r8, r9, r3, lsl #8
    1be4:	641f0000 	ldrvs	r0, [pc], #-0	; 1bec <__code_start__-0x6414>
    1be8:	c1000085 	smlabbgt	r0, r5, r0, r0
    1bec:	20000013 	andcs	r0, r0, r3, lsl r0
    1bf0:	00008580 	andeq	r8, r0, r0, lsl #11
    1bf4:	000013b5 			; <UNDEFINED> instruction: 0x000013b5
    1bf8:	00000ebb 			; <UNDEFINED> instruction: 0x00000ebb
    1bfc:	05500121 	ldrbeq	r0, [r0, #-289]	; 0xfffffedf
    1c00:	00985003 	addseq	r5, r8, r3
    1c04:	51012100 	mrspl	r2, (UNDEF: 17)
    1c08:	99240305 	stmdbls	r4!, {r0, r2, r8, r9}
    1c0c:	01210000 			; <UNDEFINED> instruction: 0x01210000
    1c10:	f0030552 			; <UNDEFINED> instruction: 0xf0030552
    1c14:	21000099 	swpcs	r0, r9, [r0]	; <UNPREDICTABLE>
    1c18:	0a035301 	beq	d6824 <__bss_end__+0xcc87c>
    1c1c:	0221011b 	eoreq	r0, r1, #-1073741818	; 0xc0000006
    1c20:	0305007d 	movweq	r0, #20605	; 0x507d
    1c24:	00009998 	muleq	r0, r8, r9
    1c28:	85841f00 	strhi	r1, [r4, #3840]	; 0xf00
    1c2c:	13c10000 	bicne	r0, r1, #0, 0
    1c30:	27000000 	strcs	r0, [r0, -r0]
    1c34:	000004c3 	andeq	r0, r0, r3, asr #9
    1c38:	f80df201 			; <UNDEFINED> instruction: 0xf80df201
    1c3c:	d4000085 	strle	r0, [r0], #-133	; 0xffffff7b
    1c40:	01000001 	tsteq	r0, r1
    1c44:	0011969c 	mulseq	r1, ip, r6
    1c48:	01202800 			; <UNDEFINED> instruction: 0x01202800
    1c4c:	f2010000 	vhadd.s8	d0, d1, d0
    1c50:	00002c21 	andeq	r2, r0, r1, lsr #24
    1c54:	00065d00 	andeq	r5, r6, r0, lsl #26
    1c58:	00065700 	andeq	r5, r6, r0, lsl #14
    1c5c:	049b2800 	ldreq	r2, [fp], #2048	; 0x800
    1c60:	f2010000 	vhadd.s8	d0, d1, d0
    1c64:	00002c30 	andeq	r2, r0, r0, lsr ip
    1c68:	00069300 	andeq	r9, r6, r0, lsl #6
    1c6c:	00068900 	andeq	r8, r6, r0, lsl #18
    1c70:	04bc2800 	ldrteq	r2, [ip], #2048	; 0x800
    1c74:	f2010000 	vhadd.s8	d0, d1, d0
    1c78:	0000253c 	andeq	r2, r0, ip, lsr r5
    1c7c:	0006de00 	andeq	sp, r6, r0, lsl #28
    1c80:	0006d800 	andeq	sp, r6, r0, lsl #16
    1c84:	02451d00 	subeq	r1, r5, #0, 26
    1c88:	11a60000 			; <UNDEFINED> instruction: 0x11a60000
    1c8c:	03050000 	movweq	r0, #20480	; 0x5000
    1c90:	000099fc 	strdeq	r9, [r0], -ip
    1c94:	01006325 	tsteq	r0, r5, lsr #6
    1c98:	8c0d0105 	stfhis	f0, [sp], {5}
    1c9c:	0c000001 	stceq	0, cr0, [r0], {1}
    1ca0:	0a000007 	beq	1cc4 <__code_start__-0x633c>
    1ca4:	1e000007 	cdpne	0, 0, cr0, cr0, cr7, {0}
    1ca8:	000086c4 	andeq	r8, r0, r4, asr #13
    1cac:	00000000 	andeq	r0, r0, r0
    1cb0:	00000f78 	andeq	r0, r0, r8, ror pc
    1cb4:	00755f14 	rsbseq	r5, r5, r4, lsl pc
    1cb8:	01090104 	tsteq	r9, r4, lsl #2
    1cbc:	000f6c02 	andeq	r6, pc, r2, lsl #24
    1cc0:	76761500 	ldrbtvc	r1, [r6], -r0, lsl #10
    1cc4:	01090100 	mrseq	r0, (UNDEF: 25)
    1cc8:	00018c02 	andeq	r8, r1, r2, lsl #24
    1ccc:	75751500 	ldrbvc	r1, [r5, #-1280]!	; 0xfffffb00
    1cd0:	01090100 	mrseq	r0, (UNDEF: 25)
    1cd4:	00006e02 	andeq	r6, r0, r2, lsl #28
    1cd8:	75160000 	ldrvc	r0, [r6, #-0]
    1cdc:	01090100 	mrseq	r0, (UNDEF: 25)
    1ce0:	000f4602 	andeq	r4, pc, r2, lsl #12
    1ce4:	101f0000 	andsne	r0, pc, r0
    1ce8:	91000086 	smlabbls	r0, r6, r0, r0
    1cec:	20000013 	andcs	r0, r0, r3, lsl r0
    1cf0:	00008654 	andeq	r8, r0, r4, asr r6
    1cf4:	000013b5 			; <UNDEFINED> instruction: 0x000013b5
    1cf8:	00000fb0 			; <UNDEFINED> instruction: 0x00000fb0
    1cfc:	05500121 	ldrbeq	r0, [r0, #-289]	; 0xfffffedf
    1d00:	00995403 	addseq	r5, r9, r3, lsl #8
    1d04:	51012100 	mrspl	r2, (UNDEF: 17)
    1d08:	99240305 	stmdbls	r4!, {r0, r2, r8, r9}
    1d0c:	01210000 			; <UNDEFINED> instruction: 0x01210000
    1d10:	fc030552 	stc2	5, cr0, [r3], {82}	; 0x52
    1d14:	21000099 	swpcs	r0, r9, [r0]	; <UNPREDICTABLE>
    1d18:	08025301 	stmdaeq	r2, {r0, r8, r9, ip, lr}
    1d1c:	581f00f6 	ldmdapl	pc, {r1, r2, r4, r5, r6, r7}	; <UNPREDICTABLE>
    1d20:	c1000086 	smlabbgt	r0, r6, r0, r0
    1d24:	20000013 	andcs	r0, r0, r3, lsl r0
    1d28:	0000866c 	andeq	r8, r0, ip, ror #12
    1d2c:	000013b5 			; <UNDEFINED> instruction: 0x000013b5
    1d30:	00000fe8 	andeq	r0, r0, r8, ror #31
    1d34:	05500121 	ldrbeq	r0, [r0, #-289]	; 0xfffffedf
    1d38:	00993003 	addseq	r3, r9, r3
    1d3c:	51012100 	mrspl	r2, (UNDEF: 17)
    1d40:	99240305 	stmdbls	r4!, {r0, r2, r8, r9}
    1d44:	01210000 			; <UNDEFINED> instruction: 0x01210000
    1d48:	fc030552 	stc2	5, cr0, [r3], {82}	; 0x52
    1d4c:	21000099 	swpcs	r0, r9, [r0]	; <UNPREDICTABLE>
    1d50:	08025301 	stmdaeq	r2, {r0, r8, r9, ip, lr}
    1d54:	701f00f6 	ldrshvc	r0, [pc], -r6
    1d58:	c1000086 	smlabbgt	r0, r6, r0, r0
    1d5c:	1f000013 	svcne	0x00000013
    1d60:	00008684 	andeq	r8, r0, r4, lsl #13
    1d64:	000011ab 	andeq	r1, r0, fp, lsr #3
    1d68:	00869820 	addeq	r9, r6, r0, lsr #16
    1d6c:	0013a900 	andseq	sl, r3, r0, lsl #18
    1d70:	00101700 	andseq	r1, r0, r0, lsl #14
    1d74:	50012100 	andpl	r2, r1, r0, lsl #2
    1d78:	400c0c05 	andmi	r0, ip, r5, lsl #24
    1d7c:	01212080 	smlawbeq	r1, r0, r0, r2
    1d80:	00760251 	rsbseq	r0, r6, r1, asr r2
    1d84:	86ac2000 	strthi	r2, [ip], r0
    1d88:	13a90000 			; <UNDEFINED> instruction: 0x13a90000
    1d8c:	10340000 	eorsne	r0, r4, r0
    1d90:	01210000 			; <UNDEFINED> instruction: 0x01210000
    1d94:	080c0550 	stmdaeq	ip, {r4, r6, r8, sl}
    1d98:	21208040 			; <UNDEFINED> instruction: 0x21208040
    1d9c:	75025101 	strvc	r5, [r2, #-257]	; 0xfffffeff
    1da0:	b8200000 	stmdalt	r0!, {}	; <UNPREDICTABLE>
    1da4:	de000086 	cdple	0, 0, cr0, cr0, cr6, {4}
    1da8:	48000012 	stmdami	r0, {r1, r4}
    1dac:	21000010 	tstcs	r0, r0, lsl r0
    1db0:	75025001 	strvc	r5, [r2, #-1]
    1db4:	d0200000 	eorle	r0, r0, r0
    1db8:	a9000086 	stmdbge	r0, {r1, r2, r7}
    1dbc:	5c000013 	stcpl	0, cr0, [r0], {19}
    1dc0:	21000010 	tstcs	r0, r0, lsl r0
    1dc4:	75025001 	strvc	r5, [r2, #-1]
    1dc8:	14200000 	strtne	r0, [r0], #-0
    1dcc:	b5000087 	strlt	r0, [r0, #-135]	; 0xffffff79
    1dd0:	8c000013 	stchi	0, cr0, [r0], {19}
    1dd4:	21000010 	tstcs	r0, r0, lsl r0
    1dd8:	03055001 	movweq	r5, #20481	; 0x5001
    1ddc:	00009954 	andeq	r9, r0, r4, asr r9
    1de0:	05510121 	ldrbeq	r0, [r1, #-289]	; 0xfffffedf
    1de4:	00992403 	addseq	r2, r9, r3, lsl #8
    1de8:	52012100 	andpl	r2, r1, #0
    1dec:	99fc0305 	ldmibls	ip!, {r0, r2, r8, r9}^
    1df0:	01210000 			; <UNDEFINED> instruction: 0x01210000
    1df4:	110a0353 	tstne	sl, r3, asr r3
    1df8:	181f0001 	ldmdane	pc, {r0}	; <UNPREDICTABLE>
    1dfc:	c1000087 	smlabbgt	r0, r7, r0, r0
    1e00:	20000013 	andcs	r0, r0, r3, lsl r0
    1e04:	00008734 	andeq	r8, r0, r4, lsr r7
    1e08:	000013b5 			; <UNDEFINED> instruction: 0x000013b5
    1e0c:	000010ce 	andeq	r1, r0, lr, asr #1
    1e10:	05500121 	ldrbeq	r0, [r0, #-289]	; 0xfffffedf
    1e14:	00985003 	addseq	r5, r8, r3
    1e18:	51012100 	mrspl	r2, (UNDEF: 17)
    1e1c:	99240305 	stmdbls	r4!, {r0, r2, r8, r9}
    1e20:	01210000 			; <UNDEFINED> instruction: 0x01210000
    1e24:	fc030552 	stc2	5, cr0, [r3], {82}	; 0x52
    1e28:	21000099 	swpcs	r0, r9, [r0]	; <UNPREDICTABLE>
    1e2c:	08025301 	stmdaeq	r2, {r0, r8, r9, ip, lr}
    1e30:	7d0221f9 	stfvcs	f2, [r2, #-996]	; 0xfffffc1c
    1e34:	ac030500 	cfstr32ge	mvfx0, [r3], {-0}
    1e38:	00000099 	muleq	r0, r9, r0
    1e3c:	0087381f 	addeq	r3, r7, pc, lsl r8
    1e40:	0013c100 	andseq	ip, r3, r0, lsl #2
    1e44:	87542000 	ldrbhi	r2, [r4, -r0]
    1e48:	13b50000 			; <UNDEFINED> instruction: 0x13b50000
    1e4c:	11100000 	tstne	r0, r0
    1e50:	01210000 			; <UNDEFINED> instruction: 0x01210000
    1e54:	50030550 	andpl	r0, r3, r0, asr r5
    1e58:	21000098 	swpcs	r0, r8, [r0]	; <UNPREDICTABLE>
    1e5c:	03055101 	movweq	r5, #20737	; 0x5101
    1e60:	00009924 	andeq	r9, r0, r4, lsr #18
    1e64:	05520121 	ldrbeq	r0, [r2, #-289]	; 0xfffffedf
    1e68:	0099fc03 	addseq	pc, r9, r3, lsl #24
    1e6c:	53012100 	movwpl	r2, #4352	; 0x1100
    1e70:	21fe0802 	mvnscs	r0, r2, lsl #16
    1e74:	05007d02 	streq	r7, [r0, #-3330]	; 0xfffff2fe
    1e78:	0099c403 	addseq	ip, r9, r3, lsl #8
    1e7c:	581f0000 	ldmdapl	pc, {}	; <UNPREDICTABLE>
    1e80:	c1000087 	smlabbgt	r0, r7, r0, r0
    1e84:	20000013 	andcs	r0, r0, r3, lsl r0
    1e88:	00008774 	andeq	r8, r0, r4, ror r7
    1e8c:	000013b5 			; <UNDEFINED> instruction: 0x000013b5
    1e90:	00001153 	andeq	r1, r0, r3, asr r1
    1e94:	05500121 	ldrbeq	r0, [r0, #-289]	; 0xfffffedf
    1e98:	00985003 	addseq	r5, r8, r3
    1e9c:	51012100 	mrspl	r2, (UNDEF: 17)
    1ea0:	99240305 	stmdbls	r4!, {r0, r2, r8, r9}
    1ea4:	01210000 			; <UNDEFINED> instruction: 0x01210000
    1ea8:	fc030552 	stc2	5, cr0, [r3], {82}	; 0x52
    1eac:	21000099 	swpcs	r0, r9, [r0]	; <UNPREDICTABLE>
    1eb0:	0a035301 	beq	d6abc <__bss_end__+0xccb14>
    1eb4:	02210102 	eoreq	r0, r1, #-2147483648	; 0x80000000
    1eb8:	0305007d 	movweq	r0, #20605	; 0x507d
    1ebc:	000099d8 	ldrdeq	r9, [r0], -r8
    1ec0:	87781f00 	ldrbhi	r1, [r8, -r0, lsl #30]!
    1ec4:	13c10000 	bicne	r0, r1, #0, 0
    1ec8:	8c200000 	stchi	0, cr0, [r0], #-0
    1ecc:	b5000087 	strlt	r0, [r0, #-135]	; 0xffffff79
    1ed0:	8c000013 	stchi	0, cr0, [r0], {19}
    1ed4:	21000011 	tstcs	r0, r1, lsl r0
    1ed8:	03055001 	movweq	r5, #20481	; 0x5001
    1edc:	00009930 	andeq	r9, r0, r0, lsr r9
    1ee0:	05510121 	ldrbeq	r0, [r1, #-289]	; 0xfffffedf
    1ee4:	00992403 	addseq	r2, r9, r3, lsl #8
    1ee8:	52012100 	andpl	r2, r1, #0
    1eec:	99fc0305 	ldmibls	ip!, {r0, r2, r8, r9}^
    1ef0:	01210000 			; <UNDEFINED> instruction: 0x01210000
    1ef4:	110a0353 	tstne	sl, r3, asr r3
    1ef8:	901f0001 	andsls	r0, pc, r1
    1efc:	c1000087 	smlabbgt	r0, r7, r0, r0
    1f00:	00000013 	andeq	r0, r0, r3, lsl r0
    1f04:	00008f19 	andeq	r8, r0, r9, lsl pc
    1f08:	0011a600 	andseq	sl, r1, r0, lsl #12
    1f0c:	002c1a00 	eoreq	r1, ip, r0, lsl #20
    1f10:	000a0000 	andeq	r0, sl, r0
    1f14:	00119604 	andseq	r9, r1, r4, lsl #12
    1f18:	052c2700 	streq	r2, [ip, #-1792]!	; 0xfffff900
    1f1c:	e7010000 	str	r0, [r1, -r0]
    1f20:	0085c00d 	addeq	ip, r5, sp
    1f24:	00002800 	andeq	r2, r0, r0, lsl #16
    1f28:	2b9c0100 	blcs	fe702330 <__bss_end__+0xfe6f8388>
    1f2c:	0e000012 	mcreq	0, 0, r0, cr0, cr2, {0}
    1f30:	e8010073 	stmda	r1, {r0, r1, r4, r5, r6}
    1f34:	0002560d 	andeq	r5, r2, sp, lsl #12
    1f38:	85d01e00 	ldrbhi	r1, [r0, #3584]	; 0xe00
    1f3c:	00000000 	andeq	r0, r0, r0
    1f40:	12060000 	andne	r0, r6, #0, 0
    1f44:	5f290000 	svcpl	0x00290000
    1f48:	01040075 	tsteq	r4, r5, ror r0
    1f4c:	11fb02ef 	mvnsne	r0, pc, ror #5
    1f50:	762a0000 	strtvc	r0, [sl], -r0
    1f54:	ef010076 	svc	0x00010076
    1f58:	00025602 	andeq	r5, r2, r2, lsl #12
    1f5c:	75752a00 	ldrbvc	r2, [r5, #-2560]!	; 0xfffff600
    1f60:	02ef0100 	rsceq	r0, pc, #0
    1f64:	0000006e 	andeq	r0, r0, lr, rrx
    1f68:	00750e00 	rsbseq	r0, r5, r0, lsl #28
    1f6c:	d802ef01 	stmdale	r2, {r0, r8, r9, sl, fp, sp, lr, pc}
    1f70:	00000011 	andeq	r0, r0, r1, lsl r0
    1f74:	0085d020 	addeq	sp, r5, r0, lsr #32
    1f78:	00122b00 	andseq	r2, r2, r0, lsl #22
    1f7c:	00121a00 	andseq	r1, r2, r0, lsl #20
    1f80:	50012100 	andpl	r2, r1, r0, lsl #2
    1f84:	00007402 	andeq	r7, r0, r2, lsl #8
    1f88:	0085e02b 	addeq	lr, r5, fp, lsr #32
    1f8c:	0013a900 	andseq	sl, r3, r0, lsl #18
    1f90:	50012100 	andpl	r2, r1, r0, lsl #2
    1f94:	00007402 	andeq	r7, r0, r2, lsl #8
    1f98:	04a22c00 	strteq	r2, [r2], #3072	; 0xc00
    1f9c:	b8010000 	stmdalt	r1, {}	; <UNPREDICTABLE>
    1fa0:	00025613 	andeq	r5, r2, r3, lsl r6
    1fa4:	0085b000 	addeq	fp, r5, r0
    1fa8:	00001000 	andeq	r1, r0, r0
    1fac:	ab9c0100 	blge	fe7023b4 <__bss_end__+0xfe6f840c>
    1fb0:	2d000012 	stccs	0, cr0, [r0, #-72]	; 0xffffffb8
    1fb4:	b8010073 	stmdalt	r1, {r0, r1, r4, r5, r6}
    1fb8:	0012ab2f 	andseq	sl, r2, pc, lsr #22
    1fbc:	00072300 	andeq	r2, r7, r0, lsl #6
    1fc0:	00071f00 	andeq	r1, r7, r0, lsl #30
    1fc4:	85b41e00 	ldrhi	r1, [r4, #3584]!	; 0xe00
    1fc8:	00040000 	andeq	r0, r4, r0
    1fcc:	12a10000 	adcne	r0, r1, #0, 0
    1fd0:	5f290000 	svcpl	0x00290000
    1fd4:	01040075 	tsteq	r4, r5, ror r0
    1fd8:	128511b9 	addne	r1, r5, #1073741870	; 0x4000002e
    1fdc:	762a0000 	strtvc	r0, [sl], -r0
    1fe0:	11b90100 			; <UNDEFINED> instruction: 0x11b90100
    1fe4:	00000262 	andeq	r0, r0, r2, ror #4
    1fe8:	0100752a 	tsteq	r0, sl, lsr #10
    1fec:	002c11b9 	strhteq	r1, [ip], -r9
    1ff0:	0e000000 	cdpeq	0, 0, cr0, cr0, cr0, {0}
    1ff4:	b9010075 	stmdblt	r1, {r0, r2, r4, r5, r6}
    1ff8:	00126411 	andseq	r6, r2, r1, lsl r4
    1ffc:	85b82b00 	ldrhi	r2, [r8, #2816]!	; 0xb00
    2000:	13cd0000 	bicne	r0, sp, #0, 0
    2004:	01210000 			; <UNDEFINED> instruction: 0x01210000
    2008:	01f30350 	mvnseq	r0, r0, asr r3
    200c:	1f000050 	svcne	0x00000050
    2010:	000085bc 			; <UNDEFINED> instruction: 0x000085bc
    2014:	000012b1 			; <UNDEFINED> instruction: 0x000012b1
    2018:	62040f00 	andvs	r0, r4, #0, 30
    201c:	2c000002 	stccs	0, cr0, [r0], {2}
    2020:	000003a5 	andeq	r0, r0, r5, lsr #7
    2024:	5613b401 	ldrpl	fp, [r3], -r1, lsl #8
    2028:	a4000002 	strge	r0, [r0], #-2
    202c:	0c000084 	stceq	0, cr0, [r0], {132}	; 0x84
    2030:	01000000 	mrseq	r0, (UNDEF: 0)
    2034:	0012de9c 	mulseq	r2, ip, lr
    2038:	00732d00 	rsbseq	r2, r3, r0, lsl #26
    203c:	5626b401 	strtpl	fp, [r6], -r1, lsl #8
    2040:	46000002 	strmi	r0, [r0], -r2
    2044:	44000007 	strmi	r0, [r0], #-7
    2048:	00000007 	andeq	r0, r0, r7
    204c:	0004ef2c 	andeq	lr, r4, ip, lsr #30
    2050:	137e0100 	cmnne	lr, #0
    2054:	0000018c 	andeq	r0, r0, ip, lsl #3
    2058:	000085e8 	andeq	r8, r0, r8, ror #11
    205c:	00000010 	andeq	r0, r0, r0, lsl r0
    2060:	135e9c01 	cmpne	lr, #256	; 0x100
    2064:	632d0000 			; <UNDEFINED> instruction: 0x632d0000
    2068:	2f7e0100 	svccs	0x007e0100
    206c:	0000135e 	andeq	r1, r0, lr, asr r3
    2070:	0000075d 	andeq	r0, r0, sp, asr r7
    2074:	00000759 	andeq	r0, r0, r9, asr r7
    2078:	0085ec1e 	addeq	lr, r5, lr, lsl ip
    207c:	00000400 	andeq	r0, r0, r0, lsl #8
    2080:	00135400 	andseq	r5, r3, r0, lsl #8
    2084:	755f2900 	ldrbvc	r2, [pc, #-2304]	; 178c <__code_start__-0x6874>
    2088:	7f010400 	svcvc	0x00010400
    208c:	00133811 	andseq	r3, r3, r1, lsl r8
    2090:	00762a00 	rsbseq	r2, r6, r0, lsl #20
    2094:	98117f01 	ldmdals	r1, {r0, r8, r9, sl, fp, ip, sp, lr}
    2098:	2a000001 	bcs	20a4 <__code_start__-0x5f5c>
    209c:	7f010075 	svcvc	0x00010075
    20a0:	00002c11 	andeq	r2, r0, r1, lsl ip
    20a4:	750e0000 	strvc	r0, [lr, #-0]
    20a8:	117f0100 	cmnne	pc, r0, lsl #2
    20ac:	00001317 	andeq	r1, r0, r7, lsl r3
    20b0:	0085f02b 	addeq	pc, r5, fp, lsr #32
    20b4:	0013cd00 	andseq	ip, r3, r0, lsl #26
    20b8:	50012100 	andpl	r2, r1, r0, lsl #2
    20bc:	5001f303 	andpl	pc, r1, r3, lsl #6
    20c0:	f41f0000 			; <UNDEFINED> instruction: 0xf41f0000
    20c4:	64000085 	strvs	r0, [r0], #-133	; 0xffffff7b
    20c8:	00000013 	andeq	r0, r0, r3, lsl r0
    20cc:	0198040f 	orrseq	r0, r8, pc, lsl #8
    20d0:	8c2c0000 	stchi	0, cr0, [ip], #-0
    20d4:	01000003 	tsteq	r0, r3
    20d8:	018c1377 	orreq	r1, ip, r7, ror r3
    20dc:	84940000 	ldrhi	r0, [r4], #0
    20e0:	00100000 	andseq	r0, r0, r0
    20e4:	9c010000 	stcls	0, cr0, [r1], {-0}
    20e8:	00001391 	muleq	r0, r1, r3
    20ec:	0100632d 	tsteq	r0, sp, lsr #6
    20f0:	018c2677 	orreq	r2, ip, r7, ror r6
    20f4:	07820000 	streq	r0, [r2, r0]
    20f8:	077e0000 	ldrbeq	r0, [lr, -r0]!
    20fc:	2e000000 	cdpcs	0, 0, cr0, cr0, cr0, {0}
    2100:	0000047b 	andeq	r0, r0, fp, ror r4
    2104:	0000047b 	andeq	r0, r0, fp, ror r4
    2108:	2e069303 	cdpcs	3, 0, cr9, cr6, cr3, {0}
    210c:	000004d4 	ldrdeq	r0, [r0], -r4
    2110:	000004d4 	ldrdeq	r0, [r0], -r4
    2114:	2e061904 	vmlacs.f16	s2, s12, s8	; <UNPREDICTABLE>
    2118:	00000417 	andeq	r0, r0, r7, lsl r4
    211c:	00000417 	andeq	r0, r0, r7, lsl r4
    2120:	2e06a503 	cfsh32cs	mvfx10, mvfx6, #3
    2124:	00000617 	andeq	r0, r0, r7, lsl r6
    2128:	00000617 	andeq	r0, r0, r7, lsl r6
    212c:	2e062803 	cdpcs	8, 0, cr2, cr6, cr3, {0}
    2130:	0000009a 	muleq	r0, sl, r0
    2134:	0000009a 	muleq	r0, sl, r0
    2138:	2e066703 	cdpcs	7, 0, cr6, cr6, cr3, {0}
    213c:	00000487 	andeq	r0, r0, r7, lsl #9
    2140:	00000487 	andeq	r0, r0, r7, lsl #9
    2144:	000bb103 	andeq	fp, fp, r3, lsl #2
    2148:	0000019d 	muleq	r0, sp, r1
    214c:	05e50004 	strbeq	r0, [r5, #4]!
    2150:	01040000 	mrseq	r0, (UNDEF: 4)
    2154:	00000545 	andeq	r0, r0, r5, asr #10
    2158:	0006760c 	andeq	r7, r6, ip, lsl #12
    215c:	00063200 	andeq	r3, r6, r0, lsl #4
    2160:	008a0c00 	addeq	r0, sl, r0, lsl #24
    2164:	00005800 	andeq	r5, r0, r0, lsl #16
    2168:	000b6e00 	andeq	r6, fp, r0, lsl #28
    216c:	061e0200 	ldreq	r0, [lr], -r0, lsl #4
    2170:	28020000 	stmdacs	r2, {}	; <UNPREDICTABLE>
    2174:	0000311b 	andeq	r3, r0, fp, lsl r1
    2178:	06860300 	streq	r0, [r6], r0, lsl #6
    217c:	04040000 	streq	r0, [r4], #-0
    2180:	00004800 	andeq	r4, r0, r0, lsl #16
    2184:	062d0400 	strteq	r0, [sp], -r0, lsl #8
    2188:	00480000 	subeq	r0, r8, r0
    218c:	00000000 	andeq	r0, r0, r0
    2190:	88020405 	stmdahi	r2, {r0, r2, sl}
    2194:	02000006 	andeq	r0, r0, #6, 0
    2198:	00251863 	eoreq	r1, r5, r3, ror #16
    219c:	04060000 	streq	r0, [r6], #-0
    21a0:	746e6905 	strbtvc	r6, [lr], #-2309	; 0xfffff6fb
    21a4:	07040700 	streq	r0, [r4, -r0, lsl #14]
    21a8:	000000eb 	andeq	r0, r0, fp, ror #1
    21ac:	85060107 	strhi	r0, [r6, #-263]	; 0xfffffef9
    21b0:	07000000 	streq	r0, [r0, -r0]
    21b4:	01120502 	tsteq	r2, r2, lsl #10
    21b8:	04070000 	streq	r0, [r7], #-0
    21bc:	0000fd05 	andeq	pc, r0, r5, lsl #26
    21c0:	05080700 	streq	r0, [r8, #-1792]	; 0xfffff900
    21c4:	000000f8 	strdeq	r0, [r0], -r8
    21c8:	83080107 	movwhi	r0, #33031	; 0x8107
    21cc:	07000000 	streq	r0, [r0, -r0]
    21d0:	00a70702 	adceq	r0, r7, r2, lsl #14
    21d4:	04070000 	streq	r0, [r7], #-0
    21d8:	0000e607 	andeq	lr, r0, r7, lsl #12
    21dc:	07080700 	streq	r0, [r8, -r0, lsl #14]
    21e0:	000000e1 	andeq	r0, r0, r1, ror #1
    21e4:	00005608 	andeq	r5, r0, r8, lsl #12
    21e8:	0000ab00 	andeq	sl, r0, r0, lsl #22
    21ec:	00560900 	subseq	r0, r6, r0, lsl #18
    21f0:	0a000000 	beq	21f8 <__code_start__-0x5e08>
    21f4:	00000106 	andeq	r0, r0, r6, lsl #2
    21f8:	b70e1c03 	strlt	r1, [lr, -r3, lsl #24]
    21fc:	0b000000 	bleq	2204 <__code_start__-0x5dfc>
    2200:	00009c04 	andeq	r9, r0, r4, lsl #24
    2204:	00560800 	subseq	r0, r6, r0, lsl #16
    2208:	00cc0000 	sbceq	r0, ip, r0
    220c:	cc090000 	stcgt	0, cr0, [r9], {-0}
    2210:	00000000 	andeq	r0, r0, r0
    2214:	00d9040b 	sbcseq	r0, r9, fp, lsl #8
    2218:	01070000 	mrseq	r0, (UNDEF: 7)
    221c:	00008c08 	andeq	r8, r0, r8, lsl #24
    2220:	00d20c00 	sbcseq	r0, r2, r0, lsl #24
    2224:	990a0000 	stmdbls	sl, {}	; <UNPREDICTABLE>
    2228:	03000006 	movweq	r0, #6
    222c:	00ea0e21 	rsceq	r0, sl, r1, lsr #28
    2230:	040b0000 	streq	r0, [fp], #-0
    2234:	000000bd 	strheq	r0, [r0], -sp
    2238:	0006170d 	andeq	r1, r6, sp, lsl #14
    223c:	05060100 	streq	r0, [r6, #-256]	; 0xffffff00
    2240:	00000056 	andeq	r0, r0, r6, asr r0
    2244:	00008a0c 	andeq	r8, r0, ip, lsl #20
    2248:	00000058 	andeq	r0, r0, r8, asr r0
    224c:	01839c01 	orreq	r9, r3, r1, lsl #24
    2250:	660e0000 	strvs	r0, [lr], -r0
    2254:	0100746d 	tsteq	r0, sp, ror #8
    2258:	00cc1806 	sbceq	r1, ip, r6, lsl #16
    225c:	91020000 	mrsls	r0, (UNDEF: 2)
    2260:	62100f70 	andsvs	r0, r0, #112, 30	; 0x1c0
    2264:	01006675 	tsteq	r0, r5, ror r6
    2268:	01831108 	orreq	r1, r3, r8, lsl #2
    226c:	03050000 	movweq	r0, #20480	; 0x5000
    2270:	00009ba8 	andeq	r9, r0, r8, lsr #23
    2274:	00060f11 	andeq	r0, r6, r1, lsl pc
    2278:	0d090100 	stfeqs	f0, [r9, #-0]
    227c:	0000004a 	andeq	r0, r0, sl, asr #32
    2280:	125c9102 	subsne	r9, ip, #-2147483648	; 0x80000000
    2284:	01007a73 	tsteq	r0, r3, ror sl
    2288:	00560d0c 	subseq	r0, r6, ip, lsl #26
    228c:	07a60000 	streq	r0, [r6, r0]!
    2290:	07a00000 	streq	r0, [r0, r0]!
    2294:	34130000 	ldrcc	r0, [r3], #-0
    2298:	9400008a 	strls	r0, [r0], #-138	; 0xffffff76
    229c:	76000001 	strvc	r0, [r0], -r1
    22a0:	14000001 	strne	r0, [r0], #-1
    22a4:	75025001 	strvc	r5, [r2, #-1]
    22a8:	51011400 	tstpl	r1, r0, lsl #8
    22ac:	04000a03 	streq	r0, [r0], #-2563	; 0xfffff5fd
    22b0:	03520114 	cmpeq	r2, #5
    22b4:	14064891 	strne	r4, [r6], #-2193	; 0xfffff76f
    22b8:	91025301 	tstls	r2, r1, lsl #6
    22bc:	4815004c 	ldmdami	r5, {r2, r3, r6}
    22c0:	1400008a 	strne	r0, [r0], #-138	; 0xffffff76
    22c4:	75025001 	strvc	r5, [r2, #-1]
    22c8:	16000000 	strne	r0, [r0], -r0
    22cc:	000000d2 	ldrdeq	r0, [r0], -r2
    22d0:	00000194 	muleq	r0, r4, r1
    22d4:	00005d17 	andeq	r5, r0, r7, lsl sp
    22d8:	0003ff00 	andeq	pc, r3, r0, lsl #30
    22dc:	00061418 	andeq	r1, r6, r8, lsl r4
    22e0:	00061400 	andeq	r1, r6, r0, lsl #8
    22e4:	05020500 	streq	r0, [r2, #-1280]	; 0xfffffb00
    22e8:	0000f300 	andeq	pc, r0, r0, lsl #6
    22ec:	27000400 	strcs	r0, [r0, -r0, lsl #8]
    22f0:	04000007 	streq	r0, [r0], #-7
    22f4:	00054501 	andeq	r4, r5, r1, lsl #10
    22f8:	069e0c00 	ldreq	r0, [lr], r0, lsl #24
    22fc:	06320000 	ldrteq	r0, [r2], -r0
    2300:	8a640000 	bhi	1902308 <__bss_end__+0x18f8360>
    2304:	00340000 	eorseq	r0, r4, r0
    2308:	0ca10000 	stceq	0, cr0, [r1]
    230c:	04020000 	streq	r0, [r2], #-0
    2310:	746e6905 	strbtvc	r6, [lr], #-2309	; 0xfffff6fb
    2314:	07040300 	streq	r0, [r4, -r0, lsl #6]
    2318:	000000eb 	andeq	r0, r0, fp, ror #1
    231c:	85060103 	strhi	r0, [r6, #-259]	; 0xfffffefd
    2320:	03000000 	movweq	r0, #0
    2324:	01120502 	tsteq	r2, r2, lsl #10
    2328:	04030000 	streq	r0, [r3], #-0
    232c:	0000fd05 	andeq	pc, r0, r5, lsl #26
    2330:	05080300 	streq	r0, [r8, #-768]	; 0xfffffd00
    2334:	000000f8 	strdeq	r0, [r0], -r8
    2338:	83080103 	movwhi	r0, #33027	; 0x8103
    233c:	03000000 	movweq	r0, #0
    2340:	00a70702 	adceq	r0, r7, r2, lsl #14
    2344:	04030000 	streq	r0, [r3], #-0
    2348:	0000e607 	andeq	lr, r0, r7, lsl #12
    234c:	07080300 	streq	r0, [r8, -r0, lsl #6]
    2350:	000000e1 	andeq	r0, r0, r1, ror #1
    2354:	00002504 	andeq	r2, r0, r4, lsl #10
    2358:	00007a00 	andeq	r7, r0, r0, lsl #20
    235c:	00250500 	eoreq	r0, r5, r0, lsl #10
    2360:	06000000 	streq	r0, [r0], -r0
    2364:	00000106 	andeq	r0, r0, r6, lsl #2
    2368:	860e1c02 	strhi	r1, [lr], -r2, lsl #24
    236c:	07000000 	streq	r0, [r0, -r0]
    2370:	00006b04 	andeq	r6, r0, r4, lsl #22
    2374:	00250400 	eoreq	r0, r5, r0, lsl #8
    2378:	009b0000 	addseq	r0, fp, r0
    237c:	9b050000 	blls	142384 <__bss_end__+0x1383dc>
    2380:	00000000 	andeq	r0, r0, r0
    2384:	00a80407 	adceq	r0, r8, r7, lsl #8
    2388:	01030000 	mrseq	r0, (UNDEF: 3)
    238c:	00008c08 	andeq	r8, r0, r8, lsl #24
    2390:	00a10800 	adceq	r0, r1, r0, lsl #16
    2394:	99060000 	stmdbls	r6, {}	; <UNPREDICTABLE>
    2398:	02000006 	andeq	r0, r0, #6, 0
    239c:	00b90e21 	adcseq	r0, r9, r1, lsr #28
    23a0:	04070000 	streq	r0, [r7], #-0
    23a4:	0000008c 	andeq	r0, r0, ip, lsl #1
    23a8:	0000ad09 	andeq	sl, r0, r9, lsl #26
    23ac:	070c0100 	streq	r0, [ip, -r0, lsl #2]
    23b0:	9b9c0305 	blls	fe702fcc <__bss_end__+0xfe6f9024>
    23b4:	900a0000 	andls	r0, sl, r0
    23b8:	01000006 	tsteq	r0, r6
    23bc:	00250504 	eoreq	r0, r5, r4, lsl #10
    23c0:	8a640000 	bhi	19023c8 <__bss_end__+0x18f8420>
    23c4:	00340000 	eorseq	r0, r4, r0
    23c8:	9c010000 	stcls	0, cr0, [r1], {-0}
    23cc:	0100700b 	tsteq	r0, fp
    23d0:	009b1f04 	addseq	r1, fp, r4, lsl #30
    23d4:	07d30000 	ldrbeq	r0, [r3, r0]
    23d8:	07cf0000 	strbeq	r0, [pc, r0]
    23dc:	00000000 	andeq	r0, r0, r0
    23e0:	00000ad7 	ldrdeq	r0, [r0], -r7
    23e4:	07c50004 	strbeq	r0, [r5, r4]
    23e8:	01040000 	mrseq	r0, (UNDEF: 4)
    23ec:	00000545 	andeq	r0, r0, r5, asr #10
    23f0:	0006bd0c 	andeq	fp, r6, ip, lsl #26
    23f4:	00063200 	andeq	r3, r6, r0, lsl #4
    23f8:	008a9800 	addeq	r9, sl, r0, lsl #16
    23fc:	00074000 	andeq	r4, r7, r0
    2400:	000d6c00 	andeq	r6, sp, r0, lsl #24
    2404:	05040200 	streq	r0, [r4, #-512]	; 0xfffffe00
    2408:	00746e69 	rsbseq	r6, r4, r9, ror #28
    240c:	eb070403 	bl	1c3420 <__bss_end__+0x1b9478>
    2410:	03000000 	movweq	r0, #0
    2414:	00850601 	addeq	r0, r5, r1, lsl #12
    2418:	02030000 	andeq	r0, r3, #0, 0
    241c:	00011205 	andeq	r1, r1, r5, lsl #4
    2420:	05040300 	streq	r0, [r4, #-768]	; 0xfffffd00
    2424:	000000fd 	strdeq	r0, [r0], -sp
    2428:	f8050803 			; <UNDEFINED> instruction: 0xf8050803
    242c:	03000000 	movweq	r0, #0
    2430:	00830801 	addeq	r0, r3, r1, lsl #16
    2434:	02030000 	andeq	r0, r3, #0, 0
    2438:	0000a707 	andeq	sl, r0, r7, lsl #14
    243c:	033a0400 	teqeq	sl, #0, 8
    2440:	34020000 	strcc	r0, [r2], #-0
    2444:	00006919 	andeq	r6, r0, r9, lsl r9
    2448:	07040300 	streq	r0, [r4, -r0, lsl #6]
    244c:	000000e6 	andeq	r0, r0, r6, ror #1
    2450:	0006b404 	andeq	fp, r6, r4, lsl #8
    2454:	19370200 	ldmdbne	r7!, {r9}
    2458:	0000007c 	andeq	r0, r0, ip, ror r0
    245c:	e1070803 	tst	r7, r3, lsl #16
    2460:	05000000 	streq	r0, [r0, #-0]
    2464:	00000025 	andeq	r0, r0, r5, lsr #32
    2468:	00000092 	muleq	r0, r2, r0
    246c:	00002506 	andeq	r2, r0, r6, lsl #10
    2470:	06070000 	streq	r0, [r7], -r0
    2474:	03000001 	movweq	r0, #1
    2478:	009e0e1c 	addseq	r0, lr, ip, lsl lr
    247c:	04080000 	streq	r0, [r8], #-0
    2480:	00000083 	andeq	r0, r0, r3, lsl #1
    2484:	00002505 	andeq	r2, r0, r5, lsl #10
    2488:	0000b300 	andeq	fp, r0, r0, lsl #6
    248c:	00b30600 	adcseq	r0, r3, r0, lsl #12
    2490:	08000000 	stmdaeq	r0, {}	; <UNPREDICTABLE>
    2494:	0000c004 	andeq	ip, r0, r4
    2498:	08010300 	stmdaeq	r1, {r8, r9}
    249c:	0000008c 	andeq	r0, r0, ip, lsl #1
    24a0:	0000b909 	andeq	fp, r0, r9, lsl #18
    24a4:	06990700 	ldreq	r0, [r9], r0, lsl #14
    24a8:	21030000 	mrscs	r0, (UNDEF: 3)
    24ac:	0000d10e 	andeq	sp, r0, lr, lsl #2
    24b0:	a4040800 	strge	r0, [r4], #-2048	; 0xfffff800
    24b4:	07000000 	streq	r0, [r0, -r0]
    24b8:	000006d0 	ldrdeq	r0, [r0], -r0	; <UNPREDICTABLE>
    24bc:	b90d0b04 	stmdblt	sp, {r2, r8, r9, fp}
    24c0:	07000000 	streq	r0, [r0, -r0]
    24c4:	00000749 	andeq	r0, r0, r9, asr #14
    24c8:	b90d0c04 	stmdblt	sp, {r2, sl, fp}
    24cc:	07000000 	streq	r0, [r0, -r0]
    24d0:	000006df 	ldrdeq	r0, [r0], -pc	; <UNPREDICTABLE>
    24d4:	b90d0d04 	stmdblt	sp, {r2, r8, sl, fp}
    24d8:	07000000 	streq	r0, [r0, -r0]
    24dc:	00000708 	andeq	r0, r0, r8, lsl #14
    24e0:	b90d0e04 	stmdblt	sp, {r2, r9, sl, fp}
    24e4:	07000000 	streq	r0, [r0, -r0]
    24e8:	00000779 	andeq	r0, r0, r9, ror r7
    24ec:	b90d0f04 	stmdblt	sp, {r2, r8, r9, sl, fp}
    24f0:	07000000 	streq	r0, [r0, -r0]
    24f4:	000006f3 	strdeq	r0, [r0], -r3
    24f8:	b90d1004 	stmdblt	sp, {r2, ip}
    24fc:	07000000 	streq	r0, [r0, -r0]
    2500:	00000788 	andeq	r0, r0, r8, lsl #15
    2504:	b90d1104 	stmdblt	sp, {r2, r8, ip}
    2508:	07000000 	streq	r0, [r0, -r0]
    250c:	00000714 	andeq	r0, r0, r4, lsl r7
    2510:	b90d1204 	stmdblt	sp, {r2, r9, ip}
    2514:	04000000 	streq	r0, [r0], #-0
    2518:	0000061e 	andeq	r0, r0, lr, lsl r6
    251c:	431b2805 	tstmi	fp, #327680	; 0x50000
    2520:	0a000001 	beq	252c <__code_start__-0x5ad4>
    2524:	00000686 	andeq	r0, r0, r6, lsl #13
    2528:	5a000604 	bpl	3d40 <__code_start__-0x42c0>
    252c:	0b000001 	bleq	2538 <__code_start__-0x5ac8>
    2530:	0000062d 	andeq	r0, r0, sp, lsr #12
    2534:	0000015a 	andeq	r0, r0, sl, asr r1
    2538:	040c0000 	streq	r0, [ip], #-0
    253c:	00068804 	andeq	r8, r6, r4, lsl #16
    2540:	18630500 	stmdane	r3!, {r8, sl}^
    2544:	00000137 	andeq	r0, r0, r7, lsr r1
    2548:	0006140d 	andeq	r1, r6, sp, lsl #8
    254c:	05810100 	streq	r0, [r1, #256]	; 0x100
    2550:	00000025 	andeq	r0, r0, r5, lsr #32
    2554:	00008d20 	andeq	r8, r0, r0, lsr #26
    2558:	000004b8 			; <UNDEFINED> instruction: 0x000004b8
    255c:	07179c01 	ldreq	r9, [r7, -r1, lsl #24]
    2560:	620e0000 	andvs	r0, lr, #0, 0
    2564:	01006675 	tsteq	r0, r5, ror r6
    2568:	07171581 	ldreq	r1, [r7, -r1, lsl #11]
    256c:	07f70000 	ldrbeq	r0, [r7, r0]!
    2570:	07f10000 	ldrbeq	r0, [r1, r0]!
    2574:	6e0e0000 	cdpvs	0, 0, cr0, cr14, cr0, {0}
    2578:	1e810100 	rmfnes	f0, f1, f0
    257c:	00000025 	andeq	r0, r0, r5, lsr #32
    2580:	00000829 	andeq	r0, r0, r9, lsr #16
    2584:	00000823 	andeq	r0, r0, r3, lsr #16
    2588:	746d660e 	strbtvc	r6, [sp], #-1550	; 0xfffff9f2
    258c:	2d810100 	stfcss	f0, [r1]
    2590:	000000b3 	strheq	r0, [r0], -r3
    2594:	00000863 	andeq	r0, r0, r3, ror #16
    2598:	00000857 	andeq	r0, r0, r7, asr r8
    259c:	00060f0f 	andeq	r0, r6, pc, lsl #30
    25a0:	3a810100 	bcc	fe0429a8 <__bss_end__+0xfe038a00>
    25a4:	0000015c 	andeq	r0, r0, ip, asr r1
    25a8:	7dd49103 	ldfvcp	f1, [r4, #12]
    25ac:	01007010 	tsteq	r0, r0, lsl r0
    25b0:	07170882 	ldreq	r0, [r7, -r2, lsl #17]
    25b4:	08c10000 	stmiaeq	r1, {}^	; <UNPREDICTABLE>
    25b8:	08ad0000 	stmiaeq	sp!, {}	; <UNPREDICTABLE>
    25bc:	65100000 	ldrvs	r0, [r0, #-0]
    25c0:	12820100 	addne	r0, r2, #0
    25c4:	00000717 	andeq	r0, r0, r7, lsl r7
    25c8:	00000943 	andeq	r0, r0, r3, asr #18
    25cc:	0000093f 	andeq	r0, r0, pc, lsr r9
    25d0:	00307810 	eorseq	r7, r0, r0, lsl r8
    25d4:	5d0e8301 	stcpl	3, cr8, [lr, #-4]
    25d8:	70000000 	andvc	r0, r0, r0
    25dc:	6a000009 	bvs	2608 <__code_start__-0x59f8>
    25e0:	10000009 	andne	r0, r0, r9
    25e4:	01003178 	tsteq	r0, r8, ror r1
    25e8:	005d1183 	subseq	r1, sp, r3, lsl #3
    25ec:	099d0000 	ldmibeq	sp, {}	; <UNPREDICTABLE>
    25f0:	09990000 	ldmibeq	r9, {}	; <UNPREDICTABLE>
    25f4:	32110000 	andscc	r0, r1, #0, 0
    25f8:	01000007 	tsteq	r0, r7
    25fc:	00b31186 	adcseq	r1, r3, r6, lsl #3
    2600:	09bf0000 	ldmibeq	pc!, {}	; <UNPREDICTABLE>
    2604:	09bb0000 	ldmibeq	fp!, {}	; <UNPREDICTABLE>
    2608:	45120000 	ldrmi	r0, [r2, #-0]
    260c:	2d000002 	stccs	0, cr0, [r0, #-8]
    2610:	05000007 	streq	r0, [r0, #-7]
    2614:	009b8403 	addseq	r8, fp, r3, lsl #8
    2618:	8d881300 	stchi	3, cr1, [r8]
    261c:	04000000 	streq	r0, [r0], #-0
    2620:	73100000 	tstvc	r0, #0, 0
    2624:	0a910100 	beq	fe442a2c <__bss_end__+0xfe438a84>
    2628:	00000717 	andeq	r0, r0, r7, lsl r7
    262c:	000009f5 	strdeq	r0, [r0], -r5
    2630:	000009df 	ldrdeq	r0, [r0], -pc	; <UNPREDICTABLE>
    2634:	6d756e14 	ldclvs	14, cr6, [r5, #-80]!	; 0xffffffb0
    2638:	0d910100 	ldfeqs	f0, [r1]
    263c:	00000732 	andeq	r0, r0, r2, lsr r7
    2640:	7dd89103 	ldfvcp	f1, [r8, #12]
    2644:	00079515 	andeq	r9, r7, r5, lsl r5
    2648:	17910100 	ldrne	r0, [r1, r0, lsl #2]
    264c:	00000732 	andeq	r0, r0, r2, lsr r7
    2650:	7ed89103 	atnvce	f1, f3
    2654:	0006ed11 	andeq	lr, r6, r1, lsl sp
    2658:	0d920100 	ldfeqs	f0, [r2]
    265c:	0000002c 	andeq	r0, r0, ip, lsr #32
    2660:	00000a7c 	andeq	r0, r0, ip, ror sl
    2664:	00000a76 	andeq	r0, r0, r6, ror sl
    2668:	008e5016 	addeq	r5, lr, r6, lsl r0
    266c:	0001a400 	andeq	sl, r1, r0, lsl #8
    2670:	00053900 	andeq	r3, r5, r0, lsl #18
    2674:	79741000 	ldmdbvc	r4!, {ip}^
    2678:	1d9e0100 	ldfnes	f0, [lr]
    267c:	000000b3 	strheq	r0, [r0], -r3
    2680:	00000ab0 			; <UNDEFINED> instruction: 0x00000ab0
    2684:	00000aa6 	andeq	r0, r0, r6, lsr #21
    2688:	00787817 	rsbseq	r7, r8, r7, lsl r8
    268c:	701aa201 	andsvc	sl, sl, r1, lsl #4
    2690:	18000000 	stmdane	r0, {}	; <UNPREDICTABLE>
    2694:	00008e60 	andeq	r8, r0, r0, ror #28
    2698:	00000a92 	muleq	r0, r2, sl
    269c:	000002d5 	ldrdeq	r0, [r0], -r5
    26a0:	02500119 	subseq	r0, r0, #1073741830	; 0x40000006
    26a4:	01190076 	tsteq	r9, r6, ror r0
    26a8:	78030551 	stmdavc	r3, {r0, r4, r6, r8, sl}
    26ac:	1900009a 	stmdbne	r0, {r1, r3, r4, r7}
    26b0:	33015201 	movwcc	r5, #4609	; 0x1201
    26b4:	8e781800 	cdphi	8, 7, cr1, cr8, cr0, {0}
    26b8:	0a920000 	beq	fe4826c0 <__bss_end__+0xfe478718>
    26bc:	02f70000 	rscseq	r0, r7, #0, 0
    26c0:	01190000 	tsteq	r9, r0
    26c4:	00760250 	rsbseq	r0, r6, r0, asr r2
    26c8:	05510119 	ldrbeq	r0, [r1, #-281]	; 0xfffffee7
    26cc:	009a7c03 	addseq	r7, sl, r3, lsl #24
    26d0:	52011900 	andpl	r1, r1, #0, 18
    26d4:	18003301 	stmdane	r0, {r0, r8, r9, ip, sp}
    26d8:	00008eac 	andeq	r8, r0, ip, lsr #29
    26dc:	00000a9e 	muleq	r0, lr, sl
    26e0:	00000314 	andeq	r0, r0, r4, lsl r3
    26e4:	05500119 	ldrbeq	r0, [r0, #-281]	; 0xfffffee7
    26e8:	009a8003 	addseq	r8, sl, r3
    26ec:	51011900 	tstpl	r1, r0, lsl #18
    26f0:	00007702 	andeq	r7, r0, r2, lsl #14
    26f4:	008eb818 	addeq	fp, lr, r8, lsl r8
    26f8:	000a9e00 	andeq	r9, sl, r0, lsl #28
    26fc:	00033100 	andeq	r3, r3, r0, lsl #2
    2700:	50011900 	andpl	r1, r1, r0, lsl #18
    2704:	9a880305 	bls	fe203320 <__bss_end__+0xfe1f9378>
    2708:	01190000 	tsteq	r9, r0
    270c:	007a0251 	rsbseq	r0, sl, r1, asr r2
    2710:	8ec81800 	cdphi	8, 12, cr1, cr8, cr0, {0}
    2714:	0a920000 	beq	fe48271c <__bss_end__+0xfe478774>
    2718:	03530000 	cmpeq	r3, #0, 0
    271c:	01190000 	tsteq	r9, r0
    2720:	00760250 	rsbseq	r0, r6, r0, asr r2
    2724:	05510119 	ldrbeq	r0, [r1, #-281]	; 0xfffffee7
    2728:	009a7803 	addseq	r7, sl, r3, lsl #16
    272c:	52011900 	andpl	r1, r1, #0, 18
    2730:	18003301 	stmdane	r0, {r0, r8, r9, ip, sp}
    2734:	00008ee0 	andeq	r8, r0, r0, ror #29
    2738:	00000a92 	muleq	r0, r2, sl
    273c:	00000375 	andeq	r0, r0, r5, ror r3
    2740:	02500119 	subseq	r0, r0, #1073741830	; 0x40000006
    2744:	01190076 	tsteq	r9, r6, ror r0
    2748:	7c030551 	cfstr32vc	mvfx0, [r3], {81}	; 0x51
    274c:	1900009a 	stmdbne	r0, {r1, r3, r4, r7}
    2750:	33015201 	movwcc	r5, #4609	; 0x1201
    2754:	8f081800 	svchi	0x00081800
    2758:	07420000 	strbeq	r0, [r2, -r0]
    275c:	03a90000 			; <UNDEFINED> instruction: 0x03a90000
    2760:	01190000 	tsteq	r9, r0
    2764:	193a0150 	ldmdbne	sl!, {r4, r6, r8}
    2768:	91035101 	tstls	r3, r1, lsl #2
    276c:	01197dd0 			; <UNDEFINED> instruction: 0x01197dd0
    2770:	80080252 	andhi	r0, r8, r2, asr r2
    2774:	02530119 	subseq	r0, r3, #1073741830	; 0x40000006
    2778:	02190077 	andseq	r0, r9, #119, 0	; 0x77
    277c:	7502007d 	strvc	r0, [r2, #-125]	; 0xffffff83
    2780:	7d021900 	vstrvc.16	s2, [r2, #-0]	; <UNPREDICTABLE>
    2784:	00760204 	rsbseq	r0, r6, r4, lsl #4
    2788:	8f281800 	svchi	0x00281800
    278c:	07420000 	strbeq	r0, [r2, -r0]
    2790:	03dd0000 	bicseq	r0, sp, #0, 0
    2794:	01190000 	tsteq	r9, r0
    2798:	193a0150 	ldmdbne	sl!, {r4, r6, r8}
    279c:	91035101 	tstls	r3, r1, lsl #2
    27a0:	01197ed0 			; <UNDEFINED> instruction: 0x01197ed0
    27a4:	80080252 	andhi	r0, r8, r2, asr r2
    27a8:	02530119 	subseq	r0, r3, #1073741830	; 0x40000006
    27ac:	0219007a 	andseq	r0, r9, #122, 0	; 0x7a
    27b0:	7502007d 	strvc	r0, [r2, #-125]	; 0xffffff83
    27b4:	7d021900 	vstrvc.16	s2, [r2, #-0]	; <UNPREDICTABLE>
    27b8:	00760204 	rsbseq	r0, r6, r4, lsl #4
    27bc:	8f341800 	svchi	0x00341800
    27c0:	0aaa0000 	beq	fea827c8 <__bss_end__+0xfea78820>
    27c4:	03fb0000 	mvnseq	r0, #0, 0
    27c8:	01190000 	tsteq	r9, r0
    27cc:	d0910350 	addsle	r0, r1, r0, asr r3
    27d0:	5101197d 	tstpl	r1, sp, ror r9
    27d4:	99ec0305 	stmibls	ip!, {r0, r2, r8, r9}^
    27d8:	18000000 	stmdane	r0, {}	; <UNPREDICTABLE>
    27dc:	00008f48 	andeq	r8, r0, r8, asr #30
    27e0:	00000ab6 			; <UNDEFINED> instruction: 0x00000ab6
    27e4:	00000417 	andeq	r0, r0, r7, lsl r4
    27e8:	03500119 	cmpeq	r0, #1073741830	; 0x40000006
    27ec:	197dd091 	ldmdbne	sp!, {r0, r4, r7, ip, lr, pc}^
    27f0:	91035101 	tstls	r3, r1, lsl #2
    27f4:	18007ed0 	stmdane	r0, {r4, r6, r7, r9, sl, fp, ip, sp, lr}
    27f8:	00008f6c 	andeq	r8, r0, ip, ror #30
    27fc:	00000a9e 	muleq	r0, lr, sl
    2800:	00000450 	andeq	r0, r0, r0, asr r4
    2804:	05500119 	ldrbeq	r0, [r0, #-281]	; 0xfffffee7
    2808:	00985003 	addseq	r5, r8, r3
    280c:	51011900 	tstpl	r1, r0, lsl #18
    2810:	9a2c0305 	bls	b0342c <__bss_end__+0xaf9484>
    2814:	01190000 	tsteq	r9, r0
    2818:	84030552 	strhi	r0, [r3], #-1362	; 0xfffffaae
    281c:	1900009b 	stmdbne	r0, {r0, r1, r3, r4, r7}
    2820:	08025301 	stmdaeq	r2, {r0, r8, r9, ip, lr}
    2824:	7d02199f 	vstrvc.16	s2, [r2, #-318]	; 0xfffffec2	; <UNPREDICTABLE>
    2828:	90030500 	andls	r0, r3, r0, lsl #10
    282c:	0000009a 	muleq	r0, sl, r0
    2830:	008f701a 	addeq	r7, pc, sl, lsl r0	; <UNPREDICTABLE>
    2834:	000ac200 	andeq	ip, sl, r0, lsl #4
    2838:	8f901800 	svchi	0x00901800
    283c:	07420000 	strbeq	r0, [r2, -r0]
    2840:	048d0000 	streq	r0, [sp], #0
    2844:	01190000 	tsteq	r9, r0
    2848:	19400150 	stmdbne	r0, {r4, r6, r8}^
    284c:	91035101 	tstls	r3, r1, lsl #2
    2850:	01197dd0 			; <UNDEFINED> instruction: 0x01197dd0
    2854:	80080252 	andhi	r0, r8, r2, asr r2
    2858:	02530119 	subseq	r0, r3, #1073741830	; 0x40000006
    285c:	02190077 	andseq	r0, r9, #119, 0	; 0x77
    2860:	7502007d 	strvc	r0, [r2, #-125]	; 0xffffff83
    2864:	7d021900 	vstrvc.16	s2, [r2, #-0]	; <UNPREDICTABLE>
    2868:	00760204 	rsbseq	r0, r6, r4, lsl #4
    286c:	8fb01800 	svchi	0x00b01800
    2870:	07420000 	strbeq	r0, [r2, -r0]
    2874:	04c10000 	strbeq	r0, [r1], #0
    2878:	01190000 	tsteq	r9, r0
    287c:	19400150 	stmdbne	r0, {r4, r6, r8}^
    2880:	91035101 	tstls	r3, r1, lsl #2
    2884:	01197ed0 			; <UNDEFINED> instruction: 0x01197ed0
    2888:	80080252 	andhi	r0, r8, r2, asr r2
    288c:	02530119 	subseq	r0, r3, #1073741830	; 0x40000006
    2890:	0219007a 	andseq	r0, r9, #122, 0	; 0x7a
    2894:	7502007d 	strvc	r0, [r2, #-125]	; 0xffffff83
    2898:	7d021900 	vstrvc.16	s2, [r2, #-0]	; <UNPREDICTABLE>
    289c:	00760204 	rsbseq	r0, r6, r4, lsl #4
    28a0:	8fbc1800 	svchi	0x00bc1800
    28a4:	0ace0000 	beq	ff3828ac <__bss_end__+0xff378904>
    28a8:	04dd0000 	ldrbeq	r0, [sp], #0
    28ac:	01190000 	tsteq	r9, r0
    28b0:	d0910350 	addsle	r0, r1, r0, asr r3
    28b4:	5101197d 	tstpl	r1, sp, ror r9
    28b8:	7ed29103 	atnvcs	f1, f3
    28bc:	8fd01800 	svchi	0x00d01800
    28c0:	0ace0000 	beq	ff3828c8 <__bss_end__+0xff378920>
    28c4:	04f90000 	ldrbteq	r0, [r9], #0
    28c8:	01190000 	tsteq	r9, r0
    28cc:	d0910350 	addsle	r0, r1, r0, asr r3
    28d0:	5101197d 	tstpl	r1, sp, ror r9
    28d4:	7ed09103 	atnvcs	f1, f3
    28d8:	8ff01800 	svchi	0x00f01800
    28dc:	0a9e0000 	beq	fe7828e4 <__bss_end__+0xfe77893c>
    28e0:	052f0000 	streq	r0, [pc, #-0]!	; 28e8 <__code_start__-0x5718>
    28e4:	01190000 	tsteq	r9, r0
    28e8:	cc030550 	cfstr32gt	mvfx0, [r3], {80}	; 0x50
    28ec:	1900009a 	stmdbne	r0, {r1, r3, r4, r7}
    28f0:	03055101 	movweq	r5, #20737	; 0x5101
    28f4:	00009a2c 	andeq	r9, r0, ip, lsr #20
    28f8:	05520119 	ldrbeq	r0, [r2, #-281]	; 0xfffffee7
    28fc:	009b8403 	addseq	r8, fp, r3, lsl #8
    2900:	53011900 	movwpl	r1, #6400	; 0x1900
    2904:	19b60802 	ldmibne	r6!, {r1, fp}
    2908:	02007d02 	andeq	r7, r0, #128	; 0x80
    290c:	1a000076 	bne	2aec <__code_start__-0x5514>
    2910:	00008ff4 	strdeq	r8, [r0], -r4
    2914:	00000ac2 	andeq	r0, r0, r2, asr #21
    2918:	8da01800 	stchi	8, cr1, [r0]
    291c:	09c00000 	stmibeq	r0, {}^	; <UNPREDICTABLE>
    2920:	054d0000 	strbeq	r0, [sp, #-0]
    2924:	01190000 	tsteq	r9, r0
    2928:	00770250 	rsbseq	r0, r7, r0, asr r2
    292c:	8e4c1800 	cdphi	8, 4, cr1, cr12, cr0, {0}
    2930:	0a9e0000 	beq	fe782938 <__bss_end__+0xfe778990>
    2934:	05860000 	streq	r0, [r6]
    2938:	01190000 	tsteq	r9, r0
    293c:	50030550 	andpl	r0, r3, r0, asr r5
    2940:	19000098 	stmdbne	r0, {r3, r4, r7}
    2944:	03055101 	movweq	r5, #20737	; 0x5101
    2948:	00009a2c 	andeq	r9, r0, ip, lsr #20
    294c:	05520119 	ldrbeq	r0, [r2, #-281]	; 0xfffffee7
    2950:	009b8403 	addseq	r8, fp, r3, lsl #8
    2954:	53011900 	movwpl	r1, #6400	; 0x1900
    2958:	19980802 	ldmibne	r8, {r1, fp}
    295c:	05007d02 	streq	r7, [r0, #-3330]	; 0xfffff2fe
    2960:	009a6c03 	addseq	r6, sl, r3, lsl #24
    2964:	501a0000 	andspl	r0, sl, r0
    2968:	c200008e 	andgt	r0, r0, #142, 0	; 0x8e
    296c:	1800000a 	stmdane	r0, {r1, r3}
    2970:	00009008 	andeq	r9, r0, r8
    2974:	00000a9e 	muleq	r0, lr, sl
    2978:	000005be 			; <UNDEFINED> instruction: 0x000005be
    297c:	05500119 	ldrbeq	r0, [r0, #-281]	; 0xfffffee7
    2980:	009af403 	addseq	pc, sl, r3, lsl #8
    2984:	51011900 	tstpl	r1, r0, lsl #18
    2988:	9a2c0305 	bls	b035a4 <__bss_end__+0xaf95fc>
    298c:	01190000 	tsteq	r9, r0
    2990:	84030552 	strhi	r0, [r3], #-1362	; 0xfffffaae
    2994:	1900009b 	stmdbne	r0, {r0, r1, r3, r4, r7}
    2998:	08025301 	stmdaeq	r2, {r0, r8, r9, ip, lr}
    299c:	0c1a00be 	ldceq	0, cr0, [sl], {190}	; 0xbe
    29a0:	c2000090 	andgt	r0, r0, #144, 0	; 0x90
    29a4:	1800000a 	stmdane	r0, {r1, r3}
    29a8:	00009038 	andeq	r9, r0, r8, lsr r0
    29ac:	00000742 	andeq	r0, r0, r2, asr #14
    29b0:	000005f4 	strdeq	r0, [r0], -r4
    29b4:	01500119 	cmpeq	r0, r9, lsl r1
    29b8:	5101193a 	tstpl	r1, sl, lsr r9
    29bc:	7dd09103 	ldfvcp	f1, [r0, #12]
    29c0:	02520119 	subseq	r0, r2, #1073741830	; 0x40000006
    29c4:	02198008 	andseq	r8, r9, #8, 0
    29c8:	7502007d 	strvc	r0, [r2, #-125]	; 0xffffff83
    29cc:	7d021900 	vstrvc.16	s2, [r2, #-0]	; <UNPREDICTABLE>
    29d0:	00310104 	eorseq	r0, r1, r4, lsl #2
    29d4:	00907018 	addseq	r7, r0, r8, lsl r0
    29d8:	00074200 	andeq	r4, r7, r0, lsl #4
    29dc:	00062100 	andeq	r2, r6, r0, lsl #2
    29e0:	50011900 	andpl	r1, r1, r0, lsl #18
    29e4:	01193a01 	tsteq	r9, r1, lsl #20
    29e8:	d0910351 	addsle	r0, r1, r1, asr r3
    29ec:	5201197d 	andpl	r1, r1, #2048000	; 0x1f4000
    29f0:	19800802 	stmibne	r0, {r1, fp}
    29f4:	02007d02 	andeq	r7, r0, #128	; 0x80
    29f8:	02190075 	andseq	r0, r9, #117, 0	; 0x75
    29fc:	3001047d 	andcc	r0, r1, sp, ror r4
    2a00:	90a41800 	adcls	r1, r4, r0, lsl #16
    2a04:	07420000 	strbeq	r0, [r2, -r0]
    2a08:	064e0000 	strbeq	r0, [lr], -r0
    2a0c:	01190000 	tsteq	r9, r0
    2a10:	19400150 	stmdbne	r0, {r4, r6, r8}^
    2a14:	91035101 	tstls	r3, r1, lsl #2
    2a18:	01197dd0 			; <UNDEFINED> instruction: 0x01197dd0
    2a1c:	80080252 	andhi	r0, r8, r2, asr r2
    2a20:	007d0219 	rsbseq	r0, sp, r9, lsl r2
    2a24:	19007502 	stmdbne	r0, {r1, r8, sl, ip, sp, lr}
    2a28:	01047d02 	tsteq	r4, r2, lsl #26
    2a2c:	d8180030 	ldmdale	r8, {r4, r5}
    2a30:	42000090 	andmi	r0, r0, #144, 0	; 0x90
    2a34:	7b000007 	blvc	2a58 <__code_start__-0x55a8>
    2a38:	19000006 	stmdbne	r0, {r1, r2}
    2a3c:	32015001 	andcc	r5, r1, #1, 0
    2a40:	03510119 	cmpeq	r1, #1073741830	; 0x40000006
    2a44:	197dd091 	ldmdbne	sp!, {r0, r4, r7, ip, lr, pc}^
    2a48:	08025201 	stmdaeq	r2, {r0, r9, ip, lr}
    2a4c:	7d021980 	vstrvc.16	s2, [r2, #-256]	; 0xffffff00	; <UNPREDICTABLE>
    2a50:	00750200 	rsbseq	r0, r5, r0, lsl #4
    2a54:	047d0219 	ldrbteq	r0, [sp], #-537	; 0xfffffde7
    2a58:	18003001 	stmdane	r0, {r0, ip, sp}
    2a5c:	00009120 	andeq	r9, r0, r0, lsr #2
    2a60:	00000742 	andeq	r0, r0, r2, asr #14
    2a64:	000006a8 	andeq	r0, r0, r8, lsr #13
    2a68:	01500119 	cmpeq	r0, r9, lsl r1
    2a6c:	51011938 	tstpl	r1, r8, lsr r9
    2a70:	7dd09103 	ldfvcp	f1, [r0, #12]
    2a74:	02520119 	subseq	r0, r2, #1073741830	; 0x40000006
    2a78:	02198008 	andseq	r8, r9, #8, 0
    2a7c:	7502007d 	strvc	r0, [r2, #-125]	; 0xffffff83
    2a80:	7d021900 	vstrvc.16	s2, [r2, #-0]	; <UNPREDICTABLE>
    2a84:	00300104 	eorseq	r0, r0, r4, lsl #2
    2a88:	00914018 	addseq	r4, r1, r8, lsl r0
    2a8c:	000a9e00 	andeq	r9, sl, r0, lsl #28
    2a90:	0006cb00 	andeq	ip, r6, r0, lsl #22
    2a94:	50011900 	andpl	r1, r1, r0, lsl #18
    2a98:	9b1c0305 	blls	7036b4 <__bss_end__+0x6f970c>
    2a9c:	01190000 	tsteq	r9, r0
    2aa0:	007a0251 	rsbseq	r0, sl, r1, asr r2
    2aa4:	02520119 	subseq	r0, r2, #1073741830	; 0x40000006
    2aa8:	1b00007a 	blne	2c98 <__code_start__-0x5368>
    2aac:	00009150 	andeq	r9, r0, r0, asr r1
    2ab0:	000006dd 	ldrdeq	r0, [r0], -sp
    2ab4:	04500119 	ldrbeq	r0, [r0], #-281	; 0xfffffee7
    2ab8:	067dc891 			; <UNDEFINED> instruction: 0x067dc891
    2abc:	91641800 	cmnls	r4, r0, lsl #16
    2ac0:	0a9e0000 	beq	fe782ac8 <__bss_end__+0xfe778b20>
    2ac4:	070c0000 	streq	r0, [ip, -r0]
    2ac8:	01190000 	tsteq	r9, r0
    2acc:	4c030550 	cfstr32mi	mvfx0, [r3], {80}	; 0x50
    2ad0:	1900009b 	stmdbne	r0, {r0, r1, r3, r4, r7}
    2ad4:	03055101 	movweq	r5, #20737	; 0x5101
    2ad8:	00009a2c 	andeq	r9, r0, ip, lsr #20
    2adc:	05520119 	ldrbeq	r0, [r2, #-281]	; 0xfffffee7
    2ae0:	009b8403 	addseq	r8, fp, r3, lsl #8
    2ae4:	53011900 	movwpl	r1, #6400	; 0x1900
    2ae8:	00e20802 	rsceq	r0, r2, r2, lsl #16
    2aec:	0091681a 	addseq	r6, r1, sl, lsl r8
    2af0:	000ac200 	andeq	ip, sl, r0, lsl #4
    2af4:	08000000 	stmdaeq	r0, {}	; <UNPREDICTABLE>
    2af8:	0000b904 	andeq	fp, r0, r4, lsl #18
    2afc:	00c01c00 	sbceq	r1, r0, r0, lsl #24
    2b00:	072d0000 	streq	r0, [sp, -r0]!
    2b04:	2c1d0000 	ldccs	0, cr0, [sp], {-0}
    2b08:	09000000 	stmdbeq	r0, {}	; <UNPREDICTABLE>
    2b0c:	071d0900 	ldreq	r0, [sp, -r0, lsl #18]
    2b10:	b91c0000 	ldmdblt	ip, {}	; <UNPREDICTABLE>
    2b14:	42000000 	andmi	r0, r0, #0, 0
    2b18:	1d000007 	stcne	0, cr0, [r0, #-28]	; 0xffffffe4
    2b1c:	0000002c 	andeq	r0, r0, ip, lsr #32
    2b20:	561e007f 			; <UNDEFINED> instruction: 0x561e007f
    2b24:	01000007 	tsteq	r0, r7
    2b28:	07170149 	ldreq	r0, [r7, -r9, asr #2]
    2b2c:	8b080000 	blhi	202b34 <__bss_end__+0x1f8b8c>
    2b30:	01b40000 			; <UNDEFINED> instruction: 0x01b40000
    2b34:	9c010000 	stcls	0, cr0, [r1], {-0}
    2b38:	000008ab 	andeq	r0, r0, fp, lsr #17
    2b3c:	0007a21f 	andeq	sl, r7, pc, lsl r2
    2b40:	0f490100 	svceq	0x00490100
    2b44:	0000002c 	andeq	r0, r0, ip, lsr #32
    2b48:	00000af9 	strdeq	r0, [r0], -r9
    2b4c:	00000af3 	strdeq	r0, [r0], -r3
    2b50:	7473640e 	ldrbtvc	r6, [r3], #-1038	; 0xfffffbf2
    2b54:	1b490100 	blne	1242f5c <__bss_end__+0x1238fb4>
    2b58:	00000717 	andeq	r0, r0, r7, lsl r7
    2b5c:	00000b37 	andeq	r0, r0, r7, lsr fp
    2b60:	00000b27 	andeq	r0, r0, r7, lsr #22
    2b64:	01006e0e 	tsteq	r0, lr, lsl #28
    2b68:	00252449 	eoreq	r2, r5, r9, asr #8
    2b6c:	0b9b0000 	bleq	fe6c2b74 <__bss_end__+0xfe6b8bcc>
    2b70:	0b970000 	bleq	fe5c2b78 <__bss_end__+0xfe5b8bd0>
    2b74:	760e0000 	strvc	r0, [lr], -r0
    2b78:	01006c61 	tsteq	r0, r1, ror #24
    2b7c:	00252b49 	eoreq	r2, r5, r9, asr #22
    2b80:	0bc50000 	bleq	ff142b88 <__bss_end__+0xff138be0>
    2b84:	0bb90000 	bleq	fee42b8c <__bss_end__+0xfee38be4>
    2b88:	ed1f0000 	ldc	0, cr0, [pc, #-0]	; 2b90 <__code_start__-0x5470>
    2b8c:	01000006 	tsteq	r0, r6
    2b90:	00253449 	eoreq	r3, r5, r9, asr #8
    2b94:	0c1b0000 	ldceq	0, cr0, [fp], {-0}
    2b98:	0c150000 	ldceq	0, cr0, [r5], {-0}
    2b9c:	a70f0000 	strge	r0, [pc, -r0]
    2ba0:	01000007 	tsteq	r0, r7
    2ba4:	00253f49 	eoreq	r3, r5, r9, asr #30
    2ba8:	91020000 	mrsls	r0, (UNDEF: 2)
    2bac:	75621404 	strbvc	r1, [r2, #-1028]!	; 0xfffffbfc
    2bb0:	4e010066 	cdpmi	0, 0, cr0, cr1, cr6, {3}
    2bb4:	0008ab07 	andeq	sl, r8, r7, lsl #22
    2bb8:	a8910300 	ldmge	r1, {r8, r9}
    2bbc:	0070107f 	rsbseq	r1, r0, pc, ror r0
    2bc0:	17114e01 	ldrne	r4, [r1, -r1, lsl #28]
    2bc4:	65000007 	strvs	r0, [r0, #-7]
    2bc8:	4500000c 	strmi	r0, [r0, #-12]
    2bcc:	1000000c 	andne	r0, r0, ip
    2bd0:	4f010075 	svcmi	0x00010075
    2bd4:	00002c0b 	andeq	r2, r0, fp, lsl #24
    2bd8:	000d4b00 	andeq	r4, sp, r0, lsl #22
    2bdc:	000d3700 	andeq	r3, sp, r0, lsl #14
    2be0:	02451200 	subeq	r1, r5, #0, 4
    2be4:	08cb0000 	stmiaeq	fp, {}^	; <UNPREDICTABLE>
    2be8:	03050000 	movweq	r0, #20480	; 0x5000
    2bec:	00009b6c 	andeq	r9, r0, ip, ror #22
    2bf0:	008b7416 	addeq	r7, fp, r6, lsl r4
    2bf4:	00007800 	andeq	r7, r0, r0, lsl #16
    2bf8:	00083200 	andeq	r3, r8, r0, lsl #4
    2bfc:	07431100 	strbeq	r1, [r3, -r0, lsl #2]
    2c00:	54010000 	strpl	r0, [r1], #-0
    2c04:	00002c0d 	andeq	r2, r0, sp, lsl #24
    2c08:	000dcc00 	andeq	ip, sp, r0, lsl #24
    2c0c:	000dc400 	andeq	ip, sp, r0, lsl #8
    2c10:	2c180000 	ldccs	0, cr0, [r8], {-0}
    2c14:	5d00008c 	stcpl	0, cr0, [r0, #-560]	; 0xfffffdd0
    2c18:	47000009 	strmi	r0, [r0, -r9]
    2c1c:	19000008 	stmdbne	r0, {r3}
    2c20:	91035101 	tstls	r3, r1, lsl #2
    2c24:	18007fa0 	stmdane	r0, {r5, r7, r8, r9, sl, fp, ip, sp, lr}
    2c28:	00008c40 	andeq	r8, r0, r0, asr #24
    2c2c:	000008d0 	ldrdeq	r0, [r0], -r0	; <UNPREDICTABLE>
    2c30:	00000868 	andeq	r0, r0, r8, ror #16
    2c34:	02500119 	subseq	r0, r0, #1073741830	; 0x40000006
    2c38:	01190075 	tsteq	r9, r5, ror r0
    2c3c:	00740251 	rsbseq	r0, r4, r1, asr r2
    2c40:	03530119 	cmpeq	r3, #1073741830	; 0x40000006
    2c44:	007fa091 			; <UNDEFINED> instruction: 0x007fa091
    2c48:	008c9818 	addeq	r9, ip, r8, lsl r8
    2c4c:	000a9e00 	andeq	r9, sl, r0, lsl #28
    2c50:	0008a100 	andeq	sl, r8, r0, lsl #2
    2c54:	50011900 	andpl	r1, r1, r0, lsl #18
    2c58:	98500305 	ldmdals	r0, {r0, r2, r8, r9}^
    2c5c:	01190000 	tsteq	r9, r0
    2c60:	2c030551 	cfstr32cs	mvfx0, [r3], {81}	; 0x51
    2c64:	1900009a 	stmdbne	r0, {r1, r3, r4, r7}
    2c68:	03055201 	movweq	r5, #20993	; 0x5201
    2c6c:	00009b6c 	andeq	r9, r0, ip, ror #22
    2c70:	02530119 	subseq	r0, r3, #1073741830	; 0x40000006
    2c74:	02197908 	andseq	r7, r9, #8, 18	; 0x20000
    2c78:	0305007d 	movweq	r0, #20605	; 0x507d
    2c7c:	000099ec 	andeq	r9, r0, ip, ror #19
    2c80:	8c9c1a00 	vldmiahi	ip, {s2-s1}
    2c84:	0ac20000 	beq	ff082c8c <__bss_end__+0xff078ce4>
    2c88:	1c000000 	stcne	0, cr0, [r0], {-0}
    2c8c:	000000b9 	strheq	r0, [r0], -r9
    2c90:	000008bb 			; <UNDEFINED> instruction: 0x000008bb
    2c94:	00002c1d 	andeq	r2, r0, sp, lsl ip
    2c98:	1c003f00 	stcne	15, cr3, [r0], {-0}
    2c9c:	000000c0 	andeq	r0, r0, r0, asr #1
    2ca0:	000008cb 	andeq	r0, r0, fp, asr #17
    2ca4:	00002c1d 	andeq	r2, r0, sp, lsl ip
    2ca8:	09000400 	stmdbeq	r0, {sl}
    2cac:	000008bb 			; <UNDEFINED> instruction: 0x000008bb
    2cb0:	0007631e 	andeq	r6, r7, lr, lsl r3
    2cb4:	0e380100 	rsfeqe	f0, f0, f0
    2cb8:	00000717 	andeq	r0, r0, r7, lsl r7
    2cbc:	00008ad0 	ldrdeq	r8, [r0], -r0
    2cc0:	00000038 	andeq	r0, r0, r8, lsr r0
    2cc4:	095d9c01 	ldmdbeq	sp, {r0, sl, fp, ip, pc}^
    2cc8:	640e0000 	strvs	r0, [lr], #-0
    2ccc:	01007473 	tsteq	r0, r3, ror r4
    2cd0:	07171c38 			; <UNDEFINED> instruction: 0x07171c38
    2cd4:	0e0d0000 	cdpeq	0, 0, cr0, cr13, cr0, {0}
    2cd8:	0e030000 	cdpeq	0, 0, cr0, cr3, cr0, {0}
    2cdc:	6e0e0000 	cdpvs	0, 0, cr0, cr14, cr0, {0}
    2ce0:	25380100 	ldrcs	r0, [r8, #-256]!	; 0xffffff00
    2ce4:	00000025 	andeq	r0, r0, r5, lsr #32
    2ce8:	00000e54 	andeq	r0, r0, r4, asr lr
    2cec:	00000e50 	andeq	r0, r0, r0, asr lr
    2cf0:	0100700e 	tsteq	r0, lr
    2cf4:	07172e38 			; <UNDEFINED> instruction: 0x07172e38
    2cf8:	0e7d0000 	cdpeq	0, 7, cr0, cr13, cr0, {0}
    2cfc:	0e750000 	cdpeq	0, 7, cr0, cr5, cr0, {0}
    2d00:	c81f0000 	ldmdagt	pc, {}	; <UNPREDICTABLE>
    2d04:	01000004 	tsteq	r0, r4
    2d08:	07173738 			; <UNDEFINED> instruction: 0x07173738
    2d0c:	0eb70000 	cdpeq	0, 11, cr0, cr7, cr0, {0}
    2d10:	0eb30000 	cdpeq	0, 11, cr0, cr3, cr0, {0}
    2d14:	6c100000 	ldcvs	0, cr0, [r0], {-0}
    2d18:	01006e65 	tsteq	r0, r5, ror #28
    2d1c:	0025063a 	eoreq	r0, r5, sl, lsr r6
    2d20:	0edd0000 	cdpeq	0, 13, cr0, cr13, cr0, {0}
    2d24:	0ed50000 	cdpeq	0, 13, cr0, cr5, cr0, {0}
    2d28:	73100000 	tstvc	r0, #0, 0
    2d2c:	083e0100 	ldmdaeq	lr!, {r8}
    2d30:	00000717 	andeq	r0, r0, r7, lsl r7
    2d34:	00000f2b 	andeq	r0, r0, fp, lsr #30
    2d38:	00000f29 	andeq	r0, r0, r9, lsr #30
    2d3c:	61702000 	cmnvs	r0, r0
    2d40:	2e010064 	cdpcs	0, 0, cr0, cr1, cr4, {3}
    2d44:	0007170e 	andeq	r1, r7, lr, lsl #14
    2d48:	008aac00 	addeq	sl, sl, r0, lsl #24
    2d4c:	00002400 	andeq	r2, r0, r0, lsl #8
    2d50:	c09c0100 	addsgt	r0, ip, r0, lsl #2
    2d54:	0e000009 	cdpeq	0, 0, cr0, cr0, cr9, {0}
    2d58:	2e010070 	mcrcs	0, 0, r0, cr1, cr0, {3}
    2d5c:	00071718 	andeq	r1, r7, r8, lsl r7
    2d60:	000f4400 	andeq	r4, pc, r0, lsl #8
    2d64:	000f3e00 	andeq	r3, pc, r0, lsl #28
    2d68:	07a21f00 	streq	r1, [r2, r0, lsl #30]!
    2d6c:	2e010000 	cdpcs	0, 0, cr0, cr1, cr0, {0}
    2d70:	00071722 	andeq	r1, r7, r2, lsr #14
    2d74:	000f7300 	andeq	r7, pc, r0, lsl #6
    2d78:	000f6f00 	andeq	r6, pc, r0, lsl #30
    2d7c:	06ed0f00 	strbteq	r0, [sp], r0, lsl #30
    2d80:	2e010000 	cdpcs	0, 0, cr0, cr1, cr0, {0}
    2d84:	0000252c 	andeq	r2, r0, ip, lsr #10
    2d88:	10520100 	subsne	r0, r2, r0, lsl #2
    2d8c:	006e656c 	rsbeq	r6, lr, ip, ror #10
    2d90:	25062f01 	strcs	r2, [r6, #-3841]	; 0xfffff0ff
    2d94:	96000000 	strls	r0, [r0], -r0
    2d98:	9400000f 	strls	r0, [r0], #-15
    2d9c:	0000000f 	andeq	r0, r0, pc
    2da0:	0006ac1e 	andeq	sl, r6, lr, lsl ip
    2da4:	0c270100 	stfeqs	f0, [r7], #-0
    2da8:	00000025 	andeq	r0, r0, r5, lsr #32
    2dac:	00008a98 	muleq	r0, r8, sl
    2db0:	00000014 	andeq	r0, r0, r4, lsl r0
    2db4:	09ed9c01 	stmibeq	sp!, {r0, sl, fp, ip, pc}^
    2db8:	630e0000 	movwvs	r0, #57344	; 0xe000
    2dbc:	18270100 	stmdane	r7!, {r8}
    2dc0:	00000025 	andeq	r0, r0, r5, lsr #32
    2dc4:	00000faf 	andeq	r0, r0, pc, lsr #31
    2dc8:	00000fa9 	andeq	r0, r0, r9, lsr #31
    2dcc:	07232100 	streq	r2, [r3, -r0, lsl #2]!
    2dd0:	1f010000 	svcne	0x00010000
    2dd4:	008cbc06 	addeq	fp, ip, r6, lsl #24
    2dd8:	00006400 	andeq	r6, r0, r0, lsl #8
    2ddc:	7d9c0100 	ldfvcs	f0, [ip]
    2de0:	1f00000a 	svcne	0x0000000a
    2de4:	00000700 	andeq	r0, r0, r0, lsl #14
    2de8:	9e1b1f01 	cdpls	15, 1, cr1, cr11, cr1, {0}
    2dec:	e1000000 	mrs	r0, (UNDEF: 0)
    2df0:	dd00000f 	stcle	0, cr0, [r0, #-60]	; 0xffffffc4
    2df4:	1f00000f 	svcne	0x0000000f
    2df8:	0000075b 	andeq	r0, r0, fp, asr r7
    2dfc:	d1301f01 	teqle	r0, r1, lsl #30
    2e00:	06000000 	streq	r0, [r0], -r0
    2e04:	02000010 	andeq	r0, r0, #16, 0
    2e08:	12000010 	andne	r0, r0, #16, 0
    2e0c:	00000245 	andeq	r0, r0, r5, asr #4
    2e10:	00000a8d 	andeq	r0, r0, sp, lsl #21
    2e14:	9b740305 	blls	1d03a30 <__bss_end__+0x1cf9a88>
    2e18:	04180000 	ldreq	r0, [r8], #-0
    2e1c:	9e00008d 	cdpls	0, 0, cr0, cr0, cr13, {4}
    2e20:	7300000a 	movwvc	r0, #10
    2e24:	1900000a 	stmdbne	r0, {r1, r3}
    2e28:	03055001 	movweq	r5, #20481	; 0x5001
    2e2c:	00009850 	andeq	r9, r0, r0, asr r8
    2e30:	05510119 	ldrbeq	r0, [r1, #-281]	; 0xfffffee7
    2e34:	009a2c03 	addseq	r2, sl, r3, lsl #24
    2e38:	52011900 	andpl	r1, r1, #0, 18
    2e3c:	9b740305 	blls	1d03a58 <__bss_end__+0x1cf9ab0>
    2e40:	01190000 	tsteq	r9, r0
    2e44:	20080253 	andcs	r0, r8, r3, asr r2
    2e48:	007d0219 	rsbseq	r0, sp, r9, lsl r2
    2e4c:	9a640305 	bls	1903a68 <__bss_end__+0x18f9ac0>
    2e50:	1a000000 	bne	2e58 <__code_start__-0x51a8>
    2e54:	00008d08 	andeq	r8, r0, r8, lsl #26
    2e58:	00000ac2 	andeq	r0, r0, r2, asr #21
    2e5c:	00c01c00 	sbceq	r1, r0, r0, lsl #24
    2e60:	0a8d0000 	beq	fe342e68 <__bss_end__+0xfe338ec0>
    2e64:	2c1d0000 	ldccs	0, cr0, [sp], {-0}
    2e68:	0e000000 	cdpeq	0, 0, cr0, cr0, cr0, {0}
    2e6c:	0a7d0900 	beq	1f45274 <__bss_end__+0x1f3b2cc>
    2e70:	9a220000 	bls	882e78 <__bss_end__+0x878ed0>
    2e74:	9a000007 	bls	2e98 <__code_start__-0x5168>
    2e78:	03000007 	movweq	r0, #7
    2e7c:	172205f0 			; <UNDEFINED> instruction: 0x172205f0
    2e80:	17000006 	strne	r0, [r0, -r6]
    2e84:	03000006 	movweq	r0, #6
    2e88:	72220628 	eorvc	r0, r2, #40, 12	; 0x2800000
    2e8c:	72000007 	andvc	r0, r0, #7, 0
    2e90:	03000007 	movweq	r0, #7
    2e94:	3c2205ef 	cfstr32cc	mvfx0, [r2], #-956	; 0xfffffc44
    2e98:	3c000007 	stccc	0, cr0, [r0], {7}
    2e9c:	03000007 	movweq	r0, #7
    2ea0:	9a2207f2 	bls	884e70 <__bss_end__+0x87aec8>
    2ea4:	9a000000 	bls	2eac <__code_start__-0x5154>
    2ea8:	03000000 	movweq	r0, #0
    2eac:	6b22066e 	blvs	88486c <__bss_end__+0x87a8c4>
    2eb0:	6b000007 	blvs	2ed4 <__code_start__-0x512c>
    2eb4:	03000007 	movweq	r0, #7
    2eb8:	2f0007f3 	svccs	0x000007f3
    2ebc:	04000001 	streq	r0, [r0], #-1
    2ec0:	0009cf00 	andeq	ip, r9, r0, lsl #30
    2ec4:	45010400 	strmi	r0, [r1, #-1024]	; 0xfffffc00
    2ec8:	0c000005 	stceq	0, cr0, [r0], {5}
    2ecc:	000007bb 			; <UNDEFINED> instruction: 0x000007bb
    2ed0:	00000632 	andeq	r0, r0, r2, lsr r6
    2ed4:	000091d8 	ldrdeq	r9, [r0], -r8
    2ed8:	0000002c 	andeq	r0, r0, ip, lsr #32
    2edc:	00001389 	andeq	r1, r0, r9, lsl #7
    2ee0:	69050402 	stmdbvs	r5, {r1, sl}
    2ee4:	0300746e 	movweq	r7, #1134	; 0x46e
    2ee8:	00eb0704 	rsceq	r0, fp, r4, lsl #14
    2eec:	01030000 	mrseq	r0, (UNDEF: 3)
    2ef0:	00008506 	andeq	r8, r0, r6, lsl #10
    2ef4:	05020300 	streq	r0, [r2, #-768]	; 0xfffffd00
    2ef8:	00000112 	andeq	r0, r0, r2, lsl r1
    2efc:	fd050403 	stc2	4, cr0, [r5, #-12]
    2f00:	03000000 	movweq	r0, #0
    2f04:	00f80508 	rscseq	r0, r8, r8, lsl #10
    2f08:	01030000 	mrseq	r0, (UNDEF: 3)
    2f0c:	00008308 	andeq	r8, r0, r8, lsl #6
    2f10:	07020300 	streq	r0, [r2, -r0, lsl #6]
    2f14:	000000a7 	andeq	r0, r0, r7, lsr #1
    2f18:	e6070403 	str	r0, [r7], -r3, lsl #8
    2f1c:	03000000 	movweq	r0, #0
    2f20:	00e10708 	rsceq	r0, r1, r8, lsl #14
    2f24:	25040000 	strcs	r0, [r4, #-0]
    2f28:	7a000000 	bvc	2f30 <__code_start__-0x50d0>
    2f2c:	05000000 	streq	r0, [r0, #-0]
    2f30:	00000025 	andeq	r0, r0, r5, lsr #32
    2f34:	01060600 	tsteq	r6, r0, lsl #12
    2f38:	1c020000 	stcne	0, cr0, [r2], {-0}
    2f3c:	0000860e 	andeq	r8, r0, lr, lsl #12
    2f40:	6b040700 	blvs	104b48 <__bss_end__+0xfaba0>
    2f44:	04000000 	streq	r0, [r0], #-0
    2f48:	00000025 	andeq	r0, r0, r5, lsr #32
    2f4c:	0000009b 	muleq	r0, fp, r0
    2f50:	00009b05 	andeq	r9, r0, r5, lsl #22
    2f54:	04070000 	streq	r0, [r7], #-0
    2f58:	000000a8 	andeq	r0, r0, r8, lsr #1
    2f5c:	8c080103 	stfhis	f0, [r8], {3}
    2f60:	08000000 	stmdaeq	r0, {}	; <UNPREDICTABLE>
    2f64:	000000a1 	andeq	r0, r0, r1, lsr #1
    2f68:	00069906 	andeq	r9, r6, r6, lsl #18
    2f6c:	0e210200 	cdpeq	2, 2, cr0, cr1, cr0, {0}
    2f70:	000000b9 	strheq	r0, [r0], -r9
    2f74:	008c0407 	addeq	r0, ip, r7, lsl #8
    2f78:	9a090000 	bls	242f80 <__bss_end__+0x238fd8>
    2f7c:	01000000 	mrseq	r0, (UNDEF: 0)
    2f80:	91d80604 	bicsls	r0, r8, r4, lsl #12
    2f84:	002c0000 	eoreq	r0, ip, r0
    2f88:	9c010000 	stcls	0, cr0, [r1], {-0}
    2f8c:	0000010e 	andeq	r0, r0, lr, lsl #2
    2f90:	0091ec0a 	addseq	lr, r1, sl, lsl #24
    2f94:	0000e800 	andeq	lr, r0, r0, lsl #16
    2f98:	50010b00 	andpl	r0, r1, r0, lsl #22
    2f9c:	9b900305 	blls	fe403bb8 <__bss_end__+0xfe3f9c10>
    2fa0:	0c000000 	stceq	0, cr0, [r0], {-0}
    2fa4:	000091f0 	strdeq	r9, [r0], -r0
    2fa8:	0000010e 	andeq	r0, r0, lr, lsl #2
    2fac:	0091f80d 	addseq	pc, r1, sp, lsl #16
    2fb0:	00011a00 	andeq	r1, r1, r0, lsl #20
    2fb4:	00010400 	andeq	r0, r1, r0, lsl #8
    2fb8:	50010b00 	andpl	r0, r1, r0, lsl #22
    2fbc:	0c003a01 			; <UNDEFINED> instruction: 0x0c003a01
    2fc0:	000091fc 	strdeq	r9, [r0], -ip
    2fc4:	00000126 	andeq	r0, r0, r6, lsr #2
    2fc8:	07d60e00 	ldrbeq	r0, [r6, r0, lsl #28]
    2fcc:	07d60000 	ldrbeq	r0, [r6, r0]
    2fd0:	4d020000 	stcmi	0, cr0, [r2, #-0]
    2fd4:	00910e06 	addseq	r0, r1, r6, lsl #28
    2fd8:	00910000 	addseq	r0, r1, r0
    2fdc:	58020000 	stmdapl	r2, {}	; <UNPREDICTABLE>
    2fe0:	07b00e06 	ldreq	r0, [r0, r6, lsl #28]!
    2fe4:	07b00000 	ldreq	r0, [r0, r0]!
    2fe8:	6b020000 	blvs	82ff0 <__bss_end__+0x79048>
    2fec:	01890006 	orreq	r0, r9, r6
    2ff0:	00040000 	andeq	r0, r4, r0
    2ff4:	00000a8f 	andeq	r0, r0, pc, lsl #21
    2ff8:	05450104 	strbeq	r0, [r5, #-260]	; 0xfffffefc
    2ffc:	0c0c0000 	stceq	0, cr0, [ip], {-0}
    3000:	32000008 	andcc	r0, r0, #8, 0
    3004:	04000006 	streq	r0, [r0], #-6
    3008:	3c000092 	stccc	0, cr0, [r0], {146}	; 0x92
    300c:	2e000000 	cdpcs	0, 0, cr0, cr0, cr0, {0}
    3010:	02000014 	andeq	r0, r0, #20, 0
    3014:	6e690504 	cdpvs	5, 6, cr0, cr9, cr4, {0}
    3018:	04030074 	streq	r0, [r3], #-116	; 0xffffff8c
    301c:	0000eb07 	andeq	lr, r0, r7, lsl #22
    3020:	06010300 	streq	r0, [r1], -r0, lsl #6
    3024:	00000085 	andeq	r0, r0, r5, lsl #1
    3028:	12050203 	andne	r0, r5, #805306368	; 0x30000000
    302c:	03000001 	movweq	r0, #1
    3030:	00fd0504 	rscseq	r0, sp, r4, lsl #10
    3034:	08030000 	stmdaeq	r3, {}	; <UNPREDICTABLE>
    3038:	0000f805 	andeq	pc, r0, r5, lsl #16
    303c:	08010300 	stmdaeq	r1, {r8, r9}
    3040:	00000083 	andeq	r0, r0, r3, lsl #1
    3044:	a7070203 	strge	r0, [r7, -r3, lsl #4]
    3048:	03000000 	movweq	r0, #0
    304c:	00e60704 	rsceq	r0, r6, r4, lsl #14
    3050:	08030000 	stmdaeq	r3, {}	; <UNPREDICTABLE>
    3054:	0000e107 	andeq	lr, r0, r7, lsl #2
    3058:	00250400 	eoreq	r0, r5, r0, lsl #8
    305c:	007a0000 	rsbseq	r0, sl, r0
    3060:	25050000 	strcs	r0, [r5, #-0]
    3064:	00000000 	andeq	r0, r0, r0
    3068:	00010606 	andeq	r0, r1, r6, lsl #12
    306c:	0e1c0200 	cdpeq	2, 1, cr0, cr12, cr0, {0}
    3070:	00000086 	andeq	r0, r0, r6, lsl #1
    3074:	006b0407 	rsbeq	r0, fp, r7, lsl #8
    3078:	25040000 	strcs	r0, [r4, #-0]
    307c:	9b000000 	blls	3084 <__code_start__-0x4f7c>
    3080:	05000000 	streq	r0, [r0, #-0]
    3084:	0000009b 	muleq	r0, fp, r0
    3088:	a8040700 	stmdage	r4, {r8, r9, sl}
    308c:	03000000 	movweq	r0, #0
    3090:	008c0801 	addeq	r0, ip, r1, lsl #16
    3094:	a1080000 	mrsge	r0, (UNDEF: 8)
    3098:	06000000 	streq	r0, [r0], -r0
    309c:	00000699 	muleq	r0, r9, r6
    30a0:	b90e2102 	stmdblt	lr, {r1, r8, sp}
    30a4:	07000000 	streq	r0, [r0, -r0]
    30a8:	00008c04 	andeq	r8, r0, r4, lsl #24
    30ac:	07e40900 	strbeq	r0, [r4, r0, lsl #18]!
    30b0:	04010000 	streq	r0, [r1], #-0
    30b4:	00920406 	addseq	r0, r2, r6, lsl #8
    30b8:	00003c00 	andeq	r3, r0, r0, lsl #24
    30bc:	549c0100 	ldrpl	r0, [ip], #256	; 0x100
    30c0:	06000001 	streq	r0, [r0], -r1
    30c4:	000006df 	ldrdeq	r0, [r0], -pc	; <UNPREDICTABLE>
    30c8:	25100501 	ldrcs	r0, [r0, #-1281]	; 0xfffffaff
    30cc:	06000000 	streq	r0, [r0], -r0
    30d0:	00000708 	andeq	r0, r0, r8, lsl #14
    30d4:	251f0501 	ldrcs	r0, [pc, #-1281]	; 2bdb <__code_start__-0x5425>
    30d8:	0a000000 	beq	30e0 <__code_start__-0x4f20>
    30dc:	0000007b 	andeq	r0, r0, fp, ror r0
    30e0:	0b070601 	bleq	1c48ec <__bss_end__+0x1ba944>
    30e4:	00737362 	rsbseq	r7, r3, r2, ror #6
    30e8:	540a0a01 	strpl	r0, [sl], #-2561	; 0xfffff5ff
    30ec:	2d000001 	stccs	0, cr0, [r0, #-4]
    30f0:	27000010 	smladcs	r0, r0, r0, r0
    30f4:	0c000010 	stceq	0, cr0, [r0], {16}
    30f8:	000007ec 	andeq	r0, r0, ip, ror #15
    30fc:	540a0b01 	strpl	r0, [sl], #-2817	; 0xfffff4ff
    3100:	0d000001 	stceq	0, cr0, [r0, #-4]
    3104:	00009228 	andeq	r9, r0, r8, lsr #4
    3108:	00000008 	andeq	r0, r0, r8
    310c:	0000012f 	andeq	r0, r0, pc, lsr #2
    3110:	006e690e 	rsbeq	r6, lr, lr, lsl #18
    3114:	2c051401 	cfstrscs	mvf1, [r5], {1}
    3118:	01000000 	mrseq	r0, (UNDEF: 0)
    311c:	920c0f00 	andls	r0, ip, #0, 30
    3120:	015a0000 	cmpeq	sl, r0
    3124:	280f0000 	stmdacs	pc, {}	; <UNPREDICTABLE>
    3128:	67000092 			; <UNDEFINED> instruction: 0x67000092
    312c:	0f000001 	svceq	0x00000001
    3130:	00009234 	andeq	r9, r0, r4, lsr r2
    3134:	00000173 	andeq	r0, r0, r3, ror r1
    3138:	0092380f 	addseq	r3, r2, pc, lsl #16
    313c:	00018000 	andeq	r8, r1, r0
    3140:	04070000 	streq	r0, [r7], #-0
    3144:	00000025 	andeq	r0, r0, r5, lsr #32
    3148:	0007fe10 	andeq	pc, r7, r0, lsl lr	; <UNPREDICTABLE>
    314c:	0007fe00 	andeq	pc, r7, r0, lsl #28
    3150:	01360200 	teqeq	r6, r0, lsl #4
    3154:	07f41106 	ldrbeq	r1, [r4, r6, lsl #2]!
    3158:	07f40000 	ldrbeq	r0, [r4, r0]!
    315c:	3b020000 	blcc	83164 <__bss_end__+0x791bc>
    3160:	007b1006 	rsbseq	r1, fp, r6
    3164:	007b0000 	rsbseq	r0, fp, r0
    3168:	0a020000 	beq	83170 <__bss_end__+0x791c8>
    316c:	9a110601 	bls	444978 <__bss_end__+0x43a9d0>
    3170:	9a000000 	bls	3178 <__code_start__-0x4e88>
    3174:	02000000 	andeq	r0, r0, #0, 0
    3178:	ce00066e 	cfmadd32gt	mvax3, mvfx0, mvfx0, mvfx14
    317c:	04000000 	streq	r0, [r0], #-0
    3180:	000b8b00 	andeq	r8, fp, r0, lsl #22
    3184:	45010400 	strmi	r0, [r1, #-1024]	; 0xfffffc00
    3188:	0c000005 	stceq	0, cr0, [r0], {5}
    318c:	00000821 	andeq	r0, r0, r1, lsr #16
    3190:	00000632 	andeq	r0, r0, r2, lsr r6
    3194:	00009240 	andeq	r9, r0, r0, asr #4
    3198:	00000004 	andeq	r0, r0, r4
    319c:	000014ed 	andeq	r1, r0, sp, ror #9
    31a0:	69050402 	stmdbvs	r5, {r1, sl}
    31a4:	0300746e 	movweq	r7, #1134	; 0x46e
    31a8:	00eb0704 	rsceq	r0, fp, r4, lsl #14
    31ac:	01030000 	mrseq	r0, (UNDEF: 3)
    31b0:	00008506 	andeq	r8, r0, r6, lsl #10
    31b4:	05020300 	streq	r0, [r2, #-768]	; 0xfffffd00
    31b8:	00000112 	andeq	r0, r0, r2, lsl r1
    31bc:	fd050403 	stc2	4, cr0, [r5, #-12]
    31c0:	03000000 	movweq	r0, #0
    31c4:	00f80508 	rscseq	r0, r8, r8, lsl #10
    31c8:	01030000 	mrseq	r0, (UNDEF: 3)
    31cc:	00008308 	andeq	r8, r0, r8, lsl #6
    31d0:	07020300 	streq	r0, [r2, -r0, lsl #6]
    31d4:	000000a7 	andeq	r0, r0, r7, lsr #1
    31d8:	e6070403 	str	r0, [r7], -r3, lsl #8
    31dc:	03000000 	movweq	r0, #0
    31e0:	00e10708 	rsceq	r0, r1, r8, lsl #14
    31e4:	25040000 	strcs	r0, [r4, #-0]
    31e8:	7a000000 	bvc	31f0 <__code_start__-0x4e10>
    31ec:	05000000 	streq	r0, [r0, #-0]
    31f0:	00000025 	andeq	r0, r0, r5, lsr #32
    31f4:	01060600 	tsteq	r6, r0, lsl #12
    31f8:	1c020000 	stcne	0, cr0, [r2], {-0}
    31fc:	0000860e 	andeq	r8, r0, lr, lsl #12
    3200:	6b040700 	blvs	104e08 <__bss_end__+0xfae60>
    3204:	04000000 	streq	r0, [r0], #-0
    3208:	00000025 	andeq	r0, r0, r5, lsr #32
    320c:	0000009b 	muleq	r0, fp, r0
    3210:	00009b05 	andeq	r9, r0, r5, lsl #22
    3214:	04070000 	streq	r0, [r7], #-0
    3218:	000000a8 	andeq	r0, r0, r8, lsr #1
    321c:	8c080103 	stfhis	f0, [r8], {3}
    3220:	08000000 	stmdaeq	r0, {}	; <UNPREDICTABLE>
    3224:	000000a1 	andeq	r0, r0, r1, lsr #1
    3228:	00069906 	andeq	r9, r6, r6, lsl #18
    322c:	0e210200 	cdpeq	2, 2, cr0, cr1, cr0, {0}
    3230:	000000b9 	strheq	r0, [r0], -r9
    3234:	008c0407 	addeq	r0, ip, r7, lsl #8
    3238:	fe090000 	cdp2	0, 0, cr0, cr9, cr0, {0}
    323c:	01000007 	tsteq	r0, r7
    3240:	92400604 	subls	r0, r0, #4, 12	; 0x400000
    3244:	00040000 	andeq	r0, r4, r0
    3248:	9c010000 	stcls	0, cr0, [r1], {-0}
    324c:	00023600 	andeq	r3, r2, r0, lsl #12
    3250:	04000400 	streq	r0, [r0], #-1024	; 0xfffffc00
    3254:	0400000c 	streq	r0, [r0], #-12
    3258:	00054501 	andeq	r4, r5, r1, lsl #10
    325c:	08690c00 	stmdaeq	r9!, {sl, fp}^
    3260:	06320000 	ldrteq	r0, [r2], -r0
    3264:	00600000 	rsbeq	r0, r0, r0
    3268:	00000000 	andeq	r0, r0, r0
    326c:	15900000 	ldrne	r0, [r0]
    3270:	04020000 	streq	r0, [r2], #-0
    3274:	746e6905 	strbtvc	r6, [lr], #-2309	; 0xfffff6fb
    3278:	00250300 	eoreq	r0, r5, r0, lsl #6
    327c:	04040000 	streq	r0, [r4], #-0
    3280:	0000eb07 	andeq	lr, r0, r7, lsl #22
    3284:	06010400 	streq	r0, [r1], -r0, lsl #8
    3288:	00000085 	andeq	r0, r0, r5, lsl #1
    328c:	12050204 	andne	r0, r5, #4, 4	; 0x40000000
    3290:	04000001 	streq	r0, [r0], #-1
    3294:	00fd0504 	rscseq	r0, sp, r4, lsl #10
    3298:	08040000 	stmdaeq	r4, {}	; <UNPREDICTABLE>
    329c:	0000f805 	andeq	pc, r0, r5, lsl #16
    32a0:	08010400 	stmdaeq	r1, {sl}
    32a4:	00000083 	andeq	r0, r0, r3, lsl #1
    32a8:	a7070204 	strge	r0, [r7, -r4, lsl #4]
    32ac:	04000000 	streq	r0, [r0], #-0
    32b0:	00e60704 	rsceq	r0, r6, r4, lsl #14
    32b4:	08040000 	stmdaeq	r4, {}	; <UNPREDICTABLE>
    32b8:	0000e107 	andeq	lr, r0, r7, lsl #2
    32bc:	00250500 	eoreq	r0, r5, r0, lsl #10
    32c0:	007f0000 	rsbseq	r0, pc, r0
    32c4:	25060000 	strcs	r0, [r6, #-0]
    32c8:	00000000 	andeq	r0, r0, r0
    32cc:	00010607 	andeq	r0, r1, r7, lsl #12
    32d0:	0e1c0200 	cdpeq	2, 1, cr0, cr12, cr0, {0}
    32d4:	0000008b 	andeq	r0, r0, fp, lsl #1
    32d8:	00700408 	rsbseq	r0, r0, r8, lsl #8
    32dc:	25050000 	strcs	r0, [r5, #-0]
    32e0:	a0000000 	andge	r0, r0, r0
    32e4:	06000000 	streq	r0, [r0], -r0
    32e8:	000000a0 	andeq	r0, r0, r0, lsr #1
    32ec:	ad040800 	stcge	8, cr0, [r4, #-0]
    32f0:	04000000 	streq	r0, [r0], #-0
    32f4:	008c0801 	addeq	r0, ip, r1, lsl #16
    32f8:	a6030000 	strge	r0, [r3], -r0
    32fc:	07000000 	streq	r0, [r0, -r0]
    3300:	00000699 	muleq	r0, r9, r6
    3304:	be0e2102 	adflte	f2, f6, f2
    3308:	08000000 	stmdaeq	r0, {}	; <UNPREDICTABLE>
    330c:	00009104 	andeq	r9, r0, r4, lsl #2
    3310:	088d0900 	stmeq	sp, {r8, fp}
    3314:	0d010000 	stceq	0, cr0, [r1, #-0]
    3318:	00003111 	andeq	r3, r0, r1, lsl r1
    331c:	07b00a00 	ldreq	r0, [r0, r0, lsl #20]!
    3320:	1f010000 	svcne	0x00010000
    3324:	00928806 	addseq	r8, r2, r6, lsl #16
    3328:	00005400 	andeq	r5, r0, r0, lsl #8
    332c:	ae9c0100 	fmlgee	f0, f4, f0
    3330:	0b000001 	bleq	333c <__code_start__-0x4cc4>
    3334:	000008b1 			; <UNDEFINED> instruction: 0x000008b1
    3338:	2c0f2c01 	stccs	12, cr2, [pc], {1}
    333c:	5a000000 	bpl	3344 <__code_start__-0x4cbc>
    3340:	58000010 	stmdapl	r0, {r4}
    3344:	0b000010 	bleq	338c <__code_start__-0x4c74>
    3348:	0000084c 	andeq	r0, r0, ip, asr #16
    334c:	2c0f2d01 	stccs	13, cr2, [pc], {1}
    3350:	74000000 	strvc	r0, [r0], #-0
    3354:	72000010 	andvc	r0, r0, #16, 0
    3358:	0b000010 	bleq	33a0 <__code_start__-0x4c60>
    335c:	0000087e 	andeq	r0, r0, lr, ror r8
    3360:	2c0f2e01 	stccs	14, cr2, [pc], {1}
    3364:	8e000000 	cdphi	0, 0, cr0, cr0, cr0, {0}
    3368:	8c000010 	stchi	0, cr0, [r0], {16}
    336c:	0b000010 	bleq	33b4 <__code_start__-0x4c4c>
    3370:	00000898 	muleq	r0, r8, r8
    3374:	2c0f2f01 	stccs	15, cr2, [pc], {1}
    3378:	a7000000 	strge	r0, [r0, -r0]
    337c:	a5000010 	strge	r0, [r0, #-16]
    3380:	0c000010 	stceq	0, cr0, [r0], {16}
    3384:	00009290 	muleq	r0, r0, r2
    3388:	000001d9 	ldrdeq	r0, [r0], -r9
    338c:	00929c0c 	addseq	r9, r2, ip, lsl #24
    3390:	00020800 	andeq	r0, r2, r0, lsl #16
    3394:	92a00c00 	adcls	r0, r0, #0, 24
    3398:	02150000 	andseq	r0, r5, #0, 0
    339c:	a80d0000 	stmdage	sp, {}	; <UNPREDICTABLE>
    33a0:	21000092 	swpcs	r0, r2, [r0]	; <UNPREDICTABLE>
    33a4:	64000002 	strvs	r0, [r0], #-2
    33a8:	0e000001 	cdpeq	0, 0, cr0, cr0, cr1, {0}
    33ac:	3a015001 	bcc	573b8 <__bss_end__+0x4d410>
    33b0:	92b40d00 	adcsls	r0, r4, #0, 26
    33b4:	022d0000 	eoreq	r0, sp, #0, 0
    33b8:	01840000 	orreq	r0, r4, r0
    33bc:	010e0000 	mrseq	r0, (UNDEF: 14)
    33c0:	240c0550 	strcs	r0, [ip], #-1360	; 0xfffffab0
    33c4:	0e201000 	cdpeq	0, 2, cr1, cr0, cr0, {0}
    33c8:	0c055101 	stfeqs	f5, [r5], {1}
    33cc:	5a000001 	bpl	33d8 <__code_start__-0x4c28>
    33d0:	92c00d00 	sbcls	r0, r0, #0, 26
    33d4:	022d0000 	eoreq	r0, sp, #0, 0
    33d8:	01a40000 			; <UNDEFINED> instruction: 0x01a40000
    33dc:	010e0000 	mrseq	r0, (UNDEF: 14)
    33e0:	1c0c0550 	cfstr32ne	mvfx0, [ip], {80}	; 0x50
    33e4:	0e201000 	cdpeq	0, 2, cr1, cr0, cr0, {0}
    33e8:	0c055101 	stfeqs	f5, [r5], {1}
    33ec:	5a000020 	bpl	3474 <__code_start__-0x4b8c>
    33f0:	92c80c00 	sbcls	r0, r8, #0, 24
    33f4:	01ae0000 			; <UNDEFINED> instruction: 0x01ae0000
    33f8:	0f000000 	svceq	0x00000000
    33fc:	0000085a 	andeq	r0, r0, sl, asr r8
    3400:	74061701 	strvc	r1, [r6], #-1793	; 0xfffff8ff
    3404:	14000092 	strne	r0, [r0], #-146	; 0xffffff6e
    3408:	01000000 	mrseq	r0, (UNDEF: 0)
    340c:	0001d99c 	muleq	r1, ip, r9
    3410:	08b90b00 	ldmeq	r9!, {r8, r9, fp}
    3414:	18010000 	stmdane	r1, {}	; <UNPREDICTABLE>
    3418:	0000310e 	andeq	r3, r0, lr, lsl #2
    341c:	0010c200 	andseq	ip, r0, r0, lsl #4
    3420:	0010bc00 	andseq	fp, r0, r0, lsl #24
    3424:	8a100000 	bhi	40342c <__bss_end__+0x3f9484>
    3428:	01000008 	tsteq	r0, r8
    342c:	0025050e 	eoreq	r0, r5, lr, lsl #10
    3430:	925c0000 	subsls	r0, ip, #0, 0
    3434:	00180000 	andseq	r0, r8, r0
    3438:	9c010000 	stcls	0, cr0, [r1], {-0}
    343c:	00000208 	andeq	r0, r0, r8, lsl #4
    3440:	0008b90b 	andeq	fp, r8, fp, lsl #18
    3444:	0e0f0100 	adfeqe	f0, f7, f0
    3448:	00000031 	andeq	r0, r0, r1, lsr r0
    344c:	000010f0 	strdeq	r1, [r0], -r0
    3450:	000010ec 	andeq	r1, r0, ip, ror #1
    3454:	083d1100 	ldmdaeq	sp!, {r8, ip}
    3458:	083d0000 	ldmdaeq	sp!, {}	; <UNPREDICTABLE>
    345c:	3b020000 	blcc	83464 <__bss_end__+0x794bc>
    3460:	d6120601 	ldrle	r0, [r2], -r1, lsl #12
    3464:	d6000007 	strle	r0, [r0], -r7
    3468:	02000007 	andeq	r0, r0, #7, 0
    346c:	9112064d 	tstls	r2, sp, asr #12
    3470:	91000000 	mrsls	r0, (UNDEF: 0)
    3474:	02000000 	andeq	r0, r0, #0, 0
    3478:	54120658 	ldrpl	r0, [r2], #-1624	; 0xfffff9a8
    347c:	54000008 	strpl	r0, [r0], #-8
    3480:	02000008 	andeq	r0, r0, #8, 0
    3484:	4d0006b2 	stcmi	6, cr0, [r0, #-712]	; 0xfffffd38
    3488:	04000002 	streq	r0, [r0], #-2
    348c:	000d2900 	andeq	r2, sp, r0, lsl #18
    3490:	45010400 	strmi	r0, [r1, #-1024]	; 0xfffffc00
    3494:	0c000005 	stceq	0, cr0, [r0], {5}
    3498:	000008c8 	andeq	r0, r0, r8, asr #17
    349c:	00000632 	andeq	r0, r0, r2, lsr r6
    34a0:	000092dc 	ldrdeq	r9, [r0], -ip
    34a4:	00000084 	andeq	r0, r0, r4, lsl #1
    34a8:	00001683 	andeq	r1, r0, r3, lsl #13
    34ac:	69050402 	stmdbvs	r5, {r1, sl}
    34b0:	0300746e 	movweq	r7, #1134	; 0x46e
    34b4:	00eb0704 	rsceq	r0, fp, r4, lsl #14
    34b8:	01030000 	mrseq	r0, (UNDEF: 3)
    34bc:	00008506 	andeq	r8, r0, r6, lsl #10
    34c0:	05020300 	streq	r0, [r2, #-768]	; 0xfffffd00
    34c4:	00000112 	andeq	r0, r0, r2, lsl r1
    34c8:	fd050403 	stc2	4, cr0, [r5, #-12]
    34cc:	03000000 	movweq	r0, #0
    34d0:	00f80508 	rscseq	r0, r8, r8, lsl #10
    34d4:	01030000 	mrseq	r0, (UNDEF: 3)
    34d8:	00008308 	andeq	r8, r0, r8, lsl #6
    34dc:	07020300 	streq	r0, [r2, -r0, lsl #6]
    34e0:	000000a7 	andeq	r0, r0, r7, lsr #1
    34e4:	e6070403 	str	r0, [r7], -r3, lsl #8
    34e8:	03000000 	movweq	r0, #0
    34ec:	00e10708 	rsceq	r0, r1, r8, lsl #14
    34f0:	25040000 	strcs	r0, [r4, #-0]
    34f4:	7a000000 	bvc	34fc <__code_start__-0x4b04>
    34f8:	05000000 	streq	r0, [r0, #-0]
    34fc:	00000025 	andeq	r0, r0, r5, lsr #32
    3500:	01060600 	tsteq	r6, r0, lsl #12
    3504:	1c020000 	stcne	0, cr0, [r2], {-0}
    3508:	0000860e 	andeq	r8, r0, lr, lsl #12
    350c:	6b040700 	blvs	105114 <__bss_end__+0xfb16c>
    3510:	04000000 	streq	r0, [r0], #-0
    3514:	00000025 	andeq	r0, r0, r5, lsr #32
    3518:	0000009b 	muleq	r0, fp, r0
    351c:	00009b05 	andeq	r9, r0, r5, lsl #22
    3520:	04070000 	streq	r0, [r7], #-0
    3524:	000000a8 	andeq	r0, r0, r8, lsr #1
    3528:	8c080103 	stfhis	f0, [r8], {3}
    352c:	08000000 	stmdaeq	r0, {}	; <UNPREDICTABLE>
    3530:	000000a1 	andeq	r0, r0, r1, lsr #1
    3534:	00069906 	andeq	r9, r6, r6, lsl #18
    3538:	0e210200 	cdpeq	2, 2, cr0, cr1, cr0, {0}
    353c:	000000b9 	strheq	r0, [r0], -r9
    3540:	008c0407 	addeq	r0, ip, r7, lsl #8
    3544:	be090000 	cdplt	0, 0, cr0, cr9, cr0, {0}
    3548:	01000008 	tsteq	r0, r8
    354c:	9348061e 	movtls	r0, #34334	; 0x861e
    3550:	00180000 	andseq	r0, r8, r0
    3554:	9c010000 	stcls	0, cr0, [r1], {-0}
    3558:	00000109 	andeq	r0, r0, r9, lsl #2
    355c:	6365730a 	cmnvs	r5, #671088640	; 0x28000000
    3560:	191e0100 	ldmdbne	lr, {r8}
    3564:	0000002c 	andeq	r0, r0, ip, lsr #32
    3568:	00001113 	andeq	r1, r0, r3, lsl r1
    356c:	0000110f 	andeq	r1, r0, pc, lsl #2
    3570:	00935c0b 	addseq	r5, r3, fp, lsl #24
    3574:	00010900 	andeq	r0, r1, r0, lsl #18
    3578:	50010c00 	andpl	r0, r1, r0, lsl #24
    357c:	5001f311 	andpl	pc, r1, r1, lsl r3	; <UNPREDICTABLE>
    3580:	01f32435 	mvnseq	r2, r5, lsr r4
    3584:	24321c50 	ldrtcs	r1, [r2], #-3152	; 0xfffff3b0
    3588:	225001f3 	subscs	r0, r0, #-1073741764	; 0xc000003c
    358c:	00002433 	andeq	r2, r0, r3, lsr r4
    3590:	00009109 	andeq	r9, r0, r9, lsl #2
    3594:	061b0100 	ldreq	r0, [fp], -r0, lsl #2
    3598:	00009330 	andeq	r9, r0, r0, lsr r3
    359c:	00000018 	andeq	r0, r0, r8, lsl r0
    35a0:	01529c01 	cmpeq	r2, r1, lsl #24
    35a4:	6d0a0000 	stcvs	0, cr0, [sl, #-0]
    35a8:	1b010073 	blne	4377c <__bss_end__+0x397d4>
    35ac:	00002c18 	andeq	r2, r0, r8, lsl ip
    35b0:	00113800 	andseq	r3, r1, r0, lsl #16
    35b4:	00113400 	andseq	r3, r1, r0, lsl #8
    35b8:	93440b00 	movtls	r0, #19200	; 0x4b00
    35bc:	01520000 	cmpeq	r2, r0
    35c0:	010c0000 	mrseq	r0, (UNDEF: 12)
    35c4:	01f31150 	mvnseq	r1, r0, asr r1
    35c8:	f3243550 	vqrshl.u32	<illegal reg q1.5>, q0, q2
    35cc:	321c5001 	andscc	r5, ip, #1, 0
    35d0:	5001f324 	andpl	pc, r1, r4, lsr #6
    35d4:	00243322 	eoreq	r3, r4, r2, lsr #6
    35d8:	02520900 	subseq	r0, r2, #0, 18
    35dc:	12010000 	andne	r0, r1, #0, 0
    35e0:	00930c06 	addseq	r0, r3, r6, lsl #24
    35e4:	00002400 	andeq	r2, r0, r0, lsl #8
    35e8:	c29c0100 	addsgt	r0, ip, #0
    35ec:	0a000001 	beq	35f8 <__code_start__-0x4a08>
    35f0:	01007375 	tsteq	r0, r5, ror r3
    35f4:	002c1812 	eoreq	r1, ip, r2, lsl r8
    35f8:	115d0000 	cmpne	sp, r0
    35fc:	11590000 	cmpne	r9, r0
    3600:	720d0000 	andvc	r0, sp, #0, 0
    3604:	13010062 	movwne	r0, #4194	; 0x1062
    3608:	00002c0e 	andeq	r2, r0, lr, lsl #24
    360c:	00117d00 	andseq	r7, r1, r0, lsl #26
    3610:	00117b00 	andseq	r7, r1, r0, lsl #22
    3614:	931c0e00 	tstls	ip, #0, 28
    3618:	00140000 	andseq	r0, r4, r0
    361c:	01b80000 			; <UNDEFINED> instruction: 0x01b80000
    3620:	720d0000 	andvc	r0, sp, #0, 0
    3624:	15010061 	strne	r0, [r1, #-97]	; 0xffffff9f
    3628:	00002c12 	andeq	r2, r0, r2, lsl ip
    362c:	00119200 	andseq	r9, r1, r0, lsl #4
    3630:	00119000 	andseq	r9, r1, r0
    3634:	93200f00 	nopls	{0}	; <UNPREDICTABLE>
    3638:	01c20000 	biceq	r0, r2, r0
    363c:	0f000000 	svceq	0x00000000
    3640:	00009318 	andeq	r9, r0, r8, lsl r3
    3644:	000001c2 	andeq	r0, r0, r2, asr #3
    3648:	08e21000 	stmiaeq	r2!, {ip}^
    364c:	09010000 	stmdbeq	r1, {}	; <UNPREDICTABLE>
    3650:	00002c0a 	andeq	r2, r0, sl, lsl #24
    3654:	0092f000 	addseq	pc, r2, r0
    3658:	00001c00 	andeq	r1, r0, r0, lsl #24
    365c:	0a9c0100 	beq	fe703a64 <__bss_end__+0xfe6f9abc>
    3660:	0d000002 	stceq	0, cr0, [r0, #-8]
    3664:	0d010075 	stceq	0, cr0, [r1, #-468]	; 0xfffffe2c
    3668:	00002c0e 	andeq	r2, r0, lr, lsl #24
    366c:	0011a900 	andseq	sl, r1, r0, lsl #18
    3670:	0011a500 	andseq	sl, r1, r0, lsl #10
    3674:	92f80f00 	rscsls	r0, r8, #0, 30
    3678:	02380000 	eorseq	r0, r8, #0, 0
    367c:	fc0f0000 	stc2	0, cr0, [pc], {-0}
    3680:	0a000092 	beq	38d0 <__code_start__-0x4730>
    3684:	0f000002 	svceq	0x00000002
    3688:	00009304 	andeq	r9, r0, r4, lsl #6
    368c:	00000238 	andeq	r0, r0, r8, lsr r2
    3690:	08f11000 	ldmeq	r1!, {ip}^
    3694:	04010000 	streq	r0, [r1], #-0
    3698:	00002c0a 	andeq	r2, r0, sl, lsl #24
    369c:	0092dc00 	addseq	sp, r2, r0, lsl #24
    36a0:	00001400 	andeq	r1, r0, r0, lsl #8
    36a4:	389c0100 	ldmcc	ip, {r8}
    36a8:	0b000002 	bleq	36b8 <__code_start__-0x4948>
    36ac:	000092e8 	andeq	r9, r0, r8, ror #5
    36b0:	00000244 	andeq	r0, r0, r4, asr #4
    36b4:	0550010c 	ldrbeq	r0, [r0, #-268]	; 0xfffffef4
    36b8:	0030040c 	eorseq	r0, r0, ip, lsl #8
    36bc:	11000020 	tstne	r0, r0, lsr #32
    36c0:	0000047b 	andeq	r0, r0, fp, ror r4
    36c4:	0000047b 	andeq	r0, r0, fp, ror r4
    36c8:	1106a102 	tstne	r6, r2, lsl #2
    36cc:	000008dc 	ldrdeq	r0, [r0], -ip
    36d0:	000008dc 	ldrdeq	r0, [r0], -ip
    36d4:	000ac702 	andeq	ip, sl, r2, lsl #14
    36d8:	000003a5 	andeq	r0, r0, r5, lsr #7
    36dc:	0e2a0004 	cdpeq	0, 2, cr0, cr10, cr4, {0}
    36e0:	01040000 	mrseq	r0, (UNDEF: 4)
    36e4:	00000265 	andeq	r0, r0, r5, ror #4
    36e8:	0009b80c 	andeq	fp, r9, ip, lsl #16
    36ec:	00094600 	andeq	r4, r9, r0, lsl #12
    36f0:	00936000 	addseq	r6, r3, r0
    36f4:	00011c00 	andeq	r1, r1, r0, lsl #24
    36f8:	00177d00 	andseq	r7, r7, r0, lsl #26
    36fc:	05040200 	streq	r0, [r4, #-512]	; 0xfffffe00
    3700:	00746e69 	rsbseq	r6, r4, r9, ror #28
    3704:	eb070403 	bl	1c4718 <__bss_end__+0x1ba770>
    3708:	04000000 	streq	r0, [r0], #-0
    370c:	0000002c 	andeq	r0, r0, ip, lsr #32
    3710:	85060103 	strhi	r0, [r6, #-259]	; 0xfffffefd
    3714:	03000000 	movweq	r0, #0
    3718:	01120502 	tsteq	r2, r2, lsl #10
    371c:	04030000 	streq	r0, [r3], #-0
    3720:	0000fd05 	andeq	pc, r0, r5, lsl #26
    3724:	05080300 	streq	r0, [r8, #-768]	; 0xfffffd00
    3728:	000000f8 	strdeq	r0, [r0], -r8
    372c:	83080103 	movwhi	r0, #33027	; 0x8103
    3730:	03000000 	movweq	r0, #0
    3734:	00a70702 	adceq	r0, r7, r2, lsl #14
    3738:	3a050000 	bcc	143740 <__bss_end__+0x139798>
    373c:	03000003 	movweq	r0, #3
    3740:	006e1934 	rsbeq	r1, lr, r4, lsr r9
    3744:	04030000 	streq	r0, [r3], #-0
    3748:	0000e607 	andeq	lr, r0, r7, lsl #12
    374c:	07080300 	streq	r0, [r8, -r0, lsl #6]
    3750:	000000e1 	andeq	r0, r0, r1, ror #1
    3754:	8c080103 	stfhis	f0, [r8], {3}
    3758:	06000000 	streq	r0, [r0], -r0
    375c:	00540107 	subseq	r0, r4, r7, lsl #2
    3760:	0c040000 	stceq	0, cr0, [r4], {-0}
    3764:	0000c20e 	andeq	ip, r0, lr, lsl #4
    3768:	04430700 	strbeq	r0, [r3], #-1792	; 0xfffff900
    376c:	07000000 	streq	r0, [r0, -r0]
    3770:	00000394 	muleq	r0, r4, r3
    3774:	03ad0701 			; <UNDEFINED> instruction: 0x03ad0701
    3778:	07040000 	streq	r0, [r4, -r0]
    377c:	000003bc 			; <UNDEFINED> instruction: 0x000003bc
    3780:	03cb0705 	biceq	r0, fp, #1310720	; 0x140000
    3784:	07060000 	streq	r0, [r6, -r0]
    3788:	000003da 	ldrdeq	r0, [r0], -sl
    378c:	03e90707 	mvneq	r0, #1835008	; 0x1c0000
    3790:	07030000 	streq	r0, [r3, -r0]
    3794:	000003f8 	strdeq	r0, [r0], -r8
    3798:	9d050002 	stcls	0, cr0, [r5, #-8]
    379c:	04000009 	streq	r0, [r0], #-9
    37a0:	00830315 	addeq	r0, r3, r5, lsl r3
    37a4:	0e080000 	cdpeq	0, 0, cr0, cr8, cr0, {0}
    37a8:	01000009 	tsteq	r0, r9
    37ac:	0033171d 	eorseq	r1, r3, sp, lsl r7
    37b0:	001c0000 	andseq	r0, ip, r0
    37b4:	04082020 	streq	r2, [r8], #-32	; 0xffffffe0
    37b8:	01000009 	tsteq	r0, r9
    37bc:	0033171e 	eorseq	r1, r3, lr, lsl r7
    37c0:	00280000 	eoreq	r0, r8, r0
    37c4:	a9082020 	stmdbge	r8, {r5, sp}
    37c8:	01000009 	tsteq	r0, r9
    37cc:	0033171f 	eorseq	r1, r3, pc, lsl r7
    37d0:	00340000 	eorseq	r0, r4, r0
    37d4:	2d092020 	stccs	0, cr2, [r9, #-128]	; 0xffffff80
    37d8:	01000009 	tsteq	r0, r9
    37dc:	00250555 	eoreq	r0, r5, r5, asr r5
    37e0:	94480000 	strbls	r0, [r8], #-0
    37e4:	00340000 	eorseq	r0, r4, r0
    37e8:	9c010000 	stcls	0, cr0, [r1], {-0}
    37ec:	0000016e 	andeq	r0, r0, lr, ror #2
    37f0:	6e69700a 	cdpvs	0, 6, cr7, cr9, cr10, {0}
    37f4:	18550100 	ldmdane	r5, {r8}^
    37f8:	0000002c 	andeq	r0, r0, ip, lsr #32
    37fc:	000011cf 	andeq	r1, r0, pc, asr #3
    3800:	000011c7 	andeq	r1, r0, r7, asr #3
    3804:	0009b30b 	andeq	fp, r9, fp, lsl #6
    3808:	0e580100 	rdfeqe	f0, f0, f0
    380c:	0000002c 	andeq	r0, r0, ip, lsr #32
    3810:	0000120f 	andeq	r1, r0, pc, lsl #4
    3814:	00001209 	andeq	r1, r0, r9, lsl #4
    3818:	66666f0c 	strbtvs	r6, [r6], -ip, lsl #30
    381c:	0e590100 	rdfeqe	f0, f1, f0
    3820:	0000002c 	andeq	r0, r0, ip, lsr #32
    3824:	0000124f 	andeq	r1, r0, pc, asr #4
    3828:	0000124d 	andeq	r1, r0, sp, asr #4
    382c:	0094640d 	addseq	r6, r4, sp, lsl #8
    3830:	00039000 	andeq	r9, r3, r0
    3834:	50010e00 	andpl	r0, r1, r0, lsl #28
    3838:	5001f30b 	andpl	pc, r1, fp, lsl #6
    383c:	b4232535 	strtlt	r2, [r3], #-1333	; 0xfffffacb
    3840:	02818080 	addeq	r8, r1, #128, 0	; 0x80
    3844:	180f0000 	stmdane	pc, {}	; <UNPREDICTABLE>
    3848:	01000009 	tsteq	r0, r9
    384c:	942c064e 	strtls	r0, [ip], #-1614	; 0xfffff9b2
    3850:	001c0000 	andseq	r0, ip, r0
    3854:	9c010000 	stcls	0, cr0, [r1], {-0}
    3858:	000001c9 	andeq	r0, r0, r9, asr #3
    385c:	6e69700a 	cdpvs	0, 6, cr7, cr9, cr10, {0}
    3860:	1a4e0100 	bne	1383c68 <__bss_end__+0x1379cc0>
    3864:	0000002c 	andeq	r0, r0, ip, lsr #32
    3868:	0000126a 	andeq	r1, r0, sl, ror #4
    386c:	00001262 	andeq	r1, r0, r2, ror #4
    3870:	0100760a 	tsteq	r0, sl, lsl #12
    3874:	002c284e 	eoreq	r2, ip, lr, asr #16
    3878:	12ac0000 	adcne	r0, ip, #0, 0
    387c:	12a40000 	adcne	r0, r4, #0, 0
    3880:	3c100000 	ldccc	0, cr0, [r0], {-0}
    3884:	51000094 	swppl	r0, r4, [r0]	; <UNPREDICTABLE>
    3888:	bf000002 	svclt	0x00000002
    388c:	0e000001 	cdpeq	0, 0, cr0, cr0, cr1, {0}
    3890:	f3035001 	vhadd.u8	d5, d3, d1
    3894:	11005001 	tstne	r0, r1
    3898:	00009444 	andeq	r9, r0, r4, asr #8
    389c:	0000020a 	andeq	r0, r0, sl, lsl #4
    38a0:	09370f00 	ldmdbeq	r7!, {r8, r9, sl, fp}
    38a4:	49010000 	stmdbmi	r1, {}	; <UNPREDICTABLE>
    38a8:	00941c06 	addseq	r1, r4, r6, lsl #24
    38ac:	00001000 	andeq	r1, r0, r0
    38b0:	0a9c0100 	beq	fe703cb8 <__bss_end__+0xfe6f9d10>
    38b4:	0a000002 	beq	38c4 <__code_start__-0x473c>
    38b8:	006e6970 	rsbeq	r6, lr, r0, ror r9
    38bc:	2c1e4901 			; <UNDEFINED> instruction: 0x2c1e4901
    38c0:	ea000000 	b	38c8 <__code_start__-0x4738>
    38c4:	e6000012 			; <UNDEFINED> instruction: 0xe6000012
    38c8:	0d000012 	stceq	0, cr0, [r0, #-72]	; 0xffffffb8
    38cc:	00009428 	andeq	r9, r0, r8, lsr #8
    38d0:	000002d9 	ldrdeq	r0, [r0], -r9
    38d4:	0350010e 	cmpeq	r0, #-2147483645	; 0x80000003
    38d8:	0e5001f3 	mrceq	1, 2, r0, cr0, cr3, {7}
    38dc:	30015101 	andcc	r5, r1, r1, lsl #2
    38e0:	7b0f0000 	blvc	3c38e8 <__bss_end__+0x3b9940>
    38e4:	01000009 	tsteq	r0, r9
    38e8:	93f80642 	mvnsls	r0, #69206016	; 0x4200000
    38ec:	00240000 	eoreq	r0, r4, r0
    38f0:	9c010000 	stcls	0, cr0, [r1], {-0}
    38f4:	00000251 	andeq	r0, r0, r1, asr r2
    38f8:	6e69700a 	cdpvs	0, 6, cr7, cr9, cr10, {0}
    38fc:	1c420100 	stfnee	f0, [r2], {-0}
    3900:	0000002c 	andeq	r0, r0, ip, lsr #32
    3904:	0000130f 	andeq	r1, r0, pc, lsl #6
    3908:	0000130b 	andeq	r1, r0, fp, lsl #6
    390c:	0094140d 	addseq	r1, r4, sp, lsl #8
    3910:	00039c00 	andeq	r9, r3, r0, lsl #24
    3914:	50010e00 	andpl	r0, r1, r0, lsl #28
    3918:	00280c05 	eoreq	r0, r8, r5, lsl #24
    391c:	010e2020 	tsteq	lr, r0, lsr #32
    3920:	f3310551 	vqrshl.u64	q0, <illegal reg q0.5>, <illegal reg q0.5>
    3924:	00245001 	eoreq	r5, r4, r1
    3928:	09bf0f00 	ldmibeq	pc!, {r8, r9, sl, fp}	; <UNPREDICTABLE>
    392c:	3b010000 	blcc	43934 <__bss_end__+0x3998c>
    3930:	0093d406 	addseq	sp, r3, r6, lsl #8
    3934:	00002400 	andeq	r2, r0, r0, lsl #8
    3938:	989c0100 	ldmls	ip, {r8}
    393c:	0a000002 	beq	394c <__code_start__-0x46b4>
    3940:	006e6970 	rsbeq	r6, lr, r0, ror r9
    3944:	2c1b3b01 			; <UNDEFINED> instruction: 0x2c1b3b01
    3948:	34000000 	strcc	r0, [r0], #-0
    394c:	30000013 	andcc	r0, r0, r3, lsl r0
    3950:	0d000013 	stceq	0, cr0, [r0, #-76]	; 0xffffffb4
    3954:	000093f0 	strdeq	r9, [r0], -r0
    3958:	0000039c 	muleq	r0, ip, r3
    395c:	0550010e 	ldrbeq	r0, [r0, #-270]	; 0xfffffef2
    3960:	20001c0c 	andcs	r1, r0, ip, lsl #24
    3964:	51010e20 	tstpl	r1, r0, lsr #28
    3968:	01f33105 	mvnseq	r3, r5, lsl #2
    396c:	00002450 	andeq	r2, r0, r0, asr r4
    3970:	0009880f 	andeq	r8, r9, pc, lsl #16
    3974:	06360100 	ldrteq	r0, [r6], -r0, lsl #2
    3978:	000093c4 	andeq	r9, r0, r4, asr #7
    397c:	00000010 	andeq	r0, r0, r0, lsl r0
    3980:	02d99c01 	sbcseq	r9, r9, #256	; 0x100
    3984:	700a0000 	andvc	r0, sl, r0
    3988:	01006e69 	tsteq	r0, r9, ror #28
    398c:	002c1f36 	eoreq	r1, ip, r6, lsr pc
    3990:	13590000 	cmpne	r9, #0, 0
    3994:	13550000 	cmpne	r5, #0, 0
    3998:	d00d0000 	andle	r0, sp, r0
    399c:	d9000093 	stmdble	r0, {r0, r1, r4, r7}
    39a0:	0e000002 	cdpeq	0, 0, cr0, cr0, cr2, {0}
    39a4:	f3035001 	vhadd.u8	d5, d3, d1
    39a8:	010e5001 	tsteq	lr, r1
    39ac:	00310151 	eorseq	r0, r1, r1, asr r1
    39b0:	04d40f00 	ldrbeq	r0, [r4], #3840	; 0xf00
    39b4:	28010000 	stmdacs	r1, {}	; <UNPREDICTABLE>
    39b8:	00936006 	addseq	r6, r3, r6
    39bc:	00006400 	andeq	r6, r0, r0, lsl #8
    39c0:	749c0100 	ldrvc	r0, [ip], #256	; 0x100
    39c4:	0a000003 	beq	39d8 <__code_start__-0x4628>
    39c8:	006e6970 	rsbeq	r6, lr, r0, ror r9
    39cc:	2c212801 	stccs	8, cr2, [r1], #-4
    39d0:	7e000000 	cdpvc	0, 0, cr0, cr0, cr0, {0}
    39d4:	7a000013 	bvc	3a28 <__code_start__-0x45d8>
    39d8:	12000013 	andne	r0, r0, #19, 0
    39dc:	00000998 	muleq	r0, r8, r9
    39e0:	c2322801 	eorsgt	r2, r2, #65536	; 0x10000
    39e4:	a3000000 	movwge	r0, #0
    39e8:	9f000013 	svcls	0x00000013
    39ec:	0c000013 	stceq	0, cr0, [r0], {19}
    39f0:	0066666f 	rsbeq	r6, r6, pc, ror #12
    39f4:	2c0e2d01 	stccs	13, cr2, [lr], {1}
    39f8:	c6000000 	strgt	r0, [r0], -r0
    39fc:	c4000013 	strgt	r0, [r0], #-19	; 0xffffffed
    3a00:	0c000013 	stceq	0, cr0, [r0], {19}
    3a04:	2e010067 	cdpcs	0, 0, cr0, cr1, cr7, {3}
    3a08:	00002c0e 	andeq	r2, r0, lr, lsl #24
    3a0c:	0013db00 	andseq	sp, r3, r0, lsl #22
    3a10:	0013d900 	andseq	sp, r3, r0, lsl #18
    3a14:	00760c00 	rsbseq	r0, r6, r0, lsl #24
    3a18:	2c0e3001 	stccs	0, cr3, [lr], {1}
    3a1c:	f6000000 			; <UNDEFINED> instruction: 0xf6000000
    3a20:	ee000013 	mcr	0, 0, r0, cr0, cr3, {0}
    3a24:	10000013 	andne	r0, r0, r3, lsl r0
    3a28:	000093a8 	andeq	r9, r0, r8, lsr #7
    3a2c:	00000390 	muleq	r0, r0, r3
    3a30:	00000363 	andeq	r0, r0, r3, ror #6
    3a34:	0250010e 	subseq	r0, r0, #-2147483645	; 0x80000003
    3a38:	0d000076 	stceq	0, cr0, [r0, #-472]	; 0xfffffe28
    3a3c:	000093bc 			; <UNDEFINED> instruction: 0x000093bc
    3a40:	0000039c 	muleq	r0, ip, r3
    3a44:	0250010e 	subseq	r0, r0, #-2147483645	; 0x80000003
    3a48:	00000076 	andeq	r0, r0, r6, ror r0
    3a4c:	00092313 	andeq	r2, r9, r3, lsl r3
    3a50:	18b60200 	ldmne	r6!, {r9}
    3a54:	00000062 	andeq	r0, r0, r2, rrx
    3a58:	00039003 	andeq	r9, r3, r3
    3a5c:	00781400 	rsbseq	r1, r8, r0, lsl #8
    3a60:	622bb602 	eorvs	fp, fp, #2097152	; 0x200000
    3a64:	00000000 	andeq	r0, r0, r0
    3a68:	0008dc15 	andeq	sp, r8, r5, lsl ip
    3a6c:	0008dc00 	andeq	sp, r8, r0, lsl #24
    3a70:	0ac70200 	beq	ff1c4278 <__bss_end__+0xff1ba2d0>
    3a74:	00085415 	andeq	r5, r8, r5, lsl r4
    3a78:	00085400 	andeq	r5, r8, r0, lsl #8
    3a7c:	06b20200 	ldrteq	r0, [r2], r0, lsl #4
    3a80:	0005cd00 	andeq	ip, r5, r0, lsl #26
    3a84:	87000400 	strhi	r0, [r0, -r0, lsl #8]
    3a88:	0400000f 	streq	r0, [r0], #-15
    3a8c:	00026501 	andeq	r6, r2, r1, lsl #10
    3a90:	09f30c00 	ldmibeq	r3!, {sl, fp}^
    3a94:	09460000 	stmdbeq	r6, {}^	; <UNPREDICTABLE>
    3a98:	947c0000 	ldrbtls	r0, [ip], #-0
    3a9c:	01f00000 	mvnseq	r0, r0
    3aa0:	193c0000 	ldmdbne	ip!, {}	; <UNPREDICTABLE>
    3aa4:	04020000 	streq	r0, [r2], #-0
    3aa8:	746e6905 	strbtvc	r6, [lr], #-2309	; 0xfffff6fb
    3aac:	07040300 	streq	r0, [r4, -r0, lsl #6]
    3ab0:	000000eb 	andeq	r0, r0, fp, ror #1
    3ab4:	00002c04 	andeq	r2, r0, r4, lsl #24
    3ab8:	06010300 	streq	r0, [r1], -r0, lsl #6
    3abc:	00000085 	andeq	r0, r0, r5, lsl #1
    3ac0:	12050203 	andne	r0, r5, #805306368	; 0x30000000
    3ac4:	03000001 	movweq	r0, #1
    3ac8:	00fd0504 	rscseq	r0, sp, r4, lsl #10
    3acc:	08030000 	stmdaeq	r3, {}	; <UNPREDICTABLE>
    3ad0:	0000f805 	andeq	pc, r0, r5, lsl #16
    3ad4:	08010300 	stmdaeq	r1, {r8, r9}
    3ad8:	00000083 	andeq	r0, r0, r3, lsl #1
    3adc:	a7070203 	strge	r0, [r7, -r3, lsl #4]
    3ae0:	05000000 	streq	r0, [r0, #-0]
    3ae4:	0000033a 	andeq	r0, r0, sl, lsr r3
    3ae8:	6e193405 	cfmulsvs	mvf3, mvf9, mvf5
    3aec:	03000000 	movweq	r0, #0
    3af0:	00e60704 	rsceq	r0, r6, r4, lsl #14
    3af4:	08030000 	stmdaeq	r3, {}	; <UNPREDICTABLE>
    3af8:	0000e107 	andeq	lr, r0, r7, lsl #2
    3afc:	08010300 	stmdaeq	r1, {r8, r9}
    3b00:	0000008c 	andeq	r0, r0, ip, lsl #1
    3b04:	54010706 	strpl	r0, [r1], #-1798	; 0xfffff8fa
    3b08:	04000000 	streq	r0, [r0], #-0
    3b0c:	00c20e0c 	sbceq	r0, r2, ip, lsl #28
    3b10:	43070000 	movwmi	r0, #28672	; 0x7000
    3b14:	00000004 	andeq	r0, r0, r4
    3b18:	00039407 	andeq	r9, r3, r7, lsl #8
    3b1c:	ad070100 	stfges	f0, [r7, #-0]
    3b20:	04000003 	streq	r0, [r0], #-3
    3b24:	0003bc07 	andeq	fp, r3, r7, lsl #24
    3b28:	cb070500 	blgt	1c4f30 <__bss_end__+0x1baf88>
    3b2c:	06000003 	streq	r0, [r0], -r3
    3b30:	0003da07 	andeq	sp, r3, r7, lsl #20
    3b34:	e9070700 	stmdb	r7, {r8, r9, sl}
    3b38:	03000003 	movweq	r0, #3
    3b3c:	0003f807 	andeq	pc, r3, r7, lsl #16
    3b40:	08000200 	stmdaeq	r0, {r9}
    3b44:	000009e7 	andeq	r0, r0, r7, ror #19
    3b48:	0806022c 	stmdaeq	r6, {r2, r3, r5, r9}
    3b4c:	0000015e 	andeq	r0, r0, lr, asr r1
    3b50:	006f6909 	rsbeq	r6, pc, r9, lsl #18
    3b54:	33090902 	movwcc	r0, #39170	; 0x9902
    3b58:	00000000 	andeq	r0, r0, r0
    3b5c:	72656909 	rsbvc	r6, r5, #147456	; 0x24000
    3b60:	090a0200 	stmdbeq	sl, {r9}
    3b64:	00000033 	andeq	r0, r0, r3, lsr r0
    3b68:	69690904 	stmdbvs	r9!, {r2, r8, fp}^
    3b6c:	11020072 	tstne	r2, r2, ror r0
    3b70:	00003309 	andeq	r3, r0, r9, lsl #6
    3b74:	6c090800 	stcvs	8, cr0, [r9], {-0}
    3b78:	02007263 	andeq	r7, r0, #805306374	; 0x30000006
    3b7c:	00330913 	eorseq	r0, r3, r3, lsl r9
    3b80:	090c0000 	stmdbeq	ip, {}	; <UNPREDICTABLE>
    3b84:	0072636d 	rsbseq	r6, r2, sp, ror #6
    3b88:	33091402 	movwcc	r1, #37890	; 0x9402
    3b8c:	10000000 	andne	r0, r0, r0
    3b90:	72736c09 	rsbsvc	r6, r3, #2304	; 0x900
    3b94:	09150200 	ldmdbeq	r5, {r9}
    3b98:	00000033 	andeq	r0, r0, r3, lsr r0
    3b9c:	736d0914 	cmnvc	sp, #20, 18	; 0x50000
    3ba0:	16020072 			; <UNDEFINED> instruction: 0x16020072
    3ba4:	00003309 	andeq	r3, r0, r9, lsl #6
    3ba8:	5c0a1800 	stcpl	8, cr1, [sl], {-0}
    3bac:	0200000a 	andeq	r0, r0, #10, 0
    3bb0:	00330917 	eorseq	r0, r3, r7, lsl r9
    3bb4:	0a1c0000 	beq	703bbc <__bss_end__+0x6f9c14>
    3bb8:	00000a34 	andeq	r0, r0, r4, lsr sl
    3bbc:	33091b02 	movwcc	r1, #39682	; 0x9b02
    3bc0:	20000000 	andcs	r0, r0, r0
    3bc4:	0009d40a 	andeq	sp, r9, sl, lsl #8
    3bc8:	091d0200 	ldmdbeq	sp, {r9}
    3bcc:	00000033 	andeq	r0, r0, r3, lsr r0
    3bd0:	0a190a24 	beq	646468 <__bss_end__+0x63c4c0>
    3bd4:	1e020000 	cdpne	0, 0, cr0, cr2, cr0, {0}
    3bd8:	00003309 	andeq	r3, r0, r9, lsl #6
    3bdc:	0b002800 	bleq	dbe4 <__bss_end__+0x3c3c>
    3be0:	00000a1e 	andeq	r0, r0, lr, lsl sl
    3be4:	74090801 	strvc	r0, [r9], #-2049	; 0xfffff7ff
    3be8:	04000001 	streq	r0, [r0], #-1
    3bec:	0c202150 	stfeqs	f2, [r0], #-320	; 0xfffffec0
    3bf0:	00003304 	andeq	r3, r0, r4, lsl #6
    3bf4:	016e0d00 	cmneq	lr, r0, lsl #26
    3bf8:	640b0000 	strvs	r0, [fp], #-0
    3bfc:	0100000a 	tsteq	r0, sl
    3c00:	018f2329 	orreq	r2, pc, r9, lsr #6
    3c04:	50400000 	subpl	r0, r0, r0
    3c08:	040c2021 	streq	r2, [ip], #-33	; 0xffffffdf
    3c0c:	000000c2 	andeq	r0, r0, r2, asr #1
    3c10:	0001890d 	andeq	r8, r1, sp, lsl #18
    3c14:	07d60e00 	ldrbeq	r0, [r6, r0, lsl #28]
    3c18:	cc010000 	stcgt	0, cr0, [r1], {-0}
    3c1c:	00963406 	addseq	r3, r6, r6, lsl #8
    3c20:	00001400 	andeq	r1, r0, r0, lsl #8
    3c24:	b49c0100 	ldrlt	r0, [ip], #256	; 0x100
    3c28:	0f000001 	svceq	0x00000001
    3c2c:	0000963c 	andeq	r9, r0, ip, lsr r6
    3c30:	000001b4 			; <UNDEFINED> instruction: 0x000001b4
    3c34:	0a081000 	beq	207c3c <__bss_end__+0x1fdc94>
    3c38:	b6010000 	strlt	r0, [r1], -r0
    3c3c:	00002505 	andeq	r2, r0, r5, lsl #10
    3c40:	00961400 	addseq	r1, r6, r0, lsl #8
    3c44:	00002000 	andeq	r2, r0, r0
    3c48:	eb9c0100 	bl	fe704050 <__bss_end__+0xfe6fa0a8>
    3c4c:	0f000001 	svceq	0x00000001
    3c50:	0000961c 	andeq	r9, r0, ip, lsl r6
    3c54:	000005a0 	andeq	r0, r0, r0, lsr #11
    3c58:	00962411 	addseq	r2, r6, r1, lsl r4
    3c5c:	0005ac00 	andeq	sl, r5, r0, lsl #24
    3c60:	50011200 	andpl	r1, r1, r0, lsl #4
    3c64:	50640c05 	rsbpl	r0, r4, r5, lsl #24
    3c68:	00002021 	andeq	r2, r0, r1, lsr #32
    3c6c:	000a4610 	andeq	r4, sl, r0, lsl r6
    3c70:	05b30100 	ldreq	r0, [r3, #256]!	; 0x100
    3c74:	00000025 	andeq	r0, r0, r5, lsr #32
    3c78:	00009604 	andeq	r9, r0, r4, lsl #12
    3c7c:	00000010 	andeq	r0, r0, r0, lsl r0
    3c80:	02189c01 	andseq	r9, r8, #256	; 0x100
    3c84:	0c0f0000 	stceq	0, cr0, [pc], {-0}
    3c88:	a0000096 	mulge	r0, r6, r0
    3c8c:	0f000005 	svceq	0x00000005
    3c90:	00009610 	andeq	r9, r0, r0, lsl r6
    3c94:	00000309 	andeq	r0, r0, r9, lsl #6
    3c98:	0a720e00 	beq	1c874a0 <__bss_end__+0x1c7d4f8>
    3c9c:	ab010000 	blge	43ca4 <__bss_end__+0x39cfc>
    3ca0:	0095d406 	addseq	sp, r5, r6, lsl #8
    3ca4:	00003000 	andeq	r3, r0, r0
    3ca8:	7c9c0100 	ldfvcs	f0, [ip], {0}
    3cac:	13000002 	movwne	r0, #2
    3cb0:	ab010063 	blge	43e44 <__bss_end__+0x39e9c>
    3cb4:	00002c19 	andeq	r2, r0, r9, lsl ip
    3cb8:	00143600 	andseq	r3, r4, r0, lsl #12
    3cbc:	00143200 	andseq	r3, r4, r0, lsl #4
    3cc0:	95e00f00 	strbls	r0, [r0, #3840]!	; 0xf00
    3cc4:	05a00000 	streq	r0, [r0, #0]!
    3cc8:	e40f0000 	str	r0, [pc], #-0	; 3cd0 <__code_start__-0x4330>
    3ccc:	db000095 	blle	3f28 <__code_start__-0x40d8>
    3cd0:	14000002 	strne	r0, [r0], #-2
    3cd4:	000095f8 	strdeq	r9, [r0], -r8
    3cd8:	000005b8 			; <UNDEFINED> instruction: 0x000005b8
    3cdc:	00000272 	andeq	r0, r0, r2, ror r2
    3ce0:	05500112 	ldrbeq	r0, [r0, #-274]	; 0xfffffeee
    3ce4:	2150400c 	cmpcs	r0, ip
    3ce8:	51011220 	tstpl	r1, r0, lsr #4
    3cec:	08007405 	stmdaeq	r0, {r0, r2, sl, ip, sp, lr}
    3cf0:	0f001aff 	svceq	0x00001aff
    3cf4:	000095fc 	strdeq	r9, [r0], -ip
    3cf8:	000005a0 	andeq	r0, r0, r0, lsr #11
    3cfc:	0a2a1000 	beq	a87d04 <__bss_end__+0xa7dd5c>
    3d00:	a3010000 	movwge	r0, #4096	; 0x1000
    3d04:	00002505 	andeq	r2, r0, r5, lsl #10
    3d08:	0095a400 	addseq	sl, r5, r0, lsl #8
    3d0c:	00003000 	andeq	r3, r0, r0
    3d10:	db9c0100 	blle	fe704118 <__bss_end__+0xfe6fa170>
    3d14:	15000002 	strne	r0, [r0, #-2]
    3d18:	a7010063 	strge	r0, [r1, -r3, rrx]
    3d1c:	00002509 	andeq	r2, r0, r9, lsl #10
    3d20:	00145600 	andseq	r5, r4, r0, lsl #12
    3d24:	00145400 	andseq	r5, r4, r0, lsl #8
    3d28:	95ac0f00 	strls	r0, [ip, #3840]!	; 0xf00
    3d2c:	05a00000 	streq	r0, [r0, #0]!
    3d30:	b00f0000 	andlt	r0, pc, r0
    3d34:	09000095 	stmdbeq	r0, {r0, r2, r4, r7}
    3d38:	14000003 	strne	r0, [r0], #-3
    3d3c:	000095c0 	andeq	r9, r0, r0, asr #11
    3d40:	000005ac 	andeq	r0, r0, ip, lsr #11
    3d44:	000002d1 	ldrdeq	r0, [r0], -r1
    3d48:	05500112 	ldrbeq	r0, [r0, #-274]	; 0xfffffeee
    3d4c:	2150400c 	cmpcs	r0, ip
    3d50:	c80f0020 	stmdagt	pc, {r5}	; <UNPREDICTABLE>
    3d54:	a0000095 	mulge	r0, r5, r0
    3d58:	00000005 	andeq	r0, r0, r5
    3d5c:	0009fa10 	andeq	pc, r9, r0, lsl sl	; <UNPREDICTABLE>
    3d60:	05940100 	ldreq	r0, [r4, #256]	; 0x100
    3d64:	00000025 	andeq	r0, r0, r5, lsr #32
    3d68:	00009584 	andeq	r9, r0, r4, lsl #11
    3d6c:	00000020 	andeq	r0, r0, r0, lsr #32
    3d70:	03099c01 	movweq	r9, #39937	; 0x9c01
    3d74:	90110000 	andsls	r0, r1, r0
    3d78:	ac000095 	stcge	0, cr0, [r0], {149}	; 0x95
    3d7c:	12000005 	andne	r0, r0, #5, 0
    3d80:	0c055001 	stceq	0, cr5, [r5], {1}
    3d84:	20215064 	eorcs	r5, r1, r4, rrx
    3d88:	d9100000 	ldmdble	r0, {}	; <UNPREDICTABLE>
    3d8c:	01000009 	tsteq	r0, r9
    3d90:	0025058b 	eoreq	r0, r5, fp, lsl #11
    3d94:	956c0000 	strbls	r0, [ip, #-0]!
    3d98:	00180000 	andseq	r0, r8, r0
    3d9c:	9c010000 	stcls	0, cr0, [r1], {-0}
    3da0:	00000337 	andeq	r0, r0, r7, lsr r3
    3da4:	00957811 	addseq	r7, r5, r1, lsl r8
    3da8:	0005ac00 	andeq	sl, r5, r0, lsl #24
    3dac:	50011200 	andpl	r1, r1, r0, lsl #4
    3db0:	50640c05 	rsbpl	r0, r4, r5, lsl #24
    3db4:	00002021 	andeq	r2, r0, r1, lsr #32
    3db8:	0007f40e 	andeq	pc, r7, lr, lsl #8
    3dbc:	06450100 	strbeq	r0, [r5], -r0, lsl #2
    3dc0:	000094bc 			; <UNDEFINED> instruction: 0x000094bc
    3dc4:	000000b0 	strheq	r0, [r0], -r0	; <UNPREDICTABLE>
    3dc8:	04849c01 	streq	r9, [r4], #3073	; 0xc01
    3dcc:	cb160000 	blgt	583dd4 <__bss_end__+0x579e2c>
    3dd0:	01000009 	tsteq	r0, r9
    3dd4:	00620e7e 	rsbeq	r0, r2, lr, ror lr
    3dd8:	010e0000 	mrseq	r0, (UNDEF: 14)
    3ddc:	0094cc14 	addseq	ip, r4, r4, lsl ip
    3de0:	0005c400 	andeq	ip, r5, r0, lsl #8
    3de4:	00037300 	andeq	r7, r3, r0, lsl #6
    3de8:	50011200 	andpl	r1, r1, r0, lsl #4
    3dec:	01123e01 	tsteq	r2, r1, lsl #28
    3df0:	00320151 	eorseq	r0, r2, r1, asr r1
    3df4:	0094d814 	addseq	sp, r4, r4, lsl r8
    3df8:	0005c400 	andeq	ip, r5, r0, lsl #8
    3dfc:	00038b00 	andeq	r8, r3, r0, lsl #22
    3e00:	50011200 	andpl	r1, r1, r0, lsl #4
    3e04:	01123f01 	tsteq	r2, r1, lsl #30
    3e08:	00320151 	eorseq	r0, r2, r1, asr r1
    3e0c:	0094dc0f 	addseq	sp, r4, pc, lsl #24
    3e10:	0005a000 	andeq	sl, r5, r0
    3e14:	94e81400 	strbtls	r1, [r8], #1024	; 0x400
    3e18:	053d0000 	ldreq	r0, [sp, #-0]!
    3e1c:	03b00000 	movseq	r0, #0, 0
    3e20:	01120000 	tsteq	r2, r0
    3e24:	040c0550 	streq	r0, [ip], #-1360	; 0xfffffab0
    3e28:	12202150 	eorne	r2, r0, #20
    3e2c:	31015101 	tstcc	r1, r1, lsl #2
    3e30:	94ec0f00 	strbtls	r0, [ip], #3840	; 0xf00
    3e34:	05a00000 	streq	r0, [r0, #0]!
    3e38:	fc140000 	ldc2	0, cr0, [r4], {-0}
    3e3c:	b8000094 	stmdalt	r0, {r2, r4, r7}
    3e40:	d2000005 	andle	r0, r0, #5, 0
    3e44:	12000003 	andne	r0, r0, #3, 0
    3e48:	74025001 	strvc	r5, [r2], #-1
    3e4c:	51011200 	mrspl	r1, R9_usr
    3e50:	14003001 	strne	r3, [r0], #-1
    3e54:	00009508 	andeq	r9, r0, r8, lsl #10
    3e58:	000005b8 			; <UNDEFINED> instruction: 0x000005b8
    3e5c:	000003ee 	andeq	r0, r0, lr, ror #7
    3e60:	05500112 	ldrbeq	r0, [r0, #-274]	; 0xfffffeee
    3e64:	2150440c 	cmpcs	r0, ip, lsl #8
    3e68:	51011220 	tstpl	r1, r0, lsr #4
    3e6c:	14003001 	strne	r3, [r0], #-1
    3e70:	00009514 	andeq	r9, r0, r4, lsl r5
    3e74:	000005b8 			; <UNDEFINED> instruction: 0x000005b8
    3e78:	0000040a 	andeq	r0, r0, sl, lsl #8
    3e7c:	05500112 	ldrbeq	r0, [r0, #-274]	; 0xfffffeee
    3e80:	21504c0c 	cmpcs	r0, ip, lsl #24
    3e84:	51011220 	tstpl	r1, r0, lsr #4
    3e88:	14003301 	strne	r3, [r0], #-769	; 0xfffffcff
    3e8c:	00009520 	andeq	r9, r0, r0, lsr #10
    3e90:	000005b8 			; <UNDEFINED> instruction: 0x000005b8
    3e94:	00000426 	andeq	r0, r0, r6, lsr #8
    3e98:	05500112 	ldrbeq	r0, [r0, #-274]	; 0xfffffeee
    3e9c:	2150500c 	cmpcs	r0, ip
    3ea0:	51011220 	tstpl	r1, r0, lsr #4
    3ea4:	14003001 	strne	r3, [r0], #-1
    3ea8:	0000952c 	andeq	r9, r0, ip, lsr #10
    3eac:	000005b8 			; <UNDEFINED> instruction: 0x000005b8
    3eb0:	00000443 	andeq	r0, r0, r3, asr #8
    3eb4:	05500112 	ldrbeq	r0, [r0, #-274]	; 0xfffffeee
    3eb8:	2150480c 	cmpcs	r0, ip, lsl #16
    3ebc:	51011220 	tstpl	r1, r0, lsr #4
    3ec0:	00c70802 	sbceq	r0, r7, r2, lsl #16
    3ec4:	00953814 	addseq	r3, r5, r4, lsl r8
    3ec8:	0005b800 	andeq	fp, r5, r0, lsl #16
    3ecc:	00046100 	andeq	r6, r4, r0, lsl #2
    3ed0:	50011200 	andpl	r1, r1, r0, lsl #4
    3ed4:	50680c05 	rsbpl	r0, r8, r5, lsl #24
    3ed8:	01122021 	tsteq	r2, r1, lsr #32
    3edc:	0e0a0351 	mcreq	3, 0, r0, cr10, cr1, {2}
    3ee0:	44140001 	ldrmi	r0, [r4], #-1
    3ee4:	b8000095 	stmdalt	r0, {r0, r2, r4, r7}
    3ee8:	7a000005 	bvc	3f04 <__code_start__-0x40fc>
    3eec:	12000004 	andne	r0, r0, #4, 0
    3ef0:	74025001 	strvc	r5, [r2], #-1
    3ef4:	51011200 	mrspl	r1, R9_usr
    3ef8:	0f003301 	svceq	0x00003301
    3efc:	00009548 	andeq	r9, r0, r8, asr #10
    3f00:	000005a0 	andeq	r0, r0, r0, lsr #11
    3f04:	0a390e00 	beq	e4770c <__bss_end__+0xe3d764>
    3f08:	35010000 	strcc	r0, [r1, #-0]
    3f0c:	00964806 	addseq	r4, r6, r6, lsl #16
    3f10:	00002400 	andeq	r2, r0, r0, lsl #8
    3f14:	d39c0100 	orrsle	r0, ip, #0
    3f18:	0f000004 	svceq	0x00000004
    3f1c:	00009650 	andeq	r9, r0, r0, asr r6
    3f20:	00000194 	muleq	r0, r4, r1
    3f24:	0096540f 	addseq	r5, r6, pc, lsl #8
    3f28:	0005a000 	andeq	sl, r5, r0
    3f2c:	96601400 	strbtls	r1, [r0], -r0, lsl #8
    3f30:	04d30000 	ldrbeq	r0, [r3], #0
    3f34:	04c90000 	strbeq	r0, [r9], #0
    3f38:	01120000 	tsteq	r2, r0
    3f3c:	040c0550 	streq	r0, [ip], #-1360	; 0xfffffab0
    3f40:	12202150 	eorne	r2, r0, #20
    3f44:	09025101 	stmdbeq	r2, {r0, r8, ip, lr}
    3f48:	640f00fe 	strvs	r0, [pc], #-254	; 3f50 <__code_start__-0x40b0>
    3f4c:	a0000096 	mulge	r0, r6, r0
    3f50:	00000005 	andeq	r0, r0, r5
    3f54:	000a6917 	andeq	r6, sl, r7, lsl r9
    3f58:	0d310100 	ldfeqs	f0, [r1, #-0]
    3f5c:	0000947c 	andeq	r9, r0, ip, ror r4
    3f60:	00000020 	andeq	r0, r0, r0, lsr #32
    3f64:	05369c01 	ldreq	r9, [r6, #-3073]!	; 0xfffff3ff
    3f68:	20180000 	andscs	r0, r8, r0
    3f6c:	01000001 	tsteq	r0, r1
    3f70:	05362531 	ldreq	r2, [r6, #-1329]!	; 0xfffffacf
    3f74:	146d0000 	strbtne	r0, [sp], #-0
    3f78:	14690000 	strbtne	r0, [r9], #-0
    3f7c:	76130000 	ldrvc	r0, [r3], -r0
    3f80:	01006c61 	tsteq	r0, r1, ror #24
    3f84:	002c3431 	eoreq	r3, ip, r1, lsr r4
    3f88:	148f0000 	strne	r0, [pc], #0	; 3f90 <__code_start__-0x4070>
    3f8c:	148b0000 	strne	r0, [fp], #0
    3f90:	8c140000 	ldchi	0, cr0, [r4], {-0}
    3f94:	ac000094 	stcge	0, cr0, [r0], {148}	; 0x94
    3f98:	25000005 	strcs	r0, [r0, #-5]
    3f9c:	12000005 	andne	r0, r0, #5, 0
    3fa0:	74025001 	strvc	r5, [r2], #-1
    3fa4:	98110000 	ldmdals	r1, {}	; <UNPREDICTABLE>
    3fa8:	b8000094 	stmdalt	r0, {r2, r4, r7}
    3fac:	12000005 	andne	r0, r0, #5, 0
    3fb0:	74025001 	strvc	r5, [r2], #-1
    3fb4:	0c000000 	stceq	0, cr0, [r0], {-0}
    3fb8:	00053c04 	andeq	r3, r5, r4, lsl #24
    3fbc:	54171900 	ldrpl	r1, [r7], #-2304	; 0xfffff700
    3fc0:	0100000a 	tsteq	r0, sl
    3fc4:	949c0d2e 	ldrls	r0, [ip], #3374	; 0xd2e
    3fc8:	00200000 	eoreq	r0, r0, r0
    3fcc:	9c010000 	stcls	0, cr0, [r1], {-0}
    3fd0:	000005a0 	andeq	r0, r0, r0, lsr #11
    3fd4:	00012018 	andeq	r2, r1, r8, lsl r0
    3fd8:	242e0100 	strtcs	r0, [lr], #-256	; 0xffffff00
    3fdc:	00000536 	andeq	r0, r0, r6, lsr r5
    3fe0:	000014b1 			; <UNDEFINED> instruction: 0x000014b1
    3fe4:	000014ad 	andeq	r1, r0, sp, lsr #9
    3fe8:	6c617613 	stclvs	6, cr7, [r1], #-76	; 0xffffffb4
    3fec:	332e0100 			; <UNDEFINED> instruction: 0x332e0100
    3ff0:	0000002c 	andeq	r0, r0, ip, lsr #32
    3ff4:	000014d3 	ldrdeq	r1, [r0], -r3
    3ff8:	000014cf 	andeq	r1, r0, pc, asr #9
    3ffc:	0094ac14 	addseq	sl, r4, r4, lsl ip
    4000:	0005ac00 	andeq	sl, r5, r0, lsl #24
    4004:	00058f00 	andeq	r8, r5, r0, lsl #30
    4008:	50011200 	andpl	r1, r1, r0, lsl #4
    400c:	00007402 	andeq	r7, r0, r2, lsl #8
    4010:	0094b811 	addseq	fp, r4, r1, lsl r8
    4014:	0005b800 	andeq	fp, r5, r0, lsl #16
    4018:	50011200 	andpl	r1, r1, r0, lsl #4
    401c:	00007402 	andeq	r7, r0, r2, lsl #8
    4020:	047b1a00 	ldrbteq	r1, [fp], #-2560	; 0xfffff600
    4024:	047b0000 	ldrbteq	r0, [fp], #-0
    4028:	a1030000 	mrsge	r0, (UNDEF: 3)
    402c:	04871a06 	streq	r1, [r7], #2566	; 0xa06
    4030:	04870000 	streq	r0, [r7], #0
    4034:	c8030000 	stmdagt	r3, {}	; <UNPREDICTABLE>
    4038:	04171a0b 	ldreq	r1, [r7], #-2571	; 0xfffff5f5
    403c:	04170000 	ldreq	r0, [r7], #-0
    4040:	b3030000 	movwlt	r0, #12288	; 0x3000
    4044:	04d41a06 	ldrbeq	r1, [r4], #2566	; 0xa06
    4048:	04d40000 	ldrbeq	r0, [r4], #0
    404c:	19040000 	stmdbne	r4, {}	; <UNPREDICTABLE>
    4050:	01490006 	cmpeq	r9, r6
    4054:	00040000 	andeq	r0, r4, r0
    4058:	0000111f 	andeq	r1, r0, pc, lsl r1
    405c:	05450104 	strbeq	r0, [r5, #-260]	; 0xfffffefc
    4060:	9a0c0000 	bls	304068 <__bss_end__+0x2fa0c0>
    4064:	3200000a 	andcc	r0, r0, #10, 0
    4068:	6c000006 	stcvs	0, cr0, [r0], {6}
    406c:	3c000096 	stccc	0, cr0, [r0], {150}	; 0x96
    4070:	45000000 	strmi	r0, [r0, #-0]
    4074:	0200001b 	andeq	r0, r0, #27, 0
    4078:	6e690504 	cdpvs	5, 6, cr0, cr9, cr4, {0}
    407c:	04030074 	streq	r0, [r3], #-116	; 0xffffff8c
    4080:	0000eb07 	andeq	lr, r0, r7, lsl #22
    4084:	06010300 	streq	r0, [r1], -r0, lsl #6
    4088:	00000085 	andeq	r0, r0, r5, lsl #1
    408c:	12050203 	andne	r0, r5, #805306368	; 0x30000000
    4090:	03000001 	movweq	r0, #1
    4094:	00fd0504 	rscseq	r0, sp, r4, lsl #10
    4098:	08030000 	stmdaeq	r3, {}	; <UNPREDICTABLE>
    409c:	0000f805 	andeq	pc, r0, r5, lsl #16
    40a0:	08010300 	stmdaeq	r1, {r8, r9}
    40a4:	00000083 	andeq	r0, r0, r3, lsl #1
    40a8:	a7070203 	strge	r0, [r7, -r3, lsl #4]
    40ac:	03000000 	movweq	r0, #0
    40b0:	00e60704 	rsceq	r0, r6, r4, lsl #14
    40b4:	08030000 	stmdaeq	r3, {}	; <UNPREDICTABLE>
    40b8:	0000e107 	andeq	lr, r0, r7, lsl #2
    40bc:	00250400 	eoreq	r0, r5, r0, lsl #8
    40c0:	007a0000 	rsbseq	r0, sl, r0
    40c4:	25050000 	strcs	r0, [r5, #-0]
    40c8:	00000000 	andeq	r0, r0, r0
    40cc:	00010606 	andeq	r0, r1, r6, lsl #12
    40d0:	0e1c0200 	cdpeq	2, 1, cr0, cr12, cr0, {0}
    40d4:	00000086 	andeq	r0, r0, r6, lsl #1
    40d8:	006b0407 	rsbeq	r0, fp, r7, lsl #8
    40dc:	25040000 	strcs	r0, [r4, #-0]
    40e0:	9b000000 	blls	40e8 <__code_start__-0x3f18>
    40e4:	05000000 	streq	r0, [r0, #-0]
    40e8:	0000009b 	muleq	r0, fp, r0
    40ec:	a8040700 	stmdage	r4, {r8, r9, sl}
    40f0:	03000000 	movweq	r0, #0
    40f4:	008c0801 	addeq	r0, ip, r1, lsl #16
    40f8:	a1080000 	mrsge	r0, (UNDEF: 8)
    40fc:	06000000 	streq	r0, [r0], -r0
    4100:	00000699 	muleq	r0, r9, r6
    4104:	b90e2102 	stmdblt	lr, {r1, r8, sp}
    4108:	07000000 	streq	r0, [r0, -r0]
    410c:	00008c04 	andeq	r8, r0, r4, lsl #24
    4110:	007a0900 	rsbseq	r0, sl, r0, lsl #18
    4114:	06010000 	streq	r0, [r1], -r0
    4118:	a0030507 	andge	r0, r3, r7, lsl #10
    411c:	0a00009b 	beq	4390 <__code_start__-0x3c70>
    4120:	00000a8d 	andeq	r0, r0, sp, lsl #21
    4124:	98060b01 	stmdals	r6, {r0, r8, r9, fp}
    4128:	10000096 	mulne	r0, r6, r0
    412c:	01000000 	mrseq	r0, (UNDEF: 0)
    4130:	0000f19c 	muleq	r0, ip, r1
    4134:	70660b00 	rsbvc	r0, r6, r0, lsl #22
    4138:	190b0100 	stmdbne	fp, {r8}
    413c:	00000086 	andeq	r0, r0, r6, lsl #1
    4140:	0c005001 	stceq	0, cr5, [r0], {1}
    4144:	00000aab 	andeq	r0, r0, fp, lsr #21
    4148:	80060801 	andhi	r0, r6, r1, lsl #16
    414c:	18000096 	stmdane	r0, {r1, r2, r4, r7}
    4150:	01000000 	mrseq	r0, (UNDEF: 0)
    4154:	0a7c0d9c 	beq	1f077cc <__bss_end__+0x1efd824>
    4158:	03010000 	movweq	r0, #4096	; 0x1000
    415c:	0000250c 	andeq	r2, r0, ip, lsl #10
    4160:	00966c00 	addseq	r6, r6, r0, lsl #24
    4164:	00001400 	andeq	r1, r0, r0, lsl #8
    4168:	409c0100 	addsmi	r0, ip, r0, lsl #2
    416c:	0e000001 	cdpeq	0, 0, cr0, cr0, cr1, {0}
    4170:	03010063 	movweq	r0, #4195	; 0x1063
    4174:	00002521 	andeq	r2, r0, r1, lsr #10
    4178:	0014f500 	andseq	pc, r4, r0, lsl #10
    417c:	0014f100 	andseq	pc, r4, r0, lsl #2
    4180:	96780f00 	ldrbtls	r0, [r8], -r0, lsl #30
    4184:	01400000 	mrseq	r0, (UNDEF: 64)
    4188:	01100000 	tsteq	r0, r0
    418c:	00740250 	rsbseq	r0, r4, r0, asr r2
    4190:	72110000 	andsvc	r0, r1, #0, 0
    4194:	7200000a 	andvc	r0, r0, #10, 0
    4198:	0200000a 	andeq	r0, r0, #10, 0
    419c:	37000642 	strcc	r0, [r0, -r2, asr #12]
    41a0:	04000001 	streq	r0, [r0], #-1
    41a4:	00122e00 	andseq	r2, r2, r0, lsl #28
    41a8:	45010400 	strmi	r0, [r1, #-1024]	; 0xfffffc00
    41ac:	0c000005 	stceq	0, cr0, [r0], {5}
    41b0:	00000abf 			; <UNDEFINED> instruction: 0x00000abf
    41b4:	00000632 	andeq	r0, r0, r2, lsr r6
    41b8:	000096a8 	andeq	r9, r0, r8, lsr #13
    41bc:	00000034 	andeq	r0, r0, r4, lsr r0
    41c0:	00001c03 	andeq	r1, r0, r3, lsl #24
    41c4:	69050402 	stmdbvs	r5, {r1, sl}
    41c8:	0300746e 	movweq	r7, #1134	; 0x46e
    41cc:	00eb0704 	rsceq	r0, fp, r4, lsl #14
    41d0:	01030000 	mrseq	r0, (UNDEF: 3)
    41d4:	00008506 	andeq	r8, r0, r6, lsl #10
    41d8:	05020300 	streq	r0, [r2, #-768]	; 0xfffffd00
    41dc:	00000112 	andeq	r0, r0, r2, lsl r1
    41e0:	fd050403 	stc2	4, cr0, [r5, #-12]
    41e4:	03000000 	movweq	r0, #0
    41e8:	00f80508 	rscseq	r0, r8, r8, lsl #10
    41ec:	01030000 	mrseq	r0, (UNDEF: 3)
    41f0:	00008308 	andeq	r8, r0, r8, lsl #6
    41f4:	07020300 	streq	r0, [r2, -r0, lsl #6]
    41f8:	000000a7 	andeq	r0, r0, r7, lsr #1
    41fc:	e6070403 	str	r0, [r7], -r3, lsl #8
    4200:	03000000 	movweq	r0, #0
    4204:	00e10708 	rsceq	r0, r1, r8, lsl #14
    4208:	25040000 	strcs	r0, [r4, #-0]
    420c:	7a000000 	bvc	4214 <__code_start__-0x3dec>
    4210:	05000000 	streq	r0, [r0, #-0]
    4214:	00000025 	andeq	r0, r0, r5, lsr #32
    4218:	01060600 	tsteq	r6, r0, lsl #12
    421c:	1c020000 	stcne	0, cr0, [r2], {-0}
    4220:	0000860e 	andeq	r8, r0, lr, lsl #12
    4224:	6b040700 	blvs	105e2c <__bss_end__+0xfbe84>
    4228:	04000000 	streq	r0, [r0], #-0
    422c:	00000025 	andeq	r0, r0, r5, lsr #32
    4230:	0000009b 	muleq	r0, fp, r0
    4234:	00009b05 	andeq	r9, r0, r5, lsl #22
    4238:	04070000 	streq	r0, [r7], #-0
    423c:	000000a8 	andeq	r0, r0, r8, lsr #1
    4240:	8c080103 	stfhis	f0, [r8], {3}
    4244:	08000000 	stmdaeq	r0, {}	; <UNPREDICTABLE>
    4248:	000000a1 	andeq	r0, r0, r1, lsr #1
    424c:	00069906 	andeq	r9, r6, r6, lsl #18
    4250:	0e210200 	cdpeq	2, 2, cr0, cr1, cr0, {0}
    4254:	000000b9 	strheq	r0, [r0], -r9
    4258:	008c0407 	addeq	r0, ip, r7, lsl #8
    425c:	6b090000 	blvs	244264 <__bss_end__+0x23a2bc>
    4260:	01000007 	tsteq	r0, r7
    4264:	01340704 	teqeq	r4, r4, lsl #14
    4268:	96a80000 	strtls	r0, [r8], r0
    426c:	00340000 	eorseq	r0, r4, r0
    4270:	9c010000 	stcls	0, cr0, [r1], {-0}
    4274:	00000134 	andeq	r0, r0, r4, lsr r1
    4278:	000aba0a 	andeq	fp, sl, sl, lsl #20
    427c:	15040100 	strne	r0, [r4, #-256]	; 0xffffff00
    4280:	00000134 	andeq	r0, r0, r4, lsr r1
    4284:	730b5001 	movwvc	r5, #45057	; 0xb001
    4288:	01006372 	tsteq	r0, r2, ror r3
    428c:	009b2704 	addseq	r2, fp, r4, lsl #14
    4290:	15170000 	ldrne	r0, [r7, #-0]
    4294:	15130000 	ldrne	r0, [r3, #-0]
    4298:	730c0000 	movwvc	r0, #49152	; 0xc000
    429c:	05010031 	streq	r0, [r1, #-49]	; 0xffffffcf
    42a0:	0001340b 	andeq	r3, r1, fp, lsl #8
    42a4:	00154200 	andseq	r4, r5, r0, lsl #4
    42a8:	00153800 	andseq	r3, r5, r0, lsl #16
    42ac:	32730c00 	rsbscc	r0, r3, #0, 24
    42b0:	11060100 	mrsne	r0, (UNDEF: 22)
    42b4:	0000009b 	muleq	r0, fp, r0
    42b8:	00001587 	andeq	r1, r0, r7, lsl #11
    42bc:	00001583 	andeq	r1, r0, r3, lsl #11
    42c0:	0100630c 	tsteq	r0, ip, lsl #6
    42c4:	00a10a07 	adceq	r0, r1, r7, lsl #20
    42c8:	15ab0000 	strne	r0, [fp, #0]!
    42cc:	15a70000 	strne	r0, [r7, #0]!
    42d0:	07000000 	streq	r0, [r0, -r0]
    42d4:	0000a104 	andeq	sl, r0, r4, lsl #2
    42d8:	00f70000 	rscseq	r0, r7, r0
    42dc:	00040000 	andeq	r0, r4, r0
    42e0:	000012e4 	andeq	r1, r0, r4, ror #5
    42e4:	05450104 	strbeq	r0, [r5, #-260]	; 0xfffffefc
    42e8:	cf0c0000 	svcgt	0x000c0000
    42ec:	3200000a 	andcc	r0, r0, #10, 0
    42f0:	dc000006 	stcle	0, cr0, [r0], {6}
    42f4:	2c000096 	stccs	0, cr0, [r0], {150}	; 0x96
    42f8:	0d000000 	stceq	0, cr0, [r0, #-0]
    42fc:	0200001d 	andeq	r0, r0, #29, 0
    4300:	6e690504 	cdpvs	5, 6, cr0, cr9, cr4, {0}
    4304:	04030074 	streq	r0, [r3], #-116	; 0xffffff8c
    4308:	0000eb07 	andeq	lr, r0, r7, lsl #22
    430c:	06010300 	streq	r0, [r1], -r0, lsl #6
    4310:	00000085 	andeq	r0, r0, r5, lsl #1
    4314:	12050203 	andne	r0, r5, #805306368	; 0x30000000
    4318:	03000001 	movweq	r0, #1
    431c:	00fd0504 	rscseq	r0, sp, r4, lsl #10
    4320:	08030000 	stmdaeq	r3, {}	; <UNPREDICTABLE>
    4324:	0000f805 	andeq	pc, r0, r5, lsl #16
    4328:	08010300 	stmdaeq	r1, {r8, r9}
    432c:	00000083 	andeq	r0, r0, r3, lsl #1
    4330:	a7070203 	strge	r0, [r7, -r3, lsl #4]
    4334:	03000000 	movweq	r0, #0
    4338:	00e60704 	rsceq	r0, r6, r4, lsl #14
    433c:	08030000 	stmdaeq	r3, {}	; <UNPREDICTABLE>
    4340:	0000e107 	andeq	lr, r0, r7, lsl #2
    4344:	00250400 	eoreq	r0, r5, r0, lsl #8
    4348:	007a0000 	rsbseq	r0, sl, r0
    434c:	25050000 	strcs	r0, [r5, #-0]
    4350:	00000000 	andeq	r0, r0, r0
    4354:	00010606 	andeq	r0, r1, r6, lsl #12
    4358:	0e1c0200 	cdpeq	2, 1, cr0, cr12, cr0, {0}
    435c:	00000086 	andeq	r0, r0, r6, lsl #1
    4360:	006b0407 	rsbeq	r0, fp, r7, lsl #8
    4364:	25040000 	strcs	r0, [r4, #-0]
    4368:	9b000000 	blls	4370 <__code_start__-0x3c90>
    436c:	05000000 	streq	r0, [r0, #-0]
    4370:	0000009b 	muleq	r0, fp, r0
    4374:	a8040700 	stmdage	r4, {r8, r9, sl}
    4378:	03000000 	movweq	r0, #0
    437c:	008c0801 	addeq	r0, ip, r1, lsl #16
    4380:	a1080000 	mrsge	r0, (UNDEF: 8)
    4384:	06000000 	streq	r0, [r0], -r0
    4388:	00000699 	muleq	r0, r9, r6
    438c:	b90e2102 	stmdblt	lr, {r1, r8, sp}
    4390:	07000000 	streq	r0, [r0, -r0]
    4394:	00008c04 	andeq	r8, r0, r4, lsl #24
    4398:	07720900 	ldrbeq	r0, [r2, -r0, lsl #18]!
    439c:	03010000 	movweq	r0, #4096	; 0x1000
    43a0:	00002505 	andeq	r2, r0, r5, lsl #10
    43a4:	0096dc00 	addseq	sp, r6, r0, lsl #24
    43a8:	00002c00 	andeq	r2, r0, r0, lsl #24
    43ac:	0a9c0100 	beq	fe7047b4 <__bss_end__+0xfe6fa80c>
    43b0:	03010061 	movweq	r0, #4193	; 0x1061
    43b4:	00009b18 	andeq	r9, r0, r8, lsl fp
    43b8:	0015cd00 	andseq	ip, r5, r0, lsl #26
    43bc:	0015c900 	andseq	ip, r5, r0, lsl #18
    43c0:	00620a00 	rsbeq	r0, r2, r0, lsl #20
    43c4:	9b270301 	blls	9c4fd0 <__bss_end__+0x9bb028>
    43c8:	ef000000 	svc	0x00000000
    43cc:	eb000015 	bl	4428 <__code_start__-0x3bd8>
    43d0:	00000015 	andeq	r0, r0, r5, lsl r0
    43d4:	00010f00 	andeq	r0, r1, r0, lsl #30
    43d8:	73000400 	movwvc	r0, #1024	; 0x400
    43dc:	04000013 	streq	r0, [r0], #-19	; 0xffffffed
    43e0:	00054501 	andeq	r4, r5, r1, lsl #10
    43e4:	0adf0c00 	beq	ff7c73ec <__bss_end__+0xff7bd444>
    43e8:	06320000 	ldrteq	r0, [r2], -r0
    43ec:	97080000 	strls	r0, [r8, -r0]
    43f0:	00200000 	eoreq	r0, r0, r0
    43f4:	1dd00000 	ldclne	0, cr0, [r0]
    43f8:	04020000 	streq	r0, [r2], #-0
    43fc:	746e6905 	strbtvc	r6, [lr], #-2309	; 0xfffff6fb
    4400:	07040300 	streq	r0, [r4, -r0, lsl #6]
    4404:	000000eb 	andeq	r0, r0, fp, ror #1
    4408:	85060103 	strhi	r0, [r6, #-259]	; 0xfffffefd
    440c:	03000000 	movweq	r0, #0
    4410:	01120502 	tsteq	r2, r2, lsl #10
    4414:	04030000 	streq	r0, [r3], #-0
    4418:	0000fd05 	andeq	pc, r0, r5, lsl #26
    441c:	05080300 	streq	r0, [r8, #-768]	; 0xfffffd00
    4420:	000000f8 	strdeq	r0, [r0], -r8
    4424:	83080103 	movwhi	r0, #33027	; 0x8103
    4428:	03000000 	movweq	r0, #0
    442c:	00a70702 	adceq	r0, r7, r2, lsl #14
    4430:	04030000 	streq	r0, [r3], #-0
    4434:	0000e607 	andeq	lr, r0, r7, lsl #12
    4438:	07080300 	streq	r0, [r8, -r0, lsl #6]
    443c:	000000e1 	andeq	r0, r0, r1, ror #1
    4440:	00002504 	andeq	r2, r0, r4, lsl #10
    4444:	00007a00 	andeq	r7, r0, r0, lsl #20
    4448:	00250500 	eoreq	r0, r5, r0, lsl #10
    444c:	06000000 	streq	r0, [r0], -r0
    4450:	00000106 	andeq	r0, r0, r6, lsl #2
    4454:	860e1c02 	strhi	r1, [lr], -r2, lsl #24
    4458:	07000000 	streq	r0, [r0, -r0]
    445c:	00006b04 	andeq	r6, r0, r4, lsl #22
    4460:	00250400 	eoreq	r0, r5, r0, lsl #8
    4464:	009b0000 	addseq	r0, fp, r0
    4468:	9b050000 	blls	144470 <__bss_end__+0x13a4c8>
    446c:	00000000 	andeq	r0, r0, r0
    4470:	00a80407 	adceq	r0, r8, r7, lsl #8
    4474:	01030000 	mrseq	r0, (UNDEF: 3)
    4478:	00008c08 	andeq	r8, r0, r8, lsl #24
    447c:	00a10800 	adceq	r0, r1, r0, lsl #16
    4480:	99060000 	stmdbls	r6, {}	; <UNPREDICTABLE>
    4484:	02000006 	andeq	r0, r0, #6, 0
    4488:	00b90e21 	adcseq	r0, r9, r1, lsr #28
    448c:	04070000 	streq	r0, [r7], #-0
    4490:	0000008c 	andeq	r0, r0, ip, lsl #1
    4494:	00073c09 	andeq	r3, r7, r9, lsl #24
    4498:	07030100 	streq	r0, [r3, -r0, lsl #2]
    449c:	0000010c 	andeq	r0, r0, ip, lsl #2
    44a0:	00009708 	andeq	r9, r0, r8, lsl #14
    44a4:	00000020 	andeq	r0, r0, r0, lsr #32
    44a8:	010c9c01 	tsteq	ip, r1, lsl #24
    44ac:	730a0000 	movwvc	r0, #40960	; 0xa000
    44b0:	03010031 	movweq	r0, #4145	; 0x1031
    44b4:	00010c15 	andeq	r0, r1, r5, lsl ip
    44b8:	0b500100 	bleq	14048c0 <__bss_end__+0x13fa918>
    44bc:	01003273 	tsteq	r0, r3, ror r2
    44c0:	009b2603 	addseq	r2, fp, r3, lsl #12
    44c4:	16130000 	ldrne	r0, [r3], -r0
    44c8:	160d0000 	strne	r0, [sp], -r0
    44cc:	730c0000 	movwvc	r0, #49152	; 0xc000
    44d0:	14040100 	strne	r0, [r4], #-256	; 0xffffff00
    44d4:	0000010c 	andeq	r0, r0, ip, lsl #2
    44d8:	00001644 	andeq	r1, r0, r4, asr #12
    44dc:	0000163e 	andeq	r1, r0, lr, lsr r6
    44e0:	a1040700 	tstge	r4, r0, lsl #14
    44e4:	00000000 	andeq	r0, r0, r0
    44e8:	0000014e 	andeq	r0, r0, lr, asr #2
    44ec:	14290004 	strtne	r0, [r9], #-4
    44f0:	01040000 	mrseq	r0, (UNDEF: 4)
    44f4:	00000545 	andeq	r0, r0, r5, asr #10
    44f8:	000af60c 	andeq	pc, sl, ip, lsl #12
    44fc:	00063200 	andeq	r3, r6, r0, lsl #4
    4500:	00007000 	andeq	r7, r0, r0
    4504:	00000000 	andeq	r0, r0, r0
    4508:	001e9100 	andseq	r9, lr, r0, lsl #2
    450c:	05040200 	streq	r0, [r4, #-512]	; 0xfffffe00
    4510:	00746e69 	rsbseq	r6, r4, r9, ror #28
    4514:	000aef03 	andeq	lr, sl, r3, lsl #30
    4518:	17d10300 	ldrbne	r0, [r1, r0, lsl #6]
    451c:	00000038 	andeq	r0, r0, r8, lsr r0
    4520:	eb070404 	bl	1c5538 <__bss_end__+0x1bb590>
    4524:	04000000 	streq	r0, [r0], #-0
    4528:	00850601 	addeq	r0, r5, r1, lsl #12
    452c:	02040000 	andeq	r0, r4, #0, 0
    4530:	00011205 	andeq	r1, r1, r5, lsl #4
    4534:	05040400 	streq	r0, [r4, #-1024]	; 0xfffffc00
    4538:	000000fd 	strdeq	r0, [r0], -sp
    453c:	f8050804 			; <UNDEFINED> instruction: 0xf8050804
    4540:	04000000 	streq	r0, [r0], #-0
    4544:	00830801 	addeq	r0, r3, r1, lsl #16
    4548:	5b050000 	blpl	144550 <__bss_end__+0x13a5a8>
    454c:	04000000 	streq	r0, [r0], #-0
    4550:	00a70702 	adceq	r0, r7, r2, lsl #14
    4554:	04040000 	streq	r0, [r4], #-0
    4558:	0000e607 	andeq	lr, r0, r7, lsl #12
    455c:	07080400 	streq	r0, [r8, -r0, lsl #8]
    4560:	000000e1 	andeq	r0, r0, r1, ror #1
    4564:	00002506 	andeq	r2, r0, r6, lsl #10
    4568:	00008b00 	andeq	r8, r0, r0, lsl #22
    456c:	00250700 	eoreq	r0, r5, r0, lsl #14
    4570:	08000000 	stmdaeq	r0, {}	; <UNPREDICTABLE>
    4574:	00000106 	andeq	r0, r0, r6, lsl #2
    4578:	970e1c02 	strls	r1, [lr, -r2, lsl #24]
    457c:	09000000 	stmdbeq	r0, {}	; <UNPREDICTABLE>
    4580:	00007c04 	andeq	r7, r0, r4, lsl #24
    4584:	00250600 	eoreq	r0, r5, r0, lsl #12
    4588:	00ac0000 	adceq	r0, ip, r0
    458c:	ac070000 	stcge	0, cr0, [r7], {-0}
    4590:	00000000 	andeq	r0, r0, r0
    4594:	00b90409 	adcseq	r0, r9, r9, lsl #8
    4598:	01040000 	mrseq	r0, (UNDEF: 4)
    459c:	00008c08 	andeq	r8, r0, r8, lsl #24
    45a0:	00b20500 	adcseq	r0, r2, r0, lsl #10
    45a4:	99080000 	stmdbls	r8, {}	; <UNPREDICTABLE>
    45a8:	02000006 	andeq	r0, r0, #6, 0
    45ac:	00ca0e21 	sbceq	r0, sl, r1, lsr #28
    45b0:	04090000 	streq	r0, [r9], #-0
    45b4:	0000009d 	muleq	r0, sp, r0
    45b8:	00079a0a 	andeq	r9, r7, sl, lsl #20
    45bc:	05040100 	streq	r0, [r4, #-256]	; 0xffffff00
    45c0:	00000025 	andeq	r0, r0, r5, lsr #32
    45c4:	00009728 	andeq	r9, r0, r8, lsr #14
    45c8:	0000002c 	andeq	r0, r0, ip, lsr #32
    45cc:	014b9c01 	cmpeq	fp, r1, lsl #24
    45d0:	5f0b0000 	svcpl	0x000b0000
    45d4:	01003173 	tsteq	r0, r3, ror r1
    45d8:	00ac1904 	adceq	r1, ip, r4, lsl #18
    45dc:	16730000 	ldrbtne	r0, [r3], -r0
    45e0:	166f0000 	strbtne	r0, [pc], -r0
    45e4:	5f0b0000 	svcpl	0x000b0000
    45e8:	01003273 	tsteq	r0, r3, ror r2
    45ec:	00ac2a04 	adceq	r2, ip, r4, lsl #20
    45f0:	16980000 	ldrne	r0, [r8], r0
    45f4:	16940000 	ldrne	r0, [r4], r0
    45f8:	6e0b0000 	cdpvs	0, 0, cr0, cr11, cr0, {0}
    45fc:	36040100 	strcc	r0, [r4], -r0, lsl #2
    4600:	0000002c 	andeq	r0, r0, ip, lsr #32
    4604:	000016bf 			; <UNDEFINED> instruction: 0x000016bf
    4608:	000016b9 			; <UNDEFINED> instruction: 0x000016b9
    460c:	0031730c 	eorseq	r7, r1, ip, lsl #6
    4610:	4b1a0501 	blmi	685a1c <__bss_end__+0x67ba74>
    4614:	f2000001 	vhadd.s8	d0, d0, d1
    4618:	ea000016 	b	4678 <__code_start__-0x3988>
    461c:	0c000016 	stceq	0, cr0, [r0], {22}
    4620:	01003273 	tsteq	r0, r3, ror r2
    4624:	014b2c05 	cmpeq	fp, r5, lsl #24
    4628:	172e0000 	strne	r0, [lr, -r0]!
    462c:	17280000 	strne	r0, [r8, -r0]!
    4630:	09000000 	stmdbeq	r0, {}	; <UNPREDICTABLE>
    4634:	00006204 	andeq	r6, r0, r4, lsl #4
    4638:	00ce0000 	sbceq	r0, lr, r0
    463c:	00040000 	andeq	r0, r4, r0
    4640:	000014dd 	ldrdeq	r1, [r0], -sp
    4644:	05450104 	strbeq	r0, [r5, #-260]	; 0xfffffefc
    4648:	070c0000 	streq	r0, [ip, -r0]
    464c:	3200000b 	andcc	r0, r0, #11, 0
    4650:	54000006 	strpl	r0, [r0], #-6
    4654:	04000097 	streq	r0, [r0], #-151	; 0xffffff69
    4658:	b2000000 	andlt	r0, r0, #0, 0
    465c:	0200001f 	andeq	r0, r0, #31, 0
    4660:	6e690504 	cdpvs	5, 6, cr0, cr9, cr4, {0}
    4664:	04030074 	streq	r0, [r3], #-116	; 0xffffff8c
    4668:	0000eb07 	andeq	lr, r0, r7, lsl #22
    466c:	06010300 	streq	r0, [r1], -r0, lsl #6
    4670:	00000085 	andeq	r0, r0, r5, lsl #1
    4674:	12050203 	andne	r0, r5, #805306368	; 0x30000000
    4678:	03000001 	movweq	r0, #1
    467c:	00fd0504 	rscseq	r0, sp, r4, lsl #10
    4680:	08030000 	stmdaeq	r3, {}	; <UNPREDICTABLE>
    4684:	0000f805 	andeq	pc, r0, r5, lsl #16
    4688:	08010300 	stmdaeq	r1, {r8, r9}
    468c:	00000083 	andeq	r0, r0, r3, lsl #1
    4690:	a7070203 	strge	r0, [r7, -r3, lsl #4]
    4694:	03000000 	movweq	r0, #0
    4698:	00e60704 	rsceq	r0, r6, r4, lsl #14
    469c:	08030000 	stmdaeq	r3, {}	; <UNPREDICTABLE>
    46a0:	0000e107 	andeq	lr, r0, r7, lsl #2
    46a4:	00250400 	eoreq	r0, r5, r0, lsl #8
    46a8:	007a0000 	rsbseq	r0, sl, r0
    46ac:	25050000 	strcs	r0, [r5, #-0]
    46b0:	00000000 	andeq	r0, r0, r0
    46b4:	00010606 	andeq	r0, r1, r6, lsl #12
    46b8:	0e1c0200 	cdpeq	2, 1, cr0, cr12, cr0, {0}
    46bc:	00000086 	andeq	r0, r0, r6, lsl #1
    46c0:	006b0407 	rsbeq	r0, fp, r7, lsl #8
    46c4:	25040000 	strcs	r0, [r4, #-0]
    46c8:	9b000000 	blls	46d0 <__code_start__-0x3930>
    46cc:	05000000 	streq	r0, [r0, #-0]
    46d0:	0000009b 	muleq	r0, fp, r0
    46d4:	a8040700 	stmdage	r4, {r8, r9, sl}
    46d8:	03000000 	movweq	r0, #0
    46dc:	008c0801 	addeq	r0, ip, r1, lsl #16
    46e0:	a1080000 	mrsge	r0, (UNDEF: 8)
    46e4:	06000000 	streq	r0, [r0], -r0
    46e8:	00000699 	muleq	r0, r9, r6
    46ec:	b90e2102 	stmdblt	lr, {r1, r8, sp}
    46f0:	07000000 	streq	r0, [r0, -r0]
    46f4:	00008c04 	andeq	r8, r0, r4, lsl #24
    46f8:	083d0900 	ldmdaeq	sp!, {r8, fp}
    46fc:	03010000 	movweq	r0, #4096	; 0x1000
    4700:	00975406 	addseq	r5, r7, r6, lsl #8
    4704:	00000400 	andeq	r0, r0, r0, lsl #8
    4708:	009c0100 	addseq	r0, ip, r0, lsl #2

Disassembly of section .debug_abbrev:

00000000 <.debug_abbrev>:
       0:	25011101 	strcs	r1, [r1, #-257]	; 0xfffffeff
       4:	030b130e 	movweq	r1, #45838	; 0xb30e
       8:	110e1b0e 	tstne	lr, lr, lsl #22
       c:	10061201 	andne	r1, r6, r1, lsl #4
      10:	02000017 	andeq	r0, r0, #23, 0
      14:	0b0b0024 	bleq	2c00ac <__bss_end__+0x2b6104>
      18:	08030b3e 	stmdaeq	r3, {r1, r2, r3, r4, r5, r8, r9, fp}
      1c:	24030000 	strcs	r0, [r3], #-0
      20:	3e0b0b00 	vmlacc.f64	d0, d11, d0
      24:	000e030b 	andeq	r0, lr, fp, lsl #6
      28:	01150400 	tsteq	r5, r0, lsl #8
      2c:	13491927 	movtne	r1, #39207	; 0x9927
      30:	00001301 	andeq	r1, r0, r1, lsl #6
      34:	49000505 	stmdbmi	r0, {r0, r2, r8, sl}
      38:	06000013 			; <UNDEFINED> instruction: 0x06000013
      3c:	0e030034 	mcreq	0, 0, r0, cr3, cr4, {1}
      40:	0b3b0b3a 	bleq	ec2d30 <__bss_end__+0xeb8d88>
      44:	13490b39 	movtne	r0, #39737	; 0x9b39
      48:	193c193f 	ldmdbne	ip!, {r0, r1, r2, r3, r4, r5, r8, fp, ip}
      4c:	0f070000 	svceq	0x00070000
      50:	490b0b00 	stmdbmi	fp, {r8, r9, fp}
      54:	08000013 	stmdaeq	r0, {r0, r1, r4}
      58:	13490026 	movtne	r0, #36902	; 0x9026
      5c:	04090000 	streq	r0, [r9], #-0
      60:	0b0b3e01 	bleq	2cf86c <__bss_end__+0x2c58c4>
      64:	3a13490b 	bcc	4d2498 <__bss_end__+0x4c84f0>
      68:	390b3b0b 	stmdbcc	fp, {r0, r1, r3, r8, r9, fp, ip, sp}
      6c:	0013010b 	andseq	r0, r3, fp, lsl #2
      70:	00280a00 	eoreq	r0, r8, r0, lsl #20
      74:	0b1c0e03 	bleq	703888 <__bss_end__+0x6f98e0>
      78:	2e0b0000 	cdpcs	0, 0, cr0, cr11, cr0, {0}
      7c:	03193f01 	tsteq	r9, #1, 30
      80:	3b0b3a0e 	blcc	2ce8c0 <__bss_end__+0x2c4918>
      84:	270b390b 	strcs	r3, [fp, -fp, lsl #18]
      88:	12011119 	andne	r1, r1, #1073741830	; 0x40000006
      8c:	97184006 	ldrls	r4, [r8, -r6]
      90:	13011942 	movwne	r1, #6466	; 0x1942
      94:	340c0000 	strcc	r0, [ip], #-0
      98:	3a0e0300 	bcc	380ca0 <__bss_end__+0x376cf8>
      9c:	390b3b0b 	stmdbcc	fp, {r0, r1, r3, r8, r9, fp, ip, sp}
      a0:	0213490b 	andseq	r4, r3, #180224	; 0x2c000
      a4:	1742b717 	smlaldne	fp, r2, r7, r7
      a8:	0b0d0000 	bleq	3400b0 <__bss_end__+0x336108>
      ac:	12011101 	andne	r1, r1, #1073741824	; 0x40000000
      b0:	00130106 	andseq	r0, r3, r6, lsl #2
      b4:	00340e00 	eorseq	r0, r4, r0, lsl #28
      b8:	0b3a0803 	bleq	e820cc <__bss_end__+0xe78124>
      bc:	0b390b3b 	bleq	e42db0 <__bss_end__+0xe38e08>
      c0:	17021349 	strne	r1, [r2, -r9, asr #6]
      c4:	001742b7 			; <UNDEFINED> instruction: 0x001742b7
      c8:	010b0f00 	tsteq	fp, r0, lsl #30
      cc:	06120111 			; <UNDEFINED> instruction: 0x06120111
      d0:	89100000 	ldmdbhi	r0, {}	; <UNPREDICTABLE>
      d4:	11010182 	smlabbne	r1, r2, r1, r0
      d8:	01133101 	tsteq	r3, r1, lsl #2
      dc:	11000013 	tstne	r0, r3, lsl r0
      e0:	0001828a 	andeq	r8, r1, sl, lsl #5
      e4:	42911802 	addsmi	r1, r1, #131072	; 0x20000
      e8:	12000018 	andne	r0, r0, #24, 0
      ec:	01018289 	smlabbeq	r1, r9, r2, r8
      f0:	13310111 	teqne	r1, #1073741828	; 0x40000004
      f4:	89130000 	ldmdbhi	r3, {}	; <UNPREDICTABLE>
      f8:	11000182 	smlabbne	r0, r2, r1, r0
      fc:	00133101 	andseq	r3, r3, r1, lsl #2
     100:	002e1400 	eoreq	r1, lr, r0, lsl #8
     104:	193c193f 	ldmdbne	ip!, {r0, r1, r2, r3, r4, r5, r8, fp, ip}
     108:	0e030e6e 	cdpeq	14, 0, cr0, cr3, cr14, {3}
     10c:	0b3b0b3a 	bleq	ec2dfc <__bss_end__+0xeb8e54>
     110:	00000b39 	andeq	r0, r0, r9, lsr fp
     114:	01110100 	tsteq	r1, r0, lsl #2
     118:	0b130e25 	bleq	4c39b4 <__bss_end__+0x4b9a0c>
     11c:	0e1b0e03 	cdpeq	14, 1, cr0, cr11, cr3, {0}
     120:	06120111 			; <UNDEFINED> instruction: 0x06120111
     124:	00001710 	andeq	r1, r0, r0, lsl r7
     128:	0b002402 	bleq	9138 <va_printk+0x418>
     12c:	030b3e0b 	movweq	r3, #48651	; 0xbe0b
     130:	03000008 	movweq	r0, #8
     134:	0b0b0024 	bleq	2c01cc <__bss_end__+0x2b6224>
     138:	0e030b3e 	vmoveq.16	d3[0], r0
     13c:	16040000 	strne	r0, [r4], -r0
     140:	3a0e0300 	bcc	380d48 <__bss_end__+0x376da0>
     144:	390b3b0b 	stmdbcc	fp, {r0, r1, r3, r8, r9, fp, ip, sp}
     148:	0013490b 	andseq	r4, r3, fp, lsl #18
     14c:	000f0500 	andeq	r0, pc, r0, lsl #10
     150:	13490b0b 	movtne	r0, #39691	; 0x9b0b
     154:	26060000 	strcs	r0, [r6], -r0
     158:	00134900 	andseq	r4, r3, r0, lsl #18
     15c:	01040700 	tsteq	r4, r0, lsl #14
     160:	0b0b0b3e 	bleq	2c2e60 <__bss_end__+0x2b8eb8>
     164:	0b3a1349 	bleq	e84e90 <__bss_end__+0xe7aee8>
     168:	0b390b3b 	bleq	e42e5c <__bss_end__+0xe38eb4>
     16c:	00001301 	andeq	r1, r0, r1, lsl #6
     170:	03002808 	movweq	r2, #2056	; 0x808
     174:	000b1c0e 	andeq	r1, fp, lr, lsl #24
     178:	012e0900 			; <UNDEFINED> instruction: 0x012e0900
     17c:	0e03193f 			; <UNDEFINED> instruction: 0x0e03193f
     180:	0b3b0b3a 	bleq	ec2e70 <__bss_end__+0xeb8ec8>
     184:	19270b39 	stmdbne	r7!, {r0, r3, r4, r5, r8, r9, fp}
     188:	01111349 	tsteq	r1, r9, asr #6
     18c:	18400612 	stmdane	r0, {r1, r4, r9, sl}^
     190:	01194297 			; <UNDEFINED> instruction: 0x01194297
     194:	0a000013 	beq	1e8 <__code_start__-0x7e18>
     198:	08030034 	stmdaeq	r3, {r2, r4, r5}
     19c:	0b3b0b3a 	bleq	ec2e8c <__bss_end__+0xeb8ee4>
     1a0:	13490b39 	movtne	r0, #39737	; 0x9b39
     1a4:	42b71702 	adcsmi	r1, r7, #524288	; 0x80000
     1a8:	0b000017 	bleq	20c <__code_start__-0x7df4>
     1ac:	0e030034 	mcreq	0, 0, r0, cr3, cr4, {1}
     1b0:	19341349 	ldmdbne	r4!, {r0, r3, r6, r8, r9, ip}
     1b4:	00001802 	andeq	r1, r0, r2, lsl #16
     1b8:	31011d0c 	tstcc	r1, ip, lsl #26
     1bc:	b8015213 	stmdalt	r1, {r0, r1, r4, r9, ip, lr}
     1c0:	01110b42 	tsteq	r1, r2, asr #22
     1c4:	0b580612 	bleq	1601a14 <__bss_end__+0x15f7a6c>
     1c8:	0b570b59 	bleq	15c2f34 <__bss_end__+0x15b8f8c>
     1cc:	00001301 	andeq	r1, r0, r1, lsl #6
     1d0:	3100050d 	tstcc	r0, sp, lsl #10
     1d4:	b7170213 			; <UNDEFINED> instruction: 0xb7170213
     1d8:	00001742 	andeq	r1, r0, r2, asr #14
     1dc:	31011d0e 	tstcc	r1, lr, lsl #26
     1e0:	b8015213 	stmdalt	r1, {r0, r1, r4, r9, ip, lr}
     1e4:	17550b42 	ldrbne	r0, [r5, -r2, asr #22]
     1e8:	0b590b58 	bleq	1642f50 <__bss_end__+0x1638fa8>
     1ec:	13010b57 	movwne	r0, #6999	; 0x1b57
     1f0:	0b0f0000 	bleq	3c01f8 <__bss_end__+0x3b6250>
     1f4:	00175500 	andseq	r5, r7, r0, lsl #10
     1f8:	82891000 	addhi	r1, r9, #0, 0
     1fc:	01110101 	tsteq	r1, r1, lsl #2
     200:	13011331 	movwne	r1, #4913	; 0x1331
     204:	8a110000 	bhi	44020c <__bss_end__+0x436264>
     208:	02000182 	andeq	r0, r0, #-2147483616	; 0x80000020
     20c:	18429118 	stmdane	r2, {r3, r4, r8, ip, pc}^
     210:	89120000 	ldmdbhi	r2, {}	; <UNPREDICTABLE>
     214:	11000182 	smlabbne	r0, r2, r1, r0
     218:	00133101 	andseq	r3, r3, r1, lsl #2
     21c:	01011300 	mrseq	r1, SP_irq
     220:	13011349 	movwne	r1, #4937	; 0x1349
     224:	21140000 	tstcs	r4, r0
     228:	2f134900 	svccs	0x00134900
     22c:	1500000b 	strne	r0, [r0, #-11]
     230:	0e030005 	cdpeq	0, 0, cr0, cr3, cr5, {0}
     234:	0b3b0b3a 	bleq	ec2f24 <__bss_end__+0xeb8f7c>
     238:	13490b39 	movtne	r0, #39737	; 0x9b39
     23c:	42b71702 	adcsmi	r1, r7, #524288	; 0x80000
     240:	16000017 			; <UNDEFINED> instruction: 0x16000017
     244:	08030005 	stmdaeq	r3, {r0, r2}
     248:	0b3b0b3a 	bleq	ec2f38 <__bss_end__+0xeb8f90>
     24c:	13490b39 	movtne	r0, #39737	; 0x9b39
     250:	42b71702 	adcsmi	r1, r7, #524288	; 0x80000
     254:	17000017 	smladne	r0, r7, r0, r0
     258:	0e030034 	mcreq	0, 0, r0, cr3, cr4, {1}
     25c:	0b3b0b3a 	bleq	ec2f4c <__bss_end__+0xeb8fa4>
     260:	13490b39 	movtne	r0, #39737	; 0x9b39
     264:	00001802 	andeq	r1, r0, r2, lsl #16
     268:	01828918 	orreq	r8, r2, r8, lsl r9
     26c:	31011101 	tstcc	r1, r1, lsl #2
     270:	19000013 	stmdbne	r0, {r0, r1, r4}
     274:	193f012e 	ldmdbne	pc!, {r1, r2, r3, r5, r8}	; <UNPREDICTABLE>
     278:	0b3a0e03 	bleq	e83a8c <__bss_end__+0xe79ae4>
     27c:	0b390b3b 	bleq	e42f70 <__bss_end__+0xe38fc8>
     280:	01111927 	tsteq	r1, r7, lsr #18
     284:	18400612 	stmdane	r0, {r1, r4, r9, sl}^
     288:	01194297 			; <UNDEFINED> instruction: 0x01194297
     28c:	1a000013 	bne	2e0 <__code_start__-0x7d20>
     290:	08030034 	stmdaeq	r3, {r2, r4, r5}
     294:	0b3b0b3a 	bleq	ec2f84 <__bss_end__+0xeb8fdc>
     298:	13490b39 	movtne	r0, #39737	; 0x9b39
     29c:	00001802 	andeq	r1, r0, r2, lsl #16
     2a0:	03012e1b 	movweq	r2, #7707	; 0x1e1b
     2a4:	3b0b3a0e 	blcc	2ceae4 <__bss_end__+0x2c4b3c>
     2a8:	270b390b 	strcs	r3, [fp, -fp, lsl #18]
     2ac:	20134919 	andscs	r4, r3, r9, lsl r9
     2b0:	0013010b 	andseq	r0, r3, fp, lsl #2
     2b4:	00051c00 	andeq	r1, r5, r0, lsl #24
     2b8:	0b3a0803 	bleq	e822cc <__bss_end__+0xe78324>
     2bc:	0b390b3b 	bleq	e42fb0 <__bss_end__+0xe39008>
     2c0:	00001349 	andeq	r1, r0, r9, asr #6
     2c4:	0300341d 	movweq	r3, #1053	; 0x41d
     2c8:	3413490e 	ldrcc	r4, [r3], #-2318	; 0xfffff6f2
     2cc:	1e000019 	mcrne	0, 0, r0, cr0, cr9, {0}
     2d0:	0e030005 	cdpeq	0, 0, cr0, cr3, cr5, {0}
     2d4:	0b3b0b3a 	bleq	ec2fc4 <__bss_end__+0xeb901c>
     2d8:	13490b39 	movtne	r0, #39737	; 0x9b39
     2dc:	341f0000 	ldrcc	r0, [pc], #-0	; 2e4 <__code_start__-0x7d1c>
     2e0:	490e0300 	stmdbmi	lr, {r8, r9}
     2e4:	1c193413 	cfldrsne	mvf3, [r9], {19}
     2e8:	2000000e 	andcs	r0, r0, lr
     2ec:	193f002e 	ldmdbne	pc!, {r1, r2, r3, r5}	; <UNPREDICTABLE>
     2f0:	0e6e193c 			; <UNDEFINED> instruction: 0x0e6e193c
     2f4:	0b3a0e03 	bleq	e83b08 <__bss_end__+0xe79b60>
     2f8:	0b390b3b 	bleq	e42fec <__bss_end__+0xe39044>
     2fc:	01000000 	mrseq	r0, (UNDEF: 0)
     300:	0e250111 	mcreq	1, 1, r0, cr5, cr1, {0}
     304:	0e030b13 	vmoveq.32	d3[0], r0
     308:	01110e1b 	tsteq	r1, fp, lsl lr
     30c:	17100612 			; <UNDEFINED> instruction: 0x17100612
     310:	24020000 	strcs	r0, [r2], #-0
     314:	3e0b0b00 	vmlacc.f64	d0, d11, d0
     318:	0008030b 	andeq	r0, r8, fp, lsl #6
     31c:	00240300 	eoreq	r0, r4, r0, lsl #6
     320:	0b3e0b0b 	bleq	f82f54 <__bss_end__+0xf78fac>
     324:	00000e03 	andeq	r0, r0, r3, lsl #28
     328:	49002604 	stmdbmi	r0, {r2, r9, sl, sp}
     32c:	05000013 	streq	r0, [r0, #-19]	; 0xffffffed
     330:	0e030016 	mcreq	0, 0, r0, cr3, cr6, {0}
     334:	0b3b0b3a 	bleq	ec3024 <__bss_end__+0xeb907c>
     338:	13490b39 	movtne	r0, #39737	; 0x9b39
     33c:	04060000 	streq	r0, [r6], #-0
     340:	0b0b3e01 	bleq	2cfb4c <__bss_end__+0x2c5ba4>
     344:	3a13490b 	bcc	4d2778 <__bss_end__+0x4c87d0>
     348:	390b3b0b 	stmdbcc	fp, {r0, r1, r3, r8, r9, fp, ip, sp}
     34c:	0013010b 	andseq	r0, r3, fp, lsl #2
     350:	00280700 	eoreq	r0, r8, r0, lsl #14
     354:	0b1c0e03 	bleq	703b68 <__bss_end__+0x6f9bc0>
     358:	13080000 	movwne	r0, #32768	; 0x8000
     35c:	3a0b0b01 	bcc	2c2f68 <__bss_end__+0x2b8fc0>
     360:	390b3b0b 	stmdbcc	fp, {r0, r1, r3, r8, r9, fp, ip, sp}
     364:	0013010b 	andseq	r0, r3, fp, lsl #2
     368:	000d0900 	andeq	r0, sp, r0, lsl #18
     36c:	0b3a0e03 	bleq	e83b80 <__bss_end__+0xe79bd8>
     370:	0b390b3b 	bleq	e43064 <__bss_end__+0xe390bc>
     374:	0b0b1349 	bleq	2c50a0 <__bss_end__+0x2bb0f8>
     378:	0b0c0b0d 	bleq	302fb4 <__bss_end__+0x2f900c>
     37c:	00000b38 	andeq	r0, r0, r8, lsr fp
     380:	03000d0a 	movweq	r0, #3338	; 0xd0a
     384:	3b0b3a08 	blcc	2cebac <__bss_end__+0x2c4c04>
     388:	490b390b 	stmdbmi	fp, {r0, r1, r3, r8, fp, ip, sp}
     38c:	0d0b0b13 	vstreq	d0, [fp, #-76]	; 0xffffffb4
     390:	380b0c0b 	stmdacc	fp, {r0, r1, r3, sl, fp}
     394:	0b00000b 	bleq	3c8 <__code_start__-0x7c38>
     398:	13490035 	movtne	r0, #36917	; 0x9035
     39c:	130c0000 	movwne	r0, #49152	; 0xc000
     3a0:	0b0e0301 	bleq	380fac <__bss_end__+0x377004>
     3a4:	3b0b3a0b 	blcc	2cebd8 <__bss_end__+0x2c4c30>
     3a8:	010b390b 	tsteq	fp, fp, lsl #18
     3ac:	0d000013 	stceq	0, cr0, [r0, #-76]	; 0xffffffb4
     3b0:	0e03000d 	cdpeq	0, 0, cr0, cr3, cr13, {0}
     3b4:	0b3b0b3a 	bleq	ec30a4 <__bss_end__+0xeb90fc>
     3b8:	13490b39 	movtne	r0, #39737	; 0x9b39
     3bc:	00000b38 	andeq	r0, r0, r8, lsr fp
     3c0:	0300340e 	movweq	r3, #1038	; 0x40e
     3c4:	3b0b3a08 	blcc	2cebec <__bss_end__+0x2c4c44>
     3c8:	490b390b 	stmdbmi	fp, {r0, r1, r3, r8, fp, ip, sp}
     3cc:	0f000013 	svceq	0x00000013
     3d0:	0b0b000f 	bleq	2c0414 <__bss_end__+0x2b646c>
     3d4:	00001349 	andeq	r1, r0, r9, asr #6
     3d8:	03003410 	movweq	r3, #1040	; 0x410
     3dc:	3b0b3a0e 	blcc	2cec1c <__bss_end__+0x2c4c74>
     3e0:	490b3905 	stmdbmi	fp, {r0, r2, r8, fp, ip, sp}
     3e4:	00180213 	andseq	r0, r8, r3, lsl r2
     3e8:	012e1100 			; <UNDEFINED> instruction: 0x012e1100
     3ec:	0b3a0e03 	bleq	e83c00 <__bss_end__+0xe79c58>
     3f0:	0b39053b 	bleq	e418e4 <__bss_end__+0xe3793c>
     3f4:	13011927 	movwne	r1, #6439	; 0x1927
     3f8:	34120000 	ldrcc	r0, [r2], #-0
     3fc:	490e0300 	stmdbmi	lr, {r8, r9}
     400:	1c193413 	cfldrsne	mvf3, [r9], {19}
     404:	1300000e 	movwne	r0, #14
     408:	1301010b 	movwne	r0, #4363	; 0x110b
     40c:	17140000 	ldrne	r0, [r4, -r0]
     410:	0b080301 	bleq	20101c <__bss_end__+0x1f7074>
     414:	3b0b3a0b 	blcc	2cec48 <__bss_end__+0x2c4ca0>
     418:	010b3905 	tsteq	fp, r5, lsl #18
     41c:	15000013 	strne	r0, [r0, #-19]	; 0xffffffed
     420:	0803000d 	stmdaeq	r3, {r0, r2, r3}
     424:	053b0b3a 	ldreq	r0, [fp, #-2874]!	; 0xfffff4c6
     428:	13490b39 	movtne	r0, #39737	; 0x9b39
     42c:	34160000 	ldrcc	r0, [r6], #-0
     430:	3a080300 	bcc	201038 <__bss_end__+0x1f7090>
     434:	39053b0b 	stmdbcc	r5, {r0, r1, r3, r8, r9, fp, ip, sp}
     438:	0013490b 	andseq	r4, r3, fp, lsl #18
     43c:	00341700 	eorseq	r1, r4, r0, lsl #14
     440:	0b3a0e03 	bleq	e83c54 <__bss_end__+0xe79cac>
     444:	0b39053b 	bleq	e41938 <__bss_end__+0xe37990>
     448:	00001349 	andeq	r1, r0, r9, asr #6
     44c:	00010b18 	andeq	r0, r1, r8, lsl fp
     450:	01011900 	tsteq	r1, r0, lsl #18
     454:	13011349 	movwne	r1, #4937	; 0x1349
     458:	211a0000 	tstcs	sl, r0
     45c:	2f134900 	svccs	0x00134900
     460:	1b00000b 	blne	494 <__code_start__-0x7b6c>
     464:	193f012e 	ldmdbne	pc!, {r1, r2, r3, r5, r8}	; <UNPREDICTABLE>
     468:	0b3a0e03 	bleq	e83c7c <__bss_end__+0xe79cd4>
     46c:	0b39053b 	bleq	e41960 <__bss_end__+0xe379b8>
     470:	01111927 	tsteq	r1, r7, lsr #18
     474:	18400612 	stmdane	r0, {r1, r4, r9, sl}^
     478:	01194297 			; <UNDEFINED> instruction: 0x01194297
     47c:	1c000013 	stcne	0, cr0, [r0], {19}
     480:	08030034 	stmdaeq	r3, {r2, r4, r5}
     484:	053b0b3a 	ldreq	r0, [fp, #-2874]!	; 0xfffff4c6
     488:	13490b39 	movtne	r0, #39737	; 0x9b39
     48c:	00000b1c 	andeq	r0, r0, ip, lsl fp
     490:	0300341d 	movweq	r3, #1053	; 0x41d
     494:	3413490e 	ldrcc	r4, [r3], #-2318	; 0xfffff6f2
     498:	00180219 	andseq	r0, r8, r9, lsl r2
     49c:	010b1e00 	tsteq	fp, r0, lsl #28
     4a0:	06120111 			; <UNDEFINED> instruction: 0x06120111
     4a4:	00001301 	andeq	r1, r0, r1, lsl #6
     4a8:	0182891f 	orreq	r8, r2, pc, lsl r9
     4ac:	31011100 	mrscc	r1, (UNDEF: 17)
     4b0:	20000013 	andcs	r0, r0, r3, lsl r0
     4b4:	01018289 	smlabbeq	r1, r9, r2, r8
     4b8:	13310111 	teqne	r1, #1073741828	; 0x40000004
     4bc:	00001301 	andeq	r1, r0, r1, lsl #6
     4c0:	01828a21 	orreq	r8, r2, r1, lsr #20
     4c4:	91180200 	tstls	r8, r0, lsl #4
     4c8:	00001842 	andeq	r1, r0, r2, asr #16
     4cc:	3f002e22 	svccc	0x00002e22
     4d0:	3a0e0319 	bcc	38113c <__bss_end__+0x377194>
     4d4:	39053b0b 	stmdbcc	r5, {r0, r1, r3, r8, r9, fp, ip, sp}
     4d8:	4919270b 	ldmdbmi	r9, {r0, r1, r3, r8, r9, sl, sp}
     4dc:	12011113 	andne	r1, r1, #-1073741820	; 0xc0000004
     4e0:	97184006 	ldrls	r4, [r8, -r6]
     4e4:	00001942 	andeq	r1, r0, r2, asr #18
     4e8:	3f012e23 	svccc	0x00012e23
     4ec:	3a0e0319 	bcc	381158 <__bss_end__+0x3771b0>
     4f0:	39053b0b 	stmdbcc	r5, {r0, r1, r3, r8, r9, fp, ip, sp}
     4f4:	4919270b 	ldmdbmi	r9, {r0, r1, r3, r8, r9, sl, sp}
     4f8:	12011113 	andne	r1, r1, #-1073741820	; 0xc0000004
     4fc:	97184006 	ldrls	r4, [r8, -r6]
     500:	13011942 	movwne	r1, #6466	; 0x1942
     504:	05240000 	streq	r0, [r4, #-0]!
     508:	3a0e0300 	bcc	381110 <__bss_end__+0x377168>
     50c:	39053b0b 	stmdbcc	r5, {r0, r1, r3, r8, r9, fp, ip, sp}
     510:	0213490b 	andseq	r4, r3, #180224	; 0x2c000
     514:	1742b717 	smlaldne	fp, r2, r7, r7
     518:	34250000 	strtcc	r0, [r5], #-0
     51c:	3a080300 	bcc	201124 <__bss_end__+0x1f717c>
     520:	39053b0b 	stmdbcc	r5, {r0, r1, r3, r8, r9, fp, ip, sp}
     524:	0213490b 	andseq	r4, r3, #180224	; 0x2c000
     528:	1742b717 	smlaldne	fp, r2, r7, r7
     52c:	2e260000 	cdpcs	0, 2, cr0, cr6, cr0, {0}
     530:	3a0e0301 	bcc	38113c <__bss_end__+0x377194>
     534:	39053b0b 	stmdbcc	r5, {r0, r1, r3, r8, r9, fp, ip, sp}
     538:	1119270b 	tstne	r9, fp, lsl #14
     53c:	40061201 	andmi	r1, r6, r1, lsl #4
     540:	19429718 	stmdbne	r2, {r3, r4, r8, r9, sl, ip, pc}^
     544:	00001301 	andeq	r1, r0, r1, lsl #6
     548:	03012e27 	movweq	r2, #7719	; 0x1e27
     54c:	3b0b3a0e 	blcc	2ced8c <__bss_end__+0x2c4de4>
     550:	270b390b 	strcs	r3, [fp, -fp, lsl #18]
     554:	12011119 	andne	r1, r1, #1073741830	; 0x40000006
     558:	97184006 	ldrls	r4, [r8, -r6]
     55c:	13011942 	movwne	r1, #6466	; 0x1942
     560:	05280000 	streq	r0, [r8, #-0]!
     564:	3a0e0300 	bcc	38116c <__bss_end__+0x3771c4>
     568:	390b3b0b 	stmdbcc	fp, {r0, r1, r3, r8, r9, fp, ip, sp}
     56c:	0213490b 	andseq	r4, r3, #180224	; 0x2c000
     570:	1742b717 	smlaldne	fp, r2, r7, r7
     574:	17290000 	strne	r0, [r9, -r0]!
     578:	0b080301 	bleq	201184 <__bss_end__+0x1f71dc>
     57c:	3b0b3a0b 	blcc	2cedb0 <__bss_end__+0x2c4e08>
     580:	010b390b 	tsteq	fp, fp, lsl #18
     584:	2a000013 	bcs	5d8 <__code_start__-0x7a28>
     588:	0803000d 	stmdaeq	r3, {r0, r2, r3}
     58c:	0b3b0b3a 	bleq	ec327c <__bss_end__+0xeb92d4>
     590:	13490b39 	movtne	r0, #39737	; 0x9b39
     594:	892b0000 	stmdbhi	fp!, {}	; <UNPREDICTABLE>
     598:	11010182 	smlabbne	r1, r2, r1, r0
     59c:	00133101 	andseq	r3, r3, r1, lsl #2
     5a0:	012e2c00 			; <UNDEFINED> instruction: 0x012e2c00
     5a4:	0b3a0e03 	bleq	e83db8 <__bss_end__+0xe79e10>
     5a8:	0b390b3b 	bleq	e4329c <__bss_end__+0xe392f4>
     5ac:	13491927 	movtne	r1, #39207	; 0x9927
     5b0:	06120111 			; <UNDEFINED> instruction: 0x06120111
     5b4:	42971840 	addsmi	r1, r7, #64, 16	; 0x400000
     5b8:	00130119 	andseq	r0, r3, r9, lsl r1
     5bc:	00052d00 	andeq	r2, r5, r0, lsl #26
     5c0:	0b3a0803 	bleq	e825d4 <__bss_end__+0xe7862c>
     5c4:	0b390b3b 	bleq	e432b8 <__bss_end__+0xe39310>
     5c8:	17021349 	strne	r1, [r2, -r9, asr #6]
     5cc:	001742b7 			; <UNDEFINED> instruction: 0x001742b7
     5d0:	002e2e00 	eoreq	r2, lr, r0, lsl #28
     5d4:	193c193f 	ldmdbne	ip!, {r0, r1, r2, r3, r4, r5, r8, fp, ip}
     5d8:	0e030e6e 	cdpeq	14, 0, cr0, cr3, cr14, {3}
     5dc:	0b3b0b3a 	bleq	ec32cc <__bss_end__+0xeb9324>
     5e0:	00000b39 	andeq	r0, r0, r9, lsr fp
     5e4:	01110100 	tsteq	r1, r0, lsl #2
     5e8:	0b130e25 	bleq	4c3e84 <__bss_end__+0x4b9edc>
     5ec:	0e1b0e03 	cdpeq	14, 1, cr0, cr11, cr3, {0}
     5f0:	06120111 			; <UNDEFINED> instruction: 0x06120111
     5f4:	00001710 	andeq	r1, r0, r0, lsl r7
     5f8:	03001602 	movweq	r1, #1538	; 0x602
     5fc:	3b0b3a0e 	blcc	2cee3c <__bss_end__+0x2c4e94>
     600:	490b390b 	stmdbmi	fp, {r0, r1, r3, r8, fp, ip, sp}
     604:	03000013 	movweq	r0, #19
     608:	0e030113 	mcreq	1, 0, r0, cr3, cr3, {0}
     60c:	0b3a0b0b 	bleq	e83240 <__bss_end__+0xe79298>
     610:	13010b3b 	movwne	r0, #6971	; 0x1b3b
     614:	0d040000 	stceq	0, cr0, [r4, #-0]
     618:	490e0300 	stmdbmi	lr, {r8, r9}
     61c:	340b3813 	strcc	r3, [fp], #-2067	; 0xfffff7ed
     620:	05000019 	streq	r0, [r0, #-25]	; 0xffffffe7
     624:	0b0b000f 	bleq	2c0668 <__bss_end__+0x2b66c0>
     628:	24060000 	strcs	r0, [r6], #-0
     62c:	3e0b0b00 	vmlacc.f64	d0, d11, d0
     630:	0008030b 	andeq	r0, r8, fp, lsl #6
     634:	00240700 	eoreq	r0, r4, r0, lsl #14
     638:	0b3e0b0b 	bleq	f8326c <__bss_end__+0xf792c4>
     63c:	00000e03 	andeq	r0, r0, r3, lsl #28
     640:	27011508 	strcs	r1, [r1, -r8, lsl #10]
     644:	01134919 	tsteq	r3, r9, lsl r9
     648:	09000013 	stmdbeq	r0, {r0, r1, r4}
     64c:	13490005 	movtne	r0, #36869	; 0x9005
     650:	340a0000 	strcc	r0, [sl], #-0
     654:	3a0e0300 	bcc	38125c <__bss_end__+0x3772b4>
     658:	390b3b0b 	stmdbcc	fp, {r0, r1, r3, r8, r9, fp, ip, sp}
     65c:	3f13490b 	svccc	0x0013490b
     660:	00193c19 	andseq	r3, r9, r9, lsl ip
     664:	000f0b00 	andeq	r0, pc, r0, lsl #22
     668:	13490b0b 	movtne	r0, #39691	; 0x9b0b
     66c:	260c0000 	strcs	r0, [ip], -r0
     670:	00134900 	andseq	r4, r3, r0, lsl #18
     674:	012e0d00 			; <UNDEFINED> instruction: 0x012e0d00
     678:	0e03193f 			; <UNDEFINED> instruction: 0x0e03193f
     67c:	0b3b0b3a 	bleq	ec336c <__bss_end__+0xeb93c4>
     680:	19270b39 	stmdbne	r7!, {r0, r3, r4, r5, r8, r9, fp}
     684:	01111349 	tsteq	r1, r9, asr #6
     688:	18400612 	stmdane	r0, {r1, r4, r9, sl}^
     68c:	01194297 			; <UNDEFINED> instruction: 0x01194297
     690:	0e000013 	mcreq	0, 0, r0, cr0, cr3, {0}
     694:	08030005 	stmdaeq	r3, {r0, r2}
     698:	0b3b0b3a 	bleq	ec3388 <__bss_end__+0xeb93e0>
     69c:	13490b39 	movtne	r0, #39737	; 0x9b39
     6a0:	00001802 	andeq	r1, r0, r2, lsl #16
     6a4:	0000180f 	andeq	r1, r0, pc, lsl #16
     6a8:	00341000 	eorseq	r1, r4, r0
     6ac:	0b3a0803 	bleq	e826c0 <__bss_end__+0xe78718>
     6b0:	0b390b3b 	bleq	e433a4 <__bss_end__+0xe393fc>
     6b4:	18021349 	stmdane	r2, {r0, r3, r6, r8, r9, ip}
     6b8:	34110000 	ldrcc	r0, [r1], #-0
     6bc:	3a0e0300 	bcc	3812c4 <__bss_end__+0x37731c>
     6c0:	390b3b0b 	stmdbcc	fp, {r0, r1, r3, r8, r9, fp, ip, sp}
     6c4:	0213490b 	andseq	r4, r3, #180224	; 0x2c000
     6c8:	12000018 	andne	r0, r0, #24, 0
     6cc:	08030034 	stmdaeq	r3, {r2, r4, r5}
     6d0:	0b3b0b3a 	bleq	ec33c0 <__bss_end__+0xeb9418>
     6d4:	13490b39 	movtne	r0, #39737	; 0x9b39
     6d8:	42b71702 	adcsmi	r1, r7, #524288	; 0x80000
     6dc:	13000017 	movwne	r0, #23
     6e0:	01018289 	smlabbeq	r1, r9, r2, r8
     6e4:	13310111 	teqne	r1, #1073741828	; 0x40000004
     6e8:	00001301 	andeq	r1, r0, r1, lsl #6
     6ec:	01828a14 	orreq	r8, r2, r4, lsl sl
     6f0:	91180200 	tstls	r8, r0, lsl #4
     6f4:	00001842 	andeq	r1, r0, r2, asr #16
     6f8:	01828915 	orreq	r8, r2, r5, lsl r9
     6fc:	00011101 	andeq	r1, r1, r1, lsl #2
     700:	01011600 	tsteq	r1, r0, lsl #12
     704:	13011349 	movwne	r1, #4937	; 0x1349
     708:	21170000 	tstcs	r7, r0
     70c:	2f134900 	svccs	0x00134900
     710:	18000005 	stmdane	r0, {r0, r2}
     714:	193f002e 	ldmdbne	pc!, {r1, r2, r3, r5}	; <UNPREDICTABLE>
     718:	0e6e193c 			; <UNDEFINED> instruction: 0x0e6e193c
     71c:	0b3a0e03 	bleq	e83f30 <__bss_end__+0xe79f88>
     720:	0b390b3b 	bleq	e43414 <__bss_end__+0xe3946c>
     724:	01000000 	mrseq	r0, (UNDEF: 0)
     728:	0e250111 	mcreq	1, 1, r0, cr5, cr1, {0}
     72c:	0e030b13 	vmoveq.32	d3[0], r0
     730:	01110e1b 	tsteq	r1, fp, lsl lr
     734:	17100612 			; <UNDEFINED> instruction: 0x17100612
     738:	24020000 	strcs	r0, [r2], #-0
     73c:	3e0b0b00 	vmlacc.f64	d0, d11, d0
     740:	0008030b 	andeq	r0, r8, fp, lsl #6
     744:	00240300 	eoreq	r0, r4, r0, lsl #6
     748:	0b3e0b0b 	bleq	f8337c <__bss_end__+0xf793d4>
     74c:	00000e03 	andeq	r0, r0, r3, lsl #28
     750:	27011504 	strcs	r1, [r1, -r4, lsl #10]
     754:	01134919 	tsteq	r3, r9, lsl r9
     758:	05000013 	streq	r0, [r0, #-19]	; 0xffffffed
     75c:	13490005 	movtne	r0, #36869	; 0x9005
     760:	34060000 	strcc	r0, [r6], #-0
     764:	3a0e0300 	bcc	38136c <__bss_end__+0x3773c4>
     768:	390b3b0b 	stmdbcc	fp, {r0, r1, r3, r8, r9, fp, ip, sp}
     76c:	3f13490b 	svccc	0x0013490b
     770:	00193c19 	andseq	r3, r9, r9, lsl ip
     774:	000f0700 	andeq	r0, pc, r0, lsl #14
     778:	13490b0b 	movtne	r0, #39691	; 0x9b0b
     77c:	26080000 	strcs	r0, [r8], -r0
     780:	00134900 	andseq	r4, r3, r0, lsl #18
     784:	00340900 	eorseq	r0, r4, r0, lsl #18
     788:	0b3a1347 	bleq	e854ac <__bss_end__+0xe7b504>
     78c:	0b390b3b 	bleq	e43480 <__bss_end__+0xe394d8>
     790:	00001802 	andeq	r1, r0, r2, lsl #16
     794:	3f012e0a 	svccc	0x00012e0a
     798:	3a0e0319 	bcc	381404 <__bss_end__+0x37745c>
     79c:	390b3b0b 	stmdbcc	fp, {r0, r1, r3, r8, r9, fp, ip, sp}
     7a0:	4919270b 	ldmdbmi	r9, {r0, r1, r3, r8, r9, sl, sp}
     7a4:	12011113 	andne	r1, r1, #-1073741820	; 0xc0000004
     7a8:	96184006 	ldrls	r4, [r8], -r6
     7ac:	00001942 	andeq	r1, r0, r2, asr #18
     7b0:	0300050b 	movweq	r0, #1291	; 0x50b
     7b4:	3b0b3a08 	blcc	2cefdc <__bss_end__+0x2c5034>
     7b8:	490b390b 	stmdbmi	fp, {r0, r1, r3, r8, fp, ip, sp}
     7bc:	b7170213 			; <UNDEFINED> instruction: 0xb7170213
     7c0:	00001742 	andeq	r1, r0, r2, asr #14
     7c4:	01110100 	tsteq	r1, r0, lsl #2
     7c8:	0b130e25 	bleq	4c4064 <__bss_end__+0x4ba0bc>
     7cc:	0e1b0e03 	cdpeq	14, 1, cr0, cr11, cr3, {0}
     7d0:	06120111 			; <UNDEFINED> instruction: 0x06120111
     7d4:	00001710 	andeq	r1, r0, r0, lsl r7
     7d8:	0b002402 	bleq	97e8 <__code_end__+0x90>
     7dc:	030b3e0b 	movweq	r3, #48651	; 0xbe0b
     7e0:	03000008 	movweq	r0, #8
     7e4:	0b0b0024 	bleq	2c087c <__bss_end__+0x2b68d4>
     7e8:	0e030b3e 	vmoveq.16	d3[0], r0
     7ec:	16040000 	strne	r0, [r4], -r0
     7f0:	3a0e0300 	bcc	3813f8 <__bss_end__+0x377450>
     7f4:	390b3b0b 	stmdbcc	fp, {r0, r1, r3, r8, r9, fp, ip, sp}
     7f8:	0013490b 	andseq	r4, r3, fp, lsl #18
     7fc:	01150500 	tsteq	r5, r0, lsl #10
     800:	13491927 	movtne	r1, #39207	; 0x9927
     804:	00001301 	andeq	r1, r0, r1, lsl #6
     808:	49000506 	stmdbmi	r0, {r1, r2, r8, sl}
     80c:	07000013 	smladeq	r0, r3, r0, r0
     810:	0e030034 	mcreq	0, 0, r0, cr3, cr4, {1}
     814:	0b3b0b3a 	bleq	ec3504 <__bss_end__+0xeb955c>
     818:	13490b39 	movtne	r0, #39737	; 0x9b39
     81c:	193c193f 	ldmdbne	ip!, {r0, r1, r2, r3, r4, r5, r8, fp, ip}
     820:	0f080000 	svceq	0x00080000
     824:	490b0b00 	stmdbmi	fp, {r8, r9, fp}
     828:	09000013 	stmdbeq	r0, {r0, r1, r4}
     82c:	13490026 	movtne	r0, #36902	; 0x9026
     830:	130a0000 	movwne	r0, #40960	; 0xa000
     834:	0b0e0301 	bleq	381440 <__bss_end__+0x377498>
     838:	3b0b3a0b 	blcc	2cf06c <__bss_end__+0x2c50c4>
     83c:	0013010b 	andseq	r0, r3, fp, lsl #2
     840:	000d0b00 	andeq	r0, sp, r0, lsl #22
     844:	13490e03 	movtne	r0, #40451	; 0x9e03
     848:	19340b38 	ldmdbne	r4!, {r3, r4, r5, r8, r9, fp}
     84c:	0f0c0000 	svceq	0x000c0000
     850:	000b0b00 	andeq	r0, fp, r0, lsl #22
     854:	012e0d00 			; <UNDEFINED> instruction: 0x012e0d00
     858:	0e03193f 			; <UNDEFINED> instruction: 0x0e03193f
     85c:	0b3b0b3a 	bleq	ec354c <__bss_end__+0xeb95a4>
     860:	19270b39 	stmdbne	r7!, {r0, r3, r4, r5, r8, r9, fp}
     864:	01111349 	tsteq	r1, r9, asr #6
     868:	18400612 	stmdane	r0, {r1, r4, r9, sl}^
     86c:	01194297 			; <UNDEFINED> instruction: 0x01194297
     870:	0e000013 	mcreq	0, 0, r0, cr0, cr3, {0}
     874:	08030005 	stmdaeq	r3, {r0, r2}
     878:	0b3b0b3a 	bleq	ec3568 <__bss_end__+0xeb95c0>
     87c:	13490b39 	movtne	r0, #39737	; 0x9b39
     880:	42b71702 	adcsmi	r1, r7, #524288	; 0x80000
     884:	0f000017 	svceq	0x00000017
     888:	0e030005 	cdpeq	0, 0, cr0, cr3, cr5, {0}
     88c:	0b3b0b3a 	bleq	ec357c <__bss_end__+0xeb95d4>
     890:	13490b39 	movtne	r0, #39737	; 0x9b39
     894:	00001802 	andeq	r1, r0, r2, lsl #16
     898:	03003410 	movweq	r3, #1040	; 0x410
     89c:	3b0b3a08 	blcc	2cf0c4 <__bss_end__+0x2c511c>
     8a0:	490b390b 	stmdbmi	fp, {r0, r1, r3, r8, fp, ip, sp}
     8a4:	b7170213 			; <UNDEFINED> instruction: 0xb7170213
     8a8:	00001742 	andeq	r1, r0, r2, asr #14
     8ac:	03003411 	movweq	r3, #1041	; 0x411
     8b0:	3b0b3a0e 	blcc	2cf0f0 <__bss_end__+0x2c5148>
     8b4:	490b390b 	stmdbmi	fp, {r0, r1, r3, r8, fp, ip, sp}
     8b8:	b7170213 			; <UNDEFINED> instruction: 0xb7170213
     8bc:	00001742 	andeq	r1, r0, r2, asr #14
     8c0:	03003412 	movweq	r3, #1042	; 0x412
     8c4:	3413490e 	ldrcc	r4, [r3], #-2318	; 0xfffff6f2
     8c8:	00180219 	andseq	r0, r8, r9, lsl r2
     8cc:	010b1300 	mrseq	r1, (UNDEF: 59)
     8d0:	06120111 			; <UNDEFINED> instruction: 0x06120111
     8d4:	34140000 	ldrcc	r0, [r4], #-0
     8d8:	3a080300 	bcc	2014e0 <__bss_end__+0x1f7538>
     8dc:	390b3b0b 	stmdbcc	fp, {r0, r1, r3, r8, r9, fp, ip, sp}
     8e0:	0213490b 	andseq	r4, r3, #180224	; 0x2c000
     8e4:	15000018 	strne	r0, [r0, #-24]	; 0xffffffe8
     8e8:	0e030034 	mcreq	0, 0, r0, cr3, cr4, {1}
     8ec:	0b3b0b3a 	bleq	ec35dc <__bss_end__+0xeb9634>
     8f0:	13490b39 	movtne	r0, #39737	; 0x9b39
     8f4:	00001802 	andeq	r1, r0, r2, lsl #16
     8f8:	11010b16 	tstne	r1, r6, lsl fp
     8fc:	01061201 	tsteq	r6, r1, lsl #4
     900:	17000013 	smladne	r0, r3, r0, r0
     904:	08030034 	stmdaeq	r3, {r2, r4, r5}
     908:	0b3b0b3a 	bleq	ec35f8 <__bss_end__+0xeb9650>
     90c:	13490b39 	movtne	r0, #39737	; 0x9b39
     910:	89180000 	ldmdbhi	r8, {}	; <UNPREDICTABLE>
     914:	11010182 	smlabbne	r1, r2, r1, r0
     918:	01133101 	tsteq	r3, r1, lsl #2
     91c:	19000013 	stmdbne	r0, {r0, r1, r4}
     920:	0001828a 	andeq	r8, r1, sl, lsl #5
     924:	42911802 	addsmi	r1, r1, #131072	; 0x20000
     928:	1a000018 	bne	990 <__code_start__-0x7670>
     92c:	00018289 	andeq	r8, r1, r9, lsl #5
     930:	13310111 	teqne	r1, #1073741828	; 0x40000004
     934:	891b0000 	ldmdbhi	fp, {}	; <UNPREDICTABLE>
     938:	11010182 	smlabbne	r1, r2, r1, r0
     93c:	00130101 	andseq	r0, r3, r1, lsl #2
     940:	01011c00 	tsteq	r1, r0, lsl #24
     944:	13011349 	movwne	r1, #4937	; 0x1349
     948:	211d0000 	tstcs	sp, r0
     94c:	2f134900 	svccs	0x00134900
     950:	1e00000b 	cdpne	0, 0, cr0, cr0, cr11, {0}
     954:	0e03012e 	adfeqsp	f0, f3, #0.5
     958:	0b3b0b3a 	bleq	ec3648 <__bss_end__+0xeb96a0>
     95c:	19270b39 	stmdbne	r7!, {r0, r3, r4, r5, r8, r9, fp}
     960:	01111349 	tsteq	r1, r9, asr #6
     964:	18400612 	stmdane	r0, {r1, r4, r9, sl}^
     968:	01194297 			; <UNDEFINED> instruction: 0x01194297
     96c:	1f000013 	svcne	0x00000013
     970:	0e030005 	cdpeq	0, 0, cr0, cr3, cr5, {0}
     974:	0b3b0b3a 	bleq	ec3664 <__bss_end__+0xeb96bc>
     978:	13490b39 	movtne	r0, #39737	; 0x9b39
     97c:	42b71702 	adcsmi	r1, r7, #524288	; 0x80000
     980:	20000017 	andcs	r0, r0, r7, lsl r0
     984:	0803012e 	stmdaeq	r3, {r1, r2, r3, r5, r8}
     988:	0b3b0b3a 	bleq	ec3678 <__bss_end__+0xeb96d0>
     98c:	19270b39 	stmdbne	r7!, {r0, r3, r4, r5, r8, r9, fp}
     990:	01111349 	tsteq	r1, r9, asr #6
     994:	18400612 	stmdane	r0, {r1, r4, r9, sl}^
     998:	01194297 			; <UNDEFINED> instruction: 0x01194297
     99c:	21000013 	tstcs	r0, r3, lsl r0
     9a0:	193f012e 	ldmdbne	pc!, {r1, r2, r3, r5, r8}	; <UNPREDICTABLE>
     9a4:	0b3a0e03 	bleq	e841b8 <__bss_end__+0xe7a210>
     9a8:	0b390b3b 	bleq	e4369c <__bss_end__+0xe396f4>
     9ac:	01111927 	tsteq	r1, r7, lsr #18
     9b0:	18400612 	stmdane	r0, {r1, r4, r9, sl}^
     9b4:	01194297 			; <UNDEFINED> instruction: 0x01194297
     9b8:	22000013 	andcs	r0, r0, #19, 0
     9bc:	193f002e 	ldmdbne	pc!, {r1, r2, r3, r5}	; <UNPREDICTABLE>
     9c0:	0e6e193c 			; <UNDEFINED> instruction: 0x0e6e193c
     9c4:	0b3a0e03 	bleq	e841d8 <__bss_end__+0xe7a230>
     9c8:	0b390b3b 	bleq	e436bc <__bss_end__+0xe39714>
     9cc:	01000000 	mrseq	r0, (UNDEF: 0)
     9d0:	0e250111 	mcreq	1, 1, r0, cr5, cr1, {0}
     9d4:	0e030b13 	vmoveq.32	d3[0], r0
     9d8:	01110e1b 	tsteq	r1, fp, lsl lr
     9dc:	17100612 			; <UNDEFINED> instruction: 0x17100612
     9e0:	24020000 	strcs	r0, [r2], #-0
     9e4:	3e0b0b00 	vmlacc.f64	d0, d11, d0
     9e8:	0008030b 	andeq	r0, r8, fp, lsl #6
     9ec:	00240300 	eoreq	r0, r4, r0, lsl #6
     9f0:	0b3e0b0b 	bleq	f83624 <__bss_end__+0xf7967c>
     9f4:	00000e03 	andeq	r0, r0, r3, lsl #28
     9f8:	27011504 	strcs	r1, [r1, -r4, lsl #10]
     9fc:	01134919 	tsteq	r3, r9, lsl r9
     a00:	05000013 	streq	r0, [r0, #-19]	; 0xffffffed
     a04:	13490005 	movtne	r0, #36869	; 0x9005
     a08:	34060000 	strcc	r0, [r6], #-0
     a0c:	3a0e0300 	bcc	381614 <__bss_end__+0x37766c>
     a10:	390b3b0b 	stmdbcc	fp, {r0, r1, r3, r8, r9, fp, ip, sp}
     a14:	3f13490b 	svccc	0x0013490b
     a18:	00193c19 	andseq	r3, r9, r9, lsl ip
     a1c:	000f0700 	andeq	r0, pc, r0, lsl #14
     a20:	13490b0b 	movtne	r0, #39691	; 0x9b0b
     a24:	26080000 	strcs	r0, [r8], -r0
     a28:	00134900 	andseq	r4, r3, r0, lsl #18
     a2c:	012e0900 			; <UNDEFINED> instruction: 0x012e0900
     a30:	0e03193f 			; <UNDEFINED> instruction: 0x0e03193f
     a34:	0b3b0b3a 	bleq	ec3724 <__bss_end__+0xeb977c>
     a38:	19270b39 	stmdbne	r7!, {r0, r3, r4, r5, r8, r9, fp}
     a3c:	11190187 	tstne	r9, r7, lsl #3
     a40:	40061201 	andmi	r1, r6, r1, lsl #4
     a44:	19429718 	stmdbne	r2, {r3, r4, r8, r9, sl, ip, pc}^
     a48:	00001301 	andeq	r1, r0, r1, lsl #6
     a4c:	0182890a 	orreq	r8, r2, sl, lsl #18
     a50:	01011101 	tsteq	r1, r1, lsl #2
     a54:	0b000013 	bleq	aa8 <__code_start__-0x7558>
     a58:	0001828a 	andeq	r8, r1, sl, lsl #5
     a5c:	42911802 	addsmi	r1, r1, #131072	; 0x20000
     a60:	0c000018 	stceq	0, cr0, [r0], {24}
     a64:	00018289 	andeq	r8, r1, r9, lsl #5
     a68:	13310111 	teqne	r1, #1073741828	; 0x40000004
     a6c:	890d0000 	stmdbhi	sp, {}	; <UNPREDICTABLE>
     a70:	11010182 	smlabbne	r1, r2, r1, r0
     a74:	01133101 	tsteq	r3, r1, lsl #2
     a78:	0e000013 	mcreq	0, 0, r0, cr0, cr3, {0}
     a7c:	193f002e 	ldmdbne	pc!, {r1, r2, r3, r5}	; <UNPREDICTABLE>
     a80:	0e6e193c 			; <UNDEFINED> instruction: 0x0e6e193c
     a84:	0b3a0e03 	bleq	e84298 <__bss_end__+0xe7a2f0>
     a88:	0b390b3b 	bleq	e4377c <__bss_end__+0xe397d4>
     a8c:	01000000 	mrseq	r0, (UNDEF: 0)
     a90:	0e250111 	mcreq	1, 1, r0, cr5, cr1, {0}
     a94:	0e030b13 	vmoveq.32	d3[0], r0
     a98:	01110e1b 	tsteq	r1, fp, lsl lr
     a9c:	17100612 			; <UNDEFINED> instruction: 0x17100612
     aa0:	24020000 	strcs	r0, [r2], #-0
     aa4:	3e0b0b00 	vmlacc.f64	d0, d11, d0
     aa8:	0008030b 	andeq	r0, r8, fp, lsl #6
     aac:	00240300 	eoreq	r0, r4, r0, lsl #6
     ab0:	0b3e0b0b 	bleq	f836e4 <__bss_end__+0xf7973c>
     ab4:	00000e03 	andeq	r0, r0, r3, lsl #28
     ab8:	27011504 	strcs	r1, [r1, -r4, lsl #10]
     abc:	01134919 	tsteq	r3, r9, lsl r9
     ac0:	05000013 	streq	r0, [r0, #-19]	; 0xffffffed
     ac4:	13490005 	movtne	r0, #36869	; 0x9005
     ac8:	34060000 	strcc	r0, [r6], #-0
     acc:	3a0e0300 	bcc	3816d4 <__bss_end__+0x37772c>
     ad0:	390b3b0b 	stmdbcc	fp, {r0, r1, r3, r8, r9, fp, ip, sp}
     ad4:	3f13490b 	svccc	0x0013490b
     ad8:	00193c19 	andseq	r3, r9, r9, lsl ip
     adc:	000f0700 	andeq	r0, pc, r0, lsl #14
     ae0:	13490b0b 	movtne	r0, #39691	; 0x9b0b
     ae4:	26080000 	strcs	r0, [r8], -r0
     ae8:	00134900 	andseq	r4, r3, r0, lsl #18
     aec:	012e0900 			; <UNDEFINED> instruction: 0x012e0900
     af0:	0e03193f 			; <UNDEFINED> instruction: 0x0e03193f
     af4:	0b3b0b3a 	bleq	ec37e4 <__bss_end__+0xeb983c>
     af8:	01110b39 	tsteq	r1, r9, lsr fp
     afc:	18400612 	stmdane	r0, {r1, r4, r9, sl}^
     b00:	01194297 			; <UNDEFINED> instruction: 0x01194297
     b04:	0a000013 	beq	b58 <__code_start__-0x74a8>
     b08:	193f002e 	ldmdbne	pc!, {r1, r2, r3, r5}	; <UNPREDICTABLE>
     b0c:	0b3a0e03 	bleq	e84320 <__bss_end__+0xe7a378>
     b10:	0b390b3b 	bleq	e43804 <__bss_end__+0xe3985c>
     b14:	193c1927 	ldmdbne	ip!, {r0, r1, r2, r5, r8, fp, ip}
     b18:	340b0000 	strcc	r0, [fp], #-0
     b1c:	3a080300 	bcc	201724 <__bss_end__+0x1f777c>
     b20:	390b3b0b 	stmdbcc	fp, {r0, r1, r3, r8, r9, fp, ip, sp}
     b24:	0213490b 	andseq	r4, r3, #180224	; 0x2c000
     b28:	1742b717 	smlaldne	fp, r2, r7, r7
     b2c:	340c0000 	strcc	r0, [ip], #-0
     b30:	3a0e0300 	bcc	381738 <__bss_end__+0x377790>
     b34:	390b3b0b 	stmdbcc	fp, {r0, r1, r3, r8, r9, fp, ip, sp}
     b38:	0013490b 	andseq	r4, r3, fp, lsl #18
     b3c:	010b0d00 	tsteq	fp, r0, lsl #26
     b40:	06120111 			; <UNDEFINED> instruction: 0x06120111
     b44:	00001301 	andeq	r1, r0, r1, lsl #6
     b48:	0300340e 	movweq	r3, #1038	; 0x40e
     b4c:	3b0b3a08 	blcc	2cf374 <__bss_end__+0x2c53cc>
     b50:	490b390b 	stmdbmi	fp, {r0, r1, r3, r8, fp, ip, sp}
     b54:	000b1c13 	andeq	r1, fp, r3, lsl ip
     b58:	82890f00 	addhi	r0, r9, #0, 30
     b5c:	01110001 	tsteq	r1, r1
     b60:	00001331 	andeq	r1, r0, r1, lsr r3
     b64:	3f002e10 	svccc	0x00002e10
     b68:	6e193c19 	mrcvs	12, 0, r3, cr9, cr9, {0}
     b6c:	3a0e030e 	bcc	3817ac <__bss_end__+0x377804>
     b70:	39053b0b 	stmdbcc	r5, {r0, r1, r3, r8, r9, fp, ip, sp}
     b74:	1100000b 	tstne	r0, fp
     b78:	193f002e 	ldmdbne	pc!, {r1, r2, r3, r5}	; <UNPREDICTABLE>
     b7c:	0e6e193c 			; <UNDEFINED> instruction: 0x0e6e193c
     b80:	0b3a0e03 	bleq	e84394 <__bss_end__+0xe7a3ec>
     b84:	0b390b3b 	bleq	e43878 <__bss_end__+0xe398d0>
     b88:	01000000 	mrseq	r0, (UNDEF: 0)
     b8c:	0e250111 	mcreq	1, 1, r0, cr5, cr1, {0}
     b90:	0e030b13 	vmoveq.32	d3[0], r0
     b94:	01110e1b 	tsteq	r1, fp, lsl lr
     b98:	17100612 			; <UNDEFINED> instruction: 0x17100612
     b9c:	24020000 	strcs	r0, [r2], #-0
     ba0:	3e0b0b00 	vmlacc.f64	d0, d11, d0
     ba4:	0008030b 	andeq	r0, r8, fp, lsl #6
     ba8:	00240300 	eoreq	r0, r4, r0, lsl #6
     bac:	0b3e0b0b 	bleq	f837e0 <__bss_end__+0xf79838>
     bb0:	00000e03 	andeq	r0, r0, r3, lsl #28
     bb4:	27011504 	strcs	r1, [r1, -r4, lsl #10]
     bb8:	01134919 	tsteq	r3, r9, lsl r9
     bbc:	05000013 	streq	r0, [r0, #-19]	; 0xffffffed
     bc0:	13490005 	movtne	r0, #36869	; 0x9005
     bc4:	34060000 	strcc	r0, [r6], #-0
     bc8:	3a0e0300 	bcc	3817d0 <__bss_end__+0x377828>
     bcc:	390b3b0b 	stmdbcc	fp, {r0, r1, r3, r8, r9, fp, ip, sp}
     bd0:	3f13490b 	svccc	0x0013490b
     bd4:	00193c19 	andseq	r3, r9, r9, lsl ip
     bd8:	000f0700 	andeq	r0, pc, r0, lsl #14
     bdc:	13490b0b 	movtne	r0, #39691	; 0x9b0b
     be0:	26080000 	strcs	r0, [r8], -r0
     be4:	00134900 	andseq	r4, r3, r0, lsl #18
     be8:	002e0900 	eoreq	r0, lr, r0, lsl #18
     bec:	0e03193f 			; <UNDEFINED> instruction: 0x0e03193f
     bf0:	0b3b0b3a 	bleq	ec38e0 <__bss_end__+0xeb9938>
     bf4:	19270b39 	stmdbne	r7!, {r0, r3, r4, r5, r8, r9, fp}
     bf8:	06120111 			; <UNDEFINED> instruction: 0x06120111
     bfc:	42971840 	addsmi	r1, r7, #64, 16	; 0x400000
     c00:	00000019 	andeq	r0, r0, r9, lsl r0
     c04:	25011101 	strcs	r1, [r1, #-257]	; 0xfffffeff
     c08:	030b130e 	movweq	r1, #45838	; 0xb30e
     c0c:	550e1b0e 	strpl	r1, [lr, #-2830]	; 0xfffff4f2
     c10:	10011117 	andne	r1, r1, r7, lsl r1
     c14:	02000017 	andeq	r0, r0, #23, 0
     c18:	0b0b0024 	bleq	2c0cb0 <__bss_end__+0x2b6d08>
     c1c:	08030b3e 	stmdaeq	r3, {r1, r2, r3, r4, r5, r8, r9, fp}
     c20:	26030000 	strcs	r0, [r3], -r0
     c24:	00134900 	andseq	r4, r3, r0, lsl #18
     c28:	00240400 	eoreq	r0, r4, r0, lsl #8
     c2c:	0b3e0b0b 	bleq	f83860 <__bss_end__+0xf798b8>
     c30:	00000e03 	andeq	r0, r0, r3, lsl #28
     c34:	27011505 	strcs	r1, [r1, -r5, lsl #10]
     c38:	01134919 	tsteq	r3, r9, lsl r9
     c3c:	06000013 			; <UNDEFINED> instruction: 0x06000013
     c40:	13490005 	movtne	r0, #36869	; 0x9005
     c44:	34070000 	strcc	r0, [r7], #-0
     c48:	3a0e0300 	bcc	381850 <__bss_end__+0x3778a8>
     c4c:	390b3b0b 	stmdbcc	fp, {r0, r1, r3, r8, r9, fp, ip, sp}
     c50:	3f13490b 	svccc	0x0013490b
     c54:	00193c19 	andseq	r3, r9, r9, lsl ip
     c58:	000f0800 	andeq	r0, pc, r0, lsl #16
     c5c:	13490b0b 	movtne	r0, #39691	; 0x9b0b
     c60:	34090000 	strcc	r0, [r9], #-0
     c64:	3a0e0300 	bcc	38186c <__bss_end__+0x3778c4>
     c68:	390b3b0b 	stmdbcc	fp, {r0, r1, r3, r8, r9, fp, ip, sp}
     c6c:	0013490b 	andseq	r4, r3, fp, lsl #18
     c70:	012e0a00 			; <UNDEFINED> instruction: 0x012e0a00
     c74:	0e03193f 			; <UNDEFINED> instruction: 0x0e03193f
     c78:	0b3b0b3a 	bleq	ec3968 <__bss_end__+0xeb99c0>
     c7c:	19270b39 	stmdbne	r7!, {r0, r3, r4, r5, r8, r9, fp}
     c80:	11190187 	tstne	r9, r7, lsl #3
     c84:	40061201 	andmi	r1, r6, r1, lsl #4
     c88:	19429718 	stmdbne	r2, {r3, r4, r8, r9, sl, ip, pc}^
     c8c:	00001301 	andeq	r1, r0, r1, lsl #6
     c90:	0300340b 	movweq	r3, #1035	; 0x40b
     c94:	3b0b3a0e 	blcc	2cf4d4 <__bss_end__+0x2c552c>
     c98:	490b390b 	stmdbmi	fp, {r0, r1, r3, r8, fp, ip, sp}
     c9c:	b7170213 			; <UNDEFINED> instruction: 0xb7170213
     ca0:	00001742 	andeq	r1, r0, r2, asr #14
     ca4:	0182890c 	orreq	r8, r2, ip, lsl #18
     ca8:	31011100 	mrscc	r1, (UNDEF: 17)
     cac:	0d000013 	stceq	0, cr0, [r0, #-76]	; 0xffffffb4
     cb0:	01018289 	smlabbeq	r1, r9, r2, r8
     cb4:	13310111 	teqne	r1, #1073741828	; 0x40000004
     cb8:	00001301 	andeq	r1, r0, r1, lsl #6
     cbc:	01828a0e 	orreq	r8, r2, lr, lsl #20
     cc0:	91180200 	tstls	r8, r0, lsl #4
     cc4:	00001842 	andeq	r1, r0, r2, asr #16
     cc8:	3f012e0f 	svccc	0x00012e0f
     ccc:	3a0e0319 	bcc	381938 <__bss_end__+0x377990>
     cd0:	390b3b0b 	stmdbcc	fp, {r0, r1, r3, r8, r9, fp, ip, sp}
     cd4:	1119270b 	tstne	r9, fp, lsl #14
     cd8:	40061201 	andmi	r1, r6, r1, lsl #4
     cdc:	19429718 	stmdbne	r2, {r3, r4, r8, r9, sl, ip, pc}^
     ce0:	00001301 	andeq	r1, r0, r1, lsl #6
     ce4:	3f012e10 	svccc	0x00012e10
     ce8:	3a0e0319 	bcc	381954 <__bss_end__+0x3779ac>
     cec:	390b3b0b 	stmdbcc	fp, {r0, r1, r3, r8, r9, fp, ip, sp}
     cf0:	4919270b 	ldmdbmi	r9, {r0, r1, r3, r8, r9, sl, sp}
     cf4:	12011113 	andne	r1, r1, #-1073741820	; 0xc0000004
     cf8:	97184006 	ldrls	r4, [r8, -r6]
     cfc:	13011942 	movwne	r1, #6466	; 0x1942
     d00:	2e110000 	cdpcs	0, 1, cr0, cr1, cr0, {0}
     d04:	3c193f00 	ldccc	15, cr3, [r9], {-0}
     d08:	030e6e19 	movweq	r6, #60953	; 0xee19
     d0c:	3b0b3a0e 	blcc	2cf54c <__bss_end__+0x2c55a4>
     d10:	000b3905 	andeq	r3, fp, r5, lsl #18
     d14:	002e1200 	eoreq	r1, lr, r0, lsl #4
     d18:	193c193f 	ldmdbne	ip!, {r0, r1, r2, r3, r4, r5, r8, fp, ip}
     d1c:	0e030e6e 	cdpeq	14, 0, cr0, cr3, cr14, {3}
     d20:	0b3b0b3a 	bleq	ec3a10 <__bss_end__+0xeb9a68>
     d24:	00000b39 	andeq	r0, r0, r9, lsr fp
     d28:	01110100 	tsteq	r1, r0, lsl #2
     d2c:	0b130e25 	bleq	4c45c8 <__bss_end__+0x4ba620>
     d30:	0e1b0e03 	cdpeq	14, 1, cr0, cr11, cr3, {0}
     d34:	06120111 			; <UNDEFINED> instruction: 0x06120111
     d38:	00001710 	andeq	r1, r0, r0, lsl r7
     d3c:	0b002402 	bleq	9d4c <buf.3948+0x1a4>
     d40:	030b3e0b 	movweq	r3, #48651	; 0xbe0b
     d44:	03000008 	movweq	r0, #8
     d48:	0b0b0024 	bleq	2c0de0 <__bss_end__+0x2b6e38>
     d4c:	0e030b3e 	vmoveq.16	d3[0], r0
     d50:	15040000 	strne	r0, [r4, #-0]
     d54:	49192701 	ldmdbmi	r9, {r0, r8, r9, sl, sp}
     d58:	00130113 	andseq	r0, r3, r3, lsl r1
     d5c:	00050500 	andeq	r0, r5, r0, lsl #10
     d60:	00001349 	andeq	r1, r0, r9, asr #6
     d64:	03003406 	movweq	r3, #1030	; 0x406
     d68:	3b0b3a0e 	blcc	2cf5a8 <__bss_end__+0x2c5600>
     d6c:	490b390b 	stmdbmi	fp, {r0, r1, r3, r8, fp, ip, sp}
     d70:	3c193f13 	ldccc	15, cr3, [r9], {19}
     d74:	07000019 	smladeq	r0, r9, r0, r0
     d78:	0b0b000f 	bleq	2c0dbc <__bss_end__+0x2b6e14>
     d7c:	00001349 	andeq	r1, r0, r9, asr #6
     d80:	49002608 	stmdbmi	r0, {r3, r9, sl, sp}
     d84:	09000013 	stmdbeq	r0, {r0, r1, r4}
     d88:	193f012e 	ldmdbne	pc!, {r1, r2, r3, r5, r8}	; <UNPREDICTABLE>
     d8c:	0b3a0e03 	bleq	e845a0 <__bss_end__+0xe7a5f8>
     d90:	0b390b3b 	bleq	e43a84 <__bss_end__+0xe39adc>
     d94:	01111927 	tsteq	r1, r7, lsr #18
     d98:	18400612 	stmdane	r0, {r1, r4, r9, sl}^
     d9c:	01194297 			; <UNDEFINED> instruction: 0x01194297
     da0:	0a000013 	beq	df4 <__code_start__-0x720c>
     da4:	08030005 	stmdaeq	r3, {r0, r2}
     da8:	0b3b0b3a 	bleq	ec3a98 <__bss_end__+0xeb9af0>
     dac:	13490b39 	movtne	r0, #39737	; 0x9b39
     db0:	42b71702 	adcsmi	r1, r7, #524288	; 0x80000
     db4:	0b000017 	bleq	e18 <__code_start__-0x71e8>
     db8:	01018289 	smlabbeq	r1, r9, r2, r8
     dbc:	13310111 	teqne	r1, #1073741828	; 0x40000004
     dc0:	8a0c0000 	bhi	300dc8 <__bss_end__+0x2f6e20>
     dc4:	02000182 	andeq	r0, r0, #-2147483616	; 0x80000020
     dc8:	18429118 	stmdane	r2, {r3, r4, r8, ip, pc}^
     dcc:	340d0000 	strcc	r0, [sp], #-0
     dd0:	3a080300 	bcc	2019d8 <__bss_end__+0x1f7a30>
     dd4:	390b3b0b 	stmdbcc	fp, {r0, r1, r3, r8, r9, fp, ip, sp}
     dd8:	0213490b 	andseq	r4, r3, #180224	; 0x2c000
     ddc:	1742b717 	smlaldne	fp, r2, r7, r7
     de0:	0b0e0000 	bleq	380de8 <__bss_end__+0x376e40>
     de4:	12011101 	andne	r1, r1, #1073741824	; 0x40000000
     de8:	00130106 	andseq	r0, r3, r6, lsl #2
     dec:	82890f00 	addhi	r0, r9, #0, 30
     df0:	01110001 	tsteq	r1, r1
     df4:	00001331 	andeq	r1, r0, r1, lsr r3
     df8:	3f012e10 	svccc	0x00012e10
     dfc:	3a0e0319 	bcc	381a68 <__bss_end__+0x377ac0>
     e00:	390b3b0b 	stmdbcc	fp, {r0, r1, r3, r8, r9, fp, ip, sp}
     e04:	4919270b 	ldmdbmi	r9, {r0, r1, r3, r8, r9, sl, sp}
     e08:	12011113 	andne	r1, r1, #-1073741820	; 0xc0000004
     e0c:	97184006 	ldrls	r4, [r8, -r6]
     e10:	13011942 	movwne	r1, #6466	; 0x1942
     e14:	2e110000 	cdpcs	0, 1, cr0, cr1, cr0, {0}
     e18:	3c193f00 	ldccc	15, cr3, [r9], {-0}
     e1c:	030e6e19 	movweq	r6, #60953	; 0xee19
     e20:	3b0b3a0e 	blcc	2cf660 <__bss_end__+0x2c56b8>
     e24:	000b390b 	andeq	r3, fp, fp, lsl #18
     e28:	11010000 	mrsne	r0, (UNDEF: 1)
     e2c:	130e2501 	movwne	r2, #58625	; 0xe501
     e30:	1b0e030b 	blne	381a64 <__bss_end__+0x377abc>
     e34:	1201110e 	andne	r1, r1, #-2147483645	; 0x80000003
     e38:	00171006 	andseq	r1, r7, r6
     e3c:	00240200 	eoreq	r0, r4, r0, lsl #4
     e40:	0b3e0b0b 	bleq	f83a74 <__bss_end__+0xf79acc>
     e44:	00000803 	andeq	r0, r0, r3, lsl #16
     e48:	0b002403 	bleq	9e5c <buf.3948+0x2b4>
     e4c:	030b3e0b 	movweq	r3, #48651	; 0xbe0b
     e50:	0400000e 	streq	r0, [r0], #-14
     e54:	13490026 	movtne	r0, #36902	; 0x9026
     e58:	16050000 	strne	r0, [r5], -r0
     e5c:	3a0e0300 	bcc	381a64 <__bss_end__+0x377abc>
     e60:	390b3b0b 	stmdbcc	fp, {r0, r1, r3, r8, r9, fp, ip, sp}
     e64:	0013490b 	andseq	r4, r3, fp, lsl #18
     e68:	01040600 	tsteq	r4, r0, lsl #12
     e6c:	0b0b0b3e 	bleq	2c3b6c <__bss_end__+0x2b9bc4>
     e70:	0b3a1349 	bleq	e85b9c <__bss_end__+0xe7bbf4>
     e74:	0b390b3b 	bleq	e43b68 <__bss_end__+0xe39bc0>
     e78:	00001301 	andeq	r1, r0, r1, lsl #6
     e7c:	03002807 	movweq	r2, #2055	; 0x807
     e80:	000b1c0e 	andeq	r1, fp, lr, lsl #24
     e84:	00340800 	eorseq	r0, r4, r0, lsl #16
     e88:	0b3a0e03 	bleq	e8469c <__bss_end__+0xe7a6f4>
     e8c:	0b390b3b 	bleq	e43b80 <__bss_end__+0xe39bd8>
     e90:	061c1349 	ldreq	r1, [ip], -r9, asr #6
     e94:	2e090000 	cdpcs	0, 0, cr0, cr9, cr0, {0}
     e98:	03193f01 	tsteq	r9, #1, 30
     e9c:	3b0b3a0e 	blcc	2cf6dc <__bss_end__+0x2c5734>
     ea0:	270b390b 	strcs	r3, [fp, -fp, lsl #18]
     ea4:	11134919 	tstne	r3, r9, lsl r9
     ea8:	40061201 	andmi	r1, r6, r1, lsl #4
     eac:	19429718 	stmdbne	r2, {r3, r4, r8, r9, sl, ip, pc}^
     eb0:	00001301 	andeq	r1, r0, r1, lsl #6
     eb4:	0300050a 	movweq	r0, #1290	; 0x50a
     eb8:	3b0b3a08 	blcc	2cf6e0 <__bss_end__+0x2c5738>
     ebc:	490b390b 	stmdbmi	fp, {r0, r1, r3, r8, fp, ip, sp}
     ec0:	b7170213 			; <UNDEFINED> instruction: 0xb7170213
     ec4:	00001742 	andeq	r1, r0, r2, asr #14
     ec8:	0300340b 	movweq	r3, #1035	; 0x40b
     ecc:	3b0b3a0e 	blcc	2cf70c <__bss_end__+0x2c5764>
     ed0:	490b390b 	stmdbmi	fp, {r0, r1, r3, r8, fp, ip, sp}
     ed4:	b7170213 			; <UNDEFINED> instruction: 0xb7170213
     ed8:	00001742 	andeq	r1, r0, r2, asr #14
     edc:	0300340c 	movweq	r3, #1036	; 0x40c
     ee0:	3b0b3a08 	blcc	2cf708 <__bss_end__+0x2c5760>
     ee4:	490b390b 	stmdbmi	fp, {r0, r1, r3, r8, fp, ip, sp}
     ee8:	b7170213 			; <UNDEFINED> instruction: 0xb7170213
     eec:	00001742 	andeq	r1, r0, r2, asr #14
     ef0:	0182890d 	orreq	r8, r2, sp, lsl #18
     ef4:	31011101 	tstcc	r1, r1, lsl #2
     ef8:	0e000013 	mcreq	0, 0, r0, cr0, cr3, {0}
     efc:	0001828a 	andeq	r8, r1, sl, lsl #5
     f00:	42911802 	addsmi	r1, r1, #131072	; 0x20000
     f04:	0f000018 	svceq	0x00000018
     f08:	193f012e 	ldmdbne	pc!, {r1, r2, r3, r5, r8}	; <UNPREDICTABLE>
     f0c:	0b3a0e03 	bleq	e84720 <__bss_end__+0xe7a778>
     f10:	0b390b3b 	bleq	e43c04 <__bss_end__+0xe39c5c>
     f14:	01111927 	tsteq	r1, r7, lsr #18
     f18:	18400612 	stmdane	r0, {r1, r4, r9, sl}^
     f1c:	01194297 			; <UNDEFINED> instruction: 0x01194297
     f20:	10000013 	andne	r0, r0, r3, lsl r0
     f24:	01018289 	smlabbeq	r1, r9, r2, r8
     f28:	13310111 	teqne	r1, #1073741828	; 0x40000004
     f2c:	00001301 	andeq	r1, r0, r1, lsl #6
     f30:	01828911 	orreq	r8, r2, r1, lsl r9
     f34:	31011100 	mrscc	r1, (UNDEF: 17)
     f38:	12000013 	andne	r0, r0, #19, 0
     f3c:	0e030005 	cdpeq	0, 0, cr0, cr3, cr5, {0}
     f40:	0b3b0b3a 	bleq	ec3c30 <__bss_end__+0xeb9c88>
     f44:	13490b39 	movtne	r0, #39737	; 0x9b39
     f48:	42b71702 	adcsmi	r1, r7, #524288	; 0x80000
     f4c:	13000017 	movwne	r0, #23
     f50:	0e03012e 	adfeqsp	f0, f3, #0.5
     f54:	0b3b0b3a 	bleq	ec3c44 <__bss_end__+0xeb9c9c>
     f58:	19270b39 	stmdbne	r7!, {r0, r3, r4, r5, r8, r9, fp}
     f5c:	0b201349 	bleq	805c88 <__bss_end__+0x7fbce0>
     f60:	00001301 	andeq	r1, r0, r1, lsl #6
     f64:	03000514 	movweq	r0, #1300	; 0x514
     f68:	3b0b3a08 	blcc	2cf790 <__bss_end__+0x2c57e8>
     f6c:	490b390b 	stmdbmi	fp, {r0, r1, r3, r8, fp, ip, sp}
     f70:	15000013 	strne	r0, [r0, #-19]	; 0xffffffed
     f74:	193f002e 	ldmdbne	pc!, {r1, r2, r3, r5}	; <UNPREDICTABLE>
     f78:	0e6e193c 			; <UNDEFINED> instruction: 0x0e6e193c
     f7c:	0b3a0e03 	bleq	e84790 <__bss_end__+0xe7a7e8>
     f80:	0b390b3b 	bleq	e43c74 <__bss_end__+0xe39ccc>
     f84:	01000000 	mrseq	r0, (UNDEF: 0)
     f88:	0e250111 	mcreq	1, 1, r0, cr5, cr1, {0}
     f8c:	0e030b13 	vmoveq.32	d3[0], r0
     f90:	01110e1b 	tsteq	r1, fp, lsl lr
     f94:	17100612 			; <UNDEFINED> instruction: 0x17100612
     f98:	24020000 	strcs	r0, [r2], #-0
     f9c:	3e0b0b00 	vmlacc.f64	d0, d11, d0
     fa0:	0008030b 	andeq	r0, r8, fp, lsl #6
     fa4:	00240300 	eoreq	r0, r4, r0, lsl #6
     fa8:	0b3e0b0b 	bleq	f83bdc <__bss_end__+0xf79c34>
     fac:	00000e03 	andeq	r0, r0, r3, lsl #28
     fb0:	49003504 	stmdbmi	r0, {r2, r8, sl, ip, sp}
     fb4:	05000013 	streq	r0, [r0, #-19]	; 0xffffffed
     fb8:	0e030016 	mcreq	0, 0, r0, cr3, cr6, {0}
     fbc:	0b3b0b3a 	bleq	ec3cac <__bss_end__+0xeb9d04>
     fc0:	13490b39 	movtne	r0, #39737	; 0x9b39
     fc4:	04060000 	streq	r0, [r6], #-0
     fc8:	0b0b3e01 	bleq	2d07d4 <__bss_end__+0x2c682c>
     fcc:	3a13490b 	bcc	4d3400 <__bss_end__+0x4c9458>
     fd0:	390b3b0b 	stmdbcc	fp, {r0, r1, r3, r8, r9, fp, ip, sp}
     fd4:	0013010b 	andseq	r0, r3, fp, lsl #2
     fd8:	00280700 	eoreq	r0, r8, r0, lsl #14
     fdc:	0b1c0e03 	bleq	7047f0 <__bss_end__+0x6fa848>
     fe0:	13080000 	movwne	r0, #32768	; 0x8000
     fe4:	0b0e0301 	bleq	381bf0 <__bss_end__+0x377c48>
     fe8:	3b0b3a0b 	blcc	2cf81c <__bss_end__+0x2c5874>
     fec:	010b390b 	tsteq	fp, fp, lsl #18
     ff0:	09000013 	stmdbeq	r0, {r0, r1, r4}
     ff4:	0803000d 	stmdaeq	r3, {r0, r2, r3}
     ff8:	0b3b0b3a 	bleq	ec3ce8 <__bss_end__+0xeb9d40>
     ffc:	13490b39 	movtne	r0, #39737	; 0x9b39
    1000:	00000b38 	andeq	r0, r0, r8, lsr fp
    1004:	03000d0a 	movweq	r0, #3338	; 0xd0a
    1008:	3b0b3a0e 	blcc	2cf848 <__bss_end__+0x2c58a0>
    100c:	490b390b 	stmdbmi	fp, {r0, r1, r3, r8, fp, ip, sp}
    1010:	000b3813 	andeq	r3, fp, r3, lsl r8
    1014:	00340b00 	eorseq	r0, r4, r0, lsl #22
    1018:	0b3a0e03 	bleq	e8482c <__bss_end__+0xe7a884>
    101c:	0b390b3b 	bleq	e43d10 <__bss_end__+0xe39d68>
    1020:	061c1349 	ldreq	r1, [ip], -r9, asr #6
    1024:	0f0c0000 	svceq	0x000c0000
    1028:	490b0b00 	stmdbmi	fp, {r8, r9, fp}
    102c:	0d000013 	stceq	0, cr0, [r0, #-76]	; 0xffffffb4
    1030:	13490026 	movtne	r0, #36902	; 0x9026
    1034:	2e0e0000 	cdpcs	0, 0, cr0, cr14, cr0, {0}
    1038:	03193f01 	tsteq	r9, #1, 30
    103c:	3b0b3a0e 	blcc	2cf87c <__bss_end__+0x2c58d4>
    1040:	270b390b 	strcs	r3, [fp, -fp, lsl #18]
    1044:	12011119 	andne	r1, r1, #1073741830	; 0x40000006
    1048:	97184006 	ldrls	r4, [r8, -r6]
    104c:	13011942 	movwne	r1, #6466	; 0x1942
    1050:	890f0000 	stmdbhi	pc, {}	; <UNPREDICTABLE>
    1054:	11000182 	smlabbne	r0, r2, r1, r0
    1058:	00133101 	andseq	r3, r3, r1, lsl #2
    105c:	012e1000 			; <UNDEFINED> instruction: 0x012e1000
    1060:	0e03193f 			; <UNDEFINED> instruction: 0x0e03193f
    1064:	0b3b0b3a 	bleq	ec3d54 <__bss_end__+0xeb9dac>
    1068:	19270b39 	stmdbne	r7!, {r0, r3, r4, r5, r8, r9, fp}
    106c:	01111349 	tsteq	r1, r9, asr #6
    1070:	18400612 	stmdane	r0, {r1, r4, r9, sl}^
    1074:	01194297 			; <UNDEFINED> instruction: 0x01194297
    1078:	11000013 	tstne	r0, r3, lsl r0
    107c:	01018289 	smlabbeq	r1, r9, r2, r8
    1080:	13310111 	teqne	r1, #1073741828	; 0x40000004
    1084:	8a120000 	bhi	48108c <__bss_end__+0x4770e4>
    1088:	02000182 	andeq	r0, r0, #-2147483616	; 0x80000020
    108c:	18429118 	stmdane	r2, {r3, r4, r8, ip, pc}^
    1090:	05130000 	ldreq	r0, [r3, #-0]
    1094:	3a080300 	bcc	201c9c <__bss_end__+0x1f7cf4>
    1098:	390b3b0b 	stmdbcc	fp, {r0, r1, r3, r8, r9, fp, ip, sp}
    109c:	0213490b 	andseq	r4, r3, #180224	; 0x2c000
    10a0:	1742b717 	smlaldne	fp, r2, r7, r7
    10a4:	89140000 	ldmdbhi	r4, {}	; <UNPREDICTABLE>
    10a8:	11010182 	smlabbne	r1, r2, r1, r0
    10ac:	01133101 	tsteq	r3, r1, lsl #2
    10b0:	15000013 	strne	r0, [r0, #-19]	; 0xffffffed
    10b4:	08030034 	stmdaeq	r3, {r2, r4, r5}
    10b8:	0b3b0b3a 	bleq	ec3da8 <__bss_end__+0xeb9e00>
    10bc:	13490b39 	movtne	r0, #39737	; 0x9b39
    10c0:	42b71702 	adcsmi	r1, r7, #524288	; 0x80000
    10c4:	16000017 			; <UNDEFINED> instruction: 0x16000017
    10c8:	0e030034 	mcreq	0, 0, r0, cr3, cr4, {1}
    10cc:	0b3b0b3a 	bleq	ec3dbc <__bss_end__+0xeb9e14>
    10d0:	13490b39 	movtne	r0, #39737	; 0x9b39
    10d4:	0000051c 	andeq	r0, r0, ip, lsl r5
    10d8:	03012e17 	movweq	r2, #7703	; 0x1e17
    10dc:	3b0b3a0e 	blcc	2cf91c <__bss_end__+0x2c5974>
    10e0:	270b390b 	strcs	r3, [fp, -fp, lsl #18]
    10e4:	12011119 	andne	r1, r1, #1073741830	; 0x40000006
    10e8:	97184006 	ldrls	r4, [r8, -r6]
    10ec:	13011942 	movwne	r1, #6466	; 0x1942
    10f0:	05180000 	ldreq	r0, [r8, #-0]
    10f4:	3a0e0300 	bcc	381cfc <__bss_end__+0x377d54>
    10f8:	390b3b0b 	stmdbcc	fp, {r0, r1, r3, r8, r9, fp, ip, sp}
    10fc:	0213490b 	andseq	r4, r3, #180224	; 0x2c000
    1100:	1742b717 	smlaldne	fp, r2, r7, r7
    1104:	35190000 	ldrcc	r0, [r9, #-0]
    1108:	1a000000 	bne	1110 <__code_start__-0x6ef0>
    110c:	193f002e 	ldmdbne	pc!, {r1, r2, r3, r5}	; <UNPREDICTABLE>
    1110:	0e6e193c 			; <UNDEFINED> instruction: 0x0e6e193c
    1114:	0b3a0e03 	bleq	e84928 <__bss_end__+0xe7a980>
    1118:	0b390b3b 	bleq	e43e0c <__bss_end__+0xe39e64>
    111c:	01000000 	mrseq	r0, (UNDEF: 0)
    1120:	0e250111 	mcreq	1, 1, r0, cr5, cr1, {0}
    1124:	0e030b13 	vmoveq.32	d3[0], r0
    1128:	01110e1b 	tsteq	r1, fp, lsl lr
    112c:	17100612 			; <UNDEFINED> instruction: 0x17100612
    1130:	24020000 	strcs	r0, [r2], #-0
    1134:	3e0b0b00 	vmlacc.f64	d0, d11, d0
    1138:	0008030b 	andeq	r0, r8, fp, lsl #6
    113c:	00240300 	eoreq	r0, r4, r0, lsl #6
    1140:	0b3e0b0b 	bleq	f83d74 <__bss_end__+0xf79dcc>
    1144:	00000e03 	andeq	r0, r0, r3, lsl #28
    1148:	27011504 	strcs	r1, [r1, -r4, lsl #10]
    114c:	01134919 	tsteq	r3, r9, lsl r9
    1150:	05000013 	streq	r0, [r0, #-19]	; 0xffffffed
    1154:	13490005 	movtne	r0, #36869	; 0x9005
    1158:	34060000 	strcc	r0, [r6], #-0
    115c:	3a0e0300 	bcc	381d64 <__bss_end__+0x377dbc>
    1160:	390b3b0b 	stmdbcc	fp, {r0, r1, r3, r8, r9, fp, ip, sp}
    1164:	3f13490b 	svccc	0x0013490b
    1168:	00193c19 	andseq	r3, r9, r9, lsl ip
    116c:	000f0700 	andeq	r0, pc, r0, lsl #14
    1170:	13490b0b 	movtne	r0, #39691	; 0x9b0b
    1174:	26080000 	strcs	r0, [r8], -r0
    1178:	00134900 	andseq	r4, r3, r0, lsl #18
    117c:	00340900 	eorseq	r0, r4, r0, lsl #18
    1180:	0b3a1347 	bleq	e85ea4 <__bss_end__+0xe7befc>
    1184:	0b390b3b 	bleq	e43e78 <__bss_end__+0xe39ed0>
    1188:	00001802 	andeq	r1, r0, r2, lsl #16
    118c:	3f012e0a 	svccc	0x00012e0a
    1190:	3a0e0319 	bcc	381dfc <__bss_end__+0x377e54>
    1194:	390b3b0b 	stmdbcc	fp, {r0, r1, r3, r8, r9, fp, ip, sp}
    1198:	1119270b 	tstne	r9, fp, lsl #14
    119c:	40061201 	andmi	r1, r6, r1, lsl #4
    11a0:	19429718 	stmdbne	r2, {r3, r4, r8, r9, sl, ip, pc}^
    11a4:	00001301 	andeq	r1, r0, r1, lsl #6
    11a8:	0300050b 	movweq	r0, #1291	; 0x50b
    11ac:	3b0b3a08 	blcc	2cf9d4 <__bss_end__+0x2c5a2c>
    11b0:	490b390b 	stmdbmi	fp, {r0, r1, r3, r8, fp, ip, sp}
    11b4:	00180213 	andseq	r0, r8, r3, lsl r2
    11b8:	002e0c00 	eoreq	r0, lr, r0, lsl #24
    11bc:	0e03193f 			; <UNDEFINED> instruction: 0x0e03193f
    11c0:	0b3b0b3a 	bleq	ec3eb0 <__bss_end__+0xeb9f08>
    11c4:	19270b39 	stmdbne	r7!, {r0, r3, r4, r5, r8, r9, fp}
    11c8:	06120111 			; <UNDEFINED> instruction: 0x06120111
    11cc:	42971840 	addsmi	r1, r7, #64, 16	; 0x400000
    11d0:	0d000019 	stceq	0, cr0, [r0, #-100]	; 0xffffff9c
    11d4:	0e03012e 	adfeqsp	f0, f3, #0.5
    11d8:	0b3b0b3a 	bleq	ec3ec8 <__bss_end__+0xeb9f20>
    11dc:	19270b39 	stmdbne	r7!, {r0, r3, r4, r5, r8, r9, fp}
    11e0:	01111349 	tsteq	r1, r9, asr #6
    11e4:	18400612 	stmdane	r0, {r1, r4, r9, sl}^
    11e8:	01194297 			; <UNDEFINED> instruction: 0x01194297
    11ec:	0e000013 	mcreq	0, 0, r0, cr0, cr3, {0}
    11f0:	08030005 	stmdaeq	r3, {r0, r2}
    11f4:	0b3b0b3a 	bleq	ec3ee4 <__bss_end__+0xeb9f3c>
    11f8:	13490b39 	movtne	r0, #39737	; 0x9b39
    11fc:	42b71702 	adcsmi	r1, r7, #524288	; 0x80000
    1200:	0f000017 	svceq	0x00000017
    1204:	01018289 	smlabbeq	r1, r9, r2, r8
    1208:	13310111 	teqne	r1, #1073741828	; 0x40000004
    120c:	8a100000 	bhi	401214 <__bss_end__+0x3f726c>
    1210:	02000182 	andeq	r0, r0, #-2147483616	; 0x80000020
    1214:	18429118 	stmdane	r2, {r3, r4, r8, ip, pc}^
    1218:	2e110000 	cdpcs	0, 1, cr0, cr1, cr0, {0}
    121c:	3c193f00 	ldccc	15, cr3, [r9], {-0}
    1220:	030e6e19 	movweq	r6, #60953	; 0xee19
    1224:	3b0b3a0e 	blcc	2cfa64 <__bss_end__+0x2c5abc>
    1228:	000b390b 	andeq	r3, fp, fp, lsl #18
    122c:	11010000 	mrsne	r0, (UNDEF: 1)
    1230:	130e2501 	movwne	r2, #58625	; 0xe501
    1234:	1b0e030b 	blne	381e68 <__bss_end__+0x377ec0>
    1238:	1201110e 	andne	r1, r1, #-2147483645	; 0x80000003
    123c:	00171006 	andseq	r1, r7, r6
    1240:	00240200 	eoreq	r0, r4, r0, lsl #4
    1244:	0b3e0b0b 	bleq	f83e78 <__bss_end__+0xf79ed0>
    1248:	00000803 	andeq	r0, r0, r3, lsl #16
    124c:	0b002403 	bleq	a260 <__bss_end__+0x2b8>
    1250:	030b3e0b 	movweq	r3, #48651	; 0xbe0b
    1254:	0400000e 	streq	r0, [r0], #-14
    1258:	19270115 	stmdbne	r7!, {r0, r2, r4, r8}
    125c:	13011349 	movwne	r1, #4937	; 0x1349
    1260:	05050000 	streq	r0, [r5, #-0]
    1264:	00134900 	andseq	r4, r3, r0, lsl #18
    1268:	00340600 	eorseq	r0, r4, r0, lsl #12
    126c:	0b3a0e03 	bleq	e84a80 <__bss_end__+0xe7aad8>
    1270:	0b390b3b 	bleq	e43f64 <__bss_end__+0xe39fbc>
    1274:	193f1349 	ldmdbne	pc!, {r0, r3, r6, r8, r9, ip}	; <UNPREDICTABLE>
    1278:	0000193c 	andeq	r1, r0, ip, lsr r9
    127c:	0b000f07 	bleq	4ea0 <__code_start__-0x3160>
    1280:	0013490b 	andseq	r4, r3, fp, lsl #18
    1284:	00260800 	eoreq	r0, r6, r0, lsl #16
    1288:	00001349 	andeq	r1, r0, r9, asr #6
    128c:	3f012e09 	svccc	0x00012e09
    1290:	3a0e0319 	bcc	381efc <__bss_end__+0x377f54>
    1294:	390b3b0b 	stmdbcc	fp, {r0, r1, r3, r8, r9, fp, ip, sp}
    1298:	4919270b 	ldmdbmi	r9, {r0, r1, r3, r8, r9, sl, sp}
    129c:	12011113 	andne	r1, r1, #-1073741820	; 0xc0000004
    12a0:	97184006 	ldrls	r4, [r8, -r6]
    12a4:	13011942 	movwne	r1, #6466	; 0x1942
    12a8:	050a0000 	streq	r0, [sl, #-0]
    12ac:	3a0e0300 	bcc	381eb4 <__bss_end__+0x377f0c>
    12b0:	390b3b0b 	stmdbcc	fp, {r0, r1, r3, r8, r9, fp, ip, sp}
    12b4:	0213490b 	andseq	r4, r3, #180224	; 0x2c000
    12b8:	0b000018 	bleq	1320 <__code_start__-0x6ce0>
    12bc:	08030005 	stmdaeq	r3, {r0, r2}
    12c0:	0b3b0b3a 	bleq	ec3fb0 <__bss_end__+0xeba008>
    12c4:	13490b39 	movtne	r0, #39737	; 0x9b39
    12c8:	42b71702 	adcsmi	r1, r7, #524288	; 0x80000
    12cc:	0c000017 	stceq	0, cr0, [r0], {23}
    12d0:	08030034 	stmdaeq	r3, {r2, r4, r5}
    12d4:	0b3b0b3a 	bleq	ec3fc4 <__bss_end__+0xeba01c>
    12d8:	13490b39 	movtne	r0, #39737	; 0x9b39
    12dc:	42b71702 	adcsmi	r1, r7, #524288	; 0x80000
    12e0:	00000017 	andeq	r0, r0, r7, lsl r0
    12e4:	25011101 	strcs	r1, [r1, #-257]	; 0xfffffeff
    12e8:	030b130e 	movweq	r1, #45838	; 0xb30e
    12ec:	110e1b0e 	tstne	lr, lr, lsl #22
    12f0:	10061201 	andne	r1, r6, r1, lsl #4
    12f4:	02000017 	andeq	r0, r0, #23, 0
    12f8:	0b0b0024 	bleq	2c1390 <__bss_end__+0x2b73e8>
    12fc:	08030b3e 	stmdaeq	r3, {r1, r2, r3, r4, r5, r8, r9, fp}
    1300:	24030000 	strcs	r0, [r3], #-0
    1304:	3e0b0b00 	vmlacc.f64	d0, d11, d0
    1308:	000e030b 	andeq	r0, lr, fp, lsl #6
    130c:	01150400 	tsteq	r5, r0, lsl #8
    1310:	13491927 	movtne	r1, #39207	; 0x9927
    1314:	00001301 	andeq	r1, r0, r1, lsl #6
    1318:	49000505 	stmdbmi	r0, {r0, r2, r8, sl}
    131c:	06000013 			; <UNDEFINED> instruction: 0x06000013
    1320:	0e030034 	mcreq	0, 0, r0, cr3, cr4, {1}
    1324:	0b3b0b3a 	bleq	ec4014 <__bss_end__+0xeba06c>
    1328:	13490b39 	movtne	r0, #39737	; 0x9b39
    132c:	193c193f 	ldmdbne	ip!, {r0, r1, r2, r3, r4, r5, r8, fp, ip}
    1330:	0f070000 	svceq	0x00070000
    1334:	490b0b00 	stmdbmi	fp, {r8, r9, fp}
    1338:	08000013 	stmdaeq	r0, {r0, r1, r4}
    133c:	13490026 	movtne	r0, #36902	; 0x9026
    1340:	2e090000 	cdpcs	0, 0, cr0, cr9, cr0, {0}
    1344:	03193f01 	tsteq	r9, #1, 30
    1348:	3b0b3a0e 	blcc	2cfb88 <__bss_end__+0x2c5be0>
    134c:	270b390b 	strcs	r3, [fp, -fp, lsl #18]
    1350:	11134919 	tstne	r3, r9, lsl r9
    1354:	40061201 	andmi	r1, r6, r1, lsl #4
    1358:	19429718 	stmdbne	r2, {r3, r4, r8, r9, sl, ip, pc}^
    135c:	050a0000 	streq	r0, [sl, #-0]
    1360:	3a080300 	bcc	201f68 <__bss_end__+0x1f7fc0>
    1364:	390b3b0b 	stmdbcc	fp, {r0, r1, r3, r8, r9, fp, ip, sp}
    1368:	0213490b 	andseq	r4, r3, #180224	; 0x2c000
    136c:	1742b717 	smlaldne	fp, r2, r7, r7
    1370:	01000000 	mrseq	r0, (UNDEF: 0)
    1374:	0e250111 	mcreq	1, 1, r0, cr5, cr1, {0}
    1378:	0e030b13 	vmoveq.32	d3[0], r0
    137c:	01110e1b 	tsteq	r1, fp, lsl lr
    1380:	17100612 			; <UNDEFINED> instruction: 0x17100612
    1384:	24020000 	strcs	r0, [r2], #-0
    1388:	3e0b0b00 	vmlacc.f64	d0, d11, d0
    138c:	0008030b 	andeq	r0, r8, fp, lsl #6
    1390:	00240300 	eoreq	r0, r4, r0, lsl #6
    1394:	0b3e0b0b 	bleq	f83fc8 <__bss_end__+0xf7a020>
    1398:	00000e03 	andeq	r0, r0, r3, lsl #28
    139c:	27011504 	strcs	r1, [r1, -r4, lsl #10]
    13a0:	01134919 	tsteq	r3, r9, lsl r9
    13a4:	05000013 	streq	r0, [r0, #-19]	; 0xffffffed
    13a8:	13490005 	movtne	r0, #36869	; 0x9005
    13ac:	34060000 	strcc	r0, [r6], #-0
    13b0:	3a0e0300 	bcc	381fb8 <__bss_end__+0x378010>
    13b4:	390b3b0b 	stmdbcc	fp, {r0, r1, r3, r8, r9, fp, ip, sp}
    13b8:	3f13490b 	svccc	0x0013490b
    13bc:	00193c19 	andseq	r3, r9, r9, lsl ip
    13c0:	000f0700 	andeq	r0, pc, r0, lsl #14
    13c4:	13490b0b 	movtne	r0, #39691	; 0x9b0b
    13c8:	26080000 	strcs	r0, [r8], -r0
    13cc:	00134900 	andseq	r4, r3, r0, lsl #18
    13d0:	012e0900 			; <UNDEFINED> instruction: 0x012e0900
    13d4:	0e03193f 			; <UNDEFINED> instruction: 0x0e03193f
    13d8:	0b3b0b3a 	bleq	ec40c8 <__bss_end__+0xeba120>
    13dc:	19270b39 	stmdbne	r7!, {r0, r3, r4, r5, r8, r9, fp}
    13e0:	01111349 	tsteq	r1, r9, asr #6
    13e4:	18400612 	stmdane	r0, {r1, r4, r9, sl}^
    13e8:	01194297 			; <UNDEFINED> instruction: 0x01194297
    13ec:	0a000013 	beq	1440 <__code_start__-0x6bc0>
    13f0:	08030005 	stmdaeq	r3, {r0, r2}
    13f4:	0b3b0b3a 	bleq	ec40e4 <__bss_end__+0xeba13c>
    13f8:	13490b39 	movtne	r0, #39737	; 0x9b39
    13fc:	00001802 	andeq	r1, r0, r2, lsl #16
    1400:	0300050b 	movweq	r0, #1291	; 0x50b
    1404:	3b0b3a08 	blcc	2cfc2c <__bss_end__+0x2c5c84>
    1408:	490b390b 	stmdbmi	fp, {r0, r1, r3, r8, fp, ip, sp}
    140c:	b7170213 			; <UNDEFINED> instruction: 0xb7170213
    1410:	00001742 	andeq	r1, r0, r2, asr #14
    1414:	0300340c 	movweq	r3, #1036	; 0x40c
    1418:	3b0b3a08 	blcc	2cfc40 <__bss_end__+0x2c5c98>
    141c:	490b390b 	stmdbmi	fp, {r0, r1, r3, r8, fp, ip, sp}
    1420:	b7170213 			; <UNDEFINED> instruction: 0xb7170213
    1424:	00001742 	andeq	r1, r0, r2, asr #14
    1428:	01110100 	tsteq	r1, r0, lsl #2
    142c:	0b130e25 	bleq	4c4cc8 <__bss_end__+0x4bad20>
    1430:	0e1b0e03 	cdpeq	14, 1, cr0, cr11, cr3, {0}
    1434:	01111755 	tsteq	r1, r5, asr r7
    1438:	00001710 	andeq	r1, r0, r0, lsl r7
    143c:	0b002402 	bleq	a44c <__bss_end__+0x4a4>
    1440:	030b3e0b 	movweq	r3, #48651	; 0xbe0b
    1444:	03000008 	movweq	r0, #8
    1448:	0e030016 	mcreq	0, 0, r0, cr3, cr6, {0}
    144c:	0b3b0b3a 	bleq	ec413c <__bss_end__+0xeba194>
    1450:	13490b39 	movtne	r0, #39737	; 0x9b39
    1454:	24040000 	strcs	r0, [r4], #-0
    1458:	3e0b0b00 	vmlacc.f64	d0, d11, d0
    145c:	000e030b 	andeq	r0, lr, fp, lsl #6
    1460:	00260500 	eoreq	r0, r6, r0, lsl #10
    1464:	00001349 	andeq	r1, r0, r9, asr #6
    1468:	27011506 	strcs	r1, [r1, -r6, lsl #10]
    146c:	01134919 	tsteq	r3, r9, lsl r9
    1470:	07000013 	smladeq	r0, r3, r0, r0
    1474:	13490005 	movtne	r0, #36869	; 0x9005
    1478:	34080000 	strcc	r0, [r8], #-0
    147c:	3a0e0300 	bcc	382084 <__bss_end__+0x3780dc>
    1480:	390b3b0b 	stmdbcc	fp, {r0, r1, r3, r8, r9, fp, ip, sp}
    1484:	3f13490b 	svccc	0x0013490b
    1488:	00193c19 	andseq	r3, r9, r9, lsl ip
    148c:	000f0900 	andeq	r0, pc, r0, lsl #18
    1490:	13490b0b 	movtne	r0, #39691	; 0x9b0b
    1494:	2e0a0000 	cdpcs	0, 0, cr0, cr10, cr0, {0}
    1498:	03193f01 	tsteq	r9, #1, 30
    149c:	3b0b3a0e 	blcc	2cfcdc <__bss_end__+0x2c5d34>
    14a0:	270b390b 	strcs	r3, [fp, -fp, lsl #18]
    14a4:	11134919 	tstne	r3, r9, lsl r9
    14a8:	40061201 	andmi	r1, r6, r1, lsl #4
    14ac:	19429718 	stmdbne	r2, {r3, r4, r8, r9, sl, ip, pc}^
    14b0:	00001301 	andeq	r1, r0, r1, lsl #6
    14b4:	0300050b 	movweq	r0, #1291	; 0x50b
    14b8:	3b0b3a08 	blcc	2cfce0 <__bss_end__+0x2c5d38>
    14bc:	490b390b 	stmdbmi	fp, {r0, r1, r3, r8, fp, ip, sp}
    14c0:	b7170213 			; <UNDEFINED> instruction: 0xb7170213
    14c4:	00001742 	andeq	r1, r0, r2, asr #14
    14c8:	0300340c 	movweq	r3, #1036	; 0x40c
    14cc:	3b0b3a08 	blcc	2cfcf4 <__bss_end__+0x2c5d4c>
    14d0:	490b390b 	stmdbmi	fp, {r0, r1, r3, r8, fp, ip, sp}
    14d4:	b7170213 			; <UNDEFINED> instruction: 0xb7170213
    14d8:	00001742 	andeq	r1, r0, r2, asr #14
    14dc:	01110100 	tsteq	r1, r0, lsl #2
    14e0:	0b130e25 	bleq	4c4d7c <__bss_end__+0x4badd4>
    14e4:	0e1b0e03 	cdpeq	14, 1, cr0, cr11, cr3, {0}
    14e8:	06120111 			; <UNDEFINED> instruction: 0x06120111
    14ec:	00001710 	andeq	r1, r0, r0, lsl r7
    14f0:	0b002402 	bleq	a500 <__bss_end__+0x558>
    14f4:	030b3e0b 	movweq	r3, #48651	; 0xbe0b
    14f8:	03000008 	movweq	r0, #8
    14fc:	0b0b0024 	bleq	2c1594 <__bss_end__+0x2b75ec>
    1500:	0e030b3e 	vmoveq.16	d3[0], r0
    1504:	15040000 	strne	r0, [r4, #-0]
    1508:	49192701 	ldmdbmi	r9, {r0, r8, r9, sl, sp}
    150c:	00130113 	andseq	r0, r3, r3, lsl r1
    1510:	00050500 	andeq	r0, r5, r0, lsl #10
    1514:	00001349 	andeq	r1, r0, r9, asr #6
    1518:	03003406 	movweq	r3, #1030	; 0x406
    151c:	3b0b3a0e 	blcc	2cfd5c <__bss_end__+0x2c5db4>
    1520:	490b390b 	stmdbmi	fp, {r0, r1, r3, r8, fp, ip, sp}
    1524:	3c193f13 	ldccc	15, cr3, [r9], {19}
    1528:	07000019 	smladeq	r0, r9, r0, r0
    152c:	0b0b000f 	bleq	2c1570 <__bss_end__+0x2b75c8>
    1530:	00001349 	andeq	r1, r0, r9, asr #6
    1534:	49002608 	stmdbmi	r0, {r3, r9, sl, sp}
    1538:	09000013 	stmdbeq	r0, {r0, r1, r4}
    153c:	193f002e 	ldmdbne	pc!, {r1, r2, r3, r5}	; <UNPREDICTABLE>
    1540:	0b3a0e03 	bleq	e84d54 <__bss_end__+0xe7adac>
    1544:	0b390b3b 	bleq	e44238 <__bss_end__+0xe3a290>
    1548:	01111927 	tsteq	r1, r7, lsr #18
    154c:	18400612 	stmdane	r0, {r1, r4, r9, sl}^
    1550:	00194297 	mulseq	r9, r7, r2
	...

Disassembly of section .debug_loc:

00000000 <.debug_loc>:
       0:	000c0000 	andeq	r0, ip, r0
       4:	00480000 	subeq	r0, r8, r0
       8:	00060000 	andeq	r0, r6, r0
       c:	ff080075 			; <UNDEFINED> instruction: 0xff080075
      10:	00009f1a 	andeq	r9, r0, sl, lsl pc
      14:	00000000 	andeq	r0, r0, r0
      18:	00020000 	andeq	r0, r2, r0
      1c:	000c0000 	andeq	r0, ip, r0
      20:	00100000 	andseq	r0, r0, r0
      24:	00020000 	andeq	r0, r2, r0
      28:	00109f30 	andseq	r9, r0, r0, lsr pc
      2c:	00480000 	subeq	r0, r8, r0
      30:	00010000 	andeq	r0, r1, r0
      34:	00000054 	andeq	r0, r0, r4, asr r0
	...
      40:	00002400 	andeq	r2, r0, r0, lsl #8
      44:	00002c00 	andeq	r2, r0, r0, lsl #24
      48:	50000100 	andpl	r0, r0, r0, lsl #2
      4c:	0000002c 	andeq	r0, r0, ip, lsr #32
      50:	0000002f 	andeq	r0, r0, pc, lsr #32
      54:	00510001 	subseq	r0, r1, r1
	...
      60:	00000500 	andeq	r0, r0, r0, lsl #10
      64:	0001a400 	andeq	sl, r1, r0, lsl #8
      68:	0001b800 	andeq	fp, r1, r0, lsl #16
      6c:	50000100 	andpl	r0, r0, r0, lsl #2
      70:	000001f0 	strdeq	r0, [r0], -r0	; <UNPREDICTABLE>
      74:	00000220 	andeq	r0, r0, r0, lsr #4
      78:	e00a0004 	and	r0, sl, r4
      7c:	02209f42 	eoreq	r9, r0, #264	; 0x108
      80:	02340000 	eorseq	r0, r4, #0, 0
      84:	00010000 	andeq	r0, r1, r0
      88:	00000050 	andeq	r0, r0, r0, asr r0
      8c:	00000000 	andeq	r0, r0, r0
      90:	00000300 	andeq	r0, r0, r0, lsl #6
      94:	0001f000 	andeq	pc, r1, r0
      98:	00027800 	andeq	r7, r2, r0, lsl #16
      9c:	31000200 	mrscc	r0, R8_usr
      a0:	0002d89f 	muleq	r2, pc, r8	; <UNPREDICTABLE>
      a4:	00037400 	andeq	r7, r3, r0, lsl #8
      a8:	31000200 	mrscc	r0, R8_usr
      ac:	0000009f 	muleq	r0, pc, r0	; <UNPREDICTABLE>
      b0:	00000000 	andeq	r0, r0, r0
      b4:	00000400 	andeq	r0, r0, r0, lsl #8
      b8:	0001f000 	andeq	pc, r1, r0
      bc:	00027800 	andeq	r7, r2, r0, lsl #16
      c0:	37000200 	strcc	r0, [r0, -r0, lsl #4]
      c4:	0002d89f 	muleq	r2, pc, r8	; <UNPREDICTABLE>
      c8:	00037400 	andeq	r7, r3, r0, lsl #8
      cc:	37000200 	strcc	r0, [r0, -r0, lsl #4]
      d0:	0000009f 	muleq	r0, pc, r0	; <UNPREDICTABLE>
      d4:	00000000 	andeq	r0, r0, r0
      d8:	c8130200 	ldmdagt	r3, {r9}
      dc:	c8000001 	stmdagt	r0, {r0}
      e0:	02000001 	andeq	r0, r0, #1, 0
      e4:	009f3800 	addseq	r3, pc, r0, lsl #16
      e8:	00000000 	andeq	r0, r0, r0
      ec:	02000000 	andeq	r0, r0, #0, 0
      f0:	0001c813 	andeq	ip, r1, r3, lsl r8
      f4:	0001c800 	andeq	ip, r1, r0, lsl #16
      f8:	54000100 	strpl	r0, [r0], #-256	; 0xffffff00
	...
     104:	01d00004 	bicseq	r0, r0, r4
     108:	01d80000 	bicseq	r0, r8, r0
     10c:	00020000 	andeq	r0, r2, r0
     110:	00009f37 	andeq	r9, r0, r7, lsr pc
     114:	00000000 	andeq	r0, r0, r0
     118:	00040000 	andeq	r0, r4, r0
     11c:	000001d0 	ldrdeq	r0, [r0], -r0	; <UNPREDICTABLE>
     120:	000001d8 	ldrdeq	r0, [r0], -r8
     124:	9f350002 	svcls	0x00350002
	...
     130:	01d00004 	bicseq	r0, r0, r4
     134:	01d80000 	bicseq	r0, r8, r0
     138:	00010000 	andeq	r0, r1, r0
     13c:	00000054 	andeq	r0, r0, r4, asr r0
     140:	00000000 	andeq	r0, r0, r0
     144:	e0000400 	and	r0, r0, r0, lsl #8
     148:	e8000001 	stmda	r0, {r0}
     14c:	02000001 	andeq	r0, r0, #1, 0
     150:	009f3b00 	addseq	r3, pc, r0, lsl #22
     154:	00000000 	andeq	r0, r0, r0
     158:	04000000 	streq	r0, [r0], #-0
     15c:	0001e000 	andeq	lr, r1, r0
     160:	0001e800 	andeq	lr, r1, r0, lsl #16
     164:	39000200 	stmdbcc	r0, {r9}
     168:	0000009f 	muleq	r0, pc, r0	; <UNPREDICTABLE>
     16c:	00000000 	andeq	r0, r0, r0
     170:	e0000400 	and	r0, r0, r0, lsl #8
     174:	e4000001 	str	r0, [r0], #-1
     178:	01000001 	tsteq	r0, r1
     17c:	00005400 	andeq	r5, r0, r0, lsl #8
     180:	00000000 	andeq	r0, r0, r0
     184:	13020000 	movwne	r0, #8192	; 0x2000
     188:	00000244 	andeq	r0, r0, r4, asr #4
     18c:	00000244 	andeq	r0, r0, r4, asr #4
     190:	9f380002 	svcls	0x00380002
	...
     19c:	02441302 	subeq	r1, r4, #134217728	; 0x8000000
     1a0:	02440000 	subeq	r0, r4, #0, 0
     1a4:	00010000 	andeq	r0, r1, r0
     1a8:	00000054 	andeq	r0, r0, r4, asr r0
     1ac:	00000000 	andeq	r0, r0, r0
     1b0:	4c000400 	cfstrsmi	mvf0, [r0], {-0}
     1b4:	54000002 	strpl	r0, [r0], #-2
     1b8:	02000002 	andeq	r0, r0, #2, 0
     1bc:	009f3b00 	addseq	r3, pc, r0, lsl #22
     1c0:	00000000 	andeq	r0, r0, r0
     1c4:	04000000 	streq	r0, [r0], #-0
     1c8:	00024c00 	andeq	r4, r2, r0, lsl #24
     1cc:	00025400 	andeq	r5, r2, r0, lsl #8
     1d0:	39000200 	stmdbcc	r0, {r9}
     1d4:	0000009f 	muleq	r0, pc, r0	; <UNPREDICTABLE>
     1d8:	00000000 	andeq	r0, r0, r0
     1dc:	4c000400 	cfstrsmi	mvf0, [r0], {-0}
     1e0:	54000002 	strpl	r0, [r0], #-2
     1e4:	01000002 	tsteq	r0, r2
     1e8:	00005400 	andeq	r5, r0, r0, lsl #8
     1ec:	00000000 	andeq	r0, r0, r0
     1f0:	00040000 	andeq	r0, r4, r0
     1f4:	0000025c 	andeq	r0, r0, ip, asr r2
     1f8:	00000264 	andeq	r0, r0, r4, ror #4
     1fc:	9f370002 	svcls	0x00370002
	...
     208:	025c0004 	subseq	r0, ip, #4, 0
     20c:	02640000 	rsbeq	r0, r4, #0, 0
     210:	00020000 	andeq	r0, r2, r0
     214:	00009f35 	andeq	r9, r0, r5, lsr pc
     218:	00000000 	andeq	r0, r0, r0
     21c:	00040000 	andeq	r0, r4, r0
     220:	0000025c 	andeq	r0, r0, ip, asr r2
     224:	00000260 	andeq	r0, r0, r0, ror #4
     228:	00540001 	subseq	r0, r4, r1
	...
     234:	20000000 	andcs	r0, r0, r0
     238:	3b000001 	blcc	244 <__code_start__-0x7dbc>
     23c:	01000001 	tsteq	r0, r1
     240:	013b5000 	teqeq	fp, r0
     244:	016c0000 	cmneq	ip, r0
     248:	00040000 	andeq	r0, r4, r0
     24c:	9f5001f3 	svcls	0x005001f3
	...
     258:	01200000 			; <UNDEFINED> instruction: 0x01200000
     25c:	013b0000 	teqeq	fp, r0
     260:	00010000 	andeq	r0, r1, r0
     264:	00000051 	andeq	r0, r0, r1, asr r0
	...
     270:	0000f400 	andeq	pc, r0, r0, lsl #8
     274:	00011700 	andeq	r1, r1, r0, lsl #14
     278:	50000100 	andpl	r0, r0, r0, lsl #2
     27c:	00000117 	andeq	r0, r0, r7, lsl r1
     280:	00000120 	andeq	r0, r0, r0, lsr #2
     284:	01f30004 	mvnseq	r0, r4
     288:	00009f50 	andeq	r9, r0, r0, asr pc
	...
     294:	00f40000 	rscseq	r0, r4, r0
     298:	01170000 	tsteq	r7, r0
     29c:	00010000 	andeq	r0, r1, r0
     2a0:	00011751 	andeq	r1, r1, r1, asr r7
     2a4:	00012000 	andeq	r2, r1, r0
     2a8:	f3000400 	vshl.u8	d0, d0, d0
     2ac:	009f5101 	addseq	r5, pc, r1, lsl #2
	...
     2b8:	f4000000 	vst4.8	{d0-d3}, [r0], r0
     2bc:	10000000 	andne	r0, r0, r0
     2c0:	01000001 	tsteq	r0, r1
     2c4:	01105200 	tsteq	r0, r0, lsl #4
     2c8:	01200000 			; <UNDEFINED> instruction: 0x01200000
     2cc:	00040000 	andeq	r0, r4, r0
     2d0:	9f5201f3 	svcls	0x005201f3
	...
     2e4:	00100000 	andseq	r0, r0, r0
     2e8:	00010000 	andeq	r0, r1, r0
     2ec:	00001050 	andeq	r1, r0, r0, asr r0
     2f0:	00001300 	andeq	r1, r0, r0, lsl #6
     2f4:	51000100 	mrspl	r0, (UNDEF: 16)
     2f8:	00000013 	andeq	r0, r0, r3, lsl r0
     2fc:	000000cc 	andeq	r0, r0, ip, asr #1
     300:	01f30004 	mvnseq	r0, r4
     304:	00009f50 	andeq	r9, r0, r0, asr pc
	...
     314:	000c0000 	andeq	r0, ip, r0
     318:	00010000 	andeq	r0, r1, r0
     31c:	00000c51 	andeq	r0, r0, r1, asr ip
     320:	0000cc00 	andeq	ip, r0, r0, lsl #24
     324:	54000100 	strpl	r0, [r0], #-256	; 0xffffff00
	...
     330:	00140001 	andseq	r0, r4, r1
     334:	00180000 	andseq	r0, r8, r0
     338:	00020000 	andeq	r0, r2, r0
     33c:	00009f3f 	andeq	r9, r0, pc, lsr pc
     340:	00000000 	andeq	r0, r0, r0
     344:	00010000 	andeq	r0, r1, r0
     348:	00000014 	andeq	r0, r0, r4, lsl r0
     34c:	00000018 	andeq	r0, r0, r8, lsl r0
     350:	00540001 	subseq	r0, r4, r1
     354:	00000000 	andeq	r0, r0, r0
     358:	01000000 	mrseq	r0, (UNDEF: 0)
     35c:	00002407 	andeq	r2, r0, r7, lsl #8
     360:	00002800 	andeq	r2, r0, r0, lsl #16
     364:	3e000200 	cdpcc	2, 0, cr0, cr0, cr0, {0}
     368:	0000009f 	muleq	r0, pc, r0	; <UNPREDICTABLE>
     36c:	00000000 	andeq	r0, r0, r0
     370:	24070100 	strcs	r0, [r7], #-256	; 0xffffff00
     374:	28000000 	stmdacs	r0, {}	; <UNPREDICTABLE>
     378:	02000000 	andeq	r0, r0, #0, 0
     37c:	009f3c00 	addseq	r3, pc, r0, lsl #24
     380:	00000000 	andeq	r0, r0, r0
     384:	01000000 	mrseq	r0, (UNDEF: 0)
     388:	00002407 	andeq	r2, r0, r7, lsl #8
     38c:	00002800 	andeq	r2, r0, r0, lsl #16
     390:	54000100 	strpl	r0, [r0], #-256	; 0xffffff00
	...
     39c:	00340701 	eorseq	r0, r4, r1, lsl #14
     3a0:	00380000 	eorseq	r0, r8, r0
     3a4:	00020000 	andeq	r0, r2, r0
     3a8:	00009f3b 	andeq	r9, r0, fp, lsr pc
     3ac:	00000000 	andeq	r0, r0, r0
     3b0:	07010000 	streq	r0, [r1, -r0]
     3b4:	00000034 	andeq	r0, r0, r4, lsr r0
     3b8:	00000038 	andeq	r0, r0, r8, lsr r0
     3bc:	9f390002 	svcls	0x00390002
	...
     3c8:	00340701 	eorseq	r0, r4, r1, lsl #14
     3cc:	00380000 	eorseq	r0, r8, r0
     3d0:	00010000 	andeq	r0, r1, r0
     3d4:	00000054 	andeq	r0, r0, r4, asr r0
     3d8:	00000000 	andeq	r0, r0, r0
     3dc:	44000100 	strmi	r0, [r0], #-256	; 0xffffff00
     3e0:	48000000 	stmdami	r0, {}	; <UNPREDICTABLE>
     3e4:	02000000 	andeq	r0, r0, #0, 0
     3e8:	009f3800 	addseq	r3, pc, r0, lsl #16
     3ec:	00000000 	andeq	r0, r0, r0
     3f0:	01000000 	mrseq	r0, (UNDEF: 0)
     3f4:	00004400 	andeq	r4, r0, r0, lsl #8
     3f8:	00004800 	andeq	r4, r0, r0, lsl #16
     3fc:	54000100 	strpl	r0, [r0], #-256	; 0xffffff00
	...
     408:	00540701 	subseq	r0, r4, r1, lsl #14
     40c:	00580000 	subseq	r0, r8, r0
     410:	00020000 	andeq	r0, r2, r0
     414:	00009f37 	andeq	r9, r0, r7, lsr pc
     418:	00000000 	andeq	r0, r0, r0
     41c:	07010000 	streq	r0, [r1, -r0]
     420:	00000054 	andeq	r0, r0, r4, asr r0
     424:	00000058 	andeq	r0, r0, r8, asr r0
     428:	9f350002 	svcls	0x00350002
	...
     434:	00540701 	subseq	r0, r4, r1, lsl #14
     438:	00580000 	subseq	r0, r8, r0
     43c:	00010000 	andeq	r0, r1, r0
     440:	00000054 	andeq	r0, r0, r4, asr r0
     444:	00000000 	andeq	r0, r0, r0
     448:	64000100 	strvs	r0, [r0], #-256	; 0xffffff00
     44c:	68000000 	stmdavs	r0, {}	; <UNPREDICTABLE>
     450:	02000000 	andeq	r0, r0, #0, 0
     454:	009f3400 	addseq	r3, pc, r0, lsl #8
     458:	00000000 	andeq	r0, r0, r0
     45c:	01000000 	mrseq	r0, (UNDEF: 0)
     460:	00006400 	andeq	r6, r0, r0, lsl #8
     464:	00006800 	andeq	r6, r0, r0, lsl #16
     468:	54000100 	strpl	r0, [r0], #-256	; 0xffffff00
	...
     474:	00740001 	rsbseq	r0, r4, r1
     478:	00780000 	rsbseq	r0, r8, r0
     47c:	00020000 	andeq	r0, r2, r0
     480:	00009f33 	andeq	r9, r0, r3, lsr pc
     484:	00000000 	andeq	r0, r0, r0
     488:	00010000 	andeq	r0, r1, r0
     48c:	00000074 	andeq	r0, r0, r4, ror r0
     490:	00000078 	andeq	r0, r0, r8, ror r0
     494:	00540001 	subseq	r0, r4, r1
     498:	00000000 	andeq	r0, r0, r0
     49c:	01000000 	mrseq	r0, (UNDEF: 0)
     4a0:	00008400 	andeq	r8, r0, r0, lsl #8
     4a4:	00008800 	andeq	r8, r0, r0, lsl #16
     4a8:	32000200 	andcc	r0, r0, #0, 4
     4ac:	0000009f 	muleq	r0, pc, r0	; <UNPREDICTABLE>
     4b0:	00000000 	andeq	r0, r0, r0
     4b4:	84000100 	strhi	r0, [r0], #-256	; 0xffffff00
     4b8:	88000000 	stmdahi	r0, {}	; <UNPREDICTABLE>
     4bc:	01000000 	mrseq	r0, (UNDEF: 0)
     4c0:	00005400 	andeq	r5, r0, r0, lsl #8
     4c4:	00000000 	andeq	r0, r0, r0
     4c8:	12010000 	andne	r0, r1, #0, 0
     4cc:	00000094 	muleq	r0, r4, r0
     4d0:	00000094 	muleq	r0, r4, r0
     4d4:	9f310002 	svcls	0x00310002
	...
     4e0:	00941201 	addseq	r1, r4, r1, lsl #4
     4e4:	00940000 	addseq	r0, r4, r0
     4e8:	00020000 	andeq	r0, r2, r0
     4ec:	00009f30 	andeq	r9, r0, r0, lsr pc
     4f0:	00000000 	andeq	r0, r0, r0
     4f4:	12010000 	andne	r0, r1, #0, 0
     4f8:	00000094 	muleq	r0, r4, r0
     4fc:	00000094 	muleq	r0, r4, r0
     500:	00540001 	subseq	r0, r4, r1
	...
     50c:	f4000000 	vst4.8	{d0-d3}, [r0], r0
     510:	0b000003 	bleq	524 <__code_start__-0x7adc>
     514:	01000004 	tsteq	r0, r4
     518:	040b5000 	streq	r5, [fp], #-0
     51c:	04b00000 	ldrteq	r0, [r0], #0
     520:	00040000 	andeq	r0, r4, r0
     524:	9f5001f3 	svcls	0x005001f3
	...
     534:	000003f4 	strdeq	r0, [r0], -r4
     538:	00000408 	andeq	r0, r0, r8, lsl #8
     53c:	08510001 	ldmdaeq	r1, {r0}^
     540:	b0000004 	andlt	r0, r0, r4
     544:	01000004 	tsteq	r0, r4
     548:	00005500 	andeq	r5, r0, r0, lsl #10
	...
     554:	03f40000 	mvnseq	r0, #0, 0
     558:	04040000 	streq	r0, [r4], #-0
     55c:	00010000 	andeq	r0, r1, r0
     560:	00040452 	andeq	r0, r4, r2, asr r4
     564:	0004b000 	andeq	fp, r4, r0
     568:	54000100 	strpl	r0, [r0], #-256	; 0xffffff00
	...
     574:	00000002 	andeq	r0, r0, r2
     578:	00000000 	andeq	r0, r0, r0
     57c:	0000040c 	andeq	r0, r0, ip, lsl #8
     580:	00000414 	andeq	r0, r0, r4, lsl r4
     584:	9f300002 	svcls	0x00300002
     588:	00000414 	andeq	r0, r0, r4, lsl r4
     58c:	0000041c 	andeq	r0, r0, ip, lsl r4
     590:	2c520001 	mrrccs	0, 0, r0, r2, cr1
     594:	7c000004 	stcvc	0, cr0, [r0], {4}
     598:	01000004 	tsteq	r0, r4
     59c:	048c5200 	streq	r5, [ip], #512	; 0x200
     5a0:	048f0000 	streq	r0, [pc], #0	; 5a8 <__code_start__-0x7a58>
     5a4:	00010000 	andeq	r0, r1, r0
     5a8:	00000052 	andeq	r0, r0, r2, asr r0
	...
     5b4:	00033800 	andeq	r3, r3, r0, lsl #16
     5b8:	00034f00 	andeq	r4, r3, r0, lsl #30
     5bc:	50000100 	andpl	r0, r0, r0, lsl #2
     5c0:	0000034f 	andeq	r0, r0, pc, asr #6
     5c4:	000003f4 	strdeq	r0, [r0], -r4
     5c8:	01f30004 	mvnseq	r0, r4
     5cc:	00009f50 	andeq	r9, r0, r0, asr pc
	...
     5d8:	03380000 	teqeq	r8, #0, 0
     5dc:	034c0000 	movteq	r0, #49152	; 0xc000
     5e0:	00010000 	andeq	r0, r1, r0
     5e4:	00034c51 	andeq	r4, r3, r1, asr ip
     5e8:	0003f400 	andeq	pc, r3, r0, lsl #8
     5ec:	55000100 	strpl	r0, [r0, #-256]	; 0xffffff00
	...
     5fc:	00000338 	andeq	r0, r0, r8, lsr r3
     600:	00000348 	andeq	r0, r0, r8, asr #6
     604:	48520001 	ldmdami	r2, {r0}^
     608:	f4000003 	vst4.8	{d0-d3}, [r0], r3
     60c:	01000003 	tsteq	r0, r3
     610:	00005400 	andeq	r5, r0, r0, lsl #8
     614:	00000000 	andeq	r0, r0, r0
     618:	00020000 	andeq	r0, r2, r0
     61c:	00000000 	andeq	r0, r0, r0
     620:	03500000 	cmpeq	r0, #0, 0
     624:	03580000 	cmpeq	r8, #0, 0
     628:	00020000 	andeq	r0, r2, r0
     62c:	03589f30 	cmpeq	r8, #48, 30	; 0xc0
     630:	03600000 	cmneq	r0, #0, 0
     634:	00010000 	andeq	r0, r1, r0
     638:	00037052 	andeq	r7, r3, r2, asr r0
     63c:	0003c000 	andeq	ip, r3, r0
     640:	52000100 	andpl	r0, r0, #0
     644:	000003d0 	ldrdeq	r0, [r0], -r0	; <UNPREDICTABLE>
     648:	000003d3 	ldrdeq	r0, [r0], -r3
     64c:	00520001 	subseq	r0, r2, r1
	...
     65c:	00016400 	andeq	r6, r1, r0, lsl #8
     660:	00017b00 	andeq	r7, r1, r0, lsl #22
     664:	50000100 	andpl	r0, r0, r0, lsl #2
     668:	0000017b 	andeq	r0, r0, fp, ror r1
     66c:	00000304 	andeq	r0, r0, r4, lsl #6
     670:	04560001 	ldrbeq	r0, [r6], #-1
     674:	38000003 	stmdacc	r0, {r0, r1}
     678:	04000003 	streq	r0, [r0], #-3
     67c:	5001f300 	andpl	pc, r1, r0, lsl #6
     680:	0000009f 	muleq	r0, pc, r0	; <UNPREDICTABLE>
	...
     690:	64000000 	strvs	r0, [r0], #-0
     694:	7b000001 	blvc	6a0 <__code_start__-0x7960>
     698:	01000001 	tsteq	r0, r1
     69c:	017b5100 	cmneq	fp, r0, lsl #2
     6a0:	021c0000 	andseq	r0, ip, #0, 0
     6a4:	00010000 	andeq	r0, r1, r0
     6a8:	00021c55 	andeq	r1, r2, r5, asr ip
     6ac:	00028400 	andeq	r8, r2, r0, lsl #8
     6b0:	f3000400 	vshl.u8	d0, d0, d0
     6b4:	849f5101 	ldrhi	r5, [pc], #257	; 6bc <__code_start__-0x7944>
     6b8:	e4000002 	str	r0, [r0], #-2
     6bc:	01000002 	tsteq	r0, r2
     6c0:	02e45500 	rsceq	r5, r4, #0, 10
     6c4:	03380000 	teqeq	r8, #0, 0
     6c8:	00040000 	andeq	r0, r4, r0
     6cc:	9f5101f3 	svcls	0x005101f3
	...
     6dc:	01640000 	cmneq	r4, r0
     6e0:	017b0000 	cmneq	fp, r0
     6e4:	00010000 	andeq	r0, r1, r0
     6e8:	00017b52 	andeq	r7, r1, r2, asr fp
     6ec:	00030400 	andeq	r0, r3, r0, lsl #8
     6f0:	54000100 	strpl	r0, [r0], #-256	; 0xffffff00
     6f4:	00000304 	andeq	r0, r0, r4, lsl #6
     6f8:	00000338 	andeq	r0, r0, r8, lsr r3
     6fc:	01f30004 	mvnseq	r0, r4
     700:	00009f52 	andeq	r9, r0, r2, asr pc
	...
     70c:	0000022c 	andeq	r0, r0, ip, lsr #4
     710:	00000230 	andeq	r0, r0, r0, lsr r2
     714:	00530001 	subseq	r0, r3, r1
	...
     720:	1c000000 	stcne	0, cr0, [r0], {-0}
     724:	23000001 	movwcs	r0, #1
     728:	01000001 	tsteq	r0, r1
     72c:	01235000 			; <UNDEFINED> instruction: 0x01235000
     730:	012c0000 			; <UNDEFINED> instruction: 0x012c0000
     734:	00040000 	andeq	r0, r4, r0
     738:	9f5001f3 	svcls	0x005001f3
	...
     744:	00100000 	andseq	r0, r0, r0
     748:	00140000 	andseq	r0, r4, r0
     74c:	00010000 	andeq	r0, r1, r0
     750:	00000050 	andeq	r0, r0, r0, asr r0
	...
     75c:	00015400 	andeq	r5, r1, r0, lsl #8
     760:	00015b00 	andeq	r5, r1, r0, lsl #22
     764:	50000100 	andpl	r0, r0, r0, lsl #2
     768:	0000015b 	andeq	r0, r0, fp, asr r1
     76c:	00000164 	andeq	r0, r0, r4, ror #2
     770:	01f30004 	mvnseq	r0, r4
     774:	00009f50 	andeq	r9, r0, r0, asr pc
	...
     780:	00000100 	andeq	r0, r0, r0, lsl #2
     784:	00040000 	andeq	r0, r4, r0
     788:	00010000 	andeq	r0, r1, r0
     78c:	00000c50 	andeq	r0, r0, r0, asr ip
     790:	00000c00 	andeq	r0, r0, r0, lsl #24
     794:	50000100 	andpl	r0, r0, r0, lsl #2
	...
     7a4:	002c0000 	eoreq	r0, ip, r0
     7a8:	00380000 	eorseq	r0, r8, r0
     7ac:	00010000 	andeq	r0, r1, r0
     7b0:	00003850 	andeq	r3, r0, r0, asr r8
     7b4:	00004800 	andeq	r4, r0, r0, lsl #16
     7b8:	54000100 	strpl	r0, [r0], #-256	; 0xffffff00
     7bc:	00000048 	andeq	r0, r0, r8, asr #32
     7c0:	00000058 	andeq	r0, r0, r8, asr r0
     7c4:	00500001 	subseq	r0, r0, r1
	...
     7d0:	00000101 	andeq	r0, r0, r1, lsl #2
     7d4:	08000000 	stmdaeq	r0, {}	; <UNPREDICTABLE>
     7d8:	01000000 	mrseq	r0, (UNDEF: 0)
     7dc:	00085000 	andeq	r5, r8, r0
     7e0:	00340000 	eorseq	r0, r4, r0
     7e4:	00010000 	andeq	r0, r1, r0
     7e8:	00000054 	andeq	r0, r0, r4, asr r0
	...
     7f4:	88000000 	stmdahi	r0, {}	; <UNPREDICTABLE>
     7f8:	b8000002 	stmdalt	r0, {r1}
     7fc:	01000002 	tsteq	r0, r2
     800:	02b85000 	adcseq	r5, r8, #0, 0
     804:	07040000 	streq	r0, [r4, -r0]
     808:	00010000 	andeq	r0, r1, r0
     80c:	00070459 	andeq	r0, r7, r9, asr r4
     810:	00074000 	andeq	r4, r7, r0
     814:	f3000400 	vshl.u8	d0, d0, d0
     818:	009f5001 	addseq	r5, pc, r1
	...
     828:	00028800 	andeq	r8, r2, r0, lsl #16
     82c:	0002a000 	andeq	sl, r2, r0
     830:	51000100 	mrspl	r0, (UNDEF: 16)
     834:	000002a0 	andeq	r0, r0, r0, lsr #5
     838:	000002b8 			; <UNDEFINED> instruction: 0x000002b8
     83c:	01710003 	cmneq	r1, r3
     840:	0002b89f 	muleq	r2, pc, r8	; <UNPREDICTABLE>
     844:	00074000 	andeq	r4, r7, r0
     848:	f3000400 	vshl.u8	d0, d0, d0
     84c:	009f5101 	addseq	r5, pc, r1, lsl #2
	...
     860:	88000000 	stmdahi	r0, {}	; <UNPREDICTABLE>
     864:	b8000002 	stmdalt	r0, {r1}
     868:	01000002 	tsteq	r0, r2
     86c:	02b85200 	adcseq	r5, r8, #0, 4
     870:	03ec0000 	mvneq	r0, #0, 0
     874:	00010000 	andeq	r0, r1, r0
     878:	0003ec56 	andeq	lr, r3, r6, asr ip
     87c:	0004b800 	andeq	fp, r4, r0, lsl #16
     880:	5b000100 	blpl	c88 <__code_start__-0x7378>
     884:	000004b8 			; <UNDEFINED> instruction: 0x000004b8
     888:	000004d8 	ldrdeq	r0, [r0], -r8
     88c:	d8560001 	ldmdale	r6, {r0}^
     890:	5c000004 	stcpl	0, cr0, [r0], {4}
     894:	01000005 	tsteq	r0, r5
     898:	055c5b00 	ldrbeq	r5, [ip, #-2816]	; 0xfffff500
     89c:	07040000 	streq	r0, [r4, -r0]
     8a0:	00010000 	andeq	r0, r1, r0
     8a4:	00000056 	andeq	r0, r0, r6, asr r0
     8a8:	00000000 	andeq	r0, r0, r0
     8ac:	00000100 	andeq	r0, r0, r0, lsl #2
     8b0:	00000000 	andeq	r0, r0, r0
     8b4:	00000101 	andeq	r0, r0, r1, lsl #2
     8b8:	00000000 	andeq	r0, r0, r0
     8bc:	00000202 	andeq	r0, r0, r2, lsl #4
     8c0:	00029c00 	andeq	r9, r2, r0, lsl #24
     8c4:	0002b800 	andeq	fp, r2, r0, lsl #16
     8c8:	50000100 	andpl	r0, r0, r0, lsl #2
     8cc:	000002b8 			; <UNDEFINED> instruction: 0x000002b8
     8d0:	000002bc 			; <UNDEFINED> instruction: 0x000002bc
     8d4:	bc540001 	mrrclt	0, 0, r0, r4, cr1
     8d8:	c0000002 	andgt	r0, r0, r2
     8dc:	03000002 	movweq	r0, #2
     8e0:	9f017400 	svcls	0x00017400
     8e4:	000002c0 	andeq	r0, r0, r0, asr #5
     8e8:	000002e4 	andeq	r0, r0, r4, ror #5
     8ec:	e4540001 	ldrb	r0, [r4], #-1
     8f0:	e8000002 	stmda	r0, {r1}
     8f4:	03000002 	movweq	r0, #2
     8f8:	9f017400 	svcls	0x00017400
     8fc:	000002e8 	andeq	r0, r0, r8, ror #5
     900:	000006d4 	ldrdeq	r0, [r0], -r4
     904:	d4540001 	ldrble	r0, [r4], #-1
     908:	d8000006 	stmdale	r0, {r1, r2}
     90c:	03000006 	movweq	r0, #6
     910:	9f017400 	svcls	0x00017400
     914:	000006d8 	ldrdeq	r0, [r0], -r8
     918:	000006f0 	strdeq	r0, [r0], -r0	; <UNPREDICTABLE>
     91c:	f0540001 			; <UNDEFINED> instruction: 0xf0540001
     920:	f8000006 			; <UNDEFINED> instruction: 0xf8000006
     924:	03000006 	movweq	r0, #6
     928:	9f017400 	svcls	0x00017400
     92c:	000006f8 	strdeq	r0, [r0], -r8
     930:	00000704 	andeq	r0, r0, r4, lsl #14
     934:	00540001 	subseq	r0, r4, r1
	...
     940:	a4000000 	strge	r0, [r0], #-0
     944:	04000002 	streq	r0, [r0], #-2
     948:	01000007 	tsteq	r0, r7
     94c:	07045800 	streq	r5, [r4, -r0, lsl #16]
     950:	07400000 	strbeq	r0, [r0, -r0]
     954:	000a0000 	andeq	r0, sl, r0
     958:	f35101f3 	vbsl	q8, <illegal reg q8.5>, <illegal reg q9.5>
     95c:	31225001 			; <UNDEFINED> instruction: 0x31225001
     960:	00009f1c 	andeq	r9, r0, ip, lsl pc
     964:	00000000 	andeq	r0, r0, r0
     968:	00010000 	andeq	r0, r1, r0
     96c:	00000000 	andeq	r0, r0, r0
     970:	00000408 	andeq	r0, r0, r8, lsl #8
     974:	00000474 	andeq	r0, r0, r4, ror r4
     978:	d8570001 	ldmdale	r7, {r0}^
     97c:	fc000004 	stc2	0, cr0, [r0], {4}
     980:	01000004 	tsteq	r0, r4
     984:	05405700 	strbeq	r5, [r0, #-1792]	; 0xfffff900
     988:	055c0000 	ldrbeq	r0, [ip, #-0]
     98c:	00010000 	andeq	r0, r1, r0
     990:	00000057 	andeq	r0, r0, r7, asr r0
     994:	00000000 	andeq	r0, r0, r0
     998:	00000200 	andeq	r0, r0, r0, lsl #4
     99c:	00040800 	andeq	r0, r4, r0, lsl #16
     9a0:	0004b800 	andeq	fp, r4, r0, lsl #16
     9a4:	5a000100 	bpl	dac <__code_start__-0x7254>
     9a8:	000004d8 	ldrdeq	r0, [r0], -r8
     9ac:	0000055c 	andeq	r0, r0, ip, asr r5
     9b0:	005a0001 	subseq	r0, sl, r1
     9b4:	00000000 	andeq	r0, r0, r0
     9b8:	01000000 	mrseq	r0, (UNDEF: 0)
     9bc:	ac000000 	stcge	0, cr0, [r0], {-0}
     9c0:	b8000002 	stmdalt	r0, {r1}
     9c4:	01000002 	tsteq	r0, r2
     9c8:	02b85200 	adcseq	r5, r8, #0, 4
     9cc:	07400000 	strbeq	r0, [r0, -r0]
     9d0:	00030000 	andeq	r0, r3, r0
     9d4:	007dc891 			; <UNDEFINED> instruction: 0x007dc891
	...
     9e8:	00000101 	andeq	r0, r0, r1, lsl #2
	...
     9f4:	00047400 	andeq	r7, r4, r0, lsl #8
     9f8:	00048c00 	andeq	r8, r4, r0, lsl #24
     9fc:	50000100 	andpl	r0, r0, r0, lsl #2
     a00:	0000048c 	andeq	r0, r0, ip, lsl #9
     a04:	000004b8 			; <UNDEFINED> instruction: 0x000004b8
     a08:	fc570001 	mrrc2	0, 0, r0, r7, cr1
     a0c:	14000004 	strne	r0, [r0], #-4
     a10:	01000005 	tsteq	r0, r5
     a14:	05145000 	ldreq	r5, [r4, #-0]
     a18:	05400000 	strbeq	r0, [r0, #-0]
     a1c:	00010000 	andeq	r0, r1, r0
     a20:	0005a457 	andeq	sl, r5, r7, asr r4
     a24:	0005a400 	andeq	sl, r5, r0, lsl #8
     a28:	50000100 	andpl	r0, r0, r0, lsl #2
     a2c:	000005a4 	andeq	r0, r0, r4, lsr #11
     a30:	000005ac 	andeq	r0, r0, ip, lsr #11
     a34:	dc570001 	mrrcle	0, 0, r0, r7, cr1
     a38:	e0000005 	and	r0, r0, r5
     a3c:	01000005 	tsteq	r0, r5
     a40:	06105000 	ldreq	r5, [r0], -r0
     a44:	06140000 	ldreq	r0, [r4], -r0
     a48:	00010000 	andeq	r0, r1, r0
     a4c:	00064450 	andeq	r4, r6, r0, asr r4
     a50:	00064800 	andeq	r4, r6, r0, lsl #16
     a54:	50000100 	andpl	r0, r0, r0, lsl #2
     a58:	0000068c 	andeq	r0, r0, ip, lsl #13
     a5c:	00000690 	muleq	r0, r0, r6
     a60:	d0500001 	subsle	r0, r0, r1
     a64:	f0000006 			; <UNDEFINED> instruction: 0xf0000006
     a68:	01000006 	tsteq	r0, r6
     a6c:	00005700 	andeq	r5, r0, r0, lsl #14
     a70:	00000000 	andeq	r0, r0, r0
     a74:	00020000 	andeq	r0, r2, r0
     a78:	00000000 	andeq	r0, r0, r0
     a7c:	000002f4 	strdeq	r0, [r0], -r4
     a80:	000002f8 	strdeq	r0, [r0], -r8
     a84:	9f300002 	svcls	0x00300002
     a88:	000002f8 	strdeq	r0, [r0], -r8
     a8c:	00000314 	andeq	r0, r0, r4, lsl r3
     a90:	1c550001 	mrrcne	0, 0, r0, r5, cr1
     a94:	f0000003 			; <UNDEFINED> instruction: 0xf0000003
     a98:	01000006 	tsteq	r0, r6
     a9c:	00005500 	andeq	r5, r0, r0, lsl #10
     aa0:	00000000 	andeq	r0, r0, r0
     aa4:	00010000 	andeq	r0, r1, r0
	...
     ab0:	000003b8 			; <UNDEFINED> instruction: 0x000003b8
     ab4:	00000454 	andeq	r0, r0, r4, asr r4
     ab8:	54560001 	ldrbpl	r0, [r6], #-1
     abc:	b8000004 	stmdalt	r0, {r2}
     ac0:	03000004 	movweq	r0, #4
     ac4:	9f7e7b00 	svcls	0x007e7b00
     ac8:	000004b8 			; <UNDEFINED> instruction: 0x000004b8
     acc:	000004dc 	ldrdeq	r0, [r0], -ip
     ad0:	dc560001 	mrrcle	0, 0, r0, r6, cr1
     ad4:	40000004 	andmi	r0, r0, r4
     ad8:	03000005 	movweq	r0, #5
     adc:	9f7e7b00 	svcls	0x007e7b00
     ae0:	00000540 	andeq	r0, r0, r0, asr #10
     ae4:	0000055c 	andeq	r0, r0, ip, asr r5
     ae8:	00560001 	subseq	r0, r6, r1
	...
     af8:	00007000 	andeq	r7, r0, r0
     afc:	00009400 	andeq	r9, r0, r0, lsl #8
     b00:	50000100 	andpl	r0, r0, r0, lsl #2
     b04:	00000094 	muleq	r0, r4, r0
     b08:	000000fc 	strdeq	r0, [r0], -ip
     b0c:	02700003 	rsbseq	r0, r0, #3, 0
     b10:	0000fc9f 	muleq	r0, pc, ip	; <UNPREDICTABLE>
     b14:	00022400 	andeq	r2, r2, r0, lsl #8
     b18:	f3000400 	vshl.u8	d0, d0, d0
     b1c:	009f5001 	addseq	r5, pc, r1
	...
     b34:	70000000 	andvc	r0, r0, r0
     b38:	e0000000 	and	r0, r0, r0
     b3c:	01000000 	mrseq	r0, (UNDEF: 0)
     b40:	00e05100 	rsceq	r5, r0, r0, lsl #2
     b44:	01540000 	cmpeq	r4, r0
     b48:	00010000 	andeq	r0, r1, r0
     b4c:	00015455 	andeq	r5, r1, r5, asr r4
     b50:	00015800 	andeq	r5, r1, r0, lsl #16
     b54:	51000100 	mrspl	r0, (UNDEF: 16)
     b58:	00000158 	andeq	r0, r0, r8, asr r1
     b5c:	000001b0 			; <UNDEFINED> instruction: 0x000001b0
     b60:	b0550001 	subslt	r0, r5, r1
     b64:	c0000001 	andgt	r0, r0, r1
     b68:	01000001 	tsteq	r0, r1
     b6c:	01c05100 	biceq	r5, r0, r0, lsl #2
     b70:	01e40000 	mvneq	r0, r0
     b74:	00010000 	andeq	r0, r1, r0
     b78:	0001e455 	andeq	lr, r1, r5, asr r4
     b7c:	0001f800 	andeq	pc, r1, r0, lsl #16
     b80:	51000100 	mrspl	r0, (UNDEF: 16)
     b84:	000001f8 	strdeq	r0, [r0], -r8
     b88:	00000224 	andeq	r0, r0, r4, lsr #4
     b8c:	00550001 	subseq	r0, r5, r1
	...
     b98:	70000000 	andvc	r0, r0, r0
     b9c:	84000000 	strhi	r0, [r0], #-0
     ba0:	01000000 	mrseq	r0, (UNDEF: 0)
     ba4:	00845200 	addeq	r5, r4, r0, lsl #4
     ba8:	02240000 	eoreq	r0, r4, #0, 0
     bac:	00010000 	andeq	r0, r1, r0
     bb0:	00000054 	andeq	r0, r0, r4, asr r0
	...
     bbc:	00010000 	andeq	r0, r1, r0
     bc0:	00000000 	andeq	r0, r0, r0
     bc4:	00007000 	andeq	r7, r0, r0
     bc8:	0000f400 	andeq	pc, r0, r0, lsl #8
     bcc:	53000100 	movwpl	r0, #256	; 0x100
     bd0:	0000014c 	andeq	r0, r0, ip, asr #2
     bd4:	00000180 	andeq	r0, r0, r0, lsl #3
     bd8:	80530001 	subshi	r0, r3, r1
     bdc:	8c000001 	stchi	0, cr0, [r0], {1}
     be0:	04000001 	streq	r0, [r0], #-1
     be4:	5301f300 	movwpl	pc, #4864	; 0x1300	; <UNPREDICTABLE>
     be8:	0001b09f 	muleq	r1, pc, r0	; <UNPREDICTABLE>
     bec:	0001e800 	andeq	lr, r1, r0, lsl #16
     bf0:	53000100 	movwpl	r0, #256	; 0x100
     bf4:	000001e8 	andeq	r0, r0, r8, ror #3
     bf8:	000001ff 	strdeq	r0, [r0], -pc	; <UNPREDICTABLE>
     bfc:	ff5c0001 			; <UNDEFINED> instruction: 0xff5c0001
     c00:	24000001 	strcs	r0, [r0], #-1
     c04:	04000002 	streq	r0, [r0], #-2
     c08:	5301f300 	movwpl	pc, #4864	; 0x1300	; <UNPREDICTABLE>
     c0c:	0000009f 	muleq	r0, pc, r0	; <UNPREDICTABLE>
	...
     c18:	70000000 	andvc	r0, r0, r0
     c1c:	8c000000 	stchi	0, cr0, [r0], {-0}
     c20:	02000000 	andeq	r0, r0, #0, 0
     c24:	8c009100 	stfhid	f1, [r0], {-0}
     c28:	93000000 	movwls	r0, #0
     c2c:	01000001 	tsteq	r0, r1
     c30:	01b05200 	lslseq	r5, r0, #4
     c34:	01f40000 	mvnseq	r0, r0
     c38:	00010000 	andeq	r0, r1, r0
     c3c:	00000052 	andeq	r0, r0, r2, asr r0
     c40:	00000000 	andeq	r0, r0, r0
     c44:	00000100 	andeq	r0, r0, r0, lsl #2
     c48:	00000101 	andeq	r0, r0, r1, lsl #2
     c4c:	00000000 	andeq	r0, r0, r0
     c50:	01010000 	mrseq	r0, (UNDEF: 1)
     c54:	00000101 	andeq	r0, r0, r1, lsl #2
     c58:	00000101 	andeq	r0, r0, r1, lsl #2
	...
     c64:	00008c00 	andeq	r8, r0, r0, lsl #24
     c68:	0000fc00 	andeq	pc, r0, r0, lsl #24
     c6c:	91000400 	tstls	r0, r0, lsl #8
     c70:	fc9f7fa0 	ldc2	15, cr7, [pc], {160}	; 0xa0
     c74:	3c000000 	stccc	0, cr0, [r0], {-0}
     c78:	01000001 	tsteq	r0, r1
     c7c:	013c5000 	teqeq	ip, r0
     c80:	01480000 	mrseq	r0, (UNDEF: 72)
     c84:	00030000 	andeq	r0, r3, r0
     c88:	489f0271 	ldmmi	pc, {r0, r4, r5, r6, r9}	; <UNPREDICTABLE>
     c8c:	4c000001 	stcmi	0, cr0, [r0], {1}
     c90:	01000001 	tsteq	r0, r1
     c94:	014c5000 	mrseq	r5, (UNDEF: 76)
     c98:	01580000 	cmpeq	r8, r0
     c9c:	00040000 	andeq	r0, r4, r0
     ca0:	9f7fa091 	svcls	0x007fa091
     ca4:	00000158 	andeq	r0, r0, r8, asr r1
     ca8:	0000016c 	andeq	r0, r0, ip, ror #2
     cac:	6c510001 	mrrcvs	0, 0, r0, r1, cr1
     cb0:	78000001 	stmdavc	r0, {r0}
     cb4:	03000001 	movweq	r0, #1
     cb8:	9f7f7100 	svcls	0x007f7100
     cbc:	00000178 	andeq	r0, r0, r8, ror r1
     cc0:	00000184 	andeq	r0, r0, r4, lsl #3
     cc4:	01710003 	cmneq	r1, r3
     cc8:	0001849f 	muleq	r1, pc, r4	; <UNPREDICTABLE>
     ccc:	00019300 	andeq	r9, r1, r0, lsl #6
     cd0:	50000100 	andpl	r0, r0, r0, lsl #2
     cd4:	000001b0 			; <UNDEFINED> instruction: 0x000001b0
     cd8:	000001b0 			; <UNDEFINED> instruction: 0x000001b0
     cdc:	a0910004 	addsge	r0, r1, r4
     ce0:	01b09f7f 	rorseq	r9, pc, pc
     ce4:	01b80000 			; <UNDEFINED> instruction: 0x01b80000
     ce8:	00040000 	andeq	r0, r4, r0
     cec:	9f7fa191 	svcls	0x007fa191
     cf0:	000001b8 			; <UNDEFINED> instruction: 0x000001b8
     cf4:	000001bc 			; <UNDEFINED> instruction: 0x000001bc
     cf8:	bc500001 	mrrclt	0, 0, r0, r0, cr1	; <UNPREDICTABLE>
     cfc:	c0000001 	andgt	r0, r0, r1
     d00:	04000001 	streq	r0, [r0], #-1
     d04:	7fa09100 	svcvc	0x00a09100
     d08:	0001c09f 	muleq	r1, pc, r0	; <UNPREDICTABLE>
     d0c:	0001d400 	andeq	sp, r1, r0, lsl #8
     d10:	50000100 	andpl	r0, r0, r0, lsl #2
     d14:	000001d4 	ldrdeq	r0, [r0], -r4
     d18:	000001e4 	andeq	r0, r0, r4, ror #3
     d1c:	7f700003 	svcvc	0x00700003
     d20:	0001e49f 	muleq	r1, pc, r4	; <UNPREDICTABLE>
     d24:	00022400 	andeq	r2, r2, r0, lsl #8
     d28:	91000400 	tstls	r0, r0, lsl #8
     d2c:	009f7fa0 	addseq	r7, pc, r0, lsr #31
	...
     d38:	01010000 	mrseq	r0, (UNDEF: 1)
	...
     d48:	90000000 	andls	r0, r0, r0
     d4c:	dc000000 	stcle	0, cr0, [r0], {-0}
     d50:	01000000 	mrseq	r0, (UNDEF: 0)
     d54:	00dc5c00 	sbcseq	r5, ip, r0, lsl #24
     d58:	00f40000 	rscseq	r0, r4, r0
     d5c:	00010000 	andeq	r0, r1, r0
     d60:	0000f453 	andeq	pc, r0, r3, asr r4	; <UNPREDICTABLE>
     d64:	00014c00 	andeq	r4, r1, r0, lsl #24
     d68:	5c000100 	stfpls	f0, [r0], {-0}
     d6c:	0000014c 	andeq	r0, r0, ip, asr #2
     d70:	00000158 	andeq	r0, r0, r8, asr r1
     d74:	58530001 	ldmdapl	r3, {r0}^
     d78:	74000001 	strvc	r0, [r0], #-1
     d7c:	01000001 	tsteq	r0, r1
     d80:	01b05c00 	lslseq	r5, r0, #24
     d84:	01c00000 	biceq	r0, r0, r0
     d88:	00010000 	andeq	r0, r1, r0
     d8c:	0001c053 	andeq	ip, r1, r3, asr r0
     d90:	0001dc00 	andeq	sp, r1, r0, lsl #24
     d94:	5c000100 	stfpls	f0, [r0], {-0}
     d98:	000001e4 	andeq	r0, r0, r4, ror #3
     d9c:	000001e8 	andeq	r0, r0, r8, ror #3
     da0:	e8530001 	ldmda	r3, {r0}^
     da4:	ff000001 			; <UNDEFINED> instruction: 0xff000001
     da8:	01000001 	tsteq	r0, r1
     dac:	01ff5c00 	mvnseq	r5, r0, lsl #24
     db0:	02240000 	eoreq	r0, r4, #0, 0
     db4:	00040000 	andeq	r0, r4, r0
     db8:	9f5301f3 	svcls	0x005301f3
	...
     dc4:	00010101 	andeq	r0, r1, r1, lsl #2
     dc8:	00000000 	andeq	r0, r0, r0
     dcc:	000000dc 	ldrdeq	r0, [r0], -ip
     dd0:	000000f0 	strdeq	r0, [r0], -r0	; <UNPREDICTABLE>
     dd4:	9f300002 	svcls	0x00300002
     dd8:	000000f0 	strdeq	r0, [r0], -r0	; <UNPREDICTABLE>
     ddc:	000000f8 	strdeq	r0, [r0], -r8
     de0:	9f310002 	svcls	0x00310002
     de4:	000000fc 	strdeq	r0, [r0], -ip
     de8:	0000014c 	andeq	r0, r0, ip, asr #2
     dec:	4c560001 	mrrcmi	0, 0, r0, r6, cr1
     df0:	54000001 	strpl	r0, [r0], #-1
     df4:	02000001 	andeq	r0, r0, #1, 0
     df8:	009f3000 	addseq	r3, pc, r0
	...
     e04:	01010000 	mrseq	r0, (UNDEF: 1)
     e08:	01010000 	mrseq	r0, (UNDEF: 1)
     e0c:	00003800 	andeq	r3, r0, r0, lsl #16
     e10:	00005400 	andeq	r5, r0, r0, lsl #8
     e14:	50000100 	andpl	r0, r0, r0, lsl #2
     e18:	00000054 	andeq	r0, r0, r4, asr r0
     e1c:	00000058 	andeq	r0, r0, r8, asr r0
     e20:	58520001 	ldmdapl	r2, {r0}^
     e24:	60000000 	andvs	r0, r0, r0
     e28:	03000000 	movweq	r0, #0
     e2c:	9f017200 	svcls	0x00017200
     e30:	00000060 	andeq	r0, r0, r0, rrx
     e34:	00000064 	andeq	r0, r0, r4, rrx
     e38:	64520001 	ldrbvs	r0, [r2], #-1
     e3c:	70000000 	andvc	r0, r0, r0
     e40:	03000000 	movweq	r0, #0
     e44:	9f017200 	svcls	0x00017200
	...
     e54:	00000038 	andeq	r0, r0, r8, lsr r0
     e58:	00000050 	andeq	r0, r0, r0, asr r0
     e5c:	50510001 	subspl	r0, r1, r1
     e60:	70000000 	andvc	r0, r0, r0
     e64:	04000000 	streq	r0, [r0], #-0
     e68:	5101f300 	mrspl	pc, SP_irq	; <UNPREDICTABLE>
     e6c:	0000009f 	muleq	r0, pc, r0	; <UNPREDICTABLE>
	...
     e78:	01010000 	mrseq	r0, (UNDEF: 1)
     e7c:	00003800 	andeq	r3, r0, r0, lsl #16
     e80:	00005000 	andeq	r5, r0, r0
     e84:	52000100 	andpl	r0, r0, #0
     e88:	00000050 	andeq	r0, r0, r0, asr r0
     e8c:	0000005c 	andeq	r0, r0, ip, asr r0
     e90:	5c510001 	mrrcpl	0, 0, r0, r1, cr1
     e94:	60000000 	andvs	r0, r0, r0
     e98:	03000000 	movweq	r0, #0
     e9c:	9f017100 	svcls	0x00017100
     ea0:	00000060 	andeq	r0, r0, r0, rrx
     ea4:	00000070 	andeq	r0, r0, r0, ror r0
     ea8:	00510001 	subseq	r0, r1, r1
	...
     eb4:	38000000 	stmdacc	r0, {}	; <UNPREDICTABLE>
     eb8:	4c000000 	stcmi	0, cr0, [r0], {-0}
     ebc:	01000000 	mrseq	r0, (UNDEF: 0)
     ec0:	004c5300 	subeq	r5, ip, r0, lsl #6
     ec4:	00680000 	rsbeq	r0, r8, r0
     ec8:	00010000 	andeq	r0, r1, r0
     ecc:	00000053 	andeq	r0, r0, r3, asr r0
	...
     edc:	00004000 	andeq	r4, r0, r0
     ee0:	00004800 	andeq	r4, r0, r0, lsl #16
     ee4:	5c000100 	stfpls	f0, [r0], {-0}
     ee8:	00000048 	andeq	r0, r0, r8, asr #32
     eec:	0000004c 	andeq	r0, r0, ip, asr #32
     ef0:	00720008 	rsbseq	r0, r2, r8
     ef4:	231c0073 	tstcs	ip, #115, 0	; 0x73
     ef8:	004c9f01 	subeq	r9, ip, r1, lsl #30
     efc:	00540000 	subseq	r0, r4, r0
     f00:	00090000 	andeq	r0, r9, r0
     f04:	01f30072 	mvnseq	r0, r2, ror r0
     f08:	01231c53 			; <UNDEFINED> instruction: 0x01231c53
     f0c:	0000549f 	muleq	r0, pc, r4	; <UNPREDICTABLE>
     f10:	00007000 	andeq	r7, r0, r0
     f14:	f3000a00 	vpmax.u8	d0, d0, d0
     f18:	01f35201 	mvnseq	r5, r1, lsl #4
     f1c:	01231c53 			; <UNDEFINED> instruction: 0x01231c53
     f20:	0000009f 	muleq	r0, pc, r0	; <UNPREDICTABLE>
     f24:	00000000 	andeq	r0, r0, r0
     f28:	4c000100 	stfmis	f0, [r0], {-0}
     f2c:	70000000 	andvc	r0, r0, r0
     f30:	01000000 	mrseq	r0, (UNDEF: 0)
     f34:	00005000 	andeq	r5, r0, r0
     f38:	00000000 	andeq	r0, r0, r0
     f3c:	01000000 	mrseq	r0, (UNDEF: 0)
     f40:	00000001 	andeq	r0, r0, r1
     f44:	00000014 	andeq	r0, r0, r4, lsl r0
     f48:	0000001c 	andeq	r0, r0, ip, lsl r0
     f4c:	1c500001 	mrrcne	0, 0, r0, r0, cr1	; <UNPREDICTABLE>
     f50:	24000000 	strcs	r0, [r0], #-0
     f54:	03000000 	movweq	r0, #0
     f58:	9f017000 	svcls	0x00017000
     f5c:	00000024 	andeq	r0, r0, r4, lsr #32
     f60:	00000038 	andeq	r0, r0, r8, lsr r0
     f64:	00500001 	subseq	r0, r0, r1
	...
     f70:	14000000 	strne	r0, [r0], #-0
     f74:	18000000 	stmdane	r0, {}	; <UNPREDICTABLE>
     f78:	01000000 	mrseq	r0, (UNDEF: 0)
     f7c:	00185100 	andseq	r5, r8, r0, lsl #2
     f80:	00380000 	eorseq	r0, r8, r0
     f84:	00040000 	andeq	r0, r4, r0
     f88:	9f5101f3 	svcls	0x005101f3
	...
     f94:	00180000 	andseq	r0, r8, r0
     f98:	00380000 	eorseq	r0, r8, r0
     f9c:	00010000 	andeq	r0, r1, r0
     fa0:	00000051 	andeq	r0, r0, r1, asr r0
	...
     fb0:	04000000 	streq	r0, [r0], #-0
     fb4:	01000000 	mrseq	r0, (UNDEF: 0)
     fb8:	00045000 	andeq	r5, r4, r0
     fbc:	000c0000 	andeq	r0, ip, r0
     fc0:	00030000 	andeq	r0, r3, r0
     fc4:	0c9f3070 	ldceq	0, cr3, [pc], {112}	; 0x70
     fc8:	14000000 	strne	r0, [r0], #-0
     fcc:	04000000 	streq	r0, [r0], #-0
     fd0:	5001f300 	andpl	pc, r1, r0, lsl #6
     fd4:	0000009f 	muleq	r0, pc, r0	; <UNPREDICTABLE>
	...
     fe0:	00022400 	andeq	r2, r2, r0, lsl #8
     fe4:	00026800 	andeq	r6, r2, r0, lsl #16
     fe8:	50000100 	andpl	r0, r0, r0, lsl #2
     fec:	00000268 	andeq	r0, r0, r8, ror #4
     ff0:	00000288 	andeq	r0, r0, r8, lsl #5
     ff4:	01f30004 	mvnseq	r0, r4
     ff8:	00009f50 	andeq	r9, r0, r0, asr pc
	...
    1004:	02240000 	eoreq	r0, r4, #0, 0
    1008:	02640000 	rsbeq	r0, r4, #0, 0
    100c:	00010000 	andeq	r0, r1, r0
    1010:	00026451 	andeq	r6, r2, r1, asr r4
    1014:	00028800 	andeq	r8, r2, r0, lsl #16
    1018:	f3000400 	vshl.u8	d0, d0, d0
    101c:	009f5101 	addseq	r5, pc, r1, lsl #2
	...
    1028:	00000101 	andeq	r0, r0, r1, lsl #2
    102c:	00000c00 	andeq	r0, r0, r0, lsl #24
    1030:	00001400 	andeq	r1, r0, r0, lsl #8
    1034:	53000100 	movwpl	r0, #256	; 0x100
    1038:	00000014 	andeq	r0, r0, r4, lsl r0
    103c:	0000001c 	andeq	r0, r0, ip, lsl r0
    1040:	04730003 	ldrbteq	r0, [r3], #-3
    1044:	00001c9f 	muleq	r0, pc, ip	; <UNPREDICTABLE>
    1048:	00002300 	andeq	r2, r0, r0, lsl #6
    104c:	53000100 	movwpl	r0, #256	; 0x100
	...
    1058:	92a80001 	adcls	r0, r8, #1, 0
    105c:	92c40000 	sbcls	r0, r4, #0, 0
    1060:	00060000 	andeq	r0, r6, r0
    1064:	10001c0c 	andne	r1, r0, ip, lsl #24
    1068:	00009f20 	andeq	r9, r0, r0, lsr #30
    106c:	00000000 	andeq	r0, r0, r0
    1070:	00020000 	andeq	r0, r2, r0
    1074:	000092a8 	andeq	r9, r0, r8, lsr #5
    1078:	000092c4 	andeq	r9, r0, r4, asr #5
    107c:	240c0006 	strcs	r0, [ip], #-6
    1080:	9f201000 	svcls	0x00201000
	...
    108c:	92a80003 	adcls	r0, r8, #3, 0
    1090:	92c40000 	sbcls	r0, r4, #0, 0
    1094:	00050000 	andeq	r0, r5, r0
    1098:	2447b408 	strbcs	fp, [r7], #-1032	; 0xfffffbf8
    109c:	0000009f 	muleq	r0, pc, r0	; <UNPREDICTABLE>
    10a0:	00000000 	andeq	r0, r0, r0
    10a4:	a8000400 	stmdage	r0, {sl}
    10a8:	c4000092 	strgt	r0, [r0], #-146	; 0xffffff6e
    10ac:	03000092 	movweq	r0, #146	; 0x92
    10b0:	9f200800 	svcls	0x00200800
	...
    10bc:	00000002 	andeq	r0, r0, r2
    10c0:	92740000 	rsbsls	r0, r4, #0, 0
    10c4:	92780000 	rsbsls	r0, r8, #0, 0
    10c8:	00020000 	andeq	r0, r2, r0
    10cc:	92789f30 	rsbsls	r9, r8, #48, 30	; 0xc0
    10d0:	927c0000 	rsbsls	r0, ip, #0, 0
    10d4:	00010000 	andeq	r0, r1, r0
    10d8:	00928053 	addseq	r8, r2, r3, asr r0
    10dc:	00928800 	addseq	r8, r2, r0, lsl #16
    10e0:	53000100 	movwpl	r0, #256	; 0x100
	...
    10ec:	00000002 	andeq	r0, r0, r2
    10f0:	0000925c 	andeq	r9, r0, ip, asr r2
    10f4:	00009260 	andeq	r9, r0, r0, ror #4
    10f8:	9f300002 	svcls	0x00300002
    10fc:	00009260 	andeq	r9, r0, r0, ror #4
    1100:	00009264 	andeq	r9, r0, r4, ror #4
    1104:	00500001 	subseq	r0, r0, r1
	...
    1110:	6c000000 	stcvs	0, cr0, [r0], {-0}
    1114:	78000000 	stmdavc	r0, {}	; <UNPREDICTABLE>
    1118:	01000000 	mrseq	r0, (UNDEF: 0)
    111c:	00785000 	rsbseq	r5, r8, r0
    1120:	00840000 	addeq	r0, r4, r0
    1124:	00040000 	andeq	r0, r4, r0
    1128:	9f5001f3 	svcls	0x005001f3
	...
    1138:	00000054 	andeq	r0, r0, r4, asr r0
    113c:	00000060 	andeq	r0, r0, r0, rrx
    1140:	60500001 	subsvs	r0, r0, r1
    1144:	6c000000 	stcvs	0, cr0, [r0], {-0}
    1148:	04000000 	streq	r0, [r0], #-0
    114c:	5001f300 	andpl	pc, r1, r0, lsl #6
    1150:	0000009f 	muleq	r0, pc, r0	; <UNPREDICTABLE>
	...
    115c:	00003000 	andeq	r3, r0, r0
    1160:	00003b00 	andeq	r3, r0, r0, lsl #22
    1164:	50000100 	andpl	r0, r0, r0, lsl #2
    1168:	0000003b 	andeq	r0, r0, fp, lsr r0
    116c:	00000054 	andeq	r0, r0, r4, asr r0
    1170:	00550001 	subseq	r0, r5, r1
	...
    117c:	00004000 	andeq	r4, r0, r0
    1180:	00005400 	andeq	r5, r0, r0, lsl #8
    1184:	54000100 	strpl	r0, [r0], #-256	; 0xffffff00
	...
    1190:	00440000 	subeq	r0, r4, r0
    1194:	00480000 	subeq	r0, r8, r0
    1198:	00010000 	andeq	r0, r1, r0
    119c:	00000050 	andeq	r0, r0, r0, asr r0
	...
    11a8:	00002400 	andeq	r2, r0, r0, lsl #8
    11ac:	00002700 	andeq	r2, r0, r0, lsl #14
    11b0:	50000100 	andpl	r0, r0, r0, lsl #2
    11b4:	00000027 	andeq	r0, r0, r7, lsr #32
    11b8:	00000030 	andeq	r0, r0, r0, lsr r0
    11bc:	00540001 	subseq	r0, r4, r1
	...
    11cc:	e8000000 	stmda	r0, {}	; <UNPREDICTABLE>
    11d0:	00000000 	andeq	r0, r0, r0
    11d4:	01000001 	tsteq	r0, r1
    11d8:	01005000 	mrseq	r5, (UNDEF: 0)
    11dc:	01100000 	tsteq	r0, r0
    11e0:	00040000 	andeq	r0, r4, r0
    11e4:	9f5001f3 	svcls	0x005001f3
    11e8:	00000110 	andeq	r0, r0, r0, lsl r1
    11ec:	00000114 	andeq	r0, r0, r4, lsl r1
    11f0:	14500001 	ldrbne	r0, [r0], #-1
    11f4:	1c000001 	stcne	0, cr0, [r0], {1}
    11f8:	04000001 	streq	r0, [r0], #-1
    11fc:	5001f300 	andpl	pc, r1, r0, lsl #6
    1200:	0000009f 	muleq	r0, pc, r0	; <UNPREDICTABLE>
    1204:	00000000 	andeq	r0, r0, r0
    1208:	00000100 	andeq	r0, r0, r0, lsl #2
    120c:	f4000000 	vst4.8	{d0-d3}, [r0], r0
    1210:	00000000 	andeq	r0, r0, r0
    1214:	0b000001 	bleq	1220 <__code_start__-0x6de0>
    1218:	35007000 	strcc	r7, [r0, #-0]
    121c:	80b42325 	adcshi	r2, r4, r5, lsr #6
    1220:	9f028180 	svcls	0x00028180
    1224:	00000100 	andeq	r0, r0, r0, lsl #2
    1228:	00000103 	andeq	r0, r0, r3, lsl #2
    122c:	03500001 	cmpeq	r0, #1, 0
    1230:	10000001 	andne	r0, r0, r1
    1234:	0c000001 	stceq	0, cr0, [r0], {1}
    1238:	5001f300 	andpl	pc, r1, r0, lsl #6
    123c:	b4232535 	strtlt	r2, [r3], #-1333	; 0xfffffacb
    1240:	02818080 	addeq	r8, r1, #128, 0	; 0x80
    1244:	0000009f 	muleq	r0, pc, r0	; <UNPREDICTABLE>
    1248:	00000000 	andeq	r0, r0, r0
    124c:	f8000000 			; <UNDEFINED> instruction: 0xf8000000
    1250:	10000000 	andne	r0, r0, r0
    1254:	01000001 	tsteq	r0, r1
    1258:	00005400 	andeq	r5, r0, r0, lsl #8
	...
    1268:	00cc0000 	sbceq	r0, ip, r0
    126c:	00db0000 	sbcseq	r0, fp, r0
    1270:	00010000 	andeq	r0, r1, r0
    1274:	0000db50 	andeq	sp, r0, r0, asr fp
    1278:	0000e000 	andeq	lr, r0, r0
    127c:	f3000400 	vshl.u8	d0, d0, d0
    1280:	e09f5001 	adds	r5, pc, r1
    1284:	e3000000 	movw	r0, #0
    1288:	01000000 	mrseq	r0, (UNDEF: 0)
    128c:	00e35000 	rsceq	r5, r3, r0
    1290:	00e80000 	rsceq	r0, r8, r0
    1294:	00040000 	andeq	r0, r4, r0
    1298:	9f5001f3 	svcls	0x005001f3
	...
    12ac:	000000cc 	andeq	r0, r0, ip, asr #1
    12b0:	000000db 	ldrdeq	r0, [r0], -fp
    12b4:	db510001 	blle	14412c0 <__bss_end__+0x1437318>
    12b8:	e0000000 	and	r0, r0, r0
    12bc:	04000000 	streq	r0, [r0], #-0
    12c0:	5101f300 	mrspl	pc, SP_irq	; <UNPREDICTABLE>
    12c4:	0000e09f 	muleq	r0, pc, r0	; <UNPREDICTABLE>
    12c8:	0000e300 	andeq	lr, r0, r0, lsl #6
    12cc:	51000100 	mrspl	r0, (UNDEF: 16)
    12d0:	000000e3 	andeq	r0, r0, r3, ror #1
    12d4:	000000e8 	andeq	r0, r0, r8, ror #1
    12d8:	01f30004 	mvnseq	r0, r4
    12dc:	00009f51 	andeq	r9, r0, r1, asr pc
	...
    12e8:	00bc0000 	adcseq	r0, ip, r0
    12ec:	00c70000 	sbceq	r0, r7, r0
    12f0:	00010000 	andeq	r0, r1, r0
    12f4:	0000c750 	andeq	ip, r0, r0, asr r7
    12f8:	0000cc00 	andeq	ip, r0, r0, lsl #24
    12fc:	f3000400 	vshl.u8	d0, d0, d0
    1300:	009f5001 	addseq	r5, pc, r1
	...
    130c:	98000000 	stmdals	r0, {}	; <UNPREDICTABLE>
    1310:	b0000000 	andlt	r0, r0, r0
    1314:	01000000 	mrseq	r0, (UNDEF: 0)
    1318:	00b05000 	adcseq	r5, r0, r0
    131c:	00bc0000 	adcseq	r0, ip, r0
    1320:	00040000 	andeq	r0, r4, r0
    1324:	9f5001f3 	svcls	0x005001f3
	...
    1334:	00000074 	andeq	r0, r0, r4, ror r0
    1338:	0000008c 	andeq	r0, r0, ip, lsl #1
    133c:	8c500001 	mrrchi	0, 0, r0, r0, cr1	; <UNPREDICTABLE>
    1340:	98000000 	stmdals	r0, {}	; <UNPREDICTABLE>
    1344:	04000000 	streq	r0, [r0], #-0
    1348:	5001f300 	andpl	pc, r1, r0, lsl #6
    134c:	0000009f 	muleq	r0, pc, r0	; <UNPREDICTABLE>
	...
    1358:	00006400 	andeq	r6, r0, r0, lsl #8
    135c:	00006f00 	andeq	r6, r0, r0, lsl #30
    1360:	50000100 	andpl	r0, r0, r0, lsl #2
    1364:	0000006f 	andeq	r0, r0, pc, rrx
    1368:	00000074 	andeq	r0, r0, r4, ror r0
    136c:	01f30004 	mvnseq	r0, r4
    1370:	00009f50 	andeq	r9, r0, r0, asr pc
	...
    1380:	00380000 	eorseq	r0, r8, r0
    1384:	00010000 	andeq	r0, r1, r0
    1388:	00003850 	andeq	r3, r0, r0, asr r8
    138c:	00006400 	andeq	r6, r0, r0, lsl #8
    1390:	f3000400 	vshl.u8	d0, d0, d0
    1394:	009f5001 	addseq	r5, pc, r1
	...
    13a4:	47000000 	strmi	r0, [r0, -r0]
    13a8:	01000000 	mrseq	r0, (UNDEF: 0)
    13ac:	00475100 	subeq	r5, r7, r0, lsl #2
    13b0:	00640000 	rsbeq	r0, r4, r0
    13b4:	00040000 	andeq	r0, r4, r0
    13b8:	9f5101f3 	svcls	0x005101f3
	...
    13c4:	00340000 	eorseq	r0, r4, r0
    13c8:	00640000 	rsbeq	r0, r4, r0
    13cc:	00010000 	andeq	r0, r1, r0
    13d0:	00000054 	andeq	r0, r0, r4, asr r0
    13d4:	00000000 	andeq	r0, r0, r0
    13d8:	40000000 	andmi	r0, r0, r0
    13dc:	64000000 	strvs	r0, [r0], #-0
    13e0:	01000000 	mrseq	r0, (UNDEF: 0)
    13e4:	00005600 	andeq	r5, r0, r0, lsl #12
	...
    13f0:	00010100 	andeq	r0, r1, r0, lsl #2
    13f4:	00480000 	subeq	r0, r8, r0
    13f8:	00500000 	subseq	r0, r0, r0
    13fc:	00010000 	andeq	r0, r1, r0
    1400:	00005050 	andeq	r5, r0, r0, asr r0
    1404:	00005000 	andeq	r5, r0, r0
    1408:	51000100 	mrspl	r0, (UNDEF: 16)
    140c:	00000050 	andeq	r0, r0, r0, asr r0
    1410:	00000054 	andeq	r0, r0, r4, asr r0
    1414:	00750009 	rsbseq	r0, r5, r9
    1418:	71240074 			; <UNDEFINED> instruction: 0x71240074
    141c:	549f2100 	ldrpl	r2, [pc], #256	; 1424 <__code_start__-0x6bdc>
    1420:	5b000000 	blpl	1428 <__code_start__-0x6bd8>
    1424:	01000000 	mrseq	r0, (UNDEF: 0)
    1428:	00005100 	andeq	r5, r0, r0, lsl #2
	...
    1434:	01580000 	cmpeq	r8, r0
    1438:	01630000 	cmneq	r3, r0
    143c:	00010000 	andeq	r0, r1, r0
    1440:	00016350 	andeq	r6, r1, r0, asr r3
    1444:	00018800 	andeq	r8, r1, r0, lsl #16
    1448:	54000100 	strpl	r0, [r0], #-256	; 0xffffff00
	...
    1454:	01480000 	mrseq	r0, (UNDEF: 72)
    1458:	01580000 	cmpeq	r8, r0
    145c:	00010000 	andeq	r0, r1, r0
    1460:	00000054 	andeq	r0, r0, r4, asr r0
	...
    1470:	00000f00 	andeq	r0, r0, r0, lsl #30
    1474:	50000100 	andpl	r0, r0, r0, lsl #2
    1478:	0000000f 	andeq	r0, r0, pc
    147c:	00000020 	andeq	r0, r0, r0, lsr #32
    1480:	00540001 	subseq	r0, r4, r1
	...
    1490:	0f000000 	svceq	0x00000000
    1494:	01000000 	mrseq	r0, (UNDEF: 0)
    1498:	000f5100 	andeq	r5, pc, r0, lsl #2
    149c:	00200000 	eoreq	r0, r0, r0
    14a0:	00010000 	andeq	r0, r1, r0
    14a4:	00000055 	andeq	r0, r0, r5, asr r0
	...
    14b0:	00002000 	andeq	r2, r0, r0
    14b4:	00002f00 	andeq	r2, r0, r0, lsl #30
    14b8:	50000100 	andpl	r0, r0, r0, lsl #2
    14bc:	0000002f 	andeq	r0, r0, pc, lsr #32
    14c0:	00000040 	andeq	r0, r0, r0, asr #32
    14c4:	00540001 	subseq	r0, r4, r1
	...
    14d0:	20000000 	andcs	r0, r0, r0
    14d4:	2f000000 	svccs	0x00000000
    14d8:	01000000 	mrseq	r0, (UNDEF: 0)
    14dc:	002f5100 	eoreq	r5, pc, r0, lsl #2
    14e0:	00400000 	subeq	r0, r0, r0
    14e4:	00010000 	andeq	r0, r1, r0
    14e8:	00000055 	andeq	r0, r0, r5, asr r0
	...
    14f8:	00000b00 	andeq	r0, r0, r0, lsl #22
    14fc:	50000100 	andpl	r0, r0, r0, lsl #2
    1500:	0000000b 	andeq	r0, r0, fp
    1504:	00000014 	andeq	r0, r0, r4, lsl r0
    1508:	00540001 	subseq	r0, r4, r1
	...
    1518:	1c000000 	stcne	0, cr0, [r0], {-0}
    151c:	01000000 	mrseq	r0, (UNDEF: 0)
    1520:	001c5100 	andseq	r5, ip, r0, lsl #2
    1524:	00340000 	eorseq	r0, r4, r0
    1528:	00040000 	andeq	r0, r4, r0
    152c:	9f5101f3 	svcls	0x005101f3
	...
    1538:	00000002 	andeq	r0, r0, r2
    153c:	00010100 	andeq	r0, r1, r0, lsl #2
    1540:	00000000 	andeq	r0, r0, r0
    1544:	00040000 	andeq	r0, r4, r0
    1548:	00010000 	andeq	r0, r1, r0
    154c:	00000450 	andeq	r0, r0, r0, asr r4
    1550:	00001c00 	andeq	r1, r0, r0, lsl #24
    1554:	52000100 	andpl	r0, r0, #0
    1558:	0000001c 	andeq	r0, r0, ip, lsl r0
    155c:	00000024 	andeq	r0, r0, r4, lsr #32
    1560:	24530001 	ldrbcs	r0, [r3], #-1
    1564:	28000000 	stmdacs	r0, {}	; <UNPREDICTABLE>
    1568:	03000000 	movweq	r0, #0
    156c:	9f017300 	svcls	0x00017300
    1570:	00000028 	andeq	r0, r0, r8, lsr #32
    1574:	00000034 	andeq	r0, r0, r4, lsr r0
    1578:	00530001 	subseq	r0, r3, r1
    157c:	00000000 	andeq	r0, r0, r0
    1580:	03000000 	movweq	r0, #0
    1584:	00000000 	andeq	r0, r0, r0
    1588:	24000000 	strcs	r0, [r0], #-0
    158c:	01000000 	mrseq	r0, (UNDEF: 0)
    1590:	00245100 	eoreq	r5, r4, r0, lsl #2
    1594:	00340000 	eorseq	r0, r4, r0
    1598:	00030000 	andeq	r0, r3, r0
    159c:	009f7f71 	addseq	r7, pc, r1, ror pc	; <UNPREDICTABLE>
	...
    15a8:	10000000 	andne	r0, r0, r0
    15ac:	1c000000 	stcne	0, cr0, [r0], {-0}
    15b0:	01000000 	mrseq	r0, (UNDEF: 0)
    15b4:	00245c00 	eoreq	r5, r4, r0, lsl #24
    15b8:	00340000 	eorseq	r0, r4, r0
    15bc:	00010000 	andeq	r0, r1, r0
    15c0:	00000052 	andeq	r0, r0, r2, asr r0
	...
    15d0:	00001800 	andeq	r1, r0, r0, lsl #16
    15d4:	50000100 	andpl	r0, r0, r0, lsl #2
    15d8:	00000018 	andeq	r0, r0, r8, lsl r0
    15dc:	00000024 	andeq	r0, r0, r4, lsr #32
    15e0:	00500001 	subseq	r0, r0, r1
	...
    15f0:	1c000000 	stcne	0, cr0, [r0], {-0}
    15f4:	01000000 	mrseq	r0, (UNDEF: 0)
    15f8:	001c5100 	andseq	r5, ip, r0, lsl #2
    15fc:	002c0000 	eoreq	r0, ip, r0
    1600:	00010000 	andeq	r0, r1, r0
    1604:	00000051 	andeq	r0, r0, r1, asr r0
	...
    1614:	04000000 	streq	r0, [r0], #-0
    1618:	01000000 	mrseq	r0, (UNDEF: 0)
    161c:	00045100 	andeq	r5, r4, r0, lsl #2
    1620:	000c0000 	andeq	r0, ip, r0
    1624:	00010000 	andeq	r0, r1, r0
    1628:	00000c51 	andeq	r0, r0, r1, asr ip
    162c:	00002000 	andeq	r2, r0, r0
    1630:	71000300 	mrsvc	r0, LR_irq
    1634:	00009f7f 	andeq	r9, r0, pc, ror pc
    1638:	00000000 	andeq	r0, r0, r0
    163c:	00020000 	andeq	r0, r2, r0
	...
    1648:	00000004 	andeq	r0, r0, r4
    164c:	04500001 	ldrbeq	r0, [r0], #-1
    1650:	14000000 	strne	r0, [r0], #-0
    1654:	01000000 	mrseq	r0, (UNDEF: 0)
    1658:	00145c00 	andseq	r5, r4, r0, lsl #24
    165c:	00200000 	eoreq	r0, r0, r0
    1660:	00030000 	andeq	r0, r3, r0
    1664:	009f7f7c 	addseq	r7, pc, ip, ror pc	; <UNPREDICTABLE>
	...
    1670:	28000303 	stmdacs	r0, {r0, r1, r8, r9}
    1674:	28000097 	stmdacs	r0, {r0, r1, r2, r4, r7}
    1678:	01000097 	swpeq	r0, r7, [r0]	; <UNPREDICTABLE>
    167c:	97285000 	strls	r5, [r8, -r0]!
    1680:	97540000 	ldrbls	r0, [r4, -r0]
    1684:	00040000 	andeq	r0, r4, r0
    1688:	9f5001f3 	svcls	0x005001f3
	...
    1694:	00030300 	andeq	r0, r3, r0, lsl #6
    1698:	00009728 	andeq	r9, r0, r8, lsr #14
    169c:	00009728 	andeq	r9, r0, r8, lsr #14
    16a0:	28510001 	ldmdacs	r1, {r0}^
    16a4:	54000097 	strpl	r0, [r0], #-151	; 0xffffff69
    16a8:	04000097 	streq	r0, [r0], #-151	; 0xffffff69
    16ac:	5101f300 	mrspl	pc, SP_irq	; <UNPREDICTABLE>
    16b0:	0000009f 	muleq	r0, pc, r0	; <UNPREDICTABLE>
    16b4:	00000000 	andeq	r0, r0, r0
    16b8:	03030000 	movweq	r0, #12288	; 0x3000
    16bc:	28000000 	stmdacs	r0, {}	; <UNPREDICTABLE>
    16c0:	28000097 	stmdacs	r0, {r0, r1, r2, r4, r7}
    16c4:	01000097 	swpeq	r0, r7, [r0]	; <UNPREDICTABLE>
    16c8:	97285200 	strls	r5, [r8, -r0, lsl #4]!
    16cc:	97300000 	ldrls	r0, [r0, -r0]!
    16d0:	00010000 	andeq	r0, r1, r0
    16d4:	00973052 	addseq	r3, r7, r2, asr r0
    16d8:	00975400 	addseq	r5, r7, r0, lsl #8
    16dc:	72000300 	andvc	r0, r0, #0, 6
    16e0:	00009f01 	andeq	r9, r0, r1, lsl #30
    16e4:	00000000 	andeq	r0, r0, r0
    16e8:	01020000 	mrseq	r0, (UNDEF: 2)
    16ec:	00000001 	andeq	r0, r0, r1
    16f0:	97280000 	strls	r0, [r8, -r0]!
    16f4:	97340000 	ldrls	r0, [r4, -r0]!
    16f8:	00010000 	andeq	r0, r1, r0
    16fc:	00973450 	addseq	r3, r7, r0, asr r4
    1700:	00973800 	addseq	r3, r7, r0, lsl #16
    1704:	70000300 	andvc	r0, r0, r0, lsl #6
    1708:	97389f01 	ldrls	r9, [r8, -r1, lsl #30]!
    170c:	97480000 	strbls	r0, [r8, -r0]
    1710:	00010000 	andeq	r0, r1, r0
    1714:	00974c50 	addseq	r4, r7, r0, asr ip
    1718:	00975000 	addseq	r5, r7, r0
    171c:	50000100 	andpl	r0, r0, r0, lsl #2
	...
    1728:	00000002 	andeq	r0, r0, r2
    172c:	97280000 	strls	r0, [r8, -r0]!
    1730:	97380000 	ldrls	r0, [r8, -r0]!
    1734:	00010000 	andeq	r0, r1, r0
    1738:	00973851 	addseq	r3, r7, r1, asr r8
    173c:	00973c00 	addseq	r3, r7, r0, lsl #24
    1740:	71000300 	mrsvc	r0, LR_irq
    1744:	973c9f01 	ldrls	r9, [ip, -r1, lsl #30]!
    1748:	97540000 	ldrbls	r0, [r4, -r0]
    174c:	00010000 	andeq	r0, r1, r0
    1750:	00000051 	andeq	r0, r0, r1, asr r0
    1754:	00000000 	andeq	r0, r0, r0
	...

Disassembly of section .debug_aranges:

00000000 <.debug_aranges>:
   0:	0000001c 	andeq	r0, r0, ip, lsl r0
   4:	00000002 	andeq	r0, r0, r2
   8:	00040000 	andeq	r0, r4, r0
   c:	00000000 	andeq	r0, r0, r0
  10:	000080d8 	ldrdeq	r8, [r0], -r8	; <UNPREDICTABLE>
  14:	00000048 	andeq	r0, r0, r8, asr #32
	...
  20:	0000001c 	andeq	r0, r0, ip, lsl r0
  24:	01d10002 	bicseq	r0, r1, r2
  28:	00040000 	andeq	r0, r4, r0
  2c:	00000000 	andeq	r0, r0, r0
  30:	00008120 	andeq	r8, r0, r0, lsr #2
  34:	00000374 	andeq	r0, r0, r4, ror r3
	...
  40:	0000001c 	andeq	r0, r0, ip, lsl r0
  44:	0d6e0002 	stcleq	0, cr0, [lr, #-8]!
  48:	00040000 	andeq	r0, r4, r0
  4c:	00000000 	andeq	r0, r0, r0
  50:	00008494 	muleq	r0, r4, r4
  54:	00000578 	andeq	r0, r0, r8, ror r5
	...
  60:	0000001c 	andeq	r0, r0, ip, lsl r0
  64:	21480002 	cmpcs	r8, r2
  68:	00040000 	andeq	r0, r4, r0
  6c:	00000000 	andeq	r0, r0, r0
  70:	00008a0c 	andeq	r8, r0, ip, lsl #20
  74:	00000058 	andeq	r0, r0, r8, asr r0
	...
  80:	0000001c 	andeq	r0, r0, ip, lsl r0
  84:	22e90002 	rsccs	r0, r9, #2, 0
  88:	00040000 	andeq	r0, r4, r0
  8c:	00000000 	andeq	r0, r0, r0
  90:	00008a64 	andeq	r8, r0, r4, ror #20
  94:	00000034 	andeq	r0, r0, r4, lsr r0
	...
  a0:	0000001c 	andeq	r0, r0, ip, lsl r0
  a4:	23e00002 	mvncs	r0, #2, 0
  a8:	00040000 	andeq	r0, r4, r0
  ac:	00000000 	andeq	r0, r0, r0
  b0:	00008a98 	muleq	r0, r8, sl
  b4:	00000740 	andeq	r0, r0, r0, asr #14
	...
  c0:	0000001c 	andeq	r0, r0, ip, lsl r0
  c4:	2ebb0002 	cdpcs	0, 11, cr0, cr11, cr2, {0}
  c8:	00040000 	andeq	r0, r4, r0
  cc:	00000000 	andeq	r0, r0, r0
  d0:	000091d8 	ldrdeq	r9, [r0], -r8
  d4:	0000002c 	andeq	r0, r0, ip, lsr #32
	...
  e0:	0000001c 	andeq	r0, r0, ip, lsl r0
  e4:	2fee0002 	svccs	0x00ee0002
  e8:	00040000 	andeq	r0, r4, r0
  ec:	00000000 	andeq	r0, r0, r0
  f0:	00009204 	andeq	r9, r0, r4, lsl #4
  f4:	0000003c 	andeq	r0, r0, ip, lsr r0
	...
 100:	0000001c 	andeq	r0, r0, ip, lsl r0
 104:	317b0002 	cmncc	fp, r2
 108:	00040000 	andeq	r0, r4, r0
 10c:	00000000 	andeq	r0, r0, r0
 110:	00009240 	andeq	r9, r0, r0, asr #4
 114:	00000004 	andeq	r0, r0, r4
	...
 120:	0000001c 	andeq	r0, r0, ip, lsl r0
 124:	324d0002 	subcc	r0, sp, #2, 0
 128:	00040000 	andeq	r0, r4, r0
 12c:	00000000 	andeq	r0, r0, r0
 130:	0000925c 	andeq	r9, r0, ip, asr r2
 134:	00000080 	andeq	r0, r0, r0, lsl #1
	...
 140:	0000001c 	andeq	r0, r0, ip, lsl r0
 144:	34870002 	strcc	r0, [r7], #2
 148:	00040000 	andeq	r0, r4, r0
 14c:	00000000 	andeq	r0, r0, r0
 150:	000092dc 	ldrdeq	r9, [r0], -ip
 154:	00000084 	andeq	r0, r0, r4, lsl #1
	...
 160:	0000001c 	andeq	r0, r0, ip, lsl r0
 164:	36d80002 	ldrbcc	r0, [r8], r2
 168:	00040000 	andeq	r0, r4, r0
 16c:	00000000 	andeq	r0, r0, r0
 170:	00009360 	andeq	r9, r0, r0, ror #6
 174:	0000011c 	andeq	r0, r0, ip, lsl r1
	...
 180:	0000001c 	andeq	r0, r0, ip, lsl r0
 184:	3a810002 	bcc	fe040194 <__bss_end__+0xfe0361ec>
 188:	00040000 	andeq	r0, r4, r0
 18c:	00000000 	andeq	r0, r0, r0
 190:	0000947c 	andeq	r9, r0, ip, ror r4
 194:	000001f0 	strdeq	r0, [r0], -r0	; <UNPREDICTABLE>
	...
 1a0:	0000001c 	andeq	r0, r0, ip, lsl r0
 1a4:	40520002 	subsmi	r0, r2, r2
 1a8:	00040000 	andeq	r0, r4, r0
 1ac:	00000000 	andeq	r0, r0, r0
 1b0:	0000966c 	andeq	r9, r0, ip, ror #12
 1b4:	0000003c 	andeq	r0, r0, ip, lsr r0
	...
 1c0:	0000001c 	andeq	r0, r0, ip, lsl r0
 1c4:	419f0002 	orrsmi	r0, pc, r2
 1c8:	00040000 	andeq	r0, r4, r0
 1cc:	00000000 	andeq	r0, r0, r0
 1d0:	000096a8 	andeq	r9, r0, r8, lsr #13
 1d4:	00000034 	andeq	r0, r0, r4, lsr r0
	...
 1e0:	0000001c 	andeq	r0, r0, ip, lsl r0
 1e4:	42da0002 	sbcsmi	r0, sl, #2, 0
 1e8:	00040000 	andeq	r0, r4, r0
 1ec:	00000000 	andeq	r0, r0, r0
 1f0:	000096dc 	ldrdeq	r9, [r0], -ip
 1f4:	0000002c 	andeq	r0, r0, ip, lsr #32
	...
 200:	0000001c 	andeq	r0, r0, ip, lsl r0
 204:	43d50002 	bicsmi	r0, r5, #2, 0
 208:	00040000 	andeq	r0, r4, r0
 20c:	00000000 	andeq	r0, r0, r0
 210:	00009708 	andeq	r9, r0, r8, lsl #14
 214:	00000020 	andeq	r0, r0, r0, lsr #32
	...
 220:	0000001c 	andeq	r0, r0, ip, lsl r0
 224:	44e80002 	strbtmi	r0, [r8], #2
 228:	00040000 	andeq	r0, r4, r0
 22c:	00000000 	andeq	r0, r0, r0
 230:	00009728 	andeq	r9, r0, r8, lsr #14
 234:	0000002c 	andeq	r0, r0, ip, lsr #32
	...
 240:	0000001c 	andeq	r0, r0, ip, lsl r0
 244:	463a0002 	ldrtmi	r0, [sl], -r2
 248:	00040000 	andeq	r0, r4, r0
 24c:	00000000 	andeq	r0, r0, r0
 250:	00009754 	andeq	r9, r0, r4, asr r7
 254:	00000004 	andeq	r0, r0, r4
	...

Disassembly of section .debug_line:

00000000 <.debug_line>:
       0:	000000ff 	strdeq	r0, [r0], -pc	; <UNPREDICTABLE>
       4:	00810003 	addeq	r0, r1, r3
       8:	01020000 	mrseq	r0, (UNDEF: 2)
       c:	000d0efb 	strdeq	r0, [sp], -fp
      10:	01010101 	tsteq	r1, r1, lsl #2
      14:	01000000 	mrseq	r0, (UNDEF: 0)
      18:	2f010000 	svccs	0x00010000
      1c:	72657355 	rsbvc	r7, r5, #1409286145	; 0x54000001
      20:	616a2f73 	smcvs	41715	; 0xa2f3
      24:	2f65696d 	svccs	0x0065696d
      28:	75636f44 	strbvc	r6, [r3, #-3908]!	; 0xfffff0bc
      2c:	746e656d 	strbtvc	r6, [lr], #-1389	; 0xfffffa93
      30:	53432f73 	movtpl	r2, #16243	; 0x3f73
      34:	45303431 	ldrmi	r3, [r0, #-1073]!	; 0xfffffbcf
      38:	3173632f 	cmncc	r3, pc, lsr #6
      3c:	2d453034 	stclcs	0, cr3, [r5, #-208]	; 0xffffff30
      40:	616e6966 	cmnvs	lr, r6, ror #18
      44:	72702d6c 	rsbsvc	r2, r0, #108, 26	; 0x1b00
      48:	63656a6f 	cmnvs	r5, #454656	; 0x6f000
      4c:	696c2f74 	stmdbvs	ip!, {r2, r4, r5, r6, r8, r9, sl, fp, sp}^
      50:	322d7362 	eorcc	r7, sp, #-2013265919	; 0x88000001
      54:	786c3034 	stmdavc	ip!, {r2, r4, r5, ip, sp}^
      58:	62696c2f 	rsbvs	r6, r9, #12032	; 0x2f00
      5c:	692f6970 	stmdbvs	pc!, {r4, r5, r6, r8, fp, sp, lr}	; <UNPREDICTABLE>
      60:	756c636e 	strbvc	r6, [ip, #-878]!	; 0xfffffc92
      64:	00006564 	andeq	r6, r0, r4, ror #10
      68:	76697264 	strbtvc	r7, [r9], -r4, ror #4
      6c:	632e7265 			; <UNDEFINED> instruction: 0x632e7265
      70:	00000000 	andeq	r0, r0, r0
      74:	2e697072 	mcrcs	0, 3, r7, cr9, cr2, {3}
      78:	00010068 	andeq	r0, r1, r8, rrx
      7c:	73646100 	cmnvc	r4, #0
      80:	35313131 	ldrcc	r3, [r1, #-305]!	; 0xfffffecf
      84:	0000682e 	andeq	r6, r0, lr, lsr #16
      88:	05000000 	streq	r0, [r0, #-0]
      8c:	02050014 	andeq	r0, r5, #20, 0
      90:	000080d8 	ldrdeq	r8, [r0], -r8	; <UNPREDICTABLE>
      94:	05011003 	streq	r1, [r1, #-3]
      98:	19052f05 	stmdbne	r5, {r0, r2, r8, r9, sl, fp, sp}
      9c:	02050106 	andeq	r0, r5, #-2147483647	; 0x80000001
      a0:	4a0a0306 	bmi	280cc0 <__bss_end__+0x276d18>
      a4:	05010605 	streq	r0, [r1, #-1541]	; 0xfffff9fb
      a8:	0501060a 	streq	r0, [r1, #-1546]	; 0xfffff9f6
      ac:	04020011 	streq	r0, [r2], #-17	; 0xffffffef
      b0:	052e0601 	streq	r0, [lr, #-1537]!	; 0xfffff9ff
      b4:	04020002 	streq	r0, [r2], #-2
      b8:	05010601 	streq	r0, [r1, #-1537]	; 0xfffff9ff
      bc:	04020009 	streq	r0, [r2], #-9
      c0:	054b0603 	strbeq	r0, [fp, #-1539]	; 0xfffff9fd
      c4:	04020013 	streq	r0, [r2], #-19	; 0xffffffed
      c8:	05010603 	streq	r0, [r1, #-1539]	; 0xfffff9fd
      cc:	04020009 	streq	r0, [r2], #-9
      d0:	00670603 	rsbeq	r0, r7, r3, lsl #12
      d4:	06030402 	streq	r0, [r3], -r2, lsl #8
      d8:	0003054a 	andeq	r0, r3, sl, asr #10
      dc:	06030402 	streq	r0, [r3], -r2, lsl #8
      e0:	0019052f 	andseq	r0, r9, pc, lsr #10
      e4:	47030402 	strmi	r0, [r3, -r2, lsl #8]
      e8:	02001a05 	andeq	r1, r0, #20480	; 0x5000
      ec:	01060304 	tsteq	r6, r4, lsl #6
      f0:	03040200 	movweq	r0, #16896	; 0x4200
      f4:	0402002e 	streq	r0, [r2], #-46	; 0xffffffd2
      f8:	02052e03 	andeq	r2, r5, #3, 28	; 0x30
      fc:	04021706 	streq	r1, [r2], #-1798	; 0xfffff8fa
     100:	00010100 	andeq	r0, r1, r0, lsl #2
     104:	03000005 	movweq	r0, #5
     108:	00010e00 	andeq	r0, r1, r0, lsl #28
     10c:	fb010200 	blx	40916 <__bss_end__+0x3696e>
     110:	01000d0e 	tsteq	r0, lr, lsl #26
     114:	00010101 	andeq	r0, r1, r1, lsl #2
     118:	00010000 	andeq	r0, r1, r0
     11c:	682f0100 	stmdavs	pc!, {r8}	; <UNPREDICTABLE>
     120:	2f656d6f 	svccs	0x00656d6f
     124:	6c676e65 	stclvs	14, cr6, [r7], #-404	; 0xfffffe6c
     128:	632f7265 			; <UNDEFINED> instruction: 0x632f7265
     12c:	7373616c 	cmnvc	r3, #27
     130:	3473632f 	ldrbtcc	r6, [r3], #-815	; 0xfffffcd1
     134:	322d6e39 	eorcc	r6, sp, #912	; 0x390
     138:	74756131 	ldrbtvc	r6, [r5], #-305	; 0xfffffecf
     13c:	696c2f2f 	stmdbvs	ip!, {r0, r1, r2, r3, r5, r8, r9, sl, fp, sp}^
     140:	2f697062 	svccs	0x00697062
     144:	6362696c 	cmnvs	r2, #108, 18	; 0x1b0000
     148:	73752f00 	cmnvc	r5, #0, 30
     14c:	68732f72 	ldmdavs	r3!, {r1, r4, r5, r6, r8, r9, sl, fp, sp}^
     150:	2f657261 	svccs	0x00657261
     154:	2d636367 	stclcs	3, cr6, [r3, #-412]!	; 0xfffffe64
     158:	2d6d7261 	sfmcs	f7, 2, [sp, #-388]!	; 0xfffffe7c
     15c:	656e6f6e 	strbvs	r6, [lr, #-3950]!	; 0xfffff092
     160:	6261652d 	rsbvs	r6, r1, #188743680	; 0xb400000
     164:	30312d69 	eorscc	r2, r1, r9, ror #26
     168:	322d332e 	eorcc	r3, sp, #-1207959552	; 0xb8000000
     16c:	2e313230 	mrccs	2, 1, r3, cr1, cr0, {1}
     170:	6c2f3031 	stcvs	0, cr3, [pc], #-196	; b4 <__code_start__-0x7f4c>
     174:	672f6269 	strvs	r6, [pc, -r9, ror #4]!
     178:	612f6363 			; <UNDEFINED> instruction: 0x612f6363
     17c:	6e2d6d72 	mcrvs	13, 1, r6, cr13, cr2, {3}
     180:	2d656e6f 	stclcs	14, cr6, [r5, #-444]!	; 0xfffffe44
     184:	69626165 	stmdbvs	r2!, {r0, r2, r5, r6, r8, sp, lr}^
     188:	2e30312f 	rsfcssp	f3, f0, #10.0
     18c:	2f312e33 	svccs	0x00312e33
     190:	6c636e69 	stclvs	14, cr6, [r3], #-420	; 0xfffffe5c
     194:	00656475 	rsbeq	r6, r5, r5, ror r4
     198:	6d6f682f 	stclvs	8, cr6, [pc, #-188]!	; e4 <__code_start__-0x7f1c>
     19c:	6e652f65 	cdpvs	15, 6, cr2, cr5, cr5, {3}
     1a0:	72656c67 	rsbvc	r6, r5, #26368	; 0x6700
     1a4:	616c632f 	cmnvs	ip, pc, lsr #6
     1a8:	632f7373 			; <UNDEFINED> instruction: 0x632f7373
     1ac:	6e393473 	mrcvs	4, 1, r3, cr9, cr3, {3}
     1b0:	6131322d 	teqvs	r1, sp, lsr #4
     1b4:	2f2f7475 	svccs	0x002f7475
     1b8:	7062696c 	rsbvc	r6, r2, ip, ror #18
     1bc:	6e692f69 	cdpvs	15, 6, cr2, cr9, cr9, {3}
     1c0:	64756c63 	ldrbtvs	r6, [r5], #-3171	; 0xfffff39d
     1c4:	73000065 	movwvc	r0, #101	; 0x65
     1c8:	66666174 			; <UNDEFINED> instruction: 0x66666174
     1cc:	7364612d 	cmnvc	r4, #1073741835	; 0x4000000b
     1d0:	35313131 	ldrcc	r3, [r1, #-305]!	; 0xfffffecf
     1d4:	0000632e 	andeq	r6, r0, lr, lsr #6
     1d8:	69620000 	stmdbvs	r2!, {}^	; <UNPREDICTABLE>
     1dc:	75732d74 	ldrbvc	r2, [r3, #-3444]!	; 0xfffff28c
     1e0:	726f7070 	rsbvc	r7, pc, #112, 0	; 0x70
     1e4:	00682e74 	rsbeq	r2, r8, r4, ror lr
     1e8:	73000001 	movwvc	r0, #1
     1ec:	6e696474 	mcrvs	4, 3, r6, cr9, cr4, {3}
     1f0:	63672d74 	cmnvs	r7, #116, 26	; 0x1d00
     1f4:	00682e63 	rsbeq	r2, r8, r3, ror #28
     1f8:	61000002 	tstvs	r0, r2
     1fc:	31317364 	teqcc	r1, r4, ror #6
     200:	682e3531 	stmdavs	lr!, {r0, r4, r5, r8, sl, ip, sp}
     204:	00000000 	andeq	r0, r0, r0
     208:	2e697072 	mcrcs	0, 3, r7, cr9, cr2, {3}
     20c:	00030068 	andeq	r0, r3, r8, rrx
     210:	63326900 	teqvs	r2, #0, 18
     214:	0000682e 	andeq	r6, r0, lr, lsr #16
     218:	05000000 	streq	r0, [r0, #-0]
     21c:	02050031 	andeq	r0, r5, #49, 0	; 0x31
     220:	00008120 	andeq	r8, r0, r0, lsr #2
     224:	06011603 	streq	r1, [r1], -r3, lsl #12
     228:	06050501 	streq	r0, [r5], -r1, lsl #10
     22c:	2e2e064b 	cfmadda32cs	mvax2, mvax0, mvfx14, mvfx11
     230:	02042f06 	andeq	r2, r4, #6, 30
     234:	05170105 	ldreq	r0, [r7, #-261]	; 0xfffffefb
     238:	01011305 	tsteq	r1, r5, lsl #6
     23c:	0f051301 	svceq	0x00051301
     240:	042e0106 	strteq	r0, [lr], #-262	; 0xfffffefa
     244:	03050501 	movweq	r0, #21761	; 0x5501
     248:	67060179 	smlsdxvs	r6, r9, r1, r0
     24c:	01050204 	tsteq	r5, r4, lsl #4
     250:	05011f03 	streq	r1, [r1, #-3843]	; 0xfffff0fd
     254:	01011305 	tsteq	r1, r5, lsl #6
     258:	01011301 	tsteq	r1, r1, lsl #6
     25c:	0f051301 	svceq	0x00051301
     260:	052e0106 	streq	r0, [lr, #-262]!	; 0xfffffefa
     264:	75030605 	strvc	r0, [r3, #-1541]	; 0xfffff9fb
     268:	01011401 	tsteq	r1, r1, lsl #8
     26c:	01041301 	tsteq	r4, r1, lsl #6
     270:	01660306 	cmneq	r6, r6, lsl #6
     274:	02046706 	andeq	r6, r4, #1572864	; 0x180000
     278:	1e030105 	adfnes	f0, f3, f5
     27c:	13050501 	movwne	r0, #21761	; 0x5501
     280:	13010101 	movwne	r0, #4353	; 0x1101
     284:	13010101 	movwne	r0, #4353	; 0x1101
     288:	01060f05 	tsteq	r6, r5, lsl #30
     28c:	0605052e 	streq	r0, [r5], -lr, lsr #10
     290:	14017503 	strne	r7, [r1], #-1283	; 0xfffffafd
     294:	13010101 	movwne	r0, #4353	; 0x1101
     298:	03060104 	movweq	r0, #24836	; 0x6104
     29c:	67060167 	strvs	r0, [r6, -r7, ror #2]
     2a0:	01050204 	tsteq	r5, r4, lsl #4
     2a4:	13050514 	movwne	r0, #21780	; 0x5514
     2a8:	13010101 	movwne	r0, #4353	; 0x1101
     2ac:	01060f05 	tsteq	r6, r5, lsl #30
     2b0:	0501042e 	streq	r0, [r1, #-1070]	; 0xfffffbd2
     2b4:	67060e05 	strvs	r0, [r6, -r5, lsl #28]
     2b8:	01050204 	tsteq	r5, r4, lsl #4
     2bc:	05011c03 	streq	r1, [r1, #-3075]	; 0xfffff3fd
     2c0:	01011305 	tsteq	r1, r5, lsl #6
     2c4:	01011301 	tsteq	r1, r1, lsl #6
     2c8:	0f051301 	svceq	0x00051301
     2cc:	052e0106 	streq	r0, [lr, #-262]!	; 0xfffffefa
     2d0:	75030605 	strvc	r0, [r3, #-1541]	; 0xfffff9fb
     2d4:	01011401 	tsteq	r1, r1, lsl #8
     2d8:	01041301 	tsteq	r4, r1, lsl #6
     2dc:	01690306 	cmneq	r9, r6, lsl #6
     2e0:	02046706 	andeq	r6, r4, #1572864	; 0x180000
     2e4:	05010105 	streq	r0, [r1, #-261]	; 0xfffffefb
     2e8:	01011305 	tsteq	r1, r5, lsl #6
     2ec:	0f051301 	svceq	0x00051301
     2f0:	042e0106 	strteq	r0, [lr], #-262	; 0xfffffefa
     2f4:	10050501 	andne	r0, r5, r1, lsl #10
     2f8:	02046706 	andeq	r6, r4, #1572864	; 0x180000
     2fc:	05110105 	ldreq	r0, [r1, #-261]	; 0xfffffefb
     300:	01011305 	tsteq	r1, r5, lsl #6
     304:	0f051301 	svceq	0x00051301
     308:	042e0106 	strteq	r0, [lr], #-262	; 0xfffffefa
     30c:	11050501 	tstne	r5, r1, lsl #10
     310:	02046706 	andeq	r6, r4, #1572864	; 0x180000
     314:	05100105 	ldreq	r0, [r0, #-261]	; 0xfffffefb
     318:	01011305 	tsteq	r1, r5, lsl #6
     31c:	0f051301 	svceq	0x00051301
     320:	042e0106 	strteq	r0, [lr], #-262	; 0xfffffefa
     324:	01050501 	tsteq	r5, r1, lsl #10
     328:	02046706 	andeq	r6, r4, #1572864	; 0x180000
     32c:	18030105 	stmdane	r3, {r0, r2, r8}
     330:	13050501 	movwne	r0, #21761	; 0x5501
     334:	13010101 	movwne	r0, #4353	; 0x1101
     338:	13010101 	movwne	r0, #4353	; 0x1101
     33c:	03060106 	movweq	r0, #24838	; 0x6106
     340:	01140175 	tsteq	r4, r5, ror r1
     344:	04130101 	ldreq	r0, [r3], #-257	; 0xfffffeff
     348:	6d030601 	stcvs	6, cr0, [r3, #-4]
     34c:	67010501 	strvs	r0, [r1, -r1, lsl #10]
     350:	03061a05 	movweq	r1, #27141	; 0x6a05
     354:	05580812 	ldrbeq	r0, [r8, #-2066]	; 0xfffff7ee
     358:	0d054b05 	vstreq	d4, [r5, #-20]	; 0xffffffec
     35c:	05050106 	streq	r0, [r5, #-262]	; 0xfffffefa
     360:	01054b06 	tsteq	r5, r6, lsl #22
     364:	41058306 	tstmi	r5, r6, lsl #6
     368:	01065006 	tsteq	r6, r6
     36c:	4b060205 	blmi	180b88 <__bss_end__+0x176be0>
     370:	060a0513 			; <UNDEFINED> instruction: 0x060a0513
     374:	06020501 	streq	r0, [r2], -r1, lsl #10
     378:	060a052f 	streq	r0, [sl], -pc, lsr #10
     37c:	06020501 	streq	r0, [r2], -r1, lsl #10
     380:	060a054b 	streq	r0, [sl], -fp, asr #10
     384:	06020501 	streq	r0, [r2], -r1, lsl #10
     388:	052e062f 	streq	r0, [lr, #-1583]!	; 0xfffff9d1
     38c:	38054b01 	stmdacc	r5, {r0, r8, r9, fp, lr}
     390:	01064d06 	tsteq	r6, r6, lsl #26
     394:	83060205 	movwhi	r0, #25093	; 0x6205
     398:	14051367 	strne	r1, [r5], #-871	; 0xfffffc99
     39c:	0a050106 	beq	1407bc <__bss_end__+0x136814>
     3a0:	0602054a 	streq	r0, [r2], -sl, asr #10
     3a4:	0d05842f 	cfstrseq	mvf8, [r5, #-188]	; 0xffffff44
     3a8:	1c050106 	stfnes	f0, [r5], {6}
     3ac:	2f01052e 	svccs	0x0001052e
     3b0:	69061e05 	stmdbvs	r6, {r0, r2, r9, sl, fp, ip}
     3b4:	4b4b0505 	blmi	12c17d0 <__bss_end__+0x12b7828>
     3b8:	13034d2f 	movwne	r4, #15663	; 0x3d2f
     3bc:	02053101 	andeq	r3, r5, #1073741824	; 0x40000000
     3c0:	060f054d 	streq	r0, [pc], -sp, asr #10
     3c4:	06020501 	streq	r0, [r2], -r1, lsl #10
     3c8:	059e0683 	ldreq	r0, [lr, #1667]	; 0x683
     3cc:	6a2f0605 	bvs	bc1be8 <__bss_end__+0xbb7c40>
     3d0:	05020401 	streq	r0, [r2, #-1025]	; 0xfffffbff
     3d4:	01440301 	cmpeq	r4, r1, lsl #6
     3d8:	01130505 	tsteq	r3, r5, lsl #10
     3dc:	01130101 	tsteq	r3, r1, lsl #2
     3e0:	06130101 	ldreq	r0, [r3], -r1, lsl #2
     3e4:	75030601 	strvc	r0, [r3, #-1537]	; 0xfffff9ff
     3e8:	01011401 	tsteq	r1, r1, lsl #8
     3ec:	01041301 	tsteq	r4, r1, lsl #6
     3f0:	00c10306 	sbceq	r0, r1, r6, lsl #6
     3f4:	014a0601 	cmpeq	sl, r1, lsl #12
     3f8:	02040114 	andeq	r0, r4, #5
     3fc:	42030105 	andmi	r0, r3, #1073741825	; 0x40000001
     400:	13050501 	movwne	r0, #21761	; 0x5501
     404:	13010101 	movwne	r0, #4353	; 0x1101
     408:	13010101 	movwne	r0, #4353	; 0x1101
     40c:	01060f05 	tsteq	r6, r5, lsl #30
     410:	0605052e 	streq	r0, [r5], -lr, lsr #10
     414:	14017503 	strne	r7, [r1], #-1283	; 0xfffffafd
     418:	13010101 	movwne	r0, #4353	; 0x1101
     41c:	1a061605 	bne	185c38 <__bss_end__+0x17bc90>
     420:	0501042e 	streq	r0, [r1, #-1070]	; 0xfffffbd2
     424:	013b0305 	teqeq	fp, r5, lsl #6
     428:	14014a06 	strne	r4, [r1], #-2566	; 0xfffff5fa
     42c:	05020401 	streq	r0, [r2, #-1025]	; 0xfffffbff
     430:	01400301 	cmpeq	r0, r1, lsl #6
     434:	01130505 	tsteq	r3, r5, lsl #10
     438:	01130101 	tsteq	r3, r1, lsl #2
     43c:	05130101 	ldreq	r0, [r3, #-257]	; 0xfffffeff
     440:	2e01060f 	cfmadd32cs	mvax0, mvfx0, mvfx1, mvfx15
     444:	03060505 	movweq	r0, #25861	; 0x6505
     448:	01140175 	tsteq	r4, r5, ror r1
     44c:	05130101 	ldreq	r0, [r3, #-257]	; 0xfffffeff
     450:	2e1a0616 	mrccs	6, 0, r0, cr10, cr6, {0}
     454:	05050104 	streq	r0, [r5, #-260]	; 0xfffffefc
     458:	00013d03 	andeq	r3, r1, r3, lsl #26
     45c:	06020402 	streq	r0, [r2], -r2, lsl #8
     460:	0402004a 	streq	r0, [r2], #-74	; 0xffffffb6
     464:	02000102 	andeq	r0, r0, #-2147483648	; 0x80000000
     468:	00190204 	andseq	r0, r9, r4, lsl #4
     46c:	13020402 	movwne	r0, #9218	; 0x2402
     470:	02040200 	andeq	r0, r4, #0, 4
     474:	00020514 	andeq	r0, r2, r4, lsl r5
     478:	14020402 	strne	r0, [r2], #-1026	; 0xfffffbfe
     47c:	02000505 	andeq	r0, r0, #20971520	; 0x1400000
     480:	05830204 	streq	r0, [r3, #516]	; 0x204
     484:	04020002 	streq	r0, [r2], #-2
     488:	06058602 	streq	r8, [r5], -r2, lsl #12
     48c:	02040200 	andeq	r0, r4, #0, 4
     490:	02050106 	andeq	r0, r5, #-2147483647	; 0x80000001
     494:	02040200 	andeq	r0, r4, #0, 4
     498:	02008306 	andeq	r8, r0, #402653184	; 0x18000000
     49c:	9e060204 	cdpls	2, 0, cr0, cr6, cr4, {0}
     4a0:	02000505 	andeq	r0, r0, #20971520	; 0x1400000
     4a4:	2f060204 	svccs	0x00060204
     4a8:	02040200 	andeq	r0, r4, #0, 4
     4ac:	04020067 	streq	r0, [r2], #-103	; 0xffffff99
     4b0:	02040102 	andeq	r0, r4, #-2147483648	; 0x80000000
     4b4:	02000105 	andeq	r0, r0, #1073741825	; 0x40000001
     4b8:	ac030204 	sfmge	f0, 4, [r3], {4}
     4bc:	0505017f 	streq	r0, [r5, #-383]	; 0xfffffe81
     4c0:	02040200 	andeq	r0, r4, #0, 4
     4c4:	04020013 	streq	r0, [r2], #-19	; 0xffffffed
     4c8:	02000102 	andeq	r0, r0, #-2147483648	; 0x80000000
     4cc:	00010204 	andeq	r0, r1, r4, lsl #4
     4d0:	01020402 	tsteq	r2, r2, lsl #8
     4d4:	02040200 	andeq	r0, r4, #0, 4
     4d8:	04020013 	streq	r0, [r2], #-19	; 0xffffffed
     4dc:	02000102 	andeq	r0, r0, #-2147483648	; 0x80000000
     4e0:	00010204 	andeq	r0, r1, r4, lsl #4
     4e4:	01020402 	tsteq	r2, r2, lsl #8
     4e8:	02040200 	andeq	r0, r4, #0, 4
     4ec:	04020013 	streq	r0, [r2], #-19	; 0xffffffed
     4f0:	00010602 	andeq	r0, r1, r2, lsl #12
     4f4:	06020402 	streq	r0, [r2], -r2, lsl #8
     4f8:	00017503 	andeq	r7, r1, r3, lsl #10
     4fc:	14020402 	strne	r0, [r2], #-1026	; 0xfffffbfe
     500:	02040200 	andeq	r0, r4, #0, 4
     504:	04020001 	streq	r0, [r2], #-1
     508:	02000102 	andeq	r0, r0, #-2147483648	; 0x80000000
     50c:	00010204 	andeq	r0, r1, r4, lsl #4
     510:	13020402 	movwne	r0, #9218	; 0x2402
     514:	02000104 	andeq	r0, r0, #1
     518:	03060204 	movweq	r0, #25092	; 0x6204
     51c:	060100d9 			; <UNDEFINED> instruction: 0x060100d9
     520:	0113014a 	tsteq	r3, sl, asr #2
     524:	01050204 	tsteq	r5, r4, lsl #4
     528:	017fab03 	cmneq	pc, r3, lsl #22
     52c:	01130505 	tsteq	r3, r5, lsl #10
     530:	01130101 	tsteq	r3, r1, lsl #2
     534:	05130101 	ldreq	r0, [r3, #-257]	; 0xfffffeff
     538:	2e01060f 	cfmadd32cs	mvax0, mvfx0, mvfx1, mvfx15
     53c:	03060505 	movweq	r0, #25861	; 0x6505
     540:	01140175 	tsteq	r4, r5, ror r1
     544:	05130101 	ldreq	r0, [r3, #-257]	; 0xfffffeff
     548:	2e1a0616 	mrccs	6, 0, r0, cr10, cr6, {0}
     54c:	05050104 	streq	r0, [r5, #-260]	; 0xfffffefc
     550:	0100d203 	tsteq	r0, r3, lsl #4
     554:	13014a06 	movwne	r4, #6662	; 0x1a06
     558:	05020401 	streq	r0, [r2, #-1025]	; 0xfffffbff
     55c:	7faa0301 	svcvc	0x00aa0301
     560:	13050501 	movwne	r0, #21761	; 0x5501
     564:	13010101 	movwne	r0, #4353	; 0x1101
     568:	13010101 	movwne	r0, #4353	; 0x1101
     56c:	01060f05 	tsteq	r6, r5, lsl #30
     570:	0605052e 	streq	r0, [r5], -lr, lsr #10
     574:	14017503 	strne	r7, [r1], #-1283	; 0xfffffafd
     578:	13010101 	movwne	r0, #4353	; 0x1101
     57c:	1a061605 	bne	185d98 <__bss_end__+0x17bdf0>
     580:	0501042e 	streq	r0, [r1, #-1070]	; 0xfffffbd2
     584:	00d30305 	sbcseq	r0, r3, r5, lsl #6
     588:	04020001 	streq	r0, [r2], #-1
     58c:	004a0602 	subeq	r0, sl, r2, lsl #12
     590:	01020402 	tsteq	r2, r2, lsl #8
     594:	02040200 	andeq	r0, r4, #0, 4
     598:	00010514 	andeq	r0, r1, r4, lsl r5
     59c:	06020402 	streq	r0, [r2], -r2, lsl #8
     5a0:	00050513 	andeq	r0, r5, r3, lsl r5
     5a4:	06010402 	streq	r0, [r1], -r2, lsl #8
     5a8:	00666303 	rsbeq	r6, r6, r3, lsl #6
     5ac:	01010402 	tsteq	r1, r2, lsl #8
     5b0:	01040200 	mrseq	r0, R12_usr
     5b4:	040200d6 	streq	r0, [r2], #-214	; 0xffffff2a
     5b8:	02003001 	andeq	r3, r0, #1, 0
     5bc:	00010104 	andeq	r0, r1, r4, lsl #2
     5c0:	d6010402 	strle	r0, [r1], -r2, lsl #8
     5c4:	01040200 	mrseq	r0, R12_usr
     5c8:	04020030 	streq	r0, [r2], #-48	; 0xffffffd0
     5cc:	02000101 	andeq	r0, r0, #1073741824	; 0x40000000
     5d0:	00d60104 	sbcseq	r0, r6, r4, lsl #2
     5d4:	03010402 	movweq	r0, #5122	; 0x1402
     5d8:	02002e14 	andeq	r2, r0, #20, 28	; 0x140
     5dc:	00010104 	andeq	r0, r1, r4, lsl #2
     5e0:	d6010402 	strle	r0, [r1], -r2, lsl #8
     5e4:	01040200 	mrseq	r0, R12_usr
     5e8:	0402002f 	streq	r0, [r2], #-47	; 0xffffffd1
     5ec:	02000101 	andeq	r0, r0, #1073741824	; 0x40000000
     5f0:	00d60104 	sbcseq	r0, r6, r4, lsl #2
     5f4:	2f010402 	svccs	0x00010402
     5f8:	01040200 	mrseq	r0, R12_usr
     5fc:	04020001 	streq	r0, [r2], #-1
     600:	2002d601 	andcs	sp, r2, r1, lsl #12
     604:	63010100 	movwvs	r0, #4352	; 0x1100
     608:	03000005 	movweq	r0, #5
     60c:	0000c200 	andeq	ip, r0, r0, lsl #4
     610:	fb010200 	blx	40e1a <__bss_end__+0x36e72>
     614:	01000d0e 	tsteq	r0, lr, lsl #26
     618:	00010101 	andeq	r0, r1, r1, lsl #2
     61c:	00010000 	andeq	r0, r1, r0
     620:	752f0100 	strvc	r0, [pc, #-256]!	; 528 <__code_start__-0x7ad8>
     624:	732f7273 			; <UNDEFINED> instruction: 0x732f7273
     628:	65726168 	ldrbvs	r6, [r2, #-360]!	; 0xfffffe98
     62c:	6363672f 	cmnvs	r3, #12320768	; 0xbc0000
     630:	6d72612d 	ldfvse	f6, [r2, #-180]!	; 0xffffff4c
     634:	6e6f6e2d 	cdpvs	14, 6, cr6, cr15, cr13, {1}
     638:	61652d65 	cmnvs	r5, r5, ror #26
     63c:	312d6962 			; <UNDEFINED> instruction: 0x312d6962
     640:	2d332e30 	ldccs	14, cr2, [r3, #-192]!	; 0xffffff40
     644:	31323032 	teqcc	r2, r2, lsr r0
     648:	2f30312e 	svccs	0x0030312e
     64c:	2f62696c 	svccs	0x0062696c
     650:	2f636367 	svccs	0x00636367
     654:	2d6d7261 	sfmcs	f7, 2, [sp, #-388]!	; 0xfffffe7c
     658:	656e6f6e 	strbvs	r6, [lr, #-3950]!	; 0xfffff092
     65c:	6261652d 	rsbvs	r6, r1, #188743680	; 0xb400000
     660:	30312f69 	eorscc	r2, r1, r9, ror #30
     664:	312e332e 			; <UNDEFINED> instruction: 0x312e332e
     668:	636e692f 	cmnvs	lr, #770048	; 0xbc000
     66c:	6564756c 	strbvs	r7, [r4, #-1388]!	; 0xfffffa94
     670:	6f682f00 	svcvs	0x00682f00
     674:	652f656d 	strvs	r6, [pc, #-1389]!	; 10f <__code_start__-0x7ef1>
     678:	656c676e 	strbvs	r6, [ip, #-1902]!	; 0xfffff892
     67c:	6c632f72 	stclvs	15, cr2, [r3], #-456	; 0xfffffe38
     680:	2f737361 	svccs	0x00737361
     684:	39347363 	ldmdbcc	r4!, {r0, r1, r5, r6, r8, r9, ip, sp, lr}
     688:	31322d6e 	teqcc	r2, lr, ror #26
     68c:	2f747561 	svccs	0x00747561
     690:	62696c2f 	rsbvs	r6, r9, #12032	; 0x2f00
     694:	692f6970 	stmdbvs	pc!, {r4, r5, r6, r8, fp, sp, lr}	; <UNPREDICTABLE>
     698:	756c636e 	strbvc	r6, [ip, #-878]!	; 0xfffffc92
     69c:	00006564 	andeq	r6, r0, r4, ror #10
     6a0:	66617473 			; <UNDEFINED> instruction: 0x66617473
     6a4:	32692d66 	rsbcc	r2, r9, #6528	; 0x1980
     6a8:	00632e63 	rsbeq	r2, r3, r3, ror #28
     6ac:	73000000 	movwvc	r0, #0
     6b0:	6e696474 	mcrvs	4, 3, r6, cr9, cr4, {3}
     6b4:	63672d74 	cmnvs	r7, #116, 26	; 0x1d00
     6b8:	00682e63 	rsbeq	r2, r8, r3, ror #28
     6bc:	72000001 	andvc	r0, r0, #1, 0
     6c0:	682e6970 	stmdavs	lr!, {r4, r5, r6, r8, fp, sp, lr}
     6c4:	00000200 	andeq	r0, r0, r0, lsl #4
     6c8:	6f697067 	svcvs	0x00697067
     6cc:	0200682e 	andeq	r6, r0, #3014656	; 0x2e0000
     6d0:	05000000 	streq	r0, [r0, #-0]
     6d4:	02050029 	andeq	r0, r5, #41, 0	; 0x29
     6d8:	00008494 	muleq	r0, r4, r4
     6dc:	0100f603 	tsteq	r0, r3, lsl #12	; <UNPREDICTABLE>
     6e0:	13130205 	tstne	r3, #1342177280	; 0x50000000
     6e4:	060e0513 			; <UNDEFINED> instruction: 0x060e0513
     6e8:	02052e01 	andeq	r2, r5, #1, 28
     6ec:	0e052f06 	cdpeq	15, 0, cr2, cr5, cr6, {0}
     6f0:	02050106 	andeq	r0, r5, #-2147483647	; 0x80000001
     6f4:	01052f06 	tsteq	r5, r6, lsl #30
     6f8:	29051306 	stmdbcs	r5, {r1, r2, r8, r9, ip}
     6fc:	2e370306 	cdpcs	3, 3, cr0, cr7, cr6, {0}
     700:	13130205 	tstne	r3, #1342177280	; 0x50000000
     704:	13060105 	movwne	r0, #24837	; 0x6105
     708:	061c052e 	ldreq	r0, [ip], -lr, lsr #10
     70c:	4a00dd03 	bmi	37b20 <__bss_end__+0x2db78>
     710:	014c0205 	cmpeq	ip, r5, lsl #4
     714:	04040200 	streq	r0, [r4], #-512	; 0xfffffe00
     718:	04020001 	streq	r0, [r2], #-1
     71c:	02000104 	andeq	r0, r0, #1
     720:	00820504 	addeq	r0, r2, r4, lsl #10
     724:	82020402 	andhi	r0, r2, #33554432	; 0x2000000
     728:	02040200 	andeq	r0, r4, #0, 4
     72c:	04020001 	streq	r0, [r2], #-1
     730:	02008203 	andeq	r8, r0, #805306368	; 0x30000000
     734:	00010304 	andeq	r0, r1, r4, lsl #6
     738:	9e030402 	cdpls	4, 0, cr0, cr3, cr2, {0}
     73c:	01040200 	mrseq	r0, R12_usr
     740:	0402002e 	streq	r0, [r2], #-46	; 0xffffffd2
     744:	02000101 	andeq	r0, r0, #1073741824	; 0x40000000
     748:	009e0104 	addseq	r0, lr, r4, lsl #2
     74c:	2e060402 	cdpcs	4, 0, cr0, cr6, cr2, {0}
     750:	06040200 	streq	r0, [r4], -r0, lsl #4
     754:	04020015 	streq	r0, [r2], #-21	; 0xffffffeb
     758:	02000106 	andeq	r0, r0, #-2147483647	; 0x80000001
     75c:	00820204 	addeq	r0, r2, r4, lsl #4
     760:	01020402 	tsteq	r2, r2, lsl #8
     764:	02040200 	andeq	r0, r4, #0, 4
     768:	04020014 	streq	r0, [r2], #-20	; 0xffffffec
     76c:	02000102 	andeq	r0, r0, #-2147483648	; 0x80000000
     770:	00820204 	addeq	r0, r2, r4, lsl #4
     774:	01020402 	tsteq	r2, r2, lsl #8
     778:	02040200 	andeq	r0, r4, #0, 4
     77c:	00010514 	andeq	r0, r1, r4, lsl r5
     780:	06020402 	streq	r0, [r2], -r2, lsl #8
     784:	0002052f 	andeq	r0, r2, pc, lsr #10
     788:	06010402 	streq	r0, [r1], -r2, lsl #8
     78c:	04020045 	streq	r0, [r2], #-69	; 0xffffffbb
     790:	02000101 	andeq	r0, r0, #1073741824	; 0x40000000
     794:	00d60104 	sbcseq	r0, r6, r4, lsl #2
     798:	30010402 	andcc	r0, r1, r2, lsl #8
     79c:	01040200 	mrseq	r0, R12_usr
     7a0:	04020001 	streq	r0, [r2], #-1
     7a4:	3205d601 	andcc	sp, r5, #1048576	; 0x100000
     7a8:	087f9d03 	ldmdaeq	pc!, {r0, r1, r8, sl, fp, ip, pc}^	; <UNPREDICTABLE>
     7ac:	05010674 	streq	r0, [r1, #-1652]	; 0xfffff98c
     7b0:	052f0602 	streq	r0, [pc, #-1538]!	; 1b6 <__code_start__-0x7e4a>
     7b4:	01010111 	tsteq	r1, r1, lsl r1
     7b8:	01010101 	tsteq	r1, r1, lsl #2
     7bc:	0609052e 	streq	r0, [r9], -lr, lsr #10
     7c0:	2f010501 	svccs	0x00010501
     7c4:	03062005 	movweq	r2, #24581	; 0x6005
     7c8:	02052e2d 	andeq	r2, r5, #720	; 0x2d0
     7cc:	0611052f 	ldreq	r0, [r1], -pc, lsr #10
     7d0:	06030501 	streq	r0, [r3], -r1, lsl #10
     7d4:	05131667 	ldreq	r1, [r3, #-1639]	; 0xfffff999
     7d8:	01011302 	tsteq	r1, r2, lsl #6
     7dc:	01010101 	tsteq	r1, r1, lsl #2
     7e0:	01050101 	tsteq	r5, r1, lsl #2
     7e4:	32058306 	andcc	r8, r5, #402653184	; 0x18000000
     7e8:	7f8e0306 	svcvc	0x008e0306
     7ec:	0501064a 	streq	r0, [r1, #-1610]	; 0xfffff9b6
     7f0:	052f0602 	streq	r0, [pc, #-1538]!	; 1f6 <__code_start__-0x7e0a>
     7f4:	01010111 	tsteq	r1, r1, lsl r1
     7f8:	01010101 	tsteq	r1, r1, lsl #2
     7fc:	0609052e 	streq	r0, [r9], -lr, lsr #10
     800:	2f010501 	svccs	0x00010501
     804:	03064405 	movweq	r4, #25605	; 0x6405
     808:	062e00f2 			; <UNDEFINED> instruction: 0x062e00f2
     80c:	06050501 	streq	r0, [r5], -r1, lsl #10
     810:	3102059f 			; <UNDEFINED> instruction: 0x3102059f
     814:	04020001 	streq	r0, [r2], #-1
     818:	02000104 	andeq	r0, r0, #1
     81c:	00010404 	andeq	r0, r1, r4, lsl #8
     820:	82050402 	andhi	r0, r5, #33554432	; 0x2000000
     824:	02040200 	andeq	r0, r4, #0, 4
     828:	04020082 	streq	r0, [r2], #-130	; 0xffffff7e
     82c:	02000102 	andeq	r0, r0, #-2147483648	; 0x80000000
     830:	00820304 	addeq	r0, r2, r4, lsl #6
     834:	01030402 	tsteq	r3, r2, lsl #8
     838:	03040200 	movweq	r0, #16896	; 0x4200
     83c:	0402009e 	streq	r0, [r2], #-158	; 0xffffff62
     840:	02002e01 	andeq	r2, r0, #1, 28
     844:	00010104 	andeq	r0, r1, r4, lsl #2
     848:	9e010402 	cdpls	4, 0, cr0, cr1, cr2, {0}
     84c:	06040200 	streq	r0, [r4], -r0, lsl #4
     850:	0402002e 	streq	r0, [r2], #-46	; 0xffffffd2
     854:	02001506 	andeq	r1, r0, #25165824	; 0x1800000
     858:	00010604 	andeq	r0, r1, r4, lsl #12
     85c:	82020402 	andhi	r0, r2, #33554432	; 0x2000000
     860:	02040200 	andeq	r0, r4, #0, 4
     864:	04020001 	streq	r0, [r2], #-1
     868:	02001402 	andeq	r1, r0, #33554432	; 0x2000000
     86c:	00310204 	eorseq	r0, r1, r4, lsl #4
     870:	01020402 	tsteq	r2, r2, lsl #8
     874:	02040200 	andeq	r0, r4, #0, 4
     878:	0402004a 	streq	r0, [r2], #-74	; 0xffffffb6
     87c:	02000102 	andeq	r0, r0, #-2147483648	; 0x80000000
     880:	00130204 	andseq	r0, r3, r4, lsl #4
     884:	69020402 	stmdbvs	r2, {r1, sl}
     888:	02040200 	andeq	r0, r4, #0, 4
     88c:	04020001 	streq	r0, [r2], #-1
     890:	02004a02 	andeq	r4, r0, #8192	; 0x2000
     894:	00010204 	andeq	r0, r1, r4, lsl #4
     898:	13020402 	movwne	r0, #9218	; 0x2402
     89c:	02040200 	andeq	r0, r4, #0, 4
     8a0:	00110568 	andseq	r0, r1, r8, ror #10
     8a4:	06020402 	streq	r0, [r2], -r2, lsl #8
     8a8:	04020001 	streq	r0, [r2], #-1
     8ac:	03052e02 	movweq	r2, #24066	; 0x5e02
     8b0:	02040200 	andeq	r0, r4, #0, 4
     8b4:	02004b06 	andeq	r4, r0, #6144	; 0x1800
     8b8:	05130204 	ldreq	r0, [r3, #-516]	; 0xfffffdfc
     8bc:	04020008 	streq	r0, [r2], #-8
     8c0:	05010602 	streq	r0, [r1, #-1538]	; 0xfffff9fe
     8c4:	04020003 	streq	r0, [r2], #-3
     8c8:	052f0602 	streq	r0, [pc, #-1538]!	; 2ce <__code_start__-0x7d32>
     8cc:	0402000a 	streq	r0, [r2], #-10
     8d0:	00010602 	andeq	r0, r1, r2, lsl #12
     8d4:	2e020402 	cdpcs	4, 0, cr0, cr2, cr2, {0}
     8d8:	02000205 	andeq	r0, r0, #1342177280	; 0x50000000
     8dc:	2f060204 	svccs	0x00060204
     8e0:	02040200 	andeq	r0, r4, #0, 4
     8e4:	04020001 	streq	r0, [r2], #-1
     8e8:	02000102 	andeq	r0, r0, #-2147483648	; 0x80000000
     8ec:	00010204 	andeq	r0, r1, r4, lsl #4
     8f0:	01020402 	tsteq	r2, r2, lsl #8
     8f4:	02040200 	andeq	r0, r4, #0, 4
     8f8:	04020001 	streq	r0, [r2], #-1
     8fc:	02000102 	andeq	r0, r0, #-2147483648	; 0x80000000
     900:	00010204 	andeq	r0, r1, r4, lsl #4
     904:	01020402 	tsteq	r2, r2, lsl #8
     908:	02040200 	andeq	r0, r4, #0, 4
     90c:	0402006e 	streq	r0, [r2], #-110	; 0xffffff92
     910:	02000102 	andeq	r0, r0, #-2147483648	; 0x80000000
     914:	00010404 	andeq	r0, r1, r4, lsl #8
     918:	01040402 	tsteq	r4, r2, lsl #8
     91c:	05040200 	streq	r0, [r4, #-512]	; 0xfffffe00
     920:	04020082 	streq	r0, [r2], #-130	; 0xffffff7e
     924:	02008202 	andeq	r8, r0, #536870912	; 0x20000000
     928:	00010204 	andeq	r0, r1, r4, lsl #4
     92c:	82030402 	andhi	r0, r3, #33554432	; 0x2000000
     930:	03040200 	movweq	r0, #16896	; 0x4200
     934:	04020001 	streq	r0, [r2], #-1
     938:	02009e03 	andeq	r9, r0, #3, 28	; 0x30
     93c:	68030104 	stmdavs	r3, {r2, r8}
     940:	0402002e 	streq	r0, [r2], #-46	; 0xffffffd2
     944:	02000101 	andeq	r0, r0, #1073741824	; 0x40000000
     948:	00d60104 	sbcseq	r0, r6, r4, lsl #2
     94c:	33010402 	movwcc	r0, #5122	; 0x1402
     950:	01040200 	mrseq	r0, R12_usr
     954:	04020001 	streq	r0, [r2], #-1
     958:	0200d601 	andeq	sp, r0, #1048576	; 0x100000
     95c:	00320104 	eorseq	r0, r2, r4, lsl #2
     960:	01010402 	tsteq	r1, r2, lsl #8
     964:	01040200 	mrseq	r0, R12_usr
     968:	040200d6 	streq	r0, [r2], #-214	; 0xffffff2a
     96c:	2e0f0301 	cdpcs	3, 0, cr0, cr15, cr1, {0}
     970:	01040200 	mrseq	r0, R12_usr
     974:	04020001 	streq	r0, [r2], #-1
     978:	01059e01 	tsteq	r5, r1, lsl #28
     97c:	054a2f06 	strbeq	r2, [sl, #-3846]	; 0xfffff0fa
     980:	0500063f 	streq	r0, [r0, #-1599]	; 0xfffff9c1
     984:	0087cc02 	addeq	ip, r7, r2, lsl #24
     988:	010f0300 	mrseq	r0, SP_hyp
     98c:	02050106 	andeq	r0, r5, #-2147483647	; 0x80000001
     990:	2e066706 	cdpcs	7, 0, cr6, cr6, cr6, {0}
     994:	0530062e 	ldreq	r0, [r0, #-1582]!	; 0xfffff9d2
     998:	0f050106 	svceq	0x00050106
     99c:	02050106 	andeq	r0, r5, #-2147483647	; 0x80000001
     9a0:	0003052e 	andeq	r0, r3, lr, lsr #10
     9a4:	06010402 	streq	r0, [r1], -r2, lsl #8
     9a8:	04020030 	streq	r0, [r2], #-48	; 0xffffffd0
     9ac:	02000101 	andeq	r0, r0, #1073741824	; 0x40000000
     9b0:	4a060104 	bmi	180dc8 <__bss_end__+0x176e20>
     9b4:	01040200 	mrseq	r0, R12_usr
     9b8:	02006606 	andeq	r6, r0, #6291456	; 0x600000
     9bc:	002e0604 	eoreq	r0, lr, r4, lsl #12
     9c0:	15060402 	strne	r0, [r6, #-1026]	; 0xfffffbfe
     9c4:	02001305 	andeq	r1, r0, #335544320	; 0x14000000
     9c8:	01060604 	tsteq	r6, r4, lsl #12
     9cc:	02000d05 	andeq	r0, r0, #320	; 0x140
     9d0:	052e0604 	streq	r0, [lr, #-1540]!	; 0xfffff9fc
     9d4:	04020022 	streq	r0, [r2], #-34	; 0xffffffde
     9d8:	05450606 	strbeq	r0, [r5, #-1542]	; 0xfffff9fa
     9dc:	04020023 	streq	r0, [r2], #-35	; 0xffffffdd
     9e0:	05010606 	streq	r0, [r1, #-1542]	; 0xfffff9fa
     9e4:	04020016 	streq	r0, [r2], #-22	; 0xffffffea
     9e8:	052e0602 	streq	r0, [lr, #-1538]!	; 0xfffff9fe
     9ec:	04020002 	streq	r0, [r2], #-2
     9f0:	05010602 	streq	r0, [r1, #-1538]	; 0xfffff9fe
     9f4:	04020003 	streq	r0, [r2], #-3
     9f8:	004c0604 	subeq	r0, ip, r4, lsl #12
     9fc:	01040402 	tsteq	r4, r2, lsl #8
     a00:	05040200 	streq	r0, [r4, #-512]	; 0xfffffe00
     a04:	04020082 	streq	r0, [r2], #-130	; 0xffffff7e
     a08:	02008202 	andeq	r8, r0, #536870912	; 0x20000000
     a0c:	00010204 	andeq	r0, r1, r4, lsl #4
     a10:	82030402 	andhi	r0, r3, #33554432	; 0x2000000
     a14:	03040200 	movweq	r0, #16896	; 0x4200
     a18:	04020001 	streq	r0, [r2], #-1
     a1c:	004a0603 	subeq	r0, sl, r3, lsl #12
     a20:	06030402 	streq	r0, [r3], -r2, lsl #8
     a24:	04020066 	streq	r0, [r2], #-102	; 0xffffff9a
     a28:	052e0603 	streq	r0, [lr, #-1539]!	; 0xfffff9fd
     a2c:	2f180602 	svccs	0x00180602
     a30:	13060105 	movwne	r0, #24837	; 0x6105
     a34:	f5063e05 			; <UNDEFINED> instruction: 0xf5063e05
     a38:	02050106 	andeq	r0, r5, #-2147483647	; 0x80000001
     a3c:	2e066706 	cdpcs	7, 0, cr6, cr6, cr6, {0}
     a40:	0531062e 	ldreq	r0, [r1, #-1582]!	; 0xfffff9d2
     a44:	0f050106 	svceq	0x00050106
     a48:	02050106 	andeq	r0, r5, #-2147483647	; 0x80000001
     a4c:	0003052e 	andeq	r0, r3, lr, lsr #10
     a50:	06010402 	streq	r0, [r1], -r2, lsl #8
     a54:	04020030 	streq	r0, [r2], #-48	; 0xffffffd0
     a58:	02000101 	andeq	r0, r0, #1073741824	; 0x40000000
     a5c:	4a060104 	bmi	180e74 <__bss_end__+0x176ecc>
     a60:	01040200 	mrseq	r0, R12_usr
     a64:	02006606 	andeq	r6, r0, #6291456	; 0x600000
     a68:	002e0604 	eoreq	r0, lr, r4, lsl #12
     a6c:	15060402 	strne	r0, [r6, #-1026]	; 0xfffffbfe
     a70:	02001005 	andeq	r1, r0, #5, 0
     a74:	01060604 	tsteq	r6, r4, lsl #12
     a78:	02000b05 	andeq	r0, r0, #5120	; 0x1400
     a7c:	054a0604 	strbeq	r0, [sl, #-1540]	; 0xfffff9fc
     a80:	04020022 	streq	r0, [r2], #-34	; 0xffffffde
     a84:	05290606 	streq	r0, [r9, #-1542]!	; 0xfffff9fa
     a88:	04020023 	streq	r0, [r2], #-35	; 0xffffffdd
     a8c:	05010606 	streq	r0, [r1, #-1542]	; 0xfffff9fa
     a90:	04020016 	streq	r0, [r2], #-22	; 0xffffffea
     a94:	052e0602 	streq	r0, [lr, #-1538]!	; 0xfffff9fe
     a98:	04020002 	streq	r0, [r2], #-2
     a9c:	05010602 	streq	r0, [r1, #-1538]	; 0xfffff9fe
     aa0:	04020003 	streq	r0, [r2], #-3
     aa4:	004c0604 	subeq	r0, ip, r4, lsl #12
     aa8:	01040402 	tsteq	r4, r2, lsl #8
     aac:	05040200 	streq	r0, [r4, #-512]	; 0xfffffe00
     ab0:	04020082 	streq	r0, [r2], #-130	; 0xffffff7e
     ab4:	02008202 	andeq	r8, r0, #536870912	; 0x20000000
     ab8:	00010204 	andeq	r0, r1, r4, lsl #4
     abc:	82030402 	andhi	r0, r3, #33554432	; 0x2000000
     ac0:	03040200 	movweq	r0, #16896	; 0x4200
     ac4:	04020001 	streq	r0, [r2], #-1
     ac8:	004a0603 	subeq	r0, sl, r3, lsl #12
     acc:	06030402 	streq	r0, [r3], -r2, lsl #8
     ad0:	04020066 	streq	r0, [r2], #-102	; 0xffffff9a
     ad4:	052e0603 	streq	r0, [lr, #-1539]!	; 0xfffff9fd
     ad8:	2f180602 	svccs	0x00180602
     adc:	13060105 	movwne	r0, #24837	; 0x6105
     ae0:	f7061e05 			; <UNDEFINED> instruction: 0xf7061e05
     ae4:	05130205 	ldreq	r0, [r3, #-517]	; 0xfffffdfb
     ae8:	05130601 	ldreq	r0, [r3, #-1537]	; 0xfffff9ff
     aec:	0b030615 	bleq	c2348 <__bss_end__+0xb83a0>
     af0:	4b020582 	blmi	82100 <__bss_end__+0x78158>
     af4:	32030515 	andcc	r0, r3, #88080384	; 0x5400000
     af8:	05671313 	strbeq	r1, [r7, #-787]!	; 0xfffffced
     afc:	03056902 	movweq	r6, #22786	; 0x5902
     b00:	01120532 	tsteq	r2, r2, lsr r5
     b04:	01010101 	tsteq	r1, r1, lsl #2
     b08:	05010101 	streq	r0, [r1, #-257]	; 0xfffffeff
     b0c:	2e131303 	cdpcs	3, 1, cr1, cr3, cr3, {0}
     b10:	01010101 	tsteq	r1, r1, lsl #2
     b14:	05010101 	streq	r0, [r1, #-257]	; 0xfffffeff
     b18:	03056902 	movweq	r6, #22786	; 0x5902
     b1c:	31020530 	tstcc	r2, r0, lsr r5
     b20:	0200012f 	andeq	r0, r0, #-1073741813	; 0xc000000b
     b24:	00660204 	rsbeq	r0, r6, r4, lsl #4
     b28:	01020402 	tsteq	r2, r2, lsl #8
     b2c:	02040200 	andeq	r0, r4, #0, 4
     b30:	00100514 	andseq	r0, r0, r4, lsl r5
     b34:	06020402 	streq	r0, [r2], -r2, lsl #8
     b38:	00010501 	andeq	r0, r1, r1, lsl #10
     b3c:	67020402 	strvs	r0, [r2, -r2, lsl #8]
     b40:	02000205 	andeq	r0, r0, #1342177280	; 0x50000000
     b44:	47060104 	strmi	r0, [r6, -r4, lsl #2]
     b48:	01040200 	mrseq	r0, R12_usr
     b4c:	04020001 	streq	r0, [r2], #-1
     b50:	1a05d601 	bne	17635c <__bss_end__+0x16c3b4>
     b54:	05f25903 	ldrbeq	r5, [r2, #2307]!	; 0x903
     b58:	05052f02 	streq	r2, [r5, #-3842]	; 0xfffff0fe
     b5c:	04050106 	streq	r0, [r5], #-262	; 0xfffffefa
     b60:	0602052e 	streq	r0, [r2], -lr, lsr #10
     b64:	0601054c 	streq	r0, [r1], -ip, asr #10
     b68:	0002022f 	andeq	r0, r2, pc, lsr #4
     b6c:	012f0101 			; <UNDEFINED> instruction: 0x012f0101
     b70:	00030000 	andeq	r0, r3, r0
     b74:	000000fd 	strdeq	r0, [r0], -sp
     b78:	0efb0102 	cdpeq	1, 15, cr0, cr11, cr2, {0}
     b7c:	0101000d 	tsteq	r1, sp
     b80:	00000101 	andeq	r0, r0, r1, lsl #2
     b84:	00000100 	andeq	r0, r0, r0, lsl #2
     b88:	6c2f2e01 	stcvs	14, cr2, [pc], #-4	; b8c <__code_start__-0x7474>
     b8c:	00636269 	rsbeq	r6, r3, r9, ror #4
     b90:	7273752f 	rsbsvc	r7, r3, #197132288	; 0xbc00000
     b94:	636f6c2f 	cmnvs	pc, #12032	; 0x2f00
     b98:	432f6c61 			; <UNDEFINED> instruction: 0x432f6c61
     b9c:	616c6c65 	cmnvs	ip, r5, ror #24
     ba0:	72612f72 	rsbvc	r2, r1, #456	; 0x1c8
     ba4:	6f6e2d6d 	svcvs	0x006e2d6d
     ba8:	652d656e 	strvs	r6, [sp, #-1390]!	; 0xfffffa92
     bac:	2d696261 	sfmcs	f6, 2, [r9, #-388]!	; 0xfffffe7c
     bb0:	74736574 	ldrbtvc	r6, [r3], #-1396	; 0xfffffa8c
     bb4:	322d392f 	eorcc	r3, sp, #770048	; 0xbc000
     bb8:	71393130 	teqvc	r9, r0, lsr r1
     bbc:	73632d34 	cmnvc	r3, #52, 26	; 0xd00
     bc0:	65373031 	ldrvs	r3, [r7, #-49]!	; 0xffffffcf
     bc4:	62696c2f 	rsbvs	r6, r9, #12032	; 0x2f00
     bc8:	6363672f 	cmnvs	r3, #12320768	; 0xbc0000
     bcc:	6d72612f 	ldfvse	f6, [r2, #-188]!	; 0xffffff44
     bd0:	6e6f6e2d 	cdpvs	14, 6, cr6, cr15, cr13, {1}
     bd4:	61652d65 	cmnvs	r5, r5, ror #26
     bd8:	392f6962 	stmdbcc	pc!, {r1, r5, r6, r8, fp, sp, lr}	; <UNPREDICTABLE>
     bdc:	312e322e 			; <UNDEFINED> instruction: 0x312e322e
     be0:	636e692f 	cmnvs	lr, #770048	; 0xbc000
     be4:	6564756c 	strbvs	r7, [r4, #-1388]!	; 0xfffffa94
     be8:	73552f00 	cmpvc	r5, #0, 30
     bec:	2f737265 	svccs	0x00737265
     bf0:	696d616a 	stmdbvs	sp!, {r1, r3, r5, r6, r8, sp, lr}^
     bf4:	6f442f65 	svcvs	0x00442f65
     bf8:	656d7563 	strbvs	r7, [sp, #-1379]!	; 0xfffffa9d
     bfc:	2f73746e 	svccs	0x0073746e
     c00:	34315343 	ldrtcc	r5, [r1], #-835	; 0xfffffcbd
     c04:	632f4530 			; <UNDEFINED> instruction: 0x632f4530
     c08:	30343173 	eorscc	r3, r4, r3, ror r1
     c0c:	69662d45 	stmdbvs	r6!, {r0, r2, r6, r8, sl, fp, sp}^
     c10:	2d6c616e 	stfcse	f6, [ip, #-440]!	; 0xfffffe48
     c14:	6a6f7270 	bvs	1bdd5dc <__bss_end__+0x1bd3634>
     c18:	2f746365 	svccs	0x00746365
     c1c:	7362696c 	cmnvc	r2, #108, 18	; 0x1b0000
     c20:	3034322d 	eorscc	r3, r4, sp, lsr #4
     c24:	6c2f786c 	stcvs	8, cr7, [pc], #-432	; a7c <__code_start__-0x7584>
     c28:	69706269 	ldmdbvs	r0!, {r0, r3, r5, r6, r9, sp, lr}^
     c2c:	636e692f 	cmnvs	lr, #770048	; 0xbc000
     c30:	6564756c 	strbvs	r7, [r4, #-1388]!	; 0xfffffa94
     c34:	72700000 	rsbsvc	r0, r0, #0, 0
     c38:	6b746e69 	blvs	1d1c5e4 <__bss_end__+0x1d1263c>
     c3c:	0100632e 	tsteq	r0, lr, lsr #6
     c40:	74730000 	ldrbtvc	r0, [r3], #-0
     c44:	67726164 	ldrbvs	r6, [r2, -r4, ror #2]!
     c48:	0200682e 	andeq	r6, r0, #3014656	; 0x2e0000
     c4c:	70720000 	rsbsvc	r0, r2, r0
     c50:	00682e69 	rsbeq	r2, r8, r9, ror #28
     c54:	3c000003 	stccc	0, cr0, [r0], {3}
     c58:	6c697562 	cfstr64vs	mvdx7, [r9], #-392	; 0xfffffe78
     c5c:	6e692d74 	mcrvs	13, 3, r2, cr9, cr4, {3}
     c60:	0000003e 	andeq	r0, r0, lr, lsr r0
     c64:	2d617600 	stclcs	6, cr7, [r1, #-0]
     c68:	6e697270 	mcrvs	2, 3, r7, cr9, cr0, {3}
     c6c:	682e6b74 	stmdavs	lr!, {r2, r4, r5, r6, r8, r9, fp, sp, lr}
     c70:	00000100 	andeq	r0, r0, r0, lsl #2
     c74:	00220500 	eoreq	r0, r2, r0, lsl #10
     c78:	8a0c0205 	bhi	301494 <__bss_end__+0x2f74ec>
     c7c:	06170000 	ldreq	r0, [r7], -r0
     c80:	06050501 	streq	r0, [r5], -r1, lsl #10
     c84:	05141368 	ldreq	r1, [r4, #-872]	; 0xfffffc98
     c88:	12054b09 	andne	r4, r5, #9216	; 0x2400
     c8c:	05050106 	streq	r0, [r5, #-262]	; 0xfffffefa
     c90:	0616bb06 	ldreq	fp, [r6], -r6, lsl #22
     c94:	05340666 	ldreq	r0, [r4, #-1638]!	; 0xfffff99a
     c98:	66130601 	ldrvs	r0, [r3], -r1, lsl #12
     c9c:	01000802 	tsteq	r0, r2, lsl #16
     ca0:	0000c701 	andeq	ip, r0, r1, lsl #14
     ca4:	79000300 	stmdbvc	r0, {r8, r9}
     ca8:	02000000 	andeq	r0, r0, #0, 0
     cac:	0d0efb01 	vstreq	d15, [lr, #-4]
     cb0:	01010100 	mrseq	r0, (UNDEF: 17)
     cb4:	00000001 	andeq	r0, r0, r1
     cb8:	01000001 	tsteq	r0, r1
     cbc:	696c2f2e 	stmdbvs	ip!, {r1, r2, r3, r5, r8, r9, sl, fp, sp}^
     cc0:	2f006362 	svccs	0x00006362
     cc4:	72657355 	rsbvc	r7, r5, #1409286145	; 0x54000001
     cc8:	616a2f73 	smcvs	41715	; 0xa2f3
     ccc:	2f65696d 	svccs	0x0065696d
     cd0:	75636f44 	strbvc	r6, [r3, #-3908]!	; 0xfffff0bc
     cd4:	746e656d 	strbtvc	r6, [lr], #-1389	; 0xfffffa93
     cd8:	53432f73 	movtpl	r2, #16243	; 0x3f73
     cdc:	45303431 	ldrmi	r3, [r0, #-1073]!	; 0xfffffbcf
     ce0:	3173632f 	cmncc	r3, pc, lsr #6
     ce4:	2d453034 	stclcs	0, cr3, [r5, #-208]	; 0xffffff30
     ce8:	616e6966 	cmnvs	lr, r6, ror #18
     cec:	72702d6c 	rsbsvc	r2, r0, #108, 26	; 0x1b00
     cf0:	63656a6f 	cmnvs	r5, #454656	; 0x6f000
     cf4:	696c2f74 	stmdbvs	ip!, {r2, r4, r5, r6, r8, r9, sl, fp, sp}^
     cf8:	322d7362 	eorcc	r7, sp, #-2013265919	; 0x88000001
     cfc:	786c3034 	stmdavc	ip!, {r2, r4, r5, ip, sp}^
     d00:	62696c2f 	rsbvs	r6, r9, #12032	; 0x2f00
     d04:	692f6970 	stmdbvs	pc!, {r4, r5, r6, r8, fp, sp, lr}	; <UNPREDICTABLE>
     d08:	756c636e 	strbvc	r6, [ip, #-878]!	; 0xfffffc92
     d0c:	00006564 	andeq	r6, r0, r4, ror #10
     d10:	6b747570 	blvs	1d1e2d8 <__bss_end__+0x1d14330>
     d14:	0100632e 	tsteq	r0, lr, lsr #6
     d18:	70720000 	rsbsvc	r0, r2, r0
     d1c:	00682e69 	rsbeq	r2, r8, r9, ror #28
     d20:	00000002 	andeq	r0, r0, r2
     d24:	05002205 	streq	r2, [r0, #-517]	; 0xfffffdfb
     d28:	008a6402 	addeq	r6, sl, r2, lsl #8
     d2c:	01061500 	tsteq	r6, r0, lsl #10
     d30:	4b060505 	blmi	18214c <__bss_end__+0x1781a4>
     d34:	02000b05 	andeq	r0, r0, #5120	; 0x1400
     d38:	05010104 	streq	r0, [r1, #-260]	; 0xfffffefc
     d3c:	04020005 	streq	r0, [r2], #-5
     d40:	052e0601 	streq	r0, [lr, #-1537]!	; 0xfffff9ff
     d44:	04020009 	streq	r0, [r2], #-9
     d48:	054b0602 	strbeq	r0, [fp, #-1538]	; 0xfffff9fe
     d4c:	0402000f 	streq	r0, [r2], #-15
     d50:	10056502 	andne	r6, r5, r2, lsl #10
     d54:	02040200 	andeq	r0, r4, #0, 4
     d58:	02000106 	andeq	r0, r0, #-2147483647	; 0x80000001
     d5c:	052e0204 	streq	r0, [lr, #-516]!	; 0xfffffdfc
     d60:	05320605 	ldreq	r0, [r2, #-1541]!	; 0xfffff9fb
     d64:	02130601 	andseq	r0, r3, #1048576	; 0x100000
     d68:	01010006 	tsteq	r1, r6
     d6c:	00000619 	andeq	r0, r0, r9, lsl r6
     d70:	01130003 	tsteq	r3, r3
     d74:	01020000 	mrseq	r0, (UNDEF: 2)
     d78:	000d0efb 	strdeq	r0, [sp], -fp
     d7c:	01010101 	tsteq	r1, r1, lsl #2
     d80:	01000000 	mrseq	r0, (UNDEF: 0)
     d84:	2e010000 	cdpcs	0, 0, cr0, cr1, cr0, {0}
     d88:	62696c2f 	rsbvs	r6, r9, #12032	; 0x2f00
     d8c:	752f0063 	strvc	r0, [pc, #-99]!	; d31 <__code_start__-0x72cf>
     d90:	6c2f7273 	sfmvs	f7, 4, [pc], #-460	; bcc <__code_start__-0x7434>
     d94:	6c61636f 	stclvs	3, cr6, [r1], #-444	; 0xfffffe44
     d98:	6c65432f 	stclvs	3, cr4, [r5], #-188	; 0xffffff44
     d9c:	2f72616c 	svccs	0x0072616c
     da0:	2d6d7261 	sfmcs	f7, 2, [sp, #-388]!	; 0xfffffe7c
     da4:	656e6f6e 	strbvs	r6, [lr, #-3950]!	; 0xfffff092
     da8:	6261652d 	rsbvs	r6, r1, #188743680	; 0xb400000
     dac:	65742d69 	ldrbvs	r2, [r4, #-3433]!	; 0xfffff297
     db0:	392f7473 	stmdbcc	pc!, {r0, r1, r4, r5, r6, sl, ip, sp, lr}	; <UNPREDICTABLE>
     db4:	3130322d 	teqcc	r0, sp, lsr #4
     db8:	2d347139 	ldfcss	f7, [r4, #-228]!	; 0xffffff1c
     dbc:	30317363 	eorscc	r7, r1, r3, ror #6
     dc0:	6c2f6537 	cfstr32vs	mvfx6, [pc], #-220	; cec <__code_start__-0x7314>
     dc4:	672f6269 	strvs	r6, [pc, -r9, ror #4]!
     dc8:	612f6363 			; <UNDEFINED> instruction: 0x612f6363
     dcc:	6e2d6d72 	mcrvs	13, 1, r6, cr13, cr2, {3}
     dd0:	2d656e6f 	stclcs	14, cr6, [r5, #-444]!	; 0xfffffe44
     dd4:	69626165 	stmdbvs	r2!, {r0, r2, r5, r6, r8, sp, lr}^
     dd8:	322e392f 	eorcc	r3, lr, #770048	; 0xbc000
     ddc:	692f312e 	stmdbvs	pc!, {r1, r2, r3, r5, r8, ip, sp}	; <UNPREDICTABLE>
     de0:	756c636e 	strbvc	r6, [ip, #-878]!	; 0xfffffc92
     de4:	2f006564 	svccs	0x00006564
     de8:	72657355 	rsbvc	r7, r5, #1409286145	; 0x54000001
     dec:	616a2f73 	smcvs	41715	; 0xa2f3
     df0:	2f65696d 	svccs	0x0065696d
     df4:	75636f44 	strbvc	r6, [r3, #-3908]!	; 0xfffff0bc
     df8:	746e656d 	strbtvc	r6, [lr], #-1389	; 0xfffffa93
     dfc:	53432f73 	movtpl	r2, #16243	; 0x3f73
     e00:	45303431 	ldrmi	r3, [r0, #-1073]!	; 0xfffffbcf
     e04:	3173632f 	cmncc	r3, pc, lsr #6
     e08:	2d453034 	stclcs	0, cr3, [r5, #-208]	; 0xffffff30
     e0c:	616e6966 	cmnvs	lr, r6, ror #18
     e10:	72702d6c 	rsbsvc	r2, r0, #108, 26	; 0x1b00
     e14:	63656a6f 	cmnvs	r5, #454656	; 0x6f000
     e18:	696c2f74 	stmdbvs	ip!, {r2, r4, r5, r6, r8, r9, sl, fp, sp}^
     e1c:	322d7362 	eorcc	r7, sp, #-2013265919	; 0x88000001
     e20:	786c3034 	stmdavc	ip!, {r2, r4, r5, ip, sp}^
     e24:	62696c2f 	rsbvs	r6, r9, #12032	; 0x2f00
     e28:	692f6970 	stmdbvs	pc!, {r4, r5, r6, r8, fp, sp, lr}	; <UNPREDICTABLE>
     e2c:	756c636e 	strbvc	r6, [ip, #-878]!	; 0xfffffc92
     e30:	00006564 	andeq	r6, r0, r4, ror #10
     e34:	702d6176 	eorvc	r6, sp, r6, ror r1
     e38:	746e6972 	strbtvc	r6, [lr], #-2418	; 0xfffff68e
     e3c:	00632e6b 	rsbeq	r2, r3, fp, ror #28
     e40:	73000001 	movwvc	r0, #1
     e44:	6e696474 	mcrvs	4, 3, r6, cr9, cr4, {3}
     e48:	63672d74 	cmnvs	r7, #116, 26	; 0x1d00
     e4c:	00682e63 	rsbeq	r2, r8, r3, ror #28
     e50:	72000002 	andvc	r0, r0, #2, 0
     e54:	682e6970 	stmdavs	lr!, {r4, r5, r6, r8, fp, sp, lr}
     e58:	00000300 	andeq	r0, r0, r0, lsl #6
     e5c:	2d697072 	stclcs	0, cr7, [r9, #-456]!	; 0xfffffe38
     e60:	65746e69 	ldrbvs	r6, [r4, #-3689]!	; 0xfffff197
     e64:	6c616e72 	stclvs	14, cr6, [r1], #-456	; 0xfffffe38
     e68:	0300682e 	movweq	r6, #2094	; 0x82e
     e6c:	74730000 	ldrbtvc	r0, [r3], #-0
     e70:	67726164 	ldrbvs	r6, [r2, -r4, ror #2]!
     e74:	0200682e 	andeq	r6, r0, #3014656	; 0x2e0000
     e78:	623c0000 	eorsvs	r0, ip, #0, 0
     e7c:	746c6975 	strbtvc	r6, [ip], #-2421	; 0xfffff68b
     e80:	3e6e692d 	vmulcc.f16	s13, s28, s27	; <UNPREDICTABLE>
     e84:	00000000 	andeq	r0, r0, r0
     e88:	001b0500 	andseq	r0, fp, r0, lsl #10
     e8c:	8a980205 	bhi	fe6016a8 <__bss_end__+0xfe5f7700>
     e90:	26030000 	strcs	r0, [r3], -r0
     e94:	011d0501 	tsteq	sp, r1, lsl #10
     e98:	01062d05 	tsteq	r6, r5, lsl #26
     e9c:	4a2e0105 	bmi	b812b8 <__bss_end__+0xb77310>
     ea0:	51063305 	tstpl	r6, r5, lsl #6
     ea4:	05130205 	ldreq	r0, [r3, #-517]	; 0xfffffdfb
     ea8:	05010606 	streq	r0, [r1, #-1542]	; 0xfffff9fa
     eac:	05300602 	ldreq	r0, [r0, #-1538]!	; 0xfffff9fe
     eb0:	04020008 	streq	r0, [r2], #-8
     eb4:	02050101 	andeq	r0, r5, #1073741824	; 0x40000000
     eb8:	01040200 	mrseq	r0, R12_usr
     ebc:	03050106 	movweq	r0, #20742	; 0x5106
     ec0:	02040200 	andeq	r0, r4, #0, 4
     ec4:	08052f06 	stmdaeq	r5, {r1, r2, r8, r9, sl, fp, sp}
     ec8:	02040200 	andeq	r0, r4, #0, 4
     ecc:	15050106 	strne	r0, [r5, #-262]	; 0xfffffefa
     ed0:	02040200 	andeq	r0, r4, #0, 4
     ed4:	18054906 	stmdane	r5, {r1, r2, r8, fp, lr}
     ed8:	02040200 	andeq	r0, r4, #0, 4
     edc:	02000106 	andeq	r0, r0, #-2147483647	; 0x80000001
     ee0:	052e0204 	streq	r0, [lr, #-516]!	; 0xfffffdfc
     ee4:	05300602 	ldreq	r0, [r0, #-1538]!	; 0xfffff9fe
     ee8:	05010605 	streq	r0, [r1, #-1541]	; 0xfffff9fb
     eec:	054b0602 	strbeq	r0, [fp, #-1538]	; 0xfffff9fe
     ef0:	05130601 	ldreq	r0, [r3, #-1537]	; 0xfffff9ff
     ef4:	0531063e 	ldreq	r0, [r1, #-1598]!	; 0xfffff9c2
     ef8:	0e051402 	cdpeq	4, 0, cr1, cr5, cr2, {0}
     efc:	06050106 	streq	r0, [r5], -r6, lsl #2
     f00:	0602052e 	streq	r0, [r2], -lr, lsr #10
     f04:	0604052f 	streq	r0, [r4], -pc, lsr #10
     f08:	06030501 	streq	r0, [r3], -r1, lsl #10
     f0c:	0611052f 	ldreq	r0, [r1], -pc, lsr #10
     f10:	2e090501 	cfsh32cs	mvfx0, mvfx9, #1
     f14:	30060205 	andcc	r0, r6, r5, lsl #4
     f18:	06070515 			; <UNDEFINED> instruction: 0x06070515
     f1c:	2e020501 	cfsh32cs	mvfx0, mvfx2, #1
     f20:	02000b05 	andeq	r0, r0, #5120	; 0x1400
     f24:	2e060104 	adfcss	f0, f6, f4
     f28:	02000205 	andeq	r0, r0, #1342177280	; 0x50000000
     f2c:	01060104 	tsteq	r6, r4, lsl #2
     f30:	02000305 	andeq	r0, r0, #335544320	; 0x14000000
     f34:	2f060304 	svccs	0x00060304
     f38:	02000c05 	andeq	r0, r0, #1280	; 0x500
     f3c:	01060304 	tsteq	r6, r4, lsl #6
     f40:	02000a05 	andeq	r0, r0, #20480	; 0x5000
     f44:	052e0304 	streq	r0, [lr, #-772]!	; 0xfffffcfc
     f48:	04020017 	streq	r0, [r2], #-23	; 0xffffffe9
     f4c:	002d0603 	eoreq	r0, sp, r3, lsl #12
     f50:	06030402 	streq	r0, [r3], -r2, lsl #8
     f54:	06020501 	streq	r0, [r2], -r1, lsl #10
     f58:	06090530 			; <UNDEFINED> instruction: 0x06090530
     f5c:	02052e01 	andeq	r2, r5, #1, 28
     f60:	01053006 	tsteq	r5, r6
     f64:	49051306 	stmdbmi	r5, {r1, r2, r8, r9, ip}
     f68:	01063106 	tsteq	r6, r6, lsl #2
     f6c:	a0060205 	andge	r0, r6, r5, lsl #4
     f70:	01060405 	tsteq	r6, r5, lsl #8
     f74:	2f060305 	svccs	0x00060305
     f78:	01060905 	tsteq	r6, r5, lsl #18
     f7c:	30060205 	andcc	r0, r6, r5, lsl #4
     f80:	060b0513 			; <UNDEFINED> instruction: 0x060b0513
     f84:	06020501 	streq	r0, [r2], -r1, lsl #10
     f88:	052e0630 	streq	r0, [lr, #-1584]!	; 0xfffff9d0
     f8c:	24020604 	strcs	r0, [r2], #-1540	; 0xfffff9fc
     f90:	0f051315 	svceq	0x00051315
     f94:	052e0106 	streq	r0, [lr, #-262]!	; 0xfffffefa
     f98:	05054a06 	streq	r4, [r5, #-2566]	; 0xfffff5fa
     f9c:	05134b06 	ldreq	r4, [r3, #-2822]	; 0xfffff4fa
     fa0:	05010609 	streq	r0, [r1, #-1545]	; 0xfffff9f7
     fa4:	052f0605 	streq	r0, [pc, #-1541]!	; 9a7 <__code_start__-0x7659>
     fa8:	0510060b 	ldreq	r0, [r0, #-1547]	; 0xfffff9f5
     fac:	0402000d 	streq	r0, [r2], #-13
     fb0:	04052c01 	streq	r2, [r5], #-3073	; 0xfffff3ff
     fb4:	01040200 	mrseq	r0, R12_usr
     fb8:	05053406 	streq	r3, [r5, #-1030]	; 0xfffffbfa
     fbc:	01040200 	mrseq	r0, R12_usr
     fc0:	001b0513 	andseq	r0, fp, r3, lsl r5
     fc4:	06010402 	streq	r0, [r1], -r2, lsl #8
     fc8:	00070501 	andeq	r0, r7, r1, lsl #10
     fcc:	d6010402 	strle	r0, [r1], -r2, lsl #8
     fd0:	02001805 	andeq	r1, r0, #327680	; 0x50000
     fd4:	052e0104 	streq	r0, [lr, #-260]!	; 0xfffffefc
     fd8:	0402000a 	streq	r0, [r2], #-10
     fdc:	0b054a01 	bleq	1537e8 <__bss_end__+0x149840>
     fe0:	01040200 	mrseq	r0, R12_usr
     fe4:	0e052f06 	cdpeq	15, 0, cr2, cr5, cr6, {0}
     fe8:	01040200 	mrseq	r0, R12_usr
     fec:	04052e06 	streq	r2, [r5], #-3590	; 0xfffff1fa
     ff0:	01040200 	mrseq	r0, R12_usr
     ff4:	054b062e 	strbeq	r0, [fp, #-1582]	; 0xfffff9d2
     ff8:	05010606 	streq	r0, [r1, #-1542]	; 0xfffff9fa
     ffc:	052f0605 	streq	r0, [pc, #-1541]!	; 9ff <__code_start__-0x7601>
    1000:	0501060a 	streq	r0, [r1, #-1546]	; 0xfffff9f6
    1004:	052e4a07 	streq	r4, [lr, #-2567]!	; 0xfffff5f9
    1008:	2e76030d 	cdpcs	3, 7, cr0, cr6, cr13, {0}
    100c:	0d0b054a 	cfstr32eq	mvfx0, [fp, #-296]	; 0xfffffed8
    1010:	02000d05 	andeq	r0, r0, #320	; 0x140
    1014:	03060104 	movweq	r0, #24836	; 0x6104
    1018:	11052e14 	tstne	r5, r4, lsl lr
    101c:	01040200 	mrseq	r0, R12_usr
    1020:	002d0513 	eoreq	r0, sp, r3, lsl r5
    1024:	06010402 	streq	r0, [r1], -r2, lsl #8
    1028:	002a0501 	eoreq	r0, sl, r1, lsl #10
    102c:	2e010402 	cdpcs	4, 0, cr0, cr1, cr2, {0}
    1030:	02001605 	andeq	r1, r0, #5242880	; 0x500000
    1034:	054a0104 	strbeq	r0, [sl, #-260]	; 0xfffffefc
    1038:	04020014 	streq	r0, [r2], #-20	; 0xffffffec
    103c:	054b0601 	strbeq	r0, [fp, #-1537]	; 0xfffff9ff
    1040:	0402000d 	streq	r0, [r2], #-13
    1044:	00010601 	andeq	r0, r1, r1, lsl #12
    1048:	4a010402 	bmi	42058 <__bss_end__+0x380b0>
    104c:	12052f06 	andne	r2, r5, #6, 30
    1050:	054a0106 	strbeq	r0, [sl, #-262]	; 0xfffffefa
    1054:	052f060d 	streq	r0, [pc, #-1549]!	; a4f <__code_start__-0x75b1>
    1058:	05010612 	streq	r0, [r1, #-1554]	; 0xfffff9ee
    105c:	054b0619 	strbeq	r0, [fp, #-1561]	; 0xfffff9e7
    1060:	04020004 	streq	r0, [r2], #-4
    1064:	01110302 	tsteq	r1, r2, lsl #6
    1068:	02040200 	andeq	r0, r4, #0, 4
    106c:	00020501 	andeq	r0, r2, r1, lsl #10
    1070:	15020402 	strne	r0, [r2, #-1026]	; 0xfffffbfe
    1074:	02000905 	andeq	r0, r0, #81920	; 0x14000
    1078:	01060204 	tsteq	r6, r4, lsl #4
    107c:	02040200 	andeq	r0, r4, #0, 4
    1080:	0001054a 	andeq	r0, r1, sl, asr #10
    1084:	9f020402 	svcls	0x00020402
    1088:	03060405 	movweq	r0, #25605	; 0x6405
    108c:	09054a6e 	stmdbeq	r5, {r1, r2, r3, r5, r6, r9, fp, lr}
    1090:	04050106 	streq	r0, [r5], #-262	; 0xfffffefa
    1094:	06052f06 	streq	r2, [r5], -r6, lsl #30
    1098:	04051106 	streq	r1, [r5], #-262	; 0xfffffefa
    109c:	030b052f 	movweq	r0, #46383	; 0xb52f
    10a0:	19052e63 	stmdbne	r5, {r0, r1, r5, r6, r9, sl, fp, sp}
    10a4:	01040200 	mrseq	r0, R12_usr
    10a8:	2e240306 	cdpcs	3, 2, cr0, cr4, cr6, {0}
    10ac:	02001a05 	andeq	r1, r0, #20480	; 0x5000
    10b0:	05130104 	ldreq	r0, [r3, #-260]	; 0xfffffefc
    10b4:	04020028 	streq	r0, [r2], #-40	; 0xffffffd8
    10b8:	05010601 	streq	r0, [r1, #-1537]	; 0xfffff9ff
    10bc:	04020025 	streq	r0, [r2], #-37	; 0xffffffdb
    10c0:	1f052e01 	svcne	0x00052e01
    10c4:	01040200 	mrseq	r0, R12_usr
    10c8:	000b054a 	andeq	r0, fp, sl, asr #10
    10cc:	06010402 	streq	r0, [r1], -r2, lsl #8
    10d0:	0004054b 	andeq	r0, r4, fp, asr #10
    10d4:	06010402 	streq	r0, [r1], -r2, lsl #8
    10d8:	04020001 	streq	r0, [r2], #-1
    10dc:	02004a01 	andeq	r4, r0, #4096	; 0x1000
    10e0:	4e060104 	adfmis	f0, f6, f4
    10e4:	01040200 	mrseq	r0, R12_usr
    10e8:	04020001 	streq	r0, [r2], #-1
    10ec:	02000101 	andeq	r0, r0, #1073741824	; 0x40000000
    10f0:	00010104 	andeq	r0, r1, r4, lsl #2
    10f4:	06010402 	streq	r0, [r1], -r2, lsl #8
    10f8:	0402002e 	streq	r0, [r2], #-46	; 0xffffffd2
    10fc:	02006601 	andeq	r6, r0, #1048576	; 0x100000
    1100:	002e0104 	eoreq	r0, lr, r4, lsl #2
    1104:	06010402 	streq	r0, [r1], -r2, lsl #8
    1108:	0348054a 	movteq	r0, #34122	; 0x854a
    110c:	20087fa6 	andcs	r7, r8, r6, lsr #31
    1110:	01130505 	tsteq	r3, r5, lsl #10
    1114:	02002e06 	andeq	r2, r0, #96	; 0x60
    1118:	2e060204 	cdpcs	2, 0, cr0, cr6, cr4, {0}
    111c:	02040200 	andeq	r0, r4, #0, 4
    1120:	04020001 	streq	r0, [r2], #-1
    1124:	11051302 	tstne	r5, r2, lsl #6
    1128:	02040200 	andeq	r0, r4, #0, 4
    112c:	05050106 	streq	r0, [r5, #-262]	; 0xfffffefa
    1130:	02040200 	andeq	r0, r4, #0, 4
    1134:	07054b06 	streq	r4, [r5, -r6, lsl #22]
    1138:	02040200 	andeq	r0, r4, #0, 4
    113c:	09050106 	stmdbeq	r5, {r1, r2, r8}
    1140:	0e054b06 	vmlaeq.f64	d4, d5, d6
    1144:	48050106 	stmdami	r5, {r1, r2, r8}
    1148:	01040200 	mrseq	r0, R12_usr
    114c:	00050562 	andeq	r0, r5, r2, ror #10
    1150:	06010402 	streq	r0, [r1], -r2, lsl #8
    1154:	0402004b 	streq	r0, [r2], #-75	; 0xffffffb5
    1158:	02000101 	andeq	r0, r0, #1073741824	; 0x40000000
    115c:	9e060104 	adflss	f0, f6, f4
    1160:	01040200 	mrseq	r0, R12_usr
    1164:	0402002e 	streq	r0, [r2], #-46	; 0xffffffd2
    1168:	052e0601 	streq	r0, [lr, #-1537]!	; 0xfffff9ff
    116c:	00e10340 	rsceq	r0, r1, r0, asr #6
    1170:	050106d6 	streq	r0, [r1, #-1750]	; 0xfffff92a
    1174:	059f0602 	ldreq	r0, [pc, #1538]	; 177e <__code_start__-0x6882>
    1178:	0501061e 	streq	r0, [r1, #-1566]	; 0xfffff9e2
    117c:	05052e12 	streq	r2, [r5, #-3602]	; 0xfffff1ee
    1180:	02052f06 	andeq	r2, r5, #6, 30
    1184:	06090514 			; <UNDEFINED> instruction: 0x06090514
    1188:	06050501 	streq	r0, [r5], -r1, lsl #10
    118c:	1302054b 	movwne	r0, #9547	; 0x254b
    1190:	0d060805 	stceq	8, cr0, [r6, #-20]	; 0xffffffec
    1194:	05330205 	ldreq	r0, [r3, #-517]!	; 0xfffffdfb
    1198:	054c0604 	strbeq	r0, [ip, #-1540]	; 0xfffff9fc
    119c:	0501060f 	streq	r0, [r1, #-1551]	; 0xfffff9f1
    11a0:	08052e09 	stmdaeq	r5, {r0, r3, r9, sl, fp, sp}
    11a4:	02052c06 	andeq	r2, r5, #1536	; 0x600
    11a8:	0d052e06 	stceq	14, cr2, [r5, #-24]	; 0xffffffe8
    11ac:	01040200 	mrseq	r0, R12_usr
    11b0:	0603054a 	streq	r0, [r3], -sl, asr #10
    11b4:	0605054b 	streq	r0, [r5], -fp, asr #10
    11b8:	06080501 	streq	r0, [r8], -r1, lsl #10
    11bc:	060e054d 	streq	r0, [lr], -sp, asr #10
    11c0:	2e0a0501 	cfsh32cs	mvfx0, mvfx10, #1
    11c4:	2f060405 	svccs	0x00060405
    11c8:	01060905 	tsteq	r6, r5, lsl #18
    11cc:	2f060405 	svccs	0x00060405
    11d0:	01060705 	tsteq	r6, r5, lsl #14
    11d4:	0604052e 	streq	r0, [r4], -lr, lsr #10
    11d8:	06070530 			; <UNDEFINED> instruction: 0x06070530
    11dc:	06040501 	streq	r0, [r4], -r1, lsl #10
    11e0:	05141330 	ldreq	r1, [r4, #-816]	; 0xfffffcd0
    11e4:	0510060d 	ldreq	r0, [r0, #-1549]	; 0xfffff9f3
    11e8:	05300609 	ldreq	r0, [r0, #-1545]!	; 0xfffff9f7
    11ec:	05010612 	streq	r0, [r1, #-1554]	; 0xfffff9ee
    11f0:	09052e0a 	stmdbeq	r5, {r1, r3, r9, sl, fp, sp}
    11f4:	06050566 	streq	r0, [r5], -r6, ror #10
    11f8:	0612054b 	ldreq	r0, [r2], -fp, asr #10
    11fc:	2e160501 	cfmul32cs	mvfx0, mvfx6, mvfx1
    1200:	052e0b05 	streq	r0, [lr, #-2821]!	; 0xfffff4fb
    1204:	052f0605 	streq	r0, [pc, #-1541]!	; c07 <__code_start__-0x73f9>
    1208:	2e010608 	cfmadd32cs	mvax0, mvfx0, mvfx1, mvfx8
    120c:	30060405 	andcc	r0, r6, r5, lsl #8
    1210:	15014a01 	strne	r4, [r1, #-2561]	; 0xfffff5ff
    1214:	01040200 	mrseq	r0, R12_usr
    1218:	000f3602 	andeq	r3, pc, r2, lsl #12
    121c:	01010402 	tsteq	r1, r2, lsl #8
    1220:	01040200 	mrseq	r0, R12_usr
    1224:	341105d6 	ldrcc	r0, [r1], #-1494	; 0xfffffa2a
    1228:	02000113 	andeq	r0, r0, #-1073741820	; 0xc0000004
    122c:	ba060204 	blt	181a44 <__bss_end__+0x177a9c>
    1230:	03040200 	movweq	r0, #16896	; 0x4200
    1234:	0200ba06 	andeq	fp, r0, #24576	; 0x6000
    1238:	00010304 	andeq	r0, r1, r4, lsl #6
    123c:	14030402 	strne	r0, [r3], #-1026	; 0xfffffbfe
    1240:	02001505 	andeq	r1, r0, #20971520	; 0x1400000
    1244:	01060304 	tsteq	r6, r4, lsl #6
    1248:	02001105 	andeq	r1, r0, #1073741825	; 0x40000001
    124c:	2f060304 	svccs	0x00060304
    1250:	02001a05 	andeq	r1, r0, #20480	; 0x5000
    1254:	01060304 	tsteq	r6, r4, lsl #6
    1258:	02001105 	andeq	r1, r0, #1073741825	; 0x40000001
    125c:	d7060304 	strle	r0, [r6, -r4, lsl #6]
    1260:	03040200 	movweq	r0, #16896	; 0x4200
    1264:	04020013 	streq	r0, [r2], #-19	; 0xffffffed
    1268:	02001403 	andeq	r1, r0, #50331648	; 0x3000000
    126c:	00670304 	rsbeq	r0, r7, r4, lsl #6
    1270:	68030402 	stmdavs	r3, {r1, sl}
    1274:	02001405 	andeq	r1, r0, #83886080	; 0x5000000
    1278:	01060304 	tsteq	r6, r4, lsl #6
    127c:	02001305 	andeq	r1, r0, #335544320	; 0x14000000
    1280:	05820304 	streq	r0, [r2, #772]	; 0x304
    1284:	054e0618 	strbeq	r0, [lr, #-1560]	; 0xfffff9e8
    1288:	0501061b 	streq	r0, [r1, #-1563]	; 0xfffff9e5
    128c:	0905821a 	stmdbeq	r5, {r1, r3, r4, r9, pc}
    1290:	0d054b06 	vstreq	d4, [r5, #-24]	; 0xffffffe8
    1294:	052e0106 	streq	r0, [lr, #-262]!	; 0xfffffefa
    1298:	06f30609 	ldrbteq	r0, [r3], r9, lsl #12
    129c:	061505ba 			; <UNDEFINED> instruction: 0x061505ba
    12a0:	06180530 			; <UNDEFINED> instruction: 0x06180530
    12a4:	66170501 	ldrvs	r0, [r7], -r1, lsl #10
    12a8:	4b061905 	blmi	1876c4 <__bss_end__+0x17d71c>
    12ac:	03061505 	movweq	r1, #25861	; 0x6505
    12b0:	1105666f 	tstne	r5, pc, ror #12
    12b4:	d6014806 	strle	r4, [r1], -r6, lsl #16
    12b8:	0b030905 	bleq	c36d4 <__bss_end__+0xb972c>
    12bc:	060d052e 	streq	r0, [sp], -lr, lsr #10
    12c0:	09052e01 	stmdbeq	r5, {r0, r9, sl, fp, sp}
    12c4:	ba06f306 	blt	1bdee4 <__bss_end__+0x1b3f3c>
    12c8:	2f061505 	svccs	0x00061505
    12cc:	66750306 	ldrbtvs	r0, [r5], -r6, lsl #6
    12d0:	03061905 	movweq	r1, #26885	; 0x6905
    12d4:	15054a13 	strne	r4, [r5, #-2579]	; 0xfffff5ed
    12d8:	666d0306 	strbtvs	r0, [sp], -r6, lsl #6
    12dc:	4a150306 	bmi	541efc <__bss_end__+0x537f54>
    12e0:	2e06ba01 	vmlacs.f32	s22, s12, s2
    12e4:	1a060505 	bne	182700 <__bss_end__+0x178758>
    12e8:	032e9e01 			; <UNDEFINED> instruction: 0x032e9e01
    12ec:	0905010e 	stmdbeq	r5, {r1, r2, r3, r8}
    12f0:	05050106 	streq	r0, [r5, #-262]	; 0xfffffefa
    12f4:	05750806 	ldrbeq	r0, [r5, #-2054]!	; 0xfffff7fa
    12f8:	01180304 	tsteq	r8, r4, lsl #6
    12fc:	01060705 	tsteq	r6, r5, lsl #14
    1300:	31060405 	tstcc	r6, r5, lsl #8
    1304:	67030505 	strvs	r0, [r3, -r5, lsl #10]
    1308:	061c052e 	ldreq	r0, [ip], -lr, lsr #10
    130c:	82090501 	andhi	r0, r9, #4194304	; 0x400000
    1310:	f3060505 	vrshl.u8	d0, d5, d6
    1314:	061c0531 			; <UNDEFINED> instruction: 0x061c0531
    1318:	82090501 	andhi	r0, r9, #4194304	; 0x400000
    131c:	f3060505 	vrshl.u8	d0, d5, d6
    1320:	061b0530 			; <UNDEFINED> instruction: 0x061b0530
    1324:	82090501 	andhi	r0, r9, #4194304	; 0x400000
    1328:	f3060505 	vrshl.u8	d0, d5, d6
    132c:	06070530 			; <UNDEFINED> instruction: 0x06070530
    1330:	06050501 	streq	r0, [r5], -r1, lsl #10
    1334:	09053083 	stmdbeq	r5, {r0, r1, r7, ip, sp}
    1338:	05050106 	streq	r0, [r5, #-262]	; 0xfffffefa
    133c:	05750806 	ldrbeq	r0, [r5, #-2054]!	; 0xfffff7fa
    1340:	22053011 	andcs	r3, r5, #17, 0
    1344:	05050106 	streq	r0, [r5, #-262]	; 0xfffffefa
    1348:	11054b06 	tstne	r5, r6, lsl #22
    134c:	83050583 	movwhi	r0, #21891	; 0x5583
    1350:	05359e01 	ldreq	r9, [r5, #-3585]!	; 0xfffff1ff
    1354:	0501060e 	streq	r0, [r1, #-1550]	; 0xfffff9f2
    1358:	2d062e0a 	stccs	14, cr2, [r6, #-40]	; 0xffffffd8
    135c:	01060405 	tsteq	r6, r5, lsl #8
    1360:	02001305 	andeq	r1, r0, #335544320	; 0x14000000
    1364:	054a0104 	strbeq	r0, [sl, #-260]	; 0xfffffefc
    1368:	04020010 	streq	r0, [r2], #-16
    136c:	02002e01 	andeq	r2, r0, #1, 28
    1370:	05660104 	strbeq	r0, [r6, #-260]!	; 0xfffffefc
    1374:	05160602 	ldreq	r0, [r6, #-1538]	; 0xfffff9fe
    1378:	05010607 	streq	r0, [r1, #-1543]	; 0xfffff9f9
    137c:	054b0602 	strbeq	r0, [fp, #-1538]	; 0xfffff9fe
    1380:	66130601 	ldrvs	r0, [r3], -r1, lsl #12
    1384:	01001e02 	tsteq	r0, r2, lsl #28
    1388:	0000a101 	andeq	sl, r0, r1, lsl #2
    138c:	86000300 	strhi	r0, [r0], -r0, lsl #6
    1390:	02000000 	andeq	r0, r0, #0, 0
    1394:	0d0efb01 	vstreq	d15, [lr, #-4]
    1398:	01010100 	mrseq	r0, (UNDEF: 17)
    139c:	00000001 	andeq	r0, r0, r1
    13a0:	01000001 	tsteq	r0, r1
    13a4:	74732f2e 	ldrbtvc	r2, [r3], #-3886	; 0xfffff0d2
    13a8:	2d666661 	stclcs	6, cr6, [r6, #-388]!	; 0xfffffe7c
    13ac:	00637273 	rsbeq	r7, r3, r3, ror r2
    13b0:	6573552f 	ldrbvs	r5, [r3, #-1327]!	; 0xfffffad1
    13b4:	6a2f7372 	bvs	bde184 <__bss_end__+0xbd41dc>
    13b8:	65696d61 	strbvs	r6, [r9, #-3425]!	; 0xfffff29f
    13bc:	636f442f 	cmnvs	pc, #788529152	; 0x2f000000
    13c0:	6e656d75 	mcrvs	13, 3, r6, cr5, cr5, {3}
    13c4:	432f7374 			; <UNDEFINED> instruction: 0x432f7374
    13c8:	30343153 	eorscc	r3, r4, r3, asr r1
    13cc:	73632f45 	cmnvc	r3, #276	; 0x114
    13d0:	45303431 	ldrmi	r3, [r0, #-1073]!	; 0xfffffbcf
    13d4:	6e69662d 	cdpvs	6, 6, cr6, cr9, cr13, {1}
    13d8:	702d6c61 	eorvc	r6, sp, r1, ror #24
    13dc:	656a6f72 	strbvs	r6, [sl, #-3954]!	; 0xfffff08e
    13e0:	6c2f7463 	cfstrsvs	mvf7, [pc], #-396	; 125c <__code_start__-0x6da4>
    13e4:	2d736269 	lfmcs	f6, 2, [r3, #-420]!	; 0xfffffe5c
    13e8:	6c303432 	cfldrsvs	mvf3, [r0], #-200	; 0xffffff38
    13ec:	696c2f78 	stmdbvs	ip!, {r3, r4, r5, r6, r8, r9, sl, fp, sp}^
    13f0:	2f697062 	svccs	0x00697062
    13f4:	6c636e69 	stclvs	14, cr6, [r3], #-420	; 0xfffffe5c
    13f8:	00656475 	rsbeq	r6, r5, r5, ror r4
    13fc:	656c6300 	strbvs	r6, [ip, #-768]!	; 0xfffffd00
    1400:	722d6e61 	eorvc	r6, sp, #1552	; 0x610
    1404:	6f6f6265 	svcvs	0x006f6265
    1408:	00632e74 	rsbeq	r2, r3, r4, ror lr
    140c:	72000001 	andvc	r0, r0, #1, 0
    1410:	682e6970 	stmdavs	lr!, {r4, r5, r6, r8, fp, sp, lr}
    1414:	00000200 	andeq	r0, r0, r0, lsl #4
    1418:	00190500 	andseq	r0, r9, r0, lsl #10
    141c:	91d80205 	bicsls	r0, r8, r5, lsl #4
    1420:	05150000 	ldreq	r0, [r5, #-0]
    1424:	2f832f05 	svccs	0x00832f05
    1428:	0006024b 	andeq	r0, r6, fp, asr #4
    142c:	00bb0101 	adcseq	r0, fp, r1, lsl #2
    1430:	00030000 	andeq	r0, r3, r0
    1434:	00000080 	andeq	r0, r0, r0, lsl #1
    1438:	0efb0102 	cdpeq	1, 15, cr0, cr11, cr2, {0}
    143c:	0101000d 	tsteq	r1, sp
    1440:	00000101 	andeq	r0, r0, r1, lsl #2
    1444:	00000100 	andeq	r0, r0, r0, lsl #2
    1448:	732f2e01 			; <UNDEFINED> instruction: 0x732f2e01
    144c:	66666174 			; <UNDEFINED> instruction: 0x66666174
    1450:	6372732d 	cmnvs	r2, #-1275068416	; 0xb4000000
    1454:	73552f00 	cmpvc	r5, #0, 30
    1458:	2f737265 	svccs	0x00737265
    145c:	696d616a 	stmdbvs	sp!, {r1, r3, r5, r6, r8, sp, lr}^
    1460:	6f442f65 	svcvs	0x00442f65
    1464:	656d7563 	strbvs	r7, [sp, #-1379]!	; 0xfffffa9d
    1468:	2f73746e 	svccs	0x0073746e
    146c:	34315343 	ldrtcc	r5, [r1], #-835	; 0xfffffcbd
    1470:	632f4530 			; <UNDEFINED> instruction: 0x632f4530
    1474:	30343173 	eorscc	r3, r4, r3, ror r1
    1478:	69662d45 	stmdbvs	r6!, {r0, r2, r6, r8, sl, fp, sp}^
    147c:	2d6c616e 	stfcse	f6, [ip, #-440]!	; 0xfffffe48
    1480:	6a6f7270 	bvs	1bdde48 <__bss_end__+0x1bd3ea0>
    1484:	2f746365 	svccs	0x00746365
    1488:	7362696c 	cmnvc	r2, #108, 18	; 0x1b0000
    148c:	3034322d 	eorscc	r3, r4, sp, lsr #4
    1490:	6c2f786c 	stcvs	8, cr7, [pc], #-432	; 12e8 <__code_start__-0x6d18>
    1494:	69706269 	ldmdbvs	r0!, {r0, r3, r5, r6, r9, sp, lr}^
    1498:	636e692f 	cmnvs	lr, #770048	; 0xbc000
    149c:	6564756c 	strbvs	r7, [r4, #-1388]!	; 0xfffffa94
    14a0:	73630000 	cmnvc	r3, #0, 0
    14a4:	74726174 	ldrbtvc	r6, [r2], #-372	; 0xfffffe8c
    14a8:	0100632e 	tsteq	r0, lr, lsr #6
    14ac:	70720000 	rsbsvc	r0, r2, r0
    14b0:	00682e69 	rsbeq	r2, r8, r9, ror #28
    14b4:	00000002 	andeq	r0, r0, r2
    14b8:	05001005 	streq	r1, [r0, #-5]
    14bc:	00920402 	addseq	r0, r2, r2, lsl #8
    14c0:	05051500 	streq	r1, [r5, #-1280]	; 0xfffffb00
    14c4:	1302052f 	movwne	r0, #9519	; 0x252f
    14c8:	30140505 	andscc	r0, r4, r5, lsl #10
    14cc:	0a051413 	beq	146520 <__bss_end__+0x13c578>
    14d0:	31060f06 	tstcc	r6, r6, lsl #30
    14d4:	054b0905 	strbeq	r0, [fp, #-2309]	; 0xfffff6fb
    14d8:	4a010610 	bmi	42d20 <__bss_end__+0x38d78>
    14dc:	30060505 	andcc	r0, r6, r5, lsl #10
    14e0:	4a010132 	bmi	419b0 <__bss_end__+0x37a08>
    14e4:	2f020514 	svccs	0x00020514
    14e8:	01000602 	tsteq	r0, r2, lsl #12
    14ec:	00009f01 	andeq	r9, r0, r1, lsl #30
    14f0:	87000300 	strhi	r0, [r0, -r0, lsl #6]
    14f4:	02000000 	andeq	r0, r0, #0, 0
    14f8:	0d0efb01 	vstreq	d15, [lr, #-4]
    14fc:	01010100 	mrseq	r0, (UNDEF: 17)
    1500:	00000001 	andeq	r0, r0, r1
    1504:	01000001 	tsteq	r0, r1
    1508:	74732f2e 	ldrbtvc	r2, [r3], #-3886	; 0xfffff0d2
    150c:	2d666661 	stclcs	6, cr6, [r6, #-388]!	; 0xfffffe7c
    1510:	00637273 	rsbeq	r7, r3, r3, ror r2
    1514:	6573552f 	ldrbvs	r5, [r3, #-1327]!	; 0xfffffad1
    1518:	6a2f7372 	bvs	bde2e8 <__bss_end__+0xbd4340>
    151c:	65696d61 	strbvs	r6, [r9, #-3425]!	; 0xfffff29f
    1520:	636f442f 	cmnvs	pc, #788529152	; 0x2f000000
    1524:	6e656d75 	mcrvs	13, 3, r6, cr5, cr5, {3}
    1528:	432f7374 			; <UNDEFINED> instruction: 0x432f7374
    152c:	30343153 	eorscc	r3, r4, r3, asr r1
    1530:	73632f45 	cmnvc	r3, #276	; 0x114
    1534:	45303431 	ldrmi	r3, [r0, #-1073]!	; 0xfffffbcf
    1538:	6e69662d 	cdpvs	6, 6, cr6, cr9, cr13, {1}
    153c:	702d6c61 	eorvc	r6, sp, r1, ror #24
    1540:	656a6f72 	strbvs	r6, [sl, #-3954]!	; 0xfffff08e
    1544:	6c2f7463 	cfstrsvs	mvf7, [pc], #-396	; 13c0 <__code_start__-0x6c40>
    1548:	2d736269 	lfmcs	f6, 2, [r3, #-420]!	; 0xfffffe5c
    154c:	6c303432 	cfldrsvs	mvf3, [r0], #-200	; 0xffffff38
    1550:	696c2f78 	stmdbvs	ip!, {r3, r4, r5, r6, r8, r9, sl, fp, sp}^
    1554:	2f697062 	svccs	0x00697062
    1558:	6c636e69 	stclvs	14, cr6, [r3], #-420	; 0xfffffe5c
    155c:	00656475 	rsbeq	r6, r5, r5, ror r4
    1560:	73756300 	cmnvc	r5, #0, 6
    1564:	2d6d6f74 	stclcs	15, cr6, [sp, #-464]!	; 0xfffffe30
    1568:	64616f6c 	strbtvs	r6, [r1], #-3948	; 0xfffff094
    156c:	632e7265 			; <UNDEFINED> instruction: 0x632e7265
    1570:	00000100 	andeq	r0, r0, r0, lsl #2
    1574:	2e697072 	mcrcs	0, 3, r7, cr9, cr2, {3}
    1578:	00020068 	andeq	r0, r2, r8, rrx
    157c:	1a050000 	bne	141584 <__bss_end__+0x1375dc>
    1580:	40020500 	andmi	r0, r2, r0, lsl #10
    1584:	15000092 	strne	r0, [r0, #-146]	; 0xffffff6e
    1588:	02140105 	andseq	r0, r4, #1073741825	; 0x40000001
    158c:	01010002 	tsteq	r1, r2
    1590:	000000ef 	andeq	r0, r0, pc, ror #1
    1594:	00800003 	addeq	r0, r0, r3
    1598:	01020000 	mrseq	r0, (UNDEF: 2)
    159c:	000d0efb 	strdeq	r0, [sp], -fp
    15a0:	01010101 	tsteq	r1, r1, lsl #2
    15a4:	01000000 	mrseq	r0, (UNDEF: 0)
    15a8:	2e010000 	cdpcs	0, 0, cr0, cr1, cr0, {0}
    15ac:	6174732f 	cmnvs	r4, pc, lsr #6
    15b0:	732d6666 			; <UNDEFINED> instruction: 0x732d6666
    15b4:	2f006372 	svccs	0x00006372
    15b8:	72657355 	rsbvc	r7, r5, #1409286145	; 0x54000001
    15bc:	616a2f73 	smcvs	41715	; 0xa2f3
    15c0:	2f65696d 	svccs	0x0065696d
    15c4:	75636f44 	strbvc	r6, [r3, #-3908]!	; 0xfffff0bc
    15c8:	746e656d 	strbtvc	r6, [lr], #-1389	; 0xfffffa93
    15cc:	53432f73 	movtpl	r2, #16243	; 0x3f73
    15d0:	45303431 	ldrmi	r3, [r0, #-1073]!	; 0xfffffbcf
    15d4:	3173632f 	cmncc	r3, pc, lsr #6
    15d8:	2d453034 	stclcs	0, cr3, [r5, #-208]	; 0xffffff30
    15dc:	616e6966 	cmnvs	lr, r6, ror #18
    15e0:	72702d6c 	rsbsvc	r2, r0, #108, 26	; 0x1b00
    15e4:	63656a6f 	cmnvs	r5, #454656	; 0x6f000
    15e8:	696c2f74 	stmdbvs	ip!, {r2, r4, r5, r6, r8, r9, sl, fp, sp}^
    15ec:	322d7362 	eorcc	r7, sp, #-2013265919	; 0x88000001
    15f0:	786c3034 	stmdavc	ip!, {r2, r4, r5, ip, sp}^
    15f4:	62696c2f 	rsbvs	r6, r9, #12032	; 0x2f00
    15f8:	692f6970 	stmdbvs	pc!, {r4, r5, r6, r8, fp, sp, lr}	; <UNPREDICTABLE>
    15fc:	756c636e 	strbvc	r6, [ip, #-878]!	; 0xfffffc92
    1600:	00006564 	andeq	r6, r0, r4, ror #10
    1604:	6f626572 	svcvs	0x00626572
    1608:	632e746f 			; <UNDEFINED> instruction: 0x632e746f
    160c:	00000100 	andeq	r0, r0, r0, lsl #2
    1610:	2e697072 	mcrcs	0, 3, r7, cr9, cr2, {3}
    1614:	00020068 	andeq	r0, r2, r8, rrx
    1618:	19050000 	stmdbne	r5, {}	; <UNPREDICTABLE>
    161c:	5c020500 	cfstr32pl	mvfx0, [r2], {-0}
    1620:	03000092 	movweq	r0, #146	; 0x92
    1624:	0505010d 	streq	r0, [r5, #-269]	; 0xfffffef3
    1628:	05311313 	ldreq	r1, [r1, #-787]!	; 0xfffffced
    162c:	05010613 	streq	r0, [r1, #-1555]	; 0xfffff9ed
    1630:	1b052f01 	blne	14d23c <__bss_end__+0x143294>
    1634:	05058506 	streq	r8, [r5, #-1286]	; 0xfffffafa
    1638:	09051413 	stmdbeq	r5, {r0, r1, r4, sl, ip}
    163c:	0616052f 	ldreq	r0, [r6], -pc, lsr #10
    1640:	2e0e0501 	cfsh32cs	mvfx0, mvfx14, #1
    1644:	2f060505 	svccs	0x00060505
    1648:	2f060105 	svccs	0x00060105
    164c:	30061705 	andcc	r1, r6, r5, lsl #14
    1650:	052f0505 	streq	r0, [pc, #-1285]!	; 1153 <__code_start__-0x6ead>
    1654:	05010608 	streq	r0, [r1, #-1544]	; 0xfffff9f8
    1658:	05052e07 	streq	r2, [r5, #-3591]	; 0xfffff1f9
    165c:	2f305006 	svccs	0x00305006
    1660:	1313134d 	tstne	r3, #872415233	; 0x34000001
    1664:	02006715 	andeq	r6, r0, #5505024	; 0x540000
    1668:	05670104 	strbeq	r0, [r7, #-260]!	; 0xfffffefc
    166c:	0402000d 	streq	r0, [r2], #-13
    1670:	0a050101 	beq	141a7c <__bss_end__+0x137ad4>
    1674:	01040200 	mrseq	r0, R12_usr
    1678:	03090501 	movweq	r0, #38145	; 0x9501
    167c:	0c022e6d 	stceq	14, cr2, [r2], {109}	; 0x6d
    1680:	f6010100 			; <UNDEFINED> instruction: 0xf6010100
    1684:	03000000 	movweq	r0, #0
    1688:	00007f00 	andeq	r7, r0, r0, lsl #30
    168c:	fb010200 	blx	41e96 <__bss_end__+0x37eee>
    1690:	01000d0e 	tsteq	r0, lr, lsl #26
    1694:	00010101 	andeq	r0, r1, r1, lsl #2
    1698:	00010000 	andeq	r0, r1, r0
    169c:	2f2e0100 	svccs	0x002e0100
    16a0:	66617473 			; <UNDEFINED> instruction: 0x66617473
    16a4:	72732d66 	rsbsvc	r2, r3, #6528	; 0x1980
    16a8:	552f0063 	strpl	r0, [pc, #-99]!	; 164d <__code_start__-0x69b3>
    16ac:	73726573 	cmnvc	r2, #482344960	; 0x1cc00000
    16b0:	6d616a2f 	vstmdbvs	r1!, {s13-s59}
    16b4:	442f6569 	strtmi	r6, [pc], #-1385	; 16bc <__code_start__-0x6944>
    16b8:	6d75636f 	ldclvs	3, cr6, [r5, #-444]!	; 0xfffffe44
    16bc:	73746e65 	cmnvc	r4, #1616	; 0x650
    16c0:	3153432f 	cmpcc	r3, pc, lsr #6
    16c4:	2f453034 	svccs	0x00453034
    16c8:	34317363 	ldrtcc	r7, [r1], #-867	; 0xfffffc9d
    16cc:	662d4530 			; <UNDEFINED> instruction: 0x662d4530
    16d0:	6c616e69 	stclvs	14, cr6, [r1], #-420	; 0xfffffe5c
    16d4:	6f72702d 	svcvs	0x0072702d
    16d8:	7463656a 	strbtvc	r6, [r3], #-1386	; 0xfffffa96
    16dc:	62696c2f 	rsbvs	r6, r9, #12032	; 0x2f00
    16e0:	34322d73 	ldrtcc	r2, [r2], #-3443	; 0xfffff28d
    16e4:	2f786c30 	svccs	0x00786c30
    16e8:	7062696c 	rsbvc	r6, r2, ip, ror #18
    16ec:	6e692f69 	cdpvs	15, 6, cr2, cr9, cr9, {3}
    16f0:	64756c63 	ldrbtvs	r6, [r5], #-3171	; 0xfffff39d
    16f4:	74000065 	strvc	r0, [r0], #-101	; 0xffffff9b
    16f8:	72656d69 	rsbvc	r6, r5, #6720	; 0x1a40
    16fc:	0100632e 	tsteq	r0, lr, lsr #6
    1700:	70720000 	rsbsvc	r0, r2, r0
    1704:	00682e69 	rsbeq	r2, r8, r9, ror #28
    1708:	00000002 	andeq	r0, r0, r2
    170c:	05002305 	streq	r2, [r0, #-773]	; 0xfffffcfb
    1710:	0092dc02 	addseq	sp, r2, r2, lsl #24
    1714:	05051500 	streq	r1, [r5, #-1280]	; 0xfffffb00
    1718:	060c052f 	streq	r0, [ip], -pc, lsr #10
    171c:	4b010501 	blmi	42b28 <__bss_end__+0x38b80>
    1720:	4d061f05 	stcmi	15, cr1, [r6, #-20]	; 0xffffffec
    1724:	2f310505 	svccs	0x00310505
    1728:	01061205 	tsteq	r6, r5, lsl #4
    172c:	4b060505 	blmi	182b48 <__bss_end__+0x178ba0>
    1730:	0601052f 	streq	r0, [r1], -pc, lsr #10
    1734:	061c0513 			; <UNDEFINED> instruction: 0x061c0513
    1738:	0501064c 	streq	r0, [r1, #-1612]	; 0xfffff9b4
    173c:	054b0605 	strbeq	r0, [fp, #-1541]	; 0xfffff9fb
    1740:	2e010613 	mcrcs	6, 0, r0, cr1, cr3, {0}
    1744:	2f060505 	svccs	0x00060505
    1748:	05130905 	ldreq	r0, [r3, #-2309]	; 0xfffff6fb
    174c:	05010617 	streq	r0, [r1, #-1559]	; 0xfffff9e9
    1750:	052f0609 	streq	r0, [pc, #-1545]!	; 114f <__code_start__-0x6eb1>
    1754:	05010611 	streq	r0, [r1, #-1553]	; 0xfffff9ef
    1758:	1c052e0c 	stcne	14, cr2, [r5], {12}
    175c:	01066b06 	tsteq	r6, r6, lsl #22
    1760:	2f060505 	svccs	0x00060505
    1764:	01054a06 	tsteq	r5, r6, lsl #20
    1768:	061e054b 	ldreq	r0, [lr], -fp, asr #10
    176c:	0501062f 	streq	r0, [r1, #-1583]	; 0xfffff9d1
    1770:	062f0605 	strteq	r0, [pc], -r5, lsl #12
    1774:	4b01054a 	blmi	42ca4 <__bss_end__+0x38cfc>
    1778:	01000202 	tsteq	r0, r2, lsl #4
    177c:	0001bb01 	andeq	fp, r1, r1, lsl #22
    1780:	bf000300 	svclt	0x00000300
    1784:	02000000 	andeq	r0, r0, #0, 0
    1788:	0d0efb01 	vstreq	d15, [lr, #-4]
    178c:	01010100 	mrseq	r0, (UNDEF: 17)
    1790:	00000001 	andeq	r0, r0, r1
    1794:	01000001 	tsteq	r0, r1
    1798:	6d6f682f 	stclvs	8, cr6, [pc, #-188]!	; 16e4 <__code_start__-0x691c>
    179c:	6e652f65 	cdpvs	15, 6, cr2, cr5, cr5, {3}
    17a0:	72656c67 	rsbvc	r6, r5, #26368	; 0x6700
    17a4:	616c632f 	cmnvs	ip, pc, lsr #6
    17a8:	632f7373 			; <UNDEFINED> instruction: 0x632f7373
    17ac:	30343273 	eorscc	r3, r4, r3, ror r2
    17b0:	322d786c 	eorcc	r7, sp, #108, 16	; 0x6c0000
    17b4:	72707332 	rsbsvc	r7, r0, #-939524096	; 0xc8000000
    17b8:	696c2f2f 	stmdbvs	ip!, {r0, r1, r2, r3, r5, r8, r9, sl, fp, sp}^
    17bc:	2f697062 	svccs	0x00697062
    17c0:	6c636e69 	stclvs	14, cr6, [r3], #-420	; 0xfffffe5c
    17c4:	00656475 	rsbeq	r6, r5, r5, ror r4
    17c8:	7273752f 	rsbsvc	r7, r3, #197132288	; 0xbc00000
    17cc:	6168732f 	cmnvs	r8, pc, lsr #6
    17d0:	672f6572 			; <UNDEFINED> instruction: 0x672f6572
    17d4:	612d6363 			; <UNDEFINED> instruction: 0x612d6363
    17d8:	6e2d6d72 	mcrvs	13, 1, r6, cr13, cr2, {3}
    17dc:	2d656e6f 	stclcs	14, cr6, [r5, #-444]!	; 0xfffffe44
    17e0:	69626165 	stmdbvs	r2!, {r0, r2, r5, r6, r8, sp, lr}^
    17e4:	2e30312d 	rsfcssp	f3, f0, #5.0
    17e8:	30322d33 	eorscc	r2, r2, r3, lsr sp
    17ec:	312e3132 			; <UNDEFINED> instruction: 0x312e3132
    17f0:	696c2f30 	stmdbvs	ip!, {r4, r5, r8, r9, sl, fp, sp}^
    17f4:	63672f62 	cmnvs	r7, #392	; 0x188
    17f8:	72612f63 	rsbvc	r2, r1, #396	; 0x18c
    17fc:	6f6e2d6d 	svcvs	0x006e2d6d
    1800:	652d656e 	strvs	r6, [sp, #-1390]!	; 0xfffffa92
    1804:	2f696261 	svccs	0x00696261
    1808:	332e3031 			; <UNDEFINED> instruction: 0x332e3031
    180c:	692f312e 	stmdbvs	pc!, {r1, r2, r3, r5, r8, ip, sp}	; <UNPREDICTABLE>
    1810:	756c636e 	strbvc	r6, [ip, #-878]!	; 0xfffffc92
    1814:	00006564 	andeq	r6, r0, r4, ror #10
    1818:	6f697067 	svcvs	0x00697067
    181c:	0000632e 	andeq	r6, r0, lr, lsr #6
    1820:	70720000 	rsbsvc	r0, r2, r0
    1824:	00682e69 	rsbeq	r2, r8, r9, ror #28
    1828:	73000001 	movwvc	r0, #1
    182c:	6e696474 	mcrvs	4, 3, r6, cr9, cr4, {3}
    1830:	63672d74 	cmnvs	r7, #116, 26	; 0x1d00
    1834:	00682e63 	rsbeq	r2, r8, r3, ror #28
    1838:	67000002 	strvs	r0, [r0, -r2]
    183c:	2e6f6970 			; <UNDEFINED> instruction: 0x2e6f6970
    1840:	00010068 	andeq	r0, r1, r8, rrx
    1844:	38050000 	stmdacc	r5, {}	; <UNPREDICTABLE>
    1848:	60020500 	andvs	r0, r2, r0, lsl #10
    184c:	03000093 	movweq	r0, #147	; 0x93
    1850:	05050127 	streq	r0, [r5, #-295]	; 0xfffffed9
    1854:	06070513 			; <UNDEFINED> instruction: 0x06070513
    1858:	49380501 	ldmdbmi	r8!, {r0, r8, sl}
    185c:	4d060505 	cfstr32mi	mvfx0, [r6, #-20]	; 0xffffffec
    1860:	01060705 	tsteq	r6, r5, lsl #14
    1864:	4c060505 	cfstr32mi	mvfx0, [r6], {5}
    1868:	01061805 	tsteq	r6, r5, lsl #16
    186c:	05ba0e05 	ldreq	r0, [sl, #3589]!	; 0xe05
    1870:	052f0605 	streq	r0, [pc, #-1541]!	; 1273 <__code_start__-0x6d8d>
    1874:	2e01061c 	mcrcs	6, 0, r0, cr1, cr12, {0}
    1878:	052e0e05 	streq	r0, [lr, #-3589]!	; 0xfffff1fb
    187c:	05300605 	ldreq	r0, [r0, #-1541]!	; 0xfffff9fb
    1880:	05010612 	streq	r0, [r1, #-1554]	; 0xfffff9ee
    1884:	054b0605 	strbeq	r0, [fp, #-1541]	; 0xfffff9fb
    1888:	05010607 	streq	r0, [r1, #-1543]	; 0xfffff9f9
    188c:	134b0605 	movtne	r0, #46597	; 0xb605
    1890:	01052e06 	tsteq	r5, r6, lsl #28
    1894:	0624054b 	strteq	r0, [r4], -fp, asr #10
    1898:	0501064c 	streq	r0, [r1, #-1612]	; 0xfffff9b4
    189c:	052f0605 	streq	r0, [pc, #-1541]!	; 129f <__code_start__-0x6d61>
    18a0:	054b0601 	strbeq	r0, [fp, #-1537]	; 0xfffff9ff
    18a4:	05310620 	ldreq	r0, [r1, #-1568]!	; 0xfffff9e0
    18a8:	07051305 	streq	r1, [r5, -r5, lsl #6]
    18ac:	20050106 	andcs	r0, r5, r6, lsl #2
    18b0:	06050549 	streq	r0, [r5], -r9, asr #10
    18b4:	05660631 	strbeq	r0, [r6, #-1585]!	; 0xfffff9cf
    18b8:	21052f01 	tstcs	r5, r1, lsl #30
    18bc:	05054d06 	streq	r4, [r5, #-3334]	; 0xfffff2fa
    18c0:	06070513 			; <UNDEFINED> instruction: 0x06070513
    18c4:	49210501 	stmdbmi	r1!, {r0, r8, sl}
    18c8:	31060505 	tstcc	r6, r5, lsl #10
    18cc:	01056606 	tsteq	r5, r6, lsl #12
    18d0:	0623052f 	strteq	r0, [r3], -pc, lsr #10
    18d4:	0501064d 	streq	r0, [r1, #-1613]	; 0xfffff9b3
    18d8:	052f0605 	streq	r0, [pc, #-1541]!	; 12db <__code_start__-0x6d25>
    18dc:	054b0601 	strbeq	r0, [fp, #-1537]	; 0xfffff9ff
    18e0:	0631062b 	ldrteq	r0, [r1], -fp, lsr #12
    18e4:	06050501 	streq	r0, [r5], -r1, lsl #10
    18e8:	0607052f 	streq	r0, [r7], -pc, lsr #10
    18ec:	06090501 	streq	r0, [r9], -r1, lsl #10
    18f0:	062e064b 	strteq	r0, [lr], -fp, asr #12
    18f4:	06010530 			; <UNDEFINED> instruction: 0x06010530
    18f8:	061d052f 	ldreq	r0, [sp], -pc, lsr #10
    18fc:	13050530 	movwne	r0, #21808	; 0x5530
    1900:	01060705 	tsteq	r6, r5, lsl #14
    1904:	05491d05 	strbeq	r1, [r9, #-3333]	; 0xfffff2fb
    1908:	13310605 	teqne	r1, #5242880	; 0x500000
    190c:	01060e05 	tsteq	r6, r5, lsl #28
    1910:	2f060505 	svccs	0x00060505
    1914:	01061705 	tsteq	r6, r5, lsl #14
    1918:	2e23054a 	cfsh64cs	mvdx0, mvdx3, #42
    191c:	30050204 	andcc	r0, r5, r4, lsl #4
    1920:	00dc0306 	sbcseq	r0, ip, r6, lsl #6
    1924:	0501042e 	streq	r0, [r1, #-1070]	; 0xfffffbd2
    1928:	a403060c 	strge	r0, [r3], #-1548	; 0xfffff9f4
    192c:	0105017f 	tsteq	r5, pc, ror r1
    1930:	2a10052f 	bcs	402df4 <__bss_end__+0x3f8e4c>
    1934:	02320105 	eorseq	r0, r2, #1073741825	; 0x40000001
    1938:	01010004 	tsteq	r1, r4
    193c:	00000205 	andeq	r0, r0, r5, lsl #4
    1940:	00c90003 	sbceq	r0, r9, r3
    1944:	01020000 	mrseq	r0, (UNDEF: 2)
    1948:	000d0efb 	strdeq	r0, [sp], -fp
    194c:	01010101 	tsteq	r1, r1, lsl #2
    1950:	01000000 	mrseq	r0, (UNDEF: 0)
    1954:	2f010000 	svccs	0x00010000
    1958:	656d6f68 	strbvs	r6, [sp, #-3944]!	; 0xfffff098
    195c:	676e652f 	strbvs	r6, [lr, -pc, lsr #10]!
    1960:	2f72656c 	svccs	0x0072656c
    1964:	73616c63 	cmnvc	r1, #25344	; 0x6300
    1968:	73632f73 	cmnvc	r3, #460	; 0x1cc
    196c:	6c303432 	cfldrsvs	mvf3, [r0], #-200	; 0xffffff38
    1970:	32322d78 	eorscc	r2, r2, #120, 26	; 0x1e00
    1974:	2f727073 	svccs	0x00727073
    1978:	62696c2f 	rsbvs	r6, r9, #12032	; 0x2f00
    197c:	692f6970 	stmdbvs	pc!, {r4, r5, r6, r8, fp, sp, lr}	; <UNPREDICTABLE>
    1980:	756c636e 	strbvc	r6, [ip, #-878]!	; 0xfffffc92
    1984:	2f006564 	svccs	0x00006564
    1988:	2f727375 	svccs	0x00727375
    198c:	72616873 	rsbvc	r6, r1, #7536640	; 0x730000
    1990:	63672f65 	cmnvs	r7, #404	; 0x194
    1994:	72612d63 	rsbvc	r2, r1, #6336	; 0x18c0
    1998:	6f6e2d6d 	svcvs	0x006e2d6d
    199c:	652d656e 	strvs	r6, [sp, #-1390]!	; 0xfffffa92
    19a0:	2d696261 	sfmcs	f6, 2, [r9, #-388]!	; 0xfffffe7c
    19a4:	332e3031 			; <UNDEFINED> instruction: 0x332e3031
    19a8:	3230322d 	eorscc	r3, r0, #-805306366	; 0xd0000002
    19ac:	30312e31 	eorscc	r2, r1, r1, lsr lr
    19b0:	62696c2f 	rsbvs	r6, r9, #12032	; 0x2f00
    19b4:	6363672f 	cmnvs	r3, #12320768	; 0xbc0000
    19b8:	6d72612f 	ldfvse	f6, [r2, #-188]!	; 0xffffff44
    19bc:	6e6f6e2d 	cdpvs	14, 6, cr6, cr15, cr13, {1}
    19c0:	61652d65 	cmnvs	r5, r5, ror #26
    19c4:	312f6962 			; <UNDEFINED> instruction: 0x312f6962
    19c8:	2e332e30 	mrccs	14, 1, r2, cr3, cr0, {1}
    19cc:	6e692f31 	mcrvs	15, 3, r2, cr9, cr1, {1}
    19d0:	64756c63 	ldrbtvs	r6, [r5], #-3171	; 0xfffff39d
    19d4:	75000065 	strvc	r0, [r0, #-101]	; 0xffffff9b
    19d8:	2e747261 	cdpcs	2, 7, cr7, cr4, cr1, {3}
    19dc:	00000063 	andeq	r0, r0, r3, rrx
    19e0:	72617500 	rsbvc	r7, r1, #0, 10
    19e4:	00682e74 	rsbeq	r2, r8, r4, ror lr
    19e8:	72000001 	andvc	r0, r0, #1, 0
    19ec:	682e6970 	stmdavs	lr!, {r4, r5, r6, r8, fp, sp, lr}
    19f0:	00000100 	andeq	r0, r0, r0, lsl #2
    19f4:	6f697067 	svcvs	0x00697067
    19f8:	0100682e 	tsteq	r0, lr, lsr #16
    19fc:	74730000 	ldrbtvc	r0, [r3], #-0
    1a00:	746e6964 	strbtvc	r6, [lr], #-2404	; 0xfffff69c
    1a04:	6363672d 	cmnvs	r3, #11796480	; 0xb40000
    1a08:	0200682e 	andeq	r6, r0, #3014656	; 0x2e0000
    1a0c:	05000000 	streq	r0, [r0, #-0]
    1a10:	02050039 	andeq	r0, r5, #57, 0	; 0x39
    1a14:	0000947c 	andeq	r9, r0, ip, ror r4
    1a18:	06013003 	streq	r3, [r1], -r3
    1a1c:	06050501 	streq	r0, [r5], -r1, lsl #10
    1a20:	06110567 	ldreq	r0, [r1], -r7, ror #10
    1a24:	2e050501 	cfsh32cs	mvfx0, mvfx5, #1
    1a28:	05670105 	strbeq	r0, [r7, #-261]!	; 0xfffffefb
    1a2c:	06290638 			; <UNDEFINED> instruction: 0x06290638
    1a30:	06050501 	streq	r0, [r5], -r1, lsl #10
    1a34:	06110567 	ldreq	r0, [r1], -r7, ror #10
    1a38:	2e050501 	cfsh32cs	mvfx0, mvfx5, #1
    1a3c:	05670105 	strbeq	r0, [r7, #-261]!	; 0xfffffefb
    1a40:	15030616 	strne	r0, [r3, #-1558]	; 0xfffff9ea
    1a44:	3505052e 	strcc	r0, [r5, #-1326]	; 0xfffffad2
    1a48:	68356867 	ldmdavs	r5!, {r0, r1, r2, r5, r6, fp, sp, lr}
    1a4c:	852e0c03 	strhi	r0, [lr, #-3075]!	; 0xfffff3fd
    1a50:	0369696b 	cmneq	r9, #1753088	; 0x1ac000
    1a54:	6b13660c 	blvs	4db28c <__bss_end__+0x4d12e4>
    1a58:	06010567 	streq	r0, [r1], -r7, ror #10
    1a5c:	0619052f 	ldreq	r0, [r9], -pc, lsr #10
    1a60:	05052508 	streq	r2, [r5, #-1288]	; 0xfffffaf8
    1a64:	060d0534 			; <UNDEFINED> instruction: 0x060d0534
    1a68:	4c010501 	cfstr32mi	mvfx0, [r1], {1}
    1a6c:	67061905 	strvs	r1, [r6, -r5, lsl #18]
    1a70:	05360505 	ldreq	r0, [r6, #-1285]!	; 0xfffffafb
    1a74:	0501060d 	streq	r0, [r1, #-1549]	; 0xfffff9f3
    1a78:	01054a28 	tsteq	r5, r8, lsr #20
    1a7c:	06150530 			; <UNDEFINED> instruction: 0x06150530
    1a80:	2f050587 	svccs	0x00050587
    1a84:	0009052f 	andeq	r0, r9, pc, lsr #10
    1a88:	13010402 	movwne	r0, #5122	; 0x1402
    1a8c:	02000a05 	andeq	r0, r0, #20480	; 0x5000
    1a90:	05110104 	ldreq	r0, [r1, #-260]	; 0xfffffefc
    1a94:	0402000c 	streq	r0, [r2], #-12
    1a98:	05010601 	streq	r0, [r1, #-1537]	; 0xfffff9ff
    1a9c:	0402000a 	streq	r0, [r2], #-10
    1aa0:	05052e01 	streq	r2, [r5, #-3585]	; 0xfffff1ff
    1aa4:	0e054c06 	cdpeq	12, 0, cr4, cr5, cr6, {0}
    1aa8:	09050106 	stmdbeq	r5, {r1, r2, r8}
    1aac:	0605054a 	streq	r0, [r5], -sl, asr #10
    1ab0:	01052f2f 	tsteq	r5, pc, lsr #30
    1ab4:	1c051306 	stcne	3, cr1, [r5], {6}
    1ab8:	01066706 	tsteq	r6, r6, lsl #14
    1abc:	4b060505 	blmi	182ed8 <__bss_end__+0x178f30>
    1ac0:	0009052f 	andeq	r0, r9, pc, lsr #10
    1ac4:	13010402 	movwne	r0, #5122	; 0x1402
    1ac8:	02000a05 	andeq	r0, r0, #20480	; 0x5000
    1acc:	05110104 	ldreq	r0, [r1, #-260]	; 0xfffffefc
    1ad0:	0402000c 	streq	r0, [r2], #-12
    1ad4:	05010601 	streq	r0, [r1, #-1537]	; 0xfffff9ff
    1ad8:	0402000a 	streq	r0, [r2], #-10
    1adc:	05052e01 	streq	r2, [r5, #-3585]	; 0xfffff1ff
    1ae0:	05674c06 	strbeq	r4, [r7, #-3078]!	; 0xfffff3fa
    1ae4:	052f0601 	streq	r0, [pc, #-1537]!	; 14eb <__code_start__-0x6b15>
    1ae8:	054c0619 	strbeq	r0, [ip, #-1561]	; 0xfffff9e7
    1aec:	2a052e1b 	bcs	14d360 <__bss_end__+0x1433b8>
    1af0:	0631052e 	ldrteq	r0, [r1], -lr, lsr #10
    1af4:	2e420501 	cdpcs	5, 4, cr0, cr2, cr1, {0}
    1af8:	31061c05 	tstcc	r6, r5, lsl #24
    1afc:	032f0505 			; <UNDEFINED> instruction: 0x032f0505
    1b00:	0e052e09 	cdpeq	14, 0, cr2, cr5, cr9, {0}
    1b04:	21050106 	tstcs	r5, r6, lsl #2
    1b08:	0301054a 	movweq	r0, #5450	; 0x154a
    1b0c:	1a052e0a 	bne	14d33c <__bss_end__+0x143394>
    1b10:	09056806 	stmdbeq	r5, {r1, r2, fp, sp, lr}
    1b14:	01040200 	mrseq	r0, R12_usr
    1b18:	000a0530 	andeq	r0, sl, r0, lsr r5
    1b1c:	11010402 	tstne	r1, r2, lsl #8
    1b20:	02000c05 	andeq	r0, r0, #1280	; 0x500
    1b24:	01060104 	tsteq	r6, r4, lsl #2
    1b28:	02000a05 	andeq	r0, r0, #20480	; 0x5000
    1b2c:	052e0104 	streq	r0, [lr, #-260]!	; 0xfffffefc
    1b30:	e8030619 	stmda	r3, {r0, r3, r4, r9, sl}
    1b34:	0505667e 	streq	r6, [r5, #-1662]	; 0xfffff982
    1b38:	672f2f2f 	strvs	r2, [pc, -pc, lsr #30]!
    1b3c:	2f060105 	svccs	0x00060105
    1b40:	01000402 	tsteq	r0, r2, lsl #8
    1b44:	0000ba01 	andeq	fp, r0, r1, lsl #20
    1b48:	7c000300 	stcvc	3, cr0, [r0], {-0}
    1b4c:	02000000 	andeq	r0, r0, #0, 0
    1b50:	0d0efb01 	vstreq	d15, [lr, #-4]
    1b54:	01010100 	mrseq	r0, (UNDEF: 17)
    1b58:	00000001 	andeq	r0, r0, r1
    1b5c:	01000001 	tsteq	r0, r1
    1b60:	696c2f2e 	stmdbvs	ip!, {r1, r2, r3, r5, r8, r9, sl, fp, sp}^
    1b64:	2f006362 	svccs	0x00006362
    1b68:	72657355 	rsbvc	r7, r5, #1409286145	; 0x54000001
    1b6c:	616a2f73 	smcvs	41715	; 0xa2f3
    1b70:	2f65696d 	svccs	0x0065696d
    1b74:	75636f44 	strbvc	r6, [r3, #-3908]!	; 0xfffff0bc
    1b78:	746e656d 	strbtvc	r6, [lr], #-1389	; 0xfffffa93
    1b7c:	53432f73 	movtpl	r2, #16243	; 0x3f73
    1b80:	45303431 	ldrmi	r3, [r0, #-1073]!	; 0xfffffbcf
    1b84:	3173632f 	cmncc	r3, pc, lsr #6
    1b88:	2d453034 	stclcs	0, cr3, [r5, #-208]	; 0xffffff30
    1b8c:	616e6966 	cmnvs	lr, r6, ror #18
    1b90:	72702d6c 	rsbsvc	r2, r0, #108, 26	; 0x1b00
    1b94:	63656a6f 	cmnvs	r5, #454656	; 0x6f000
    1b98:	696c2f74 	stmdbvs	ip!, {r2, r4, r5, r6, r8, r9, sl, fp, sp}^
    1b9c:	322d7362 	eorcc	r7, sp, #-2013265919	; 0x88000001
    1ba0:	786c3034 	stmdavc	ip!, {r2, r4, r5, ip, sp}^
    1ba4:	62696c2f 	rsbvs	r6, r9, #12032	; 0x2f00
    1ba8:	692f6970 	stmdbvs	pc!, {r4, r5, r6, r8, fp, sp, lr}	; <UNPREDICTABLE>
    1bac:	756c636e 	strbvc	r6, [ip, #-878]!	; 0xfffffc92
    1bb0:	00006564 	andeq	r6, r0, r4, ror #10
    1bb4:	63747570 	cmnvs	r4, #112, 10	; 0x1c000000
    1bb8:	2e726168 	rpwcssz	f6, f2, #0.0
    1bbc:	00010063 	andeq	r0, r1, r3, rrx
    1bc0:	69707200 	ldmdbvs	r0!, {r9, ip, sp, lr}^
    1bc4:	0200682e 	andeq	r6, r0, #3014656	; 0x2e0000
    1bc8:	05000000 	streq	r0, [r0, #-0]
    1bcc:	02050024 	andeq	r0, r5, #36, 0	; 0x24
    1bd0:	0000966c 	andeq	r9, r0, ip, ror #12
    1bd4:	05010614 	streq	r0, [r1, #-1556]	; 0xfffff9ec
    1bd8:	054a0626 	strbeq	r0, [sl, #-1574]	; 0xfffff9da
    1bdc:	01052e34 	tsteq	r5, r4, lsr lr
    1be0:	1b050106 	blne	142000 <__bss_end__+0x138058>
    1be4:	05054f06 	streq	r4, [r5, #-3846]	; 0xfffff0fa
    1be8:	06110513 			; <UNDEFINED> instruction: 0x06110513
    1bec:	67010501 	strvs	r0, [r1, -r1, lsl #10]
    1bf0:	67062305 	strvs	r2, [r6, -r5, lsl #6]
    1bf4:	05130505 	ldreq	r0, [r3, #-1285]	; 0xfffffafb
    1bf8:	05010611 	streq	r0, [r1, #-1553]	; 0xfffff9ef
    1bfc:	04024b01 	streq	r4, [r2], #-2817	; 0xfffff4ff
    1c00:	06010100 	streq	r0, [r1], -r0, lsl #2
    1c04:	03000001 	movweq	r0, #1
    1c08:	00007b00 	andeq	r7, r0, r0, lsl #22
    1c0c:	fb010200 	blx	42416 <__bss_end__+0x3846e>
    1c10:	01000d0e 	tsteq	r0, lr, lsl #26
    1c14:	00010101 	andeq	r0, r1, r1, lsl #2
    1c18:	00010000 	andeq	r0, r1, r0
    1c1c:	2f2e0100 	svccs	0x002e0100
    1c20:	6362696c 	cmnvs	r2, #108, 18	; 0x1b0000
    1c24:	73552f00 	cmpvc	r5, #0, 30
    1c28:	2f737265 	svccs	0x00737265
    1c2c:	696d616a 	stmdbvs	sp!, {r1, r3, r5, r6, r8, sp, lr}^
    1c30:	6f442f65 	svcvs	0x00442f65
    1c34:	656d7563 	strbvs	r7, [sp, #-1379]!	; 0xfffffa9d
    1c38:	2f73746e 	svccs	0x0073746e
    1c3c:	34315343 	ldrtcc	r5, [r1], #-835	; 0xfffffcbd
    1c40:	632f4530 			; <UNDEFINED> instruction: 0x632f4530
    1c44:	30343173 	eorscc	r3, r4, r3, ror r1
    1c48:	69662d45 	stmdbvs	r6!, {r0, r2, r6, r8, sl, fp, sp}^
    1c4c:	2d6c616e 	stfcse	f6, [ip, #-440]!	; 0xfffffe48
    1c50:	6a6f7270 	bvs	1bde618 <__bss_end__+0x1bd4670>
    1c54:	2f746365 	svccs	0x00746365
    1c58:	7362696c 	cmnvc	r2, #108, 18	; 0x1b0000
    1c5c:	3034322d 	eorscc	r3, r4, sp, lsr #4
    1c60:	6c2f786c 	stcvs	8, cr7, [pc], #-432	; 1ab8 <__code_start__-0x6548>
    1c64:	69706269 	ldmdbvs	r0!, {r0, r3, r5, r6, r9, sp, lr}^
    1c68:	636e692f 	cmnvs	lr, #770048	; 0xbc000
    1c6c:	6564756c 	strbvs	r7, [r4, #-1388]!	; 0xfffffa94
    1c70:	74730000 	ldrbtvc	r0, [r3], #-0
    1c74:	74616372 	strbtvc	r6, [r1], #-882	; 0xfffffc8e
    1c78:	0100632e 	tsteq	r0, lr, lsr #6
    1c7c:	70720000 	rsbsvc	r0, r2, r0
    1c80:	00682e69 	rsbeq	r2, r8, r9, ror #28
    1c84:	00000002 	andeq	r0, r0, r2
    1c88:	05002c05 	streq	r2, [r0, #-3077]	; 0xfffff3fb
    1c8c:	0096a802 	addseq	sl, r6, r2, lsl #16
    1c90:	05051500 	streq	r1, [r5, #-1280]	; 0xfffffb00
    1c94:	0b051313 	bleq	1468e8 <__bss_end__+0x13c940>
    1c98:	05051106 	streq	r1, [r5, #-262]	; 0xfffffefa
    1c9c:	01040200 	mrseq	r0, R12_usr
    1ca0:	02003006 	andeq	r3, r0, #6, 0
    1ca4:	05150104 	ldreq	r0, [r5, #-260]	; 0xfffffefc
    1ca8:	04020009 	streq	r0, [r2], #-9
    1cac:	10051301 	andne	r1, r5, r1, lsl #6
    1cb0:	01040200 	mrseq	r0, R12_usr
    1cb4:	0b052e06 	bleq	14d4d4 <__bss_end__+0x14352c>
    1cb8:	01040200 	mrseq	r0, R12_usr
    1cbc:	0402002e 	streq	r0, [r2], #-46	; 0xffffffd2
    1cc0:	052f0601 	streq	r0, [pc, #-1537]!	; 16c7 <__code_start__-0x6939>
    1cc4:	04020005 	streq	r0, [r2], #-5
    1cc8:	06010601 	streq	r0, [r1], -r1, lsl #12
    1ccc:	0608054e 	streq	r0, [r8], -lr, asr #10
    1cd0:	00050501 	andeq	r0, r5, r1, lsl #10
    1cd4:	06010402 	streq	r0, [r1], -r2, lsl #8
    1cd8:	0009052f 	andeq	r0, r9, pc, lsr #10
    1cdc:	13010402 	movwne	r0, #5122	; 0x1402
    1ce0:	02000b05 	andeq	r0, r0, #5120	; 0x1400
    1ce4:	01060104 	tsteq	r6, r4, lsl #2
    1ce8:	02000905 	andeq	r0, r0, #81920	; 0x14000
    1cec:	4b060104 	blmi	182104 <__bss_end__+0x17815c>
    1cf0:	02000f05 	andeq	r0, r0, #5, 30
    1cf4:	01060104 	tsteq	r6, r4, lsl #2
    1cf8:	02000d05 	andeq	r0, r0, #320	; 0x140
    1cfc:	2f060104 	svccs	0x00060104
    1d00:	02000505 	andeq	r0, r0, #20971520	; 0x1400000
    1d04:	01060104 	tsteq	r6, r4, lsl #2
    1d08:	01000602 	tsteq	r0, r2, lsl #12
    1d0c:	0000bf01 	andeq	fp, r0, r1, lsl #30
    1d10:	7b000300 	blvc	2918 <__code_start__-0x56e8>
    1d14:	02000000 	andeq	r0, r0, #0, 0
    1d18:	0d0efb01 	vstreq	d15, [lr, #-4]
    1d1c:	01010100 	mrseq	r0, (UNDEF: 17)
    1d20:	00000001 	andeq	r0, r0, r1
    1d24:	01000001 	tsteq	r0, r1
    1d28:	696c2f2e 	stmdbvs	ip!, {r1, r2, r3, r5, r8, r9, sl, fp, sp}^
    1d2c:	2f006362 	svccs	0x00006362
    1d30:	72657355 	rsbvc	r7, r5, #1409286145	; 0x54000001
    1d34:	616a2f73 	smcvs	41715	; 0xa2f3
    1d38:	2f65696d 	svccs	0x0065696d
    1d3c:	75636f44 	strbvc	r6, [r3, #-3908]!	; 0xfffff0bc
    1d40:	746e656d 	strbtvc	r6, [lr], #-1389	; 0xfffffa93
    1d44:	53432f73 	movtpl	r2, #16243	; 0x3f73
    1d48:	45303431 	ldrmi	r3, [r0, #-1073]!	; 0xfffffbcf
    1d4c:	3173632f 	cmncc	r3, pc, lsr #6
    1d50:	2d453034 	stclcs	0, cr3, [r5, #-208]	; 0xffffff30
    1d54:	616e6966 	cmnvs	lr, r6, ror #18
    1d58:	72702d6c 	rsbsvc	r2, r0, #108, 26	; 0x1b00
    1d5c:	63656a6f 	cmnvs	r5, #454656	; 0x6f000
    1d60:	696c2f74 	stmdbvs	ip!, {r2, r4, r5, r6, r8, r9, sl, fp, sp}^
    1d64:	322d7362 	eorcc	r7, sp, #-2013265919	; 0x88000001
    1d68:	786c3034 	stmdavc	ip!, {r2, r4, r5, ip, sp}^
    1d6c:	62696c2f 	rsbvs	r6, r9, #12032	; 0x2f00
    1d70:	692f6970 	stmdbvs	pc!, {r4, r5, r6, r8, fp, sp, lr}	; <UNPREDICTABLE>
    1d74:	756c636e 	strbvc	r6, [ip, #-878]!	; 0xfffffc92
    1d78:	00006564 	andeq	r6, r0, r4, ror #10
    1d7c:	63727473 	cmnvs	r2, #1929379840	; 0x73000000
    1d80:	632e706d 			; <UNDEFINED> instruction: 0x632e706d
    1d84:	00000100 	andeq	r0, r0, r0, lsl #2
    1d88:	2e697072 	mcrcs	0, 3, r7, cr9, cr2, {3}
    1d8c:	00020068 	andeq	r0, r2, r8, rrx
    1d90:	2a050000 	bcs	141d98 <__bss_end__+0x137df0>
    1d94:	dc020500 	cfstr32le	mvfx0, [r2], {-0}
    1d98:	14000096 	strne	r0, [r0], #-150	; 0xffffff6a
    1d9c:	05130905 	ldreq	r0, [r3, #-2309]	; 0xfffff6fb
    1da0:	1005010f 	andne	r0, r5, pc, lsl #2
    1da4:	0f050106 	svceq	0x00050106
    1da8:	001c052e 	andseq	r0, ip, lr, lsr #10
    1dac:	4a010402 	bmi	42dbc <__bss_end__+0x38e14>
    1db0:	02001305 	andeq	r1, r0, #335544320	; 0x14000000
    1db4:	052e0104 	streq	r0, [lr, #-260]!	; 0xfffffefc
    1db8:	052f0611 	streq	r0, [pc, #-1553]!	; 17af <__code_start__-0x6851>
    1dbc:	2e2e0616 	mcrcs	6, 1, r0, cr14, cr6, {0}
    1dc0:	2f060905 	svccs	0x00060905
    1dc4:	01061505 	tsteq	r6, r5, lsl #10
    1dc8:	022f0105 	eoreq	r0, pc, #1073741825	; 0x40000001
    1dcc:	01010004 	tsteq	r1, r4
    1dd0:	000000bd 	strheq	r0, [r0], -sp
    1dd4:	007b0003 	rsbseq	r0, fp, r3
    1dd8:	01020000 	mrseq	r0, (UNDEF: 2)
    1ddc:	000d0efb 	strdeq	r0, [sp], -fp
    1de0:	01010101 	tsteq	r1, r1, lsl #2
    1de4:	01000000 	mrseq	r0, (UNDEF: 0)
    1de8:	2e010000 	cdpcs	0, 0, cr0, cr1, cr0, {0}
    1dec:	62696c2f 	rsbvs	r6, r9, #12032	; 0x2f00
    1df0:	552f0063 	strpl	r0, [pc, #-99]!	; 1d95 <__code_start__-0x626b>
    1df4:	73726573 	cmnvc	r2, #482344960	; 0x1cc00000
    1df8:	6d616a2f 	vstmdbvs	r1!, {s13-s59}
    1dfc:	442f6569 	strtmi	r6, [pc], #-1385	; 1e04 <__code_start__-0x61fc>
    1e00:	6d75636f 	ldclvs	3, cr6, [r5, #-444]!	; 0xfffffe44
    1e04:	73746e65 	cmnvc	r4, #1616	; 0x650
    1e08:	3153432f 	cmpcc	r3, pc, lsr #6
    1e0c:	2f453034 	svccs	0x00453034
    1e10:	34317363 	ldrtcc	r7, [r1], #-867	; 0xfffffc9d
    1e14:	662d4530 			; <UNDEFINED> instruction: 0x662d4530
    1e18:	6c616e69 	stclvs	14, cr6, [r1], #-420	; 0xfffffe5c
    1e1c:	6f72702d 	svcvs	0x0072702d
    1e20:	7463656a 	strbtvc	r6, [r3], #-1386	; 0xfffffa96
    1e24:	62696c2f 	rsbvs	r6, r9, #12032	; 0x2f00
    1e28:	34322d73 	ldrtcc	r2, [r2], #-3443	; 0xfffff28d
    1e2c:	2f786c30 	svccs	0x00786c30
    1e30:	7062696c 	rsbvc	r6, r2, ip, ror #18
    1e34:	6e692f69 	cdpvs	15, 6, cr2, cr9, cr9, {3}
    1e38:	64756c63 	ldrbtvs	r6, [r5], #-3171	; 0xfffff39d
    1e3c:	73000065 	movwvc	r0, #101	; 0x65
    1e40:	70637274 	rsbvc	r7, r3, r4, ror r2
    1e44:	00632e79 	rsbeq	r2, r3, r9, ror lr
    1e48:	72000001 	andvc	r0, r0, #1, 0
    1e4c:	682e6970 	stmdavs	lr!, {r4, r5, r6, r8, fp, sp, lr}
    1e50:	00000200 	andeq	r0, r0, r0, lsl #4
    1e54:	002a0500 	eoreq	r0, sl, r0, lsl #10
    1e58:	97080205 	strls	r0, [r8, -r5, lsl #4]
    1e5c:	05140000 	ldreq	r0, [r4, #-0]
    1e60:	05131305 	ldreq	r1, [r3, #-773]	; 0xfffffcfb
    1e64:	05110614 	ldreq	r0, [r1, #-1556]	; 0xfffff9ec
    1e68:	04020022 	streq	r0, [r2], #-34	; 0xffffffde
    1e6c:	052f0601 	streq	r0, [pc, #-1537]!	; 1873 <__code_start__-0x678d>
    1e70:	0402000b 	streq	r0, [r2], #-11
    1e74:	15050101 	strne	r0, [r5, #-257]	; 0xfffffeff
    1e78:	01040200 	mrseq	r0, R12_usr
    1e7c:	13050106 	movwne	r0, #20742	; 0x5106
    1e80:	01040200 	mrseq	r0, R12_usr
    1e84:	000b054a 	andeq	r0, fp, sl, asr #10
    1e88:	4a010402 	bmi	42e98 <__bss_end__+0x38ef0>
    1e8c:	01000602 	tsteq	r0, r2, lsl #12
    1e90:	00011d01 	andeq	r1, r1, r1, lsl #26
    1e94:	e1000300 	mrs	r0, LR_irq
    1e98:	02000000 	andeq	r0, r0, #0, 0
    1e9c:	0d0efb01 	vstreq	d15, [lr, #-4]
    1ea0:	01010100 	mrseq	r0, (UNDEF: 17)
    1ea4:	00000001 	andeq	r0, r0, r1
    1ea8:	01000001 	tsteq	r0, r1
    1eac:	696c2f2e 	stmdbvs	ip!, {r1, r2, r3, r5, r8, r9, sl, fp, sp}^
    1eb0:	2f006362 	svccs	0x00006362
    1eb4:	72657355 	rsbvc	r7, r5, #1409286145	; 0x54000001
    1eb8:	616a2f73 	smcvs	41715	; 0xa2f3
    1ebc:	2f65696d 	svccs	0x0065696d
    1ec0:	75636f44 	strbvc	r6, [r3, #-3908]!	; 0xfffff0bc
    1ec4:	746e656d 	strbtvc	r6, [lr], #-1389	; 0xfffffa93
    1ec8:	53432f73 	movtpl	r2, #16243	; 0x3f73
    1ecc:	45303431 	ldrmi	r3, [r0, #-1073]!	; 0xfffffbcf
    1ed0:	3173632f 	cmncc	r3, pc, lsr #6
    1ed4:	2d453034 	stclcs	0, cr3, [r5, #-208]	; 0xffffff30
    1ed8:	616e6966 	cmnvs	lr, r6, ror #18
    1edc:	72702d6c 	rsbsvc	r2, r0, #108, 26	; 0x1b00
    1ee0:	63656a6f 	cmnvs	r5, #454656	; 0x6f000
    1ee4:	696c2f74 	stmdbvs	ip!, {r2, r4, r5, r6, r8, r9, sl, fp, sp}^
    1ee8:	322d7362 	eorcc	r7, sp, #-2013265919	; 0x88000001
    1eec:	786c3034 	stmdavc	ip!, {r2, r4, r5, ip, sp}^
    1ef0:	62696c2f 	rsbvs	r6, r9, #12032	; 0x2f00
    1ef4:	692f6970 	stmdbvs	pc!, {r4, r5, r6, r8, fp, sp, lr}	; <UNPREDICTABLE>
    1ef8:	756c636e 	strbvc	r6, [ip, #-878]!	; 0xfffffc92
    1efc:	2f006564 	svccs	0x00006564
    1f00:	2f727375 	svccs	0x00727375
    1f04:	61636f6c 	cmnvs	r3, ip, ror #30
    1f08:	65432f6c 	strbvs	r2, [r3, #-3948]	; 0xfffff094
    1f0c:	72616c6c 	rsbvc	r6, r1, #108, 24	; 0x6c00
    1f10:	6d72612f 	ldfvse	f6, [r2, #-188]!	; 0xffffff44
    1f14:	6e6f6e2d 	cdpvs	14, 6, cr6, cr15, cr13, {1}
    1f18:	61652d65 	cmnvs	r5, r5, ror #26
    1f1c:	742d6962 	strtvc	r6, [sp], #-2402	; 0xfffff69e
    1f20:	2f747365 	svccs	0x00747365
    1f24:	30322d39 	eorscc	r2, r2, r9, lsr sp
    1f28:	34713931 	ldrbtcc	r3, [r1], #-2353	; 0xfffff6cf
    1f2c:	3173632d 	cmncc	r3, sp, lsr #6
    1f30:	2f653730 	svccs	0x00653730
    1f34:	2f62696c 	svccs	0x0062696c
    1f38:	2f636367 	svccs	0x00636367
    1f3c:	2d6d7261 	sfmcs	f7, 2, [sp, #-388]!	; 0xfffffe7c
    1f40:	656e6f6e 	strbvs	r6, [lr, #-3950]!	; 0xfffff092
    1f44:	6261652d 	rsbvs	r6, r1, #188743680	; 0xb400000
    1f48:	2e392f69 	cdpcs	15, 3, cr2, cr9, cr9, {3}
    1f4c:	2f312e32 	svccs	0x00312e32
    1f50:	6c636e69 	stclvs	14, cr6, [r3], #-420	; 0xfffffe5c
    1f54:	00656475 	rsbeq	r6, r5, r5, ror r4
    1f58:	72747300 	rsbsvc	r7, r4, #0, 6
    1f5c:	706d636e 	rsbvc	r6, sp, lr, ror #6
    1f60:	0100632e 	tsteq	r0, lr, lsr #6
    1f64:	70720000 	rsbsvc	r0, r2, r0
    1f68:	00682e69 	rsbeq	r2, r8, r9, ror #28
    1f6c:	73000002 	movwvc	r0, #2
    1f70:	65646474 	strbvs	r6, [r4, #-1140]!	; 0xfffffb8c
    1f74:	00682e66 	rsbeq	r2, r8, r6, ror #28
    1f78:	00000003 	andeq	r0, r0, r3
    1f7c:	05003905 	streq	r3, [r0, #-2309]	; 0xfffff6fb
    1f80:	00972802 	addseq	r2, r7, r2, lsl #16
    1f84:	05051500 	streq	r1, [r5, #-1280]	; 0xfffffb00
    1f88:	0a051313 	beq	146bdc <__bss_end__+0x13cc34>
    1f8c:	4a010601 	bmi	43798 <__bss_end__+0x397f0>
    1f90:	2f060905 	svccs	0x00060905
    1f94:	01060c05 	tsteq	r6, r5, lsl #24
    1f98:	052e1305 	streq	r1, [lr, #-773]!	; 0xfffffcfb
    1f9c:	0d052e0b 	stceq	14, cr2, [r5, #-44]	; 0xffffffd4
    1fa0:	1b054b06 	blne	154bc0 <__bss_end__+0x14ac18>
    1fa4:	052e0106 	streq	r0, [lr, #-262]!	; 0xfffffefa
    1fa8:	0105300c 	tsteq	r5, ip
    1fac:	0002022f 	andeq	r0, r2, pc, lsr #4
    1fb0:	00ac0101 	adceq	r0, ip, r1, lsl #2
    1fb4:	00030000 	andeq	r0, r3, r0
    1fb8:	00000090 	muleq	r0, r0, r0
    1fbc:	0efb0102 	cdpeq	1, 15, cr0, cr11, cr2, {0}
    1fc0:	0101000d 	tsteq	r1, sp
    1fc4:	00000101 	andeq	r0, r0, r1, lsl #2
    1fc8:	00000100 	andeq	r0, r0, r0, lsl #2
    1fcc:	732f2e01 			; <UNDEFINED> instruction: 0x732f2e01
    1fd0:	66666174 			; <UNDEFINED> instruction: 0x66666174
    1fd4:	6372732d 	cmnvs	r2, #-1275068416	; 0xb4000000
    1fd8:	73552f00 	cmpvc	r5, #0, 30
    1fdc:	2f737265 	svccs	0x00737265
    1fe0:	696d616a 	stmdbvs	sp!, {r1, r3, r5, r6, r8, sp, lr}^
    1fe4:	6f442f65 	svcvs	0x00442f65
    1fe8:	656d7563 	strbvs	r7, [sp, #-1379]!	; 0xfffffa9d
    1fec:	2f73746e 	svccs	0x0073746e
    1ff0:	34315343 	ldrtcc	r5, [r1], #-835	; 0xfffffcbd
    1ff4:	632f4530 			; <UNDEFINED> instruction: 0x632f4530
    1ff8:	30343173 	eorscc	r3, r4, r3, ror r1
    1ffc:	69662d45 	stmdbvs	r6!, {r0, r2, r6, r8, sl, fp, sp}^
    2000:	2d6c616e 	stfcse	f6, [ip, #-440]!	; 0xfffffe48
    2004:	6a6f7270 	bvs	1bde9cc <__bss_end__+0x1bd4a24>
    2008:	2f746365 	svccs	0x00746365
    200c:	7362696c 	cmnvc	r2, #108, 18	; 0x1b0000
    2010:	3034322d 	eorscc	r3, r4, sp, lsr #4
    2014:	6c2f786c 	stcvs	8, cr7, [pc], #-432	; 1e6c <__code_start__-0x6194>
    2018:	69706269 	ldmdbvs	r0!, {r0, r3, r5, r6, r9, sp, lr}^
    201c:	636e692f 	cmnvs	lr, #770048	; 0xbc000
    2020:	6564756c 	strbvs	r7, [r4, #-1388]!	; 0xfffffa94
    2024:	65640000 	strbvs	r0, [r4, #-0]!
    2028:	6c756166 	ldfvse	f6, [r5], #-408	; 0xfffffe68
    202c:	65722d74 	ldrbvs	r2, [r2, #-3444]!	; 0xfffff28c
    2030:	746f6f62 	strbtvc	r6, [pc], #-3938	; 2038 <__code_start__-0x5fc8>
    2034:	6c61632d 	stclvs	3, cr6, [r1], #-180	; 0xffffff4c
    2038:	74756f6c 	ldrbtvc	r6, [r5], #-3948	; 0xfffff094
    203c:	0100632e 	tsteq	r0, lr, lsr #6
    2040:	70720000 	rsbsvc	r0, r2, r0
    2044:	00682e69 	rsbeq	r2, r8, r9, ror #28
    2048:	00000002 	andeq	r0, r0, r2
    204c:	05001b05 	streq	r1, [r0, #-2821]	; 0xfffff4fb
    2050:	00975402 	addseq	r5, r7, r2, lsl #8
    2054:	1c051400 	cfstrsne	mvf1, [r5], {-0}
    2058:	06010501 	streq	r0, [r1], -r1, lsl #10
    205c:	00020201 	andeq	r0, r2, r1, lsl #4
    2060:	Address 0x0000000000002060 is out of bounds.


Disassembly of section .debug_str:

00000000 <.debug_str>:
   0:	666e6f63 	strbtvs	r6, [lr], -r3, ror #30
   4:	725f6769 	subsvc	r6, pc, #27525120	; 0x1a40000
   8:	63006765 	movwvs	r6, #1893	; 0x765
   c:	65766e6f 	ldrbvs	r6, [r6, #-3695]!	; 0xfffff191
  10:	6f697372 	svcvs	0x00697372
  14:	65725f6e 	ldrbvs	r5, [r2, #-3950]!	; 0xfffff092
  18:	552f0067 	strpl	r0, [pc, #-103]!	; ffffffb9 <__bss_end__+0xffff6011>
  1c:	73726573 	cmnvc	r2, #482344960	; 0x1cc00000
  20:	6d616a2f 	vstmdbvs	r1!, {s13-s59}
  24:	442f6569 	strtmi	r6, [pc], #-1385	; 2c <__code_start__-0x7fd4>
  28:	6d75636f 	ldclvs	3, cr6, [r5, #-444]!	; 0xfffffe44
  2c:	73746e65 	cmnvc	r4, #1616	; 0x650
  30:	3153432f 	cmpcc	r3, pc, lsr #6
  34:	2f453034 	svccs	0x00453034
  38:	34317363 	ldrtcc	r7, [r1], #-867	; 0xfffffc9d
  3c:	662d4530 			; <UNDEFINED> instruction: 0x662d4530
  40:	6c616e69 	stclvs	14, cr6, [r1], #-420	; 0xfffffe5c
  44:	6f72702d 	svcvs	0x0072702d
  48:	7463656a 	strbtvc	r6, [r3], #-1386	; 0xfffffa96
  4c:	6c65722f 	sfmvs	f7, 2, [r5], #-188	; 0xffffff44
  50:	6e617665 	cdpvs	6, 6, cr7, cr1, cr5, {3}
  54:	616c2d74 	smcvs	49876	; 0xc2d4
  58:	6d2f7362 	stcvs	3, cr7, [pc, #-392]!	; fffffed8 <__bss_end__+0xffff5f30>
  5c:	6f726369 	svcvs	0x00726369
  60:	6e6f6870 	mcrvs	8, 3, r6, cr15, cr0, {3}
  64:	34322d65 	ldrtcc	r2, [r2], #-3429	; 0xfffff29b
  68:	2d786c30 	ldclcs	12, cr6, [r8, #-192]!	; 0xffffff40
  6c:	32692d38 	rsbcc	r2, r9, #56, 26	; 0xe00
  70:	64612d63 	strbtvs	r2, [r1], #-3427	; 0xfffff29d
  74:	6f632f63 	svcvs	0x00632f63
  78:	6e006564 	cfsh32vs	mvfx6, mvfx0, #52
  7c:	616d746f 	cmnvs	sp, pc, ror #8
  80:	75006e69 	strvc	r6, [r0, #-3689]	; 0xfffff197
  84:	6769736e 	strbvs	r7, [r9, -lr, ror #6]!
  88:	2064656e 	rsbcs	r6, r4, lr, ror #10
  8c:	72616863 	rsbvc	r6, r1, #6488064	; 0x630000
  90:	6c656400 	cfstrdvs	mvd6, [r5], #-0
  94:	6d5f7961 	vldrvs.16	s15, [pc, #-194]	; ffffffda <__bss_end__+0xffff6032>	; <UNPREDICTABLE>
  98:	6c630073 	stclvs	0, cr0, [r3], #-460	; 0xfffffe34
  9c:	5f6e6165 	svcpl	0x006e6165
  a0:	6f626572 	svcvs	0x00626572
  a4:	7300746f 	movwvc	r7, #1135	; 0x46f
  a8:	74726f68 	ldrbtvc	r6, [r2], #-3944	; 0xfffff098
  ac:	736e7520 	cmnvc	lr, #32, 10	; 0x8000000
  b0:	656e6769 	strbvs	r6, [lr, #-1897]!	; 0xfffff897
  b4:	6e692064 	cdpvs	0, 6, cr2, cr9, cr4, {3}
  b8:	64610074 	strbtvs	r0, [r1], #-116	; 0xffffff8c
  bc:	31313173 	teqcc	r1, r3, ror r1
  c0:	65725f35 	ldrbvs	r5, [r2, #-3893]!	; 0xfffff0cb
  c4:	36316461 	ldrtcc	r6, [r1], -r1, ror #8
  c8:	73646100 	cmnvc	r4, #0
  cc:	35313131 	ldrcc	r3, [r1, #-305]!	; 0xfffffecf
  d0:	6e6f635f 	mcrvs	3, 3, r6, cr15, cr15, {2}
  d4:	00676966 	rsbeq	r6, r7, r6, ror #18
  d8:	76697264 	strbtvc	r7, [r9], -r4, ror #4
  dc:	632e7265 			; <UNDEFINED> instruction: 0x632e7265
  e0:	6e6f6c00 	cdpvs	12, 6, cr6, cr15, cr0, {0}
  e4:	6f6c2067 	svcvs	0x006c2067
  e8:	7520676e 	strvc	r6, [r0, #-1902]!	; 0xfffff892
  ec:	6769736e 	strbvs	r7, [r9, -lr, ror #6]!
  f0:	2064656e 	rsbcs	r6, r4, lr, ror #10
  f4:	00746e69 	rsbseq	r6, r4, r9, ror #28
  f8:	676e6f6c 	strbvs	r6, [lr, -ip, ror #30]!
  fc:	6e6f6c20 	cdpvs	12, 6, cr6, cr15, cr0, {1}
 100:	6e692067 	cdpvs	0, 6, cr2, cr9, cr7, {3}
 104:	70720074 	rsbsvc	r0, r2, r4, ror r0
 108:	75705f69 	ldrbvc	r5, [r0, #-3945]!	; 0xfffff097
 10c:	61686374 	smcvs	34356	; 0x8634
 110:	68730072 	ldmdavs	r3!, {r1, r4, r5, r6}^
 114:	2074726f 	rsbscs	r7, r4, pc, ror #4
 118:	00746e69 	rsbseq	r6, r4, r9, ror #28
 11c:	5f766564 	svcpl	0x00766564
 120:	72646461 	rsbvc	r6, r4, #1627389952	; 0x61000000
 124:	554e4700 	strbpl	r4, [lr, #-1792]	; 0xfffff900
 128:	39394320 	ldmdbcc	r9!, {r5, r8, r9, lr}
 12c:	322e3920 	eorcc	r3, lr, #32, 18	; 0x80000
 130:	3220312e 	eorcc	r3, r0, #-2147483637	; 0x8000000b
 134:	31393130 	teqcc	r9, r0, lsr r1
 138:	20353230 	eorscs	r3, r5, r0, lsr r2
 13c:	6c657228 	sfmvs	f7, 2, [r5], #-160	; 0xffffff60
 140:	65736165 	ldrbvs	r6, [r3, #-357]!	; 0xfffffe9b
 144:	415b2029 	cmpmi	fp, r9, lsr #32
 148:	612f4d52 			; <UNDEFINED> instruction: 0x612f4d52
 14c:	392d6d72 	pushcc	{r1, r4, r5, r6, r8, sl, fp, sp, lr}
 150:	6172622d 	cmnvs	r2, sp, lsr #4
 154:	2068636e 	rsbcs	r6, r8, lr, ror #6
 158:	69766572 	ldmdbvs	r6!, {r1, r4, r5, r6, r8, sl, sp, lr}^
 15c:	6e6f6973 			; <UNDEFINED> instruction: 0x6e6f6973
 160:	37373220 	ldrcc	r3, [r7, -r0, lsr #4]!
 164:	5d393935 			; <UNDEFINED> instruction: 0x5d393935
 168:	636d2d20 	cmnvs	sp, #32, 26	; 0x800
 16c:	613d7570 	teqvs	sp, r0, ror r5
 170:	31316d72 	teqcc	r1, r2, ror sp
 174:	7a6a3637 	bvc	1a8da58 <__bss_end__+0x1a83ab0>
 178:	20732d66 	rsbscs	r2, r3, r6, ror #26
 17c:	75746d2d 	ldrbvc	r6, [r4, #-3373]!	; 0xfffff2d3
 180:	613d656e 	teqvs	sp, lr, ror #10
 184:	31316d72 	teqcc	r1, r2, ror sp
 188:	7a6a3637 	bvc	1a8da6c <__bss_end__+0x1a83ac4>
 18c:	20732d66 	rsbscs	r2, r3, r6, ror #26
 190:	6c666d2d 	stclvs	13, cr6, [r6], #-180	; 0xffffff4c
 194:	2d74616f 	ldfcse	f6, [r4, #-444]!	; 0xfffffe44
 198:	3d696261 	sfmcc	f6, 2, [r9, #-388]!	; 0xfffffe7c
 19c:	74666f73 	strbtvc	r6, [r6], #-3955	; 0xfffff08d
 1a0:	616d2d20 	cmnvs	sp, r0, lsr #26
 1a4:	2d206d72 	stccs	13, cr6, [r0, #-456]!	; 0xfffffe38
 1a8:	6372616d 	cmnvs	r2, #1073741851	; 0x4000001b
 1ac:	72613d68 	rsbvc	r3, r1, #104, 26	; 0x1a00
 1b0:	6b36766d 	blvs	d9db6c <__bss_end__+0xd93bc4>
 1b4:	672d207a 			; <UNDEFINED> instruction: 0x672d207a
 1b8:	20626467 	rsbcs	r6, r2, r7, ror #8
 1bc:	20674f2d 	rsbcs	r4, r7, sp, lsr #30
 1c0:	6474732d 	ldrbtvs	r7, [r4], #-813	; 0xfffffcd3
 1c4:	756e673d 	strbvc	r6, [lr, #-1853]!	; 0xfffff8c3
 1c8:	2d203939 			; <UNDEFINED> instruction: 0x2d203939
 1cc:	65726666 	ldrbvs	r6, [r2, #-1638]!	; 0xfffff99a
 1d0:	61747365 	cmnvs	r4, r5, ror #6
 1d4:	6e69646e 	cdpvs	4, 6, cr6, cr9, cr14, {3}
 1d8:	626e0067 	rsbvs	r0, lr, #103, 0	; 0x67
 1dc:	00737469 	rsbseq	r7, r3, r9, ror #8
 1e0:	73746962 	cmnvc	r4, #1605632	; 0x188000
 1e4:	7465675f 	strbtvc	r6, [r5], #-1887	; 0xfffff8a1
 1e8:	6f682f00 	svcvs	0x00682f00
 1ec:	652f656d 	strvs	r6, [pc, #-1389]!	; fffffc87 <__bss_end__+0xffff5cdf>
 1f0:	656c676e 	strbvs	r6, [ip, #-1902]!	; 0xfffff892
 1f4:	6c632f72 	stclvs	15, cr2, [r3], #-456	; 0xfffffe38
 1f8:	2f737361 	svccs	0x00737361
 1fc:	34327363 	ldrtcc	r7, [r2], #-867	; 0xfffffc9d
 200:	2d786c30 	ldclcs	12, cr6, [r8, #-192]!	; 0xffffff40
 204:	70733232 	rsbsvc	r3, r3, r2, lsr r2
 208:	616c2f72 	smcvs	49906	; 0xc2f2
 20c:	382f7362 	stmdacc	pc!, {r1, r5, r6, r8, r9, ip, sp, lr}	; <UNPREDICTABLE>
 210:	6332692d 	teqvs	r2, #737280	; 0xb4000
 214:	6364612d 	cmnvs	r4, #1073741835	; 0x4000000b
 218:	646f632f 	strbtvs	r6, [pc], #-815	; 220 <__code_start__-0x7de0>
 21c:	74732e65 	ldrbtvc	r2, [r3], #-3685	; 0xfffff19b
 220:	00666661 	rsbeq	r6, r6, r1, ror #12
 224:	31736461 	cmncc	r3, r1, ror #8
 228:	5f353131 	svcpl	0x00353131
 22c:	65736572 	ldrbvs	r6, [r3, #-1394]!	; 0xfffffa8e
 230:	32690074 	rsbcc	r0, r9, #116, 0	; 0x74
 234:	6e695f63 	cdpvs	15, 6, cr5, cr9, cr3, {3}
 238:	69007469 	stmdbvs	r0, {r0, r3, r5, r6, sl, ip, sp, lr}
 23c:	775f6332 	smmlarvc	pc, r2, r3, r6	; <UNPREDICTABLE>
 240:	65746972 	ldrbvs	r6, [r4, #-2418]!	; 0xfffff68e
 244:	465f5f00 	ldrbmi	r5, [pc], -r0, lsl #30
 248:	54434e55 	strbpl	r4, [r3], #-3669	; 0xfffff1ab
 24c:	5f4e4f49 	svcpl	0x004e4f49
 250:	6564005f 	strbvs	r0, [r4, #-95]!	; 0xffffffa1
 254:	5f79616c 	svcpl	0x0079616c
 258:	62007375 	andvs	r7, r0, #-738197503	; 0xd4000001
 25c:	695f7469 	ldmdbvs	pc, {r0, r3, r5, r6, sl, ip, sp, lr}^	; <UNPREDICTABLE>
 260:	6e6f5f73 	mcrvs	15, 3, r5, cr15, cr3, {3}
 264:	554e4700 	strbpl	r4, [lr, #-1792]	; 0xfffff900
 268:	39394320 	ldmdbcc	r9!, {r5, r8, r9, lr}
 26c:	2e303120 	rsfcssp	f3, f0, f0
 270:	20312e33 	eorscs	r2, r1, r3, lsr lr
 274:	31323032 	teqcc	r2, r2, lsr r0
 278:	34323830 	ldrtcc	r3, [r2], #-2096	; 0xfffff7d0
 27c:	65722820 	ldrbvs	r2, [r2, #-2080]!	; 0xfffff7e0
 280:	7361656c 	cmnvc	r1, #108, 10	; 0x1b000000
 284:	2d202965 			; <UNDEFINED> instruction: 0x2d202965
 288:	7570636d 	ldrbvc	r6, [r0, #-877]!	; 0xfffffc93
 28c:	6d72613d 	ldfvse	f6, [r2, #-244]!	; 0xffffff0c
 290:	36373131 			; <UNDEFINED> instruction: 0x36373131
 294:	2d667a6a 	vstmdbcs	r6!, {s15-s120}
 298:	6d2d2073 	stcvs	0, cr2, [sp, #-460]!	; 0xfffffe34
 29c:	656e7574 	strbvs	r7, [lr, #-1396]!	; 0xfffffa8c
 2a0:	6d72613d 	ldfvse	f6, [r2, #-244]!	; 0xffffff0c
 2a4:	36373131 			; <UNDEFINED> instruction: 0x36373131
 2a8:	2d667a6a 	vstmdbcs	r6!, {s15-s120}
 2ac:	6d2d2073 	stcvs	0, cr2, [sp, #-460]!	; 0xfffffe34
 2b0:	616f6c66 	cmnvs	pc, r6, ror #24
 2b4:	62612d74 	rsbvs	r2, r1, #116, 26	; 0x1d00
 2b8:	6f733d69 	svcvs	0x00733d69
 2bc:	2d207466 	cfstrscs	mvf7, [r0, #-408]!	; 0xfffffe68
 2c0:	6d72616d 	ldfvse	f6, [r2, #-436]!	; 0xfffffe4c
 2c4:	616d2d20 	cmnvs	sp, r0, lsr #26
 2c8:	3d686372 	stclcc	3, cr6, [r8, #-456]!	; 0xfffffe38
 2cc:	766d7261 	strbtvc	r7, [sp], -r1, ror #4
 2d0:	207a6b36 	rsbscs	r6, sl, r6, lsr fp
 2d4:	6467672d 	strbtvs	r6, [r7], #-1837	; 0xfffff8d3
 2d8:	4f2d2062 	svcmi	0x002d2062
 2dc:	732d2067 			; <UNDEFINED> instruction: 0x732d2067
 2e0:	673d6474 			; <UNDEFINED> instruction: 0x673d6474
 2e4:	3939756e 	ldmdbcc	r9!, {r1, r2, r3, r5, r6, r8, sl, ip, sp, lr}
 2e8:	66662d20 	strbtvs	r2, [r6], -r0, lsr #26
 2ec:	73656572 	cmnvc	r5, #478150656	; 0x1c800000
 2f0:	646e6174 	strbtvs	r6, [lr], #-372	; 0xfffffe8c
 2f4:	00676e69 	rsbeq	r6, r7, r9, ror #28
 2f8:	66617473 			; <UNDEFINED> instruction: 0x66617473
 2fc:	64612d66 	strbtvs	r2, [r1], #-3430	; 0xfffff29a
 300:	31313173 	teqcc	r1, r3, ror r1
 304:	00632e35 	rsbeq	r2, r3, r5, lsr lr
 308:	746e6975 	strbtvc	r6, [lr], #-2421	; 0xfffff68b
 30c:	00745f38 	rsbseq	r5, r4, r8, lsr pc
 310:	73746962 	cmnvc	r4, #1605632	; 0x188000
 314:	73616d5f 	cmnvc	r1, #6080	; 0x17c0
 318:	6461006b 	strbtvs	r0, [r1], #-107	; 0xffffff95
 31c:	31313173 	teqcc	r1, r3, ror r1
 320:	72705f35 	rsbsvc	r5, r0, #212	; 0xd4
 324:	00746e69 	rsbseq	r6, r4, r9, ror #28
 328:	746e6975 	strbtvc	r6, [lr], #-2421	; 0xfffff68b
 32c:	745f3631 	ldrbvc	r3, [pc], #-1585	; 334 <__code_start__-0x7ccc>
 330:	63326900 	teqvs	r2, #0, 18
 334:	6165725f 	cmnvs	r5, pc, asr r2
 338:	69750064 	ldmdbvs	r5!, {r2, r5, r6}^
 33c:	3233746e 	eorscc	r7, r3, #1845493760	; 0x6e000000
 340:	6100745f 	tstvs	r0, pc, asr r4
 344:	31317364 	teqcc	r1, r4, ror #6
 348:	775f3531 	smmlarvc	pc, r1, r5, r3	; <UNPREDICTABLE>
 34c:	65746972 	ldrbvs	r6, [r4, #-2418]!	; 0xfffff68e
 350:	73003631 	movwvc	r3, #1585	; 0x631
 354:	615f7465 	cmpvs	pc, r5, ror #8
 358:	69006c6c 	stmdbvs	r0, {r2, r3, r5, r6, sl, fp, sp, lr}
 35c:	6974696e 	ldmdbvs	r4!, {r1, r2, r3, r5, r6, r8, fp, sp, lr}^
 360:	7a696c61 	bvc	1a5b4ec <__bss_end__+0x1a51544>
 364:	705f6465 	subsvc	r6, pc, r5, ror #8
 368:	65686300 	strbvs	r6, [r8, #-768]!	; 0xfffffd00
 36c:	6c5f6b63 	mrrcvs	11, 6, r6, pc, cr3	; <UNPREDICTABLE>
 370:	756f7961 	strbvc	r7, [pc, #-2401]!	; fffffa17 <__bss_end__+0xffff5a6f>
 374:	6c630074 	stclvs	0, cr0, [r3], #-464	; 0xfffffe30
 378:	5f6b636f 	svcpl	0x006b636f
 37c:	65727473 	ldrbvs	r7, [r2, #-1139]!	; 0xfffffb8d
 380:	5f686374 	svcpl	0x00686374
 384:	656d6974 	strbvs	r6, [sp, #-2420]!	; 0xfffff68c
 388:	0074756f 	rsbseq	r7, r4, pc, ror #10
 38c:	61656c63 	cmnvs	r5, r3, ror #24
 390:	00635f72 	rsbeq	r5, r3, r2, ror pc
 394:	4f495047 	svcmi	0x00495047
 398:	4e55465f 	mrcmi	6, 2, r4, cr5, cr15, {2}
 39c:	554f5f43 	strbpl	r5, [pc, #-3907]	; fffff461 <__bss_end__+0xffff54b9>
 3a0:	54555054 	ldrbpl	r5, [r5], #-84	; 0xffffffac
 3a4:	656c6300 	strbvs	r6, [ip, #-768]!	; 0xfffffd00
 3a8:	735f7261 	cmpvc	pc, #268435462	; 0x10000006
 3ac:	49504700 	ldmdbmi	r0, {r8, r9, sl, lr}^
 3b0:	55465f4f 	strbpl	r5, [r6, #-3919]	; 0xfffff0b1
 3b4:	415f434e 	cmpmi	pc, lr, asr #6
 3b8:	0030544c 	eorseq	r5, r0, ip, asr #8
 3bc:	4f495047 	svcmi	0x00495047
 3c0:	4e55465f 	mrcmi	6, 2, r4, cr5, cr15, {2}
 3c4:	4c415f43 	mcrrmi	15, 4, r5, r1, cr3
 3c8:	47003154 	smlsdmi	r0, r4, r1, r3
 3cc:	5f4f4950 	svcpl	0x004f4950
 3d0:	434e5546 	movtmi	r5, #58694	; 0xe546
 3d4:	544c415f 	strbpl	r4, [ip], #-351	; 0xfffffea1
 3d8:	50470032 	subpl	r0, r7, r2, lsr r0
 3dc:	465f4f49 	ldrbmi	r4, [pc], -r9, asr #30
 3e0:	5f434e55 	svcpl	0x00434e55
 3e4:	33544c41 	cmpcc	r4, #16640	; 0x4100
 3e8:	49504700 	ldmdbmi	r0, {r8, r9, sl, lr}^
 3ec:	55465f4f 	strbpl	r5, [r6, #-3919]	; 0xfffff0b1
 3f0:	415f434e 	cmpmi	pc, lr, asr #6
 3f4:	0034544c 	eorseq	r5, r4, ip, asr #8
 3f8:	4f495047 	svcmi	0x00495047
 3fc:	4e55465f 	mrcmi	6, 2, r4, cr5, cr15, {2}
 400:	4c415f43 	mcrrmi	15, 4, r5, r1, cr3
 404:	73003554 	movwvc	r3, #1364	; 0x554
 408:	6765725f 			; <UNDEFINED> instruction: 0x6765725f
 40c:	65747369 	ldrbvs	r7, [r4, #-873]!	; 0xfffffc97
 410:	6c640072 	stclvs	0, cr0, [r4], #-456	; 0xfffffe38
 414:	70006e65 	andvc	r6, r0, r5, ror #28
 418:	32337475 	eorscc	r7, r3, #1962934272	; 0x75000000
 41c:	725f6300 	subsvc	r6, pc, #0, 6
 420:	73696765 	cmnvc	r9, #26476544	; 0x1940000
 424:	00726574 	rsbseq	r6, r2, r4, ror r5
 428:	66696873 			; <UNDEFINED> instruction: 0x66696873
 42c:	6c630074 	stclvs	0, cr0, [r3], #-464	; 0xfffffe30
 430:	5f6b636f 	svcpl	0x006b636f
 434:	00766964 	rsbseq	r6, r6, r4, ror #18
 438:	61656c63 	cmnvs	r5, r3, ror #24
 43c:	6f640072 	svcvs	0x00640072
 440:	4700656e 	strmi	r6, [r0, -lr, ror #10]
 444:	5f4f4950 	svcpl	0x004f4950
 448:	434e5546 	movtmi	r5, #58694	; 0xe546
 44c:	504e495f 	subpl	r4, lr, pc, asr r9
 450:	69005455 	stmdbvs	r0, {r0, r2, r4, r6, sl, ip, lr}
 454:	0064746e 	rsbeq	r7, r4, lr, ror #8
 458:	72746e69 	rsbsvc	r6, r4, #1680	; 0x690
 45c:	746e6900 	strbtvc	r6, [lr], #-2304	; 0xfffff700
 460:	69660074 	stmdbvs	r6!, {r2, r4, r5, r6}^
 464:	63006f66 	movwvs	r6, #3942	; 0xf66
 468:	72746e6f 	rsbsvc	r6, r4, #1776	; 0x6f0
 46c:	73006c6f 	movwvc	r6, #3183	; 0xc6f
 470:	66666174 			; <UNDEFINED> instruction: 0x66666174
 474:	6332692d 	teqvs	r2, #737280	; 0xb4000
 478:	6400632e 	strvs	r6, [r0], #-814	; 0xfffffcd2
 47c:	625f7665 	subsvs	r7, pc, #105906176	; 0x6500000
 480:	69727261 	ldmdbvs	r2!, {r0, r5, r6, r9, ip, sp, lr}^
 484:	67007265 	strvs	r7, [r0, -r5, ror #4]
 488:	32337465 	eorscc	r7, r3, #1694498816	; 0x65000000
 48c:	49505200 	ldmdbmi	r0, {r9, ip, lr}^
 490:	6332695f 	teqvs	r2, #1556480	; 0x17c000
 494:	63326900 	teqvs	r2, #0, 18
 498:	6e006e65 	cdpvs	14, 0, cr6, cr0, cr5, {3}
 49c:	65747962 	ldrbvs	r7, [r4, #-2402]!	; 0xfffff69e
 4a0:	65720073 	ldrbvs	r0, [r2, #-115]!	; 0xffffff8d
 4a4:	735f6461 	cmpvc	pc, #1627389952	; 0x61000000
 4a8:	63326900 	teqvs	r2, #0, 18
 4ac:	5f73695f 	svcpl	0x0073695f
 4b0:	74696e69 	strbtvc	r6, [r9], #-3689	; 0xfffff197
 4b4:	696c6169 	stmdbvs	ip!, {r0, r3, r5, r6, r8, sp, lr}^
 4b8:	0064657a 	rsbeq	r6, r4, sl, ror r5
 4bc:	64616572 	strbtvs	r6, [r1], #-1394	; 0xfffffa8e
 4c0:	7800705f 	stmdavc	r0, {r0, r1, r2, r3, r4, r6, ip, sp, lr}
 4c4:	5f726566 	svcpl	0x00726566
 4c8:	72617473 	rsbvc	r7, r1, #1929379840	; 0x73000000
 4cc:	6c630074 	stclvs	0, cr0, [r3], #-464	; 0xfffffe30
 4d0:	006b746b 	rsbeq	r7, fp, fp, ror #8
 4d4:	6f697067 	svcvs	0x00697067
 4d8:	7465735f 	strbtvc	r7, [r5], #-863	; 0xfffffca1
 4dc:	6e75665f 	mrcvs	6, 3, r6, cr5, cr15, {2}
 4e0:	6f697463 	svcvs	0x00697463
 4e4:	6678006e 	ldrbtvs	r0, [r8], -lr, rrx
 4e8:	655f7265 	ldrbvs	r7, [pc, #-613]	; 28b <__code_start__-0x7d75>
 4ec:	7200646e 	andvc	r6, r0, #1845493760	; 0x6e000000
 4f0:	5f646165 	svcpl	0x00646165
 4f4:	32690063 	rsbcc	r0, r9, #99, 0	; 0x63
 4f8:	6e695f63 	cdpvs	15, 6, cr5, cr9, cr3, {3}
 4fc:	6f5f7469 	svcvs	0x005f7469
 500:	0065636e 	rsbeq	r6, r5, lr, ror #6
 504:	6e755f5f 	mrcvs	15, 3, r5, cr5, cr15, {2}
 508:	64657375 	strbtvs	r7, [r5], #-885	; 0xfffffc8b
 50c:	5f5f0030 	svcpl	0x005f0030
 510:	73756e75 	cmnvc	r5, #1872	; 0x750
 514:	00316465 	eorseq	r6, r1, r5, ror #8
 518:	6e755f5f 	mrcvs	15, 3, r5, cr5, cr15, {2}
 51c:	64657375 	strbtvs	r7, [r5], #-885	; 0xfffffc8b
 520:	5f5f0032 	svcpl	0x005f0032
 524:	73756e75 	cmnvc	r5, #1872	; 0x750
 528:	00336465 	eorseq	r6, r3, r5, ror #8
 52c:	65736572 	ldrbvs	r6, [r3, #-1394]!	; 0xfffffa8e
 530:	74735f74 	ldrbtvc	r5, [r3], #-3956	; 0xfffff08c
 534:	73757461 	cmnvc	r5, #1627389952	; 0x61000000
 538:	6f6c6300 	svcvs	0x006c6300
 53c:	645f6b63 	ldrbvs	r6, [pc], #-2915	; 544 <__code_start__-0x7abc>
 540:	79616c65 	stmdbvc	r1!, {r0, r2, r5, r6, sl, fp, sp, lr}^
 544:	554e4700 	strbpl	r4, [lr, #-1792]	; 0xfffff900
 548:	39394320 	ldmdbcc	r9!, {r5, r8, r9, lr}
 54c:	322e3920 	eorcc	r3, lr, #32, 18	; 0x80000
 550:	3220312e 	eorcc	r3, r0, #-2147483637	; 0x8000000b
 554:	31393130 	teqcc	r9, r0, lsr r1
 558:	20353230 	eorscs	r3, r5, r0, lsr r2
 55c:	6c657228 	sfmvs	f7, 2, [r5], #-160	; 0xffffff60
 560:	65736165 	ldrbvs	r6, [r3, #-357]!	; 0xfffffe9b
 564:	415b2029 	cmpmi	fp, r9, lsr #32
 568:	612f4d52 			; <UNDEFINED> instruction: 0x612f4d52
 56c:	392d6d72 	pushcc	{r1, r4, r5, r6, r8, sl, fp, sp, lr}
 570:	6172622d 	cmnvs	r2, sp, lsr #4
 574:	2068636e 	rsbcs	r6, r8, lr, ror #6
 578:	69766572 	ldmdbvs	r6!, {r1, r4, r5, r6, r8, sl, sp, lr}^
 57c:	6e6f6973 			; <UNDEFINED> instruction: 0x6e6f6973
 580:	37373220 	ldrcc	r3, [r7, -r0, lsr #4]!
 584:	5d393935 			; <UNDEFINED> instruction: 0x5d393935
 588:	636d2d20 	cmnvs	sp, #32, 26	; 0x800
 58c:	613d7570 	teqvs	sp, r0, ror r5
 590:	31316d72 	teqcc	r1, r2, ror sp
 594:	7a6a3637 	bvc	1a8de78 <__bss_end__+0x1a83ed0>
 598:	20732d66 	rsbscs	r2, r3, r6, ror #26
 59c:	75746d2d 	ldrbvc	r6, [r4, #-3373]!	; 0xfffff2d3
 5a0:	613d656e 	teqvs	sp, lr, ror #10
 5a4:	31316d72 	teqcc	r1, r2, ror sp
 5a8:	7a6a3637 	bvc	1a8de8c <__bss_end__+0x1a83ee4>
 5ac:	20732d66 	rsbscs	r2, r3, r6, ror #26
 5b0:	6c666d2d 	stclvs	13, cr6, [r6], #-180	; 0xffffff4c
 5b4:	2d74616f 	ldfcse	f6, [r4, #-444]!	; 0xfffffe44
 5b8:	3d696261 	sfmcc	f6, 2, [r9, #-388]!	; 0xfffffe7c
 5bc:	74666f73 	strbtvc	r6, [r6], #-3955	; 0xfffff08d
 5c0:	616d2d20 	cmnvs	sp, r0, lsr #26
 5c4:	2d206d72 	stccs	13, cr6, [r0, #-456]!	; 0xfffffe38
 5c8:	6372616d 	cmnvs	r2, #1073741851	; 0x4000001b
 5cc:	72613d68 	rsbvc	r3, r1, #104, 26	; 0x1a00
 5d0:	6b36766d 	blvs	d9df8c <__bss_end__+0xd93fe4>
 5d4:	672d207a 			; <UNDEFINED> instruction: 0x672d207a
 5d8:	20626467 	rsbcs	r6, r2, r7, ror #8
 5dc:	6467672d 	strbtvs	r6, [r7], #-1837	; 0xfffff8d3
 5e0:	4f2d2062 	svcmi	0x002d2062
 5e4:	4f2d2067 	svcmi	0x002d2067
 5e8:	732d2067 			; <UNDEFINED> instruction: 0x732d2067
 5ec:	673d6474 			; <UNDEFINED> instruction: 0x673d6474
 5f0:	3939756e 	ldmdbcc	r9!, {r1, r2, r3, r5, r6, r8, sl, ip, sp, lr}
 5f4:	74732d20 	ldrbtvc	r2, [r3], #-3360	; 0xfffff2e0
 5f8:	6e673d64 	cdpvs	13, 6, cr3, cr7, cr4, {3}
 5fc:	20393975 	eorscs	r3, r9, r5, ror r9
 600:	7266662d 	rsbvc	r6, r6, #47185920	; 0x2d00000
 604:	74736565 	ldrbtvc	r6, [r3], #-1381	; 0xfffffa9b
 608:	69646e61 	stmdbvs	r4!, {r0, r5, r6, r9, sl, fp, sp, lr}^
 60c:	6100676e 	tstvs	r0, lr, ror #14
 610:	00736772 	rsbseq	r6, r3, r2, ror r7
 614:	705f6176 	subsvc	r6, pc, r6, ror r1	; <UNPREDICTABLE>
 618:	746e6972 	strbtvc	r6, [lr], #-2418	; 0xfffff68e
 61c:	5f5f006b 	svcpl	0x005f006b
 620:	63756e67 	cmnvs	r5, #1648	; 0x670
 624:	5f61765f 	svcpl	0x0061765f
 628:	7473696c 	ldrbtvc	r6, [r3], #-2412	; 0xfffff694
 62c:	615f5f00 	cmpvs	pc, r0, lsl #30
 630:	552f0070 	strpl	r0, [pc, #-112]!	; 5c8 <__code_start__-0x7a38>
 634:	73726573 	cmnvc	r2, #482344960	; 0x1cc00000
 638:	6d616a2f 	vstmdbvs	r1!, {s13-s59}
 63c:	442f6569 	strtmi	r6, [pc], #-1385	; 644 <__code_start__-0x79bc>
 640:	6d75636f 	ldclvs	3, cr6, [r5, #-444]!	; 0xfffffe44
 644:	73746e65 	cmnvc	r4, #1616	; 0x650
 648:	3153432f 	cmpcc	r3, pc, lsr #6
 64c:	2f453034 	svccs	0x00453034
 650:	34317363 	ldrtcc	r7, [r1], #-867	; 0xfffffc9d
 654:	662d4530 			; <UNDEFINED> instruction: 0x662d4530
 658:	6c616e69 	stclvs	14, cr6, [r1], #-420	; 0xfffffe5c
 65c:	6f72702d 	svcvs	0x0072702d
 660:	7463656a 	strbtvc	r6, [r3], #-1386	; 0xfffffa96
 664:	62696c2f 	rsbvs	r6, r9, #12032	; 0x2f00
 668:	34322d73 	ldrtcc	r2, [r2], #-3443	; 0xfffff28d
 66c:	2f786c30 	svccs	0x00786c30
 670:	7062696c 	rsbvc	r6, r2, ip, ror #18
 674:	2f2e0069 	svccs	0x002e0069
 678:	6362696c 	cmnvs	r2, #108, 18	; 0x1b0000
 67c:	6972702f 	ldmdbvs	r2!, {r0, r1, r2, r3, r5, ip, sp, lr}^
 680:	2e6b746e 	cdpcs	4, 6, cr7, cr11, cr14, {3}
 684:	5f5f0063 	svcpl	0x005f0063
 688:	6c5f6176 	ldfvse	f6, [pc], {118}	; 0x76
 68c:	00747369 	rsbseq	r7, r4, r9, ror #6
 690:	65746e69 	ldrbvs	r6, [r4, #-3689]!	; 0xfffff197
 694:	6c616e72 	stclvs	14, cr6, [r1], #-456	; 0xfffffe38
 698:	7475705f 	ldrbtvc	r7, [r5], #-95	; 0xffffffa1
 69c:	2f2e006b 	svccs	0x002e006b
 6a0:	6362696c 	cmnvs	r2, #108, 18	; 0x1b0000
 6a4:	7475702f 	ldrbtvc	r7, [r5], #-47	; 0xffffffd1
 6a8:	00632e6b 	rsbeq	r2, r3, fp, ror #28
 6ac:	69647369 	stmdbvs	r4!, {r0, r3, r5, r6, r8, r9, ip, sp, lr}^
 6b0:	00746967 	rsbseq	r6, r4, r7, ror #18
 6b4:	746e6975 	strbtvc	r6, [lr], #-2421	; 0xfffff68b
 6b8:	745f3436 	ldrbvc	r3, [pc], #-1078	; 6c0 <__code_start__-0x7940>
 6bc:	6c2f2e00 	stcvs	14, cr2, [pc], #-0	; 6c4 <__code_start__-0x793c>
 6c0:	2f636269 	svccs	0x00636269
 6c4:	702d6176 	eorvc	r6, sp, r6, ror r1
 6c8:	746e6972 	strbtvc	r6, [lr], #-2418	; 0xfffff68e
 6cc:	00632e6b 	rsbeq	r2, r3, fp, ror #28
 6d0:	6f635f5f 	svcvs	0x00635f5f
 6d4:	735f6564 	cmpvc	pc, #100, 10	; 0x19000000
 6d8:	74726174 	ldrbtvc	r6, [r2], #-372	; 0xfffffe8c
 6dc:	5f005f5f 	svcpl	0x00005f5f
 6e0:	7373625f 	cmnvc	r3, #-268435451	; 0xf0000005
 6e4:	6174735f 	cmnvs	r4, pc, asr r3
 6e8:	5f5f7472 	svcpl	0x005f7472
 6ec:	64697700 	strbtvs	r7, [r9], #-1792	; 0xfffff900
 6f0:	5f006874 	svcpl	0x00006874
 6f4:	7461645f 	strbtvc	r6, [r1], #-1119	; 0xfffffba1
 6f8:	6e655f61 	cdpvs	15, 6, cr5, cr5, cr1, {3}
 6fc:	005f5f64 	subseq	r5, pc, r4, ror #30
 700:	63747570 	cmnvs	r4, #112, 10	; 0x1c000000
 704:	0070665f 	rsbseq	r6, r0, pc, asr r6
 708:	73625f5f 	cmnvc	r2, #380	; 0x17c
 70c:	6e655f73 	mcrvs	15, 3, r5, cr5, cr3, {3}
 710:	005f5f64 	subseq	r5, pc, r4, ror #30
 714:	65685f5f 	strbvs	r5, [r8, #-3935]!	; 0xfffff0a1
 718:	735f7061 	cmpvc	pc, #97, 0	; 0x61
 71c:	74726174 	ldrbtvc	r6, [r2], #-372	; 0xfffffe8c
 720:	72005f5f 	andvc	r5, r0, #380	; 0x17c
 724:	735f6970 	cmpvc	pc, #112, 18	; 0x1c0000
 728:	6f5f7465 	svcvs	0x005f7465
 72c:	75707475 	ldrbvc	r7, [r0, #-1141]!	; 0xfffffb8b
 730:	6d660074 	stclvs	0, cr0, [r6, #-464]!	; 0xfffffe30
 734:	74735f74 	ldrbtvc	r5, [r3], #-3956	; 0xfffff08c
 738:	00747261 	rsbseq	r7, r4, r1, ror #4
 73c:	63727473 	cmnvs	r2, #1929379840	; 0x73000000
 740:	6e007970 			; <UNDEFINED> instruction: 0x6e007970
 744:	705f6765 	subsvc	r6, pc, r5, ror #14
 748:	635f5f00 	cmpvs	pc, #0, 30
 74c:	5f65646f 	svcpl	0x0065646f
 750:	5f646e65 	svcpl	0x00646e65
 754:	6d65005f 	stclvs	0, cr0, [r5, #-380]!	; 0xfffffe84
 758:	70007469 	andvc	r7, r0, r9, ror #8
 75c:	5f737475 	svcpl	0x00737475
 760:	72007066 	andvc	r7, r0, #102, 0	; 0x66
 764:	72657665 	rsbvc	r7, r5, #105906176	; 0x6500000
 768:	73006573 	movwvc	r6, #1395	; 0x573
 76c:	61637274 	smcvs	14116	; 0x3724
 770:	74730074 	ldrbtvc	r0, [r3], #-116	; 0xffffff8c
 774:	706d6372 	rsbvc	r6, sp, r2, ror r3
 778:	645f5f00 	ldrbvs	r5, [pc], #-3840	; 780 <__code_start__-0x7880>
 77c:	5f617461 	svcpl	0x00617461
 780:	72617473 	rsbvc	r7, r1, #1929379840	; 0x73000000
 784:	005f5f74 	subseq	r5, pc, r4, ror pc	; <UNPREDICTABLE>
 788:	72705f5f 	rsbsvc	r5, r0, #380	; 0x17c
 78c:	655f676f 	ldrbvs	r6, [pc, #-1903]	; 25 <__code_start__-0x7fdb>
 790:	5f5f646e 	svcpl	0x005f646e
 794:	6d756e00 	ldclvs	14, cr6, [r5, #-0]
 798:	74730031 	ldrbtvc	r0, [r3], #-49	; 0xffffffcf
 79c:	6d636e72 	stclvs	14, cr6, [r3, #-456]!	; 0xfffffe38
 7a0:	61620070 	smcvs	8192	; 0x2000
 7a4:	73006573 	movwvc	r6, #1395	; 0x573
 7a8:	656e6769 	strbvs	r6, [lr, #-1897]!	; 0xfffff897
 7ac:	00705f64 	rsbseq	r5, r0, r4, ror #30
 7b0:	5f697072 	svcpl	0x00697072
 7b4:	6f626572 	svcvs	0x00626572
 7b8:	2e00746f 	cdpcs	4, 0, cr7, cr0, cr15, {3}
 7bc:	6174732f 	cmnvs	r4, pc, lsr #6
 7c0:	732d6666 			; <UNDEFINED> instruction: 0x732d6666
 7c4:	632f6372 			; <UNDEFINED> instruction: 0x632f6372
 7c8:	6e61656c 	cdpvs	5, 6, cr6, cr1, cr12, {3}
 7cc:	6265722d 	rsbvs	r7, r5, #-805306366	; 0xd0000002
 7d0:	2e746f6f 	cdpcs	15, 7, cr6, cr4, cr15, {3}
 7d4:	61750063 	cmnvs	r5, r3, rrx
 7d8:	665f7472 			; <UNDEFINED> instruction: 0x665f7472
 7dc:	6873756c 	ldmdavs	r3!, {r2, r3, r5, r6, r8, sl, ip, sp, lr}^
 7e0:	0078745f 	rsbseq	r7, r8, pc, asr r4
 7e4:	7473635f 	ldrbtvc	r6, [r3], #-863	; 0xfffffca1
 7e8:	00747261 	rsbseq	r7, r4, r1, ror #4
 7ec:	5f737362 	svcpl	0x00737362
 7f0:	00646e65 	rsbeq	r6, r4, r5, ror #28
 7f4:	74726175 	ldrbtvc	r6, [r2], #-373	; 0xfffffe8b
 7f8:	696e695f 	stmdbvs	lr!, {r0, r1, r2, r3, r4, r6, r8, fp, sp, lr}^
 7fc:	75630074 	strbvc	r0, [r3, #-116]!	; 0xffffff8c
 800:	6d6f7473 	cfstrdvs	mvd7, [pc, #-460]!	; 63c <__code_start__-0x79c4>
 804:	616f6c5f 	cmnvs	pc, pc, asr ip	; <UNPREDICTABLE>
 808:	00726564 	rsbseq	r6, r2, r4, ror #10
 80c:	74732f2e 	ldrbtvc	r2, [r3], #-3886	; 0xfffff0d2
 810:	2d666661 	stclcs	6, cr6, [r6, #-388]!	; 0xfffffe7c
 814:	2f637273 	svccs	0x00637273
 818:	61747363 	cmnvs	r4, r3, ror #6
 81c:	632e7472 			; <UNDEFINED> instruction: 0x632e7472
 820:	732f2e00 			; <UNDEFINED> instruction: 0x732f2e00
 824:	66666174 			; <UNDEFINED> instruction: 0x66666174
 828:	6372732d 	cmnvs	r2, #-1275068416	; 0xb4000000
 82c:	7375632f 	cmnvc	r5, #-1140850688	; 0xbc000000
 830:	2d6d6f74 	stclcs	15, cr6, [sp, #-464]!	; 0xfffffe30
 834:	64616f6c 	strbtvs	r6, [r1], #-3948	; 0xfffff094
 838:	632e7265 			; <UNDEFINED> instruction: 0x632e7265
 83c:	62657200 	rsbvs	r7, r5, #0, 4
 840:	5f746f6f 	svcpl	0x00746f6f
 844:	6c6c6163 	stfvse	f6, [ip], #-396	; 0xfffffe74
 848:	0074756f 	rsbseq	r7, r4, pc, ror #10
 84c:	575f4d50 			; <UNDEFINED> instruction: 0x575f4d50
 850:	00474f44 	subeq	r4, r7, r4, asr #30
 854:	33545550 	cmpcc	r4, #80, 10	; 0x14000000
 858:	65730032 	ldrbvs	r0, [r3, #-50]!	; 0xffffffce
 85c:	73755f74 	cmnvc	r5, #116, 30	; 0x1d0
 860:	6c5f7265 	lfmvs	f7, 2, [pc], {101}	; 0x65
 864:	6c657665 	stclvs	6, cr7, [r5], #-404	; 0xfffffe6c
 868:	732f2e00 			; <UNDEFINED> instruction: 0x732f2e00
 86c:	66666174 			; <UNDEFINED> instruction: 0x66666174
 870:	6372732d 	cmnvs	r2, #-1275068416	; 0xb4000000
 874:	6265722f 	rsbvs	r7, r5, #-268435454	; 0xf0000002
 878:	2e746f6f 	cdpcs	15, 7, cr6, cr4, cr15, {3}
 87c:	4d500063 	ldclmi	0, cr0, [r0, #-396]	; 0xfffffe74
 880:	5341505f 	movtpl	r5, #4191	; 0x105f
 884:	524f5753 	subpl	r5, pc, #21757952	; 0x14c0000
 888:	74610044 	strbtvc	r0, [r1], #-68	; 0xffffffbc
 88c:	6573755f 	ldrbvs	r7, [r3, #-1375]!	; 0xfffffaa1
 890:	656c5f72 	strbvs	r5, [ip, #-3954]!	; 0xfffff08e
 894:	006c6576 	rsbeq	r6, ip, r6, ror r5
 898:	525f4d50 	subspl	r4, pc, #80, 26	; 0x1400
 89c:	5f435453 	svcpl	0x00435453
 8a0:	46435257 			; <UNDEFINED> instruction: 0x46435257
 8a4:	55465f47 	strbpl	r5, [r6, #-3911]	; 0xfffff0b9
 8a8:	525f4c4c 	subspl	r4, pc, #76, 24	; 0x4c00
 8ac:	54455345 	strbpl	r5, [r5], #-837	; 0xfffffcbb
 8b0:	5f4d5000 	svcpl	0x004d5000
 8b4:	43545352 	cmpmi	r4, #1207959553	; 0x48000001
 8b8:	73706300 	cmnvc	r0, #0, 6
 8bc:	65640072 	strbvs	r0, [r4, #-114]!	; 0xffffff8e
 8c0:	5f79616c 	svcpl	0x0079616c
 8c4:	00636573 	rsbeq	r6, r3, r3, ror r5
 8c8:	74732f2e 	ldrbtvc	r2, [r3], #-3886	; 0xfffff0d2
 8cc:	2d666661 	stclcs	6, cr6, [r6, #-388]!	; 0xfffffe7c
 8d0:	2f637273 	svccs	0x00637273
 8d4:	656d6974 	strbvs	r6, [sp, #-2420]!	; 0xfffff68c
 8d8:	00632e72 	rsbeq	r2, r3, r2, ror lr
 8dc:	33544547 	cmpcc	r4, #297795584	; 0x11c00000
 8e0:	69740032 	ldmdbvs	r4!, {r1, r4, r5}^
 8e4:	5f72656d 	svcpl	0x0072656d
 8e8:	5f746567 	svcpl	0x00746567
 8ec:	63657375 	cmnvs	r5, #-738197503	; 0xd4000001
 8f0:	6d697400 	cfstrdvs	mvd7, [r9, #-0]
 8f4:	675f7265 	ldrbvs	r7, [pc, -r5, ror #4]
 8f8:	755f7465 	ldrbvc	r7, [pc, #-1125]	; 49b <__code_start__-0x7b65>
 8fc:	5f636573 	svcpl	0x00636573
 900:	00776172 	rsbseq	r6, r7, r2, ror r1
 904:	6f697067 	svcvs	0x00697067
 908:	726c635f 	rsbvc	r6, ip, #2080374785	; 0x7c000001
 90c:	70670030 	rsbvc	r0, r7, r0, lsr r0
 910:	735f6f69 	cmpvc	pc, #420	; 0x1a4
 914:	00307465 	eorseq	r7, r0, r5, ror #8
 918:	6f697067 	svcvs	0x00697067
 91c:	6972775f 	ldmdbvs	r2!, {r0, r1, r2, r3, r4, r6, r8, r9, sl, ip, sp, lr}^
 920:	44006574 	strmi	r6, [r0], #-1396	; 0xfffffa8c
 924:	565f5645 	ldrbpl	r5, [pc], -r5, asr #12
 928:	32334c41 	eorscc	r4, r3, #16640	; 0x4100
 92c:	69706700 	ldmdbvs	r0!, {r8, r9, sl, sp, lr}^
 930:	65725f6f 	ldrbvs	r5, [r2, #-3951]!	; 0xfffff091
 934:	67006461 	strvs	r6, [r0, -r1, ror #8]
 938:	5f6f6970 	svcpl	0x006f6970
 93c:	5f746573 	svcpl	0x00746573
 940:	75706e69 	ldrbvc	r6, [r0, #-3689]!	; 0xfffff197
 944:	682f0074 	stmdavs	pc!, {r2, r4, r5, r6}	; <UNPREDICTABLE>
 948:	2f656d6f 	svccs	0x00656d6f
 94c:	6c676e65 	stclvs	14, cr6, [r7], #-404	; 0xfffffe6c
 950:	632f7265 			; <UNDEFINED> instruction: 0x632f7265
 954:	7373616c 	cmnvc	r3, #27
 958:	3273632f 	rsbscc	r6, r3, #-1140850688	; 0xbc000000
 95c:	786c3034 	stmdavc	ip!, {r2, r4, r5, ip, sp}^
 960:	7332322d 	teqvc	r2, #-805306366	; 0xd0000002
 964:	6c2f7270 	sfmvs	f7, 4, [pc], #-448	; 7ac <__code_start__-0x7854>
 968:	69706269 	ldmdbvs	r0!, {r0, r3, r5, r6, r9, sp, lr}^
 96c:	6174732f 	cmnvs	r4, pc, lsr #6
 970:	702d6666 	eorvc	r6, sp, r6, ror #12
 974:	61766972 	cmnvs	r6, r2, ror r9
 978:	67006574 	smlsdxvs	r0, r4, r5, r6
 97c:	5f6f6970 	svcpl	0x006f6970
 980:	5f746573 	svcpl	0x00746573
 984:	0066666f 	rsbeq	r6, r6, pc, ror #12
 988:	6f697067 	svcvs	0x00697067
 98c:	7465735f 	strbtvc	r7, [r5], #-863	; 0xfffffca1
 990:	74756f5f 	ldrbtvc	r6, [r5], #-3935	; 0xfffff0a1
 994:	00747570 	rsbseq	r7, r4, r0, ror r5
 998:	636e7566 	cmnvs	lr, #427819008	; 0x19800000
 99c:	69706700 	ldmdbvs	r0!, {r8, r9, sl, sp, lr}^
 9a0:	75665f6f 	strbvc	r5, [r6, #-3951]!	; 0xfffff091
 9a4:	745f636e 	ldrbvc	r6, [pc], #-878	; 9ac <__code_start__-0x7654>
 9a8:	69706700 	ldmdbvs	r0!, {r8, r9, sl, sp, lr}^
 9ac:	656c5f6f 	strbvs	r5, [ip, #-3951]!	; 0xfffff091
 9b0:	62003076 	andvs	r3, r0, #118, 0	; 0x76
 9b4:	006b6e61 	rsbeq	r6, fp, r1, ror #28
 9b8:	6f697067 	svcvs	0x00697067
 9bc:	6700632e 	strvs	r6, [r0, -lr, lsr #6]
 9c0:	5f6f6970 	svcpl	0x006f6970
 9c4:	5f746573 	svcpl	0x00746573
 9c8:	62006e6f 	andvs	r6, r0, #1776	; 0x6f0
 9cc:	5f647561 	svcpl	0x00647561
 9d0:	006c6176 	rsbeq	r6, ip, r6, ror r1
 9d4:	74617473 	strbtvc	r7, [r1], #-1139	; 0xfffffb8d
 9d8:	72617500 	rsbvc	r7, r1, #0, 10
 9dc:	61635f74 	smcvs	13812	; 0x35f4
 9e0:	65675f6e 	strbvs	r5, [r7, #-3950]!	; 0xfffff092
 9e4:	61006374 	tstvs	r0, r4, ror r3
 9e8:	705f7875 	subsvc	r7, pc, r5, ror r8	; <UNPREDICTABLE>
 9ec:	70697265 	rsbvc	r7, r9, r5, ror #4
 9f0:	75007368 	strvc	r7, [r0, #-872]	; 0xfffffc98
 9f4:	2e747261 	cdpcs	2, 7, cr7, cr4, cr1, {3}
 9f8:	61750063 	cmnvs	r5, r3, rrx
 9fc:	635f7472 	cmpvs	pc, #1912602624	; 0x72000000
 a00:	705f6e61 	subsvc	r6, pc, r1, ror #28
 a04:	00637475 	rsbeq	r7, r3, r5, ror r4
 a08:	74726175 	ldrbtvc	r6, [r2], #-373	; 0xfffffe8b
 a0c:	5f78745f 	svcpl	0x0078745f
 a10:	655f7369 	ldrbvs	r7, [pc, #-873]	; 6af <__code_start__-0x7951>
 a14:	7974706d 	ldmdbvc	r4!, {r0, r2, r3, r5, r6, ip, sp, lr}^
 a18:	75616200 	strbvc	r6, [r1, #-512]!	; 0xfffffe00
 a1c:	75610064 	strbvc	r0, [r1, #-100]!	; 0xffffff9c
 a20:	6e655f78 	mcrvs	15, 3, r5, cr5, cr8, {3}
 a24:	656c6261 	strbvs	r6, [ip, #-609]!	; 0xfffffd9f
 a28:	61750073 	cmnvs	r5, r3, ror r0
 a2c:	675f7472 			; <UNDEFINED> instruction: 0x675f7472
 a30:	00637465 	rsbeq	r7, r3, r5, ror #8
 a34:	6c746e63 	ldclvs	14, cr6, [r4], #-396	; 0xfffffe74
 a38:	72617500 	rsbvc	r7, r1, #0, 10
 a3c:	69645f74 	stmdbvs	r4!, {r2, r4, r5, r6, r8, r9, sl, fp, ip, lr}^
 a40:	6c626173 	stfvse	f6, [r2], #-460	; 0xfffffe34
 a44:	61750065 	cmnvs	r5, r5, rrx
 a48:	685f7472 	ldmdavs	pc, {r1, r4, r5, r6, sl, ip, sp, lr}^	; <UNPREDICTABLE>
 a4c:	645f7361 	ldrbvs	r7, [pc], #-865	; a54 <__code_start__-0x75ac>
 a50:	00617461 	rsbeq	r7, r1, r1, ror #8
 a54:	695f726f 	ldmdbvs	pc, {r0, r1, r2, r3, r5, r6, r9, ip, sp, lr}^	; <UNPREDICTABLE>
 a58:	0032336e 	eorseq	r3, r2, lr, ror #6
 a5c:	61726373 	cmnvs	r2, r3, ror r3
 a60:	00686374 	rsbeq	r6, r8, r4, ror r3
 a64:	74726175 	ldrbtvc	r6, [r2], #-373	; 0xfffffe8b
 a68:	646e6100 	strbtvs	r6, [lr], #-256	; 0xffffff00
 a6c:	336e695f 	cmncc	lr, #1556480	; 0x17c000
 a70:	61750032 	cmnvs	r5, r2, lsr r0
 a74:	705f7472 	subsvc	r7, pc, r2, ror r4	; <UNPREDICTABLE>
 a78:	00637475 	rsbeq	r7, r3, r5, ror r4
 a7c:	65746e69 	ldrbvs	r6, [r4, #-3689]!	; 0xfffff197
 a80:	6c616e72 	stclvs	14, cr6, [r1], #-456	; 0xfffffe38
 a84:	7475705f 	ldrbtvc	r7, [r5], #-95	; 0xffffffa1
 a88:	72616863 	rsbvc	r6, r1, #6488064	; 0x630000
 a8c:	69707200 	ldmdbvs	r0!, {r9, ip, sp, lr}^
 a90:	7465735f 	strbtvc	r7, [r5], #-863	; 0xfffffca1
 a94:	7475705f 	ldrbtvc	r7, [r5], #-95	; 0xffffffa1
 a98:	2f2e0063 	svccs	0x002e0063
 a9c:	6362696c 	cmnvs	r2, #108, 18	; 0x1b0000
 aa0:	7475702f 	ldrbtvc	r7, [r5], #-47	; 0xffffffd1
 aa4:	72616863 	rsbvc	r6, r1, #6488064	; 0x630000
 aa8:	7200632e 	andvc	r6, r0, #-1207959552	; 0xb8000000
 aac:	725f6970 	subsvc	r6, pc, #112, 18	; 0x1c0000
 ab0:	74657365 	strbtvc	r7, [r5], #-869	; 0xfffffc9b
 ab4:	7475705f 	ldrbtvc	r7, [r5], #-95	; 0xffffffa1
 ab8:	65640063 	strbvs	r0, [r4, #-99]!	; 0xffffff9d
 abc:	2e007473 	mcrcs	4, 0, r7, cr0, cr3, {3}
 ac0:	62696c2f 	rsbvs	r6, r9, #12032	; 0x2f00
 ac4:	74732f63 	ldrbtvc	r2, [r3], #-3939	; 0xfffff09d
 ac8:	74616372 	strbtvc	r6, [r1], #-882	; 0xfffffc8e
 acc:	2e00632e 	cdpcs	3, 0, cr6, cr0, cr14, {1}
 ad0:	62696c2f 	rsbvs	r6, r9, #12032	; 0x2f00
 ad4:	74732f63 	ldrbtvc	r2, [r3], #-3939	; 0xfffff09d
 ad8:	706d6372 	rsbvc	r6, sp, r2, ror r3
 adc:	2e00632e 	cdpcs	3, 0, cr6, cr0, cr14, {1}
 ae0:	62696c2f 	rsbvs	r6, r9, #12032	; 0x2f00
 ae4:	74732f63 	ldrbtvc	r2, [r3], #-3939	; 0xfffff09d
 ae8:	79706372 	ldmdbvc	r0!, {r1, r4, r5, r6, r8, r9, sp, lr}^
 aec:	7300632e 	movwvc	r6, #814	; 0x32e
 af0:	5f657a69 	svcpl	0x00657a69
 af4:	2f2e0074 	svccs	0x002e0074
 af8:	6362696c 	cmnvs	r2, #108, 18	; 0x1b0000
 afc:	7274732f 	rsbsvc	r7, r4, #-1140850688	; 0xbc000000
 b00:	706d636e 	rsbvc	r6, sp, lr, ror #6
 b04:	2e00632e 	cdpcs	3, 0, cr6, cr0, cr14, {1}
 b08:	6174732f 	cmnvs	r4, pc, lsr #6
 b0c:	732d6666 			; <UNDEFINED> instruction: 0x732d6666
 b10:	642f6372 	strtvs	r6, [pc], #-882	; b18 <__code_start__-0x74e8>
 b14:	75616665 	strbvc	r6, [r1, #-1637]!	; 0xfffff99b
 b18:	722d746c 	eorvc	r7, sp, #108, 8	; 0x6c000000
 b1c:	6f6f6265 	svcvs	0x006f6265
 b20:	61632d74 	smcvs	13012	; 0x32d4
 b24:	756f6c6c 	strbvc	r6, [pc, #-3180]!	; fffffec0 <__bss_end__+0xffff5f18>
 b28:	00632e74 	rsbeq	r2, r3, r4, ror lr

Disassembly of section .debug_frame:

00000000 <.debug_frame>:
   0:	0000000c 	andeq	r0, r0, ip
   4:	ffffffff 			; <UNDEFINED> instruction: 0xffffffff
   8:	7c020001 	stcvc	0, cr0, [r2], {1}
   c:	000d0c0e 	andeq	r0, sp, lr, lsl #24
  10:	00000018 	andeq	r0, r0, r8, lsl r0
  14:	00000000 	andeq	r0, r0, r0
  18:	000080d8 	ldrdeq	r8, [r0], -r8	; <UNPREDICTABLE>
  1c:	00000048 	andeq	r0, r0, r8, asr #32
  20:	84100e42 	ldrhi	r0, [r0], #-3650	; 0xfffff1be
  24:	86038504 	strhi	r8, [r3], -r4, lsl #10
  28:	00018e02 	andeq	r8, r1, r2, lsl #28
  2c:	0000000c 	andeq	r0, r0, ip
  30:	ffffffff 			; <UNDEFINED> instruction: 0xffffffff
  34:	7c020001 	stcvc	0, cr0, [r2], {1}
  38:	000d0c0e 	andeq	r0, sp, lr, lsl #24
  3c:	00000014 	andeq	r0, r0, r4, lsl r0
  40:	0000002c 	andeq	r0, r0, ip, lsr #32
  44:	00008120 	andeq	r8, r0, r0, lsr #2
  48:	000000cc 	andeq	r0, r0, ip, asr #1
  4c:	84080e42 	strhi	r0, [r8], #-3650	; 0xfffff1be
  50:	00018e02 	andeq	r8, r1, r2, lsl #28
  54:	00000018 	andeq	r0, r0, r8, lsl r0
  58:	0000002c 	andeq	r0, r0, ip, lsr #32
  5c:	000081ec 	andeq	r8, r0, ip, ror #3
  60:	00000028 	andeq	r0, r0, r8, lsr #32
  64:	8e040e42 	cdphi	14, 0, cr0, cr4, cr2, {2}
  68:	100e4201 	andne	r4, lr, r1, lsl #4
  6c:	00040e4e 	andeq	r0, r4, lr, asr #28
  70:	00000018 	andeq	r0, r0, r8, lsl r0
  74:	0000002c 	andeq	r0, r0, ip, lsr #32
  78:	00008214 	andeq	r8, r0, r4, lsl r2
  7c:	0000002c 	andeq	r0, r0, ip, lsr #32
  80:	8e040e42 	cdphi	14, 0, cr0, cr4, cr2, {2}
  84:	100e4201 	andne	r4, lr, r1, lsl #4
  88:	00040e50 	andeq	r0, r4, r0, asr lr
  8c:	0000001c 	andeq	r0, r0, ip, lsl r0
  90:	0000002c 	andeq	r0, r0, ip, lsr #32
  94:	00008240 	andeq	r8, r0, r0, asr #4
  98:	0000004c 	andeq	r0, r0, ip, asr #32
  9c:	84080e42 	strhi	r0, [r8], #-3650	; 0xfffff1be
  a0:	42018e02 	andmi	r8, r1, #2, 28
  a4:	0e60180e 	cdpeq	8, 6, cr1, cr0, cr14, {0}
  a8:	00000008 	andeq	r0, r0, r8
  ac:	00000020 	andeq	r0, r0, r0, lsr #32
  b0:	0000002c 	andeq	r0, r0, ip, lsr #32
  b4:	0000828c 	andeq	r8, r0, ip, lsl #5
  b8:	00000208 	andeq	r0, r0, r8, lsl #4
  bc:	840c0e42 	strhi	r0, [ip], #-3650	; 0xfffff1be
  c0:	8e028503 	cfsh32hi	mvfx8, mvfx2, #3
  c4:	180e4201 	stmdane	lr, {r0, r9, lr}
  c8:	0e0a8002 	cdpeq	0, 0, cr8, cr10, cr2, {0}
  cc:	000b420c 	andeq	r4, fp, ip, lsl #4
  d0:	0000000c 	andeq	r0, r0, ip
  d4:	ffffffff 			; <UNDEFINED> instruction: 0xffffffff
  d8:	7c020001 	stcvc	0, cr0, [r2], {1}
  dc:	000d0c0e 	andeq	r0, sp, lr, lsl #24
  e0:	0000000c 	andeq	r0, r0, ip
  e4:	000000d0 	ldrdeq	r0, [r0], -r0	; <UNPREDICTABLE>
  e8:	00008494 	muleq	r0, r4, r4
  ec:	00000010 	andeq	r0, r0, r0, lsl r0
  f0:	0000000c 	andeq	r0, r0, ip
  f4:	000000d0 	ldrdeq	r0, [r0], -r0	; <UNPREDICTABLE>
  f8:	000084a4 	andeq	r8, r0, r4, lsr #9
  fc:	0000000c 	andeq	r0, r0, ip
 100:	0000001c 	andeq	r0, r0, ip, lsl r0
 104:	000000d0 	ldrdeq	r0, [r0], -r0	; <UNPREDICTABLE>
 108:	000084b0 			; <UNDEFINED> instruction: 0x000084b0
 10c:	00000100 	andeq	r0, r0, r0, lsl #2
 110:	8e040e42 	cdphi	14, 0, cr0, cr4, cr2, {2}
 114:	100e4201 	andne	r4, lr, r1, lsl #4
 118:	0e0a4402 	cdpeq	4, 0, cr4, cr10, cr2, {0}
 11c:	000b4204 	andeq	r4, fp, r4, lsl #4
 120:	00000014 	andeq	r0, r0, r4, lsl r0
 124:	000000d0 	ldrdeq	r0, [r0], -r0	; <UNPREDICTABLE>
 128:	000085b0 			; <UNDEFINED> instruction: 0x000085b0
 12c:	00000010 	andeq	r0, r0, r0, lsl r0
 130:	84080e42 	strhi	r0, [r8], #-3650	; 0xfffff1be
 134:	00018e02 	andeq	r8, r1, r2, lsl #28
 138:	00000014 	andeq	r0, r0, r4, lsl r0
 13c:	000000d0 	ldrdeq	r0, [r0], -r0	; <UNPREDICTABLE>
 140:	000085c0 	andeq	r8, r0, r0, asr #11
 144:	00000028 	andeq	r0, r0, r8, lsr #32
 148:	84080e42 	strhi	r0, [r8], #-3650	; 0xfffff1be
 14c:	00018e02 	andeq	r8, r1, r2, lsl #28
 150:	00000014 	andeq	r0, r0, r4, lsl r0
 154:	000000d0 	ldrdeq	r0, [r0], -r0	; <UNPREDICTABLE>
 158:	000085e8 	andeq	r8, r0, r8, ror #11
 15c:	00000010 	andeq	r0, r0, r0, lsl r0
 160:	84080e42 	strhi	r0, [r8], #-3650	; 0xfffff1be
 164:	00018e02 	andeq	r8, r1, r2, lsl #28
 168:	00000020 	andeq	r0, r0, r0, lsr #32
 16c:	000000d0 	ldrdeq	r0, [r0], -r0	; <UNPREDICTABLE>
 170:	000085f8 	strdeq	r8, [r0], -r8	; <UNPREDICTABLE>
 174:	000001d4 	ldrdeq	r0, [r0], -r4
 178:	84100e42 	ldrhi	r0, [r0], #-3650	; 0xfffff1be
 17c:	86038504 	strhi	r8, [r3], -r4, lsl #10
 180:	42018e02 	andmi	r8, r1, #2, 28
 184:	ca02180e 	bgt	861c4 <__bss_end__+0x7c21c>
 188:	0000100e 	andeq	r1, r0, lr
 18c:	00000018 	andeq	r0, r0, r8, lsl r0
 190:	000000d0 	ldrdeq	r0, [r0], -r0	; <UNPREDICTABLE>
 194:	000087cc 	andeq	r8, r0, ip, asr #15
 198:	000000bc 	strheq	r0, [r0], -ip
 19c:	84100e42 	ldrhi	r0, [r0], #-3650	; 0xfffff1be
 1a0:	86038504 	strhi	r8, [r3], -r4, lsl #10
 1a4:	00018e02 	andeq	r8, r1, r2, lsl #28
 1a8:	00000018 	andeq	r0, r0, r8, lsl r0
 1ac:	000000d0 	ldrdeq	r0, [r0], -r0	; <UNPREDICTABLE>
 1b0:	00008888 	andeq	r8, r0, r8, lsl #17
 1b4:	000000bc 	strheq	r0, [r0], -ip
 1b8:	84100e42 	ldrhi	r0, [r0], #-3650	; 0xfffff1be
 1bc:	86038504 	strhi	r8, [r3], -r4, lsl #10
 1c0:	00018e02 	andeq	r8, r1, r2, lsl #28
 1c4:	0000000c 	andeq	r0, r0, ip
 1c8:	000000d0 	ldrdeq	r0, [r0], -r0	; <UNPREDICTABLE>
 1cc:	00008944 	andeq	r8, r0, r4, asr #18
 1d0:	00000010 	andeq	r0, r0, r0, lsl r0
 1d4:	0000001c 	andeq	r0, r0, ip, lsl r0
 1d8:	000000d0 	ldrdeq	r0, [r0], -r0	; <UNPREDICTABLE>
 1dc:	00008954 	andeq	r8, r0, r4, asr r9
 1e0:	000000a0 	andeq	r0, r0, r0, lsr #1
 1e4:	84080e42 	strhi	r0, [r8], #-3650	; 0xfffff1be
 1e8:	42018e02 	andmi	r8, r1, #2, 28
 1ec:	0a6c100e 	beq	1b0422c <__bss_end__+0x1afa284>
 1f0:	0b42080e 	bleq	1082230 <__bss_end__+0x1078288>
 1f4:	00000014 	andeq	r0, r0, r4, lsl r0
 1f8:	000000d0 	ldrdeq	r0, [r0], -r0	; <UNPREDICTABLE>
 1fc:	000089f4 	strdeq	r8, [r0], -r4
 200:	00000018 	andeq	r0, r0, r8, lsl r0
 204:	84080e42 	strhi	r0, [r8], #-3650	; 0xfffff1be
 208:	00018e02 	andeq	r8, r1, r2, lsl #28
 20c:	0000000c 	andeq	r0, r0, ip
 210:	ffffffff 			; <UNDEFINED> instruction: 0xffffffff
 214:	7c020001 	stcvc	0, cr0, [r2], {1}
 218:	000d0c0e 	andeq	r0, sp, lr, lsl #24
 21c:	00000034 	andeq	r0, r0, r4, lsr r0
 220:	0000020c 	andeq	r0, r0, ip, lsl #4
 224:	00008a0c 	andeq	r8, r0, ip, lsl #20
 228:	00000058 	andeq	r0, r0, r8, asr r0
 22c:	80100e42 	andshi	r0, r0, r2, asr #28
 230:	82038104 	andhi	r8, r3, #1
 234:	42018302 	andmi	r8, r1, #134217728	; 0x8000000
 238:	07841c0e 	streq	r1, [r4, lr, lsl #24]
 23c:	058e0685 	streq	r0, [lr, #1669]	; 0x685
 240:	5c280e42 	stcpl	14, cr0, [r8], #-264	; 0xfffffef8
 244:	ce421c0e 	cdpgt	12, 4, cr1, cr2, cr14, {0}
 248:	100ec4c5 	andne	ip, lr, r5, asr #9
 24c:	c1c2c342 	bicgt	ip, r2, r2, asr #6
 250:	00000ec0 	andeq	r0, r0, r0, asr #29
 254:	0000000c 	andeq	r0, r0, ip
 258:	ffffffff 			; <UNDEFINED> instruction: 0xffffffff
 25c:	7c020001 	stcvc	0, cr0, [r2], {1}
 260:	000d0c0e 	andeq	r0, sp, lr, lsl #24
 264:	00000014 	andeq	r0, r0, r4, lsl r0
 268:	00000254 	andeq	r0, r0, r4, asr r2
 26c:	00008a64 	andeq	r8, r0, r4, ror #20
 270:	00000034 	andeq	r0, r0, r4, lsr r0
 274:	84080e42 	strhi	r0, [r8], #-3650	; 0xfffff1be
 278:	00018e02 	andeq	r8, r1, r2, lsl #28
 27c:	0000000c 	andeq	r0, r0, ip
 280:	ffffffff 			; <UNDEFINED> instruction: 0xffffffff
 284:	7c020001 	stcvc	0, cr0, [r2], {1}
 288:	000d0c0e 	andeq	r0, sp, lr, lsl #24
 28c:	0000000c 	andeq	r0, r0, ip
 290:	0000027c 	andeq	r0, r0, ip, ror r2
 294:	00008a98 	muleq	r0, r8, sl
 298:	00000014 	andeq	r0, r0, r4, lsl r0
 29c:	0000000c 	andeq	r0, r0, ip
 2a0:	0000027c 	andeq	r0, r0, ip, ror r2
 2a4:	00008aac 	andeq	r8, r0, ip, lsr #21
 2a8:	00000024 	andeq	r0, r0, r4, lsr #32
 2ac:	0000000c 	andeq	r0, r0, ip
 2b0:	0000027c 	andeq	r0, r0, ip, ror r2
 2b4:	00008ad0 	ldrdeq	r8, [r0], -r0
 2b8:	00000038 	andeq	r0, r0, r8, lsr r0
 2bc:	00000024 	andeq	r0, r0, r4, lsr #32
 2c0:	0000027c 	andeq	r0, r0, ip, ror r2
 2c4:	00008b08 	andeq	r8, r0, r8, lsl #22
 2c8:	000001b4 			; <UNDEFINED> instruction: 0x000001b4
 2cc:	84140e42 	ldrhi	r0, [r4], #-3650	; 0xfffff1be
 2d0:	86048505 	strhi	r8, [r4], -r5, lsl #10
 2d4:	8e028703 	cdphi	7, 0, cr8, cr2, cr3, {0}
 2d8:	600e4201 	andvs	r4, lr, r1, lsl #4
 2dc:	0e0a9a02 	vmlaeq.f32	s18, s20, s4
 2e0:	000b4214 	andeq	r4, fp, r4, lsl r2
 2e4:	00000014 	andeq	r0, r0, r4, lsl r0
 2e8:	0000027c 	andeq	r0, r0, ip, ror r2
 2ec:	00008cbc 			; <UNDEFINED> instruction: 0x00008cbc
 2f0:	00000064 	andeq	r0, r0, r4, rrx
 2f4:	8e040e54 	mcrhi	14, 0, r0, cr4, cr4, {2}
 2f8:	100e4201 	andne	r4, lr, r1, lsl #4
 2fc:	0000002c 	andeq	r0, r0, ip, lsr #32
 300:	0000027c 	andeq	r0, r0, ip, ror r2
 304:	00008d20 	andeq	r8, r0, r0, lsr #26
 308:	000004b8 			; <UNDEFINED> instruction: 0x000004b8
 30c:	84240e42 	strthi	r0, [r4], #-3650	; 0xfffff1be
 310:	86088509 	strhi	r8, [r8], -r9, lsl #10
 314:	88068707 	stmdahi	r6, {r0, r1, r2, r8, r9, sl, pc}
 318:	8a048905 	bhi	122734 <__bss_end__+0x11878c>
 31c:	8e028b03 	vmlahi.f64	d8, d2, d3
 320:	b80e4201 	stmdalt	lr, {r0, r9, lr}
 324:	02380302 	eorseq	r0, r8, #134217728	; 0x8000000
 328:	0000240e 	andeq	r2, r0, lr, lsl #8
 32c:	0000000c 	andeq	r0, r0, ip
 330:	ffffffff 			; <UNDEFINED> instruction: 0xffffffff
 334:	7c020001 	stcvc	0, cr0, [r2], {1}
 338:	000d0c0e 	andeq	r0, sp, lr, lsl #24
 33c:	00000014 	andeq	r0, r0, r4, lsl r0
 340:	0000032c 	andeq	r0, r0, ip, lsr #6
 344:	000091d8 	ldrdeq	r9, [r0], -r8
 348:	0000002c 	andeq	r0, r0, ip, lsr #32
 34c:	84080e42 	strhi	r0, [r8], #-3650	; 0xfffff1be
 350:	00018e02 	andeq	r8, r1, r2, lsl #28
 354:	0000000c 	andeq	r0, r0, ip
 358:	ffffffff 			; <UNDEFINED> instruction: 0xffffffff
 35c:	7c020001 	stcvc	0, cr0, [r2], {1}
 360:	000d0c0e 	andeq	r0, sp, lr, lsl #24
 364:	00000014 	andeq	r0, r0, r4, lsl r0
 368:	00000354 	andeq	r0, r0, r4, asr r3
 36c:	00009204 	andeq	r9, r0, r4, lsl #4
 370:	0000003c 	andeq	r0, r0, ip, lsr r0
 374:	84080e42 	strhi	r0, [r8], #-3650	; 0xfffff1be
 378:	00018e02 	andeq	r8, r1, r2, lsl #28
 37c:	0000000c 	andeq	r0, r0, ip
 380:	ffffffff 			; <UNDEFINED> instruction: 0xffffffff
 384:	7c020001 	stcvc	0, cr0, [r2], {1}
 388:	000d0c0e 	andeq	r0, sp, lr, lsl #24
 38c:	0000000c 	andeq	r0, r0, ip
 390:	0000037c 	andeq	r0, r0, ip, ror r3
 394:	00009240 	andeq	r9, r0, r0, asr #4
 398:	00000004 	andeq	r0, r0, r4
 39c:	0000000c 	andeq	r0, r0, ip
 3a0:	ffffffff 			; <UNDEFINED> instruction: 0xffffffff
 3a4:	7c020001 	stcvc	0, cr0, [r2], {1}
 3a8:	000d0c0e 	andeq	r0, sp, lr, lsl #24
 3ac:	0000000c 	andeq	r0, r0, ip
 3b0:	0000039c 	muleq	r0, ip, r3
 3b4:	0000925c 	andeq	r9, r0, ip, asr r2
 3b8:	00000018 	andeq	r0, r0, r8, lsl r0
 3bc:	0000000c 	andeq	r0, r0, ip
 3c0:	0000039c 	muleq	r0, ip, r3
 3c4:	00009274 	andeq	r9, r0, r4, ror r2
 3c8:	00000014 	andeq	r0, r0, r4, lsl r0
 3cc:	00000014 	andeq	r0, r0, r4, lsl r0
 3d0:	0000039c 	muleq	r0, ip, r3
 3d4:	00009288 	andeq	r9, r0, r8, lsl #5
 3d8:	00000054 	andeq	r0, r0, r4, asr r0
 3dc:	84080e42 	strhi	r0, [r8], #-3650	; 0xfffff1be
 3e0:	00018e02 	andeq	r8, r1, r2, lsl #28
 3e4:	0000000c 	andeq	r0, r0, ip
 3e8:	ffffffff 			; <UNDEFINED> instruction: 0xffffffff
 3ec:	7c020001 	stcvc	0, cr0, [r2], {1}
 3f0:	000d0c0e 	andeq	r0, sp, lr, lsl #24
 3f4:	00000014 	andeq	r0, r0, r4, lsl r0
 3f8:	000003e4 	andeq	r0, r0, r4, ror #7
 3fc:	000092dc 	ldrdeq	r9, [r0], -ip
 400:	00000014 	andeq	r0, r0, r4, lsl r0
 404:	84080e42 	strhi	r0, [r8], #-3650	; 0xfffff1be
 408:	00018e02 	andeq	r8, r1, r2, lsl #28
 40c:	00000014 	andeq	r0, r0, r4, lsl r0
 410:	000003e4 	andeq	r0, r0, r4, ror #7
 414:	000092f0 	strdeq	r9, [r0], -r0
 418:	0000001c 	andeq	r0, r0, ip, lsl r0
 41c:	84080e42 	strhi	r0, [r8], #-3650	; 0xfffff1be
 420:	00018e02 	andeq	r8, r1, r2, lsl #28
 424:	00000018 	andeq	r0, r0, r8, lsl r0
 428:	000003e4 	andeq	r0, r0, r4, ror #7
 42c:	0000930c 	andeq	r9, r0, ip, lsl #6
 430:	00000024 	andeq	r0, r0, r4, lsr #32
 434:	84100e42 	ldrhi	r0, [r0], #-3650	; 0xfffff1be
 438:	86038504 	strhi	r8, [r3], -r4, lsl #10
 43c:	00018e02 	andeq	r8, r1, r2, lsl #28
 440:	00000014 	andeq	r0, r0, r4, lsl r0
 444:	000003e4 	andeq	r0, r0, r4, ror #7
 448:	00009330 	andeq	r9, r0, r0, lsr r3
 44c:	00000018 	andeq	r0, r0, r8, lsl r0
 450:	84080e42 	strhi	r0, [r8], #-3650	; 0xfffff1be
 454:	00018e02 	andeq	r8, r1, r2, lsl #28
 458:	00000014 	andeq	r0, r0, r4, lsl r0
 45c:	000003e4 	andeq	r0, r0, r4, ror #7
 460:	00009348 	andeq	r9, r0, r8, asr #6
 464:	00000018 	andeq	r0, r0, r8, lsl r0
 468:	84080e42 	strhi	r0, [r8], #-3650	; 0xfffff1be
 46c:	00018e02 	andeq	r8, r1, r2, lsl #28
 470:	0000000c 	andeq	r0, r0, ip
 474:	ffffffff 			; <UNDEFINED> instruction: 0xffffffff
 478:	7c020001 	stcvc	0, cr0, [r2], {1}
 47c:	000d0c0e 	andeq	r0, sp, lr, lsl #24
 480:	00000018 	andeq	r0, r0, r8, lsl r0
 484:	00000470 	andeq	r0, r0, r0, ror r4
 488:	00009360 	andeq	r9, r0, r0, ror #6
 48c:	00000064 	andeq	r0, r0, r4, rrx
 490:	84100e46 	ldrhi	r0, [r0], #-3654	; 0xfffff1ba
 494:	86038504 	strhi	r8, [r3], -r4, lsl #10
 498:	00018e02 	andeq	r8, r1, r2, lsl #28
 49c:	00000014 	andeq	r0, r0, r4, lsl r0
 4a0:	00000470 	andeq	r0, r0, r0, ror r4
 4a4:	000093c4 	andeq	r9, r0, r4, asr #7
 4a8:	00000010 	andeq	r0, r0, r0, lsl r0
 4ac:	84080e42 	strhi	r0, [r8], #-3650	; 0xfffff1be
 4b0:	00018e02 	andeq	r8, r1, r2, lsl #28
 4b4:	00000014 	andeq	r0, r0, r4, lsl r0
 4b8:	00000470 	andeq	r0, r0, r0, ror r4
 4bc:	000093d4 	ldrdeq	r9, [r0], -r4
 4c0:	00000024 	andeq	r0, r0, r4, lsr #32
 4c4:	84080e46 	strhi	r0, [r8], #-3654	; 0xfffff1ba
 4c8:	00018e02 	andeq	r8, r1, r2, lsl #28
 4cc:	00000014 	andeq	r0, r0, r4, lsl r0
 4d0:	00000470 	andeq	r0, r0, r0, ror r4
 4d4:	000093f8 	strdeq	r9, [r0], -r8
 4d8:	00000024 	andeq	r0, r0, r4, lsr #32
 4dc:	84080e46 	strhi	r0, [r8], #-3654	; 0xfffff1ba
 4e0:	00018e02 	andeq	r8, r1, r2, lsl #28
 4e4:	00000014 	andeq	r0, r0, r4, lsl r0
 4e8:	00000470 	andeq	r0, r0, r0, ror r4
 4ec:	0000941c 	andeq	r9, r0, ip, lsl r4
 4f0:	00000010 	andeq	r0, r0, r0, lsl r0
 4f4:	84080e42 	strhi	r0, [r8], #-3650	; 0xfffff1be
 4f8:	00018e02 	andeq	r8, r1, r2, lsl #28
 4fc:	00000014 	andeq	r0, r0, r4, lsl r0
 500:	00000470 	andeq	r0, r0, r0, ror r4
 504:	0000942c 	andeq	r9, r0, ip, lsr #8
 508:	0000001c 	andeq	r0, r0, ip, lsl r0
 50c:	84080e42 	strhi	r0, [r8], #-3650	; 0xfffff1be
 510:	00018e02 	andeq	r8, r1, r2, lsl #28
 514:	00000018 	andeq	r0, r0, r8, lsl r0
 518:	00000470 	andeq	r0, r0, r0, ror r4
 51c:	00009448 	andeq	r9, r0, r8, asr #8
 520:	00000034 	andeq	r0, r0, r4, lsr r0
 524:	84080e46 	strhi	r0, [r8], #-3654	; 0xfffff1ba
 528:	4e018e02 	cdpmi	14, 0, cr8, cr1, cr2, {0}
 52c:	cec4000e 	cdpgt	0, 12, cr0, cr4, cr14, {0}
 530:	0000000c 	andeq	r0, r0, ip
 534:	ffffffff 			; <UNDEFINED> instruction: 0xffffffff
 538:	7c020001 	stcvc	0, cr0, [r2], {1}
 53c:	000d0c0e 	andeq	r0, sp, lr, lsl #24
 540:	00000018 	andeq	r0, r0, r8, lsl r0
 544:	00000530 	andeq	r0, r0, r0, lsr r5
 548:	0000947c 	andeq	r9, r0, ip, ror r4
 54c:	00000020 	andeq	r0, r0, r0, lsr #32
 550:	84100e42 	ldrhi	r0, [r0], #-3650	; 0xfffff1be
 554:	86038504 	strhi	r8, [r3], -r4, lsl #10
 558:	00018e02 	andeq	r8, r1, r2, lsl #28
 55c:	00000018 	andeq	r0, r0, r8, lsl r0
 560:	00000530 	andeq	r0, r0, r0, lsr r5
 564:	0000949c 	muleq	r0, ip, r4
 568:	00000020 	andeq	r0, r0, r0, lsr #32
 56c:	84100e42 	ldrhi	r0, [r0], #-3650	; 0xfffff1be
 570:	86038504 	strhi	r8, [r3], -r4, lsl #10
 574:	00018e02 	andeq	r8, r1, r2, lsl #28
 578:	00000014 	andeq	r0, r0, r4, lsl r0
 57c:	00000530 	andeq	r0, r0, r0, lsr r5
 580:	000094bc 			; <UNDEFINED> instruction: 0x000094bc
 584:	000000b0 	strheq	r0, [r0], -r0	; <UNPREDICTABLE>
 588:	84080e42 	strhi	r0, [r8], #-3650	; 0xfffff1be
 58c:	00018e02 	andeq	r8, r1, r2, lsl #28
 590:	00000014 	andeq	r0, r0, r4, lsl r0
 594:	00000530 	andeq	r0, r0, r0, lsr r5
 598:	0000956c 	andeq	r9, r0, ip, ror #10
 59c:	00000018 	andeq	r0, r0, r8, lsl r0
 5a0:	84080e42 	strhi	r0, [r8], #-3650	; 0xfffff1be
 5a4:	00018e02 	andeq	r8, r1, r2, lsl #28
 5a8:	00000014 	andeq	r0, r0, r4, lsl r0
 5ac:	00000530 	andeq	r0, r0, r0, lsr r5
 5b0:	00009584 	andeq	r9, r0, r4, lsl #11
 5b4:	00000020 	andeq	r0, r0, r0, lsr #32
 5b8:	84080e42 	strhi	r0, [r8], #-3650	; 0xfffff1be
 5bc:	00018e02 	andeq	r8, r1, r2, lsl #28
 5c0:	00000014 	andeq	r0, r0, r4, lsl r0
 5c4:	00000530 	andeq	r0, r0, r0, lsr r5
 5c8:	000095a4 	andeq	r9, r0, r4, lsr #11
 5cc:	00000030 	andeq	r0, r0, r0, lsr r0
 5d0:	84080e42 	strhi	r0, [r8], #-3650	; 0xfffff1be
 5d4:	00018e02 	andeq	r8, r1, r2, lsl #28
 5d8:	00000014 	andeq	r0, r0, r4, lsl r0
 5dc:	00000530 	andeq	r0, r0, r0, lsr r5
 5e0:	000095d4 	ldrdeq	r9, [r0], -r4
 5e4:	00000030 	andeq	r0, r0, r0, lsr r0
 5e8:	84080e42 	strhi	r0, [r8], #-3650	; 0xfffff1be
 5ec:	00018e02 	andeq	r8, r1, r2, lsl #28
 5f0:	00000014 	andeq	r0, r0, r4, lsl r0
 5f4:	00000530 	andeq	r0, r0, r0, lsr r5
 5f8:	00009604 	andeq	r9, r0, r4, lsl #12
 5fc:	00000010 	andeq	r0, r0, r0, lsl r0
 600:	84080e42 	strhi	r0, [r8], #-3650	; 0xfffff1be
 604:	00018e02 	andeq	r8, r1, r2, lsl #28
 608:	00000014 	andeq	r0, r0, r4, lsl r0
 60c:	00000530 	andeq	r0, r0, r0, lsr r5
 610:	00009614 	andeq	r9, r0, r4, lsl r6
 614:	00000020 	andeq	r0, r0, r0, lsr #32
 618:	84080e42 	strhi	r0, [r8], #-3650	; 0xfffff1be
 61c:	00018e02 	andeq	r8, r1, r2, lsl #28
 620:	00000014 	andeq	r0, r0, r4, lsl r0
 624:	00000530 	andeq	r0, r0, r0, lsr r5
 628:	00009634 	andeq	r9, r0, r4, lsr r6
 62c:	00000014 	andeq	r0, r0, r4, lsl r0
 630:	84080e42 	strhi	r0, [r8], #-3650	; 0xfffff1be
 634:	00018e02 	andeq	r8, r1, r2, lsl #28
 638:	00000014 	andeq	r0, r0, r4, lsl r0
 63c:	00000530 	andeq	r0, r0, r0, lsr r5
 640:	00009648 	andeq	r9, r0, r8, asr #12
 644:	00000024 	andeq	r0, r0, r4, lsr #32
 648:	84080e42 	strhi	r0, [r8], #-3650	; 0xfffff1be
 64c:	00018e02 	andeq	r8, r1, r2, lsl #28
 650:	0000000c 	andeq	r0, r0, ip
 654:	ffffffff 			; <UNDEFINED> instruction: 0xffffffff
 658:	7c020001 	stcvc	0, cr0, [r2], {1}
 65c:	000d0c0e 	andeq	r0, sp, lr, lsl #24
 660:	00000014 	andeq	r0, r0, r4, lsl r0
 664:	00000650 	andeq	r0, r0, r0, asr r6
 668:	0000966c 	andeq	r9, r0, ip, ror #12
 66c:	00000014 	andeq	r0, r0, r4, lsl r0
 670:	84080e42 	strhi	r0, [r8], #-3650	; 0xfffff1be
 674:	00018e02 	andeq	r8, r1, r2, lsl #28
 678:	0000000c 	andeq	r0, r0, ip
 67c:	00000650 	andeq	r0, r0, r0, asr r6
 680:	00009680 	andeq	r9, r0, r0, lsl #13
 684:	00000018 	andeq	r0, r0, r8, lsl r0
 688:	0000000c 	andeq	r0, r0, ip
 68c:	00000650 	andeq	r0, r0, r0, asr r6
 690:	00009698 	muleq	r0, r8, r6
 694:	00000010 	andeq	r0, r0, r0, lsl r0
 698:	0000000c 	andeq	r0, r0, ip
 69c:	ffffffff 			; <UNDEFINED> instruction: 0xffffffff
 6a0:	7c020001 	stcvc	0, cr0, [r2], {1}
 6a4:	000d0c0e 	andeq	r0, sp, lr, lsl #24
 6a8:	0000000c 	andeq	r0, r0, ip
 6ac:	00000698 	muleq	r0, r8, r6
 6b0:	000096a8 	andeq	r9, r0, r8, lsr #13
 6b4:	00000034 	andeq	r0, r0, r4, lsr r0
 6b8:	0000000c 	andeq	r0, r0, ip
 6bc:	ffffffff 			; <UNDEFINED> instruction: 0xffffffff
 6c0:	7c020001 	stcvc	0, cr0, [r2], {1}
 6c4:	000d0c0e 	andeq	r0, sp, lr, lsl #24
 6c8:	0000000c 	andeq	r0, r0, ip
 6cc:	000006b8 			; <UNDEFINED> instruction: 0x000006b8
 6d0:	000096dc 	ldrdeq	r9, [r0], -ip
 6d4:	0000002c 	andeq	r0, r0, ip, lsr #32
 6d8:	0000000c 	andeq	r0, r0, ip
 6dc:	ffffffff 			; <UNDEFINED> instruction: 0xffffffff
 6e0:	7c020001 	stcvc	0, cr0, [r2], {1}
 6e4:	000d0c0e 	andeq	r0, sp, lr, lsl #24
 6e8:	0000000c 	andeq	r0, r0, ip
 6ec:	000006d8 	ldrdeq	r0, [r0], -r8
 6f0:	00009708 	andeq	r9, r0, r8, lsl #14
 6f4:	00000020 	andeq	r0, r0, r0, lsr #32
 6f8:	0000000c 	andeq	r0, r0, ip
 6fc:	ffffffff 			; <UNDEFINED> instruction: 0xffffffff
 700:	7c020001 	stcvc	0, cr0, [r2], {1}
 704:	000d0c0e 	andeq	r0, sp, lr, lsl #24
 708:	0000000c 	andeq	r0, r0, ip
 70c:	000006f8 	strdeq	r0, [r0], -r8
 710:	00009728 	andeq	r9, r0, r8, lsr #14
 714:	0000002c 	andeq	r0, r0, ip, lsr #32
 718:	0000000c 	andeq	r0, r0, ip
 71c:	ffffffff 			; <UNDEFINED> instruction: 0xffffffff
 720:	7c020001 	stcvc	0, cr0, [r2], {1}
 724:	000d0c0e 	andeq	r0, sp, lr, lsl #24
 728:	0000000c 	andeq	r0, r0, ip
 72c:	00000718 	andeq	r0, r0, r8, lsl r7
 730:	00009754 	andeq	r9, r0, r4, asr r7
 734:	00000004 	andeq	r0, r0, r4

Disassembly of section .debug_ranges:

00000000 <.debug_ranges>:
   0:	000001d0 	ldrdeq	r0, [r0], -r0	; <UNPREDICTABLE>
   4:	000001d4 	ldrdeq	r0, [r0], -r4
   8:	000001d4 	ldrdeq	r0, [r0], -r4
   c:	000001d8 	ldrdeq	r0, [r0], -r8
	...
  18:	000001e0 	andeq	r0, r0, r0, ror #3
  1c:	000001e4 	andeq	r0, r0, r4, ror #3
  20:	000001e4 	andeq	r0, r0, r4, ror #3
  24:	000001e8 	andeq	r0, r0, r8, ror #3
	...
  30:	0000024c 	andeq	r0, r0, ip, asr #4
  34:	00000250 	andeq	r0, r0, r0, asr r2
  38:	00000250 	andeq	r0, r0, r0, asr r2
  3c:	00000254 	andeq	r0, r0, r4, asr r2
	...
  48:	0000025c 	andeq	r0, r0, ip, asr r2
  4c:	00000260 	andeq	r0, r0, r0, ror #4
  50:	00000260 	andeq	r0, r0, r0, ror #4
  54:	00000264 	andeq	r0, r0, r4, ror #4
	...
  60:	0000925c 	andeq	r9, r0, ip, asr r2
  64:	000092dc 	ldrdeq	r9, [r0], -ip
	...
  70:	00009728 	andeq	r9, r0, r8, lsr #14
  74:	00009754 	andeq	r9, r0, r4, asr r7
	...
